(lp0
(I5
(imakesets
aset
p1
(dp2
S'subset'
p3
I0
sS'container'
p4
Vslides
p5
sS'verbs'
p6
Vhave
p7
sS'idx'
p8
I5
sS'origs'
p9
I0
sS'adjs'
p10
NsS'contains'
p11
NsS'surface'
p12
Vemployees
p13
sS'entity'
p14
Vemployee
p15
sS'num'
p16
V10
p17
sS'role'
p18
S'do'
p19
sS'location'
p20
NsS'compound'
p21
I0
sS'subtypes'
p22
(lp23
sS'widx'
p24
I7
sS'type_failure'
p25
I0
sbtp26
a(I10
(imakesets
aset
p27
(dp28
g3
I0
sg4
Nsg6
Vhave be
p29
sg8
I10
sg9
I0
sg10
Nsg11
Nsg12
Vtimes
p30
sg14
g5
sg16
V0.1
p31
sg18
S'subj'
p32
sg20
Nsg21
I0
sg22
(lp33
sg24
I12
sg25
I0
sbtp34
a(I1003
(imakesets
aset
p35
(dp36
g3
I0
sg4
Nsg6
Vbe
p37
sg8
I1003
sg9
I1
sg10
Vtemporary
p38
sg11
Nsg12
Vemployees
p39
sg14
Vemployee
p40
sg16
S'x'
p41
sg18
g32
sg20
Nsg21
I0
sg22
(lp42
sg24
I4
sg25
I0
sbtp43
a.