(lp0
(I3
(imakesets
aset
p1
(dp2
S'subset'
p3
I0
sS'container'
p4
Vwaiter
p5
sS'verbs'
p6
Vhad
p7
sS'idx'
p8
I3
sS'origs'
p9
I0
sS'adjs'
p10
NsS'contains'
p11
NsS'surface'
p12
Vcustomers
p13
sS'entity'
p14
Vcustomer
p15
sS'num'
p16
V19
p17
sS'role'
p18
S'do'
p19
sS'location'
p20
NsS'compound'
p21
I0
sS'subtypes'
p22
(lp23
sS'widx'
p24
I5
sS'type_failure'
p25
I0
sbtp26
a(I1001
(imakesets
aset
p27
(dp28
g3
I0
sg4
Nsg6
Vleave get
p29
sg8
I1001
sg9
I1
sg10
Nsg11
Nsg12
Vcustomers
p30
sg14
Vcustomer
p31
sg16
V14
p32
sg18
S'subj'
p33
sg20
Nsg21
I0
sg22
(lp34
sg24
I3
sg25
I0
sbtp35
a(I1008
(imakesets
aset
p36
(dp37
g3
I0
sg4
Vhe
p38
sg6
Vgot
p39
sg8
I1008
sg9
I1
sg10
Nsg11
Nsg12
Vcustomers
p40
sg14
Vcustomer
p41
sg16
V36
p42
sg18
g19
sg20
Nsg21
I0
sg22
(lp43
sg24
I10
sg25
I0
sbtp44
a(I1013
(imakesets
aset
p45
(dp46
g3
I0
sg4
Vhe
p47
sg6
Vhave
p48
sg8
I1013
sg9
I1
sg10
Nsg11
Nsg12
Vcustomers
p49
sg14
Vcustomer
p50
sg16
S'x'
p51
sg18
g19
sg20
Nsg21
I0
sg22
(lp52
sg24
I14
sg25
I0
sbtp53
a.