(lp0
(I2
(imakesets
aset
p1
(dp2
S'subset'
p3
I0
sS'container'
p4
NsS'verbs'
p5
Vbe
p6
sS'idx'
p7
I2
sS'origs'
p8
I0
sS'adjs'
p9
NsS'contains'
p10
NsS'surface'
p11
Vtimes
p12
sS'entity'
p13
Vtime
p14
sS'num'
p15
V0.01
p16
sS'role'
p17
S'subj'
p18
sS'location'
p19
NsS'compound'
p20
I0
sS'subtypes'
p21
(lp22
sS'widx'
p23
I4
sS'type_failure'
p24
I0
sbtp25
a(I3
(imakesets
aset
p26
(dp27
g3
I0
sg4
Nsg5
g6
sg7
I3
sg8
I0
sg9
Nsg10
Nsg11
Vtimes
p28
sg13
g14
sg15
S'x'
p29
sg17
g18
sg19
Nsg20
I0
sg21
(lp30
sg23
I4
sg24
I0
sbtp31
a(I5
(imakesets
aset
p32
(dp33
g3
I0
sg4
Nsg5
g6
sg7
I5
sg8
I0
sg9
Nsg10
Nsg11
g28
sg13
g14
sg15
V65.2
p34
sg17
S'other'
p35
sg19
Nsg20
I0
sg21
(lp36
sg23
I6
sg24
I0
sbtp37
a.