(lp0
(I1000
(imakesets
aset
p1
(dp2
S'subset'
p3
I0
sS'container'
p4
NsS'verbs'
p5
Vsprinkle
p6
sS'idx'
p7
I1000
sS'origs'
p8
I1
sS'adjs'
p9
NsS'contains'
p10
NsS'surface'
p11
Vtimes
p12
sS'entity'
p13
Vtime
p14
sS'num'
p15
V0.5
p16
sS'role'
p17
S'subj'
p18
sS'location'
p19
NsS'compound'
p20
I0
sS'subtypes'
p21
(lp22
sS'widx'
p23
I2
sS'type_failure'
p24
I0
sbtp25
a(I1004
(imakesets
aset
p26
(dp27
g3
I0
sg4
Nsg5
g6
sg7
I1004
sg8
I1
sg9
Nsg10
Nsg11
Vcupcakes
p28
sg13
Vcupcake
p29
sg15
V74
p30
sg17
S'other'
p31
sg19
Nsg20
I0
sg21
(lp32
sg23
I6
sg24
I0
sbtp33
a(I2004
(imakesets
aset
p34
(dp35
g3
I0
sg4
Nsg5
Vsprinkle
p36
sg7
I2004
sg8
I2
sg9
Nsg10
Nsg11
Vcupcakes
p37
sg13
Vcupcake
p38
sg15
S'x'
p39
sg17
g31
sg19
Nsg20
I0
sg21
(lp40
sg23
I5
sg24
I0
sbtp41
a.