(lp0
(I4
(imakesets
aset
p1
(dp2
S'subset'
p3
I0
sS'container'
p4
Vstore
p5
sS'verbs'
p6
Vhad
p7
sS'idx'
p8
I4
sS'origs'
p9
I0
sS'adjs'
p10
NsS'contains'
p11
NsS'surface'
p12
Vbooks
p13
sS'entity'
p14
Vbook
p15
sS'num'
p16
V4
p17
sS'role'
p18
S'do'
p19
sS'location'
p20
Vbin
p21
sS'compound'
p22
I0
sS'subtypes'
p23
(lp24
sS'widx'
p25
I6
sS'type_failure'
p26
I0
sbtp27
a(I1003
(imakesets
aset
p28
(dp29
g3
I0
sg4
Vthey
p30
sg6
Vsold
p31
sg8
I1003
sg9
I1
sg10
Nsg11
Nsg12
Vbooks
p32
sg14
Vbook
p33
sg16
V3
p34
sg18
g19
sg20
Nsg22
I0
sg23
(lp35
sg25
I5
sg26
I0
sbtp36
a(I1009
(imakesets
aset
p37
(dp38
g3
I0
sg4
Nsg6
Vsell put
p39
sg8
I1009
sg9
I2
sg10
Nsg11
Nsg12
g32
sg14
g33
sg16
V10
p40
sg18
S'other'
p41
sg20
Nsg22
I0
sg23
(lp42
sg25
I10
sg26
I0
sbtp43
a(I1017
(imakesets
aset
p44
(dp45
g3
I0
sg4
Nsg6
Vsell put
p46
sg8
I1017
sg9
I1
sg10
Nsg11
Nsg12
Vbooks
p47
sg14
Vbook
p48
sg16
S'x'
p49
sg18
S'subj'
p50
sg20
Nsg22
I0
sg23
(lp51
sg25
I18
sg26
I0
sbtp52
a.