(lp0
(I1000
(imakesets
aset
p1
(dp2
S'subset'
p3
I0
sS'container'
p4
NsS'verbs'
p5
NsS'idx'
p6
I1000
sS'origs'
p7
I10
sS'adjs'
p8
NsS'contains'
p9
NsS'surface'
p10
S'UNKNOWN'
p11
sS'entity'
p12
g11
sS'num'
p13
S'x'
p14
sS'role'
p15
S'other'
p16
sS'location'
p17
NsS'compound'
p18
I0
sS'subtypes'
p19
(lp20
sS'widx'
p21
I1
sS'type_failure'
p22
I0
sbtp23
a(I1011
(imakesets
aset
p24
(dp25
g3
I0
sg4
Nsg5
Vbuy mark sell
p26
sg6
I1011
sg7
I1
sg8
Nsg9
Nsg10
V$
p27
sg12
S'dollar'
p28
sg13
V97.00
p29
sg15
g16
sg17
Nsg18
I0
sg19
(lp30
sg21
I11
sg22
I0
sbtp31
a(I1022
(imakesets
aset
p32
(dp33
g3
I0
sg4
Nsg5
Vbuy mark sell
p34
sg6
I1022
sg7
I1
sg8
Nsg9
Nsg10
Vtimes
p35
sg12
VStore
p36
sg13
V0.4
p37
sg15
g16
sg17
Nsg18
I0
sg19
(lp38
sg21
I24
sg22
I0
sbtp39
a.