(lp0
(I1002
(imakesets
aset
p1
(dp2
S'subset'
p3
I0
sS'container'
p4
VHanson
p5
sS'verbs'
p6
Vdrank
p7
sS'idx'
p8
I1002
sS'origs'
p9
I1
sS'adjs'
p10
NsS'contains'
p11
NsS'surface'
p12
Vounces
p13
sS'entity'
p14
Vounce
p15
sS'num'
p16
V70
p17
sS'role'
p18
S'do'
p19
sS'location'
p20
NsS'compound'
p21
I0
sS'subtypes'
p22
(lp23
sS'widx'
p24
I4
sS'type_failure'
p25
I0
sbtp26
a(I2004
(imakesets
aset
p27
(dp28
g3
I0
sg4
g5
sg6
Vdrank
p29
sg8
I2004
sg9
I2
sg10
Nsg11
Nsg12
Vtimes
p30
sg14
g5
sg16
V0.2
p31
sg18
g19
sg20
Nsg21
I0
sg22
(lp32
sg24
I6
sg25
I0
sbtp33
a(I3005
(imakesets
aset
p34
(dp35
g3
I0
sg4
Nsg6
Vdrink
p36
sg8
I3005
sg9
I3
sg10
Nsg11
Nsg12
g30
sg14
Vhe
p37
sg16
S'x'
p38
sg18
S'other'
p39
sg20
Nsg21
I0
sg22
(lp40
sg24
I6
sg25
I0
sbtp41
a.