(lp0
(I4
(imakesets
aset
p1
(dp2
S'subset'
p3
I0
sS'container'
p4
VHaley
p5
sS'verbs'
p6
Vscored
p7
sS'idx'
p8
I4
sS'origs'
p9
I0
sS'adjs'
p10
NsS'contains'
p11
NsS'surface'
p12
Vpieces
p13
sS'entity'
p14
Vpiece
p15
sS'num'
p16
V33
p17
sS'role'
p18
S'do'
p19
sS'location'
p20
NsS'compound'
p21
I0
sS'subtypes'
p22
(lp23
sS'widx'
p24
I6
sS'type_failure'
p25
I0
sbtp26
a(I1002
(imakesets
aset
p27
(dp28
g3
I0
sg4
g5
sg6
Vate
p29
sg8
I1002
sg9
I1
sg10
Nsg11
Nsg12
Vpieces
p30
sg14
Vpiece
p31
sg16
V17
p32
sg18
g19
sg20
Nsg21
I0
sg22
(lp33
sg24
I4
sg25
I0
sbtp34
a(I1013
(imakesets
aset
p35
(dp36
g3
I0
sg4
Nsg6
Vgave
p37
sg8
I1013
sg9
I1
sg10
Nsg11
Nsg12
Vpieces
p38
sg14
Vpiece
p39
sg16
V19
p40
sg18
g19
sg20
Nsg21
I0
sg22
(lp41
sg24
I16
sg25
I0
sbtp42
a(I2002
(imakesets
aset
p43
(dp44
g3
I0
sg4
Nsg6
Vdo have
p45
sg8
I2002
sg9
I2
sg10
Nsg11
Nsg12
Vpieces
p46
sg14
Vpiece
p47
sg16
S'x'
p48
sg18
S'other'
p49
sg20
Nsg21
I0
sg22
(lp50
sg24
I3
sg25
I0
sbtp51
a.