(lp0
(I4
(imakesets
aset
p1
(dp2
S'subset'
p3
I0
sS'container'
p4
VTimes
p5
sS'verbs'
p6
Vhad
p7
sS'idx'
p8
I4
sS'origs'
p9
I0
sS'adjs'
p10
NsS'contains'
p11
NsS'surface'
p12
Vsubscribers
p13
sS'entity'
p14
Vsubscriber
p15
sS'num'
p16
V6,510
p17
sS'role'
p18
S'do'
p19
sS'location'
p20
NsS'compound'
p21
I0
sS'subtypes'
p22
(lp23
sS'widx'
p24
I6
sS'type_failure'
p25
I0
sbtp26
a(I1012
(imakesets
aset
p27
(dp28
g3
I0
sg4
Nsg6
Vbuy
p29
sg8
I1012
sg9
I1
sg10
Nsg11
Nsg12
Vtimes
p30
sg14
g5
sg16
V0.3
p31
sg18
S'other'
p32
sg20
Nsg21
I0
sg22
(lp33
sg24
I14
sg25
I0
sbtp34
a(I2002
(imakesets
aset
p35
(dp36
g3
I0
sg4
Nsg6
Vbe
p37
sg8
I2002
sg9
I2
sg10
Nsg11
Nsg12
Vsubscribers
p38
sg14
Vsubscriber
p39
sg16
S'x'
p40
sg18
S'subj'
p41
sg20
Nsg21
I0
sg22
(lp42
sg24
I3
sg25
I0
sbtp43
a.