(lp0
(I7
(imakesets
aset
p1
(dp2
S'subset'
p3
I0
sS'container'
p4
NsS'verbs'
p5
Vbe
p6
sS'idx'
p7
I7
sS'origs'
p8
I0
sS'adjs'
p9
NsS'contains'
p10
NsS'surface'
p11
V$
p12
sS'entity'
p13
S'dollar'
p14
sS'num'
p15
V3,370
p16
sS'role'
p17
S'other'
p18
sS'location'
p19
NsS'compound'
p20
I0
sS'subtypes'
p21
(lp22
sS'widx'
p23
I7
sS'type_failure'
p24
I0
sbtp25
a(I1013
(imakesets
aset
p26
(dp27
g3
I0
sg4
Nsg5
Vrefinance use
p28
sg7
I1013
sg8
I1
sg9
Nsg10
Nsg11
Vtimes
p29
sg13
Vtime
p30
sg15
V0.3
p31
sg17
g18
sg19
Nsg20
I0
sg21
(lp32
sg23
I15
sg24
I0
sbtp33
a(I2002
(imakesets
aset
p34
(dp35
g3
I0
sg4
Nsg5
Vbe
p36
sg7
I2002
sg8
I2
sg9
Nsg10
Nsg11
g29
sg13
g30
sg15
S'x'
p37
sg17
g18
sg19
Nsg20
I0
sg21
(lp38
sg23
I3
sg24
I0
sbtp39
a.