(lp0
(I3
(imakesets
aset
p1
(dp2
S'subset'
p3
I0
sS'container'
p4
Vteacher
p5
sS'verbs'
p6
Vhad
p7
sS'idx'
p8
I3
sS'origs'
p9
I0
sS'adjs'
p10
NsS'contains'
p11
NsS'surface'
p12
Vworksheets
p13
sS'entity'
p14
Vworksheet
p15
sS'num'
p16
V29
p17
sS'role'
p18
S'do'
p19
sS'location'
p20
NsS'compound'
p21
I0
sS'subtypes'
p22
(lp23
sS'widx'
p24
I5
sS'type_failure'
p25
I0
sbtp26
a(I1003
(imakesets
aset
p27
(dp28
g3
I0
sg4
Nsg6
Vgrade turn
p29
sg8
I1003
sg9
I2
sg10
Nsg11
Nsg12
g13
sg14
g15
sg16
V25
p30
sg18
S'other'
p31
sg20
Nsg21
I0
sg22
(lp32
sg24
I4
sg25
I0
sbtp33
a(I1008
(imakesets
aset
p34
(dp35
g3
I0
sg4
Nsg6
Vgrade turn
p36
sg8
I1008
sg9
I2
sg10
Nsg11
Nsg12
g13
sg14
g15
sg16
V29
p37
sg18
g31
sg20
Nsg21
I0
sg22
(lp38
sg24
I9
sg25
I0
sbtp39
a(I1015
(imakesets
aset
p40
(dp41
g3
I0
sg4
Nsg6
Vgrade turn
p42
sg8
I1015
sg9
I1
sg10
Nsg11
Nsg12
Vworksheets
p43
sg14
Vworksheet
p44
sg16
S'x'
p45
sg18
g31
sg20
Nsg21
I0
sg22
(lp46
sg24
I16
sg25
I0
sbtp47
a.