(lp0
(I1003
(imakesets
aset
p1
(dp2
S'subset'
p3
I0
sS'container'
p4
Vhotel
p5
sS'verbs'
p6
Vserved
p7
sS'idx'
p8
I1003
sS'origs'
p9
I1
sS'adjs'
p10
NsS'contains'
p11
NsS'surface'
p12
Vgallons
p13
sS'entity'
p14
Vgallon
p15
sS'num'
p16
V240
p17
sS'role'
p18
S'do'
p19
sS'location'
p20
NsS'compound'
p21
I0
sS'subtypes'
p22
(lp23
sS'widx'
p24
I5
sS'type_failure'
p25
I0
sbtp26
a(I2006
(imakesets
aset
p27
(dp28
g3
I0
sg4
Nsg6
Vserve
p29
sg8
I2006
sg9
I2
sg10
Nsg11
Nsg12
Vtimes
p30
sg14
g5
sg16
V0.55
p31
sg18
S'other'
p32
sg20
Nsg21
I0
sg22
(lp33
sg24
I8
sg25
I0
sbtp34
a(I3003
(imakesets
aset
p35
(dp36
g3
I0
sg4
Nsg6
Vserve
p37
sg8
I3003
sg9
I3
sg10
Nsg11
Nsg12
Vyear
p38
sg14
Vyear
p39
sg16
S'x'
p40
sg18
g32
sg20
Nsg21
I0
sg22
(lp41
sg24
I4
sg25
I0
sbtp42
a.