(lp0
(I7
(imakesets
aset
p1
(dp2
S'subset'
p3
I0
sS'container'
p4
NsS'verbs'
p5
Vbe
p6
sS'idx'
p7
I7
sS'origs'
p8
I0
sS'adjs'
p9
Vdirty
p10
sS'contains'
p11
NsS'surface'
p12
Vmugs
p13
sS'entity'
p14
Vmug
p15
sS'num'
p16
V21
p17
sS'role'
p18
S'subj'
p19
sS'location'
p20
NsS'compound'
p21
I0
sS'subtypes'
p22
(lp23
sS'widx'
p24
I11
sS'type_failure'
p25
I0
sbtp26
a(I12
(imakesets
aset
p27
(dp28
g3
I0
sg4
Nsg5
g6
sg7
I12
sg8
I0
sg9
Vclean
p29
sg11
Nsg12
Vmugs
p30
sg14
Vmug
p31
sg16
V49
p32
sg18
S'other'
p33
sg20
Nsg21
I0
sg22
(lp34
sg24
I16
sg25
I0
sbtp35
a(I1000
(imakesets
aset
p36
(dp37
g3
I0
sg4
Nsg5
Nsg7
I1000
sg8
I10
sg9
Nsg11
Nsg12
S'UNKNOWN'
p38
sg14
g38
sg16
S'x'
p39
sg18
g33
sg20
Nsg21
I0
sg22
(lp40
sg24
I1
sg25
I0
sbtp41
a.