(lp0
(I10
(imakesets
aset
p1
(dp2
S'subset'
p3
I0
sS'container'
p4
NsS'verbs'
p5
Vbe
p6
sS'idx'
p7
I10
sS'origs'
p8
I0
sS'adjs'
p9
NsS'contains'
p10
NsS'surface'
p11
VFarenhite
p12
sS'entity'
p13
Vfarenhite
p14
sS'num'
p15
V40
p16
sS'role'
p17
S'other'
p18
sS'location'
p19
VStamford
p20
sS'compound'
p21
I0
sS'subtypes'
p22
(lp23
sS'widx'
p24
I12
sS'type_failure'
p25
I0
sbtp26
a(I1006
(imakesets
aset
p27
(dp28
g3
I0
sg4
Nsg5
Vbe
p29
sg7
I1006
sg8
I1
sg9
Nsg10
Nsg11
Vtimes
p30
sg13
Vtime
p31
sg15
V0.15
p32
sg17
g18
sg19
Nsg21
I0
sg22
(lp33
sg24
I8
sg25
I0
sbtp34
a(I2004
(imakesets
aset
p35
(dp36
g3
I0
sg4
Nsg5
Vbe
p37
sg7
I2004
sg8
I2
sg9
Vaverage
p38
sg10
Nsg11
Vlow
p39
sg13
Vlow
p40
sg15
S'x'
p41
sg17
S'subj'
p42
sg19
VFebruary
p43
sg21
I0
sg22
(lp44
sg24
I5
sg25
I0
sbtp45
a.