(lp0
(I4
(imakesets
aset
p1
(dp2
S'subset'
p3
I0
sS'container'
p4
NsS'verbs'
p5
Vassign
p6
sS'idx'
p7
I4
sS'origs'
p8
I0
sS'adjs'
p9
NsS'contains'
p10
NsS'surface'
p11
Vproblems
p12
sS'entity'
p13
Vproblem
p14
sS'num'
p15
V65
p16
sS'role'
p17
S'subj'
p18
sS'location'
p19
NsS'compound'
p20
I0
sS'subtypes'
p21
(lp22
sS'widx'
p23
I6
sS'type_failure'
p24
I0
sbtp25
a(I1002
(imakesets
aset
p26
(dp27
g3
I0
sg4
Nsg5
Vget
p28
sg7
I1002
sg8
I1
sg9
Nsg10
Nsg11
Vproblems
p29
sg13
Vproblem
p30
sg15
V52
p31
sg17
S'other'
p32
sg19
Nsg20
I0
sg21
(lp33
sg23
I4
sg24
I0
sbtp34
a(I1006
(imakesets
aset
p35
(dp36
g3
I0
sg4
Nsg5
g28
sg7
I1006
sg8
I1
sg9
Nsg10
Nsg11
Vproblems
p37
sg13
Vproblem
p38
sg15
V13
p39
sg17
g32
sg19
Nsg20
I0
sg21
(lp40
sg23
I8
sg24
I0
sbtp41
a(I2000
(imakesets
aset
p42
(dp43
g3
I0
sg4
Nsg5
Nsg7
I2000
sg8
I10
sg9
Nsg10
Nsg11
S'UNKNOWN'
p44
sg13
g44
sg15
S'x'
p45
sg17
g32
sg19
Nsg20
I0
sg21
(lp46
sg23
I1
sg24
I0
sbtp47
a.