(lp0
(I1002
(imakesets
aset
p1
(dp2
S'subset'
p3
I0
sS'container'
p4
Vfriend
p5
sS'verbs'
p6
Vbought
p7
sS'idx'
p8
I1002
sS'origs'
p9
I1
sS'adjs'
p10
NsS'contains'
p11
NsS'surface'
p12
Vgames
p13
sS'entity'
p14
Vgame
p15
sS'num'
p16
V11
p17
sS'role'
p18
S'do'
p19
sS'location'
p20
NsS'compound'
p21
I0
sS'subtypes'
p22
(lp23
sS'widx'
p24
I4
sS'type_failure'
p25
I0
sbtp26
a(I1009
(imakesets
aset
p27
(dp28
g3
I0
sg4
Vsale
p29
sg6
Nsg8
I1009
sg9
I2
sg10
Nsg11
Nsg12
g13
sg14
g15
sg16
V22
p30
sg18
S'other'
p31
sg20
Nsg21
I0
sg22
(lp32
sg24
I10
sg25
I0
sbtp33
a(I2001
(imakesets
aset
p34
(dp35
g3
I0
sg4
Nsg6
Vwork end
p36
sg8
I2001
sg9
I2
sg10
Nsg11
Nsg12
Vgames
p37
sg14
Vgame
p38
sg16
V19
p39
sg18
g31
sg20
Nsg21
I0
sg22
(lp40
sg24
I5
sg25
I0
sbtp41
a(I2012
(imakesets
aset
p42
(dp43
g3
I0
sg4
Nsg6
Vwork end
p44
sg8
I2012
sg9
I2
sg10
Vgood
p45
sg11
Nsg12
Vgames
p46
sg14
Vgame
p47
sg16
S'x'
p48
sg18
g31
sg20
Nsg21
I0
sg22
(lp49
sg24
I13
sg25
I0
sbtp50
a.