(lp0
(I0
(imakesets
aset
p1
(dp2
S'subset'
p3
I0
sS'container'
p4
NsS'verbs'
p5
Vbe
p6
sS'idx'
p7
I0
sS'origs'
p8
I1
sS'adjs'
p9
NsS'contains'
p10
NsS'surface'
p11
Vmagazines
p12
sS'entity'
p13
Vmagazine
p14
sS'num'
p15
V43
p16
sS'role'
p17
S'other'
p18
sS'location'
p19
NsS'compound'
p20
I0
sS'subtypes'
p21
(lp22
sS'widx'
p23
I1
sS'type_failure'
p24
I0
sbtp25
a(I4
(imakesets
aset
p26
(dp27
g3
I0
sg4
Nsg5
g6
sg7
I4
sg8
I0
sg9
Nsg10
Nsg11
Vmagazines
p28
sg13
g14
sg15
V86
p29
sg17
g18
sg19
Vbookstore
p30
sg20
I0
sg21
(lp31
sg23
I6
sg24
I0
sbtp32
a(I1000
(imakesets
aset
p33
(dp34
g3
I0
sg4
Nsg5
Nsg7
I1000
sg8
I10
sg9
Nsg10
Nsg11
S'UNKNOWN'
p35
sg13
g35
sg15
S'x'
p36
sg17
g18
sg19
Nsg20
I0
sg21
(lp37
sg23
I1
sg24
I0
sbtp38
a.