(lp0
(I4
(imakesets
aset
p1
(dp2
S'subset'
p3
I0
sS'container'
p4
Vcafeteria
p5
sS'verbs'
p6
Vhad
p7
sS'idx'
p8
I4
sS'origs'
p9
I0
sS'adjs'
p10
NsS'contains'
p11
NsS'surface'
p12
Vapples
p13
sS'entity'
p14
Vapple
p15
sS'num'
p16
V17
p17
sS'role'
p18
S'do'
p19
sS'location'
p20
NsS'compound'
p21
I0
sS'subtypes'
p22
(lp23
sS'widx'
p24
I6
sS'type_failure'
p25
I0
sbtp26
a(I1003
(imakesets
aset
p27
(dp28
g3
I0
sg4
Nsg6
Vuse make buy
p29
sg8
I1003
sg9
I2
sg10
Nsg11
Nsg12
g13
sg14
g15
sg16
V2
p30
sg18
S'other'
p31
sg20
Nsg21
I0
sg22
(lp32
sg24
I4
sg25
I0
sbtp33
a(I1013
(imakesets
aset
p34
(dp35
g3
I0
sg4
Nsg6
Vuse make buy
p36
sg8
I1013
sg9
I2
sg10
Nsg11
Nsg12
g13
sg14
g15
sg16
V23
p37
sg18
g31
sg20
Nsg21
I0
sg22
(lp38
sg24
I14
sg25
I0
sbtp39
a(I1018
(imakesets
aset
p40
(dp41
g3
I0
sg4
Vthey
p42
sg6
Vhave
p43
sg8
I1018
sg9
I1
sg10
Nsg11
Nsg12
Vapples
p44
sg14
Vapple
p45
sg16
S'x'
p46
sg18
g19
sg20
Nsg21
I0
sg22
(lp47
sg24
I19
sg25
I0
sbtp48
a.