(lp0
(I2
(imakesets
aset
p1
(dp2
S'subset'
p3
I0
sS'container'
p4
VBianca
p5
sS'verbs'
p6
Vhad
p7
sS'idx'
p8
I2
sS'origs'
p9
I0
sS'adjs'
p10
NsS'contains'
p11
NsS'surface'
p12
Vsongs
p13
sS'entity'
p14
Vsong
p15
sS'num'
p16
V34
p17
sS'role'
p18
S'do'
p19
sS'location'
p20
Vplayer
p21
sS'compound'
p22
I0
sS'subtypes'
p23
(lp24
sS'widx'
p25
I4
sS'type_failure'
p26
I0
sbtp27
a(I1003
(imakesets
aset
p28
(dp29
g3
I0
sg4
g5
sg6
Vdeleted
p30
sg8
I1003
sg9
I1
sg10
Vold
p31
sg11
Nsg12
Vsongs
p32
sg14
Vsong
p33
sg16
V14
p34
sg18
g19
sg20
Nsg22
I0
sg23
(lp35
sg25
I6
sg26
I0
sbtp36
a(I1011
(imakesets
aset
p37
(dp38
g3
I0
sg4
Nsg6
Vadded
p39
sg8
I1011
sg9
I1
sg10
Vnew
p40
sg11
Nsg12
Vsongs
p41
sg14
Vsong
p42
sg16
V44
p43
sg18
g19
sg20
Nsg22
I0
sg23
(lp44
sg25
I14
sg26
I0
sbtp45
a(I1017
(imakesets
aset
p46
(dp47
g3
I0
sg4
g5
sg6
Vhave
p48
sg8
I1017
sg9
I1
sg10
Nsg11
Nsg12
Vsongs
p49
sg14
Vsong
p50
sg16
S'x'
p51
sg18
g19
sg20
Nsg22
I0
sg23
(lp52
sg25
I18
sg26
I0
sbtp53
a.