(lp0
(I0
(imakesets
aset
p1
(dp2
S'subset'
p3
I0
sS'container'
p4
NsS'verbs'
p5
Vattend
p6
sS'idx'
p7
I0
sS'origs'
p8
I0
sS'adjs'
p9
NsS'contains'
p10
NsS'surface'
p11
Vmanagers
p12
sS'entity'
p13
Vmanager
p14
sS'num'
p15
V18
p16
sS'role'
p17
S'subj'
p18
sS'location'
p19
NsS'compound'
p20
I0
sS'subtypes'
p21
(lp22
sS'widx'
p23
I2
sS'type_failure'
p24
I0
sbtp25
a(I3
(imakesets
aset
p26
(dp27
g3
I0
sg4
Vmeeting
p28
sg5
Nsg7
I3
sg8
I0
sg9
Nsg10
Nsg11
Vnon-managers
p29
sg13
Vnon-manager
p30
sg15
V2
p31
sg17
S'other'
p32
sg19
Nsg20
I0
sg21
(lp33
sg23
I5
sg24
I0
sbtp34
a(I1000
(imakesets
aset
p35
(dp36
g3
I0
sg4
Nsg5
Nsg7
I1000
sg8
I10
sg9
Nsg10
Nsg11
S'UNKNOWN'
p37
sg13
g37
sg15
S'x'
p38
sg17
g32
sg19
Nsg20
I0
sg21
(lp39
sg23
I1
sg24
I0
sbtp40
a.