(lp0
(I2
(imakesets
aset
p1
(dp2
S'subset'
p3
I0
sS'container'
p4
VJohn
p5
sS'verbs'
p6
Vhad
p7
sS'idx'
p8
I2
sS'origs'
p9
I0
sS'adjs'
p10
NsS'contains'
p11
NsS'surface'
p12
Vsocks
p13
sS'entity'
p14
Vsock
p15
sS'num'
p16
V33
p17
sS'role'
p18
S'do'
p19
sS'location'
p20
NsS'compound'
p21
I0
sS'subtypes'
p22
(lp23
sS'widx'
p24
I4
sS'type_failure'
p25
I0
sbtp26
a(I1004
(imakesets
aset
p27
(dp28
g3
I0
sg4
g5
sg6
Vthrew
p29
sg8
I1004
sg9
I1
sg10
Vold
p30
sg11
Nsg12
Vones
p31
sg14
Vone
p32
sg16
V19
p33
sg18
g19
sg20
Nsg21
I0
sg22
(lp34
sg24
I7
sg25
I0
sbtp35
a(I1013
(imakesets
aset
p36
(dp37
g3
I0
sg4
Nsg6
Vbought
p38
sg8
I1013
sg9
I1
sg10
Vnew
p39
sg11
Nsg12
Vones
p40
sg14
Vone
p41
sg16
V13
p42
sg18
g19
sg20
Nsg21
I0
sg22
(lp43
sg24
I16
sg25
I0
sbtp44
a(I1019
(imakesets
aset
p45
(dp46
g3
I0
sg4
g5
sg6
Vhave
p47
sg8
I1019
sg9
I1
sg10
Nsg11
Nsg12
Vsocks
p48
sg14
Vsock
p49
sg16
S'x'
p50
sg18
g19
sg20
Nsg21
I0
sg22
(lp51
sg24
I20
sg25
I0
sbtp52
a.