(lp0
(I4
(imakesets
aset
p1
(dp2
S'subset'
p3
I0
sS'container'
p4
VBooks
p5
sS'verbs'
p6
Vsold
p7
sS'idx'
p8
I4
sS'origs'
p9
I0
sS'adjs'
p10
NsS'contains'
p11
NsS'surface'
p12
Vbookmarks
p13
sS'entity'
p14
Vbookmark
p15
sS'num'
p16
V930
p17
sS'role'
p18
S'do'
p19
sS'location'
p20
NsS'compound'
p21
I0
sS'subtypes'
p22
(lp23
sS'widx'
p24
I6
sS'type_failure'
p25
I0
sbtp26
a(I1006
(imakesets
aset
p27
(dp28
g3
I0
sg4
Nsg6
Vsell
p29
sg8
I1006
sg9
I1
sg10
Nsg11
Nsg12
Vtimes
p30
sg14
g5
sg16
V0.1
p31
sg18
S'other'
p32
sg20
Nsg21
I0
sg22
(lp33
sg24
I8
sg25
I0
sbtp34
a(I2002
(imakesets
aset
p35
(dp36
g3
I0
sg4
Nsg6
Vsell
p37
sg8
I2002
sg9
I2
sg10
Nsg11
Nsg12
Vbookmarks
p38
sg14
Vbookmark
p39
sg16
S'x'
p40
sg18
g32
sg20
Nsg21
I0
sg22
(lp41
sg24
I3
sg25
I0
sbtp42
a.