(lp0
(I6
(imakesets
aset
p1
(dp2
S'subset'
p3
I0
sS'container'
p4
NsS'verbs'
p5
Vwork
p6
sS'idx'
p7
I6
sS'origs'
p8
I0
sS'adjs'
p9
NsS'contains'
p10
NsS'surface'
p11
Vmonths
p12
sS'entity'
p13
Vmonth
p14
sS'num'
p15
V7
p16
sS'role'
p17
S'other'
p18
sS'location'
p19
NsS'compound'
p20
I0
sS'subtypes'
p21
(lp22
sS'widx'
p23
I8
sS'type_failure'
p24
I0
sbtp25
a(I7
(imakesets
aset
p26
(dp27
g3
I0
sg4
Nsg5
Nsg7
I7
sg8
I0
sg9
Nsg10
Nsg11
S'names'
p28
sg13
S'person'
p29
sg15
S'1'
p30
sg17
g18
sg19
Nsg20
I0
sg21
(lp31
sg23
I8
sg24
I0
sbtp32
a(I1000
(imakesets
aset
p33
(dp34
g3
I0
sg4
Nsg5
Nsg7
I1000
sg8
I10
sg9
Nsg10
Nsg11
S'UNKNOWN'
p35
sg13
g35
sg15
S'x'
p36
sg17
g18
sg19
Nsg20
I0
sg21
(lp37
sg23
I1
sg24
I0
sbtp38
a.