(lp0
(I1006
(imakesets
aset
p1
(dp2
S'subset'
p3
I0
sS'container'
p4
VChloe
p5
sS'verbs'
p6
Vscored
p7
sS'idx'
p8
I1006
sS'origs'
p9
I1
sS'adjs'
p10
NsS'contains'
p11
NsS'surface'
p12
Vpoints
p13
sS'entity'
p14
Vpoint
p15
sS'num'
p16
V40
p17
sS'role'
p18
S'do'
p19
sS'location'
p20
NsS'compound'
p21
I0
sS'subtypes'
p22
(lp23
sS'widx'
p24
I8
sS'type_failure'
p25
I0
sbtp26
a(I1015
(imakesets
aset
p27
(dp28
g3
I0
sg4
g5
sg6
Vscored
p29
sg8
I1015
sg9
I1
sg10
Nsg11
Nsg12
Vpoints
p30
sg14
Vpoint
p31
sg16
V50
p32
sg18
g19
sg20
Nsg21
I0
sg22
(lp33
sg24
I17
sg25
I0
sbtp34
a(I2006
(imakesets
aset
p35
(dp36
g3
I0
sg4
g5
sg6
Vlost
p37
sg8
I2006
sg9
I2
sg10
Nsg11
Nsg12
Vpoints
p38
sg14
Vpoint
p39
sg16
V4
p40
sg18
g19
sg20
Nsg21
I0
sg22
(lp41
sg24
I8
sg25
I0
sbtp42
a(I3002
(imakesets
aset
p43
(dp44
g3
I0
sg4
g5
sg6
Vhave
p45
sg8
I3002
sg9
I3
sg10
Nsg11
Nsg12
Vpoints
p46
sg14
Vpoint
p47
sg16
S'x'
p48
sg18
g19
sg20
Nsg21
I0
sg22
(lp49
sg24
I3
sg25
I0
sbtp50
a.