(lp0
(I1
(imakesets
aset
p1
(dp2
S'subset'
p3
I0
sS'container'
p4
NsS'verbs'
p5
Vpay
p6
sS'idx'
p7
I1
sS'origs'
p8
I2
sS'adjs'
p9
NsS'contains'
p10
NsS'surface'
p11
Vtimes
p12
sS'entity'
p13
Vtime
p14
sS'num'
p15
V2009
p16
sS'role'
p17
S'other'
p18
sS'location'
p19
NsS'compound'
p20
I0
sS'subtypes'
p21
(lp22
sS'widx'
p23
I2
sS'type_failure'
p24
I0
sbtp25
a(I6
(imakesets
aset
p26
(dp27
g3
I0
sg4
VGordon
p28
sg5
Vpaid
p29
sg7
I6
sg8
I0
sg9
Nsg10
Nsg11
V$
p30
sg13
S'dollar'
p31
sg15
V5,900
p32
sg17
S'do'
p33
sg19
Vtax
p34
sg20
I0
sg21
(lp35
sg23
I6
sg24
I0
sbtp36
a(I1001
(imakesets
aset
p37
(dp38
g3
I0
sg4
Nsg5
Vpay
p39
sg7
I1001
sg8
I2
sg9
Nsg10
Nsg11
g12
sg13
g28
sg15
V2010
p40
sg17
g18
sg19
Nsg20
I0
sg21
(lp41
sg23
I2
sg24
I0
sbtp42
a(I1005
(imakesets
aset
p43
(dp44
g3
I0
sg4
Nsg5
g39
sg7
I1005
sg8
I1
sg9
Nsg10
Nsg11
Vtimes
p45
sg13
g28
sg15
V0.71
p46
sg17
g18
sg19
Nsg20
I0
sg21
(lp47
sg23
I7
sg24
I0
sbtp48
a(I2004
(imakesets
aset
p49
(dp50
g3
I0
sg4
Nsg5
Vpay
p51
sg7
I2004
sg8
I2
sg9
Nsg10
Nsg11
g12
sg13
g28
sg15
S'x'
p52
sg17
g18
sg19
Nsg20
I0
sg21
(lp53
sg23
I5
sg24
I0
sbtp54
a(I2006
(imakesets
aset
p55
(dp56
g3
I0
sg4
Nsg5
g51
sg7
I2006
sg8
I4
sg9
Nsg10
Nsg11
g12
sg13
g28
sg15
V2010
p57
sg17
g18
sg19
Nsg20
I0
sg21
(lp58
sg23
I7
sg24
I0
sbtp59
a.