(lp0
(I1006
(imakesets
aset
p1
(dp2
S'subset'
p3
I0
sS'container'
p4
Vdiner
p5
sS'verbs'
p6
Vserved
p7
sS'idx'
p8
I1006
sS'origs'
p9
I1
sS'adjs'
p10
Vregular
p11
sS'contains'
p12
NsS'surface'
p13
Vsodas
p14
sS'entity'
p15
Vsoda
p16
sS'num'
p17
V13
p18
sS'role'
p19
S'do'
p20
sS'location'
p21
NsS'compound'
p22
I0
sS'subtypes'
p23
(lp24
sS'widx'
p25
I9
sS'type_failure'
p26
I0
sbtp27
a(I1010
(imakesets
aset
p28
(dp29
g3
I0
sg4
Nsg6
Vserve
p30
sg8
I1010
sg9
I1
sg10
Nsg12
Nsg13
Vsodas
p31
sg15
Vsoda
p32
sg17
V39
p33
sg19
S'other'
p34
sg21
Nsg22
I0
sg23
(lp35
sg25
I13
sg26
I0
sbtp36
a(I2000
(imakesets
aset
p37
(dp38
g3
I0
sg4
Nsg6
Nsg8
I2000
sg9
I10
sg10
Nsg12
Nsg13
S'UNKNOWN'
p39
sg15
g39
sg17
S'x'
p40
sg19
g34
sg21
Nsg22
I0
sg23
(lp41
sg25
I1
sg26
I0
sbtp42
a.