(lp0
(I2
(imakesets
aset
p1
(dp2
S'subset'
p3
I0
sS'container'
p4
Vclass
p5
sS'verbs'
p6
NsS'idx'
p7
I2
sS'origs'
p8
I0
sS'adjs'
p9
NsS'contains'
p10
NsS'surface'
p11
Vstudents
p12
sS'entity'
p13
Vstudent
p14
sS'num'
p15
V28
p16
sS'role'
p17
S'subj'
p18
sS'location'
p19
Vclass
p20
sS'compound'
p21
I0
sS'subtypes'
p22
(lp23
sS'widx'
p24
I4
sS'type_failure'
p25
I0
sbtp26
a(I3
(imakesets
aset
p27
(dp28
g3
I0
sg4
Nsg6
Nsg7
I3
sg8
I0
sg9
Nsg10
Nsg11
S'names'
p29
sg13
S'person'
p30
sg15
S'0'
p31
sg17
S'other'
p32
sg19
Nsg21
I0
sg22
(lp33
sg24
I4
sg25
I0
sbtp34
a(I2000
(imakesets
aset
p35
(dp36
g3
I0
sg4
Nsg6
Nsg7
I2000
sg8
I10
sg9
Nsg10
Nsg11
S'UNKNOWN'
p37
sg13
g37
sg15
S'x'
p38
sg17
g32
sg19
Nsg21
I0
sg22
(lp39
sg24
I1
sg25
I0
sbtp40
a.