(lp0
(I8
(imakesets
aset
p1
(dp2
S'subset'
p3
I0
sS'container'
p4
NsS'verbs'
p5
Vgo feature exhibit
p6
sS'idx'
p7
I8
sS'origs'
p8
I0
sS'adjs'
p9
NsS'contains'
p10
NsS'surface'
p11
Vbird
p12
sS'entity'
p13
Vbird
p14
sS'num'
p15
V18
p16
sS'role'
p17
S'subj'
p18
sS'location'
p19
NsS'compound'
p20
I0
sS'subtypes'
p21
(lp22
sS'widx'
p23
I10
sS'type_failure'
p24
I0
sbtp25
a(I1006
(imakesets
aset
p26
(dp27
g3
I0
sg4
Nsg5
Vmake
p28
sg7
I1006
sg8
I1
sg9
Nsg10
Nsg11
Vtimes
p29
sg13
Vtime
p30
sg15
V0.4
p31
sg17
S'do'
p32
sg19
Nsg20
I0
sg21
(lp33
sg23
I8
sg24
I0
sbtp34
a(I1017
(imakesets
aset
p35
(dp36
g3
I0
sg4
Nsg5
Vexhibit make
p37
sg7
I1017
sg8
I1
sg9
Nsg10
Nsg11
Vexhibits
p38
sg13
Vexhibit
p39
sg15
S'x'
p40
sg17
g18
sg19
Nsg20
I0
sg21
(lp41
sg23
I18
sg24
I0
sbtp42
a.