(lp0
(I1000
(imakesets
aset
p1
(dp2
S'subset'
p3
I0
sS'container'
p4
NsS'verbs'
p5
Vpick
p6
sS'idx'
p7
I1000
sS'origs'
p8
I1
sS'adjs'
p9
NsS'contains'
p10
NsS'surface'
p11
Vsixth-graders
p12
sS'entity'
p13
Vsixth-grader
p14
sS'num'
p15
V18
p16
sS'role'
p17
S'subj'
p18
sS'location'
p19
NsS'compound'
p20
I0
sS'subtypes'
p21
(lp22
sS'widx'
p23
I2
sS'type_failure'
p24
I0
sbtp25
a(I2000
(imakesets
aset
p26
(dp27
g3
I0
sg4
Nsg5
Nsg7
I2000
sg8
I10
sg9
Nsg10
Nsg11
S'UNKNOWN'
p28
sg13
g28
sg15
S'x'
p29
sg17
S'other'
p30
sg19
Nsg20
I0
sg21
(lp31
sg23
I1
sg24
I0
sbtp32
a(I2003
(imakesets
aset
p33
(dp34
g3
I0
sg4
Nsg5
Vpick
p35
sg7
I2003
sg8
I2
sg9
Nsg10
Nsg11
Vsixth-graders
p36
sg13
Vsixth-grader
p37
sg15
V45
p38
sg17
g18
sg19
Vall
p39
sg20
I0
sg21
(lp40
sg23
I5
sg24
I0
sbtp41
a.