(lp0
(I1000
(imakesets
aset
p1
(dp2
S'subset'
p3
I0
sS'container'
p4
Vcupcake
p5
sS'verbs'
p6
NsS'idx'
p7
I1000
sS'origs'
p8
I1
sS'adjs'
p9
NsS'contains'
p10
NsS'surface'
p11
Vstudents
p12
sS'entity'
p13
Vstudent
p14
sS'num'
p15
V6
p16
sS'role'
p17
S'subj'
p18
sS'location'
p19
NsS'compound'
p20
I0
sS'subtypes'
p21
(lp22
sS'widx'
p23
I2
sS'type_failure'
p24
I0
sbtp25
a(I1007
(imakesets
aset
p26
(dp27
g3
I0
sg4
Vcupcake
p28
sg6
Nsg7
I1007
sg8
I1
sg9
Nsg10
Nsg11
Vstudents
p29
sg13
Vstudent
p30
sg15
V18
p31
sg17
S'other'
p32
sg19
Nsg20
I0
sg21
(lp33
sg23
I9
sg24
I0
sbtp34
a(I2000
(imakesets
aset
p35
(dp36
g3
I0
sg4
Nsg6
Nsg7
I2000
sg8
I10
sg9
Nsg10
Nsg11
S'UNKNOWN'
p37
sg13
g37
sg15
S'x'
p38
sg17
g32
sg19
Nsg20
I0
sg21
(lp39
sg23
I1
sg24
I0
sbtp40
a.