(lp0
(I5
(imakesets
aset
p1
(dp2
S'subset'
p3
I0
sS'container'
p4
NsS'verbs'
p5
Vbe
p6
sS'idx'
p7
I5
sS'origs'
p8
I0
sS'adjs'
p9
NsS'contains'
p10
NsS'surface'
p11
Vstudents
p12
sS'entity'
p13
Vstudent
p14
sS'num'
p15
V11
p16
sS'role'
p17
S'subj'
p18
sS'location'
p19
Vstart
p20
sS'compound'
p21
I0
sS'subtypes'
p22
(lp23
sS'widx'
p24
I7
sS'type_failure'
p25
I0
sbtp26
a(I1003
(imakesets
aset
p27
(dp28
g3
I0
sg4
Nsg5
Vleave come
p29
sg7
I1003
sg8
I1
sg9
Nsg10
Nsg11
Vstudents
p30
sg13
Vstudent
p31
sg15
V6
p32
sg17
g18
sg19
Nsg21
I0
sg22
(lp33
sg24
I5
sg25
I0
sbtp34
a(I1007
(imakesets
aset
p35
(dp36
g3
I0
sg4
Nsg5
Vleave come
p37
sg7
I1007
sg8
I1
sg9
Vnew
p38
sg10
Nsg11
Vstudents
p39
sg13
Vstudent
p40
sg15
V42
p41
sg17
g18
sg19
Nsg21
I0
sg22
(lp42
sg24
I10
sg25
I0
sbtp43
a(I2002
(imakesets
aset
p44
(dp45
g3
I0
sg4
Nsg5
Vbe
p46
sg7
I2002
sg8
I2
sg9
Nsg10
Nsg11
Vstudents
p47
sg13
Vstudent
p48
sg15
S'x'
p49
sg17
g18
sg19
Nsg21
I0
sg22
(lp50
sg24
I3
sg25
I0
sbtp51
a.