(lp0
(I7
(imakesets
aset
p1
(dp2
S'subset'
p3
I0
sS'container'
p4
NsS'verbs'
p5
Vtake get
p6
sS'idx'
p7
I7
sS'origs'
p8
I0
sS'adjs'
p9
NsS'contains'
p10
NsS'surface'
p11
Vanswers
p12
sS'entity'
p13
Vanswer
p14
sS'num'
p15
V35
p16
sS'role'
p17
S'other'
p18
sS'location'
p19
NsS'compound'
p20
I0
sS'subtypes'
p21
(lp22
sS'widx'
p23
I8
sS'type_failure'
p24
I0
sbtp25
a(I10
(imakesets
aset
p26
(dp27
g3
I0
sg4
Nsg5
Vtake get
p28
sg7
I10
sg8
I0
sg9
Vincorrect
p29
sg10
Nsg11
g12
sg13
g14
sg15
V10
p30
sg17
g18
sg19
Nsg20
I0
sg21
(lp31
sg23
I13
sg24
I0
sbtp32
a(I1003
(imakesets
aset
p33
(dp34
g3
I0
sg4
Nsg5
Vbe
p35
sg7
I1003
sg8
I1
sg9
Nsg10
Nsg11
Vtimes
p36
sg13
VDonovan
p37
sg15
S'x'
p38
sg17
S'subj'
p39
sg19
Nsg20
I0
sg21
(lp40
sg23
I4
sg24
I0
sbtp41
a.