(lp0
(I1003
(imakesets
aset
p1
(dp2
S'subset'
p3
I0
sS'container'
p4
NsS'verbs'
p5
Vsee
p6
sS'idx'
p7
I1003
sS'origs'
p8
I1
sS'adjs'
p9
NsS'contains'
p10
NsS'surface'
p11
Vflowers
p12
sS'entity'
p13
Vflower
p14
sS'num'
p15
V95
p16
sS'role'
p17
S'other'
p18
sS'location'
p19
NsS'compound'
p20
I0
sS'subtypes'
p21
(lp22
sS'widx'
p23
I5
sS'type_failure'
p24
I0
sbtp25
a(I1008
(imakesets
aset
p26
(dp27
g3
I0
sg4
Nsg5
g6
sg7
I1008
sg8
I2
sg9
Nsg10
Nsg11
g12
sg13
g14
sg15
V76
p28
sg17
g18
sg19
Nsg20
I0
sg21
(lp29
sg23
I9
sg24
I0
sbtp30
a(I2000
(imakesets
aset
p31
(dp32
g3
I0
sg4
Nsg5
Nsg7
I2000
sg8
I10
sg9
Nsg10
Nsg11
S'UNKNOWN'
p33
sg13
g33
sg15
S'x'
p34
sg17
g18
sg19
Nsg20
I0
sg21
(lp35
sg23
I1
sg24
I0
sbtp36
a.