(lp0
(I15
(imakesets
aset
p1
(dp2
S'subset'
p3
I0
sS'container'
p4
NsS'verbs'
p5
Vpay
p6
sS'idx'
p7
I15
sS'origs'
p8
I0
sS'adjs'
p9
NsS'contains'
p10
NsS'surface'
p11
V$
p12
sS'entity'
p13
S'dollar'
p14
sS'num'
p15
V1570
p16
sS'role'
p17
S'other'
p18
sS'location'
p19
NsS'compound'
p20
I0
sS'subtypes'
p21
(lp22
sS'widx'
p23
I15
sS'type_failure'
p24
I0
sbtp25
a(I1006
(imakesets
aset
p26
(dp27
g3
I0
sg4
Nsg5
Vbe
p28
sg7
I1006
sg8
I1
sg9
Nsg10
Nsg11
g12
sg13
g14
sg15
V2041
p29
sg17
g18
sg19
Nsg20
I0
sg21
(lp30
sg23
I6
sg24
I0
sbtp31
a(I2003
(imakesets
aset
p32
(dp33
g3
I0
sg4
Nsg5
Vrent
p34
sg7
I2003
sg8
I2
sg9
Nsg10
Nsg11
Vtimes
p35
sg13
Vtime
p36
sg15
S'x'
p37
sg17
S'subj'
p38
sg19
Nsg20
I0
sg21
(lp39
sg23
I4
sg24
I0
sbtp40
a.