(lp0
(I3
(imakesets
aset
p1
(dp2
S'subset'
p3
I0
sS'container'
p4
Vwaiter
p5
sS'verbs'
p6
Vhad
p7
sS'idx'
p8
I3
sS'origs'
p9
I0
sS'adjs'
p10
NsS'contains'
p11
Vman
p12
sS'surface'
p13
Vtables
p14
sS'entity'
p15
Vtable
p16
sS'num'
p17
V9
p18
sS'role'
p19
S'do'
p20
sS'location'
p21
NsS'compound'
p22
I0
sS'subtypes'
p23
(lp24
sS'widx'
p25
I5
sS'type_failure'
p26
I0
sbtp27
a(I4
(imakesets
aset
p28
(dp29
g3
I0
sg4
Vtable
p30
sg6
Nsg8
I4
sg9
I0
sg10
Nsg11
Nsg13
Vmen
p31
sg15
g12
sg17
V3
p32
sg19
S'other'
p33
sg21
Vtable
p34
sg22
I0
sg23
(lp35
sg25
I16
sg26
I0
sbtp36
a(I11
(imakesets
aset
p37
(dp38
g3
I0
sg4
Nsg6
Vwait
p39
sg8
I11
sg9
I0
sg10
Nsg11
Nsg13
Vwomen
p40
sg15
Vwoman
p41
sg17
V7
p42
sg19
g33
sg21
Nsg22
I0
sg23
(lp43
sg25
I13
sg26
I0
sbtp44
a(I1002
(imakesets
aset
p45
(dp46
g3
I0
sg4
Nsg6
Vtotal
p47
sg8
I1002
sg9
I1
sg10
Nsg11
Nsg13
Vcustomers
p48
sg15
Vcustomer
p49
sg17
S'x'
p50
sg19
S'subj'
p51
sg21
Nsg22
I0
sg23
(lp52
sg25
I3
sg26
I0
sbtp53
a.