(lp0
(I1008
(imakesets
aset
p1
(dp2
S'subset'
p3
I0
sS'container'
p4
NsS'verbs'
p5
Vsell
p6
sS'idx'
p7
I1008
sS'origs'
p8
I1
sS'adjs'
p9
NsS'contains'
p10
NsS'surface'
p11
Vpictures
p12
sS'entity'
p13
Vpicture
p14
sS'num'
p15
V8490
p16
sS'role'
p17
S'other'
p18
sS'location'
p19
NsS'compound'
p20
I0
sS'subtypes'
p21
(lp22
sS'widx'
p23
I10
sS'type_failure'
p24
I0
sbtp25
a(I2005
(imakesets
aset
p26
(dp27
g3
I0
sg4
Nsg5
Vsell
p28
sg7
I2005
sg8
I2
sg9
Nsg10
Nsg11
Vtimes
p29
sg13
VFrames
p30
sg15
V0.2
p31
sg17
g18
sg19
Nsg20
I0
sg21
(lp32
sg23
I7
sg24
I0
sbtp33
a(I3002
(imakesets
aset
p34
(dp35
g3
I0
sg4
Nsg5
Vsell
p36
sg7
I3002
sg8
I3
sg9
Nsg10
Nsg11
Vpictures
p37
sg13
Vpicture
p38
sg15
S'x'
p39
sg17
g18
sg19
Nsg20
I0
sg21
(lp40
sg23
I3
sg24
I0
sbtp41
a.