(lp0
(I5
(imakesets
aset
p1
(dp2
S'subset'
p3
I0
sS'container'
p4
VPreston
p5
sS'verbs'
p6
Vowned
p7
sS'idx'
p8
I5
sS'origs'
p9
I0
sS'adjs'
p10
NsS'contains'
p11
NsS'surface'
p12
Vacres
p13
sS'entity'
p14
Vacre
p15
sS'num'
p16
V2,200
p17
sS'role'
p18
S'do'
p19
sS'location'
p20
NsS'compound'
p21
I0
sS'subtypes'
p22
(lp23
sS'widx'
p24
I7
sS'type_failure'
p25
I0
sbtp26
a(I1015
(imakesets
aset
p27
(dp28
g3
I0
sg4
Nsg6
Vsell purchase
p29
sg8
I1015
sg9
I1
sg10
Nsg11
Nsg12
Vacres
p30
sg14
Vacre
p31
sg16
V1,782
p32
sg18
S'other'
p33
sg20
Vsize
p34
sg21
I0
sg22
(lp35
sg24
I17
sg25
I0
sbtp36
a(I2003
(imakesets
aset
p37
(dp38
g3
I0
sg4
Nsg6
Vown
p39
sg8
I2003
sg9
I2
sg10
Nsg11
Nsg12
Vtimes
p40
sg14
Vhe
p41
sg16
S'x'
p42
sg18
S'subj'
p43
sg20
Nsg21
I0
sg22
(lp44
sg24
I4
sg25
I0
sbtp45
a.