(lp0
(I6
(imakesets
aset
p1
(dp2
S'subset'
p3
I0
sS'container'
p4
Vrestaurant
p5
sS'verbs'
p6
Vserved
p7
sS'idx'
p8
I6
sS'origs'
p9
I0
sS'adjs'
p10
NsS'contains'
p11
NsS'surface'
p12
Vtotal
p13
sS'entity'
p14
Vtotal
p15
sS'num'
p16
V0.2
p17
sS'role'
p18
S'do'
p19
sS'location'
p20
NsS'compound'
p21
I0
sS'subtypes'
p22
(lp23
sS'widx'
p24
I8
sS'type_failure'
p25
I0
sbtp26
a(I11
(imakesets
aset
p27
(dp28
g3
I0
sg4
Nsg6
Vserve
p29
sg8
I11
sg9
I0
sg10
Nsg11
Vloaf
p30
sg12
Vloaf
p31
sg14
Vloaf
p32
sg16
V0.4
p33
sg18
S'other'
p34
sg20
Nsg21
I0
sg22
(lp35
sg24
I13
sg25
I0
sbtp36
a(I1004
(imakesets
aset
p37
(dp38
g3
I0
sg4
Nsg6
Vserve
p39
sg8
I1004
sg9
I1
sg10
Nsg11
Nsg12
Vloaves
p40
sg14
Vloaf
p41
sg16
S'x'
p42
sg18
g34
sg20
Nsg21
I0
sg22
(lp43
sg24
I5
sg25
I0
sbtp44
a.