(lp0
(I4
(imakesets
aset
p1
(dp2
S'subset'
p3
I0
sS'container'
p4
Vstore
p5
sS'verbs'
p6
Vhas
p7
sS'idx'
p8
I4
sS'origs'
p9
I0
sS'adjs'
p10
NsS'contains'
p11
Vparrot
p12
sS'surface'
p13
Vcages
p14
sS'entity'
p15
Vcage
p16
sS'num'
p17
V9
p18
sS'role'
p19
S'do'
p20
sS'location'
p21
NsS'compound'
p22
I0
sS'subtypes'
p23
(lp24
sS'widx'
p25
I7
sS'type_failure'
p26
I0
sbtp27
a(I5
(imakesets
aset
p28
(dp29
g3
I0
sg4
Vcage
p30
sg6
Vhas
p31
sg8
I5
sg9
I1
sg10
Nsg11
Nsg13
Vparrots
p32
sg15
g12
sg17
V2
p33
sg19
g20
sg21
Nsg22
I0
sg23
(lp34
sg25
I6
sg26
I0
sbtp35
a(I1007
(imakesets
aset
p36
(dp37
g3
I0
sg4
Nsg6
Vhave do have
p38
sg8
I1007
sg9
I1
sg10
Nsg11
Nsg13
Vparakeets
p39
sg15
Vparakeet
p40
sg17
g33
sg19
S'other'
p41
sg21
Vit
p42
sg22
I0
sg23
(lp43
sg25
I9
sg26
I0
sbtp44
a(I1014
(imakesets
aset
p45
(dp46
g3
I0
sg4
Nsg6
Vhave do have
p47
sg8
I1014
sg9
I1
sg10
Nsg11
Nsg13
Vbirds
p48
sg15
Vbird
p49
sg17
S'x'
p50
sg19
g41
sg21
Nsg22
I0
sg23
(lp51
sg25
I15
sg26
I0
sbtp52
a.