(lp0
(I7
(imakesets
aset
p1
(dp2
S'subset'
p3
I0
sS'container'
p4
NsS'verbs'
p5
Vcome eat
p6
sS'idx'
p7
I7
sS'origs'
p8
I0
sS'adjs'
p9
NsS'contains'
p10
NsS'surface'
p11
Vadults
p12
sS'entity'
p13
Vadult
p14
sS'num'
p15
V2
p16
sS'role'
p17
S'other'
p18
sS'location'
p19
NsS'compound'
p20
I0
sS'subtypes'
p21
(lp22
sS'widx'
p23
I9
sS'type_failure'
p24
I0
sbtp25
a(I10
(imakesets
aset
p26
(dp27
g3
I0
sg4
Nsg5
Vcome eat
p28
sg7
I10
sg8
I0
sg9
Nsg10
Nsg11
Vchildren
p29
sg13
Vchild
p30
sg15
V5
p31
sg17
g18
sg19
Nsg20
I0
sg21
(lp32
sg23
I12
sg24
I0
sbtp33
a(I1001
(imakesets
aset
p34
(dp35
g3
I0
sg4
Nsg5
Vbe
p36
sg7
I1001
sg8
I1
sg9
Nsg10
Nsg11
Vdollars
p37
sg13
Vdollar
p38
sg15
V3
p39
sg17
g18
sg19
Nsg20
I0
sg21
(lp40
sg23
I3
sg24
I0
sbtp41
a(I1012
(imakesets
aset
p42
(dp43
g3
I0
sg4
Nsg5
g36
sg7
I1012
sg8
I1
sg9
Nsg10
Nsg11
S'dollar'
p44
sg13
g44
sg15
S'x'
p45
sg17
g18
sg19
Nsg20
I0
sg21
(lp46
sg23
I13
sg24
I0
sbtp47
a.