(lp0
(I14
(imakesets
aset
p1
(dp2
S'subset'
p3
I0
sS'container'
p4
NsS'verbs'
p5
Vordered
p6
sS'idx'
p7
I14
sS'origs'
p8
I0
sS'adjs'
p9
NsS'contains'
p10
NsS'surface'
p11
Vkilograms
p12
sS'entity'
p13
Vkilogram
p14
sS'num'
p15
V1,640
p16
sS'role'
p17
S'do'
p18
sS'location'
p19
NsS'compound'
p20
I0
sS'subtypes'
p21
(lp22
sS'widx'
p23
I16
sS'type_failure'
p24
I0
sbtp25
a(I1007
(imakesets
aset
p26
(dp27
g3
I0
sg4
Vbakery
p28
sg5
Vordering
p29
sg7
I1007
sg8
I1
sg9
Nsg10
Nsg11
Vkilograms
p30
sg13
Vkilogram
p31
sg15
V1,394
p32
sg17
g18
sg19
Nsg20
I0
sg21
(lp33
sg23
I9
sg24
I0
sbtp34
a(I2003
(imakesets
aset
p35
(dp36
g3
I0
sg4
Nsg5
Vbe
p37
sg7
I2003
sg8
I2
sg9
Nsg10
Nsg11
Vtimes
p38
sg13
g28
sg15
S'x'
p39
sg17
S'subj'
p40
sg19
Nsg20
I0
sg21
(lp41
sg23
I4
sg24
I0
sbtp42
a.