(lp0
(I1009
(imakesets
aset
p1
(dp2
S'subset'
p3
I0
sS'container'
p4
NsS'verbs'
p5
Vsell
p6
sS'idx'
p7
I1009
sS'origs'
p8
I1
sS'adjs'
p9
NsS'contains'
p10
NsS'surface'
p11
Vhomes
p12
sS'entity'
p13
Vhome
p14
sS'num'
p15
V30,050
p16
sS'role'
p17
S'other'
p18
sS'location'
p19
NsS'compound'
p20
I0
sS'subtypes'
p21
(lp22
sS'widx'
p23
I11
sS'type_failure'
p24
I0
sbtp25
a(I2005
(imakesets
aset
p26
(dp27
g3
I0
sg4
Vthey
p28
sg5
Vsold
p29
sg7
I2005
sg8
I2
sg9
Nsg10
Nsg11
Vhomes
p30
sg13
Vhome
p31
sg15
V17,429
p32
sg17
S'do'
p33
sg19
Nsg20
I0
sg21
(lp34
sg23
I7
sg24
I0
sbtp35
a(I3003
(imakesets
aset
p36
(dp37
g3
I0
sg4
Nsg5
Vbe
p38
sg7
I3003
sg8
I3
sg9
Nsg10
Nsg11
Vtimes
p39
sg13
g28
sg15
S'x'
p40
sg17
S'subj'
p41
sg19
Nsg20
I0
sg21
(lp42
sg23
I4
sg24
I0
sbtp43
a.