(lp0
(I11
(imakesets
aset
p1
(dp2
S'subset'
p3
I0
sS'container'
p4
Vconcert
p5
sS'verbs'
p6
NsS'idx'
p7
I11
sS'origs'
p8
I0
sS'adjs'
p9
NsS'contains'
p10
NsS'surface'
p11
Vdollars
p12
sS'entity'
p13
Vdollar
p14
sS'num'
p15
V4
p16
sS'role'
p17
S'other'
p18
sS'location'
p19
NsS'compound'
p20
I0
sS'subtypes'
p21
(lp22
sS'widx'
p23
I13
sS'type_failure'
p24
I0
sbtp25
a(I1002
(imakesets
aset
p26
(dp27
g3
I0
sg4
Nsg6
Vbuy want go
p28
sg7
I1002
sg8
I1
sg9
Nsg10
Nsg11
Vtickets
p29
sg13
Vticket
p30
sg15
V3
p31
sg17
S'subj'
p32
sg19
Nsg20
I0
sg21
(lp33
sg23
I4
sg24
I0
sbtp34
a(I1010
(imakesets
aset
p35
(dp36
g3
I0
sg4
Nsg6
Vbuy want go
p37
sg7
I1010
sg8
I1
sg9
Vextra
p38
sg10
Nsg11
Vtickets
p39
sg13
Vticket
p40
sg15
V5
p41
sg17
g18
sg19
Vanyone
p42
sg20
I0
sg21
(lp43
sg23
I13
sg24
I0
sbtp44
a(I2005
(imakesets
aset
p45
(dp46
g3
I0
sg4
Nsg6
Vspend
p47
sg7
I2005
sg8
I2
sg9
Nsg10
Nsg11
S'dollar'
p48
sg13
g48
sg15
S'x'
p49
sg17
g18
sg19
Nsg20
I0
sg21
(lp50
sg23
I6
sg24
I0
sbtp51
a.