(lp0
(I8
(imakesets
aset
p1
(dp2
S'subset'
p3
I0
sS'container'
p4
Vtank
p5
sS'verbs'
p6
NsS'idx'
p7
I8
sS'origs'
p8
I0
sS'adjs'
p9
NsS'contains'
p10
Vtank
p11
sS'surface'
p12
Vtank
p13
sS'entity'
p14
g5
sS'num'
p15
V0.5
p16
sS'role'
p17
S'other'
p18
sS'location'
p19
NsS'compound'
p20
I0
sS'subtypes'
p21
(lp22
sS'widx'
p23
I11
sS'type_failure'
p24
I0
sbtp25
a(I9
(imakesets
aset
p26
(dp27
g3
I0
sg4
g11
sg6
Nsg7
I9
sg8
I1
sg9
Nsg10
Nsg12
Vtank
p28
sg14
g11
sg15
V0.16666666666666666
p29
sg17
g18
sg19
Nsg20
I0
sg21
(lp30
sg23
I13
sg24
I0
sbtp31
a(I2002
(imakesets
aset
p32
(dp33
g3
I0
sg4
VMichelle
p34
sg6
Vuse
p35
sg7
I2002
sg8
I2
sg9
Nsg10
Nsg12
Vgas
p36
sg14
Vgas
p37
sg15
S'x'
p38
sg17
S'do'
p39
sg19
Nsg20
I0
sg21
(lp40
sg23
I3
sg24
I0
sbtp41
a.