(lp0
(I1011
(imakesets
aset
p1
(dp2
S'subset'
p3
I0
sS'container'
p4
NsS'verbs'
p5
Vbe
p6
sS'idx'
p7
I1011
sS'origs'
p8
I1
sS'adjs'
p9
NsS'contains'
p10
NsS'surface'
p11
Vinches
p12
sS'entity'
p13
Vinch
p14
sS'num'
p15
V65
p16
sS'role'
p17
S'other'
p18
sS'location'
p19
NsS'compound'
p20
I0
sS'subtypes'
p21
(lp22
sS'widx'
p23
I13
sS'type_failure'
p24
I0
sbtp25
a(I2003
(imakesets
aset
p26
(dp27
g3
I0
sg4
Nsg5
Vbe
p28
sg7
I2003
sg8
I2
sg9
Nsg10
Nsg11
Vinches
p29
sg13
Vinch
p30
sg15
V78
p31
sg17
g18
sg19
Nsg20
I0
sg21
(lp32
sg23
I5
sg24
I0
sbtp33
a(I3003
(imakesets
aset
p34
(dp35
g3
I0
sg4
Nsg5
Vbe
p36
sg7
I3003
sg8
I3
sg9
Nsg10
Nsg11
Vtimes
p37
sg13
Vtime
p38
sg15
S'x'
p39
sg17
S'subj'
p40
sg19
Nsg20
I0
sg21
(lp41
sg23
I4
sg24
I0
sbtp42
a.