(lp0
(I1002
(imakesets
aset
p1
(dp2
S'subset'
p3
I0
sS'container'
p4
VThompson
p5
sS'verbs'
p6
Vsaw
p7
sS'idx'
p8
I1002
sS'origs'
p9
I1
sS'adjs'
p10
NsS'contains'
p11
NsS'surface'
p12
Vpatients
p13
sS'entity'
p14
Vpatient
p15
sS'num'
p16
V1,370
p17
sS'role'
p18
S'do'
p19
sS'location'
p20
NsS'compound'
p21
I0
sS'subtypes'
p22
(lp23
sS'widx'
p24
I4
sS'type_failure'
p25
I0
sbtp26
a(I2005
(imakesets
aset
p27
(dp28
g3
I0
sg4
g5
sg6
Vsaw
p29
sg8
I2005
sg9
I2
sg10
Nsg11
Nsg12
Vpatients
p30
sg14
Vpatient
p31
sg16
V685
p32
sg18
g19
sg20
Nsg21
I0
sg22
(lp33
sg24
I7
sg25
I0
sbtp34
a(I3000
(imakesets
aset
p35
(dp36
g3
I0
sg4
Nsg6
Nsg8
I3000
sg9
I10
sg10
Nsg11
Nsg12
S'UNKNOWN'
p37
sg14
g37
sg16
S'x'
p38
sg18
S'other'
p39
sg20
Nsg21
I0
sg22
(lp40
sg24
I1
sg25
I0
sbtp41
a.