(lp0
(I3
(imakesets
aset
p1
(dp2
S'subset'
p3
I0
sS'container'
p4
Vmile
p5
sS'verbs'
p6
NsS'idx'
p7
I3
sS'origs'
p8
I0
sS'adjs'
p9
NsS'contains'
p10
Vmile
p11
sS'surface'
p12
Vmile
p13
sS'entity'
p14
g5
sS'num'
p15
V0.7
p16
sS'role'
p17
S'other'
p18
sS'location'
p19
NsS'compound'
p20
I0
sS'subtypes'
p21
(lp22
sS'widx'
p23
I6
sS'type_failure'
p24
I0
sbtp25
a(I4
(imakesets
aset
p26
(dp27
g3
I0
sg4
g11
sg6
Nsg7
I4
sg8
I0
sg9
Nsg10
Nsg12
Vmile
p28
sg14
g11
sg15
V0.6
p29
sg17
g18
sg19
Nsg20
I0
sg21
(lp30
sg23
I12
sg24
I0
sbtp31
a(I1005
(imakesets
aset
p32
(dp33
g3
I0
sg4
Nsg6
Vrun walk
p34
sg7
I1005
sg8
I1
sg9
Nsg10
Nsg12
g28
sg14
g11
sg15
S'x'
p35
sg17
g18
sg19
Nsg20
I0
sg21
(lp36
sg23
I6
sg24
I0
sbtp37
a.