(lp0
(I13
(imakesets
aset
p1
(dp2
S'subset'
p3
I0
sS'container'
p4
Vshop
p5
sS'verbs'
p6
NsS'idx'
p7
I13
sS'origs'
p8
I0
sS'adjs'
p9
NsS'contains'
p10
NsS'surface'
p11
Vdollars
p12
sS'entity'
p13
Vdollar
p14
sS'num'
p15
V9
p16
sS'role'
p17
S'other'
p18
sS'location'
p19
NsS'compound'
p20
I0
sS'subtypes'
p21
(lp22
sS'widx'
p23
I15
sS'type_failure'
p24
I0
sbtp25
a(I1008
(imakesets
aset
p26
(dp27
g3
I0
sg4
Nsg6
Vspend buy buy
p28
sg7
I1008
sg8
I1
sg9
Nsg10
Nsg11
Vdecks
p29
sg13
Vdeck
p30
sg15
V4
p31
sg17
S'subj'
p32
sg19
Nsg20
I0
sg21
(lp33
sg23
I10
sg24
I0
sbtp34
a(I1014
(imakesets
aset
p35
(dp36
g3
I0
sg4
Vdecks
p37
sg6
Vbought
p38
sg7
I1014
sg8
I1
sg9
Nsg10
Nsg11
Vdecks
p39
sg13
Vdeck
p40
sg15
g31
sg17
S'do'
p41
sg19
Nsg20
I0
sg21
(lp42
sg23
I16
sg24
I0
sbtp43
a(I1016
(imakesets
aset
p44
(dp45
g3
I0
sg4
Nsg6
Vspend buy buy
p46
sg7
I1016
sg8
I1
sg9
Nsg10
Nsg11
S'dollar'
p47
sg13
g47
sg15
S'x'
p48
sg17
g18
sg19
Nsg20
I0
sg21
(lp49
sg23
I17
sg24
I0
sbtp50
a.