(lp0
(I7
(imakesets
aset
p1
(dp2
S'subset'
p3
I0
sS'container'
p4
VJason
p5
sS'verbs'
p6
Vhad
p7
sS'idx'
p8
I7
sS'origs'
p9
I0
sS'adjs'
p10
Vaverage
p11
sS'contains'
p12
NsS'surface'
p13
Vscore
p14
sS'entity'
p15
Vscore
p16
sS'num'
p17
S'x'
p18
sS'role'
p19
S'do'
p20
sS'location'
p21
NsS'compound'
p22
I0
sS'subtypes'
p23
(lp24
sS'widx'
p25
I10
sS'type_failure'
p26
I0
sbtp27
a(I11
(imakesets
aset
p28
(dp29
g3
I0
sg4
Nsg6
Vhave
p30
sg8
I11
sg9
I0
sg10
Nsg12
Nsg13
Vpoints
p31
sg15
Vpoint
p32
sg17
V80
p33
sg19
S'other'
p34
sg21
Nsg22
I0
sg23
(lp35
sg25
I13
sg26
I0
sbtp36
a(I1010
(imakesets
aset
p37
(dp38
g3
I0
sg4
Nsg6
Vhave be
p39
sg8
I1010
sg9
I1
sg10
Nsg12
Nsg13
Vtimes
p40
sg15
g5
sg17
V0.2
p41
sg19
g34
sg21
Nsg22
I0
sg23
(lp42
sg25
I12
sg26
I0
sbtp43
a.