(lp0
(I5
(imakesets
aset
p1
(dp2
S'subset'
p3
I0
sS'container'
p4
Vcustomers
p5
sS'verbs'
p6
Vbuy
p7
sS'idx'
p8
I5
sS'origs'
p9
I0
sS'adjs'
p10
NsS'contains'
p11
NsS'surface'
p12
Vmuffs
p13
sS'entity'
p14
Vmuff
p15
sS'num'
p16
V1,346
p17
sS'role'
p18
S'do'
p19
sS'location'
p20
NsS'compound'
p21
I0
sS'subtypes'
p22
(lp23
sS'widx'
p24
I8
sS'type_failure'
p25
I0
sbtp26
a(I1005
(imakesets
aset
p27
(dp28
g3
I0
sg4
Nsg6
Vbuy leave
p29
sg8
I1005
sg9
I2
sg10
Nsg11
Nsg12
g13
sg14
g15
sg16
V6,444
p30
sg18
S'other'
p31
sg20
Nsg21
I0
sg22
(lp32
sg24
I6
sg25
I0
sbtp33
a(I2006
(imakesets
aset
p34
(dp35
g3
I0
sg4
Vcustomers
p36
sg6
Vbuy
p37
sg8
I2006
sg9
I2
sg10
Nsg11
Nsg12
Vmuffs
p38
sg14
Vmuff
p39
sg16
S'x'
p40
sg18
g19
sg20
Nsg21
I0
sg22
(lp41
sg24
I7
sg25
I0
sbtp42
a.