(lp0
(I1009
(imakesets
aset
p1
(dp2
S'subset'
p3
I0
sS'container'
p4
NsS'verbs'
p5
Vlay
p6
sS'idx'
p7
I1009
sS'origs'
p8
I1
sS'adjs'
p9
NsS'contains'
p10
NsS'surface'
p11
Vpeople
p12
sS'entity'
p13
Vpeople
p14
sS'num'
p15
V100
p16
sS'role'
p17
S'do'
p18
sS'location'
p19
NsS'compound'
p20
I0
sS'subtypes'
p21
(lp22
sS'widx'
p23
I11
sS'type_failure'
p24
I0
sbtp25
a(I2011
(imakesets
aset
p26
(dp27
g3
I0
sg4
Nsg5
Vlay
p28
sg7
I2011
sg8
I2
sg9
Nsg10
Nsg11
Vtimes
p29
sg13
Vdecrease
p30
sg15
V0.14
p31
sg17
S'other'
p32
sg19
Nsg20
I0
sg21
(lp33
sg23
I13
sg24
I0
sbtp34
a(I3004
(imakesets
aset
p35
(dp36
g3
I0
sg4
Nsg5
Vlay
p37
sg7
I3004
sg8
I3
sg9
Nsg10
Nsg11
Vemployees
p38
sg13
Vemployee
p39
sg15
S'x'
p40
sg17
g32
sg19
Nsg20
I0
sg21
(lp41
sg23
I5
sg24
I0
sbtp42
a.