(lp0
(I4
(imakesets
aset
p1
(dp2
S'subset'
p3
I0
sS'container'
p4
NsS'verbs'
p5
Vtransfer
p6
sS'idx'
p7
I4
sS'origs'
p8
I0
sS'adjs'
p9
NsS'contains'
p10
NsS'surface'
p11
V$
p12
sS'entity'
p13
Vmoney
p14
sS'num'
p15
S'69.0'
p16
sS'role'
p17
S'other'
p18
sS'location'
p19
NsS'compound'
p20
I0
sS'subtypes'
p21
(lp22
sS'widx'
p23
I4
sS'type_failure'
p24
I0
sbtp25
a(I1009
(imakesets
aset
p26
(dp27
g3
I0
sg4
Vaccount
p28
sg5
Vhas
p29
sg7
I1009
sg8
I1
sg9
Nsg10
Nsg11
g12
sg13
g14
sg15
S'26935.0'
p30
sg17
S'do'
p31
sg19
Nsg20
I0
sg21
(lp32
sg23
I9
sg24
I0
sbtp33
a(I2002
(imakesets
aset
p34
(dp35
g3
I0
sg4
Nsg5
Vbe
p36
sg7
I2002
sg8
I2
sg9
Nsg10
Nsg11
Vmoney
p37
sg13
g14
sg15
S'x'
p38
sg17
S'subj'
p39
sg19
Nsg20
I0
sg21
(lp40
sg23
I3
sg24
I0
sbtp41
a.