(lp0
(I1002
(imakesets
aset
p1
(dp2
S'subset'
p3
I0
sS'container'
p4
VIt
p5
sS'verbs'
p6
Vcovers
p7
sS'idx'
p8
I1002
sS'origs'
p9
I1
sS'adjs'
p10
NsS'contains'
p11
NsS'surface'
p12
Vacres
p13
sS'entity'
p14
Vacre
p15
sS'num'
p16
V64,535
p17
sS'role'
p18
S'do'
p19
sS'location'
p20
NsS'compound'
p21
I0
sS'subtypes'
p22
(lp23
sS'widx'
p24
I4
sS'type_failure'
p25
I0
sbtp26
a(I1012
(imakesets
aset
p27
(dp28
g3
I0
sg4
Nsg6
Vcover leave
p29
sg8
I1012
sg9
I1
sg10
Nsg11
Nsg12
Vacres
p30
sg14
Vacre
p31
sg16
V522
p32
sg18
S'other'
p33
sg20
Nsg21
I0
sg22
(lp34
sg24
I14
sg25
I0
sbtp35
a(I2002
(imakesets
aset
p36
(dp37
g3
I0
sg4
Nsg6
Vdo
p38
sg8
I2002
sg9
I2
sg10
Nsg11
Nsg12
Vacres
p39
sg14
Vacre
p40
sg16
S'x'
p41
sg18
S'subj'
p42
sg20
Nsg21
I0
sg22
(lp43
sg24
I3
sg25
I0
sbtp44
a.