(lp0
(I10
(imakesets
aset
p1
(dp2
S'subset'
p3
I0
sS'container'
p4
VNate
p5
sS'verbs'
p6
Vread
p7
sS'idx'
p8
I10
sS'origs'
p9
I0
sS'adjs'
p10
NsS'contains'
p11
NsS'surface'
p12
Vpages
p13
sS'entity'
p14
Vpage
p15
sS'num'
p16
V10
p17
sS'role'
p18
S'do'
p19
sS'location'
p20
NsS'compound'
p21
I0
sS'subtypes'
p22
(lp23
sS'widx'
p24
I12
sS'type_failure'
p25
I0
sbtp26
a(I1008
(imakesets
aset
p27
(dp28
g3
I0
sg4
g5
sg6
Vaveraged
p29
sg8
I1008
sg9
I1
sg10
Nsg11
Nsg12
Vpages
p30
sg14
Vpage
p31
sg16
V12
p32
sg18
g19
sg20
Nsg21
I0
sg22
(lp33
sg24
I10
sg25
I0
sbtp34
a(I2003
(imakesets
aset
p35
(dp36
g3
I0
sg4
Nsg6
Vbe
p37
sg8
I2003
sg9
I2
sg10
Nsg11
Nsg12
Vtimes
p38
sg14
Vhe
p39
sg16
S'x'
p40
sg18
S'subj'
p41
sg20
Nsg21
I0
sg22
(lp42
sg24
I4
sg25
I0
sbtp43
a.