(lp0
(I0
(imakesets
aset
p1
(dp2
S'subset'
p3
I0
sS'container'
p4
NsS'verbs'
p5
Vbegin live
p6
sS'idx'
p7
I0
sS'origs'
p8
I1
sS'adjs'
p9
Vnew
p10
sS'contains'
p11
NsS'surface'
p12
Vpeople
p13
sS'entity'
p14
Vpeople
p15
sS'num'
p16
S'x'
p17
sS'role'
p18
S'subj'
p19
sS'location'
p20
NsS'compound'
p21
I0
sS'subtypes'
p22
(lp23
sS'widx'
p24
I4
sS'type_failure'
p25
I0
sbtp26
a(I3
(imakesets
aset
p27
(dp28
g3
I0
sg4
Nsg5
Vbear immigrate
p29
sg7
I3
sg8
I0
sg9
Nsg11
Nsg12
Vpeople
p30
sg14
Vpeople
p31
sg16
V90,171
p32
sg18
S'other'
p33
sg20
Nsg21
I0
sg22
(lp34
sg24
I5
sg25
I0
sbtp35
a(I12
(imakesets
aset
p36
(dp37
g3
I0
sg4
Nsg5
Vbear immigrate
p38
sg7
I12
sg8
I0
sg9
Nsg11
Nsg12
Vpeople
p39
sg14
Vpeople
p40
sg16
V16,320
p41
sg18
g19
sg20
Nsg21
I0
sg22
(lp42
sg24
I14
sg25
I0
sbtp43
a.