(lp0
(I1010
(imakesets
aset
p1
(dp2
S'subset'
p3
I0
sS'container'
p4
NsS'verbs'
p5
Vmeasure
p6
sS'idx'
p7
I1010
sS'origs'
p8
I1
sS'adjs'
p9
NsS'contains'
p10
NsS'surface'
p11
Vmeters
p12
sS'entity'
p13
Vmeter
p14
sS'num'
p15
V3,750
p16
sS'role'
p17
S'other'
p18
sS'location'
p19
NsS'compound'
p20
I0
sS'subtypes'
p21
(lp22
sS'widx'
p23
I12
sS'type_failure'
p24
I0
sbtp25
a(I2003
(imakesets
aset
p26
(dp27
g3
I0
sg4
Nsg5
Vbe
p28
sg7
I2003
sg8
I2
sg9
Nsg10
Nsg11
Vtimes
p29
sg13
Vmountain
p30
sg15
V0.1
p31
sg17
g18
sg19
Nsg20
I0
sg21
(lp32
sg23
I5
sg24
I0
sbtp33
a(I3000
(imakesets
aset
p34
(dp35
g3
I0
sg4
Nsg5
Nsg7
I3000
sg8
I10
sg9
Nsg10
Nsg11
S'UNKNOWN'
p36
sg13
g36
sg15
S'x'
p37
sg17
g18
sg19
Nsg20
I0
sg21
(lp38
sg23
I1
sg24
I0
sbtp39
a.