(lp0
(I1010
(imakesets
aset
p1
(dp2
S'subset'
p3
I0
sS'container'
p4
NsS'verbs'
p5
Vtry hold
p6
sS'idx'
p7
I1010
sS'origs'
p8
I1
sS'adjs'
p9
NsS'contains'
p10
NsS'surface'
p11
Vseconds
p12
sS'entity'
p13
Vseconds
p14
sS'num'
p15
V68
p16
sS'role'
p17
S'other'
p18
sS'location'
p19
NsS'compound'
p20
I0
sS'subtypes'
p21
(lp22
sS'widx'
p23
I12
sS'type_failure'
p24
I0
sbtp25
a(I2012
(imakesets
aset
p26
(dp27
g3
I0
sg4
Nsg5
Vuse hold
p28
sg7
I2012
sg8
I2
sg9
Nsg10
Nsg11
Vseconds
p29
sg13
Vseconds
p30
sg15
V85
p31
sg17
g18
sg19
Nsg20
I0
sg21
(lp32
sg23
I14
sg24
I0
sbtp33
a(I3003
(imakesets
aset
p34
(dp35
g3
I0
sg4
Nsg5
Vhold
p36
sg7
I3003
sg8
I3
sg9
Nsg10
Nsg11
Vtimes
p37
sg13
Vtime
p38
sg15
S'x'
p39
sg17
S'subj'
p40
sg19
Nsg20
I0
sg21
(lp41
sg23
I4
sg24
I0
sbtp42
a(I3008
(imakesets
aset
p43
(dp44
g3
I0
sg4
Nsg5
g36
sg7
I3008
sg8
I3
sg9
Nsg10
Nsg11
S'LENGTH'
p45
sg13
g45
sg15
g39
sg17
g18
sg19
Nsg20
I0
sg21
(lp46
sg23
I9
sg24
I0
sbtp47
a.