(lp0
(I4
(imakesets
aset
p1
(dp2
S'subset'
p3
I0
sS'container'
p4
Vcorporation
p5
sS'verbs'
p6
Vhas
p7
sS'idx'
p8
I4
sS'origs'
p9
I0
sS'adjs'
p10
Vpart
p11
sS'contains'
p12
NsS'surface'
p13
Vemployees
p14
sS'entity'
p15
Vemployee
p16
sS'num'
p17
V2,041
p18
sS'role'
p19
S'do'
p20
sS'location'
p21
NsS'compound'
p22
I0
sS'subtypes'
p23
(lp24
sS'widx'
p25
I7
sS'type_failure'
p26
I0
sbtp27
a(I8
(imakesets
aset
p28
(dp29
g3
I0
sg4
Nsg6
Vhave
p30
sg8
I8
sg9
I0
sg10
Vfull
p31
sg12
Nsg13
Vemployees
p32
sg15
Vemployee
p33
sg17
V63,093
p34
sg19
S'other'
p35
sg21
Nsg22
I0
sg23
(lp36
sg25
I11
sg26
I0
sbtp37
a(I1002
(imakesets
aset
p38
(dp39
g3
I0
sg4
Nsg6
Vwork
p40
sg8
I1002
sg9
I1
sg10
Nsg12
Nsg13
Vemployees
p41
sg15
Vemployee
p42
sg17
S'x'
p43
sg19
S'subj'
p44
sg21
Nsg22
I0
sg23
(lp45
sg25
I3
sg26
I0
sbtp46
a.