(lp0
(I12
(imakesets
aset
p1
(dp2
S'subset'
p3
I0
sS'container'
p4
NsS'verbs'
p5
Vgraduate
p6
sS'idx'
p7
I12
sS'origs'
p8
I0
sS'adjs'
p9
NsS'contains'
p10
NsS'surface'
p11
Vstudents
p12
sS'entity'
p13
Vstudent
p14
sS'num'
p15
V150
p16
sS'role'
p17
S'other'
p18
sS'location'
p19
NsS'compound'
p20
I0
sS'subtypes'
p21
(lp22
sS'widx'
p23
I14
sS'type_failure'
p24
I0
sbtp25
a(I1005
(imakesets
aset
p26
(dp27
g3
I0
sg4
Nsg5
Vbe
p28
sg7
I1005
sg8
I1
sg9
Nsg10
Nsg11
Vtimes
p29
sg13
Vtime
p30
sg15
V0.54
p31
sg17
g18
sg19
Nsg20
I0
sg21
(lp32
sg23
I7
sg24
I0
sbtp33
a(I2004
(imakesets
aset
p34
(dp35
g3
I0
sg4
Nsg5
Vgraduate
p36
sg7
I2004
sg8
I2
sg9
Vcurrent
p37
sg10
Nsg11
Vsize
p38
sg13
Vsize
p39
sg15
S'x'
p40
sg17
S'subj'
p41
sg19
Nsg20
I0
sg21
(lp42
sg23
I5
sg24
I0
sbtp43
a.