(lp0
(I8
(imakesets
aset
p1
(dp2
S'subset'
p3
I0
sS'container'
p4
NsS'verbs'
p5
Vbe
p6
sS'idx'
p7
I8
sS'origs'
p8
I0
sS'adjs'
p9
NsS'contains'
p10
NsS'surface'
p11
Vhouses
p12
sS'entity'
p13
Vhouse
p14
sS'num'
p15
V1,426
p16
sS'role'
p17
S'subj'
p18
sS'location'
p19
VCounty
p20
sS'compound'
p21
I0
sS'subtypes'
p22
(lp23
sS'widx'
p24
I10
sS'type_failure'
p25
I0
sbtp26
a(I1004
(imakesets
aset
p27
(dp28
g3
I0
sg4
Nsg5
Vbe
p29
sg7
I1004
sg8
I1
sg9
Nsg10
Nsg11
Vhouses
p30
sg13
Vhouse
p31
sg15
V2,000
p32
sg17
g18
sg19
Nsg21
I0
sg22
(lp33
sg24
I6
sg25
I0
sbtp34
a(I2002
(imakesets
aset
p35
(dp36
g3
I0
sg4
Vdevelopers
p37
sg5
Vbuild
p38
sg7
I2002
sg8
I2
sg9
Nsg10
Nsg11
Vhouses
p39
sg13
Vhouse
p40
sg15
S'x'
p41
sg17
S'do'
p42
sg19
Nsg21
I0
sg22
(lp43
sg24
I3
sg25
I0
sbtp44
a.