(lp0
(I1006
(imakesets
aset
p1
(dp2
S'subset'
p3
I0
sS'container'
p4
NsS'verbs'
p5
Vcontain
p6
sS'idx'
p7
I1006
sS'origs'
p8
I1
sS'adjs'
p9
NsS'contains'
p10
NsS'surface'
p11
Vcells
p12
sS'entity'
p13
Vcell
p14
sS'num'
p15
V7,341
p16
sS'role'
p17
S'other'
p18
sS'location'
p19
NsS'compound'
p20
I0
sS'subtypes'
p21
(lp22
sS'widx'
p23
I9
sS'type_failure'
p24
I0
sbtp25
a(I2004
(imakesets
aset
p26
(dp27
g3
I0
sg4
Vsample
p28
sg5
Vcontained
p29
sg7
I2004
sg8
I2
sg9
Nsg10
Nsg11
Vcells
p30
sg13
Vcell
p31
sg15
V4,221
p32
sg17
S'do'
p33
sg19
Nsg20
I0
sg21
(lp34
sg23
I7
sg24
I0
sbtp35
a(I3003
(imakesets
aset
p36
(dp37
g3
I0
sg4
Nsg5
Vbe
p38
sg7
I3003
sg8
I3
sg9
Nsg10
Nsg11
Vcells
p39
sg13
Vcell
p40
sg15
S'x'
p41
sg17
S'subj'
p42
sg19
Nsg20
I0
sg21
(lp43
sg23
I4
sg24
I0
sbtp44
a.