(lp0
(I6
(imakesets
aset
p1
(dp2
S'subset'
p3
I0
sS'container'
p4
VSara
p5
sS'verbs'
p6
Vspent
p7
sS'idx'
p8
I6
sS'origs'
p9
I0
sS'adjs'
p10
NsS'contains'
p11
NsS'surface'
p12
V$
p13
sS'entity'
p14
S'dollar'
p15
sS'num'
p16
V10.62
p17
sS'role'
p18
S'do'
p19
sS'location'
p20
NsS'compound'
p21
I0
sS'subtypes'
p22
(lp23
sS'widx'
p24
I6
sS'type_failure'
p25
I0
sbtp26
a(I7
(imakesets
aset
p27
(dp28
g3
I0
sg4
Nsg6
Vspend
p29
sg8
I7
sg9
I0
sg10
Nsg11
Nsg12
Vtickets
p30
sg14
Vticket
p31
sg16
V2
p32
sg18
S'other'
p33
sg20
Nsg21
I0
sg22
(lp34
sg24
I9
sg25
I0
sbtp35
a(I1007
(imakesets
aset
p36
(dp37
g3
I0
sg4
Vmovie
p38
sg6
Nsg8
I1007
sg9
I1
sg10
Nsg11
Nsg12
g13
sg14
g15
sg16
V1.59
p39
sg18
g33
sg20
Nsg21
I0
sg22
(lp40
sg24
I7
sg25
I0
sbtp41
a(I1015
(imakesets
aset
p42
(dp43
g3
I0
sg4
Nsg6
Vrent buy
p44
sg8
I1015
sg9
I1
sg10
Nsg11
Nsg12
g13
sg14
g15
sg16
V13.95
p45
sg18
g33
sg20
Nsg21
I0
sg22
(lp46
sg24
I15
sg25
I0
sbtp47
a(I2010
(imakesets
aset
p48
(dp49
g3
I0
sg4
Nsg6
Vspend
p50
sg8
I2010
sg9
I2
sg10
Nsg11
Nsg12
g15
sg14
g15
sg16
S'x'
p51
sg18
g33
sg20
Nsg21
I0
sg22
(lp52
sg24
I11
sg25
I0
sbtp53
a.