(lp0
(I10
(imakesets
aset
p1
(dp2
S'subset'
p3
I0
sS'container'
p4
Vit
p5
sS'verbs'
p6
Vweighs
p7
sS'idx'
p8
I10
sS'origs'
p9
I0
sS'adjs'
p10
NsS'contains'
p11
NsS'surface'
p12
Vkilograms
p13
sS'entity'
p14
Vkilogram
p15
sS'num'
p16
V74
p17
sS'role'
p18
S'do'
p19
sS'location'
p20
NsS'compound'
p21
I0
sS'subtypes'
p22
(lp23
sS'widx'
p24
I12
sS'type_failure'
p25
I0
sbtp26
a(I1009
(imakesets
aset
p27
(dp28
g3
I0
sg4
Vdog
p29
sg6
Vweighed
p30
sg8
I1009
sg9
I1
sg10
Nsg11
Nsg12
Vkilograms
p31
sg14
Vkilogram
p32
sg16
V40
p33
sg18
g19
sg20
Nsg21
I0
sg22
(lp34
sg24
I11
sg25
I0
sbtp35
a(I2000
(imakesets
aset
p36
(dp37
g3
I0
sg4
Nsg6
Nsg8
I2000
sg9
I10
sg10
Nsg11
Nsg12
S'UNKNOWN'
p38
sg14
g38
sg16
S'x'
p39
sg18
S'other'
p40
sg20
Nsg21
I0
sg22
(lp41
sg24
I1
sg25
I0
sbtp42
a.