(lp0
(I8
(imakesets
aset
p1
(dp2
S'subset'
p3
I0
sS'container'
p4
NsS'verbs'
p5
Vorganize make
p6
sS'idx'
p7
I8
sS'origs'
p8
I0
sS'adjs'
p9
NsS'contains'
p10
NsS'surface'
p11
Vshelves
p12
sS'entity'
p13
Vshelf
p14
sS'num'
p15
V5
p16
sS'role'
p17
S'other'
p18
sS'location'
p19
NsS'compound'
p20
I0
sS'subtypes'
p21
(lp22
sS'widx'
p23
I10
sS'type_failure'
p24
I0
sbtp25
a(I14
(imakesets
aset
p26
(dp27
g3
I0
sg4
Veach
p28
sg5
Vhad
p29
sg7
I14
sg8
I0
sg9
Nsg10
Nsg11
Vbooks
p30
sg13
Vbook
p31
sg15
V4
p32
sg17
S'do'
p33
sg19
Vit
p34
sg20
I0
sg21
(lp35
sg23
I16
sg24
I0
sbtp36
a(I1009
(imakesets
aset
p37
(dp38
g3
I0
sg4
Nsg5
Vhave do have
p39
sg7
I1009
sg8
I1
sg9
Nsg10
Nsg11
Vshelves
p40
sg13
Vshelf
p41
sg15
V3
p42
sg17
g18
sg19
Nsg20
I0
sg21
(lp43
sg23
I11
sg24
I0
sbtp44
a(I1017
(imakesets
aset
p45
(dp46
g3
I0
sg4
Nsg5
Vhave do have
p47
sg7
I1017
sg8
I1
sg9
Nsg10
Nsg11
Vbooks
p48
sg13
Vbook
p49
sg15
S'x'
p50
sg17
g18
sg19
Nsg20
I0
sg21
(lp51
sg23
I18
sg24
I0
sbtp52
a.