(lp0
(I2
(imakesets
aset
p1
(dp2
S'subset'
p3
I0
sS'container'
p4
Vgame
p5
sS'verbs'
p6
NsS'idx'
p7
I2
sS'origs'
p8
I0
sS'adjs'
p9
NsS'contains'
p10
NsS'surface'
p11
Vfriends
p12
sS'entity'
p13
Vfriend
p14
sS'num'
p15
V2
p16
sS'role'
p17
S'subj'
p18
sS'location'
p19
NsS'compound'
p20
I0
sS'subtypes'
p21
(lp22
sS'widx'
p23
I4
sS'type_failure'
p24
I0
sbtp25
a(I10
(imakesets
aset
p26
(dp27
g3
I0
sg4
Nsg6
Vplay join
p28
sg7
I10
sg8
I0
sg9
Vmore
p29
sg10
Vlife
p30
sg11
Vplayers
p31
sg13
Vplayer
p32
sg15
g16
sg17
g18
sg19
Nsg20
I0
sg21
(lp33
sg23
I13
sg24
I0
sbtp34
a(I11
(imakesets
aset
p35
(dp36
g3
I0
sg4
Vplayer
p37
sg6
Vhad
p38
sg7
I11
sg8
I1
sg9
Nsg10
Nsg11
Vlives
p39
sg13
g30
sg15
V8
p40
sg17
S'do'
p41
sg19
Nsg20
I0
sg21
(lp42
sg23
I6
sg24
I0
sbtp43
a(I1009
(imakesets
aset
p44
(dp45
g3
I0
sg4
Nsg6
Vhave do have
p46
sg7
I1009
sg8
I1
sg9
Nsg10
Nsg11
Vlives
p47
sg13
Vlife
p48
sg15
S'x'
p49
sg17
S'other'
p50
sg19
Nsg20
I0
sg21
(lp51
sg23
I10
sg24
I0
sbtp52
a.