(lp0
(I1008
(imakesets
aset
p1
(dp2
S'subset'
p3
I0
sS'container'
p4
NsS'verbs'
p5
Vcheck weigh
p6
sS'idx'
p7
I1008
sS'origs'
p8
I1
sS'adjs'
p9
Vparticular
p10
sS'contains'
p11
NsS'surface'
p12
Vpig
p13
sS'entity'
p14
Vpig
p15
sS'num'
p16
S'x'
p17
sS'role'
p18
S'subj'
p19
sS'location'
p20
NsS'compound'
p21
I0
sS'subtypes'
p22
(lp23
sS'widx'
p24
I11
sS'type_failure'
p25
I0
sbtp26
a(I1012
(imakesets
aset
p27
(dp28
g3
I0
sg4
Vpig
p29
sg5
Vweighed
p30
sg7
I1012
sg8
I1
sg9
Nsg11
Nsg12
Vkilograms
p31
sg14
Vkilogram
p32
sg16
V8
p33
sg18
S'do'
p34
sg20
Nsg21
I0
sg22
(lp35
sg24
I14
sg25
I0
sbtp36
a(I3012
(imakesets
aset
p37
(dp38
g3
I0
sg4
Nsg5
Vweigh find weigh
p39
sg7
I3012
sg8
I3
sg9
Nsg11
Nsg12
Vtimes
p40
sg14
VCopeland
p41
sg16
V0.75
p42
sg18
S'other'
p43
sg20
Nsg21
I0
sg22
(lp44
sg24
I14
sg25
I0
sbtp45
a.