(lp0
(I3
(imakesets
aset
p1
(dp2
S'subset'
p3
I0
sS'container'
p4
VElise
p5
sS'verbs'
p6
Vhad
p7
sS'idx'
p8
I3
sS'origs'
p9
I0
sS'adjs'
p10
NsS'contains'
p11
NsS'surface'
p12
V$
p13
sS'entity'
p14
Vmoney
p15
sS'num'
p16
S'8.0'
p17
sS'role'
p18
S'do'
p19
sS'location'
p20
NsS'compound'
p21
I0
sS'subtypes'
p22
(lp23
sS'widx'
p24
I3
sS'type_failure'
p25
I0
sbtp26
a(I1004
(imakesets
aset
p27
(dp28
g3
I0
sg4
g5
sg6
Vsaved
p29
sg8
I1004
sg9
I1
sg10
Nsg11
Nsg12
g13
sg14
g15
sg16
S'13.0'
p30
sg18
g19
sg20
Nsg21
I0
sg22
(lp31
sg24
I4
sg25
I0
sbtp32
a(I1011
(imakesets
aset
p33
(dp34
g3
I0
sg4
Vbook
p35
sg6
Vspent
p36
sg8
I1011
sg9
I1
sg10
Nsg11
Nsg12
g13
sg14
g15
sg16
S'2.0'
p37
sg18
g19
sg20
Nsg21
I0
sg22
(lp38
sg24
I11
sg25
I0
sbtp39
a(I1018
(imakesets
aset
p40
(dp41
g3
I0
sg4
Vpuzzle
p42
sg6
Nsg8
I1018
sg9
I1
sg10
Nsg11
Nsg12
g13
sg14
g15
sg16
S'18.0'
p43
sg18
S'other'
p44
sg20
Nsg21
I0
sg22
(lp45
sg24
I18
sg25
I0
sbtp46
a(I2002
(imakesets
aset
p47
(dp48
g3
I0
sg4
VElise
p49
sg6
Vleft
p50
sg8
I2002
sg9
I2
sg10
Nsg11
Nsg12
Vmoney
p51
sg14
g15
sg16
S'x'
p52
sg18
g19
sg20
Nsg21
I0
sg22
(lp53
sg24
I3
sg25
I0
sbtp54
a.