(lp0
(I9
(imakesets
aset
p1
(dp2
S'subset'
p3
I0
sS'container'
p4
Vtreasure
p5
sS'verbs'
p6
NsS'idx'
p7
I9
sS'origs'
p8
I0
sS'adjs'
p9
NsS'contains'
p10
NsS'surface'
p11
Vpoints
p12
sS'entity'
p13
Vpoint
p14
sS'num'
p15
V6
p16
sS'role'
p17
S'other'
p18
sS'location'
p19
NsS'compound'
p20
I0
sS'subtypes'
p21
(lp22
sS'widx'
p23
I11
sS'type_failure'
p24
I0
sbtp25
a(I12
(imakesets
aset
p26
(dp27
g3
I0
sg4
Nsg6
Vplay find
p28
sg7
I12
sg8
I0
sg9
Nsg10
Nsg11
Vtreasure
p29
sg13
g5
sg15
V3
p30
sg17
g18
sg19
Nsg20
I0
sg21
(lp31
sg23
I14
sg24
I0
sbtp32
a(I1000
(imakesets
aset
p33
(dp34
g3
I0
sg4
Nsg6
Nsg7
I1000
sg8
I10
sg9
Nsg10
Nsg11
S'UNKNOWN'
p35
sg13
g35
sg15
S'x'
p36
sg17
g18
sg19
Nsg20
I0
sg21
(lp37
sg23
I1
sg24
I0
sbtp38
a(I1010
(imakesets
aset
p39
(dp40
g3
I0
sg4
Nsg6
Vfind
p41
sg7
I1010
sg8
I2
sg9
Nsg10
Nsg11
Vtreasures
p42
sg13
Vtreasure
p43
sg15
V5
p44
sg17
g18
sg19
Nsg20
I0
sg21
(lp45
sg23
I11
sg24
I0
sbtp46
a.