(lp0
(I4
(imakesets
aset
p1
(dp2
S'subset'
p3
I0
sS'container'
p4
NsS'verbs'
p5
Vteach
p6
sS'idx'
p7
I4
sS'origs'
p8
I0
sS'adjs'
p9
NsS'contains'
p10
NsS'surface'
p11
Vtimes
p12
sS'entity'
p13
Vtime
p14
sS'num'
p15
V0.25
p16
sS'role'
p17
S'subj'
p18
sS'location'
p19
NsS'compound'
p20
I0
sS'subtypes'
p21
(lp22
sS'widx'
p23
I6
sS'type_failure'
p24
I0
sbtp25
a(I1003
(imakesets
aset
p26
(dp27
g3
I0
sg4
Nsg5
Vbe be
p28
sg7
I1003
sg8
I1
sg9
Vbasic
p29
sg10
Nsg11
Vteachers
p30
sg13
Vteacher
p31
sg15
V50
p32
sg17
g18
sg19
Nsg20
I0
sg21
(lp33
sg23
I7
sg24
I0
sbtp34
a(I1010
(imakesets
aset
p35
(dp36
g3
I0
sg4
Nsg5
Vbe be
p37
sg7
I1010
sg8
I1
sg9
Nsg10
Nsg11
Vteachers
p38
sg13
Vteacher
p39
sg15
S'x'
p40
sg17
S'other'
p41
sg19
Nsg20
I0
sg21
(lp42
sg23
I11
sg24
I0
sbtp43
a.