(lp0
(I3
(imakesets
aset
p1
(dp2
S'subset'
p3
I0
sS'container'
p4
VJohnny
p5
sS'verbs'
p6
Vsaved
p7
sS'idx'
p8
I3
sS'origs'
p9
I0
sS'adjs'
p10
NsS'contains'
p11
NsS'surface'
p12
V$
p13
sS'entity'
p14
Vmoney
p15
sS'num'
p16
S'30.0'
p17
sS'role'
p18
S'do'
p19
sS'location'
p20
VSeptember
p21
sS'compound'
p22
I0
sS'subtypes'
p23
(lp24
sS'widx'
p25
I3
sS'type_failure'
p26
I0
sbtp27
a(I1003
(imakesets
aset
p28
(dp29
g3
I0
sg4
g5
sg6
Vsaved
p30
sg8
I1003
sg9
I1
sg10
Nsg11
Nsg12
g13
sg14
g15
sg16
S'49.0'
p31
sg18
g19
sg20
Nsg22
I0
sg23
(lp32
sg25
I3
sg26
I0
sbtp33
a(I1008
(imakesets
aset
p34
(dp35
g3
I0
sg4
Nsg6
Vsave
p36
sg8
I1008
sg9
I1
sg10
Nsg11
Nsg12
g13
sg14
g15
sg16
S'46.0'
p37
sg18
S'other'
p38
sg20
Nsg22
I0
sg23
(lp39
sg25
I8
sg26
I0
sbtp40
a(I2004
(imakesets
aset
p41
(dp42
g3
I0
sg4
Vgame
p43
sg6
Vspent
p44
sg8
I2004
sg9
I2
sg10
Nsg11
Nsg12
g13
sg14
g15
sg16
S'58.0'
p45
sg18
g19
sg20
Nsg22
I0
sg23
(lp46
sg25
I4
sg26
I0
sbtp47
a(I3002
(imakesets
aset
p48
(dp49
g3
I0
sg4
VJohnny
p50
sg6
Vleft
p51
sg8
I3002
sg9
I3
sg10
Nsg11
Nsg12
Vmoney
p52
sg14
g15
sg16
S'x'
p53
sg18
g19
sg20
Nsg22
I0
sg23
(lp54
sg25
I3
sg26
I0
sbtp55
a.