(lp0
(I2
(imakesets
aset
p1
(dp2
S'subset'
p3
I0
sS'container'
p4
VSeth
p5
sS'verbs'
p6
Vbought
p7
sS'idx'
p8
I2
sS'origs'
p9
I0
sS'adjs'
p10
NsS'contains'
p11
S'dollar'
p12
sS'surface'
p13
Vcartons
p14
sS'entity'
p15
Vcarton
p16
sS'num'
p17
V20
p18
sS'role'
p19
S'do'
p20
sS'location'
p21
NsS'compound'
p22
I0
sS'subtypes'
p23
(lp24
sS'widx'
p25
I4
sS'type_failure'
p26
I0
sbtp27
a(I8
(imakesets
aset
p28
(dp29
g3
I0
sg4
Nsg6
Vbuy
p30
sg8
I8
sg9
I0
sg10
Nsg11
Nsg13
Vcartons
p31
sg15
Vcarton
p32
sg17
V2
p33
sg19
S'other'
p34
sg21
Nsg22
I0
sg23
(lp35
sg25
I10
sg26
I0
sbtp36
a(I1015
(imakesets
aset
p37
(dp38
g3
I0
sg4
Nsg6
Vcost
p39
sg8
I1015
sg9
I1
sg10
Nsg11
g12
sg13
V$
p40
sg15
g12
sg17
V1
p41
sg19
g34
sg21
Nsg22
I0
sg23
(lp42
sg25
I15
sg26
I0
sbtp43
a(I1016
(imakesets
aset
p44
(dp45
g3
I0
sg4
g12
sg6
Vcost
p46
sg8
I1016
sg9
I1
sg10
Nsg11
Nsg13
g40
sg15
g12
sg17
V6
p47
sg19
g20
sg21
Nsg22
I0
sg23
(lp48
sg25
I7
sg26
I0
sbtp49
a(I2012
(imakesets
aset
p50
(dp51
g3
I0
sg4
Nsg6
Vspend
p52
sg8
I2012
sg9
I2
sg10
Nsg11
Nsg13
g12
sg15
g12
sg17
S'x'
p53
sg19
g34
sg21
Nsg22
I0
sg23
(lp54
sg25
I13
sg26
I0
sbtp55
a.