(lp0
(I10
(imakesets
aset
p1
(dp2
S'subset'
p3
I0
sS'container'
p4
Vgame
p5
sS'verbs'
p6
Vcosts
p7
sS'idx'
p8
I10
sS'origs'
p9
I0
sS'adjs'
p10
NsS'contains'
p11
NsS'surface'
p12
V$
p13
sS'entity'
p14
Vmoney
p15
sS'num'
p16
S'7.0'
p17
sS'role'
p18
S'do'
p19
sS'location'
p20
NsS'compound'
p21
I0
sS'subtypes'
p22
(lp23
sS'widx'
p24
I10
sS'type_failure'
p25
I0
sbtp26
a(I18
(imakesets
aset
p27
(dp28
g3
I0
sg4
Vball
p29
sg6
Vcosts
p30
sg8
I18
sg9
I0
sg10
Nsg11
Nsg12
g13
sg14
g15
sg16
S'12.0'
p31
sg18
g19
sg20
Nsg21
I0
sg22
(lp32
sg24
I18
sg25
I0
sbtp33
a(I27
(imakesets
aset
p34
(dp35
g3
I0
sg4
Vthat
p36
sg6
Vcosts
p37
sg8
I27
sg9
I0
sg10
Nsg11
Nsg12
g13
sg14
g15
sg16
S'4.0'
p38
sg18
g19
sg20
Nsg21
I0
sg22
(lp39
sg24
I27
sg25
I0
sbtp40
a(I1004
(imakesets
aset
p41
(dp42
g3
I0
sg4
VHe
p43
sg6
Vsaved
p44
sg8
I1004
sg9
I1
sg10
Nsg11
Nsg12
g13
sg14
g15
sg16
S'6.0'
p45
sg18
g19
sg20
Nsg21
I0
sg22
(lp46
sg24
I4
sg25
I0
sbtp47
a(I1015
(imakesets
aset
p48
(dp49
g3
I0
sg4
g43
sg6
Vgave
p50
sg8
I1015
sg9
I1
sg10
Nsg11
Nsg12
g13
sg14
g15
sg16
S'13.0'
p51
sg18
g19
sg20
Nsg21
I0
sg22
(lp52
sg24
I15
sg25
I0
sbtp53
a(I2003
(imakesets
aset
p54
(dp55
g3
I0
sg4
Nsg6
Vbuy
p56
sg8
I2003
sg9
I2
sg10
Vmore
p57
sg11
Nsg12
Vmoney
p58
sg14
g15
sg16
S'x'
p59
sg18
S'other'
p60
sg20
Nsg21
I0
sg22
(lp61
sg24
I4
sg25
I0
sbtp62
a.