(lp0
(I1002
(imakesets
aset
p1
(dp2
S'subset'
p3
I0
sS'container'
p4
NsS'verbs'
p5
Vpick
p6
sS'idx'
p7
I1002
sS'origs'
p8
I1
sS'adjs'
p9
NsS'contains'
p10
NsS'surface'
p11
Vpeople
p12
sS'entity'
p13
Vpeople
p14
sS'num'
p15
V10
p16
sS'role'
p17
S'subj'
p18
sS'location'
p19
Vparty
p20
sS'compound'
p21
I0
sS'subtypes'
p22
(lp23
sS'widx'
p24
I4
sS'type_failure'
p25
I0
sbtp26
a(I1009
(imakesets
aset
p27
(dp28
g3
I0
sg4
Nsg5
g6
sg7
I1009
sg8
I1
sg9
Nsg10
Nsg11
Vtimes
p29
sg13
Vtime
p30
sg15
V0.4
p31
sg17
g18
sg19
Nsg21
I0
sg22
(lp32
sg24
I11
sg25
I0
sbtp33
a(I2002
(imakesets
aset
p34
(dp35
g3
I0
sg4
Nsg5
Vpick
p36
sg7
I2002
sg8
I2
sg9
Nsg10
Nsg11
Vpeople
p37
sg13
Vpeople
p38
sg15
S'x'
p39
sg17
g18
sg19
Nsg21
I0
sg22
(lp40
sg24
I3
sg25
I0
sbtp41
a.