(lp0
(I1007
(imakesets
aset
p1
(dp2
S'subset'
p3
I0
sS'container'
p4
NsS'verbs'
p5
Vfind use
p6
sS'idx'
p7
I1007
sS'origs'
p8
I1
sS'adjs'
p9
NsS'contains'
p10
NsS'surface'
p11
V$
p12
sS'entity'
p13
S'dollar'
p14
sS'num'
p15
V12000
p16
sS'role'
p17
S'other'
p18
sS'location'
p19
NsS'compound'
p20
I0
sS'subtypes'
p21
(lp22
sS'widx'
p23
I7
sS'type_failure'
p24
I0
sbtp25
a(I2000
(imakesets
aset
p26
(dp27
g3
I0
sg4
Nsg5
Nsg7
I2000
sg8
I10
sg9
Nsg10
Nsg11
S'UNKNOWN'
p28
sg13
g28
sg15
S'x'
p29
sg17
g18
sg19
Nsg20
I0
sg21
(lp30
sg23
I1
sg24
I0
sbtp31
a(I2005
(imakesets
aset
p32
(dp33
g3
I0
sg4
Nsg5
Vpay use
p34
sg7
I2005
sg8
I2
sg9
Nsg10
Nsg11
g12
sg13
g14
sg15
V16000
p35
sg17
g18
sg19
Nsg20
I0
sg21
(lp36
sg23
I5
sg24
I0
sbtp37
a.