(lp0
(I0
(imakesets
aset
p1
(dp2
S'subset'
p3
I0
sS'container'
p4
NsS'verbs'
p5
Vstart
p6
sS'idx'
p7
I0
sS'origs'
p8
I3
sS'adjs'
p9
NsS'contains'
p10
NsS'surface'
p11
VPokemon
p12
sS'entity'
p13
Vpokemon
p14
sS'num'
p15
S'x'
p16
sS'role'
p17
S'other'
p18
sS'location'
p19
NsS'compound'
p20
I0
sS'subtypes'
p21
(lp22
sS'widx'
p23
I3
sS'type_failure'
p24
I0
sbtp25
a(I1002
(imakesets
aset
p26
(dp27
g3
I0
sg4
Nsg5
Vgive
p28
sg7
I1002
sg8
I4
sg9
Nsg10
Nsg11
Vcards
p29
sg13
Vcard
p30
sg15
V9
p31
sg17
g18
sg19
Nsg20
I0
sg21
(lp32
sg23
I3
sg24
I0
sbtp33
a(I2003
(imakesets
aset
p34
(dp35
g3
I0
sg4
VJason
p36
sg5
Vhas
p37
sg7
I2003
sg8
I2
sg9
Nsg10
Nsg11
VPokemon
p38
sg13
Vpokemon
p39
sg15
V4
p40
sg17
S'do'
p41
sg19
Nsg20
I0
sg21
(lp42
sg23
I5
sg24
I0
sbtp43
a.