(lp0
(I2
(imakesets
aset
p1
(dp2
S'subset'
p3
I0
sS'container'
p4
VAdam
p5
sS'verbs'
p6
Vbought
p7
sS'idx'
p8
I2
sS'origs'
p9
I0
sS'adjs'
p10
NsS'contains'
p11
Vcan
p12
sS'surface'
p13
Vpackages
p14
sS'entity'
p15
Vpackage
p16
sS'num'
p17
V9
p18
sS'role'
p19
S'do'
p20
sS'location'
p21
NsS'compound'
p22
I0
sS'subtypes'
p23
(lp24
sS'widx'
p25
I4
sS'type_failure'
p26
I0
sbtp27
a(I3
(imakesets
aset
p28
(dp29
g3
I0
sg4
Vpackage
p30
sg6
Vcontained
p31
sg8
I3
sg9
I1
sg10
Nsg11
Nsg13
Vcans
p32
sg15
Vcan
p33
sg17
V10
p34
sg19
g20
sg21
Nsg22
I0
sg23
(lp35
sg25
I8
sg26
I0
sbtp36
a(I3
(imakesets
aset
p37
(dp38
g3
I0
sg4
Vpackage
p39
sg6
Vcontained
p40
sg8
I3
sg9
I1
sg10
Nsg11
Nsg13
Vcans
p41
sg15
g12
sg17
V5
p42
sg19
g20
sg21
Nsg22
I0
sg23
(lp43
sg25
I18
sg26
I0
sbtp44
a(I8
(imakesets
aset
p45
(dp46
g3
I0
sg4
Nsg6
Vbuy
p47
sg8
I8
sg9
I0
sg10
Nsg11
Nsg13
Vpackages
p48
sg15
Vpackage
p49
sg17
V7
p50
sg19
S'other'
p51
sg21
Nsg22
I0
sg23
(lp52
sg25
I10
sg26
I0
sbtp53
a(I2003
(imakesets
aset
p54
(dp55
g3
I0
sg4
VAdam
p56
sg6
Vbuy
p57
sg8
I2003
sg9
I2
sg10
Vmore
p58
sg11
Nsg13
Vcans
p59
sg15
Vcan
p60
sg17
S'x'
p61
sg19
g20
sg21
Nsg22
I0
sg23
(lp62
sg25
I4
sg26
I0
sbtp63
a.