(lp0
(I10
(imakesets
aset
p1
(dp2
S'subset'
p3
I0
sS'container'
p4
Vpants
p5
sS'verbs'
p6
Vcost
p7
sS'idx'
p8
I10
sS'origs'
p9
I0
sS'adjs'
p10
NsS'contains'
p11
NsS'surface'
p12
V$
p13
sS'entity'
p14
S'dollar'
p15
sS'num'
p16
V25
p17
sS'role'
p18
S'do'
p19
sS'location'
p20
NsS'compound'
p21
I0
sS'subtypes'
p22
(lp23
sS'widx'
p24
I10
sS'type_failure'
p25
I0
sbtp26
a(I1013
(imakesets
aset
p27
(dp28
g3
I0
sg4
Nsg6
Vreduce
p29
sg8
I1013
sg9
I1
sg10
Nsg11
Nsg12
g13
sg14
g15
sg16
V15
p30
sg18
S'other'
p31
sg20
Nsg21
I0
sg22
(lp32
sg24
I13
sg25
I0
sbtp33
a(I2000
(imakesets
aset
p34
(dp35
g3
I0
sg4
Nsg6
Nsg8
I2000
sg9
I10
sg10
Nsg11
Nsg12
S'UNKNOWN'
p36
sg14
g36
sg16
S'x'
p37
sg18
g31
sg20
Nsg21
I0
sg22
(lp38
sg24
I1
sg25
I0
sbtp39
a.