(lp0
(I1004
(imakesets
aset
p1
(dp2
S'subset'
p3
I0
sS'container'
p4
NsS'verbs'
p5
S''
p6
sS'idx'
p7
I1004
sS'origs'
p8
I1
sS'adjs'
p9
NsS'contains'
p10
NsS'surface'
p11
Vtickets
p12
sS'entity'
p13
Vticket
p14
sS'num'
p15
V2
p16
sS'role'
p17
S'other'
p18
sS'location'
p19
NsS'compound'
p20
I0
sS'subtypes'
p21
(lp22
sS'widx'
p23
I6
sS'type_failure'
p24
I0
sbtp25
a(I1011
(imakesets
aset
p26
(dp27
g3
I0
sg4
Nsg5
g6
sg7
I1011
sg8
I1
sg9
Nsg10
Nsg11
Vtickets
p28
sg13
Vticket
p29
sg15
V7
p30
sg17
g18
sg19
Nsg20
I0
sg21
(lp31
sg23
I13
sg24
I0
sbtp32
a(I1018
(imakesets
aset
p33
(dp34
g3
I0
sg4
Nsg5
g6
sg7
I1018
sg8
I1
sg9
Nsg10
Vlog
p35
sg11
Vticket
p36
sg13
Vticket
p37
sg15
V1
p38
sg17
g18
sg19
Nsg20
I0
sg21
(lp39
sg23
I20
sg24
I0
sbtp40
a(I2002
(imakesets
aset
p41
(dp42
g3
I0
sg4
VZach
p43
sg5
Vhas
p44
sg7
I2002
sg8
I2
sg9
Nsg10
Nsg11
Vticket
p45
sg13
Vticket
p46
sg15
g38
sg17
S'do'
p47
sg19
Nsg20
I0
sg21
(lp48
sg23
I4
sg24
I0
sbtp49
a(I3003
(imakesets
aset
p50
(dp51
g3
I0
sg4
VZach
p52
sg5
Vbuy
p53
sg7
I3003
sg8
I3
sg9
Vmore
p54
sg10
Nsg11
Vtickets
p55
sg13
Vticket
p56
sg15
S'x'
p57
sg17
g47
sg19
Nsg20
I0
sg21
(lp58
sg23
I4
sg24
I0
sbtp59
a.