(lp0
(I1002
(imakesets
aset
p1
(dp2
S'subset'
p3
I0
sS'container'
p4
VShe
p5
sS'verbs'
p6
Vfound
p7
sS'idx'
p8
I1002
sS'origs'
p9
I1
sS'adjs'
p10
NsS'contains'
p11
Vscarf
p12
sS'surface'
p13
Vboxes
p14
sS'entity'
p15
Vbox
p16
sS'num'
p17
V3
p18
sS'role'
p19
S'do'
p20
sS'location'
p21
NsS'compound'
p22
I0
sS'subtypes'
p23
(lp24
sS'widx'
p25
I4
sS'type_failure'
p26
I0
sbtp27
a(I1003
(imakesets
aset
p28
(dp29
g3
I0
sg4
Vbox
p30
sg6
Nsg8
I1003
sg9
I1
sg10
Nsg11
Nsg13
Vscarves
p31
sg15
g12
sg17
g18
sg19
S'subj'
p32
sg21
Nsg22
I0
sg23
(lp33
sg25
I14
sg26
I0
sbtp34
a(I1015
(imakesets
aset
p35
(dp36
g3
I0
sg4
Nsg6
Vfind
p37
sg8
I1015
sg9
I1
sg10
Nsg11
Nsg13
Vmittens
p38
sg15
Vmitten
p39
sg17
V4
p40
sg19
S'other'
p41
sg21
Nsg22
I0
sg23
(lp42
sg25
I17
sg26
I0
sbtp43
a(I2002
(imakesets
aset
p44
(dp45
g3
I0
sg4
Nsg6
Vdo have
p46
sg8
I2002
sg9
I2
sg10
Nsg11
Nsg13
Vpieces
p47
sg15
Vpiece
p48
sg17
S'x'
p49
sg19
g41
sg21
Nsg22
I0
sg23
(lp50
sg25
I3
sg26
I0
sbtp51
a.