(lp0
(I3
(imakesets
aset
p1
(dp2
S'subset'
p3
I0
sS'container'
p4
Vcar
p5
sS'verbs'
p6
Vgets
p7
sS'idx'
p8
I3
sS'origs'
p9
I0
sS'adjs'
p10
NsS'contains'
p11
NsS'surface'
p12
Vmiles
p13
sS'entity'
p14
Vmile
p15
sS'num'
p16
V20
p17
sS'role'
p18
S'do'
p19
sS'location'
p20
NsS'compound'
p21
I0
sS'subtypes'
p22
(lp23
sS'widx'
p24
I5
sS'type_failure'
p25
I0
sbtp26
a(I1002
(imakesets
aset
p27
(dp28
g3
I0
sg4
VI
p29
sg6
Vdrive
p30
sg8
I1002
sg9
I1
sg10
Nsg11
Nsg12
Vmiles
p31
sg14
Vmile
p32
sg16
S'x'
p33
sg18
g19
sg20
Nsg21
I0
sg22
(lp34
sg24
I3
sg25
I0
sbtp35
a(I1007
(imakesets
aset
p36
(dp37
g3
I0
sg4
Nsg6
Vdrive
p38
sg8
I1007
sg9
I1
sg10
Nsg11
Nsg12
Vgallons
p39
sg14
Vgallon
p40
sg16
V5
p41
sg18
S'other'
p42
sg20
Nsg21
I0
sg22
(lp43
sg24
I9
sg25
I0
sbtp44
a.