(lp0
(I2
(imakesets
aset
p1
(dp2
S'subset'
p3
I0
sS'container'
p4
Vgame
p5
sS'verbs'
p6
NsS'idx'
p7
I2
sS'origs'
p8
I0
sS'adjs'
p9
NsS'contains'
p10
NsS'surface'
p11
Vfriends
p12
sS'entity'
p13
Vfriend
p14
sS'num'
p15
V8
p16
sS'role'
p17
S'subj'
p18
sS'location'
p19
NsS'compound'
p20
I0
sS'subtypes'
p21
(lp22
sS'widx'
p23
I4
sS'type_failure'
p24
I0
sbtp25
a(I10
(imakesets
aset
p26
(dp27
g3
I0
sg4
Nsg6
Vplay join
p28
sg7
I10
sg8
I0
sg9
Vmore
p29
sg10
Vlife
p30
sg11
Vplayers
p31
sg13
Vplayer
p32
sg15
V2
p33
sg17
g18
sg19
Nsg20
I0
sg21
(lp34
sg23
I13
sg24
I0
sbtp35
a(I11
(imakesets
aset
p36
(dp37
g3
I0
sg4
Vplayer
p38
sg6
Vhad
p39
sg7
I11
sg8
I1
sg9
Nsg10
Nsg11
Vlives
p40
sg13
g30
sg15
V6
p41
sg17
S'do'
p42
sg19
Nsg20
I0
sg21
(lp43
sg23
I6
sg24
I0
sbtp44
a(I1009
(imakesets
aset
p45
(dp46
g3
I0
sg4
Nsg6
Vhave do have
p47
sg7
I1009
sg8
I1
sg9
Nsg10
Nsg11
Vlives
p48
sg13
Vlife
p49
sg15
S'x'
p50
sg17
S'other'
p51
sg19
Nsg20
I0
sg21
(lp52
sg23
I10
sg24
I0
sbtp53
a.