(lp0
(I1002
(imakesets
aset
p1
(dp2
S'subset'
p3
I0
sS'container'
p4
VHe
p5
sS'verbs'
p6
Vhad
p7
sS'idx'
p8
I1002
sS'origs'
p9
I1
sS'adjs'
p10
NsS'contains'
p11
Vcoin
p12
sS'surface'
p13
Vpiles
p14
sS'entity'
p15
Vpile
p16
sS'num'
p17
V2
p18
sS'role'
p19
S'do'
p20
sS'location'
p21
NsS'compound'
p22
I0
sS'subtypes'
p23
(lp24
sS'widx'
p25
I4
sS'type_failure'
p26
I0
sbtp27
a(I1003
(imakesets
aset
p28
(dp29
g3
I0
sg4
Vpile
p30
sg6
Vhad
p31
sg8
I1003
sg9
I2
sg10
Nsg11
Nsg13
Vcoins
p32
sg15
g12
sg17
V5
p33
sg19
g20
sg21
Vit
p34
sg22
I0
sg23
(lp35
sg25
I6
sg26
I0
sbtp36
a(I1007
(imakesets
aset
p37
(dp38
g3
I0
sg4
Nsg6
Vhave
p39
sg8
I1007
sg9
I1
sg10
Nsg11
Nsg13
Vpiles
p40
sg15
Vpile
p41
sg17
V4
p42
sg19
S'other'
p43
sg21
Nsg22
I0
sg23
(lp44
sg25
I9
sg26
I0
sbtp45
a(I2011
(imakesets
aset
p46
(dp47
g3
I0
sg4
Nsg6
Vhave do have
p48
sg8
I2011
sg9
I2
sg10
Nsg11
Nsg13
Vcoins
p49
sg15
Vcoin
p50
sg17
S'x'
p51
sg19
g43
sg21
Nsg22
I0
sg23
(lp52
sg25
I12
sg26
I0
sbtp53
a.