(lp0
(I9
(imakesets
aset
p1
(dp2
S'subset'
p3
I0
sS'container'
p4
NsS'verbs'
p5
Vride
p6
sS'idx'
p7
I9
sS'origs'
p8
I0
sS'adjs'
p9
NsS'contains'
p10
NsS'surface'
p11
Vtimes
p12
sS'entity'
p13
VOliver
p14
sS'num'
p15
V7
p16
sS'role'
p17
S'other'
p18
sS'location'
p19
NsS'compound'
p20
I0
sS'subtypes'
p21
(lp22
sS'widx'
p23
I11
sS'type_failure'
p24
I0
sbtp25
a(I15
(imakesets
aset
p26
(dp27
g3
I0
sg4
Nsg5
g6
sg7
I15
sg8
I0
sg9
Nsg10
Nsg11
Vtimes
p28
sg13
g14
sg15
V3
p29
sg17
g18
sg19
Nsg20
I0
sg21
(lp30
sg23
I17
sg24
I0
sbtp31
a(I1001
(imakesets
aset
p32
(dp33
g3
I0
sg4
Nsg5
Vuse
p34
sg7
I1001
sg8
I1
sg9
Nsg10
Nsg11
Vtickets
p35
sg13
Vticket
p36
sg15
g29
sg17
g18
sg19
Nsg20
I0
sg21
(lp37
sg23
I3
sg24
I0
sbtp38
a(I1009
(imakesets
aset
p39
(dp40
g3
I0
sg4
g14
sg5
Vuse
p41
sg7
I1009
sg8
I1
sg9
Nsg10
Nsg11
Vtickets
p42
sg13
Vticket
p43
sg15
S'x'
p44
sg17
S'do'
p45
sg19
Nsg20
I0
sg21
(lp46
sg23
I10
sg24
I0
sbtp47
a.