(lp0
(I1003
(imakesets
aset
p1
(dp2
S'subset'
p3
I0
sS'container'
p4
Vtablespoon
p5
sS'verbs'
p6
NsS'idx'
p7
I1003
sS'origs'
p8
I1
sS'adjs'
p9
NsS'contains'
p10
Vtablespoon
p11
sS'surface'
p12
Vtablespoon
p13
sS'entity'
p14
g5
sS'num'
p15
V0.6666666666666666
p16
sS'role'
p17
S'other'
p18
sS'location'
p19
NsS'compound'
p20
I0
sS'subtypes'
p21
(lp22
sS'widx'
p23
I6
sS'type_failure'
p24
I0
sbtp25
a(I1004
(imakesets
aset
p26
(dp27
g3
I0
sg4
g11
sg6
Nsg7
I1004
sg8
I1
sg9
Nsg10
Nsg12
Vtablespoon
p28
sg14
g11
sg15
V0.5
p29
sg17
g18
sg19
Nsg20
I0
sg21
(lp30
sg23
I13
sg24
I0
sbtp31
a(I2003
(imakesets
aset
p32
(dp33
g3
I0
sg4
Nsg6
Vuse
p34
sg7
I2003
sg8
I2
sg9
Nsg10
Nsg12
g28
sg14
g11
sg15
S'x'
p35
sg17
g18
sg19
Nsg20
I0
sg21
(lp36
sg23
I4
sg24
I0
sbtp37
a.