(lp0
(I4
(imakesets
aset
p1
(dp2
S'subset'
p3
I0
sS'container'
p4
NsS'verbs'
p5
Vspend go eat
p6
sS'idx'
p7
I4
sS'origs'
p8
I0
sS'adjs'
p9
NsS'contains'
p10
NsS'surface'
p11
Vbudget
p12
sS'entity'
p13
Vbudget
p14
sS'num'
p15
V0.6
p16
sS'role'
p17
S'other'
p18
sS'location'
p19
Vgroceries
p20
sS'compound'
p21
I0
sS'subtypes'
p22
(lp23
sS'widx'
p24
I8
sS'type_failure'
p25
I0
sbtp26
a(I12
(imakesets
aset
p27
(dp28
g3
I0
sg4
Nsg5
Vspend go eat
p29
sg7
I12
sg8
I0
sg9
Nsg10
Nsg11
g12
sg13
g14
sg15
V0.2
p30
sg17
g18
sg19
Nsg21
I0
sg22
(lp31
sg24
I13
sg25
I0
sbtp32
a(I1000
(imakesets
aset
p33
(dp34
g3
I0
sg4
Nsg5
Nsg7
I1000
sg8
I10
sg9
Nsg10
Nsg11
S'UNKNOWN'
p35
sg13
g35
sg15
S'x'
p36
sg17
g18
sg19
Nsg21
I0
sg22
(lp37
sg24
I1
sg25
I0
sbtp38
a.