(lp0
(I2
(imakesets
aset
p1
(dp2
S'subset'
p3
I0
sS'container'
p4
VRobin
p5
sS'verbs'
p6
Vuploaded
p7
sS'idx'
p8
I2
sS'origs'
p9
I0
sS'adjs'
p10
NsS'contains'
p11
NsS'surface'
p12
Vpictures
p13
sS'entity'
p14
Vpicture
p15
sS'num'
p16
V35
p17
sS'role'
p18
S'do'
p19
sS'location'
p20
NsS'compound'
p21
I0
sS'subtypes'
p22
(lp23
sS'widx'
p24
I4
sS'type_failure'
p25
I0
sbtp26
a(I8
(imakesets
aset
p27
(dp28
g3
I0
sg4
Nsg6
Vupload
p29
sg8
I8
sg9
I0
sg10
Nsg11
Nsg12
g13
sg14
g15
sg16
V5
p30
sg18
S'other'
p31
sg20
Nsg21
I0
sg22
(lp32
sg24
I9
sg25
I0
sbtp33
a(I1006
(imakesets
aset
p34
(dp35
g3
I0
sg4
Nsg6
Vsort
p36
sg8
I1006
sg9
I1
sg10
Vdifferent
p37
sg11
Vpicture
p38
sg12
Valbums
p39
sg14
Valbum
p40
sg16
g30
sg18
g31
sg20
Nsg21
I0
sg22
(lp41
sg24
I9
sg25
I0
sbtp42
a(I1007
(imakesets
aset
p43
(dp44
g3
I0
sg4
Valbum
p45
sg6
Nsg8
I1007
sg9
I1
sg10
Nsg11
Nsg12
Vpictures
p46
sg14
g38
sg16
S'x'
p47
sg18
S'subj'
p48
sg20
Nsg21
I0
sg22
(lp49
sg24
I22
sg25
I0
sbtp50
a.