(lp0
(I6
(imakesets
aset
p1
(dp2
S'subset'
p3
I0
sS'container'
p4
Vteam
p5
sS'verbs'
p6
Vhad
p7
sS'idx'
p8
I6
sS'origs'
p9
I0
sS'adjs'
p10
Vnew
p11
sS'contains'
p12
NsS'surface'
p13
Vplayers
p14
sS'entity'
p15
Vplayer
p16
sS'num'
p17
V48
p18
sS'role'
p19
S'do'
p20
sS'location'
p21
NsS'compound'
p22
I0
sS'subtypes'
p23
(lp24
sS'widx'
p25
I9
sS'type_failure'
p26
I0
sbtp27
a(I10
(imakesets
aset
p28
(dp29
g3
I0
sg4
Nsg6
Vreturn
p30
sg8
I10
sg9
I0
sg10
Vreturning
p31
sg12
Nsg13
Vplayers
p32
sg15
Vplayer
p33
sg17
V6
p34
sg19
S'other'
p35
sg21
Nsg22
I0
sg23
(lp36
sg25
I13
sg26
I0
sbtp37
a(I1008
(imakesets
aset
p38
(dp39
g3
I0
sg4
Vgroup
p40
sg6
Nsg8
I1008
sg9
I1
sg10
Nsg12
Nsg13
Vplayers
p41
sg15
Vplayer
p42
sg17
g34
sg19
g35
sg21
Vgroup
p43
sg22
I0
sg23
(lp44
sg25
I10
sg26
I0
sbtp45
a(I1011
(imakesets
aset
p46
(dp47
g3
I0
sg4
Nsg6
Vput
p48
sg8
I1011
sg9
I1
sg10
Nsg12
Nsg13
Vgroup
p49
sg15
g40
sg17
S'x'
p50
sg19
g35
sg21
Nsg22
I0
sg23
(lp51
sg25
I13
sg26
I0
sbtp52
a.