(lp0
(I5
(imakesets
aset
p1
(dp2
S'subset'
p3
I0
sS'container'
p4
NsS'verbs'
p5
Vplay win
p6
sS'idx'
p7
I5
sS'origs'
p8
I0
sS'adjs'
p9
NsS'contains'
p10
NsS'surface'
p11
Vgames
p12
sS'entity'
p13
Vgame
p14
sS'num'
p15
V75
p16
sS'role'
p17
S'other'
p18
sS'location'
p19
NsS'compound'
p20
I0
sS'subtypes'
p21
(lp22
sS'widx'
p23
I7
sS'type_failure'
p24
I0
sbtp25
a(I9
(imakesets
aset
p26
(dp27
g3
I0
sg4
Nsg5
Vplay win
p28
sg7
I9
sg8
I0
sg9
Nsg10
Nsg11
g12
sg13
g14
sg15
V55
p29
sg17
g18
sg19
Nsg20
I0
sg21
(lp30
sg23
I10
sg24
I0
sbtp31
a(I1000
(imakesets
aset
p32
(dp33
g3
I0
sg4
Nsg5
Nsg7
I1000
sg8
I10
sg9
Nsg10
Nsg11
S'UNKNOWN'
p34
sg13
g34
sg15
S'x'
p35
sg17
g18
sg19
Nsg20
I0
sg21
(lp36
sg23
I1
sg24
I0
sbtp37
a.