(lp0
(I1005
(imakesets
aset
p1
(dp2
S'subset'
p3
I0
sS'container'
p4
Vfoot
p5
sS'verbs'
p6
NsS'idx'
p7
I1005
sS'origs'
p8
I1
sS'adjs'
p9
NsS'contains'
p10
Vfoot
p11
sS'surface'
p12
Vfoot
p13
sS'entity'
p14
g5
sS'num'
p15
V0.8333333333333334
p16
sS'role'
p17
S'other'
p18
sS'location'
p19
NsS'compound'
p20
I0
sS'subtypes'
p21
(lp22
sS'widx'
p23
I8
sS'type_failure'
p24
I0
sbtp25
a(I1006
(imakesets
aset
p26
(dp27
g3
I0
sg4
g11
sg6
Nsg7
I1006
sg8
I1
sg9
Vtall
p28
sg10
Nsg12
Vfoot
p29
sg14
g11
sg15
V0.5
p30
sg17
g18
sg19
Nsg20
I0
sg21
(lp31
sg23
I18
sg24
I0
sbtp32
a(I2006
(imakesets
aset
p33
(dp34
g3
I0
sg4
Nsg6
Vbe
p35
sg7
I2006
sg8
I2
sg9
Nsg10
Nsg12
Vsandcastle
p36
sg14
Vsandcastle
p37
sg15
S'x'
p38
sg17
g18
sg19
Nsg20
I0
sg21
(lp39
sg23
I7
sg24
I0
sbtp40
a.