(lp0
(I16
(imakesets
aset
p1
(dp2
S'subset'
p3
I0
sS'container'
p4
Vtime
p5
sS'verbs'
p6
Vcarry
p7
sS'idx'
p8
I16
sS'origs'
p9
I0
sS'adjs'
p10
NsS'contains'
p11
NsS'surface'
p12
Vtrays
p13
sS'entity'
p14
Vtray
p15
sS'num'
p16
V9
p17
sS'role'
p18
S'do'
p19
sS'location'
p20
NsS'compound'
p21
I0
sS'subtypes'
p22
(lp23
sS'widx'
p24
I18
sS'type_failure'
p25
I0
sbtp26
a(I1006
(imakesets
aset
p27
(dp28
g3
I0
sg4
Vtable
p29
sg6
Vpick
p30
sg8
I1006
sg9
I1
sg10
Nsg11
Nsg12
Vtrays
p31
sg14
Vtray
p32
sg16
V17
p33
sg18
g19
sg20
Nsg21
I0
sg22
(lp34
sg24
I8
sg25
I0
sbtp35
a(I1012
(imakesets
aset
p36
(dp37
g3
I0
sg4
Nsg6
Vpick make
p38
sg8
I1012
sg9
I1
sg10
Nsg11
Nsg12
Vtrays
p39
sg14
Vtray
p40
sg16
V55
p41
sg18
S'other'
p42
sg20
Nsg21
I0
sg22
(lp43
sg24
I14
sg25
I0
sbtp44
a(I1019
(imakesets
aset
p45
(dp46
g3
I0
sg4
VDave
p47
sg6
Vmake
p48
sg8
I1019
sg9
I1
sg10
Nsg11
Nsg12
Vtrips
p49
sg14
Vtrip
p50
sg16
S'x'
p51
sg18
g19
sg20
Nsg21
I0
sg22
(lp52
sg24
I20
sg25
I0
sbtp53
a.