(lp0
(I1003
(imakesets
aset
p1
(dp2
S'subset'
p3
I0
sS'container'
p4
Vnecklace
p5
sS'verbs'
p6
Vhas
p7
sS'idx'
p8
I1003
sS'origs'
p9
I1
sS'adjs'
p10
Vblue
p11
sS'contains'
p12
NsS'surface'
p13
Vbeads
p14
sS'entity'
p15
Vbead
p16
sS'num'
p17
V6
p18
sS'role'
p19
S'do'
p20
sS'location'
p21
NsS'compound'
p22
I0
sS'subtypes'
p23
(lp24
sS'widx'
p25
I6
sS'type_failure'
p26
I0
sbtp27
a(I1007
(imakesets
aset
p28
(dp29
g3
I0
sg4
Nsg6
Vhave
p30
sg8
I1007
sg9
I1
sg10
Vwhite
p31
sg12
Nsg13
Vbeads
p32
sg15
Vbead
p33
sg17
V54
p34
sg19
S'other'
p35
sg21
Nsg22
I0
sg23
(lp36
sg25
I10
sg26
I0
sbtp37
a(I2000
(imakesets
aset
p38
(dp39
g3
I0
sg4
Nsg6
Nsg8
I2000
sg9
I10
sg10
Nsg12
Nsg13
S'UNKNOWN'
p40
sg15
g40
sg17
S'x'
p41
sg19
g35
sg21
Nsg22
I0
sg23
(lp42
sg25
I1
sg26
I0
sbtp43
a.