(lp0
(I1001
(imakesets
aset
p1
(dp2
S'subset'
p3
I0
sS'container'
p4
NsS'verbs'
p5
Vrecycle earn
p6
sS'idx'
p7
I1001
sS'origs'
p8
I1
sS'adjs'
p9
NsS'contains'
p10
NsS'surface'
p11
Vpounds
p12
sS'entity'
p13
Vpound
p14
sS'num'
p15
V3
p16
sS'role'
p17
S'other'
p18
sS'location'
p19
NsS'compound'
p20
I0
sS'subtypes'
p21
(lp22
sS'widx'
p23
I4
sS'type_failure'
p24
I0
sbtp25
a(I1008
(imakesets
aset
p26
(dp27
g3
I0
sg4
Vthey
p28
sg5
Vearned
p29
sg7
I1008
sg8
I1
sg9
Nsg10
Nsg11
Vpoint
p30
sg13
Vpoint
p31
sg15
S'x'
p32
sg17
S'do'
p33
sg19
Nsg20
I0
sg21
(lp34
sg23
I10
sg24
I0
sbtp35
a(I2003
(imakesets
aset
p36
(dp37
g3
I0
sg4
VHaley
p38
sg5
Vrecycled
p39
sg7
I2003
sg8
I2
sg9
Nsg10
Nsg11
Vpounds
p40
sg13
Vpound
p41
sg15
V11
p42
sg17
g33
sg19
Nsg20
I0
sg21
(lp43
sg23
I5
sg24
I0
sbtp44
a(I2009
(imakesets
aset
p45
(dp46
g3
I0
sg4
Nsg5
Vrecycled
p47
sg7
I2009
sg8
I2
sg9
Nsg10
Nsg11
Vpounds
p48
sg13
Vpound
p49
sg15
V16
p50
sg17
g33
sg19
Nsg20
I0
sg21
(lp51
sg23
I11
sg24
I0
sbtp52
a.