(lp0
(I3
(imakesets
aset
p1
(dp2
S'subset'
p3
I0
sS'container'
p4
NsS'verbs'
p5
Vhave
p6
sS'idx'
p7
I3
sS'origs'
p8
I0
sS'adjs'
p9
NsS'contains'
p10
NsS'surface'
p11
Vwomen
p12
sS'entity'
p13
Vwoman
p14
sS'num'
p15
V21
p16
sS'role'
p17
S'other'
p18
sS'location'
p19
NsS'compound'
p20
I0
sS'subtypes'
p21
(lp22
sS'widx'
p23
I5
sS'type_failure'
p24
I0
sbtp25
a(I8
(imakesets
aset
p26
(dp27
g3
I0
sg4
Nsg5
g6
sg7
I8
sg8
I0
sg9
Vother
p28
sg10
Nsg11
Vmagazines
p29
sg13
Vmagazine
p30
sg15
V7
p31
sg17
g18
sg19
Nsg20
I0
sg21
(lp32
sg23
I11
sg24
I0
sbtp33
a(I1000
(imakesets
aset
p34
(dp35
g3
I0
sg4
Nsg5
Nsg7
I1000
sg8
I10
sg9
Nsg10
Nsg11
S'UNKNOWN'
p36
sg13
g36
sg15
S'x'
p37
sg17
g18
sg19
Nsg20
I0
sg21
(lp38
sg23
I1
sg24
I0
sbtp39
a.