(lp0
(I2
(imakesets
aset
p1
(dp2
S'subset'
p3
I0
sS'container'
p4
NsS'verbs'
p5
Vtry
p6
sS'idx'
p7
I2
sS'origs'
p8
I0
sS'adjs'
p9
NsS'contains'
p10
NsS'surface'
p11
Vgirls
p12
sS'entity'
p13
Vgirl
p14
sS'num'
p15
V30
p16
sS'role'
p17
S'subj'
p18
sS'location'
p19
NsS'compound'
p20
I0
sS'subtypes'
p21
(lp22
sS'widx'
p23
I4
sS'type_failure'
p24
I0
sbtp25
a(I5
(imakesets
aset
p26
(dp27
g3
I0
sg4
Nsg5
g6
sg7
I5
sg8
I0
sg9
Nsg10
Nsg11
Vboys
p28
sg13
Vboy
p29
sg15
V36
p30
sg17
S'other'
p31
sg19
Nsg20
I0
sg21
(lp32
sg23
I7
sg24
I0
sbtp33
a(I1002
(imakesets
aset
p34
(dp35
g3
I0
sg4
Nsg5
Vget call make
p36
sg7
I1002
sg8
I2
sg9
Nsg10
Nsg11
g28
sg13
g29
sg15
V10
p37
sg17
g31
sg19
Nsg20
I0
sg21
(lp38
sg23
I3
sg24
I0
sbtp39
a(I1011
(imakesets
aset
p40
(dp41
g3
I0
sg4
Nsg5
Vget call make
p42
sg7
I1011
sg8
I1
sg9
Nsg10
Nsg11
Vstudents
p43
sg13
Vstudent
p44
sg15
S'x'
p45
sg17
g18
sg19
Nsg20
I0
sg21
(lp46
sg23
I12
sg24
I0
sbtp47
a.