(lp0
(I7
(imakesets
aset
p1
(dp2
S'subset'
p3
I0
sS'container'
p4
NsS'verbs'
p5
Vorganize
p6
sS'idx'
p7
I7
sS'origs'
p8
I0
sS'adjs'
p9
NsS'contains'
p10
NsS'surface'
p11
Vbinder
p12
sS'entity'
p13
Vbinder
p14
sS'num'
p15
V3
p16
sS'role'
p17
S'other'
p18
sS'location'
p19
NsS'compound'
p20
I0
sS'subtypes'
p21
(lp22
sS'widx'
p23
I9
sS'type_failure'
p24
I0
sbtp25
a(I12
(imakesets
aset
p26
(dp27
g3
I0
sg4
Nsg5
g6
sg7
I12
sg8
I0
sg9
Nsg10
Nsg11
Vpage
p28
sg13
Vpage
p29
sg15
S'x'
p30
sg17
g18
sg19
Nsg20
I0
sg21
(lp31
sg23
I14
sg24
I0
sbtp32
a(I1003
(imakesets
aset
p33
(dp34
g3
I0
sg4
Vhe
p35
sg5
Vhad
p36
sg7
I1003
sg8
I1
sg9
Vnew
p37
sg10
Nsg11
Vcards
p38
sg13
Vcard
p39
sg15
V2
p40
sg17
S'do'
p41
sg19
Nsg20
I0
sg21
(lp42
sg23
I6
sg24
I0
sbtp43
a(I1007
(imakesets
aset
p44
(dp45
g3
I0
sg4
Nsg5
Vput use
p46
sg7
I1007
sg8
I1
sg9
Vold
p47
sg10
Nsg11
Vcards
p48
sg13
Vcard
p49
sg15
V10
p50
sg17
g18
sg19
Nsg20
I0
sg21
(lp51
sg23
I10
sg24
I0
sbtp52
a.