(lp0
(I4
(imakesets
aset
p1
(dp2
S'subset'
p3
I0
sS'container'
p4
NsS'verbs'
p5
Vdecide start
p6
sS'idx'
p7
I4
sS'origs'
p8
I0
sS'adjs'
p9
NsS'contains'
p10
NsS'surface'
p11
Vmanagers
p12
sS'entity'
p13
Vmanager
p14
sS'num'
p15
V23
p16
sS'role'
p17
S'subj'
p18
sS'location'
p19
NsS'compound'
p20
I0
sS'subtypes'
p21
(lp22
sS'widx'
p23
I6
sS'type_failure'
p24
I0
sbtp25
a(I7
(imakesets
aset
p26
(dp27
g3
I0
sg4
Nsg5
Vdecide start
p28
sg7
I7
sg8
I0
sg9
Nsg10
Nsg11
Vemployees
p29
sg13
Vemployee
p30
sg15
V7
p31
sg17
S'other'
p32
sg19
Nsg20
I0
sg21
(lp33
sg23
I9
sg24
I0
sbtp34
a(I1004
(imakesets
aset
p35
(dp36
g3
I0
sg4
Nsg5
Vsplit
p37
sg7
I1004
sg8
I1
sg9
Nsg10
Vpeople
p38
sg11
Vteams
p39
sg13
Vteam
p40
sg15
V6
p41
sg17
g32
sg19
Nsg20
I0
sg21
(lp42
sg23
I6
sg24
I0
sbtp43
a(I1005
(imakesets
aset
p44
(dp45
g3
I0
sg4
Vteam
p46
sg5
Nsg7
I1005
sg8
I1
sg9
Nsg10
Nsg11
Vpeople
p47
sg13
g38
sg15
S'x'
p48
sg17
g18
sg19
Nsg20
I0
sg21
(lp49
sg23
I9
sg24
I0
sbtp50
a.