(lp0
(I8
(imakesets
aset
p1
(dp2
S'subset'
p3
I0
sS'container'
p4
NsS'verbs'
p5
Vselect
p6
sS'idx'
p7
I8
sS'origs'
p8
I0
sS'adjs'
p9
NsS'contains'
p10
NsS'surface'
p11
Vpresident
p12
sS'entity'
p13
Vpresident
p14
sS'num'
p15
V4
p16
sS'role'
p17
S'do'
p18
sS'location'
p19
NsS'compound'
p20
I0
sS'subtypes'
p21
(lp22
sS'widx'
p23
I10
sS'type_failure'
p24
I0
sbtp25
a(I1004
(imakesets
aset
p26
(dp27
g3
I0
sg4
Nsg5
Vvote
p28
sg7
I1004
sg8
I1
sg9
Nsg10
Nsg11
Vmembers
p29
sg13
Vmember
p30
sg15
V20
p31
sg17
S'other'
p32
sg19
Nsg20
I0
sg21
(lp33
sg23
I6
sg24
I0
sbtp34
a(I2000
(imakesets
aset
p35
(dp36
g3
I0
sg4
Nsg5
Nsg7
I2000
sg8
I10
sg9
Nsg10
Nsg11
S'UNKNOWN'
p37
sg13
g37
sg15
S'x'
p38
sg17
g32
sg19
Nsg20
I0
sg21
(lp39
sg23
I1
sg24
I0
sbtp40
a.