(lp0
(I4
(imakesets
aset
p1
(dp2
S'subset'
p3
I0
sS'container'
p4
VAmy
p5
sS'verbs'
p6
Vhad
p7
sS'idx'
p8
I4
sS'origs'
p9
I0
sS'adjs'
p10
NsS'contains'
p11
NsS'surface'
p12
Vproblems
p13
sS'entity'
p14
Vproblem
p15
sS'num'
p16
V18
p17
sS'role'
p18
S'do'
p19
sS'location'
p20
NsS'compound'
p21
I0
sS'subtypes'
p22
(lp23
sS'widx'
p24
I7
sS'type_failure'
p25
I0
sbtp26
a(I8
(imakesets
aset
p27
(dp28
g3
I0
sg4
Nsg6
Vhave
p29
sg8
I8
sg9
I0
sg10
Nsg11
Nsg12
Vproblems
p30
sg14
Vproblem
p31
sg16
V6
p32
sg18
S'other'
p33
sg20
Nsg21
I0
sg22
(lp34
sg24
I11
sg25
I0
sbtp35
a(I1004
(imakesets
aset
p36
(dp37
g3
I0
sg4
Vhour
p38
sg6
Vfinish
p39
sg8
I1004
sg9
I1
sg10
Nsg11
Nsg12
Vproblems
p40
sg14
Vproblem
p41
sg16
V4
p42
sg18
g19
sg20
Nsg21
I0
sg22
(lp43
sg24
I6
sg25
I0
sbtp44
a(I1010
(imakesets
aset
p45
(dp46
g3
I0
sg4
Nsg6
Vfinish take finish
p47
sg8
I1010
sg9
I1
sg10
Nsg11
Nsg12
S'LENGTH'
p48
sg14
g48
sg16
S'x'
p49
sg18
g33
sg20
Nsg21
I0
sg22
(lp50
sg24
I11
sg25
I0
sbtp51
a.