(lp0
(I5
(imakesets
aset
p1
(dp2
S'subset'
p3
I0
sS'container'
p4
NsS'verbs'
p5
Vcook
p6
sS'idx'
p7
I5
sS'origs'
p8
I0
sS'adjs'
p9
NsS'contains'
p10
Vminute
p11
sS'surface'
p12
Vpotatoes
p13
sS'entity'
p14
Vpotato
p15
sS'num'
p16
V16
p17
sS'role'
p18
S'do'
p19
sS'location'
p20
NsS'compound'
p21
I0
sS'subtypes'
p22
(lp23
sS'widx'
p24
I7
sS'type_failure'
p25
I0
sbtp26
a(I6
(imakesets
aset
p27
(dp28
g3
I0
sg4
Vpotato
p29
sg5
Vtakes
p30
sg7
I6
sg8
I2
sg9
Nsg10
Nsg12
Vminutes
p31
sg14
g11
sg16
V5
p32
sg18
g19
sg20
Nsg21
I0
sg22
(lp33
sg24
I6
sg25
I0
sbtp34
a(I1004
(imakesets
aset
p35
(dp36
g3
I0
sg4
Nsg5
Vcook
p37
sg7
I1004
sg8
I2
sg9
Nsg10
Nsg12
g13
sg14
g15
sg16
V7
p38
sg18
S'other'
p39
sg20
Nsg21
I0
sg22
(lp40
sg24
I5
sg25
I0
sbtp41
a(I2010
(imakesets
aset
p42
(dp43
g3
I0
sg4
Nsg5
Vtake cook take cook
p44
sg7
I2010
sg8
I2
sg9
Nsg10
Nsg12
S'LENGTH'
p45
sg14
g45
sg16
S'x'
p46
sg18
g39
sg20
Nsg21
I0
sg22
(lp47
sg24
I11
sg25
I0
sbtp48
a.