(lp0
(I2
(imakesets
aset
p1
(dp2
S'subset'
p3
I0
sS'container'
p4
VJerry
p5
sS'verbs'
p6
Vhad
p7
sS'idx'
p8
I2
sS'origs'
p9
I0
sS'adjs'
p10
NsS'contains'
p11
NsS'surface'
p12
Vfigures
p13
sS'entity'
p14
Vfigure
p15
sS'num'
p16
V7
p17
sS'role'
p18
S'do'
p19
sS'location'
p20
NsS'compound'
p21
I0
sS'subtypes'
p22
(lp23
sS'widx'
p24
I5
sS'type_failure'
p25
I0
sbtp26
a(I8
(imakesets
aset
p27
(dp28
g3
I0
sg4
Vcollection
p29
sg6
Vneeded
p30
sg8
I8
sg9
I0
sg10
Nsg11
Nsg12
Vtotal
p31
sg14
Vtotal
p32
sg16
V16
p33
sg18
g19
sg20
Nsg21
I0
sg22
(lp34
sg24
I10
sg25
I0
sbtp35
a(I1005
(imakesets
aset
p36
(dp37
g3
I0
sg4
Vcost
p38
sg6
Nsg8
I1005
sg9
I1
sg10
Nsg11
Nsg12
V$
p39
sg14
Vmoney
p40
sg16
S'8.0'
p41
sg18
S'other'
p42
sg20
Nsg21
I0
sg22
(lp43
sg24
I5
sg25
I0
sbtp44
a(I1009
(imakesets
aset
p45
(dp46
g3
I0
sg4
Nsg6
Vfinish
p47
sg8
I1009
sg9
I1
sg10
Nsg11
Nsg12
Vmoney
p48
sg14
g40
sg16
S'x'
p49
sg18
g42
sg20
Nsg21
I0
sg22
(lp50
sg24
I10
sg25
I0
sbtp51
a.