(lp0
(I2
(imakesets
aset
p1
(dp2
S'subset'
p3
I0
sS'container'
p4
VNed
p5
sS'verbs'
p6
Vhad
p7
sS'idx'
p8
I2
sS'origs'
p9
I0
sS'adjs'
p10
NsS'contains'
p11
Vmoney
p12
sS'surface'
p13
Vgames
p14
sS'entity'
p15
Vgame
p16
sS'num'
p17
V15
p18
sS'role'
p19
S'do'
p20
sS'location'
p21
NsS'compound'
p22
I0
sS'subtypes'
p23
(lp24
sS'widx'
p25
I5
sS'type_failure'
p26
I0
sbtp27
a(I3
(imakesets
aset
p28
(dp29
g3
I0
sg4
Vgame
p30
sg6
Vearn
p31
sg8
I3
sg9
I1
sg10
Nsg11
Nsg13
Vmoney
p32
sg15
g12
sg17
S'x'
p33
sg19
g20
sg21
Nsg22
I0
sg23
(lp34
sg25
I16
sg26
I0
sbtp35
a(I6
(imakesets
aset
p36
(dp37
g3
I0
sg4
Nsg6
Vwork
p38
sg8
I6
sg9
I0
sg10
Nsg11
Nsg13
g14
sg15
g16
sg17
V6
p39
sg19
S'other'
p40
sg21
Nsg22
I0
sg23
(lp41
sg25
I7
sg26
I0
sbtp42
a(I1010
(imakesets
aset
p43
(dp44
g3
I0
sg4
Nsg6
Vwant sell work earn
p45
sg8
I1010
sg9
I1
sg10
Nsg11
Nsg13
V$
p46
sg15
g12
sg17
S'7.0'
p47
sg19
g40
sg21
Nsg22
I0
sg23
(lp48
sg25
I10
sg26
I0
sbtp49
a.