(lp0
(I0
(imakesets
aset
p1
(dp2
S'subset'
p3
I0
sS'container'
p4
Vshe
p5
sS'verbs'
p6
Vearn
p7
sS'idx'
p8
I0
sS'origs'
p9
I1
sS'adjs'
p10
NsS'contains'
p11
NsS'surface'
p12
Vmoney
p13
sS'entity'
p14
Vmoney
p15
sS'num'
p16
S'x'
p17
sS'role'
p18
S'do'
p19
sS'location'
p20
NsS'compound'
p21
I0
sS'subtypes'
p22
(lp23
sS'widx'
p24
I15
sS'type_failure'
p25
I0
sbtp26
a(I12
(imakesets
aset
p27
(dp28
g3
I0
sg4
Vsale
p29
sg6
Nsg8
I12
sg9
I0
sg10
Nsg11
Nsg12
Vdollars
p30
sg14
g15
sg16
S'7.0'
p31
sg18
S'other'
p32
sg20
Nsg21
I0
sg22
(lp33
sg24
I14
sg25
I0
sbtp34
a(I1004
(imakesets
aset
p35
(dp36
g3
I0
sg4
Nsg6
Vstart leave earn
p37
sg8
I1004
sg9
I1
sg10
Nsg11
Nsg12
Vroses
p38
sg14
Vrose
p39
sg16
V9
p40
sg18
g32
sg20
Nsg21
I0
sg22
(lp41
sg24
I6
sg25
I0
sbtp42
a(I1008
(imakesets
aset
p43
(dp44
g3
I0
sg4
Nsg6
Vhad
p45
sg8
I1008
sg9
I1
sg10
Nsg11
Nsg12
Vroses
p46
sg14
Vrose
p47
sg16
V4
p48
sg18
g19
sg20
Nsg21
I0
sg22
(lp49
sg24
I10
sg25
I0
sbtp50
a.