(lp0
(I4
(imakesets
aset
p1
(dp2
S'subset'
p3
I0
sS'container'
p4
Vbuilding
p5
sS'verbs'
p6
Vneeded
p7
sS'idx'
p8
I4
sS'origs'
p9
I0
sS'adjs'
p10
NsS'contains'
p11
S'LENGTH'
p12
sS'surface'
p13
Vwindows
p14
sS'entity'
p15
Vwindow
p16
sS'num'
p17
V14
p18
sS'role'
p19
S'do'
p20
sS'location'
p21
NsS'compound'
p22
I0
sS'subtypes'
p23
(lp24
sS'widx'
p25
I6
sS'type_failure'
p26
I0
sbtp27
a(I5
(imakesets
aset
p28
(dp29
g3
I0
sg4
Vwindow
p30
sg6
Nsg8
I5
sg9
I2
sg10
Nsg11
Nsg13
g12
sg15
g12
sg17
S'x'
p31
sg19
S'other'
p32
sg21
Nsg22
I0
sg23
(lp33
sg25
I12
sg26
I0
sbtp34
a(I1005
(imakesets
aset
p35
(dp36
g3
I0
sg4
Nsg6
Vinstall
p37
sg8
I1005
sg9
I2
sg10
Nsg11
Nsg13
g14
sg15
g16
sg17
V8
p38
sg19
g32
sg21
Nsg22
I0
sg23
(lp39
sg25
I6
sg26
I0
sbtp40
a(I2003
(imakesets
aset
p41
(dp42
g3
I0
sg4
Vit
p43
sg6
Vtakes
p44
sg8
I2003
sg9
I2
sg10
Nsg11
Nsg13
Vhours
p45
sg15
Vhour
p46
sg17
g38
sg19
g20
sg21
Nsg22
I0
sg23
(lp47
sg25
I5
sg26
I0
sbtp48
a.