(lp0
(I4
(imakesets
aset
p1
(dp2
S'subset'
p3
I0
sS'container'
p4
Vteam
p5
sS'verbs'
p6
Vhad
p7
sS'idx'
p8
I4
sS'origs'
p9
I0
sS'adjs'
p10
Vtotal
p11
sS'contains'
p12
Vpoint
p13
sS'surface'
p14
Vmembers
p15
sS'entity'
p16
Vmember
p17
sS'num'
p18
V14
p19
sS'role'
p20
S'do'
p21
sS'location'
p22
NsS'compound'
p23
I0
sS'subtypes'
p24
(lp25
sS'widx'
p26
I6
sS'type_failure'
p27
I0
sbtp28
a(I5
(imakesets
aset
p29
(dp30
g3
I0
sg4
Vmember
p31
sg6
Vscored
p32
sg8
I5
sg9
I1
sg10
Nsg12
Nsg14
Vpoints
p33
sg16
g13
sg18
V5
p34
sg20
g21
sg22
Nsg23
I0
sg24
(lp35
sg26
I10
sg27
I0
sbtp36
a(I12
(imakesets
aset
p37
(dp38
g3
I0
sg4
Nsg6
Vshow
p39
sg8
I12
sg9
I0
sg10
Nsg12
Nsg14
Vmembers
p40
sg16
Vmember
p41
sg18
V7
p42
sg20
S'subj'
p43
sg22
Nsg23
I0
sg24
(lp44
sg26
I14
sg27
I0
sbtp45
a(I1013
(imakesets
aset
p46
(dp47
g3
I0
sg4
Nsg6
Vshow score score
p48
sg8
I1013
sg9
I1
sg10
Nsg12
Nsg14
Vpoints
p49
sg16
Vpoint
p50
sg18
S'x'
p51
sg20
S'other'
p52
sg22
Nsg23
I0
sg24
(lp53
sg26
I14
sg27
I0
sbtp54
a.