(lp0
(I7
(imakesets
aset
p1
(dp2
S'subset'
p3
I0
sS'container'
p4
NsS'verbs'
p5
Vbe
p6
sS'idx'
p7
I7
sS'origs'
p8
I0
sS'adjs'
p9
NsS'contains'
p10
NsS'surface'
p11
Vpeople
p12
sS'entity'
p13
Vpeople
p14
sS'num'
p15
V8
p16
sS'role'
p17
S'subj'
p18
sS'location'
p19
Vattendance
p20
sS'compound'
p21
I0
sS'subtypes'
p22
(lp23
sS'widx'
p24
I9
sS'type_failure'
p25
I0
sbtp26
a(I1000
(imakesets
aset
p27
(dp28
g3
I0
sg4
Nsg5
Vbe
p29
sg7
I1000
sg8
I1
sg9
Nsg10
Nsg11
Vtimes
p30
sg13
Vtime
p31
sg15
V0.75
p32
sg17
g18
sg19
Nsg21
I0
sg22
(lp33
sg24
I2
sg25
I0
sbtp34
a(I2002
(imakesets
aset
p35
(dp36
g3
I0
sg4
Nsg5
Vbe
p37
sg7
I2002
sg8
I2
sg9
Nsg10
Nsg11
Vmanagers
p38
sg13
Vmanager
p39
sg15
S'x'
p40
sg17
g18
sg19
Nsg21
I0
sg22
(lp41
sg24
I3
sg25
I0
sbtp42
a.