(lp0
(I5
(imakesets
aset
p1
(dp2
S'subset'
p3
I0
sS'container'
p4
VAdam
p5
sS'verbs'
p6
Vbought
p7
sS'idx'
p8
I5
sS'origs'
p9
I0
sS'adjs'
p10
NsS'contains'
p11
Vdollar
p12
sS'surface'
p13
Vtickets
p14
sS'entity'
p15
Vticket
p16
sS'num'
p17
V10
p18
sS'role'
p19
S'do'
p20
sS'location'
p21
NsS'compound'
p22
I0
sS'subtypes'
p23
(lp24
sS'widx'
p25
I7
sS'type_failure'
p26
I0
sbtp27
a(I6
(imakesets
aset
p28
(dp29
g3
I0
sg4
Vticket
p30
sg6
Nsg8
I6
sg9
I2
sg10
Nsg11
Nsg13
Vdollars
p31
sg15
g12
sg17
V9
p32
sg19
S'other'
p33
sg21
Nsg22
I0
sg23
(lp34
sg25
I6
sg26
I0
sbtp35
a(I1007
(imakesets
aset
p36
(dp37
g3
I0
sg4
g5
sg6
Vhad
p38
sg8
I1007
sg9
I1
sg10
Nsg11
Nsg13
Vtickets
p39
sg15
Vticket
p40
sg17
V3
p41
sg19
g20
sg21
Nsg22
I0
sg23
(lp42
sg25
I9
sg26
I0
sbtp43
a(I2017
(imakesets
aset
p44
(dp45
g3
I0
sg4
Nsg6
Vspend ride
p46
sg8
I2017
sg9
I2
sg10
Nsg11
Nsg13
S'dollar'
p47
sg15
g47
sg17
S'x'
p48
sg19
g33
sg21
Nsg22
I0
sg23
(lp49
sg25
I18
sg26
I0
sbtp50
a.