(lp0
(I9
(imakesets
aset
p1
(dp2
S'subset'
p3
I0
sS'container'
p4
NsS'verbs'
p5
Vwin score total
p6
sS'idx'
p7
I9
sS'origs'
p8
I0
sS'adjs'
p9
NsS'contains'
p10
Vplayer
p11
sS'surface'
p12
Vpoints
p13
sS'entity'
p14
Vpoint
p15
sS'num'
p16
V41
p17
sS'role'
p18
S'subj'
p19
sS'location'
p20
NsS'compound'
p21
I0
sS'subtypes'
p22
(lp23
sS'widx'
p24
I11
sS'type_failure'
p25
I0
sbtp26
a(I10
(imakesets
aset
p27
(dp28
g3
I0
sg4
Vpoint
p29
sg5
Nsg7
I10
sg8
I1
sg9
Nsg10
Nsg12
Vplayers
p30
sg14
g11
sg16
S'x'
p31
sg18
g19
sg20
Nsg21
I0
sg22
(lp32
sg24
I18
sg25
I0
sbtp33
a(I1003
(imakesets
aset
p34
(dp35
g3
I0
sg4
Nsg5
Vscore score
p36
sg7
I1003
sg8
I1
sg9
Nsg10
Nsg12
Vpoints
p37
sg14
g29
sg16
V11
p38
sg18
S'other'
p39
sg20
Nsg21
I0
sg22
(lp40
sg24
I7
sg25
I0
sbtp41
a(I1011
(imakesets
aset
p42
(dp43
g3
I0
sg4
V11
p44
sg5
Vscored
p45
sg7
I1011
sg8
I1
sg9
Nsg10
Nsg12
Vpoints
p46
sg14
Vpoint
p47
sg16
V6
p48
sg18
S'do'
p49
sg20
Nsg21
I0
sg22
(lp50
sg24
I13
sg25
I0
sbtp51
a.