(lp0
(I1002
(imakesets
aset
p1
(dp2
S'subset'
p3
I0
sS'container'
p4
NsS'verbs'
p5
Vput take leave
p6
sS'idx'
p7
I1002
sS'origs'
p8
I1
sS'adjs'
p9
NsS'contains'
p10
NsS'surface'
p11
Vbook
p12
sS'entity'
p13
Vbook
p14
sS'num'
p15
V46
p16
sS'role'
p17
S'subj'
p18
sS'location'
p19
NsS'compound'
p20
I0
sS'subtypes'
p21
(lp22
sS'widx'
p23
I4
sS'type_failure'
p24
I0
sbtp25
a(I1012
(imakesets
aset
p26
(dp27
g3
I0
sg4
Nsg5
Vput take leave
p28
sg7
I1012
sg8
I2
sg9
Nsg10
Nsg11
Vrest
p29
sg13
Vrest
p30
sg15
V10
p31
sg17
S'other'
p32
sg19
Nsg20
I0
sg21
(lp33
sg23
I13
sg24
I0
sbtp34
a(I2004
(imakesets
aset
p35
(dp36
g3
I0
sg4
Vshelf
p37
sg5
Vfit
p38
sg7
I2004
sg8
I2
sg9
Nsg10
Nsg11
Vbooks
p39
sg13
Vbook
p40
sg15
V4
p41
sg17
S'do'
p42
sg19
Nsg20
I0
sg21
(lp43
sg23
I6
sg24
I0
sbtp44
a(I2007
(imakesets
aset
p45
(dp46
g3
I0
sg4
Nsg5
Vfit
p47
sg7
I2007
sg8
I2
sg9
Nsg10
Nsg11
Vshelf
p48
sg13
g37
sg15
S'x'
p49
sg17
g32
sg19
Nsg20
I0
sg21
(lp50
sg23
I9
sg24
I0
sbtp51
a.