(lp0
(I2
(imakesets
aset
p1
(dp2
S'subset'
p3
I0
sS'container'
p4
VIsabel
p5
sS'verbs'
p6
Vpicked
p7
sS'idx'
p8
I2
sS'origs'
p9
I0
sS'adjs'
p10
NsS'contains'
p11
Vflower
p12
sS'surface'
p13
Vflowers
p14
sS'entity'
p15
Vflower
p16
sS'num'
p17
V66
p18
sS'role'
p19
S'do'
p20
sS'location'
p21
NsS'compound'
p22
I0
sS'subtypes'
p23
(lp24
sS'widx'
p25
I4
sS'type_failure'
p26
I0
sbtp27
a(I3
(imakesets
aset
p28
(dp29
g3
I0
sg4
g12
sg6
Nsg8
I3
sg9
I1
sg10
Nsg11
Nsg13
Vflowers
p30
sg15
g12
sg17
V8
p31
sg19
S'other'
p32
sg21
Vone
p33
sg22
I0
sg23
(lp34
sg25
I7
sg26
I0
sbtp35
a(I2001
(imakesets
aset
p36
(dp37
g3
I0
sg4
Nsg6
Vwilt make
p38
sg8
I2001
sg9
I2
sg10
Nsg11
Nsg13
Vflowers
p39
sg15
Vflower
p40
sg17
V10
p41
sg19
g32
sg21
Nsg22
I0
sg23
(lp42
sg25
I5
sg26
I0
sbtp43
a(I2012
(imakesets
aset
p44
(dp45
g3
I0
sg4
Nsg6
Vwilt make
p46
sg8
I2012
sg9
I2
sg10
Nsg11
Nsg13
Vbouquets
p47
sg15
Vbouquet
p48
sg17
S'x'
p49
sg19
g32
sg21
Nsg22
I0
sg23
(lp50
sg25
I13
sg26
I0
sbtp51
a.