(lp0
(I2
(imakesets
aset
p1
(dp2
S'subset'
p3
I0
sS'container'
p4
NsS'verbs'
p5
Vtry
p6
sS'idx'
p7
I2
sS'origs'
p8
I0
sS'adjs'
p9
NsS'contains'
p10
NsS'surface'
p11
Vstudents
p12
sS'entity'
p13
Vstudent
p14
sS'num'
p15
V64
p16
sS'role'
p17
S'subj'
p18
sS'location'
p19
NsS'compound'
p20
I0
sS'subtypes'
p21
(lp22
sS'widx'
p23
I4
sS'type_failure'
p24
I0
sbtp25
a(I1001
(imakesets
aset
p26
(dp27
g3
I0
sg4
Nsg5
Vget pick put
p28
sg7
I1001
sg8
I2
sg9
Nsg10
Nsg11
g12
sg13
g14
sg15
V36
p29
sg17
S'other'
p30
sg19
Nsg20
I0
sg21
(lp31
sg23
I2
sg24
I0
sbtp32
a(I1017
(imakesets
aset
p33
(dp34
g3
I0
sg4
Nsg5
Vget pick put
p35
sg7
I1017
sg8
I1
sg9
Nsg10
Vstudent
p36
sg11
Vgroups
p37
sg13
Vgroup
p38
sg15
V4
p39
sg17
g30
sg19
Nsg20
I0
sg21
(lp40
sg23
I19
sg24
I0
sbtp41
a(I1018
(imakesets
aset
p42
(dp43
g3
I0
sg4
Vgroup
p44
sg5
Nsg7
I1018
sg8
I1
sg9
Nsg10
Nsg11
Vstudents
p45
sg13
g36
sg15
S'x'
p46
sg17
g18
sg19
Nsg20
I0
sg21
(lp47
sg23
I23
sg24
I0
sbtp48
a.