(lp0
(I3
(imakesets
aset
p1
(dp2
S'subset'
p3
I0
sS'container'
p4
Vwaiter
p5
sS'verbs'
p6
Vhad
p7
sS'idx'
p8
I3
sS'origs'
p9
I0
sS'adjs'
p10
NsS'contains'
p11
NsS'surface'
p12
Vcustomers
p13
sS'entity'
p14
Vcustomer
p15
sS'num'
p16
V21
p17
sS'role'
p18
S'do'
p19
sS'location'
p20
Vsection
p21
sS'compound'
p22
I0
sS'subtypes'
p23
(lp24
sS'widx'
p25
I5
sS'type_failure'
p26
I0
sbtp27
a(I1001
(imakesets
aset
p28
(dp29
g3
I0
sg4
Nsg6
Vleave
p30
sg8
I1001
sg9
I2
sg10
Nsg11
Nsg12
Vrest
p31
sg14
Vrest
p32
sg16
V12
p33
sg18
S'other'
p34
sg20
Nsg22
I0
sg23
(lp35
sg25
I2
sg26
I0
sbtp36
a(I1012
(imakesets
aset
p37
(dp38
g3
I0
sg4
Vtable
p39
sg6
Vhad
p40
sg8
I1012
sg9
I1
sg10
Nsg11
Nsg12
Vpeople
p41
sg14
Vpeople
p42
sg16
V3
p43
sg18
g19
sg20
Vtable
p44
sg22
I0
sg23
(lp45
sg25
I14
sg26
I0
sbtp46
a(I1015
(imakesets
aset
p47
(dp48
g3
I0
sg4
Nsg6
g30
sg8
I1015
sg9
I1
sg10
Nsg11
Nsg12
Vtable
p49
sg14
g39
sg16
S'x'
p50
sg18
g34
sg20
Nsg22
I0
sg23
(lp51
sg25
I17
sg26
I0
sbtp52
a.