(lp0
(I2
(imakesets
aset
p1
(dp2
S'subset'
p3
I0
sS'container'
p4
VWendy
p5
sS'verbs'
p6
Vuploaded
p7
sS'idx'
p8
I2
sS'origs'
p9
I0
sS'adjs'
p10
NsS'contains'
p11
NsS'surface'
p12
Vpictures
p13
sS'entity'
p14
Vpicture
p15
sS'num'
p16
V45
p17
sS'role'
p18
S'do'
p19
sS'location'
p20
NsS'compound'
p21
I0
sS'subtypes'
p22
(lp23
sS'widx'
p24
I4
sS'type_failure'
p25
I0
sbtp26
a(I1002
(imakesets
aset
p27
(dp28
g3
I0
sg4
g5
sg6
Vput
p29
sg8
I1002
sg9
I1
sg10
Nsg11
Nsg12
Vpics
p30
sg14
Vpic
p31
sg16
V27
p32
sg18
g19
sg20
Nsg21
I0
sg22
(lp33
sg24
I4
sg25
I0
sbtp34
a(I1005
(imakesets
aset
p35
(dp36
g3
I0
sg4
Nsg6
Vput put
p37
sg8
I1005
sg9
I1
sg10
Nsg11
Vpicture
p38
sg12
Valbum
p39
sg14
Valbum
p40
sg16
V9
p41
sg18
S'other'
p42
sg20
Nsg21
I0
sg22
(lp43
sg24
I7
sg25
I0
sbtp44
a(I1006
(imakesets
aset
p45
(dp46
g3
I0
sg4
Valbum
p47
sg6
Nsg8
I1006
sg9
I2
sg10
Nsg11
Nsg12
Vpictures
p48
sg14
g38
sg16
S'x'
p49
sg18
S'subj'
p50
sg20
Nsg21
I0
sg22
(lp51
sg24
I3
sg25
I0
sbtp52
a.