(lp0
(I4
(imakesets
aset
p1
(dp2
S'subset'
p3
I0
sS'container'
p4
Vassembly
p5
sS'verbs'
p6
Vhad
p7
sS'idx'
p8
I4
sS'origs'
p9
I0
sS'adjs'
p10
NsS'contains'
p11
NsS'surface'
p12
Vstudents
p13
sS'entity'
p14
Vstudent
p15
sS'num'
p16
V76
p17
sS'role'
p18
S'do'
p19
sS'location'
p20
Vattendance
p21
sS'compound'
p22
I0
sS'subtypes'
p23
(lp24
sS'widx'
p25
I6
sS'type_failure'
p26
I0
sbtp27
a(I10
(imakesets
aset
p28
(dp29
g3
I0
sg4
Nsg6
Vhave be
p30
sg8
I10
sg9
I0
sg10
Nsg11
Nsg12
Vtimes
p31
sg14
g5
sg16
V0.75
p32
sg18
S'subj'
p33
sg20
Nsg22
I0
sg23
(lp34
sg25
I12
sg26
I0
sbtp35
a(I1003
(imakesets
aset
p36
(dp37
g3
I0
sg4
Nsg6
Vbe
p38
sg8
I1003
sg9
I1
sg10
Nsg11
Nsg12
Vfirst-graders
p39
sg14
Vfirst-grader
p40
sg16
S'x'
p41
sg18
S'other'
p42
sg20
Nsg22
I0
sg23
(lp43
sg25
I4
sg26
I0
sbtp44
a.