(lp0
(I2
(imakesets
aset
p1
(dp2
S'subset'
p3
I0
sS'container'
p4
VPaige
p5
sS'verbs'
p6
Vhad
p7
sS'idx'
p8
I2
sS'origs'
p9
I0
sS'adjs'
p10
NsS'contains'
p11
NsS'surface'
p12
Vfiles
p13
sS'entity'
p14
Vfile
p15
sS'num'
p16
V27
p17
sS'role'
p18
S'do'
p19
sS'location'
p20
Vcomputer
p21
sS'compound'
p22
I0
sS'subtypes'
p23
(lp24
sS'widx'
p25
I4
sS'type_failure'
p26
I0
sbtp27
a(I1002
(imakesets
aset
p28
(dp29
g3
I0
sg4
Nsg6
Vdelete put
p30
sg8
I1002
sg9
I2
sg10
Nsg11
Vfile
p31
sg12
Vrest
p32
sg14
Vrest
p33
sg16
V9
p34
sg18
S'other'
p35
sg20
Nsg22
I0
sg23
(lp36
sg25
I3
sg26
I0
sbtp37
a(I1003
(imakesets
aset
p38
(dp39
g3
I0
sg4
g33
sg6
Nsg8
I1003
sg9
I1
sg10
Nsg11
Nsg12
Vfiles
p40
sg14
g31
sg16
V6
p41
sg18
g35
sg20
Vone
p42
sg22
I0
sg23
(lp43
sg25
I14
sg26
I0
sbtp44
a(I2002
(imakesets
aset
p45
(dp46
g3
I0
sg4
Nsg6
Vend
p47
sg8
I2002
sg9
I2
sg10
Nsg11
Nsg12
Vfolders
p48
sg14
Vfolder
p49
sg16
S'x'
p50
sg18
g35
sg20
Nsg22
I0
sg23
(lp51
sg25
I3
sg26
I0
sbtp52
a.