(lp0
(I2
(imakesets
aset
p1
(dp2
S'subset'
p3
I0
sS'container'
p4
VRoger
p5
sS'verbs'
p6
Vhad
p7
sS'idx'
p8
I2
sS'origs'
p9
I0
sS'adjs'
p10
NsS'contains'
p11
Vload
p12
sS'surface'
p13
Vpieces
p14
sS'entity'
p15
Vpiece
p16
sS'num'
p17
V120
p18
sS'role'
p19
S'do'
p20
sS'location'
p21
NsS'compound'
p22
I0
sS'subtypes'
p23
(lp24
sS'widx'
p25
I4
sS'type_failure'
p26
I0
sbtp27
a(I1002
(imakesets
aset
p28
(dp29
g3
I0
sg4
Nsg6
Vput decide split
p30
sg8
I1002
sg9
I2
sg10
Nsg11
Nsg13
g14
sg15
g16
sg17
V48
p31
sg19
S'other'
p32
sg21
Nsg22
I0
sg23
(lp33
sg25
I3
sg26
I0
sbtp34
a(I1006
(imakesets
aset
p35
(dp36
g3
I0
sg4
Nsg6
Vput decide split
p37
sg8
I1006
sg9
I1
sg10
Nsg11
Nsg13
Vload
p38
sg15
Vload
p39
sg17
V9
p40
sg19
g32
sg21
Nsg22
I0
sg23
(lp41
sg25
I8
sg26
I0
sbtp42
a(I2002
(imakesets
aset
p43
(dp44
g3
I0
sg4
Nsg6
Vgo
p45
sg8
I2002
sg9
I2
sg10
Nsg11
Nsg13
Vpieces
p46
sg15
Vpiece
p47
sg17
S'x'
p48
sg19
S'subj'
p49
sg21
Nsg22
I0
sg23
(lp50
sg25
I3
sg26
I0
sbtp51
a.