(lp0
(I1006
(imakesets
aset
p1
(dp2
S'subset'
p3
I0
sS'container'
p4
NsS'verbs'
p5
Vhave be
p6
sS'idx'
p7
I1006
sS'origs'
p8
I1
sS'adjs'
p9
NsS'contains'
p10
NsS'surface'
p11
Vsnacks
p12
sS'entity'
p13
Vsnack
p14
sS'num'
p15
V100
p16
sS'role'
p17
S'other'
p18
sS'location'
p19
NsS'compound'
p20
I0
sS'subtypes'
p21
(lp22
sS'widx'
p23
I8
sS'type_failure'
p24
I0
sbtp25
a(I1011
(imakesets
aset
p26
(dp27
g3
I0
sg4
Nsg5
Vhave be
p28
sg7
I1011
sg8
I1
sg9
Nsg10
Nsg11
Vtimes
p29
sg13
Vtray
p30
sg15
V0.25
p31
sg17
S'subj'
p32
sg19
Nsg20
I0
sg21
(lp33
sg23
I13
sg24
I0
sbtp34
a(I2002
(imakesets
aset
p35
(dp36
g3
I0
sg4
Nsg5
Vstick bring
p37
sg7
I2002
sg8
I2
sg9
Nsg10
Nsg11
Vcarrot
p38
sg13
Vcarrot
p39
sg15
S'x'
p40
sg17
g32
sg19
Nsg20
I0
sg21
(lp41
sg23
I3
sg24
I0
sbtp42
a.