(lp0
(I2
(imakesets
aset
p1
(dp2
S'subset'
p3
I0
sS'container'
p4
NsS'verbs'
p5
S''
p6
sS'idx'
p7
I2
sS'origs'
p8
I0
sS'adjs'
p9
Vbaked
p10
sS'contains'
p11
NsS'surface'
p12
Vcupcakes
p13
sS'entity'
p14
Vcupcake
p15
sS'num'
p16
V20
p17
sS'role'
p18
S'other'
p19
sS'location'
p20
NsS'compound'
p21
I0
sS'subtypes'
p22
(lp23
sS'widx'
p24
I4
sS'type_failure'
p25
I0
sbtp26
a(I1007
(imakesets
aset
p27
(dp28
g3
I0
sg4
Nsg5
Veat make put
p29
sg7
I1007
sg8
I2
sg9
Nsg11
Nsg12
g13
sg14
g15
sg16
V11
p30
sg18
g19
sg20
Nsg21
I0
sg22
(lp31
sg24
I8
sg25
I0
sbtp32
a(I1012
(imakesets
aset
p33
(dp34
g3
I0
sg4
Nsg5
Veat make put
p35
sg7
I1012
sg8
I1
sg9
Nsg11
Vcupcake
p36
sg12
Vpackages
p37
sg14
Vpackage
p38
sg16
S'x'
p39
sg18
g19
sg20
Nsg21
I0
sg22
(lp40
sg24
I13
sg25
I0
sbtp41
a(I1013
(imakesets
aset
p42
(dp43
g3
I0
sg4
Vpackage
p44
sg5
Vput
p45
sg7
I1013
sg8
I1
sg9
Nsg11
Nsg12
Vcupcake
p46
sg14
g36
sg16
V3
p47
sg18
S'do'
p48
sg20
Vpackage
p49
sg21
I0
sg22
(lp50
sg24
I21
sg25
I0
sbtp51
a.