(lp0
(I2
(imakesets
aset
p1
(dp2
S'subset'
p3
I0
sS'container'
p4
VKaleb
p5
sS'verbs'
p6
Vhad
p7
sS'idx'
p8
I2
sS'origs'
p9
I0
sS'adjs'
p10
NsS'contains'
p11
NsS'surface'
p12
Vdollars
p13
sS'entity'
p14
Vdollar
p15
sS'num'
p16
V12
p17
sS'role'
p18
S'do'
p19
sS'location'
p20
NsS'compound'
p21
I0
sS'subtypes'
p22
(lp23
sS'widx'
p24
I4
sS'type_failure'
p25
I0
sbtp26
a(I1003
(imakesets
aset
p27
(dp28
g3
I0
sg4
Vgame
p29
sg6
Vspent
p30
sg8
I1003
sg9
I1
sg10
Nsg11
Nsg12
Vbucks
p31
sg14
Vbuck
p32
sg16
V8
p33
sg18
g19
sg20
Nsg21
I0
sg22
(lp34
sg24
I5
sg25
I0
sbtp35
a(I1012
(imakesets
aset
p36
(dp37
g3
I0
sg4
g5
sg6
Vbuy
p38
sg8
I1012
sg9
I1
sg10
Vmany
p39
sg11
Nsg12
Vdollar
p40
sg14
Vdollar
p41
sg16
V2
p42
sg18
g19
sg20
Nsg21
I0
sg22
(lp43
sg24
I14
sg25
I0
sbtp44
a(I1013
(imakesets
aset
p45
(dp46
g3
I0
sg4
g5
sg6
Vbuy
p47
sg8
I1013
sg9
I1
sg10
Nsg11
Nsg12
Vdollar
p48
sg14
g41
sg16
S'x'
p49
sg18
g19
sg20
Nsg21
I0
sg22
(lp50
sg24
I14
sg25
I0
sbtp51
a.