(lp0
(I1003
(imakesets
aset
p1
(dp2
S'subset'
p3
I0
sS'container'
p4
NsS'verbs'
p5
Vstart plant put
p6
sS'idx'
p7
I1003
sS'origs'
p8
I1
sS'adjs'
p9
NsS'contains'
p10
Vseed
p11
sS'surface'
p12
Vseeds
p13
sS'entity'
p14
Vseed
p15
sS'num'
p16
V56
p17
sS'role'
p18
S'other'
p19
sS'location'
p20
NsS'compound'
p21
I0
sS'subtypes'
p22
(lp23
sS'widx'
p24
I5
sS'type_failure'
p25
I0
sbtp26
a(I1004
(imakesets
aset
p27
(dp28
g3
I0
sg4
g15
sg5
Vput
p29
sg7
I1004
sg8
I1
sg9
Nsg10
Nsg12
Vseeds
p30
sg14
g11
sg16
V3
p31
sg18
S'do'
p32
sg20
Nsg21
I0
sg22
(lp33
sg24
I24
sg25
I0
sbtp34
a(I1007
(imakesets
aset
p35
(dp36
g3
I0
sg4
Nsg5
Vstart plant put
p37
sg7
I1007
sg8
I2
sg9
Nsg10
Nsg12
g13
sg14
g15
sg16
V35
p38
sg18
g19
sg20
Nsg21
I0
sg22
(lp39
sg24
I8
sg25
I0
sbtp40
a(I2003
(imakesets
aset
p41
(dp42
g3
I0
sg4
VHaley
p43
sg5
Vhave
p44
sg7
I2003
sg8
I2
sg9
Vsmall
p45
sg10
Nsg12
Vgardens
p46
sg14
Vgarden
p47
sg16
S'x'
p48
sg18
g32
sg20
Nsg21
I0
sg22
(lp49
sg24
I4
sg25
I0
sbtp50
a.