(lp0
(I1004
(imakesets
aset
p1
(dp2
S'subset'
p3
I0
sS'container'
p4
NsS'verbs'
p5
Vstart sell
p6
sS'idx'
p7
I1004
sS'origs'
p8
I4
sS'adjs'
p9
NsS'contains'
p10
NsS'surface'
p11
Vgames
p12
sS'entity'
p13
Vgame
p14
sS'num'
p15
V57
p16
sS'role'
p17
S'other'
p18
sS'location'
p19
NsS'compound'
p20
I0
sS'subtypes'
p21
(lp22
sS'widx'
p23
I5
sS'type_failure'
p24
I0
sbtp25
a(I1007
(imakesets
aset
p26
(dp27
g3
I0
sg4
Nsg5
Vstart sell
p28
sg7
I1007
sg8
I4
sg9
Nsg10
Nsg11
g12
sg13
g14
sg15
V39
p29
sg17
g18
sg19
Nsg20
I0
sg21
(lp30
sg23
I8
sg24
I0
sbtp31
a(I2006
(imakesets
aset
p32
(dp33
g3
I0
sg4
Vbox
p34
sg5
Vputting
p35
sg7
I2006
sg8
I2
sg9
Nsg10
Nsg11
Vgames
p36
sg13
Vgame
p37
sg15
V2
p38
sg17
S'do'
p39
sg19
Nsg20
I0
sg21
(lp40
sg23
I8
sg24
I0
sbtp41
a(I2009
(imakesets
aset
p42
(dp43
g3
I0
sg4
Nsg5
Vpack put
p44
sg7
I2009
sg8
I2
sg9
Nsg10
Nsg11
Vbox
p45
sg13
g34
sg15
S'x'
p46
sg17
g18
sg19
Nsg20
I0
sg21
(lp47
sg23
I11
sg24
I0
sbtp48
a.