(lp0
(I1005
(imakesets
aset
p1
(dp2
S'subset'
p3
I0
sS'container'
p4
Vhe
p5
sS'verbs'
p6
Vmade
p7
sS'idx'
p8
I1005
sS'origs'
p9
I1
sS'adjs'
p10
Vmowing
p11
sS'contains'
p12
NsS'surface'
p13
Vlawns
p14
sS'entity'
p15
Vlawn
p16
sS'num'
p17
V2
p18
sS'role'
p19
S'do'
p20
sS'location'
p21
NsS'compound'
p22
I0
sS'subtypes'
p23
(lp24
sS'widx'
p25
I9
sS'type_failure'
p26
I0
sbtp27
a(I1015
(imakesets
aset
p28
(dp29
g3
I0
sg4
Vhe
p30
sg6
Vmade
p31
sg8
I1015
sg9
I1
sg10
Nsg12
Nsg13
Vdollars
p32
sg15
Vdollar
p33
sg17
V27
p34
sg19
g20
sg21
Nsg22
I0
sg23
(lp35
sg25
I17
sg26
I0
sbtp36
a(I2005
(imakesets
aset
p37
(dp38
g3
I0
sg4
Nsg6
Vspend
p39
sg8
I2005
sg9
I2
sg10
Vbuying
p40
sg12
Nsg13
Vsupplies
p41
sg15
Vsupplies
p42
sg17
V5
p43
sg19
g20
sg21
Nsg22
I0
sg23
(lp44
sg25
I9
sg26
I0
sbtp45
a(I2018
(imakesets
aset
p46
(dp47
g3
I0
sg4
Nsg6
Vspend buy end
p48
sg8
I2018
sg9
I2
sg10
Nsg12
Nsg13
S'dollar'
p49
sg15
g49
sg17
S'x'
p50
sg19
S'other'
p51
sg21
Nsg22
I0
sg23
(lp52
sg25
I19
sg26
I0
sbtp53
a.