(lp0
(I2
(imakesets
aset
p1
(dp2
S'subset'
p3
I0
sS'container'
p4
VGeorge
p5
sS'verbs'
p6
Vhad
p7
sS'idx'
p8
I2
sS'origs'
p9
I0
sS'adjs'
p10
NsS'contains'
p11
NsS'surface'
p12
Vdollars
p13
sS'entity'
p14
Vmoney
p15
sS'num'
p16
S'30.0'
p17
sS'role'
p18
S'do'
p19
sS'location'
p20
NsS'compound'
p21
I0
sS'subtypes'
p22
(lp23
sS'widx'
p24
I4
sS'type_failure'
p25
I0
sbtp26
a(I1005
(imakesets
aset
p27
(dp28
g3
I0
sg4
g5
sg6
Vgot
p29
sg8
I1005
sg9
I1
sg10
Vmore
p30
sg11
Nsg12
Vdollars
p31
sg14
g15
sg16
S'16.0'
p32
sg18
g19
sg20
Nsg21
I0
sg22
(lp33
sg24
I8
sg25
I0
sbtp34
a(I1010
(imakesets
aset
p35
(dp36
g3
I0
sg4
Vgame
p37
sg6
Nsg8
I1010
sg9
I2
sg10
Nsg11
Nsg12
g31
sg14
g15
sg16
S'38.0'
p38
sg18
S'other'
p39
sg20
Nsg21
I0
sg22
(lp40
sg24
I11
sg25
I0
sbtp41
a(I2002
(imakesets
aset
p42
(dp43
g3
I0
sg4
Nsg6
Vdo have
p44
sg8
I2002
sg9
I2
sg10
Nsg11
Nsg12
Vmoney
p45
sg14
g15
sg16
S'x'
p46
sg18
g39
sg20
Nsg21
I0
sg22
(lp47
sg24
I3
sg25
I0
sbtp48
a.