(lp0
(I1002
(imakesets
aset
p1
(dp2
S'subset'
p3
I0
sS'container'
p4
NsS'verbs'
p5
Vanswer
p6
sS'idx'
p7
I1002
sS'origs'
p8
I1
sS'adjs'
p9
Vmultiple
p10
sS'contains'
p11
NsS'surface'
p12
Vproblems
p13
sS'entity'
p14
Vproblem
p15
sS'num'
p16
V32
p17
sS'role'
p18
S'subj'
p19
sS'location'
p20
Vtest
p21
sS'compound'
p22
I0
sS'subtypes'
p23
(lp24
sS'widx'
p25
I5
sS'type_failure'
p26
I0
sbtp27
a(I1011
(imakesets
aset
p28
(dp29
g3
I0
sg4
VChristina
p30
sg5
Vanswered
p31
sg7
I1011
sg8
I1
sg9
Nsg11
Nsg12
Vtimes
p32
sg14
VChristina
p33
sg16
V0.25
p34
sg18
S'do'
p35
sg20
Nsg22
I0
sg23
(lp36
sg25
I13
sg26
I0
sbtp37
a(I2002
(imakesets
aset
p38
(dp39
g3
I0
sg4
Nsg5
Vget
p40
sg7
I2002
sg8
I2
sg9
Nsg11
Nsg12
Vproblems
p41
sg14
Vproblem
p42
sg16
S'x'
p43
sg18
S'other'
p44
sg20
Nsg22
I0
sg23
(lp45
sg25
I3
sg26
I0
sbtp46
a.