(lp0
(I5
(imakesets
aset
p1
(dp2
S'subset'
p3
I0
sS'container'
p4
VMaria
p5
sS'verbs'
p6
Vbought
p7
sS'idx'
p8
I5
sS'origs'
p9
I0
sS'adjs'
p10
Vgreen
p11
sS'contains'
p12
NsS'surface'
p13
Vtowels
p14
sS'entity'
p15
Vtowel
p16
sS'num'
p17
V35
p18
sS'role'
p19
S'do'
p20
sS'location'
p21
NsS'compound'
p22
I0
sS'subtypes'
p23
(lp24
sS'widx'
p25
I8
sS'type_failure'
p26
I0
sbtp27
a(I9
(imakesets
aset
p28
(dp29
g3
I0
sg4
Nsg6
Vbuy
p30
sg8
I9
sg9
I0
sg10
Vwhite
p31
sg12
Nsg13
Vtowels
p32
sg15
Vtowel
p33
sg17
V21
p34
sg19
S'other'
p35
sg21
Nsg22
I0
sg23
(lp36
sg25
I12
sg26
I0
sbtp37
a(I1005
(imakesets
aset
p38
(dp39
g3
I0
sg4
Nsg6
Vgive end
p40
sg8
I1005
sg9
I2
sg10
Nsg12
Nsg13
g32
sg15
g33
sg17
V34
p41
sg19
g35
sg21
Nsg22
I0
sg23
(lp42
sg25
I6
sg26
I0
sbtp43
a(I1011
(imakesets
aset
p44
(dp45
g3
I0
sg4
Nsg6
Vgive end
p46
sg8
I1011
sg9
I1
sg10
Nsg12
Nsg13
Vtowels
p47
sg15
Vtowel
p48
sg17
S'x'
p49
sg19
g35
sg21
Nsg22
I0
sg23
(lp50
sg25
I12
sg26
I0
sbtp51
a.