(lp0
(I1000
(imakesets
aset
p1
(dp2
S'subset'
p3
I0
sS'container'
p4
NsS'verbs'
p5
Vvote
p6
sS'idx'
p7
I1000
sS'origs'
p8
I1
sS'adjs'
p9
NsS'contains'
p10
NsS'surface'
p11
Vtimes
p12
sS'entity'
p13
Vtime
p14
sS'num'
p15
V0.6
p16
sS'role'
p17
S'subj'
p18
sS'location'
p19
NsS'compound'
p20
I0
sS'subtypes'
p21
(lp22
sS'widx'
p23
I2
sS'type_failure'
p24
I0
sbtp25
a(I2003
(imakesets
aset
p26
(dp27
g3
I0
sg4
Nsg5
Vvote
p28
sg7
I2003
sg8
I2
sg9
Nsg10
Nsg11
Vstudents
p29
sg13
Vstudent
p30
sg15
V25
p31
sg17
g18
sg19
Vgrade
p32
sg20
I0
sg21
(lp33
sg23
I5
sg24
I0
sbtp34
a(I2012
(imakesets
aset
p35
(dp36
g3
I0
sg4
Nsg5
g28
sg7
I2012
sg8
I2
sg9
Nsg10
Nsg11
Vstudents
p37
sg13
Vstudent
p38
sg15
S'x'
p39
sg17
g18
sg19
Nsg20
I0
sg21
(lp40
sg23
I13
sg24
I0
sbtp41
a.