(lp0
(I5
(imakesets
aset
p1
(dp2
S'subset'
p3
I0
sS'container'
p4
NsS'verbs'
p5
Vbe
p6
sS'idx'
p7
I5
sS'origs'
p8
I0
sS'adjs'
p9
NsS'contains'
p10
NsS'surface'
p11
Vtimes
p12
sS'entity'
p13
Vtime
p14
sS'num'
p15
V0.75
p16
sS'role'
p17
S'subj'
p18
sS'location'
p19
NsS'compound'
p20
I0
sS'subtypes'
p21
(lp22
sS'widx'
p23
I7
sS'type_failure'
p24
I0
sbtp25
a(I9
(imakesets
aset
p26
(dp27
g3
I0
sg4
Nsg5
g6
sg7
I9
sg8
I0
sg9
Nsg10
Nsg11
Vhats
p28
sg13
Vhat
p29
sg15
V52
p30
sg17
S'other'
p31
sg19
Nsg20
I0
sg21
(lp32
sg23
I11
sg24
I0
sbtp33
a(I1003
(imakesets
aset
p34
(dp35
g3
I0
sg4
Nsg5
Vbe
p36
sg7
I1003
sg8
I1
sg9
Nsg10
Nsg11
Vcaps
p37
sg13
Vcap
p38
sg15
S'x'
p39
sg17
g18
sg19
Nsg20
I0
sg21
(lp40
sg23
I4
sg24
I0
sbtp41
a.