(lp0
(I2
(imakesets
aset
p1
(dp2
S'subset'
p3
I0
sS'container'
p4
VBianca
p5
sS'verbs'
p6
Vpicked
p7
sS'idx'
p8
I2
sS'origs'
p9
I0
sS'adjs'
p10
NsS'contains'
p11
NsS'surface'
p12
Vtulips
p13
sS'entity'
p14
Vtulip
p15
sS'num'
p16
V39
p17
sS'role'
p18
S'do'
p19
sS'location'
p20
NsS'compound'
p21
I0
sS'subtypes'
p22
(lp23
sS'widx'
p24
I4
sS'type_failure'
p25
I0
sbtp26
a(I5
(imakesets
aset
p27
(dp28
g3
I0
sg4
Nsg6
Vpick make
p29
sg8
I5
sg9
I0
sg10
Nsg11
Nsg12
Vroses
p30
sg14
Vrose
p31
sg16
V49
p32
sg18
S'other'
p33
sg20
Nsg21
I0
sg22
(lp34
sg24
I7
sg25
I0
sbtp35
a(I1004
(imakesets
aset
p36
(dp37
g3
I0
sg4
Nsg6
Vuse pick
p38
sg8
I1004
sg9
I1
sg10
Nsg11
Nsg12
Vflowers
p39
sg14
Vflower
p40
sg16
V81
p41
sg18
g33
sg20
Nsg21
I0
sg22
(lp42
sg24
I8
sg25
I0
sbtp43
a(I1013
(imakesets
aset
p44
(dp45
g3
I0
sg4
VBianca
p46
sg6
Vpick
p47
sg8
I1013
sg9
I1
sg10
Vextra
p48
sg11
Nsg12
Vflowers
p49
sg14
Vflower
p50
sg16
S'x'
p51
sg18
g19
sg20
Nsg21
I0
sg22
(lp52
sg24
I14
sg25
I0
sbtp53
a.