(lp0
(I1002
(imakesets
aset
p1
(dp2
S'subset'
p3
I0
sS'container'
p4
VKatie
p5
sS'verbs'
p6
Vhad
p7
sS'idx'
p8
I1002
sS'origs'
p9
I1
sS'adjs'
p10
NsS'contains'
p11
NsS'surface'
p12
Vpieces
p13
sS'entity'
p14
Vpiece
p15
sS'num'
p16
V10
p17
sS'role'
p18
S'do'
p19
sS'location'
p20
NsS'compound'
p21
I0
sS'subtypes'
p22
(lp23
sS'widx'
p24
I4
sS'type_failure'
p25
I0
sbtp26
a(I1010
(imakesets
aset
p27
(dp28
g3
I0
sg4
Nsg6
Vhave have
p29
sg8
I1010
sg9
I2
sg10
Nsg11
Nsg12
g13
sg14
g15
sg16
V6
p30
sg18
S'other'
p31
sg20
Nsg21
I0
sg22
(lp32
sg24
I11
sg25
I0
sbtp33
a(I2003
(imakesets
aset
p34
(dp35
g3
I0
sg4
Vthey
p36
sg6
Vate
p37
sg8
I2003
sg9
I2
sg10
Nsg11
Nsg12
Vpieces
p38
sg14
Vpiece
p39
sg16
V9
p40
sg18
g19
sg20
Nsg21
I0
sg22
(lp41
sg24
I5
sg25
I0
sbtp42
a(I2011
(imakesets
aset
p43
(dp44
g3
I0
sg4
Vthey
p45
sg6
Vleft
p46
sg8
I2011
sg9
I2
sg10
Nsg11
Nsg12
Vpieces
p47
sg14
Vpiece
p48
sg16
S'x'
p49
sg18
g19
sg20
Nsg21
I0
sg22
(lp50
sg24
I12
sg25
I0
sbtp51
a.