(lp0
(I10
(imakesets
aset
p1
(dp2
S'subset'
p3
I0
sS'container'
p4
Vwaiter
p5
sS'verbs'
p6
Vhad
p7
sS'idx'
p8
I10
sS'origs'
p9
I0
sS'adjs'
p10
NsS'contains'
p11
NsS'surface'
p12
Vcustomers
p13
sS'entity'
p14
Vcustomer
p15
sS'num'
p16
V26
p17
sS'role'
p18
S'do'
p19
sS'location'
p20
NsS'compound'
p21
I0
sS'subtypes'
p22
(lp23
sS'widx'
p24
I12
sS'type_failure'
p25
I0
sbtp26
a(I1007
(imakesets
aset
p27
(dp28
g3
I0
sg4
Vhe
p29
sg6
Vadded
p30
sg8
I1007
sg9
I1
sg10
Nsg11
Nsg12
Vcustomers
p31
sg14
Vcustomer
p32
sg16
V27
p33
sg18
g19
sg20
Nsg21
I0
sg22
(lp34
sg24
I9
sg25
I0
sbtp35
a(I2001
(imakesets
aset
p36
(dp37
g3
I0
sg4
Nsg6
Vleave leave
p38
sg8
I2001
sg9
I2
sg10
Nsg11
Nsg12
Vcustomers
p39
sg14
Vcustomer
p40
sg16
V27
p41
sg18
S'other'
p42
sg20
Nsg21
I0
sg22
(lp43
sg24
I5
sg25
I0
sbtp44
a(I2014
(imakesets
aset
p45
(dp46
g3
I0
sg4
Vtip
p47
sg6
Nsg8
I2014
sg9
I2
sg10
Nsg11
Nsg12
Vcustomers
p48
sg14
Vcustomer
p49
sg16
S'x'
p50
sg18
S'subj'
p51
sg20
Nsg21
I0
sg22
(lp52
sg24
I15
sg25
I0
sbtp53
a.