(lp0
(I1002
(imakesets
aset
p1
(dp2
S'subset'
p3
I0
sS'container'
p4
VTrisha
p5
sS'verbs'
p6
Vreceived
p7
sS'idx'
p8
I1002
sS'origs'
p9
I1
sS'adjs'
p10
NsS'contains'
p11
NsS'surface'
p12
Vbeads
p13
sS'entity'
p14
Vbead
p15
sS'num'
p16
V90
p17
sS'role'
p18
S'do'
p19
sS'location'
p20
NsS'compound'
p21
I0
sS'subtypes'
p22
(lp23
sS'widx'
p24
I4
sS'type_failure'
p25
I0
sbtp26
a(I1006
(imakesets
aset
p27
(dp28
g3
I0
sg4
Nsg6
Vreceive
p29
sg8
I1006
sg9
I1
sg10
Nsg11
Nsg12
Vtimes
p30
sg14
VShe
p31
sg16
V0.2
p32
sg18
S'subj'
p33
sg20
Nsg21
I0
sg22
(lp34
sg24
I8
sg25
I0
sbtp35
a(I2002
(imakesets
aset
p36
(dp37
g3
I0
sg4
Nsg6
Vreceive
p38
sg8
I2002
sg9
I2
sg10
Nsg11
Nsg12
Vbeads
p39
sg14
Vbead
p40
sg16
S'x'
p41
sg18
S'other'
p42
sg20
Nsg21
I0
sg22
(lp43
sg24
I3
sg25
I0
sbtp44
a.