(lp0
(I4
(imakesets
aset
p1
(dp2
S'subset'
p3
I0
sS'container'
p4
Vcafeteria
p5
sS'verbs'
p6
Vordered
p7
sS'idx'
p8
I4
sS'origs'
p9
I0
sS'adjs'
p10
Vred
p11
sS'contains'
p12
NsS'surface'
p13
Vapples
p14
sS'entity'
p15
Vapple
p16
sS'num'
p17
V25
p18
sS'role'
p19
S'do'
p20
sS'location'
p21
NsS'compound'
p22
I0
sS'subtypes'
p23
(lp24
sS'widx'
p25
I7
sS'type_failure'
p26
I0
sbtp27
a(I8
(imakesets
aset
p28
(dp29
g3
I0
sg4
Nsg6
Vorder
p30
sg8
I8
sg9
I0
sg10
Vgreen
p31
sg12
Nsg13
Vapples
p32
sg15
Vapple
p33
sg17
V17
p34
sg19
S'other'
p35
sg21
Nsg22
I0
sg23
(lp36
sg25
I11
sg26
I0
sbtp37
a(I1004
(imakesets
aset
p38
(dp39
g3
I0
sg4
Nsg6
Vwant end
p40
sg8
I1004
sg9
I1
sg10
Nsg12
Nsg13
Vstudents
p41
sg15
Vstudent
p42
sg17
V10
p43
sg19
g35
sg21
Nsg22
I0
sg23
(lp44
sg25
I6
sg26
I0
sbtp45
a(I1011
(imakesets
aset
p46
(dp47
g3
I0
sg4
Nsg6
Vwant end
p48
sg8
I1011
sg9
I1
sg10
Nsg12
Nsg13
g41
sg15
g42
sg17
S'x'
p49
sg19
g35
sg21
Nsg22
I0
sg23
(lp50
sg25
I12
sg26
I0
sbtp51
a.