(dp0
S'='
p1
((lp2
(lp3
tp4
sS'+'
p5
((lp6
(lp7
I1
aI0
aI0
aI0
aI0
aI1
aI0
aI0
aI0
aI0
aI0
aI0
aI-1
aI-1
aI-1
aI-1
aI-1
aI1
aI0
aI0
aI0
aI0
aI1
aI0
aI0
aI1
aI0
aI0
aI0
aI0
aI0
aI0
aI0
aI0
aI0
aI1
aI0
aI0
aI0
aI0
aI0
aI0
aI0
aI0
aI0
aI0
aI0
aI0
aI0
aI0
aI0
aI0
aI0
aI0
aI0
aI0
aI0
aI0
aI0
aI0
aI0
aI0
aI0
aI0
aI0
aI0
aF0.5103864223005199
aF0.6603989117385534
aF0.5080729429727653
aF0.5577734713497952
aI0
aF0.606333296544002
aF0.5240462374338287
aF0.5678490720113271
aF0.5050424974372756
aF0.5902545845741275
aF0.5042028876382034
aF0.6520341313528533
aF0.5
aF0.5463616021300438
aF0.5211810840509955
aI0
aF0.6017842064639691
aF0.5902545845741275
aF0.6076291922395751
aF0.7087281892142097
aF0.7673576618240046
aF0.6422011441050903
aF0.7326199308708504
aF0.6088272405090531
aa(lp8
I1
aI0
aI0
aI0
aI0
aI1
aI0
aI0
aI0
aI0
aI0
aI0
aI-1
aI-1
aI-1
aI-1
aI-1
aI1
aI0
aI0
aI0
aI0
aI1
aI0
aI0
aI1
aI1
aI0
aI0
aI0
aI0
aI0
aI0
aI0
aI0
aI0
aI0
aI0
aI0
aI0
aI0
aI0
aI0
aI0
aI0
aI0
aI0
aI0
aI0
aI0
aI0
aI0
aI0
aI0
aI0
aI0
aI0
aI0
aI0
aI0
aI0
aI0
aI0
aI0
aI0
aI1
aF0.7043510771768892
aF0.6899815253240595
aF0.6737235901662526
aF0.5973688621439767
aF0.67628317488964
aF0.6900610861329958
aF0.5240462374338287
aF0.6242745850549243
aI1
aF0.5902545845741275
aF0.7209748742475065
aF0.5961648537982176
aF0.5488292802060162
aF0.6664574727306354
aF0.5211810840509955
aI0
aF0.6017842064639691
aF0.5902545845741275
aF0.6827170035381162
aF0.7087281892142097
aF0.7673576618240046
aF0.6856793837685414
aF0.6993506359939851
aF0.7211569740351418
aa(lp9
I0
aI1
aI0
aI1
aI0
aI0
aI0
aI0
aI0
aI0
aI0
aI0
aI-1
aI-1
aI-1
aI-1
aI-1
aI1
aI-1
aI0
aI0
aI0
aI1
aI0
aI0
aI1
aI0
aI0
aI0
aI0
aI0
aI0
aI0
aI0
aI0
aI1
aI0
aI0
aI0
aI0
aI0
aI0
aI0
aI0
aI0
aI0
aI0
aI0
aI0
aI0
aI0
aI0
aI0
aI0
aI0
aI0
aI0
aI0
aI0
aI0
aI0
aI0
aI0
aI0
aI0
aF0.07458872083533252
aF0.6917678159399131
aI1
aF0.7893124861725855
aF0.7601223431122739
aF0.6875148023571246
aF0.7945842186181074
aF0.7280701111931933
aF0.7918948888087833
aF0.6855124491939637
aF0.774720803155589
aI1
aI1
aF0.6875148023571246
aI1
aF0.7958179754382808
aI1
aI1
aF0.7376814894330712
aI1
aI1
aI1
aF0.7545672453757448
aI1
aI1
aa(lp10
I1
aI0
aI0
aI0
aI0
aI1
aI0
aI0
aI0
aI0
aI0
aI0
aI-1
aI-1
aI-1
aI-1
aI-1
aI1
aI0
aI0
aI0
aI0
aI1
aI0
aI0
aI0
aI1
aI0
aI0
aI0
aI0
aI0
aI0
aI0
aI0
aI0
aI0
aI0
aI0
aI0
aI0
aI0
aI0
aI0
aI0
aI0
aI0
aI0
aI1
aI0
aI0
aI0
aI0
aI0
aI0
aI0
aI0
aI0
aI0
aI0
aI0
aI0
aI0
aI0
aI0
aF0.09815491372495684
aI1
aF0.6262110401707196
aF0.7006522764257282
aF0.5005164010848911
aF0.5017350679149379
aF0.5192378668313666
aF0.5
aF0.5
aI1
aF0.6872890028386275
aF0.7409069533524927
aF0.6366237628768486
aF0.5288870538820929
aI1
aF0.7142695797913596
aI1
aF0.6746391136171884
aF0.7036966492329588
aF0.6872890028386275
aI1
aI1
aI1
aF0.7223644645400064
aF0.7410639732094525
aa(lp11
I1
aI0
aI0
aI1
aI0
aI0
aI0
aI0
aI0
aI0
aI0
aI0
aI-1
aI-1
aI-1
aI-1
aI-1
aI1
aI0
aI0
aI0
aI0
aI1
aI0
aI0
aI0
aI1
aI0
aI0
aI0
aI0
aI0
aI0
aI0
aI0
aI0
aI0
aI0
aI0
aI0
aI0
aI0
aI0
aI0
aI0
aI0
aI0
aI0
aI0
aI0
aI0
aI0
aI0
aI0
aI0
aI0
aI0
aI0
aI0
aI0
aI0
aI0
aI0
aI0
aI0
aI0
aF0.607043828596713
aF0.6267217208682151
aF0.6563774155260674
aF0.5
aF0.5577734713497952
aF0.5233456403081337
aF0.5
aF0.5
aF0.617245385686066
aF0.6876465059093766
aF0.70838596586038
aF0.5692517375501781
aF0.5
aI1
aF0.5
aF0.5973688621439767
aF0.5
aF0.5811526154815995
aF0.611137966799573
aI1
aF0.7110550340917559
aF0.6959949674278685
aF0.6846835705702682
aF0.7085848622356106
aa(lp12
I0
aI1
aI0
aI0
aI1
aI0
aI0
aI0
aI0
aI0
aI0
aI0
aI-1
aI-1
aI-1
aI-1
aI0
aI1
aI0
aI-1
aI0
aI0
aI1
aI0
aI0
aI1
aI0
aI0
aI0
aI0
aI0
aI0
aI0
aI0
aI0
aI0
aI0
aI0
aI0
aI0
aI0
aI0
aI0
aI0
aI0
aI0
aI0
aI0
aI0
aI0
aI0
aI0
aI0
aI0
aI0
aI0
aI0
aI0
aI0
aI0
aI0
aI0
aI0
aI0
aI0
aI0
aI0
aF0.5660501279322816
aF0.5762336016390824
aF0.607043828596713
aF0.5103864223005199
aF0.6052487446301636
aF0.5845182825732097
aF0.5702739089723219
aF0.5156285914792277
aF0.6731411659043034
aI1
aI1
aF0.5103864223005199
aI1
aF0.501152717616773
aF0.7043510771768892
aI1
aF0.6174869490372198
aI1
aI1
aF0.657070774851754
aF0.6483329760144455
aI1
aI1
aa(lp13
I0
aI1
aI0
aI0
aI0
aI1
aI0
aI0
aI0
aI0
aI0
aI0
aI-1
aI-1
aI-1
aI-1
aI0
aI1
aI0
aI-1
aI0
aI0
aI1
aI0
aI0
aI1
aI0
aI0
aI0
aI0
aI0
aI0
aI0
aI0
aI0
aI1
aI0
aI0
aI0
aI0
aI0
aI0
aI0
aI0
aI0
aI0
aI0
aI0
aI0
aI0
aI0
aI0
aI0
aI0
aI0
aI0
aI0
aI0
aI0
aI0
aI0
aI0
aI1
aI0
aI0
aF0.28167468250923683
aF0.7190404418428853
aF0.5978026335112862
aF0.7262490816240235
aF0.5992861775445284
aF0.6954087058631137
aF0.6968555058119087
aF0.7017813141280074
aF0.5
aF0.7114647751190245
aF0.7094305442302373
aF0.7603054525565875
aF0.6677040232029223
aF0.5828667642846106
aI1
aF0.7376816278594948
aI1
aF0.7046548752346717
aF0.6428785562783049
aF0.5978026335112862
aI1
aI1
aF0.7440867143820746
aF0.7445201843771252
aF0.7604398463082618
aa(lp14
I1
aI0
aI0
aI1
aI0
aI0
aI0
aI0
aI0
aI0
aI0
aI0
aI-1
aI-1
aI-1
aI-1
aI1
aI1
aI-1
aI0
aI0
aI0
aI1
aI0
aI0
aI1
aI0
aI0
aI0
aI0
aI0
aI0
aI0
aI0
aI0
aI1
aI0
aI0
aI0
aI0
aI0
aI0
aI0
aI0
aI0
aI0
aI0
aI0
aI0
aI0
aI0
aI0
aI0
aI0
aI0
aI0
aI0
aI0
aI0
aI0
aI0
aI0
aI0
aI0
aI0
aF0.07796333216797775
aI1
aI1
aI1
aI1
aI1
aI1
aI1
aI1
aI1
aI1
aI1
aI1
aI1
aI1
aF0.612922219771836
aI1
aI1
aI1
aI1
aI1
aI1
aI1
aI1
aI1
aa(lp15
I0
aI0
aI1
aI1
aI0
aI0
aI0
aI0
aI0
aI0
aI0
aI0
aI-1
aI-1
aI-1
aI-1
aI-1
aI1
aI0
aI0
aI0
aI0
aI1
aI0
aI0
aI1
aI0
aI0
aI0
aI0
aI0
aI0
aI0
aI0
aI0
aI0
aI0
aI0
aI0
aI0
aI0
aI0
aI0
aI0
aI0
aI0
aI0
aI0
aI0
aI0
aI0
aI0
aI0
aI0
aI0
aI0
aI0
aI0
aI0
aI0
aI0
aI0
aI0
aI0
aI0
aF0.2550352292701209
aF0.607043828596713
aF0.6267217208682151
aF0.6563774155260674
aF0.5
aF0.5577734713497952
aF0.5233456403081337
aF0.5
aF0.5
aF0.617245385686066
aF0.6876465059093766
aF0.70838596586038
aF0.5692517375501781
aF0.5
aI1
aF0.5
aF0.5973688621439767
aF0.5
aF0.5811526154815995
aF0.611137966799573
aI1
aF0.7110550340917559
aF0.6959949674278685
aF0.6846835705702682
aF0.7085848622356106
aa(lp16
I0
aI1
aI0
aI0
aI1
aI0
aI0
aI0
aI0
aI0
aI0
aI0
aI-1
aI-1
aI-1
aI-1
aI0
aI1
aI0
aI0
aI0
aI0
aI1
aI0
aI0
aI1
aI0
aI0
aI0
aI0
aI0
aI0
aI0
aI0
aI0
aI0
aI0
aI0
aI0
aI0
aI0
aI0
aI0
aI0
aI0
aI0
aI0
aI0
aI0
aI0
aI0
aI0
aI0
aI0
aI0
aI0
aI0
aI0
aI0
aI0
aI0
aI0
aI0
aI0
aI0
aI0
aI1
aF0.713647481135548
aI1
aF0.6956110953379331
aF0.7346005249950446
aF0.7288528530969982
aF0.5370497089614356
aF0.6911615182978925
aF0.6958141151403875
aF0.6749092361813647
aF0.7370264191230851
aF0.6544646484291977
aF0.5301827120342527
aI1
aF0.5324301010806834
aI1
aF0.7461686312757765
aF0.6749092361813647
aF0.6749092361813647
aI1
aF0.7273648931283664
aF0.7182571266160148
aF0.6984722881904613
aF0.7557088646975008
aa(lp17
I1
aI0
aI0
aI0
aI0
aI1
aI0
aI0
aI0
aI0
aI0
aI0
aI-1
aI-1
aI-1
aI-1
aI-1
aI1
aI0
aI0
aI0
aI0
aI1
aI0
aI0
aI1
aI0
aI1
aI0
aI0
aI0
aI0
aI0
aI0
aI0
aI0
aI0
aI0
aI0
aI0
aI0
aI0
aI0
aI0
aI0
aI0
aI0
aI0
aI0
aI0
aI0
aI0
aI0
aI0
aI0
aI0
aI0
aI0
aI0
aI0
aI0
aI0
aI0
aI0
aI0
aF0.09304834821163607
aF0.5103864223005199
aF0.5538713657150403
aF0.5080729429727653
aF0.5577734713497952
aI0
aF0.559555501689053
aF0.5296721231718472
aF0.5373705735238783
aF0.5050424974372756
aF0.5882347092592289
aF0.5042028876382034
aF0.6520341313528533
aF0.5
aF0.5463616021300438
aF0.5104692637087912
aF0.67628317488964
aF0.677657585099051
aF0.6015180396823043
aF0.5252601631578121
aI1
aF0.7359695625742199
aF0.5918538188766903
aF0.708962274865639
aF0.6088272405090531
aa(lp18
I0
aI1
aI0
aI0
aI1
aI0
aI0
aI0
aI0
aI0
aI0
aI0
aI-1
aI-1
aI-1
aI-1
aI0
aI1
aI0
aI0
aI0
aI0
aI1
aI0
aI0
aI0
aI0
aI0
aI0
aI0
aI0
aI0
aI0
aI0
aI0
aI0
aI0
aI0
aI0
aI0
aI0
aI0
aI0
aI0
aI0
aI0
aI0
aI0
aI0
aI0
aI0
aI0
aI0
aI0
aI0
aI0
aI0
aI0
aI0
aI0
aI0
aI0
aI0
aI0
aI0
aI1
aF0.5013517352867496
aI1
aF0.6886436456731811
aF0.6497301545436843
aI1
aF0.6044020928225783
aF0.6903798605132824
aF0.6856091855826085
aI1
aF0.7045827652094647
aI1
aI1
aI1
aI1
aF0.6867784182781955
aF0.7291821507906876
aI1
aI1
aI1
aI1
aF0.6900361111705813
aI1
aI1
aI1
aa(lp19
I0
aI0
aI1
aI0
aI0
aI1
aI0
aI0
aI0
aI0
aI0
aI0
aI-1
aI-1
aI-1
aI-1
aI0
aI1
aI0
aI0
aI0
aI0
aI1
aI0
aI0
aI0
aI1
aI0
aI0
aI0
aI0
aI0
aI0
aI0
aI0
aI0
aI0
aI0
aI0
aI0
aI0
aI0
aI0
aI0
aI0
aI0
aI0
aI0
aI0
aI0
aI0
aI0
aI0
aI0
aI0
aI0
aI0
aI0
aI0
aI0
aI0
aI0
aI0
aI0
aI0
aI0
aF0.6248670010876535
aF0.5885705081977534
aF0.599748567888839
aF0.5987124066657765
aF0.6498914741855113
aF0.6659517814681908
aF0.599748567888839
aF0.6641723662903609
aI1
aF0.6472362478078159
aF0.6426171099240235
aF0.6203261362670184
aF0.5674745694817784
aF0.6364018804200309
aF0.5
aF0.6784700885983276
aF0.6608076351549487
aF0.6472362478078159
aF0.5885705081977534
aI1
aI1
aF0.7168781157101335
aF0.7406851949520401
aF0.7570710549742252
aa(lp20
I1
aI0
aI0
aI0
aI0
aI1
aI0
aI0
aI0
aI0
aI0
aI0
aI-1
aI-1
aI-1
aI-1
aI-1
aI1
aI-1
aI0
aI0
aI0
aI1
aI0
aI0
aI0
aI1
aI0
aI0
aI0
aI0
aI0
aI0
aI0
aI0
aI0
aI0
aI0
aI0
aI0
aI0
aI0
aI0
aI0
aI0
aI0
aI0
aI0
aI0
aI0
aI0
aI0
aI0
aI0
aI0
aI0
aI0
aI0
aI0
aI0
aI0
aI0
aI0
aI0
aI0
aF0.15779967308059284
aF0.607043828596713
aF0.6267217208682151
aF0.6563774155260674
aI0
aF0.5577734713497952
aF0.5233456403081337
aF0.5
aF0.5
aF0.617245385686066
aF0.6876465059093766
aF0.70838596586038
aF0.5692517375501781
aF0.5
aI1
aF0.5
aF0.5973688621439767
aF0.5
aF0.5811526154815995
aF0.611137966799573
aI1
aF0.7110550340917559
aF0.6959949674278685
aF0.6846835705702682
aF0.7085848622356106
aa(lp21
I0
aI1
aI0
aI0
aI0
aI1
aI0
aI0
aI0
aI0
aI0
aI0
aI-1
aI-1
aI-1
aI-1
aI0
aI-1
aI-1
aI0
aI0
aI0
aI1
aI0
aI0
aI0
aI1
aI0
aI0
aI0
aI0
aI0
aI0
aI0
aI0
aI0
aI0
aI0
aI0
aI0
aI0
aI0
aI0
aI0
aI0
aI0
aI0
aI0
aI0
aI0
aI0
aI0
aI0
aI0
aI0
aI0
aI0
aI0
aI0
aI0
aI0
aI0
aI0
aI0
aI0
aI0
aF0.7188587750369142
aF0.6542360757995321
aF0.5839500297238596
aF0.7067984036305083
aF0.6661189138066013
aF0.6475359202843274
aF0.6924180981622324
aF0.5288870538820929
aF0.5907154907286783
aF0.5789509023551512
aF0.7236131421883957
aF0.6736541159753553
aF0.5
aF0.6549383429916513
aF0.5393255059369686
aF0.6104213098089664
aF0.6865229613076421
aF0.5789509023551512
aF0.5818935339966861
aI1
aF0.645832665788796
aF0.6354552733397797
aF0.6807048446662528
aF0.7441755222670221
aa(lp22
I0
aI0
aI1
aI1
aI0
aI0
aI0
aI0
aI0
aI0
aI0
aI0
aI-1
aI-1
aI-1
aI-1
aI-1
aI1
aI0
aI0
aI0
aI0
aI1
aI0
aI0
aI1
aI0
aI0
aI0
aI0
aI0
aI0
aI0
aI0
aI0
aI0
aI0
aI0
aI0
aI0
aI0
aI0
aI0
aI0
aI0
aI0
aI0
aI0
aI0
aI0
aI0
aI0
aI0
aI0
aI0
aI0
aI0
aI0
aI0
aI0
aI0
aI0
aI0
aI0
aI0
aF0.15779967308059284
aF0.607043828596713
aF0.6267217208682151
aF0.6563774155260674
aF0.5
aF0.5577734713497952
aF0.5233456403081337
aF0.5
aF0.5
aF0.617245385686066
aF0.6876465059093766
aF0.70838596586038
aF0.5692517375501781
aF0.5
aI1
aF0.5
aF0.5973688621439767
aF0.5
aF0.5811526154815995
aF0.611137966799573
aI1
aF0.7110550340917559
aF0.6959949674278685
aF0.6846835705702682
aF0.7085848622356106
aa(lp23
I1
aI0
aI0
aI1
aI0
aI0
aI0
aI0
aI0
aI0
aI0
aI0
aI-1
aI-1
aI-1
aI-1
aI-1
aI1
aI0
aI0
aI0
aI0
aI1
aI0
aI0
aI1
aI0
aI0
aI0
aI0
aI0
aI0
aI0
aI0
aI0
aI0
aI0
aI0
aI0
aI0
aI0
aI0
aI0
aI0
aI0
aI0
aI0
aI0
aI0
aI0
aI0
aI0
aI0
aI0
aI1
aI0
aI0
aI0
aI0
aI0
aI0
aI0
aI0
aI0
aI0
aI0
aF0.5
aI1
aF0.6892878336798822
aF0.650545216051507
aI1
aF0.7128185562265935
aF0.6910168915360599
aF0.6862659779670712
aI1
aF0.7051627476252371
aI1
aI1
aI1
aI1
aF0.5500749091986674
aF0.7296696441940396
aI1
aI1
aI1
aI1
aF0.6906745560211799
aI1
aI1
aI1
aa(lp24
I1
aI0
aI0
aI0
aI0
aI1
aI0
aI0
aI1
aI0
aI0
aI1
aI-1
aI-1
aI-1
aI-1
aI0
aI1
aI0
aI0
aI0
aI0
aI1
aI0
aI0
aI1
aI1
aI0
aI0
aI0
aI0
aI0
aI0
aI0
aI0
aI0
aI0
aI0
aI0
aI0
aI0
aI0
aI0
aI0
aI0
aI0
aI0
aI0
aI0
aI0
aI0
aI0
aI0
aI0
aI1
aI0
aI0
aI0
aI0
aI0
aI0
aI0
aI0
aI0
aI0
aF0.10300758450285151
aF0.5
aI1
aF0.6892878336798822
aF0.5973688621439767
aF0.67628317488964
aF0.6400140791147305
aF0.5240462374338287
aF0.6242745850549243
aF0.6015909910388126
aF0.5902545845741275
aF0.7349546918626763
aF0.6839762527433063
aF0.5962846535468412
aF0.6664574727306354
aF0.5211810840509955
aI0
aF0.6017842064639691
aF0.5902545845741275
aF0.6717372847546396
aF0.5382970473844628
aI0
aF0.5553775736531282
aF0.6957454165123476
aF0.7539220448953816
aa(lp25
I1
aI0
aI0
aI0
aI0
aI1
aI0
aI0
aI0
aI0
aI0
aI0
aI-1
aI-1
aI-1
aI-1
aI-1
aI1
aI0
aI0
aI0
aI0
aI1
aI0
aI0
aI1
aI1
aI0
aI0
aI0
aI0
aI0
aI0
aI0
aI0
aI0
aI0
aI0
aI0
aI0
aI0
aI0
aI0
aI0
aI0
aI0
aI0
aI0
aI0
aI0
aI0
aI0
aI0
aI0
aI1
aI0
aI0
aI0
aI0
aI0
aI0
aI0
aI0
aI0
aI0
aF0.10300758450285151
aF0.5
aI1
aF0.6892878336798822
aF0.5973688621439767
aF0.67628317488964
aF0.6400140791147305
aF0.5240462374338287
aF0.6242745850549243
aF0.6015909910388126
aF0.5902545845741275
aF0.7349546918626763
aF0.6839762527433063
aF0.5962846535468412
aF0.6664574727306354
aF0.5211810840509955
aI0
aF0.6017842064639691
aF0.5902545845741275
aF0.6717372847546396
aF0.5382970473844628
aI0
aF0.5553775736531282
aF0.6957454165123476
aF0.7539220448953816
aa(lp26
I1
aI0
aI0
aI0
aI0
aI1
aI0
aI0
aI0
aI1
aI1
aI0
aI-1
aI-1
aI-1
aI-1
aI-1
aI1
aI0
aI0
aI0
aI0
aI1
aI0
aI0
aI1
aI1
aI0
aI0
aI0
aI0
aI0
aI0
aI0
aI0
aI0
aI0
aI0
aI0
aI0
aI0
aI0
aI0
aI0
aI0
aI0
aI0
aI0
aI0
aI0
aI0
aI0
aI0
aI0
aI1
aI0
aI0
aI0
aI0
aI0
aI0
aI0
aI0
aI0
aI0
aF0.10300758450285151
aF0.5
aI1
aF0.6892878336798822
aF0.5973688621439767
aF0.67628317488964
aF0.6400140791147305
aF0.5240462374338287
aF0.6242745850549243
aF0.6015909910388126
aF0.5902545845741275
aF0.7349546918626763
aF0.6839762527433063
aF0.5962846535468412
aF0.6664574727306354
aF0.5211810840509955
aI0
aF0.6017842064639691
aF0.5902545845741275
aF0.6717372847546396
aF0.5382970473844628
aI0
aF0.5553775736531282
aF0.6957454165123476
aF0.7539220448953816
aa(lp27
I1
aI0
aI0
aI1
aI0
aI0
aI0
aI0
aI0
aI0
aI0
aI0
aI-1
aI-1
aI-1
aI-1
aI-1
aI1
aI0
aI0
aI0
aI0
aI1
aI0
aI0
aI1
aI0
aI0
aI0
aI0
aI0
aI0
aI0
aI0
aI0
aI0
aI0
aI0
aI0
aI0
aI0
aI0
aI0
aI0
aI0
aI0
aI0
aI0
aI0
aI0
aI0
aI0
aI0
aI0
aI1
aI0
aI0
aI0
aI0
aI0
aI0
aI0
aI0
aI0
aI0
aI0
aF0.5
aI1
aF0.6892878336798822
aF0.650545216051507
aI1
aF0.7128185562265935
aF0.6910168915360599
aF0.6862659779670712
aI1
aF0.7051627476252371
aI1
aI1
aI1
aI1
aF0.5500749091986674
aF0.7296696441940396
aI1
aI1
aI1
aI1
aF0.6906745560211799
aI1
aI1
aI1
aa(lp28
I1
aI0
aI0
aI0
aI0
aI1
aI0
aI0
aI1
aI1
aI1
aI1
aI-1
aI-1
aI-1
aI-1
aI0
aI1
aI0
aI0
aI0
aI0
aI1
aI0
aI0
aI1
aI1
aI0
aI0
aI0
aI0
aI0
aI0
aI0
aI0
aI0
aI0
aI0
aI0
aI0
aI0
aI0
aI0
aI0
aI0
aI0
aI0
aI0
aI0
aI0
aI0
aI0
aI0
aI0
aI1
aI0
aI0
aI0
aI0
aI0
aI0
aI0
aI0
aI0
aI0
aF0.10300758450285151
aF0.5
aI1
aF0.6892878336798822
aF0.5973688621439767
aF0.67628317488964
aF0.6400140791147305
aF0.5240462374338287
aF0.6242745850549243
aF0.6015909910388126
aF0.5902545845741275
aF0.7349546918626763
aF0.6839762527433063
aF0.5962846535468412
aF0.6664574727306354
aF0.5211810840509955
aI0
aF0.6017842064639691
aF0.5902545845741275
aF0.6717372847546396
aF0.5382970473844628
aI0
aF0.5553775736531282
aF0.6957454165123476
aF0.7539220448953816
aa(lp29
I1
aI0
aI0
aI0
aI0
aI1
aI0
aI0
aI0
aI1
aI1
aI0
aI-1
aI-1
aI-1
aI-1
aI-1
aI1
aI0
aI0
aI0
aI0
aI1
aI0
aI0
aI1
aI1
aI0
aI0
aI0
aI0
aI0
aI0
aI0
aI0
aI0
aI0
aI0
aI0
aI0
aI0
aI0
aI0
aI0
aI0
aI0
aI0
aI0
aI0
aI0
aI0
aI0
aI0
aI0
aI1
aI0
aI0
aI0
aI0
aI0
aI0
aI0
aI0
aI0
aI0
aF0.10300758450285151
aF0.5
aI1
aF0.6892878336798822
aF0.5973688621439767
aF0.67628317488964
aF0.6400140791147305
aF0.5240462374338287
aF0.6242745850549243
aF0.6015909910388126
aF0.5902545845741275
aF0.7349546918626763
aF0.6839762527433063
aF0.5962846535468412
aF0.6664574727306354
aF0.5211810840509955
aI0
aF0.6017842064639691
aF0.5902545845741275
aF0.6717372847546396
aF0.5382970473844628
aI0
aF0.5553775736531282
aF0.6957454165123476
aF0.7539220448953816
aa(lp30
I1
aI0
aI0
aI0
aI0
aI1
aI0
aI0
aI0
aI1
aI1
aI0
aI-1
aI-1
aI-1
aI-1
aI-1
aI1
aI0
aI0
aI0
aI0
aI1
aI0
aI0
aI1
aI1
aI0
aI0
aI0
aI0
aI0
aI0
aI0
aI0
aI0
aI0
aI0
aI0
aI0
aI0
aI0
aI0
aI0
aI0
aI0
aI0
aI0
aI0
aI0
aI0
aI0
aI0
aI0
aI1
aI0
aI0
aI0
aI0
aI0
aI0
aI0
aI0
aI0
aI0
aF0.10300758450285151
aF0.5
aI1
aF0.6892878336798822
aF0.5973688621439767
aF0.67628317488964
aF0.6400140791147305
aF0.5240462374338287
aF0.6242745850549243
aF0.6015909910388126
aF0.5902545845741275
aF0.7349546918626763
aF0.6839762527433063
aF0.5962846535468412
aF0.6664574727306354
aF0.5211810840509955
aI0
aF0.6017842064639691
aF0.5902545845741275
aF0.6717372847546396
aF0.5382970473844628
aI0
aF0.5553775736531282
aF0.6957454165123476
aF0.7539220448953816
aa(lp31
I1
aI0
aI0
aI0
aI0
aI1
aI0
aI0
aI0
aI0
aI0
aI0
aI-1
aI-1
aI-1
aI-1
aI-1
aI1
aI0
aI0
aI0
aI0
aI1
aI0
aI0
aI1
aI1
aI0
aI0
aI0
aI0
aI0
aI0
aI0
aI0
aI0
aI0
aI0
aI0
aI0
aI0
aI0
aI0
aI0
aI0
aI0
aI0
aI0
aI0
aI0
aI0
aI0
aI0
aI0
aI1
aI0
aI0
aI0
aI0
aI0
aI0
aI0
aI0
aI0
aI0
aF0.10300758450285151
aF0.5
aI1
aF0.6892878336798822
aF0.5973688621439767
aF0.67628317488964
aF0.6400140791147305
aF0.5240462374338287
aF0.6242745850549243
aF0.6015909910388126
aF0.5902545845741275
aF0.7349546918626763
aF0.6839762527433063
aF0.5962846535468412
aF0.6664574727306354
aF0.5211810840509955
aI0
aF0.6017842064639691
aF0.5902545845741275
aF0.6717372847546396
aF0.5382970473844628
aI0
aF0.5553775736531282
aF0.6957454165123476
aF0.7539220448953816
aa(lp32
I1
aI0
aI0
aI0
aI0
aI1
aI0
aI0
aI0
aI1
aI1
aI0
aI-1
aI-1
aI-1
aI-1
aI-1
aI1
aI0
aI0
aI0
aI0
aI1
aI0
aI0
aI1
aI1
aI0
aI0
aI0
aI0
aI0
aI0
aI0
aI0
aI0
aI0
aI0
aI0
aI0
aI0
aI0
aI0
aI0
aI0
aI0
aI0
aI0
aI0
aI0
aI0
aI0
aI0
aI0
aI1
aI0
aI0
aI0
aI0
aI0
aI0
aI0
aI0
aI0
aI0
aF0.10300758450285151
aF0.5
aI1
aF0.6892878336798822
aF0.5973688621439767
aF0.67628317488964
aF0.6400140791147305
aF0.5240462374338287
aF0.6242745850549243
aF0.6015909910388126
aF0.5902545845741275
aF0.7349546918626763
aF0.6839762527433063
aF0.5962846535468412
aF0.6664574727306354
aF0.5211810840509955
aI0
aF0.6017842064639691
aF0.5902545845741275
aF0.6717372847546396
aF0.5382970473844628
aI0
aF0.5553775736531282
aF0.6957454165123476
aF0.7539220448953816
aa(lp33
I1
aI0
aI0
aI0
aI0
aI1
aI0
aI0
aI0
aI0
aI0
aI0
aI-1
aI-1
aI-1
aI-1
aI-1
aI1
aI0
aI-1
aI0
aI0
aI1
aI0
aI0
aI1
aI0
aI0
aI0
aI0
aI0
aI0
aI0
aI0
aI0
aI0
aI0
aI0
aI0
aI0
aI0
aI0
aI0
aI0
aI0
aI0
aI0
aI0
aI1
aI0
aI0
aI0
aI0
aI0
aI0
aI0
aI0
aI0
aI0
aI0
aI0
aI0
aI0
aI0
aI0
aF0.1137688263266938
aF0.6694150370649532
aF0.6417498765616401
aF0.5
aF0.5692060765317528
aF0.6943120933226714
aF0.5669721448278299
aF0.5368239222327568
aF0.5
aF0.523835697855588
aF0.6630749402735499
aF0.6314822793026725
aF0.6214975441446128
aF0.5692060765317528
aI1
aF0.5296790472576347
aF0.7731053158712572
aF0.5361592754931392
aF0.5696589351798905
aF0.5199767373242329
aI1
aF0.7190901754241309
aF0.7094113479341875
aF0.6883181462584669
aF0.7481113884788531
aa(lp34
I0
aI0
aI1
aI0
aI0
aI1
aI0
aI0
aI1
aI0
aI0
aI1
aI-1
aI-1
aI-1
aI-1
aI0
aI1
aI0
aI-1
aI0
aI0
aI1
aI0
aI0
aI1
aI1
aI0
aI0
aI0
aI0
aI0
aI0
aI0
aI0
aI0
aI0
aI0
aI0
aI0
aI0
aI0
aI0
aI0
aI0
aI0
aI0
aI0
aI1
aI0
aI0
aI0
aI0
aI0
aI0
aI0
aI0
aI0
aI0
aI0
aI0
aI0
aI0
aI0
aI0
aI0
aF0.6694150370649532
aF0.6417498765616401
aF0.5
aF0.5692060765317528
aF0.6943120933226714
aF0.5669721448278299
aF0.5368239222327568
aF0.5
aF0.523835697855588
aF0.6630749402735499
aF0.6314822793026725
aF0.6214975441446128
aF0.5692060765317528
aI1
aF0.5296790472576347
aF0.7731053158712572
aF0.5361592754931392
aF0.5696589351798905
aF0.5199767373242329
aI1
aF0.7190901754241309
aF0.7094113479341875
aF0.6883181462584669
aF0.7481113884788531
aa(lp35
I1
aI0
aI0
aI0
aI0
aI1
aI0
aI0
aI0
aI0
aI0
aI0
aI-1
aI-1
aI-1
aI-1
aI-1
aI1
aI0
aI0
aI0
aI0
aI1
aI0
aI0
aI0
aI1
aI0
aI0
aI0
aI0
aI0
aI0
aI0
aI0
aI0
aI0
aI0
aI0
aI0
aI0
aI0
aI0
aI0
aI0
aI0
aI0
aI0
aI0
aI0
aI0
aI0
aI0
aI0
aI0
aI0
aI0
aI0
aI0
aI1
aI0
aI0
aI0
aI1
aI0
aF0.08746785300046814
aI1
aI1
aI1
aF0.5337013026636382
aF0.5429047615142243
aF0.5
aF0.7081244334821964
aF0.7108054098687346
aF0.6037163777043134
aF0.5727336183849193
aF0.7363611730287866
aF0.6956410850934531
aF0.6088225078031506
aF0.6794248981791163
aF0.5315984120144411
aF0.6312394619182374
aI1
aF0.5727336183849193
aF0.6738919879520486
aI1
aF0.6400140791147305
aF0.6294355650195435
aF0.69759735748837
aF0.7551348864085605
aa(lp36
I1
aI0
aI0
aI0
aI0
aI1
aI0
aI0
aI0
aI1
aI1
aI0
aI-1
aI-1
aI-1
aI-1
aI-1
aI1
aI0
aI-1
aI0
aI0
aI1
aI0
aI0
aI0
aI1
aI0
aI0
aI0
aI0
aI0
aI0
aI0
aI0
aI0
aI0
aI0
aI0
aI0
aI0
aI0
aI0
aI0
aI0
aI0
aI0
aI0
aI0
aI0
aI0
aI0
aI0
aI0
aI0
aI0
aI0
aI0
aI0
aI1
aI0
aI0
aI0
aI1
aI0
aF0.08746785300046814
aI1
aI1
aI1
aF0.5337013026636382
aF0.5429047615142243
aF0.5
aF0.7081244334821964
aF0.7108054098687346
aF0.6037163777043134
aF0.5727336183849193
aF0.7363611730287866
aF0.6956410850934531
aF0.6088225078031506
aF0.6794248981791163
aF0.5315984120144411
aF0.6312394619182374
aI1
aF0.5727336183849193
aF0.6738919879520486
aI1
aF0.6400140791147305
aF0.6294355650195435
aF0.69759735748837
aF0.7551348864085605
aa(lp37
I1
aI0
aI0
aI0
aI0
aI1
aI0
aI0
aI0
aI1
aI1
aI0
aI-1
aI-1
aI-1
aI-1
aI-1
aI1
aI0
aI0
aI0
aI0
aI1
aI0
aI0
aI0
aI1
aI0
aI0
aI0
aI0
aI0
aI0
aI0
aI0
aI0
aI0
aI0
aI0
aI0
aI0
aI0
aI0
aI0
aI0
aI0
aI0
aI0
aI0
aI0
aI0
aI0
aI0
aI0
aI0
aI0
aI0
aI0
aI0
aI1
aI0
aI0
aI0
aI1
aI0
aF0.08746785300046814
aI1
aI1
aI1
aF0.5337013026636382
aF0.5429047615142243
aF0.5
aF0.7081244334821964
aF0.7108054098687346
aF0.6037163777043134
aF0.5727336183849193
aF0.7363611730287866
aF0.6956410850934531
aF0.6088225078031506
aF0.6794248981791163
aF0.5315984120144411
aF0.6312394619182374
aI1
aF0.5727336183849193
aF0.6738919879520486
aI1
aF0.6400140791147305
aF0.6294355650195435
aF0.69759735748837
aF0.7551348864085605
aa(lp38
I1
aI0
aI0
aI0
aI0
aI1
aI0
aI0
aI0
aI1
aI1
aI0
aI-1
aI-1
aI-1
aI-1
aI-1
aI1
aI0
aI-1
aI0
aI0
aI1
aI0
aI0
aI0
aI1
aI0
aI0
aI0
aI0
aI0
aI0
aI0
aI0
aI0
aI0
aI0
aI0
aI0
aI0
aI0
aI0
aI0
aI0
aI0
aI0
aI0
aI0
aI0
aI0
aI0
aI0
aI0
aI0
aI0
aI0
aI0
aI0
aI1
aI0
aI0
aI0
aI1
aI0
aF0.08746785300046814
aI1
aI1
aI1
aF0.5337013026636382
aF0.5429047615142243
aF0.5
aF0.7081244334821964
aF0.7108054098687346
aF0.6037163777043134
aF0.5727336183849193
aF0.7363611730287866
aF0.6956410850934531
aF0.6088225078031506
aF0.6794248981791163
aF0.5315984120144411
aF0.6312394619182374
aI1
aF0.5727336183849193
aF0.6738919879520486
aI1
aF0.6400140791147305
aF0.6294355650195435
aF0.69759735748837
aF0.7551348864085605
aa(lp39
I1
aI0
aI0
aI1
aI0
aI0
aI0
aI0
aI0
aI0
aI0
aI0
aI-1
aI-1
aI-1
aI-1
aI1
aI1
aI0
aI-1
aI0
aI0
aI1
aI0
aI0
aI0
aI0
aI0
aI0
aI0
aI0
aI0
aI0
aI0
aI0
aI0
aI0
aI0
aI0
aI0
aI0
aI0
aI0
aI0
aI0
aI0
aI0
aI0
aI0
aI0
aI0
aI0
aI0
aI0
aI0
aI0
aI0
aI0
aI0
aI1
aI0
aI0
aI0
aI1
aI0
aI0
aI1
aI1
aI1
aF0.5337013026636382
aF0.5429047615142243
aF0.5
aF0.7081244334821964
aF0.7108054098687346
aF0.6037163777043134
aF0.5727336183849193
aF0.7363611730287866
aF0.6956410850934531
aF0.6088225078031506
aF0.6794248981791163
aF0.5315984120144411
aF0.6312394619182374
aI1
aF0.5727336183849193
aF0.6738919879520486
aI1
aF0.6400140791147305
aF0.6294355650195435
aF0.69759735748837
aF0.7551348864085605
aa(lp40
I1
aI0
aI0
aI0
aI0
aI1
aI0
aI0
aI1
aI0
aI0
aI1
aI-1
aI-1
aI-1
aI-1
aI0
aI1
aI0
aI0
aI0
aI0
aI1
aI0
aI0
aI0
aI1
aI0
aI0
aI0
aI0
aI0
aI0
aI0
aI0
aI0
aI0
aI0
aI0
aI0
aI0
aI0
aI0
aI0
aI0
aI0
aI0
aI0
aI0
aI0
aI0
aI0
aI0
aI0
aI0
aI0
aI0
aI0
aI0
aI1
aI0
aI0
aI0
aI1
aI0
aF0.08746785300046814
aI1
aI1
aI1
aF0.5337013026636382
aF0.5429047615142243
aF0.5
aF0.7081244334821964
aF0.7108054098687346
aF0.6037163777043134
aF0.5727336183849193
aF0.7363611730287866
aF0.6956410850934531
aF0.6088225078031506
aF0.6794248981791163
aF0.5315984120144411
aF0.6312394619182374
aI1
aF0.5727336183849193
aF0.6738919879520486
aI1
aF0.6400140791147305
aF0.6294355650195435
aF0.69759735748837
aF0.7551348864085605
aa(lp41
I1
aI0
aI0
aI0
aI0
aI1
aI0
aI0
aI0
aI0
aI0
aI0
aI-1
aI-1
aI-1
aI-1
aI-1
aI1
aI0
aI0
aI0
aI0
aI1
aI0
aI0
aI0
aI1
aI0
aI0
aI0
aI0
aI0
aI0
aI0
aI0
aI0
aI0
aI0
aI0
aI0
aI0
aI0
aI0
aI0
aI0
aI0
aI0
aI0
aI0
aI0
aI0
aI0
aI0
aI0
aI0
aI0
aI0
aI0
aI0
aI1
aI0
aI0
aI0
aI1
aI0
aF0.08746785300046814
aI1
aI1
aI1
aF0.5337013026636382
aF0.5429047615142243
aF0.5
aF0.7081244334821964
aF0.7108054098687346
aF0.6037163777043134
aF0.5727336183849193
aF0.7363611730287866
aF0.6956410850934531
aF0.6088225078031506
aF0.6794248981791163
aF0.5315984120144411
aF0.6312394619182374
aI1
aF0.5727336183849193
aF0.6738919879520486
aI1
aF0.6400140791147305
aF0.6294355650195435
aF0.69759735748837
aF0.7551348864085605
aa(lp42
I1
aI0
aI0
aI0
aI0
aI1
aI0
aI0
aI0
aI1
aI1
aI0
aI-1
aI-1
aI-1
aI-1
aI-1
aI1
aI0
aI-1
aI0
aI0
aI1
aI0
aI0
aI0
aI1
aI0
aI0
aI0
aI0
aI0
aI0
aI0
aI0
aI0
aI0
aI0
aI0
aI0
aI0
aI0
aI0
aI0
aI0
aI0
aI0
aI0
aI0
aI0
aI0
aI0
aI0
aI0
aI0
aI0
aI0
aI0
aI0
aI1
aI0
aI0
aI0
aI1
aI0
aF0.08746785300046814
aI1
aI1
aI1
aF0.5337013026636382
aF0.5429047615142243
aF0.5
aF0.7081244334821964
aF0.7108054098687346
aF0.6037163777043134
aF0.5727336183849193
aF0.7363611730287866
aF0.6956410850934531
aF0.6088225078031506
aF0.6794248981791163
aF0.5315984120144411
aF0.6312394619182374
aI1
aF0.5727336183849193
aF0.6738919879520486
aI1
aF0.6400140791147305
aF0.6294355650195435
aF0.69759735748837
aF0.7551348864085605
aa(lp43
I1
aI0
aI0
aI1
aI0
aI0
aI0
aI0
aI0
aI0
aI0
aI0
aI-1
aI-1
aI-1
aI-1
aI1
aI1
aI0
aI-1
aI0
aI0
aI1
aI0
aI0
aI0
aI0
aI0
aI0
aI0
aI0
aI0
aI0
aI0
aI0
aI0
aI0
aI0
aI0
aI0
aI0
aI0
aI0
aI0
aI0
aI0
aI0
aI0
aI0
aI0
aI0
aI0
aI0
aI0
aI0
aI0
aI0
aI0
aI0
aI1
aI0
aI0
aI0
aI1
aI0
aI0
aI1
aI1
aI1
aF0.5337013026636382
aF0.5429047615142243
aF0.5
aF0.7081244334821964
aF0.7108054098687346
aF0.6037163777043134
aF0.5727336183849193
aF0.7363611730287866
aF0.6956410850934531
aF0.6088225078031506
aF0.6794248981791163
aF0.5315984120144411
aF0.6312394619182374
aI1
aF0.5727336183849193
aF0.6738919879520486
aI1
aF0.6400140791147305
aF0.6294355650195435
aF0.69759735748837
aF0.7551348864085605
aa(lp44
I1
aI0
aI0
aI0
aI0
aI1
aI0
aI0
aI1
aI1
aI1
aI1
aI-1
aI-1
aI-1
aI-1
aI0
aI1
aI0
aI0
aI0
aI0
aI1
aI0
aI0
aI0
aI1
aI0
aI0
aI0
aI0
aI0
aI0
aI0
aI0
aI0
aI0
aI0
aI0
aI0
aI0
aI0
aI0
aI0
aI0
aI0
aI0
aI0
aI0
aI0
aI0
aI0
aI0
aI0
aI0
aI0
aI0
aI0
aI0
aI1
aI0
aI0
aI0
aI1
aI0
aF0.08746785300046814
aI1
aI1
aI1
aF0.5337013026636382
aF0.5429047615142243
aF0.5
aF0.7081244334821964
aF0.7108054098687346
aF0.6037163777043134
aF0.5727336183849193
aF0.7363611730287866
aF0.6956410850934531
aF0.6088225078031506
aF0.6794248981791163
aF0.5315984120144411
aF0.6312394619182374
aI1
aF0.5727336183849193
aF0.6738919879520486
aI1
aF0.6400140791147305
aF0.6294355650195435
aF0.69759735748837
aF0.7551348864085605
aa(lp45
I1
aI0
aI0
aI1
aI0
aI0
aI0
aI0
aI0
aI0
aI0
aI0
aI-1
aI-1
aI-1
aI-1
aI-1
aI1
aI0
aI0
aI0
aI0
aI1
aI0
aI0
aI0
aI1
aI0
aI0
aI0
aI0
aI0
aI0
aI0
aI0
aI0
aI0
aI0
aI0
aI0
aI0
aI0
aI0
aI0
aI0
aI0
aI0
aI0
aI0
aI0
aI0
aI0
aI0
aI0
aI0
aI0
aI0
aI0
aI0
aI1
aI0
aI0
aI0
aI1
aI0
aF0.13615265888860478
aF0.7043510771768892
aI1
aF0.7665741359586784
aF0.5973688621439767
aF0.67628317488964
aF0.6900610861329958
aF0.5240462374338287
aF0.6242745850549243
aI1
aF0.5902545845741275
aI1
aF0.6839762527433063
aF0.5962846535468412
aF0.6664574727306354
aF0.5211810840509955
aF0.5
aF0.6017842064639691
aF0.5902545845741275
aF0.691089818605029
aF0.7087281892142097
aF0.7673576618240046
aF0.6856793837685414
aF0.7371866760277586
aI1
aa(lp46
I1
aI0
aI0
aI1
aI0
aI0
aI0
aI0
aI1
aI0
aI0
aI1
aI-1
aI-1
aI-1
aI-1
aI0
aI1
aI0
aI0
aI0
aI0
aI1
aI0
aI0
aI0
aI1
aI0
aI0
aI0
aI0
aI0
aI0
aI0
aI0
aI0
aI0
aI0
aI0
aI0
aI0
aI0
aI0
aI0
aI0
aI0
aI0
aI0
aI0
aI0
aI0
aI0
aI0
aI0
aI0
aI0
aI0
aI0
aI0
aI1
aI0
aI0
aI0
aI1
aI0
aF0.13615265888860478
aF0.5845182825732097
aF0.5477824374913982
aF0.5
aF0.5
aF0.5296721231718472
aF0.7060216493045898
aF0.5
aF0.5
aF0.5912981335583106
aF0.644652558746943
aF0.5514303052072106
aF0.5692517375501781
aF0.5729717728534833
aI1
aF0.5
aF0.5240462374338287
aF0.5
aF0.644652558746943
aF0.644652558746943
aI1
aF0.7063995534994241
aF0.6915566880665449
aF0.672617169030399
aF0.7085848622356106
aa(lp47
I0
aI1
aI0
aI0
aI0
aI1
aI0
aI0
aI1
aI1
aI1
aI1
aI-1
aI-1
aI-1
aI-1
aI0
aI1
aI0
aI-1
aI0
aI0
aI1
aI0
aI0
aI0
aI1
aI0
aI0
aI0
aI0
aI0
aI0
aI0
aI0
aI0
aI0
aI0
aI0
aI0
aI0
aI0
aI0
aI0
aI0
aI0
aI0
aI0
aI0
aI0
aI0
aI0
aI0
aI0
aI0
aI0
aI0
aI0
aI0
aI0
aI0
aI0
aI0
aI0
aI0
aI1
aI1
aI1
aI1
aI1
aI1
aI1
aI1
aI1
aI1
aI1
aI1
aI1
aI1
aI1
aI1
aI1
aI1
aI1
aI1
aI1
aI1
aI1
aI1
aI1
aa(lp48
I0
aI0
aI1
aI0
aI0
aI1
aI0
aI0
aI0
aI0
aI0
aI0
aI-1
aI-1
aI-1
aI-1
aI-1
aI1
aI0
aI0
aI0
aI0
aI1
aI0
aI0
aI1
aI1
aI0
aI0
aI0
aI0
aI0
aI0
aI0
aI0
aI0
aI0
aI0
aI0
aI0
aI0
aI0
aI0
aI0
aI0
aI0
aI0
aI0
aI0
aI0
aI0
aI0
aI0
aI0
aI0
aI0
aI0
aI0
aI0
aI1
aI0
aI0
aI0
aI1
aI0
aI1
aF0.7043510771768892
aI1
aF0.7665741359586784
aF0.5973688621439767
aF0.67628317488964
aF0.6900610861329958
aF0.5240462374338287
aF0.6242745850549243
aI1
aF0.5902545845741275
aI1
aF0.6839762527433063
aF0.5962846535468412
aF0.6664574727306354
aF0.5211810840509955
aI0
aF0.6017842064639691
aF0.5902545845741275
aF0.691089818605029
aF0.7087281892142097
aF0.7673576618240046
aF0.6856793837685414
aF0.7371866760277586
aI1
aa(lp49
I0
aI0
aI1
aI0
aI0
aI1
aI0
aI0
aI0
aI0
aI0
aI0
aI-1
aI-1
aI-1
aI-1
aI-1
aI1
aI0
aI0
aI0
aI0
aI1
aI0
aI0
aI1
aI0
aI0
aI0
aI0
aI0
aI0
aI0
aI0
aI0
aI0
aI0
aI0
aI0
aI0
aI0
aI0
aI0
aI0
aI0
aI0
aI0
aI0
aI0
aI0
aI0
aI0
aI0
aI0
aI0
aI0
aI0
aI0
aI0
aI1
aI0
aI0
aI0
aI1
aI0
aI1
aI1
aI1
aI1
aI1
aI1
aI1
aI1
aI1
aI1
aI1
aI1
aI1
aI1
aI1
aI1
aI1
aI1
aI1
aI1
aI1
aI1
aI1
aI1
aI1
aa(lp50
I0
aI0
aI1
aI0
aI0
aI1
aI0
aI0
aI1
aI0
aI0
aI1
aI-1
aI-1
aI-1
aI-1
aI0
aI1
aI0
aI0
aI0
aI0
aI1
aI0
aI0
aI1
aI1
aI0
aI0
aI0
aI0
aI0
aI0
aI0
aI0
aI0
aI0
aI0
aI0
aI0
aI0
aI0
aI0
aI0
aI0
aI0
aI0
aI0
aI0
aI0
aI0
aI0
aI0
aI0
aI0
aI0
aI0
aI0
aI0
aI1
aI0
aI0
aI0
aI1
aI0
aI1
aF0.7043510771768892
aI1
aF0.7665741359586784
aF0.5973688621439767
aF0.67628317488964
aF0.6900610861329958
aF0.5240462374338287
aF0.6242745850549243
aI1
aF0.5902545845741275
aI1
aF0.6839762527433063
aF0.5962846535468412
aF0.6664574727306354
aF0.5211810840509955
aI0
aF0.6017842064639691
aF0.5902545845741275
aF0.691089818605029
aF0.7087281892142097
aF0.7673576618240046
aF0.6856793837685414
aF0.7371866760277586
aI1
aa(lp51
I0
aI0
aI1
aI0
aI0
aI1
aI0
aI0
aI0
aI0
aI0
aI0
aI-1
aI-1
aI-1
aI-1
aI-1
aI1
aI0
aI0
aI0
aI0
aI1
aI0
aI0
aI1
aI0
aI0
aI0
aI0
aI0
aI0
aI0
aI0
aI0
aI0
aI0
aI0
aI0
aI0
aI0
aI0
aI0
aI0
aI0
aI0
aI0
aI0
aI0
aI0
aI0
aI0
aI0
aI0
aI0
aI0
aI0
aI0
aI0
aI1
aI0
aI0
aI0
aI1
aI0
aI1
aI1
aI1
aI1
aI1
aI1
aI1
aI1
aI1
aI1
aI1
aI1
aI1
aI1
aI1
aI1
aI1
aI1
aI1
aI1
aI1
aI1
aI1
aI1
aI1
aa(lp52
I0
aI0
aI1
aI0
aI0
aI1
aI0
aI0
aI0
aI0
aI0
aI0
aI-1
aI-1
aI-1
aI-1
aI-1
aI1
aI0
aI0
aI0
aI0
aI1
aI0
aI0
aI1
aI1
aI0
aI0
aI0
aI0
aI0
aI0
aI0
aI0
aI0
aI0
aI0
aI0
aI0
aI0
aI0
aI0
aI0
aI0
aI0
aI0
aI0
aI0
aI0
aI0
aI0
aI0
aI0
aI0
aI0
aI0
aI0
aI0
aI1
aI0
aI0
aI0
aI1
aI0
aI1
aF0.7043510771768892
aI1
aF0.7665741359586784
aF0.5973688621439767
aF0.67628317488964
aF0.6900610861329958
aF0.5240462374338287
aF0.6242745850549243
aI1
aF0.5902545845741275
aI1
aF0.6839762527433063
aF0.5962846535468412
aF0.6664574727306354
aF0.5211810840509955
aI0
aF0.6017842064639691
aF0.5902545845741275
aF0.691089818605029
aF0.7087281892142097
aF0.7673576618240046
aF0.6856793837685414
aF0.7371866760277586
aI1
aa(lp53
I0
aI0
aI1
aI0
aI0
aI1
aI0
aI0
aI0
aI1
aI1
aI0
aI-1
aI-1
aI-1
aI-1
aI-1
aI1
aI0
aI0
aI0
aI0
aI1
aI0
aI0
aI1
aI1
aI0
aI0
aI0
aI0
aI0
aI0
aI0
aI0
aI0
aI0
aI0
aI0
aI0
aI0
aI0
aI0
aI0
aI0
aI0
aI0
aI0
aI0
aI0
aI0
aI0
aI0
aI0
aI0
aI0
aI0
aI0
aI0
aI1
aI0
aI0
aI0
aI1
aI0
aI1
aF0.7043510771768892
aI1
aF0.7665741359586784
aF0.5973688621439767
aF0.67628317488964
aF0.6900610861329958
aF0.5240462374338287
aF0.6242745850549243
aI1
aF0.5902545845741275
aI1
aF0.6839762527433063
aF0.5962846535468412
aF0.6664574727306354
aF0.5211810840509955
aI0
aF0.6017842064639691
aF0.5902545845741275
aF0.691089818605029
aF0.7087281892142097
aF0.7673576618240046
aF0.6856793837685414
aF0.7371866760277586
aI1
aa(lp54
I0
aI0
aI1
aI1
aI0
aI0
aI0
aI0
aI0
aI1
aI1
aI0
aI-1
aI-1
aI-1
aI-1
aI0
aI1
aI0
aI0
aI0
aI0
aI1
aI0
aI0
aI0
aI0
aI0
aI0
aI0
aI0
aI0
aI0
aI0
aI0
aI0
aI0
aI0
aI0
aI0
aI0
aI0
aI0
aI0
aI0
aI0
aI0
aI0
aI0
aI0
aI0
aI0
aI0
aI0
aI0
aI0
aI0
aI0
aI0
aI1
aI0
aI0
aI0
aI1
aI0
aF0.1804111715779821
aF0.5103864223005199
aF0.5763785548030264
aF0.5711003125832678
aF0.5
aF0.5
aF0.5939517300936757
aF0.5729717728534833
aF0.5
aF0.5050424974372756
aF0.5515819430924429
aF0.728090750079668
aF0.5917806850848999
aF0.5
aF0.5
aF0.5876028204815266
aF0.5962846535468412
aF0.6061479218472771
aF0.5515819430924429
aF0.5515819430924429
aF0.6224964761253446
aF0.7177485733328628
aF0.5726707012896084
aF0.5980425737457671
aF0.6196664887721092
aa(lp55
I0
aI0
aI1
aI1
aI0
aI0
aI0
aI0
aI0
aI1
aI1
aI0
aI-1
aI-1
aI-1
aI-1
aI0
aI1
aI0
aI0
aI0
aI0
aI1
aI0
aI0
aI0
aI0
aI0
aI0
aI0
aI0
aI0
aI0
aI0
aI0
aI0
aI0
aI0
aI0
aI0
aI0
aI0
aI0
aI0
aI0
aI0
aI0
aI0
aI0
aI0
aI0
aI0
aI0
aI0
aI0
aI0
aI0
aI0
aI0
aI1
aI0
aI0
aI0
aI1
aI0
aF0.1804111715779821
aF0.5103864223005199
aF0.5763785548030264
aF0.5711003125832678
aF0.5
aF0.5
aF0.5939517300936757
aF0.5729717728534833
aF0.5
aF0.5050424974372756
aF0.5515819430924429
aF0.728090750079668
aF0.5917806850848999
aF0.5
aF0.5
aF0.5876028204815266
aF0.5962846535468412
aF0.6061479218472771
aF0.5515819430924429
aF0.5515819430924429
aF0.6224964761253446
aF0.7177485733328628
aF0.5726707012896084
aF0.5980425737457671
aF0.6196664887721092
aa(lp56
I1
aI0
aI0
aI1
aI0
aI0
aI0
aI0
aI0
aI1
aI1
aI0
aI-1
aI-1
aI-1
aI-1
aI-1
aI1
aI0
aI0
aI0
aI0
aI1
aI0
aI0
aI0
aI1
aI0
aI0
aI0
aI0
aI0
aI0
aI0
aI0
aI0
aI0
aI0
aI0
aI0
aI0
aI0
aI0
aI0
aI0
aI0
aI0
aI0
aI0
aI0
aI0
aI0
aI0
aI0
aI0
aI0
aI0
aI0
aI0
aI1
aI0
aI0
aI0
aI1
aI0
aF0.1804111715779821
aF0.5103864223005199
aF0.5763785548030264
aF0.5711003125832678
aF0.5
aF0.5
aF0.5939517300936757
aF0.5729717728534833
aF0.5
aF0.5050424974372756
aF0.5515819430924429
aF0.728090750079668
aF0.5917806850848999
aF0.5
aF0.5
aF0.5876028204815266
aF0.5962846535468412
aF0.6061479218472771
aF0.5515819430924429
aF0.5515819430924429
aF0.6224964761253446
aF0.7177485733328628
aF0.5726707012896084
aF0.5980425737457671
aF0.6196664887721092
aa(lp57
I1
aI0
aI0
aI0
aI0
aI1
aI0
aI0
aI1
aI0
aI0
aI1
aI-1
aI-1
aI-1
aI-1
aI0
aI1
aI0
aI0
aI0
aI0
aI1
aI0
aI0
aI0
aI1
aI0
aI0
aI0
aI0
aI0
aI0
aI0
aI0
aI0
aI0
aI0
aI0
aI0
aI0
aI0
aI0
aI0
aI0
aI0
aI0
aI0
aI0
aI0
aI0
aI0
aI0
aI0
aI0
aI0
aI0
aI0
aI0
aI1
aI0
aI0
aI0
aI1
aI0
aF0.1804111715779821
aF0.5103864223005199
aF0.5763785548030264
aF0.5711003125832678
aF0.5
aF0.5
aF0.5939517300936757
aF0.5729717728534833
aF0.5
aF0.5050424974372756
aF0.5515819430924429
aF0.728090750079668
aF0.5917806850848999
aI0
aF0.5
aF0.5876028204815266
aF0.5962846535468412
aF0.6061479218472771
aF0.5515819430924429
aF0.5515819430924429
aF0.6224964761253446
aF0.7177485733328628
aF0.5726707012896084
aF0.5980425737457671
aF0.6196664887721092
aa(lp58
I0
aI0
aI1
aI1
aI0
aI0
aI0
aI0
aI0
aI0
aI0
aI0
aI-1
aI-1
aI-1
aI-1
aI-1
aI1
aI0
aI0
aI0
aI0
aI1
aI0
aI0
aI0
aI0
aI0
aI0
aI0
aI0
aI0
aI0
aI0
aI0
aI0
aI0
aI0
aI0
aI0
aI0
aI0
aI0
aI0
aI0
aI0
aI0
aI0
aI0
aI0
aI0
aI0
aI0
aI0
aI0
aI0
aI0
aI0
aI0
aI1
aI0
aI0
aI0
aI1
aI0
aF0.1804111715779821
aF0.5103864223005199
aF0.5763785548030264
aF0.5711003125832678
aF0.5
aF0.5
aF0.5939517300936757
aF0.5729717728534833
aF0.5
aF0.5050424974372756
aF0.5515819430924429
aF0.728090750079668
aF0.5917806850848999
aF0.5
aF0.5
aF0.5876028204815266
aF0.5962846535468412
aF0.6061479218472771
aF0.5515819430924429
aF0.5515819430924429
aF0.6224964761253446
aF0.7177485733328628
aF0.5726707012896084
aF0.5980425737457671
aF0.6196664887721092
aa(lp59
I1
aI0
aI0
aI1
aI0
aI0
aI0
aI0
aI0
aI1
aI1
aI0
aI-1
aI-1
aI-1
aI-1
aI-1
aI1
aI0
aI0
aI0
aI0
aI1
aI0
aI0
aI0
aI1
aI0
aI0
aI0
aI0
aI0
aI0
aI0
aI0
aI0
aI0
aI0
aI0
aI0
aI0
aI0
aI0
aI0
aI0
aI0
aI0
aI0
aI0
aI0
aI0
aI0
aI0
aI0
aI0
aI0
aI0
aI0
aI0
aI1
aI0
aI0
aI0
aI1
aI0
aF0.1804111715779821
aF0.5103864223005199
aF0.5763785548030264
aF0.5711003125832678
aF0.5
aF0.5
aF0.5939517300936757
aF0.5729717728534833
aF0.5
aF0.5050424974372756
aF0.5515819430924429
aF0.728090750079668
aF0.5917806850848999
aF0.5
aF0.5
aF0.5876028204815266
aF0.5962846535468412
aF0.6061479218472771
aF0.5515819430924429
aF0.5515819430924429
aF0.6224964761253446
aF0.7177485733328628
aF0.5726707012896084
aF0.5980425737457671
aF0.6196664887721092
aa(lp60
I1
aI0
aI0
aI0
aI0
aI1
aI0
aI0
aI0
aI0
aI0
aI0
aI-1
aI-1
aI-1
aI-1
aI-1
aI1
aI0
aI0
aI0
aI0
aI1
aI0
aI0
aI0
aI1
aI0
aI0
aI0
aI0
aI0
aI0
aI0
aI0
aI0
aI0
aI0
aI0
aI0
aI0
aI0
aI0
aI0
aI0
aI0
aI0
aI0
aI0
aI0
aI0
aI0
aI0
aI0
aI0
aI0
aI0
aI0
aI0
aI1
aI0
aI0
aI0
aI1
aI0
aF0.11591663735286703
aF0.5845182825732097
aF0.5477824374913982
aF0.5
aF0.5
aF0.5296721231718472
aF0.7060216493045898
aI0
aF0.5
aF0.5912981335583106
aF0.644652558746943
aF0.5514303052072106
aF0.5692517375501781
aF0.5729717728534833
aI1
aF0.5
aF0.5240462374338287
aF0.5
aF0.644652558746943
aF0.644652558746943
aI1
aF0.7063995534994241
aF0.6915566880665449
aF0.672617169030399
aF0.7085848622356106
aa(lp61
I0
aI0
aI1
aI1
aI0
aI0
aI0
aI0
aI1
aI1
aI1
aI1
aI-1
aI-1
aI-1
aI-1
aI0
aI1
aI0
aI0
aI0
aI0
aI1
aI0
aI0
aI0
aI0
aI0
aI0
aI0
aI0
aI0
aI0
aI0
aI0
aI0
aI0
aI0
aI0
aI0
aI0
aI0
aI0
aI0
aI0
aI0
aI0
aI0
aI0
aI0
aI0
aI0
aI0
aI0
aI0
aI0
aI0
aI0
aI0
aI1
aI0
aI0
aI0
aI1
aI0
aF0.1804111715779821
aF0.5103864223005199
aF0.5763785548030264
aF0.5711003125832678
aF0.5
aF0.5
aF0.5939517300936757
aF0.5729717728534833
aF0.5
aF0.5050424974372756
aF0.5515819430924429
aF0.728090750079668
aF0.5917806850848999
aF0.5
aF0.5
aF0.5876028204815266
aF0.5962846535468412
aF0.6061479218472771
aF0.5515819430924429
aF0.5515819430924429
aF0.6224964761253446
aF0.7177485733328628
aF0.5726707012896084
aF0.5980425737457671
aF0.6196664887721092
aa(lp62
I0
aI0
aI1
aI1
aI0
aI0
aI0
aI0
aI0
aI0
aI0
aI0
aI-1
aI-1
aI-1
aI-1
aI-1
aI1
aI0
aI0
aI0
aI0
aI1
aI0
aI0
aI0
aI0
aI0
aI0
aI0
aI0
aI0
aI0
aI0
aI0
aI0
aI0
aI0
aI0
aI0
aI0
aI0
aI0
aI0
aI0
aI0
aI0
aI0
aI0
aI0
aI0
aI0
aI0
aI0
aI0
aI0
aI0
aI0
aI0
aI1
aI0
aI0
aI0
aI1
aI0
aF0.1804111715779821
aF0.5103864223005199
aF0.5763785548030264
aF0.5711003125832678
aF0.5
aF0.5
aF0.5939517300936757
aF0.5729717728534833
aF0.5
aF0.5050424974372756
aF0.5515819430924429
aF0.728090750079668
aF0.5917806850848999
aF0.5
aF0.5
aF0.5876028204815266
aF0.5962846535468412
aF0.6061479218472771
aF0.5515819430924429
aF0.5515819430924429
aF0.6224964761253446
aF0.7177485733328628
aF0.5726707012896084
aF0.5980425737457671
aF0.6196664887721092
aa(lp63
I1
aI0
aI0
aI0
aI0
aI1
aI0
aI0
aI1
aI0
aI0
aI1
aI-1
aI-1
aI-1
aI-1
aI0
aI1
aI0
aI0
aI0
aI0
aI1
aI0
aI0
aI0
aI1
aI0
aI0
aI0
aI0
aI0
aI0
aI0
aI0
aI0
aI0
aI0
aI0
aI0
aI0
aI0
aI0
aI0
aI0
aI0
aI0
aI0
aI0
aI0
aI0
aI0
aI0
aI0
aI0
aI0
aI0
aI0
aI0
aI1
aI0
aI0
aI0
aI1
aI0
aF0.1804111715779821
aF0.5103864223005199
aF0.5763785548030264
aF0.5711003125832678
aF0.5
aF0.5
aF0.5939517300936757
aF0.5729717728534833
aF0.5
aF0.5050424974372756
aF0.5515819430924429
aF0.728090750079668
aF0.5917806850848999
aI0
aF0.5
aF0.5876028204815266
aF0.5962846535468412
aF0.6061479218472771
aF0.5515819430924429
aF0.5515819430924429
aF0.6224964761253446
aF0.7177485733328628
aF0.5726707012896084
aF0.5980425737457671
aF0.6196664887721092
aa(lp64
I0
aI0
aI1
aI1
aI0
aI0
aI0
aI0
aI0
aI0
aI0
aI0
aI-1
aI-1
aI-1
aI-1
aI-1
aI1
aI0
aI0
aI0
aI0
aI1
aI0
aI0
aI0
aI0
aI0
aI0
aI0
aI0
aI0
aI0
aI0
aI0
aI0
aI0
aI0
aI0
aI0
aI0
aI0
aI0
aI0
aI0
aI0
aI0
aI0
aI0
aI0
aI0
aI0
aI0
aI0
aI0
aI0
aI0
aI0
aI0
aI1
aI0
aI0
aI0
aI1
aI0
aF0.1804111715779821
aF0.5103864223005199
aF0.5763785548030264
aF0.5711003125832678
aF0.5
aF0.5
aF0.5939517300936757
aF0.5729717728534833
aF0.5
aF0.5050424974372756
aF0.5515819430924429
aF0.728090750079668
aF0.5917806850848999
aF0.5
aF0.5
aF0.5876028204815266
aF0.5962846535468412
aF0.6061479218472771
aF0.5515819430924429
aF0.5515819430924429
aF0.6224964761253446
aF0.7177485733328628
aF0.5726707012896084
aF0.5980425737457671
aF0.6196664887721092
aa(lp65
I1
aI0
aI0
aI1
aI0
aI0
aI0
aI0
aI0
aI1
aI1
aI0
aI-1
aI-1
aI-1
aI-1
aI-1
aI1
aI0
aI0
aI0
aI0
aI1
aI0
aI0
aI0
aI1
aI0
aI0
aI0
aI0
aI0
aI0
aI0
aI0
aI0
aI0
aI0
aI0
aI0
aI0
aI0
aI0
aI0
aI0
aI0
aI0
aI0
aI0
aI0
aI0
aI0
aI0
aI0
aI0
aI0
aI0
aI0
aI0
aI1
aI0
aI0
aI0
aI1
aI0
aF0.1804111715779821
aF0.5103864223005199
aF0.5763785548030264
aF0.5711003125832678
aF0.5
aF0.5
aF0.5939517300936757
aF0.5729717728534833
aF0.5
aF0.5050424974372756
aF0.5515819430924429
aF0.728090750079668
aF0.5917806850848999
aF0.5
aF0.5
aF0.5876028204815266
aF0.5962846535468412
aF0.6061479218472771
aF0.5515819430924429
aF0.5515819430924429
aF0.6224964761253446
aF0.7177485733328628
aF0.5726707012896084
aF0.5980425737457671
aF0.6196664887721092
aa(lp66
I0
aI0
aI1
aI1
aI0
aI0
aI0
aI0
aI0
aI0
aI0
aI0
aI-1
aI-1
aI-1
aI-1
aI-1
aI1
aI0
aI0
aI0
aI0
aI1
aI0
aI0
aI0
aI0
aI0
aI0
aI0
aI0
aI0
aI0
aI0
aI0
aI0
aI0
aI0
aI0
aI0
aI0
aI0
aI0
aI0
aI0
aI0
aI0
aI0
aI0
aI0
aI0
aI0
aI0
aI0
aI0
aI0
aI0
aI0
aI0
aI1
aI0
aI0
aI0
aI1
aI0
aF0.1804111715779821
aF0.5103864223005199
aF0.5763785548030264
aF0.5711003125832678
aF0.5
aF0.5
aF0.5939517300936757
aF0.5729717728534833
aF0.5
aF0.5050424974372756
aF0.5515819430924429
aF0.728090750079668
aF0.5917806850848999
aF0.5
aF0.5
aF0.5876028204815266
aF0.5962846535468412
aF0.6061479218472771
aF0.5515819430924429
aF0.5515819430924429
aF0.6224964761253446
aF0.7177485733328628
aF0.5726707012896084
aF0.5980425737457671
aF0.6196664887721092
aa(lp67
I1
aI0
aI0
aI0
aI0
aI1
aI0
aI0
aI0
aI0
aI0
aI0
aI-1
aI-1
aI-1
aI-1
aI-1
aI1
aI0
aI0
aI0
aI0
aI1
aI0
aI0
aI0
aI1
aI0
aI0
aI0
aI0
aI0
aI0
aI0
aI0
aI0
aI0
aI0
aI0
aI0
aI0
aI0
aI0
aI0
aI0
aI0
aI0
aI0
aI0
aI0
aI0
aI0
aI0
aI0
aI0
aI0
aI0
aI0
aI0
aI1
aI0
aI0
aI0
aI1
aI0
aF0.11591663735286703
aF0.5845182825732097
aF0.5477824374913982
aF0.5
aF0.5
aF0.5296721231718472
aF0.7060216493045898
aI0
aF0.5
aF0.5912981335583106
aF0.644652558746943
aF0.5514303052072106
aF0.5692517375501781
aF0.5729717728534833
aI1
aF0.5
aF0.5240462374338287
aF0.5
aF0.644652558746943
aF0.644652558746943
aI1
aF0.7063995534994241
aF0.6915566880665449
aF0.672617169030399
aF0.7085848622356106
aa(lp68
I0
aI0
aI1
aI1
aI0
aI0
aI0
aI0
aI1
aI0
aI0
aI1
aI-1
aI-1
aI-1
aI-1
aI-1
aI1
aI0
aI0
aI0
aI0
aI1
aI0
aI0
aI0
aI0
aI0
aI0
aI0
aI0
aI0
aI0
aI0
aI0
aI0
aI0
aI0
aI0
aI0
aI0
aI0
aI0
aI0
aI0
aI0
aI0
aI0
aI0
aI0
aI0
aI0
aI0
aI0
aI0
aI0
aI0
aI0
aI0
aI1
aI0
aI0
aI0
aI1
aI0
aF0.1804111715779821
aF0.5103864223005199
aF0.5763785548030264
aF0.5711003125832678
aF0.5
aF0.5
aF0.5939517300936757
aF0.5729717728534833
aF0.5
aF0.5050424974372756
aF0.5515819430924429
aF0.728090750079668
aF0.5917806850848999
aF0.5
aF0.5
aF0.5876028204815266
aF0.5962846535468412
aF0.6061479218472771
aF0.5515819430924429
aF0.5515819430924429
aF0.6224964761253446
aF0.7177485733328628
aF0.5726707012896084
aF0.5980425737457671
aF0.6196664887721092
aa(lp69
I1
aI0
aI0
aI0
aI0
aI1
aI0
aI0
aI0
aI0
aI0
aI0
aI-1
aI-1
aI-1
aI-1
aI-1
aI1
aI-1
aI0
aI0
aI0
aI1
aI0
aI0
aI0
aI1
aI0
aI0
aI0
aI0
aI0
aI0
aI0
aI0
aI0
aI0
aI0
aI0
aI0
aI0
aI0
aI0
aI0
aI0
aI0
aI0
aI0
aI0
aI0
aI0
aI0
aI0
aI0
aI1
aI0
aI0
aI0
aI0
aI0
aI0
aI0
aI0
aI0
aI0
aF0.15779967308059284
aF0.607043828596713
aF0.6267217208682151
aF0.6563774155260674
aI0
aF0.5577734713497952
aF0.5233456403081337
aF0.5
aF0.5
aF0.617245385686066
aF0.6876465059093766
aF0.70838596586038
aF0.5692517375501781
aF0.5
aI1
aF0.5
aF0.5973688621439767
aF0.5
aF0.5811526154815995
aF0.611137966799573
aI1
aF0.7110550340917559
aF0.6959949674278685
aF0.6846835705702682
aF0.7085848622356106
aa(lp70
I1
aI0
aI0
aI0
aI0
aI1
aI0
aI0
aI0
aI1
aI1
aI0
aI-1
aI-1
aI-1
aI-1
aI-1
aI1
aI0
aI0
aI0
aI0
aI1
aI0
aI0
aI0
aI1
aI0
aI0
aI0
aI0
aI0
aI0
aI0
aI0
aI0
aI0
aI0
aI0
aI0
aI0
aI0
aI0
aI0
aI0
aI0
aI0
aI0
aI0
aI0
aI0
aI0
aI0
aI0
aI0
aI0
aI0
aI0
aI0
aI1
aI0
aI0
aI0
aI1
aI0
aF0.08746785300046814
aI1
aI1
aI1
aF0.5337013026636382
aF0.5429047615142243
aF0.5
aF0.7081244334821964
aF0.7108054098687346
aF0.6037163777043134
aF0.5727336183849193
aF0.7363611730287866
aF0.6956410850934531
aF0.6088225078031506
aF0.6794248981791163
aF0.5315984120144411
aF0.6312394619182374
aI1
aF0.5727336183849193
aF0.6738919879520486
aI1
aF0.6400140791147305
aF0.6294355650195435
aF0.69759735748837
aF0.7551348864085605
aa(lp71
I1
aI0
aI0
aI0
aI0
aI1
aI0
aI0
aI0
aI1
aI1
aI0
aI-1
aI-1
aI-1
aI-1
aI-1
aI1
aI0
aI-1
aI0
aI0
aI1
aI0
aI0
aI0
aI1
aI0
aI0
aI0
aI0
aI0
aI0
aI0
aI0
aI0
aI0
aI0
aI0
aI0
aI0
aI0
aI0
aI0
aI0
aI0
aI0
aI0
aI0
aI0
aI0
aI0
aI0
aI0
aI0
aI0
aI0
aI0
aI0
aI1
aI0
aI0
aI0
aI1
aI0
aF0.08746785300046814
aI1
aI1
aI1
aF0.5337013026636382
aF0.5429047615142243
aF0.5
aF0.7081244334821964
aF0.7108054098687346
aF0.6037163777043134
aF0.5727336183849193
aF0.7363611730287866
aF0.6956410850934531
aF0.6088225078031506
aF0.6794248981791163
aF0.5315984120144411
aF0.6312394619182374
aI1
aF0.5727336183849193
aF0.6738919879520486
aI1
aF0.6400140791147305
aF0.6294355650195435
aF0.69759735748837
aF0.7551348864085605
aa(lp72
I1
aI0
aI0
aI1
aI0
aI0
aI0
aI0
aI0
aI0
aI0
aI0
aI-1
aI-1
aI-1
aI-1
aI1
aI1
aI0
aI-1
aI0
aI0
aI1
aI0
aI0
aI0
aI0
aI0
aI0
aI0
aI0
aI0
aI0
aI0
aI0
aI0
aI0
aI0
aI0
aI0
aI0
aI0
aI0
aI0
aI0
aI0
aI0
aI0
aI0
aI0
aI0
aI0
aI0
aI0
aI0
aI0
aI0
aI0
aI0
aI1
aI0
aI0
aI0
aI1
aI0
aI0
aI1
aI1
aI1
aF0.5337013026636382
aF0.5429047615142243
aF0.5
aF0.7081244334821964
aF0.7108054098687346
aF0.6037163777043134
aF0.5727336183849193
aF0.7363611730287866
aF0.6956410850934531
aF0.6088225078031506
aF0.6794248981791163
aF0.5315984120144411
aF0.6312394619182374
aI1
aF0.5727336183849193
aF0.6738919879520486
aI1
aF0.6400140791147305
aF0.6294355650195435
aF0.69759735748837
aF0.7551348864085605
aa(lp73
I1
aI0
aI0
aI0
aI0
aI1
aI0
aI0
aI1
aI0
aI0
aI1
aI-1
aI-1
aI-1
aI-1
aI0
aI1
aI0
aI0
aI0
aI0
aI1
aI0
aI0
aI0
aI1
aI0
aI0
aI0
aI0
aI0
aI0
aI0
aI0
aI0
aI0
aI0
aI0
aI0
aI0
aI0
aI0
aI0
aI0
aI0
aI0
aI0
aI0
aI0
aI0
aI0
aI0
aI0
aI0
aI0
aI0
aI0
aI0
aI1
aI0
aI0
aI0
aI1
aI0
aF0.08746785300046814
aI1
aI1
aI1
aF0.5337013026636382
aF0.5429047615142243
aF0.5
aF0.7081244334821964
aF0.7108054098687346
aF0.6037163777043134
aF0.5727336183849193
aF0.7363611730287866
aF0.6956410850934531
aF0.6088225078031506
aF0.6794248981791163
aF0.5315984120144411
aF0.6312394619182374
aI1
aF0.5727336183849193
aF0.6738919879520486
aI1
aF0.6400140791147305
aF0.6294355650195435
aF0.69759735748837
aF0.7551348864085605
aa(lp74
I1
aI0
aI0
aI0
aI0
aI1
aI0
aI0
aI0
aI0
aI0
aI0
aI-1
aI-1
aI-1
aI-1
aI-1
aI1
aI0
aI0
aI0
aI0
aI1
aI0
aI0
aI0
aI1
aI0
aI0
aI0
aI0
aI0
aI0
aI0
aI0
aI0
aI0
aI0
aI0
aI0
aI0
aI0
aI0
aI0
aI0
aI0
aI0
aI0
aI0
aI0
aI0
aI0
aI0
aI0
aI0
aI0
aI0
aI0
aI0
aI1
aI0
aI0
aI0
aI1
aI0
aF0.08746785300046814
aI1
aI1
aI1
aF0.5337013026636382
aF0.5429047615142243
aF0.5
aF0.7081244334821964
aF0.7108054098687346
aF0.6037163777043134
aF0.5727336183849193
aF0.7363611730287866
aF0.6956410850934531
aF0.6088225078031506
aF0.6794248981791163
aF0.5315984120144411
aF0.6312394619182374
aI1
aF0.5727336183849193
aF0.6738919879520486
aI1
aF0.6400140791147305
aF0.6294355650195435
aF0.69759735748837
aF0.7551348864085605
aa(lp75
I1
aI0
aI0
aI0
aI0
aI1
aI0
aI0
aI0
aI1
aI1
aI0
aI-1
aI-1
aI-1
aI-1
aI-1
aI1
aI0
aI-1
aI0
aI0
aI1
aI0
aI0
aI0
aI1
aI0
aI0
aI0
aI0
aI0
aI0
aI0
aI0
aI0
aI0
aI0
aI0
aI0
aI0
aI0
aI0
aI0
aI0
aI0
aI0
aI0
aI0
aI0
aI0
aI0
aI0
aI0
aI0
aI0
aI0
aI0
aI0
aI1
aI0
aI0
aI0
aI1
aI0
aF0.08746785300046814
aI1
aI1
aI1
aF0.5337013026636382
aF0.5429047615142243
aF0.5
aF0.7081244334821964
aF0.7108054098687346
aF0.6037163777043134
aF0.5727336183849193
aF0.7363611730287866
aF0.6956410850934531
aF0.6088225078031506
aF0.6794248981791163
aF0.5315984120144411
aF0.6312394619182374
aI1
aF0.5727336183849193
aF0.6738919879520486
aI1
aF0.6400140791147305
aF0.6294355650195435
aF0.69759735748837
aF0.7551348864085605
aa(lp76
I1
aI0
aI0
aI1
aI0
aI0
aI0
aI0
aI0
aI0
aI0
aI0
aI-1
aI-1
aI-1
aI-1
aI1
aI1
aI0
aI-1
aI0
aI0
aI1
aI0
aI0
aI0
aI0
aI0
aI0
aI0
aI0
aI0
aI0
aI0
aI0
aI0
aI0
aI0
aI0
aI0
aI0
aI0
aI0
aI0
aI0
aI0
aI0
aI0
aI0
aI0
aI0
aI0
aI0
aI0
aI0
aI0
aI0
aI0
aI0
aI1
aI0
aI0
aI0
aI1
aI0
aI0
aI1
aI1
aI1
aF0.5337013026636382
aF0.5429047615142243
aF0.5
aF0.7081244334821964
aF0.7108054098687346
aF0.6037163777043134
aF0.5727336183849193
aF0.7363611730287866
aF0.6956410850934531
aF0.6088225078031506
aF0.6794248981791163
aF0.5315984120144411
aF0.6312394619182374
aI1
aF0.5727336183849193
aF0.6738919879520486
aI1
aF0.6400140791147305
aF0.6294355650195435
aF0.69759735748837
aF0.7551348864085605
aa(lp77
I1
aI0
aI0
aI0
aI0
aI1
aI0
aI0
aI1
aI1
aI1
aI1
aI-1
aI-1
aI-1
aI-1
aI0
aI1
aI0
aI0
aI0
aI0
aI1
aI0
aI0
aI0
aI1
aI0
aI0
aI0
aI0
aI0
aI0
aI0
aI0
aI0
aI0
aI0
aI0
aI0
aI0
aI0
aI0
aI0
aI0
aI0
aI0
aI0
aI0
aI0
aI0
aI0
aI0
aI0
aI0
aI0
aI0
aI0
aI0
aI1
aI0
aI0
aI0
aI1
aI0
aF0.08746785300046814
aI1
aI1
aI1
aF0.5337013026636382
aF0.5429047615142243
aF0.5
aF0.7081244334821964
aF0.7108054098687346
aF0.6037163777043134
aF0.5727336183849193
aF0.7363611730287866
aF0.6956410850934531
aF0.6088225078031506
aF0.6794248981791163
aF0.5315984120144411
aF0.6312394619182374
aI1
aF0.5727336183849193
aF0.6738919879520486
aI1
aF0.6400140791147305
aF0.6294355650195435
aF0.69759735748837
aF0.7551348864085605
aa(lp78
I1
aI0
aI0
aI0
aI0
aI1
aI0
aI0
aI0
aI0
aI0
aI0
aI-1
aI-1
aI-1
aI-1
aI-1
aI1
aI0
aI0
aI0
aI0
aI1
aI0
aI0
aI0
aI1
aI0
aI0
aI0
aI0
aI0
aI0
aI0
aI0
aI0
aI0
aI0
aI0
aI0
aI0
aI0
aI0
aI0
aI0
aI0
aI0
aI0
aI0
aI0
aI0
aI0
aI0
aI0
aI0
aI0
aI0
aI0
aI0
aI1
aI0
aI0
aI0
aI1
aI0
aF0.08746785300046814
aI1
aI1
aI1
aF0.5337013026636382
aF0.5429047615142243
aF0.5
aF0.7081244334821964
aF0.7108054098687346
aF0.6037163777043134
aF0.5727336183849193
aF0.7363611730287866
aF0.6956410850934531
aF0.6088225078031506
aF0.6794248981791163
aF0.5315984120144411
aF0.6312394619182374
aI1
aF0.5727336183849193
aF0.6738919879520486
aI1
aF0.6400140791147305
aF0.6294355650195435
aF0.69759735748837
aF0.7551348864085605
aa(lp79
I1
aI0
aI0
aI0
aI0
aI1
aI0
aI0
aI0
aI1
aI1
aI0
aI-1
aI-1
aI-1
aI-1
aI-1
aI1
aI0
aI-1
aI0
aI0
aI1
aI0
aI0
aI0
aI1
aI0
aI0
aI0
aI0
aI0
aI0
aI0
aI0
aI0
aI0
aI0
aI0
aI0
aI0
aI0
aI0
aI0
aI0
aI0
aI0
aI0
aI0
aI0
aI0
aI0
aI0
aI0
aI0
aI0
aI0
aI0
aI0
aI1
aI0
aI0
aI0
aI1
aI0
aF0.08746785300046814
aI1
aI1
aI1
aF0.5337013026636382
aF0.5429047615142243
aF0.5
aF0.7081244334821964
aF0.7108054098687346
aF0.6037163777043134
aF0.5727336183849193
aF0.7363611730287866
aF0.6956410850934531
aF0.6088225078031506
aF0.6794248981791163
aF0.5315984120144411
aF0.6312394619182374
aI1
aF0.5727336183849193
aF0.6738919879520486
aI1
aF0.6400140791147305
aF0.6294355650195435
aF0.69759735748837
aF0.7551348864085605
aa(lp80
I1
aI0
aI0
aI1
aI0
aI0
aI0
aI0
aI0
aI0
aI0
aI0
aI-1
aI-1
aI-1
aI-1
aI1
aI1
aI0
aI0
aI0
aI0
aI1
aI0
aI0
aI1
aI1
aI0
aI0
aI0
aI0
aI0
aI0
aI0
aI0
aI0
aI0
aI0
aI0
aI0
aI0
aI0
aI0
aI0
aI0
aI0
aI0
aI0
aI0
aI0
aI0
aI0
aI0
aI0
aI1
aI0
aI0
aI0
aI0
aI0
aI0
aI0
aI0
aI0
aI0
aF0.14733949909459276
aF0.5103864223005199
aF0.5763785548030264
aF0.5711003125832678
aF0.5
aF0.5
aF0.5939517300936757
aF0.5729717728534833
aF0.5
aF0.5050424974372756
aF0.5515819430924429
aF0.728090750079668
aF0.5917806850848999
aF0.5
aF0.5
aF0.5876028204815266
aF0.5962846535468412
aF0.6061479218472771
aF0.5515819430924429
aF0.5515819430924429
aF0.6224964761253446
aF0.7177485733328628
aF0.5726707012896084
aF0.5980425737457671
aF0.6196664887721092
aa(lp81
I1
aI0
aI0
aI1
aI0
aI0
aI0
aI0
aI0
aI0
aI0
aI0
aI-1
aI-1
aI-1
aI-1
aI-1
aI1
aI0
aI0
aI0
aI0
aI1
aI0
aI0
aI1
aI1
aI0
aI0
aI0
aI0
aI0
aI0
aI0
aI0
aI0
aI0
aI0
aI0
aI0
aI0
aI0
aI0
aI0
aI0
aI0
aI0
aI0
aI0
aI0
aI0
aI0
aI0
aI0
aI1
aI0
aI0
aI0
aI0
aI0
aI0
aI0
aI0
aI0
aI0
aI0
aF0.5
aI1
aF0.6892878336798822
aF0.650545216051507
aI1
aF0.7128185562265935
aF0.6910168915360599
aF0.6862659779670712
aI1
aF0.7051627476252371
aI1
aI1
aI1
aI1
aF0.5500749091986674
aF0.7296696441940396
aI1
aI1
aI1
aI1
aF0.6906745560211799
aI1
aI1
aI1
aa(lp82
I1
aI0
aI0
aI1
aI0
aI0
aI0
aI0
aI0
aI1
aI1
aI0
aI-1
aI-1
aI-1
aI-1
aI-1
aI1
aI0
aI0
aI0
aI0
aI1
aI0
aI0
aI1
aI1
aI0
aI0
aI0
aI0
aI0
aI0
aI0
aI0
aI0
aI0
aI0
aI0
aI0
aI0
aI0
aI0
aI0
aI0
aI0
aI0
aI0
aI0
aI0
aI0
aI0
aI0
aI0
aI1
aI0
aI0
aI0
aI0
aI0
aI0
aI0
aI0
aI0
aI0
aI0
aF0.5
aI1
aF0.6892878336798822
aF0.650545216051507
aI1
aF0.7128185562265935
aF0.6910168915360599
aF0.6862659779670712
aI1
aF0.7051627476252371
aI1
aI1
aI1
aI1
aF0.5500749091986674
aF0.7296696441940396
aI1
aI1
aI1
aI1
aF0.6906745560211799
aI1
aI1
aI1
aa(lp83
I1
aI0
aI0
aI0
aI0
aI1
aI0
aI0
aI0
aI0
aI0
aI0
aI-1
aI1
aI-1
aI-1
aI-1
aI1
aI0
aI0
aI0
aI0
aI1
aI0
aI0
aI1
aI0
aI0
aI0
aI0
aI0
aI0
aI0
aI0
aI0
aI0
aI0
aI0
aI0
aI0
aI0
aI0
aI0
aI0
aI0
aI0
aI0
aI0
aI0
aI0
aI0
aI0
aI0
aI0
aI0
aI0
aI0
aI0
aI0
aI0
aI0
aI0
aI0
aI0
aI0
aF0.09420020916031033
aF0.7043510771768892
aI1
aF0.7665741359586784
aF0.5973688621439767
aF0.67628317488964
aF0.6900610861329958
aF0.5240462374338287
aF0.6242745850549243
aI1
aF0.5902545845741275
aI1
aF0.6839762527433063
aF0.5962846535468412
aF0.6664574727306354
aF0.5211810840509955
aI0
aF0.6017842064639691
aF0.5902545845741275
aF0.691089818605029
aF0.7087281892142097
aF0.7673576618240046
aF0.6856793837685414
aF0.7371866760277586
aI1
aa(lp84
I0
aI0
aI1
aI0
aI0
aI1
aI0
aI0
aI1
aI0
aI0
aI1
aI-1
aI-1
aI-1
aI1
aI-1
aI1
aI0
aI0
aI0
aI0
aI1
aI0
aI0
aI0
aI0
aI0
aI0
aI0
aI0
aI0
aI0
aI0
aI0
aI0
aI0
aI0
aI0
aI0
aI0
aI0
aI0
aI0
aI0
aI0
aI0
aI0
aI0
aI0
aI0
aI0
aI0
aI0
aI0
aI0
aI0
aI0
aI0
aI0
aI0
aI0
aI0
aI0
aI0
aI1
aI1
aI1
aI1
aI1
aI1
aI1
aI1
aI1
aI1
aI1
aI1
aI1
aI1
aI1
aI1
aI1
aI1
aI1
aI1
aI1
aI1
aI1
aI1
aI1
aa(lp85
I0
aI0
aI1
aI0
aI0
aI1
aI0
aI0
aI0
aI0
aI0
aI0
aI1
aI-1
aI-1
aI1
aI-1
aI1
aI0
aI0
aI0
aI0
aI1
aI0
aI0
aI0
aI0
aI0
aI0
aI0
aI0
aI0
aI0
aI0
aI0
aI0
aI0
aI0
aI0
aI0
aI0
aI0
aI0
aI0
aI0
aI0
aI0
aI0
aI0
aI0
aI0
aI0
aI0
aI0
aI0
aI0
aI0
aI0
aI0
aI0
aI0
aI0
aI0
aI0
aI0
aI1
aI1
aI1
aI1
aI1
aI1
aI1
aI1
aI1
aI1
aI1
aI1
aI1
aI1
aI1
aI1
aI1
aI1
aI1
aI1
aI1
aI1
aI1
aI1
aI1
aa(lp86
I1
aI0
aI0
aI0
aI0
aI1
aI0
aI0
aI0
aI1
aI1
aI0
aI-1
aI-1
aI-1
aI-1
aI-1
aI1
aI0
aI0
aI0
aI0
aI1
aI0
aI0
aI1
aI0
aI0
aI0
aI0
aI0
aI0
aI0
aI0
aI0
aI0
aI0
aI0
aI0
aI0
aI0
aI0
aI0
aI0
aI0
aI0
aI0
aI0
aI0
aI0
aI0
aI0
aI0
aI0
aI0
aI0
aI0
aI0
aI0
aI0
aI0
aI0
aI0
aI0
aI0
aI1
aI1
aI1
aI1
aI1
aI1
aI1
aI1
aI1
aI1
aI1
aI1
aI1
aI1
aI1
aI1
aI1
aI1
aI1
aI1
aI1
aI1
aI1
aI1
aI1
aa(lp87
I1
aI0
aI0
aI0
aI0
aI1
aI0
aI0
aI0
aI0
aI0
aI0
aI-1
aI-1
aI-1
aI-1
aI-1
aI-1
aI0
aI0
aI0
aI0
aI1
aI0
aI0
aI0
aI1
aI0
aI0
aI0
aI0
aI0
aI0
aI0
aI0
aI0
aI0
aI0
aI0
aI0
aI0
aI0
aI0
aI0
aI0
aI0
aI0
aI0
aI0
aI0
aI0
aI0
aI0
aI0
aI1
aI0
aI0
aI0
aI0
aI0
aI0
aI0
aI0
aI0
aI0
aF0.15779967308059284
aF0.607043828596713
aF0.6267217208682151
aF0.6563774155260674
aI0
aF0.5577734713497952
aF0.5233456403081337
aF0.5
aF0.5
aF0.617245385686066
aF0.6876465059093766
aF0.70838596586038
aF0.5692517375501781
aF0.5
aI1
aF0.5
aF0.5973688621439767
aF0.5
aF0.5811526154815995
aF0.611137966799573
aI1
aF0.7110550340917559
aF0.6959949674278685
aF0.6846835705702682
aF0.7085848622356106
aa(lp88
I1
aI0
aI0
aI0
aI0
aI1
aI0
aI0
aI0
aI0
aI0
aI0
aI-1
aI-1
aI-1
aI-1
aI-1
aI1
aI0
aI0
aI0
aI0
aI1
aI0
aI0
aI0
aI1
aI0
aI0
aI0
aI0
aI0
aI0
aI0
aI0
aI0
aI0
aI0
aI0
aI0
aI0
aI0
aI0
aI0
aI0
aI0
aI0
aI0
aI0
aI0
aI0
aI0
aI0
aI0
aI1
aI0
aI0
aI0
aI0
aI0
aI0
aI0
aI0
aI0
aI0
aF0.15779967308059284
aF0.607043828596713
aF0.6267217208682151
aF0.6563774155260674
aI0
aF0.5577734713497952
aF0.5233456403081337
aF0.5
aF0.5
aF0.617245385686066
aF0.6876465059093766
aF0.70838596586038
aF0.5692517375501781
aF0.5
aI1
aF0.5
aF0.5973688621439767
aF0.5
aF0.5811526154815995
aF0.611137966799573
aI1
aF0.7110550340917559
aF0.6959949674278685
aF0.6846835705702682
aF0.7085848622356106
aa(lp89
I1
aI0
aI0
aI1
aI0
aI0
aI0
aI0
aI0
aI0
aI0
aI0
aI-1
aI-1
aI-1
aI-1
aI-1
aI1
aI1
aI0
aI0
aI0
aI1
aI0
aI0
aI0
aI0
aI0
aI0
aI0
aI0
aI0
aI0
aI0
aI0
aI0
aI0
aI0
aI0
aI0
aI0
aI0
aI0
aI0
aI0
aI0
aI0
aI0
aI1
aI0
aI0
aI0
aI0
aI0
aI0
aI0
aI0
aI0
aI0
aI0
aI0
aI0
aI0
aI0
aI0
aI0
aF0.607043828596713
aF0.6267217208682151
aF0.6563774155260674
aF0.5
aF0.5577734713497952
aF0.5233456403081337
aF0.5
aF0.5
aF0.617245385686066
aF0.6876465059093766
aF0.70838596586038
aF0.5692517375501781
aF0.5
aI1
aF0.5
aF0.5973688621439767
aF0.5
aF0.5811526154815995
aF0.611137966799573
aI1
aF0.7110550340917559
aF0.6959949674278685
aF0.6846835705702682
aF0.7085848622356106
aa(lp90
I0
aI0
aI1
aI0
aI0
aI1
aI0
aI0
aI0
aI1
aI1
aI0
aI-1
aI-1
aI-1
aI-1
aI0
aI1
aI0
aI0
aI0
aI0
aI1
aI0
aI0
aI1
aI0
aI0
aI0
aI0
aI0
aI0
aI0
aI0
aI0
aI0
aI0
aI0
aI0
aI0
aI0
aI0
aI0
aI0
aI0
aI0
aI0
aI0
aI0
aI0
aI0
aI0
aI0
aI0
aI1
aI0
aI0
aI0
aI0
aI0
aI0
aI0
aI0
aI0
aI0
aI0
aI1
aI1
aI1
aI1
aI1
aI1
aI1
aI1
aI1
aI1
aI1
aI1
aI1
aI1
aI1
aI1
aI1
aI1
aI1
aI1
aI1
aI1
aI1
aI1
aa(lp91
I0
aI0
aI1
aI1
aI0
aI0
aI0
aI0
aI1
aI0
aI0
aI1
aI-1
aI-1
aI-1
aI-1
aI-1
aI1
aI0
aI0
aI0
aI0
aI1
aI0
aI0
aI0
aI1
aI0
aI0
aI0
aI0
aI0
aI0
aI0
aI0
aI0
aI0
aI0
aI0
aI0
aI0
aI0
aI0
aI0
aI0
aI0
aI0
aI0
aI0
aI0
aI0
aI0
aI0
aI0
aI1
aI0
aI0
aI0
aI0
aI0
aI0
aI0
aI0
aI0
aI0
aI1
aF0.607043828596713
aF0.6267217208682151
aF0.6563774155260674
aF0.5
aF0.5577734713497952
aF0.5233456403081337
aF0.5
aF0.5
aF0.617245385686066
aF0.6876465059093766
aF0.70838596586038
aF0.5692517375501781
aF0.5
aI1
aF0.5
aF0.5973688621439767
aF0.5
aF0.5811526154815995
aF0.611137966799573
aI1
aF0.7110550340917559
aF0.6959949674278685
aF0.6846835705702682
aF0.7085848622356106
aa(lp92
I0
aI0
aI1
aI1
aI0
aI0
aI0
aI0
aI0
aI0
aI0
aI0
aI-1
aI-1
aI-1
aI-1
aI-1
aI1
aI0
aI0
aI0
aI0
aI1
aI0
aI0
aI0
aI1
aI0
aI0
aI0
aI0
aI0
aI0
aI0
aI0
aI0
aI0
aI0
aI0
aI0
aI0
aI0
aI0
aI0
aI0
aI0
aI0
aI0
aI0
aI0
aI0
aI0
aI0
aI0
aI1
aI0
aI0
aI0
aI0
aI0
aI0
aI0
aI0
aI0
aI0
aI1
aF0.607043828596713
aF0.6267217208682151
aF0.6563774155260674
aF0.5
aF0.5577734713497952
aF0.5233456403081337
aF0.5
aF0.5
aF0.617245385686066
aF0.6876465059093766
aF0.70838596586038
aF0.5692517375501781
aF0.5
aI1
aF0.5
aF0.5973688621439767
aF0.5
aF0.5811526154815995
aF0.611137966799573
aI1
aF0.7110550340917559
aF0.6959949674278685
aF0.6846835705702682
aF0.7085848622356106
aa(lp93
I0
aI0
aI1
aI1
aI0
aI0
aI0
aI0
aI0
aI1
aI1
aI0
aI-1
aI-1
aI-1
aI-1
aI0
aI1
aI0
aI0
aI0
aI0
aI1
aI0
aI0
aI1
aI1
aI0
aI0
aI0
aI0
aI0
aI0
aI0
aI0
aI0
aI0
aI0
aI0
aI0
aI0
aI0
aI0
aI0
aI0
aI0
aI0
aI0
aI0
aI0
aI0
aI0
aI0
aI0
aI1
aI0
aI0
aI0
aI0
aI0
aI0
aI0
aI0
aI0
aI0
aI1
aF0.607043828596713
aF0.6267217208682151
aF0.6563774155260674
aF0.5
aF0.5577734713497952
aF0.5233456403081337
aF0.5
aF0.5
aF0.617245385686066
aF0.6876465059093766
aF0.70838596586038
aF0.5692517375501781
aF0.5
aI1
aF0.5
aF0.5973688621439767
aF0.5
aF0.5811526154815995
aF0.611137966799573
aI1
aF0.7110550340917559
aF0.6959949674278685
aF0.6846835705702682
aF0.7085848622356106
aa(lp94
I0
aI0
aI1
aI0
aI0
aI1
aI0
aI0
aI0
aI0
aI0
aI0
aI-1
aI-1
aI-1
aI-1
aI0
aI1
aI0
aI0
aI0
aI0
aI1
aI0
aI0
aI1
aI0
aI0
aI0
aI0
aI0
aI0
aI0
aI0
aI0
aI0
aI0
aI0
aI0
aI0
aI0
aI0
aI0
aI0
aI0
aI0
aI0
aI0
aI0
aI0
aI0
aI0
aI0
aI0
aI1
aI0
aI0
aI0
aI0
aI0
aI0
aI0
aI0
aI0
aI0
aI0
aI1
aI1
aI1
aI1
aI1
aI1
aI1
aI1
aI1
aI1
aI1
aI1
aI1
aI1
aI1
aI1
aI1
aI1
aI1
aI1
aI1
aI1
aI1
aI1
aa(lp95
I0
aI0
aI1
aI1
aI0
aI0
aI0
aI0
aI1
aI1
aI1
aI1
aI-1
aI-1
aI-1
aI-1
aI0
aI1
aI0
aI0
aI0
aI0
aI1
aI0
aI0
aI0
aI1
aI0
aI0
aI0
aI0
aI0
aI0
aI0
aI0
aI0
aI0
aI0
aI0
aI0
aI0
aI0
aI0
aI0
aI0
aI0
aI0
aI0
aI0
aI0
aI0
aI0
aI0
aI0
aI1
aI0
aI0
aI0
aI0
aI0
aI0
aI0
aI0
aI0
aI0
aI1
aF0.607043828596713
aF0.6267217208682151
aF0.6563774155260674
aF0.5
aF0.5577734713497952
aF0.5233456403081337
aF0.5
aF0.5
aF0.617245385686066
aF0.6876465059093766
aF0.70838596586038
aF0.5692517375501781
aF0.5
aI1
aF0.5
aF0.5973688621439767
aF0.5
aF0.5811526154815995
aF0.611137966799573
aI1
aF0.7110550340917559
aF0.6959949674278685
aF0.6846835705702682
aF0.7085848622356106
aa(lp96
I0
aI0
aI1
aI0
aI0
aI1
aI0
aI0
aI0
aI0
aI0
aI0
aI-1
aI-1
aI-1
aI-1
aI0
aI1
aI0
aI0
aI0
aI0
aI1
aI0
aI0
aI1
aI0
aI0
aI0
aI0
aI0
aI0
aI0
aI0
aI0
aI0
aI0
aI0
aI0
aI0
aI0
aI0
aI0
aI0
aI0
aI0
aI0
aI0
aI0
aI0
aI0
aI0
aI0
aI0
aI1
aI0
aI0
aI0
aI0
aI0
aI0
aI0
aI0
aI0
aI0
aI0
aI1
aI1
aI1
aI1
aI1
aI1
aI1
aI1
aI1
aI1
aI1
aI1
aI1
aI1
aI1
aI1
aI1
aI1
aI1
aI1
aI1
aI1
aI1
aI1
aa(lp97
I0
aI0
aI1
aI1
aI0
aI0
aI0
aI0
aI1
aI0
aI0
aI1
aI-1
aI-1
aI-1
aI-1
aI-1
aI1
aI0
aI0
aI0
aI0
aI1
aI0
aI0
aI0
aI1
aI0
aI0
aI0
aI0
aI0
aI0
aI0
aI0
aI0
aI0
aI0
aI0
aI0
aI0
aI0
aI0
aI0
aI0
aI0
aI0
aI0
aI0
aI0
aI0
aI0
aI0
aI0
aI1
aI0
aI0
aI0
aI0
aI0
aI0
aI0
aI0
aI0
aI0
aI1
aF0.607043828596713
aF0.6267217208682151
aF0.6563774155260674
aF0.5
aF0.5577734713497952
aF0.5233456403081337
aF0.5
aF0.5
aF0.617245385686066
aF0.6876465059093766
aF0.70838596586038
aF0.5692517375501781
aF0.5
aI1
aF0.5
aF0.5973688621439767
aF0.5
aF0.5811526154815995
aF0.611137966799573
aI1
aF0.7110550340917559
aF0.6959949674278685
aF0.6846835705702682
aF0.7085848622356106
aa(lp98
I0
aI0
aI1
aI0
aI0
aI1
aI0
aI0
aI0
aI0
aI0
aI0
aI-1
aI-1
aI-1
aI-1
aI0
aI1
aI0
aI0
aI0
aI0
aI1
aI0
aI0
aI1
aI0
aI0
aI0
aI0
aI0
aI0
aI0
aI0
aI0
aI0
aI0
aI0
aI0
aI0
aI0
aI0
aI0
aI0
aI0
aI0
aI0
aI0
aI0
aI0
aI0
aI0
aI0
aI0
aI1
aI0
aI0
aI0
aI0
aI0
aI0
aI0
aI0
aI0
aI0
aI0
aI1
aI1
aI1
aI1
aI1
aI1
aI1
aI1
aI1
aI1
aI1
aI1
aI1
aI1
aI1
aI1
aI1
aI1
aI1
aI1
aI1
aI1
aI1
aI1
aa(lp99
I0
aI0
aI1
aI1
aI0
aI0
aI0
aI0
aI0
aI1
aI1
aI0
aI-1
aI-1
aI-1
aI-1
aI0
aI1
aI0
aI0
aI0
aI0
aI1
aI0
aI0
aI0
aI1
aI0
aI0
aI0
aI0
aI0
aI0
aI0
aI0
aI0
aI0
aI0
aI0
aI0
aI0
aI0
aI0
aI0
aI0
aI0
aI0
aI0
aI0
aI0
aI0
aI0
aI0
aI0
aI1
aI0
aI0
aI0
aI0
aI0
aI0
aI0
aI0
aI0
aI0
aI1
aF0.607043828596713
aF0.6267217208682151
aF0.6563774155260674
aF0.5
aF0.5577734713497952
aF0.5233456403081337
aF0.5
aF0.5
aF0.617245385686066
aF0.6876465059093766
aF0.70838596586038
aF0.5692517375501781
aF0.5
aI1
aF0.5
aF0.5973688621439767
aF0.5
aF0.5811526154815995
aF0.611137966799573
aI1
aF0.7110550340917559
aF0.6959949674278685
aF0.6846835705702682
aF0.7085848622356106
aa(lp100
I0
aI0
aI1
aI1
aI0
aI0
aI0
aI0
aI0
aI1
aI1
aI0
aI-1
aI-1
aI-1
aI-1
aI0
aI1
aI0
aI0
aI0
aI0
aI1
aI0
aI0
aI1
aI1
aI0
aI0
aI0
aI0
aI0
aI0
aI0
aI0
aI0
aI0
aI0
aI0
aI0
aI0
aI0
aI0
aI0
aI0
aI0
aI0
aI0
aI0
aI0
aI0
aI0
aI0
aI0
aI1
aI0
aI0
aI0
aI0
aI0
aI0
aI0
aI0
aI0
aI0
aI1
aF0.607043828596713
aF0.6267217208682151
aF0.6563774155260674
aF0.5
aF0.5577734713497952
aF0.5233456403081337
aF0.5
aF0.5
aF0.617245385686066
aF0.6876465059093766
aF0.70838596586038
aF0.5692517375501781
aF0.5
aI1
aF0.5
aF0.5973688621439767
aF0.5
aF0.5811526154815995
aF0.611137966799573
aI1
aF0.7110550340917559
aF0.6959949674278685
aF0.6846835705702682
aF0.7085848622356106
aa(lp101
I0
aI0
aI1
aI1
aI0
aI0
aI0
aI0
aI0
aI0
aI0
aI0
aI-1
aI-1
aI-1
aI-1
aI-1
aI1
aI0
aI0
aI0
aI0
aI1
aI0
aI0
aI0
aI1
aI0
aI0
aI0
aI0
aI0
aI0
aI0
aI0
aI0
aI0
aI0
aI0
aI0
aI0
aI0
aI0
aI0
aI0
aI0
aI0
aI0
aI0
aI0
aI0
aI0
aI0
aI0
aI1
aI0
aI0
aI0
aI0
aI0
aI0
aI0
aI0
aI0
aI0
aI1
aF0.607043828596713
aF0.6267217208682151
aF0.6563774155260674
aF0.5
aF0.5577734713497952
aF0.5233456403081337
aF0.5
aF0.5
aF0.617245385686066
aF0.6876465059093766
aF0.70838596586038
aF0.5692517375501781
aF0.5
aI1
aF0.5
aF0.5973688621439767
aF0.5
aF0.5811526154815995
aF0.611137966799573
aI1
aF0.7110550340917559
aF0.6959949674278685
aF0.6846835705702682
aF0.7085848622356106
aa(lp102
I0
aI0
aI1
aI1
aI0
aI0
aI0
aI0
aI0
aI1
aI1
aI0
aI-1
aI-1
aI-1
aI-1
aI0
aI1
aI0
aI0
aI0
aI0
aI1
aI0
aI0
aI1
aI1
aI0
aI0
aI0
aI0
aI0
aI0
aI0
aI0
aI0
aI0
aI0
aI0
aI0
aI0
aI0
aI0
aI0
aI0
aI0
aI0
aI0
aI0
aI0
aI0
aI0
aI0
aI0
aI1
aI0
aI0
aI0
aI0
aI0
aI0
aI0
aI0
aI0
aI0
aI1
aF0.607043828596713
aF0.6267217208682151
aF0.6563774155260674
aF0.5
aF0.5577734713497952
aF0.5233456403081337
aF0.5
aF0.5
aF0.617245385686066
aF0.6876465059093766
aF0.70838596586038
aF0.5692517375501781
aF0.5
aI1
aF0.5
aF0.5973688621439767
aF0.5
aF0.5811526154815995
aF0.611137966799573
aI1
aF0.7110550340917559
aF0.6959949674278685
aF0.6846835705702682
aF0.7085848622356106
aa(lp103
I0
aI0
aI1
aI0
aI0
aI1
aI0
aI0
aI0
aI0
aI0
aI0
aI-1
aI-1
aI-1
aI-1
aI0
aI1
aI0
aI0
aI0
aI0
aI1
aI0
aI0
aI1
aI0
aI0
aI0
aI0
aI0
aI0
aI0
aI0
aI0
aI0
aI0
aI0
aI0
aI0
aI0
aI0
aI0
aI0
aI0
aI0
aI0
aI0
aI0
aI0
aI0
aI0
aI0
aI0
aI1
aI0
aI0
aI0
aI0
aI0
aI0
aI0
aI0
aI0
aI0
aI0
aI1
aI1
aI1
aI1
aI1
aI1
aI1
aI1
aI1
aI1
aI1
aI1
aI1
aI1
aI1
aI1
aI1
aI1
aI1
aI1
aI1
aI1
aI1
aI1
aa(lp104
I0
aI0
aI1
aI1
aI0
aI0
aI0
aI0
aI1
aI0
aI0
aI1
aI-1
aI-1
aI-1
aI-1
aI-1
aI1
aI0
aI0
aI0
aI0
aI1
aI0
aI0
aI0
aI1
aI0
aI0
aI0
aI0
aI0
aI0
aI0
aI0
aI0
aI0
aI0
aI0
aI0
aI0
aI0
aI0
aI0
aI0
aI0
aI0
aI0
aI0
aI0
aI0
aI0
aI0
aI0
aI1
aI0
aI0
aI0
aI0
aI0
aI0
aI0
aI0
aI0
aI0
aI1
aF0.607043828596713
aF0.6267217208682151
aF0.6563774155260674
aF0.5
aF0.5577734713497952
aF0.5233456403081337
aF0.5
aF0.5
aF0.617245385686066
aF0.6876465059093766
aF0.70838596586038
aF0.5692517375501781
aF0.5
aI1
aF0.5
aF0.5973688621439767
aF0.5
aF0.5811526154815995
aF0.611137966799573
aI1
aF0.7110550340917559
aF0.6959949674278685
aF0.6846835705702682
aF0.7085848622356106
aa(lp105
I0
aI0
aI1
aI1
aI0
aI0
aI0
aI0
aI1
aI0
aI0
aI1
aI-1
aI-1
aI-1
aI-1
aI-1
aI1
aI0
aI0
aI0
aI0
aI1
aI0
aI0
aI0
aI1
aI0
aI0
aI0
aI0
aI0
aI0
aI0
aI0
aI0
aI0
aI0
aI0
aI0
aI0
aI0
aI0
aI0
aI0
aI0
aI0
aI0
aI0
aI0
aI0
aI0
aI0
aI0
aI1
aI0
aI0
aI0
aI0
aI0
aI0
aI0
aI0
aI0
aI0
aI1
aF0.607043828596713
aF0.6267217208682151
aF0.6563774155260674
aF0.5
aF0.5577734713497952
aF0.5233456403081337
aF0.5
aF0.5
aF0.617245385686066
aF0.6876465059093766
aF0.70838596586038
aF0.5692517375501781
aF0.5
aI1
aF0.5
aF0.5973688621439767
aF0.5
aF0.5811526154815995
aF0.611137966799573
aI1
aF0.7110550340917559
aF0.6959949674278685
aF0.6846835705702682
aF0.7085848622356106
aa(lp106
I0
aI0
aI1
aI1
aI0
aI0
aI0
aI0
aI0
aI1
aI1
aI0
aI-1
aI-1
aI-1
aI-1
aI0
aI1
aI0
aI0
aI0
aI0
aI1
aI0
aI0
aI1
aI1
aI0
aI0
aI0
aI0
aI0
aI0
aI0
aI0
aI0
aI0
aI0
aI0
aI0
aI0
aI0
aI0
aI0
aI0
aI0
aI0
aI0
aI0
aI0
aI0
aI0
aI0
aI0
aI1
aI0
aI0
aI0
aI0
aI0
aI0
aI0
aI0
aI0
aI0
aI1
aF0.607043828596713
aF0.6267217208682151
aF0.6563774155260674
aF0.5
aF0.5577734713497952
aF0.5233456403081337
aF0.5
aF0.5
aF0.617245385686066
aF0.6876465059093766
aF0.70838596586038
aF0.5692517375501781
aF0.5
aI1
aF0.5
aF0.5973688621439767
aF0.5
aF0.5811526154815995
aF0.611137966799573
aI1
aF0.7110550340917559
aF0.6959949674278685
aF0.6846835705702682
aF0.7085848622356106
aa(lp107
I0
aI0
aI1
aI0
aI0
aI1
aI0
aI0
aI0
aI1
aI1
aI0
aI-1
aI-1
aI-1
aI-1
aI0
aI1
aI0
aI0
aI0
aI0
aI1
aI0
aI0
aI1
aI0
aI0
aI0
aI0
aI0
aI0
aI0
aI0
aI0
aI0
aI0
aI0
aI0
aI0
aI0
aI0
aI0
aI0
aI0
aI0
aI0
aI0
aI0
aI0
aI0
aI0
aI0
aI0
aI1
aI0
aI0
aI0
aI0
aI0
aI0
aI0
aI0
aI0
aI0
aI0
aI1
aI1
aI1
aI1
aI1
aI1
aI1
aI1
aI1
aI1
aI1
aI1
aI1
aI1
aI1
aI1
aI1
aI1
aI1
aI1
aI1
aI1
aI1
aI1
aa(lp108
tp109
sS'*'
p110
((lp111
(lp112
I1
aI0
aI0
aI0
aI0
aI1
aI0
aI0
aI0
aI0
aI0
aI0
aI-1
aI-1
aI1
aI-1
aI-1
aI-1
aI0
aI0
aI0
aI0
aI1
aI0
aI0
aI0
aI0
aI0
aI0
aI1
aI0
aI0
aI0
aI0
aI0
aI0
aI0
aI0
aI0
aI0
aI0
aI0
aI0
aI0
aI0
aI0
aI0
aI0
aI0
aI0
aI0
aI0
aI0
aI0
aI0
aI0
aI0
aI0
aI0
aI0
aI0
aI0
aI0
aI0
aI0
aF0.16552921271687415
aF0.5103864223005199
aF0.5763785548030264
aF0.5711003125832678
aF0.5
aF0.5
aF0.5939517300936757
aF0.5729717728534833
aF0.5
aF0.5050424974372756
aF0.5515819430924429
aF0.728090750079668
aF0.5917806850848999
aI0
aF0.5
aF0.5876028204815266
aF0.5962846535468412
aF0.6061479218472771
aF0.5515819430924429
aF0.5515819430924429
aF0.6224964761253446
aF0.7177485733328628
aF0.5726707012896084
aF0.5980425737457671
aF0.6196664887721092
aa(lp113
I0
aI0
aI1
aI0
aI0
aI1
aI0
aI0
aI0
aI0
aI0
aI0
aI-1
aI-1
aI-1
aI-1
aI0
aI-1
aI0
aI-1
aI0
aI0
aI1
aI0
aI0
aI0
aI0
aI0
aI1
aI0
aI0
aI0
aI0
aI0
aI0
aI0
aI0
aI0
aI0
aI0
aI0
aI0
aI0
aI0
aI0
aI0
aI0
aI0
aI0
aI0
aI0
aI0
aI0
aI0
aI0
aI0
aI0
aI0
aI0
aI0
aI0
aI0
aI0
aI0
aI0
aI0
aF0.5702739089723219
aF0.5
aF0.5800653881041513
aF0.5
aF0.5678490720113271
aF0.5152039393334513
aF0.5
aI0
aF0.6727564384497279
aF0.5406992252857851
aF0.6388140286416842
aF0.512167376530366
aF0.5
aF0.6377326489210315
aF0.5
aF0.6242745850549243
aF0.5966688280256184
aF0.5406992252857851
aF0.5288860536203928
aF0.6137966834898949
aF0.7091121634889681
aF0.583317762268188
aF0.5887538457077028
aF0.7411553680049033
aa(lp114
I1
aI0
aI0
aI1
aI0
aI0
aI0
aI0
aI0
aI0
aI0
aI0
aI-1
aI-1
aI-1
aI-1
aI1
aI-1
aI0
aI0
aI0
aI0
aI1
aI0
aI0
aI0
aI0
aI0
aI1
aI0
aI0
aI0
aI0
aI0
aI0
aI0
aI0
aI0
aI0
aI0
aI0
aI0
aI0
aI0
aI0
aI0
aI0
aI0
aI0
aI0
aI0
aI0
aI0
aI0
aI0
aI0
aI0
aI0
aI0
aI0
aI0
aI0
aI0
aI0
aI0
aI1
aF0.721366088658735
aF0.7004265990088713
aF0.6369150598330413
aF0.7045270498646518
aF0.6304330038522488
aF0.7377645132272918
aF0.7045270498646518
aF0.6601633738342642
aF0.706985085476174
aF0.6091275321868447
aF0.6848448269891599
aF0.5565072633988184
aF0.6401227747803205
aI1
aF0.5915213663710356
aI1
aF0.7045270498646518
aF0.6259566416828922
aF0.5279335111082228
aI1
aF0.7363730050246899
aF0.7278665425806454
aF0.709452396984755
aF0.641638693782907
aa(lp115
I0
aI0
aI1
aI1
aI0
aI0
aI0
aI0
aI0
aI0
aI0
aI0
aI-1
aI-1
aI-1
aI-1
aI-1
aI-1
aI0
aI0
aI0
aI0
aI1
aI0
aI0
aI0
aI0
aI0
aI1
aI1
aI0
aI0
aI0
aI0
aI0
aI0
aI0
aI0
aI0
aI0
aI0
aI0
aI0
aI0
aI0
aI0
aI0
aI0
aI0
aI0
aI0
aI0
aI0
aI0
aI0
aI0
aI0
aI0
aI0
aI0
aI0
aI0
aI0
aI0
aI0
aI1
aF0.607043828596713
aF0.6267217208682151
aF0.6563774155260674
aF0.5
aF0.5577734713497952
aF0.5233456403081337
aF0.5
aF0.5
aF0.617245385686066
aF0.6876465059093766
aF0.70838596586038
aF0.5692517375501781
aF0.5
aI1
aF0.5
aF0.5973688621439767
aF0.5
aF0.5811526154815995
aF0.611137966799573
aI1
aF0.7110550340917559
aF0.6959949674278685
aF0.6846835705702682
aF0.7085848622356106
aa(lp116
I1
aI0
aI0
aI0
aI1
aI0
aI0
aI0
aI0
aI0
aI0
aI0
aI-1
aI-1
aI1
aI-1
aI-1
aI-1
aI0
aI0
aI0
aI0
aI1
aI0
aI0
aI0
aI0
aI0
aI0
aI1
aI0
aI0
aI0
aI0
aI0
aI0
aI0
aI0
aI0
aI0
aI0
aI0
aI0
aI0
aI0
aI0
aI0
aI0
aI0
aI0
aI0
aI0
aI0
aI0
aI0
aI0
aI0
aI0
aI0
aI0
aI0
aI0
aI0
aI0
aI0
aF0.2509060962922141
aI0
aF0.5660501279322816
aF0.5762336016390824
aF0.607043828596713
aF0.5103864223005199
aF0.6052487446301636
aF0.5845182825732097
aF0.5702739089723219
aF0.5156285914792277
aF0.6731411659043034
aI1
aI1
aF0.5103864223005199
aI1
aF0.501152717616773
aF0.7043510771768892
aI1
aF0.6174869490372198
aI1
aI1
aF0.657070774851754
aF0.6483329760144455
aI1
aI1
aa(lp117
I1
aI0
aI0
aI0
aI0
aI1
aI0
aI0
aI0
aI0
aI0
aI0
aI-1
aI-1
aI-1
aI-1
aI-1
aI1
aI0
aI-1
aI0
aI0
aI1
aI0
aI0
aI1
aI0
aI0
aI0
aI0
aI0
aI0
aI0
aI0
aI0
aI0
aI0
aI0
aI0
aI0
aI0
aI0
aI0
aI0
aI0
aI0
aI0
aI0
aI0
aI0
aI0
aI0
aI0
aI0
aI0
aI0
aI0
aI0
aI0
aI0
aI0
aI0
aI0
aI0
aI0
aF0.10004296768396183
aF0.5660501279322816
aF0.5
aF0.5357430314204298
aF0.5654343853748066
aF0.657338749841547
aF0.6727381017529414
aF0.5234665435026907
aF0.5777904972740775
aF0.6913237939886325
aF0.6547956927237909
aF0.7336771055118949
aF0.6647171876899333
aF0.5757218491573359
aF0.6449312485322867
aF0.5566769735591669
aF0.6847621007541346
aI1
aF0.6547956927237909
aF0.6478828400653969
aI1
aF0.7237632689209111
aF0.7144091500329147
aF0.6940606718914806
aF0.752821150512001
aa(lp118
I1
aI0
aI0
aI0
aI1
aI0
aI0
aI0
aI0
aI0
aI0
aI0
aI-1
aI-1
aI1
aI-1
aI-1
aI-1
aI0
aI0
aI0
aI0
aI1
aI0
aI0
aI1
aI0
aI0
aI1
aI1
aI0
aI0
aI0
aI0
aI0
aI0
aI0
aI0
aI0
aI0
aI0
aI0
aI0
aI0
aI0
aI0
aI0
aI0
aI0
aI0
aI0
aI0
aI0
aI0
aI0
aI0
aI0
aI0
aI0
aI0
aI0
aI0
aI0
aI0
aI0
aI0
aI0
aF0.5660501279322816
aF0.5762336016390824
aI0
aF0.5103864223005199
aF0.5233456403081337
aF0.5
aF0.5
aF0.5156285914792277
aF0.6731411659043034
aF0.70838596586038
aF0.5692517375501781
aF0.5
aI1
aF0.5
aF0.5973688621439767
aF0.5
aF0.5811526154815995
aF0.611137966799573
aI1
aF0.657070774851754
aF0.6483329760144455
aF0.6846835705702682
aF0.7085848622356106
aa(lp119
I1
aI0
aI0
aI0
aI0
aI1
aI0
aI0
aI0
aI0
aI0
aI0
aI-1
aI-1
aI1
aI-1
aI-1
aI-1
aI0
aI-1
aI0
aI0
aI1
aI0
aI0
aI1
aI0
aI0
aI1
aI1
aI0
aI0
aI0
aI0
aI0
aI0
aI0
aI0
aI0
aI0
aI0
aI0
aI0
aI0
aI0
aI0
aI0
aI0
aI0
aI0
aI0
aI0
aI0
aI0
aI0
aI0
aI0
aI0
aI0
aI0
aI0
aI0
aI0
aI0
aI0
aF0.10004296768396183
aF0.5660501279322816
aF0.5
aF0.5357430314204298
aF0.5654343853748066
aF0.657338749841547
aF0.6727381017529414
aF0.5234665435026907
aF0.5777904972740775
aF0.6913237939886325
aF0.6547956927237909
aF0.7336771055118949
aF0.6647171876899333
aF0.5757218491573359
aF0.6449312485322867
aF0.5566769735591669
aF0.6847621007541346
aI1
aF0.6547956927237909
aF0.6478828400653969
aI1
aF0.7237632689209111
aF0.7144091500329147
aF0.6940606718914806
aF0.752821150512001
aa(lp120
I1
aI0
aI0
aI0
aI0
aI1
aI0
aI0
aI0
aI0
aI0
aI0
aI-1
aI-1
aI1
aI-1
aI-1
aI-1
aI0
aI0
aI0
aI0
aI1
aI0
aI0
aI1
aI0
aI0
aI1
aI1
aI0
aI0
aI0
aI0
aI0
aI0
aI0
aI0
aI0
aI0
aI0
aI0
aI0
aI0
aI0
aI0
aI0
aI0
aI0
aI0
aI0
aI0
aI0
aI0
aI0
aI0
aI0
aI0
aI0
aI0
aI0
aI0
aI0
aI0
aI0
aF0.10004296768396183
aF0.5660501279322816
aF0.5
aF0.5357430314204298
aF0.5654343853748066
aF0.657338749841547
aF0.6727381017529414
aF0.5234665435026907
aF0.5777904972740775
aF0.6913237939886325
aF0.6547956927237909
aF0.7336771055118949
aF0.6647171876899333
aF0.5757218491573359
aF0.6449312485322867
aF0.5566769735591669
aF0.6847621007541346
aI1
aF0.6547956927237909
aF0.6478828400653969
aI1
aF0.7237632689209111
aF0.7144091500329147
aF0.6940606718914806
aF0.752821150512001
aa(lp121
I0
aI0
aI1
aI0
aI1
aI0
aI0
aI0
aI0
aI0
aI0
aI0
aI-1
aI-1
aI-1
aI-1
aI-1
aI-1
aI0
aI-1
aI0
aI0
aI1
aI0
aI0
aI1
aI0
aI0
aI1
aI1
aI0
aI0
aI0
aI0
aI0
aI0
aI0
aI0
aI0
aI0
aI0
aI0
aI0
aI0
aI0
aI0
aI0
aI0
aI0
aI0
aI0
aI0
aI0
aI0
aI0
aI0
aI0
aI0
aI0
aI0
aI0
aI0
aI0
aI0
aI0
aI1
aI1
aI1
aI1
aI1
aI1
aI1
aI1
aI1
aI1
aI1
aI1
aI1
aI1
aI1
aI1
aI1
aI1
aI1
aI1
aI1
aI1
aI1
aI1
aI1
aa(lp122
I0
aI1
aI0
aI0
aI0
aI1
aI0
aI0
aI0
aI0
aI0
aI0
aI-1
aI-1
aI-1
aI-1
aI0
aI-1
aI0
aI-1
aI0
aI0
aI1
aI0
aI0
aI0
aI0
aI0
aI1
aI1
aI0
aI0
aI0
aI0
aI0
aI0
aI0
aI0
aI0
aI0
aI0
aI0
aI0
aI0
aI0
aI0
aI0
aI0
aI0
aI0
aI0
aI0
aI0
aI0
aI0
aI0
aI0
aI0
aI0
aI0
aI0
aI0
aI0
aI0
aI0
aI0
aI0
aF0.5660501279322816
aF0.5762336016390824
aF0.607043828596713
aF0.5103864223005199
aF0.6052487446301636
aF0.5845182825732097
aF0.5702739089723219
aF0.5156285914792277
aF0.6731411659043034
aI1
aI1
aF0.5103864223005199
aI1
aF0.501152717616773
aF0.7043510771768892
aI1
aF0.6174869490372198
aI1
aI1
aF0.657070774851754
aF0.6483329760144455
aI1
aI1
aa(lp123
I1
aI0
aI0
aI0
aI0
aI1
aI0
aI0
aI0
aI0
aI0
aI0
aI-1
aI-1
aI1
aI-1
aI-1
aI-1
aI0
aI-1
aI0
aI0
aI1
aI0
aI0
aI1
aI0
aI0
aI1
aI1
aI0
aI0
aI0
aI0
aI0
aI0
aI0
aI0
aI0
aI0
aI0
aI0
aI0
aI0
aI0
aI0
aI0
aI0
aI0
aI0
aI0
aI0
aI0
aI0
aI0
aI0
aI0
aI0
aI0
aI0
aI0
aI0
aI0
aI0
aI0
aF0.10004296768396183
aF0.5660501279322816
aF0.5
aF0.5357430314204298
aF0.5654343853748066
aF0.657338749841547
aF0.6727381017529414
aF0.5234665435026907
aF0.5777904972740775
aF0.6913237939886325
aF0.6547956927237909
aF0.7336771055118949
aF0.6647171876899333
aF0.5757218491573359
aF0.6449312485322867
aF0.5566769735591669
aF0.6847621007541346
aI1
aF0.6547956927237909
aF0.6478828400653969
aI1
aF0.7237632689209111
aF0.7144091500329147
aF0.6940606718914806
aF0.752821150512001
aa(lp124
I0
aI0
aI1
aI0
aI1
aI0
aI0
aI0
aI0
aI0
aI0
aI0
aI-1
aI-1
aI-1
aI-1
aI0
aI-1
aI0
aI0
aI0
aI0
aI1
aI0
aI0
aI1
aI1
aI0
aI1
aI1
aI1
aI1
aI0
aI0
aI0
aI0
aI0
aI0
aI0
aI0
aI0
aI0
aI0
aI0
aI0
aI0
aI0
aI0
aI0
aI0
aI0
aI0
aI0
aI0
aI0
aI0
aI0
aI0
aI0
aI0
aI0
aI0
aI0
aI0
aI0
aI0
aF0.706347094572752
aI1
aF0.7352641231468
aF0.715121085564038
aF0.7007276010174428
aF0.7514609148994265
aF0.715121085564038
aF0.5855874845149507
aF0.698061356293887
aF0.6544205035984283
aF0.7672453936705266
aF0.6863947109148838
aF0.581218931327998
aI1
aF0.6900353128503088
aF0.6873961082711569
aF0.6154117379371226
aF0.6978258001664364
aF0.6978258001664364
aF0.6310155010708383
aI1
aF0.6032913403996067
aF0.723240238612906
aF0.7673721198632906
aa(lp125
I0
aI1
aI0
aI0
aI0
aI1
aI0
aI0
aI0
aI0
aI0
aI0
aI-1
aI-1
aI-1
aI-1
aI0
aI-1
aI0
aI0
aI0
aI0
aI1
aI0
aI0
aI0
aI0
aI0
aI1
aI1
aI0
aI0
aI0
aI0
aI0
aI0
aI0
aI0
aI0
aI0
aI0
aI0
aI0
aI0
aI0
aI0
aI0
aI0
aI0
aI0
aI0
aI0
aI0
aI0
aI0
aI0
aI0
aI0
aI0
aI0
aI0
aI0
aI0
aI0
aI0
aI0
aI1
aF0.7573546050522342
aI1
aF0.7445272745276506
aF0.7725694296131688
aI1
aF0.7414002510338914
aF0.7414002510338914
aI1
aI1
aI1
aF0.7161591609019495
aI1
aI1
aI1
aI1
aF0.7811176650007038
aF0.7787685614178466
aF0.7529269883253762
aI1
aI1
aF0.7738226622912612
aI1
aI1
aa(lp126
I1
aI0
aI0
aI0
aI0
aI1
aI0
aI0
aI0
aI0
aI0
aI0
aI-1
aI-1
aI1
aI-1
aI-1
aI-1
aI0
aI-1
aI0
aI0
aI1
aI0
aI0
aI1
aI0
aI0
aI1
aI1
aI0
aI0
aI0
aI0
aI0
aI0
aI0
aI0
aI0
aI0
aI0
aI0
aI0
aI0
aI0
aI0
aI0
aI0
aI0
aI0
aI0
aI0
aI0
aI0
aI0
aI0
aI0
aI0
aI0
aI0
aI0
aI0
aI0
aI0
aI0
aF0.12497693627647707
aF0.5702739089723219
aF0.5
aF0.5800653881041513
aF0.5
aF0.5678490720113271
aF0.5152039393334513
aF0.5
aI0
aF0.6729149169040721
aF0.5406992252857851
aF0.6388140286416842
aF0.5733567396026994
aF0.5
aI1
aF0.5
aF0.6242745850549243
aF0.5966688280256184
aF0.5406992252857851
aF0.5288860536203928
aF0.6137966834898949
aF0.7091121634889681
aF0.583317762268188
aF0.5887538457077028
aF0.7411553680049033
aa(lp127
I1
aI0
aI0
aI0
aI0
aI1
aI0
aI0
aI0
aI0
aI0
aI0
aI-1
aI-1
aI1
aI-1
aI-1
aI-1
aI0
aI-1
aI0
aI0
aI1
aI0
aI0
aI1
aI0
aI0
aI1
aI1
aI0
aI0
aI0
aI0
aI0
aI0
aI0
aI0
aI0
aI0
aI0
aI0
aI0
aI0
aI0
aI0
aI0
aI0
aI0
aI0
aI0
aI0
aI0
aI0
aI0
aI0
aI0
aI0
aI0
aI0
aI0
aI0
aI0
aI0
aI0
aF0.10004296768396183
aF0.5660501279322816
aF0.5
aF0.5357430314204298
aF0.5654343853748066
aF0.657338749841547
aF0.6727381017529414
aF0.5234665435026907
aF0.5777904972740775
aF0.6913237939886325
aF0.6547956927237909
aF0.7336771055118949
aF0.6647171876899333
aF0.5757218491573359
aF0.6449312485322867
aF0.5566769735591669
aF0.6847621007541346
aI1
aF0.6547956927237909
aF0.6478828400653969
aI1
aF0.7237632689209111
aF0.7144091500329147
aF0.6940606718914806
aF0.752821150512001
aa(lp128
I0
aI1
aI0
aI1
aI0
aI0
aI0
aI0
aI0
aI0
aI0
aI0
aI-1
aI-1
aI-1
aI-1
aI-1
aI-1
aI0
aI0
aI0
aI0
aI1
aI0
aI0
aI0
aI0
aI0
aI1
aI0
aI0
aI0
aI0
aI0
aI0
aI0
aI0
aI0
aI0
aI0
aI0
aI0
aI0
aI0
aI0
aI0
aI0
aI0
aI0
aI0
aI0
aI0
aI0
aI0
aI0
aI0
aI0
aI0
aI0
aI0
aI0
aI0
aI0
aI0
aI0
aF0.0924292260381608
aF0.67993465155383
aI1
aF0.7400451542410373
aF0.6125095177275185
aF0.5797773118629872
aF0.6806964509345699
aF0.6125095177275185
aF0.5569000808886923
aF0.6727564384497279
aF0.6624799281365624
aI1
aF0.512167376530366
aF0.5701237668734789
aF0.6377326489210315
aF0.7498778746060276
aF0.6928612906651956
aI1
aF0.6624799281365624
aF0.6818580915180469
aI1
aF0.7525007054853318
aF0.7370172453095565
aI1
aI1
aa(lp129
I1
aI0
aI0
aI0
aI0
aI1
aI0
aI0
aI0
aI0
aI0
aI0
aI-1
aI-1
aI1
aI-1
aI-1
aI-1
aI0
aI-1
aI0
aI0
aI1
aI0
aI0
aI1
aI0
aI0
aI1
aI1
aI0
aI0
aI0
aI0
aI0
aI0
aI0
aI0
aI0
aI0
aI0
aI0
aI0
aI0
aI0
aI0
aI0
aI0
aI0
aI0
aI0
aI0
aI0
aI0
aI0
aI0
aI0
aI0
aI0
aI0
aI0
aI0
aI0
aI0
aI0
aF0.15779967308059284
aI0
aF0.5660501279322816
aF0.5762336016390824
aI0
aF0.5103864223005199
aF0.5233456403081337
aF0.5
aF0.5
aF0.5156285914792277
aF0.6731411659043034
aF0.70838596586038
aF0.5692517375501781
aF0.5
aI1
aF0.5
aF0.5973688621439767
aF0.5
aF0.5811526154815995
aF0.611137966799573
aI1
aF0.657070774851754
aF0.6483329760144455
aF0.6846835705702682
aF0.7085848622356106
aa(lp130
I0
aI1
aI0
aI0
aI0
aI1
aI0
aI0
aI0
aI0
aI0
aI0
aI-1
aI-1
aI-1
aI-1
aI0
aI-1
aI0
aI-1
aI0
aI0
aI1
aI0
aI0
aI0
aI0
aI0
aI1
aI1
aI0
aI0
aI0
aI0
aI0
aI0
aI0
aI0
aI0
aI0
aI0
aI0
aI0
aI0
aI0
aI0
aI0
aI0
aI0
aI0
aI0
aI0
aI0
aI0
aI0
aI0
aI0
aI0
aI0
aI0
aI0
aI0
aI0
aI0
aI0
aI0
aI1
aI1
aF0.5942770435825249
aI1
aI1
aI1
aI1
aI1
aI1
aI1
aI1
aI1
aI1
aI1
aF0.5698143925073594
aI1
aI1
aI1
aF0.5923216116494828
aI1
aI1
aI1
aI1
aI1
aa(lp131
I1
aI0
aI0
aI0
aI1
aI0
aI0
aI0
aI0
aI0
aI0
aI0
aI-1
aI-1
aI1
aI-1
aI-1
aI-1
aI0
aI0
aI0
aI0
aI1
aI0
aI0
aI1
aI0
aI0
aI1
aI1
aI0
aI0
aI0
aI0
aI0
aI0
aI0
aI0
aI0
aI0
aI0
aI0
aI0
aI0
aI0
aI0
aI0
aI0
aI0
aI0
aI0
aI0
aI0
aI0
aI0
aI0
aI0
aI0
aI0
aI0
aI0
aI0
aI0
aI0
aI0
aF0.098346071459796
aF0.706347094572752
aI1
aF0.7352641231468
aF0.715121085564038
aF0.7007276010174428
aF0.7514609148994265
aF0.715121085564038
aF0.5855874845149507
aF0.698061356293887
aF0.6544205035984283
aF0.7672453936705266
aF0.6863947109148838
aF0.581218931327998
aI1
aF0.6900353128503088
aF0.6873961082711569
aF0.6154117379371226
aF0.6978258001664364
aF0.6978258001664364
aF0.6310155010708383
aI1
aF0.6032913403996067
aF0.723240238612906
aF0.7673721198632906
aa(lp132
I0
aI1
aI0
aI1
aI0
aI0
aI0
aI0
aI0
aI0
aI0
aI0
aI-1
aI-1
aI-1
aI-1
aI-1
aI-1
aI0
aI-1
aI0
aI0
aI1
aI0
aI0
aI0
aI1
aI0
aI1
aI1
aI0
aI0
aI0
aI0
aI0
aI0
aI0
aI0
aI0
aI0
aI0
aI0
aI0
aI0
aI0
aI0
aI0
aI0
aI0
aI0
aI0
aI0
aI0
aI0
aI0
aI0
aI0
aI0
aI0
aI0
aI0
aI0
aI0
aI0
aI0
aF0.09915303107686972
aF0.5660501279322816
aF0.5
aF0.5573136545024441
aF0.7384524672116186
aF0.6715184734345465
aF0.6856960747265942
aF0.6045273671216247
aF0.6636710976190753
aF0.55866543967563
aF0.6654066786262569
aI1
aF0.6791406917939296
aF0.5915279059953816
aF0.6610663602759543
aF0.6005614125285241
aF0.6964130398111972
aF0.6896353392651068
aF0.6691822484205258
aF0.6867539380107647
aF0.7031032848857516
aF0.7616003669075565
aF0.6791190167156169
aF0.7316921565541736
aI1
aa(lp133
I0
aI1
aI0
aI0
aI0
aI1
aI0
aI0
aI0
aI0
aI0
aI0
aI-1
aI-1
aI-1
aI-1
aI0
aI-1
aI0
aI0
aI0
aI0
aI1
aI0
aI0
aI0
aI0
aI0
aI1
aI1
aI0
aI0
aI0
aI0
aI0
aI0
aI0
aI0
aI0
aI0
aI0
aI0
aI0
aI0
aI0
aI0
aI0
aI0
aI0
aI0
aI0
aI0
aI0
aI0
aI0
aI0
aI0
aI0
aI0
aI0
aI0
aI0
aI0
aI0
aI0
aI0
aI1
aI1
aF0.5942770435825249
aI1
aI1
aI1
aI1
aI1
aI1
aI1
aI1
aI1
aI1
aI1
aF0.5698143925073594
aI1
aI1
aI1
aF0.5923216116494828
aI1
aI1
aI1
aI1
aI1
aa(lp134
I0
aI0
aI1
aI0
aI1
aI0
aI0
aI0
aI0
aI0
aI0
aI0
aI-1
aI-1
aI-1
aI-1
aI0
aI-1
aI0
aI0
aI0
aI0
aI1
aI0
aI0
aI1
aI0
aI0
aI1
aI1
aI1
aI1
aI0
aI0
aI0
aI0
aI0
aI0
aI0
aI0
aI0
aI0
aI0
aI0
aI0
aI0
aI0
aI0
aI0
aI0
aI0
aI0
aI0
aI0
aI0
aI0
aI0
aI0
aI0
aI0
aI0
aI0
aI0
aI0
aI0
aI0
aI0
aF0.5660501279322816
aF0.5762336016390824
aI0
aF0.5103864223005199
aF0.5233456403081337
aF0.5
aF0.5
aF0.5156285914792277
aF0.6731411659043034
aF0.70838596586038
aF0.5692517375501781
aF0.5
aI1
aF0.5
aF0.5973688621439767
aF0.5
aF0.5811526154815995
aF0.611137966799573
aI1
aF0.657070774851754
aF0.6483329760144455
aF0.6846835705702682
aF0.7085848622356106
aa(lp135
I0
aI1
aI0
aI0
aI1
aI0
aI0
aI0
aI0
aI0
aI0
aI0
aI-1
aI-1
aI-1
aI-1
aI0
aI-1
aI0
aI-1
aI0
aI0
aI1
aI0
aI0
aI0
aI0
aI0
aI0
aI1
aI0
aI0
aI0
aI0
aI0
aI0
aI0
aI0
aI0
aI0
aI0
aI0
aI0
aI0
aI0
aI0
aI0
aI0
aI0
aI0
aI0
aI0
aI0
aI0
aI0
aI0
aI0
aI0
aI0
aI0
aI0
aI0
aI0
aI0
aI0
aI0
aI0
aF0.5660501279322816
aF0.5762336016390824
aF0.607043828596713
aF0.5103864223005199
aF0.6052487446301636
aF0.5845182825732097
aF0.5702739089723219
aF0.5156285914792277
aF0.6731411659043034
aI1
aI1
aF0.5103864223005199
aI1
aF0.501152717616773
aF0.7043510771768892
aI1
aF0.6174869490372198
aI1
aI1
aF0.657070774851754
aF0.6483329760144455
aI1
aI1
aa(lp136
I1
aI0
aI0
aI0
aI1
aI0
aI0
aI0
aI0
aI0
aI0
aI0
aI-1
aI-1
aI1
aI-1
aI-1
aI-1
aI0
aI-1
aI0
aI0
aI1
aI0
aI0
aI1
aI0
aI0
aI1
aI1
aI0
aI0
aI0
aI0
aI0
aI0
aI0
aI0
aI0
aI0
aI0
aI0
aI0
aI0
aI0
aI0
aI0
aI0
aI0
aI0
aI0
aI0
aI0
aI0
aI0
aI0
aI0
aI0
aI0
aI0
aI0
aI0
aI0
aI0
aI0
aF0.0924292260381608
aF0.67993465155383
aI1
aF0.7400451542410373
aF0.6125095177275185
aF0.5797773118629872
aF0.6806964509345699
aF0.6125095177275185
aF0.5569000808886923
aF0.6727564384497279
aF0.6624799281365624
aI1
aF0.512167376530366
aF0.5701237668734789
aF0.6377326489210315
aF0.7498778746060276
aF0.6928612906651956
aI1
aF0.6624799281365624
aF0.6818580915180469
aI1
aF0.7525007054853318
aF0.7370172453095565
aI1
aI1
aa(lp137
I0
aI1
aI0
aI0
aI0
aI1
aI0
aI0
aI0
aI0
aI0
aI0
aI-1
aI-1
aI-1
aI-1
aI0
aI-1
aI0
aI0
aI0
aI0
aI1
aI0
aI0
aI1
aI0
aI0
aI0
aI1
aI0
aI0
aI0
aI0
aI0
aI0
aI0
aI0
aI0
aI0
aI0
aI0
aI0
aI0
aI0
aI0
aI0
aI0
aI0
aI0
aI0
aI0
aI0
aI0
aI0
aI0
aI0
aI0
aI0
aI0
aI0
aI0
aI0
aI0
aI0
aI1
aI1
aI1
aI1
aF0.5883155170236446
aI1
aF0.5607967185938866
aI1
aI1
aI1
aI1
aI1
aI1
aI1
aI1
aF0.5737178469184896
aI1
aI1
aI1
aI1
aI1
aI1
aI1
aI1
aI1
aa(lp138
I0
aI1
aI0
aI0
aI0
aI1
aI0
aI0
aI0
aI0
aI0
aI0
aI-1
aI-1
aI-1
aI-1
aI0
aI-1
aI0
aI0
aI0
aI0
aI1
aI0
aI0
aI0
aI0
aI0
aI1
aI1
aI0
aI0
aI0
aI0
aI0
aI0
aI0
aI0
aI0
aI0
aI0
aI0
aI0
aI0
aI0
aI0
aI0
aI0
aI0
aI0
aI0
aI0
aI0
aI0
aI0
aI0
aI0
aI0
aI0
aI0
aI0
aI0
aI0
aI0
aI0
aI0
aI0
aF0.5660501279322816
aF0.5762336016390824
aF0.607043828596713
aF0.5103864223005199
aF0.6052487446301636
aF0.5845182825732097
aF0.5702739089723219
aF0.5156285914792277
aF0.6731411659043034
aI1
aI1
aF0.5103864223005199
aI1
aF0.501152717616773
aF0.7043510771768892
aI1
aF0.6174869490372198
aI1
aI1
aF0.657070774851754
aF0.6483329760144455
aI1
aI1
aa(lp139
I0
aI0
aI1
aI0
aI0
aI1
aI0
aI0
aI0
aI0
aI0
aI0
aI-1
aI-1
aI-1
aI-1
aI0
aI-1
aI0
aI0
aI0
aI0
aI1
aI0
aI0
aI1
aI0
aI0
aI1
aI1
aI0
aI0
aI0
aI0
aI0
aI0
aI0
aI0
aI0
aI0
aI0
aI0
aI0
aI0
aI0
aI0
aI0
aI0
aI0
aI0
aI0
aI0
aI0
aI0
aI0
aI0
aI0
aI0
aI0
aI0
aI0
aI0
aI0
aI0
aI0
aI0
aF0.5845182825732097
aF0.5477824374913982
aF0.5
aF0.5
aF0.5296721231718472
aF0.7060216493045898
aI0
aF0.5
aF0.5912981335583106
aF0.644652558746943
aF0.5514303052072106
aF0.5692517375501781
aF0.5729717728534833
aI1
aF0.5
aF0.5240462374338287
aF0.5
aF0.644652558746943
aF0.644652558746943
aI1
aF0.7063995534994241
aF0.6915566880665449
aF0.672617169030399
aF0.7085848622356106
aa(lp140
I0
aI1
aI0
aI0
aI1
aI0
aI0
aI0
aI0
aI0
aI0
aI0
aI-1
aI-1
aI-1
aI-1
aI0
aI-1
aI0
aI0
aI0
aI0
aI1
aI0
aI0
aI1
aI1
aI0
aI1
aI1
aI0
aI0
aI0
aI0
aI0
aI0
aI0
aI0
aI0
aI0
aI0
aI0
aI0
aI0
aI0
aI0
aI0
aI0
aI0
aI0
aI0
aI0
aI0
aI0
aI0
aI0
aI0
aI0
aI0
aI0
aI0
aI0
aI0
aI0
aI0
aI0
aF0.501152717616773
aF0.5838918013627752
aF0.5309912748691271
aF0.5
aF0.601287637232065
aF0.542206755069974
aF0.5
aF0.5
aF0.5356797882797583
aF0.5252167817173543
aF0.5514303052072106
aF0.6360769640783306
aF0.5876028204815266
aF0.531707461038853
aI0
aF0.5211810840509955
aF0.5200612429987673
aF0.536092223035277
aF0.530149360213763
aF0.7148423717377155
aF0.694438318830211
aF0.6100950771863298
aF0.657674953945819
aF0.614299347539995
aa(lp141
I1
aI0
aI0
aI0
aI1
aI0
aI0
aI0
aI0
aI0
aI0
aI0
aI-1
aI-1
aI1
aI-1
aI-1
aI-1
aI0
aI-1
aI0
aI0
aI1
aI0
aI0
aI1
aI1
aI0
aI1
aI1
aI0
aI0
aI0
aI0
aI0
aI0
aI0
aI0
aI0
aI0
aI0
aI0
aI0
aI0
aI0
aI0
aI0
aI0
aI0
aI0
aI0
aI0
aI0
aI0
aI0
aI0
aI0
aI0
aI0
aI0
aI0
aI0
aI0
aI0
aI0
aF0.15779967308059284
aI0
aF0.5660501279322816
aF0.5762336016390824
aI0
aF0.5103864223005199
aF0.5233456403081337
aF0.5
aF0.5
aF0.5156285914792277
aF0.6731411659043034
aF0.70838596586038
aF0.5692517375501781
aF0.5
aI1
aF0.5
aF0.5973688621439767
aF0.5
aF0.5811526154815995
aF0.611137966799573
aI1
aF0.657070774851754
aF0.6483329760144455
aF0.6846835705702682
aF0.7085848622356106
aa(lp142
I0
aI0
aI1
aI0
aI1
aI0
aI0
aI0
aI0
aI0
aI0
aI0
aI-1
aI-1
aI-1
aI-1
aI0
aI-1
aI0
aI0
aI0
aI0
aI1
aI0
aI0
aI1
aI0
aI0
aI1
aI1
aI1
aI1
aI0
aI0
aI0
aI0
aI0
aI0
aI0
aI0
aI0
aI0
aI0
aI0
aI0
aI0
aI0
aI0
aI0
aI0
aI0
aI0
aI0
aI0
aI0
aI0
aI0
aI0
aI0
aI0
aI0
aI0
aI0
aI0
aI0
aI0
aI0
aF0.5660501279322816
aF0.5762336016390824
aI0
aF0.5103864223005199
aF0.5233456403081337
aF0.5
aF0.5
aF0.5156285914792277
aF0.6731411659043034
aF0.70838596586038
aF0.5692517375501781
aF0.5
aI1
aF0.5
aF0.5973688621439767
aF0.5
aF0.5811526154815995
aF0.611137966799573
aI1
aF0.657070774851754
aF0.6483329760144455
aF0.6846835705702682
aF0.7085848622356106
aa(lp143
I0
aI1
aI0
aI1
aI0
aI0
aI0
aI0
aI0
aI0
aI0
aI0
aI-1
aI-1
aI-1
aI-1
aI-1
aI-1
aI-1
aI-1
aI0
aI0
aI1
aI0
aI0
aI0
aI1
aI0
aI1
aI1
aI0
aI0
aI0
aI0
aI0
aI0
aI0
aI0
aI0
aI0
aI0
aI0
aI0
aI0
aI0
aI0
aI0
aI0
aI0
aI0
aI0
aI0
aI0
aI0
aI0
aI0
aI0
aI0
aI0
aI0
aI0
aI0
aI0
aI0
aI0
aF0.09915303107686972
aF0.5660501279322816
aF0.5
aF0.5573136545024441
aF0.7384524672116186
aF0.6715184734345465
aF0.6856960747265942
aF0.6045273671216247
aF0.6636710976190753
aF0.55866543967563
aF0.6654066786262569
aI1
aF0.6791406917939296
aF0.5915279059953816
aF0.6610663602759543
aF0.6005614125285241
aF0.6964130398111972
aF0.6896353392651068
aF0.6691822484205258
aF0.6867539380107647
aF0.7031032848857516
aF0.7616003669075565
aF0.6791190167156169
aF0.7316921565541736
aI1
aa(lp144
I0
aI0
aI1
aI0
aI1
aI0
aI0
aI0
aI0
aI0
aI0
aI0
aI-1
aI-1
aI-1
aI-1
aI0
aI-1
aI0
aI0
aI0
aI0
aI1
aI0
aI0
aI1
aI0
aI0
aI1
aI1
aI0
aI0
aI0
aI0
aI0
aI0
aI0
aI0
aI0
aI0
aI0
aI0
aI0
aI0
aI0
aI0
aI0
aI0
aI0
aI0
aI0
aI0
aI0
aI0
aI0
aI0
aI0
aI0
aI0
aI0
aI0
aI0
aI0
aI0
aI0
aI0
aF0.607043828596713
aF0.6267217208682151
aF0.6563774155260674
aI0
aF0.5577734713497952
aF0.5233456403081337
aF0.5
aF0.5
aF0.617245385686066
aF0.6876465059093766
aF0.70838596586038
aF0.5692517375501781
aF0.5
aI1
aF0.5
aF0.5973688621439767
aF0.5
aF0.5811526154815995
aF0.611137966799573
aI1
aF0.7110550340917559
aF0.6959949674278685
aF0.6846835705702682
aF0.7085848622356106
aa(lp145
I1
aI0
aI0
aI0
aI1
aI0
aI0
aI0
aI0
aI0
aI0
aI0
aI-1
aI-1
aI1
aI-1
aI-1
aI-1
aI0
aI0
aI0
aI0
aI1
aI0
aI0
aI1
aI0
aI0
aI1
aI1
aI0
aI0
aI0
aI0
aI0
aI0
aI0
aI0
aI0
aI0
aI0
aI0
aI0
aI0
aI0
aI0
aI0
aI0
aI0
aI0
aI0
aI0
aI0
aI0
aI0
aI0
aI0
aI0
aI0
aI0
aI0
aI0
aI0
aI0
aI0
aF0.098346071459796
aF0.706347094572752
aI1
aF0.7352641231468
aF0.715121085564038
aF0.7007276010174428
aF0.7514609148994265
aF0.715121085564038
aF0.5855874845149507
aF0.698061356293887
aF0.6544205035984283
aF0.7672453936705266
aF0.6863947109148838
aF0.581218931327998
aI1
aF0.6900353128503088
aF0.6873961082711569
aF0.6154117379371226
aF0.6978258001664364
aF0.6978258001664364
aF0.6310155010708383
aI1
aF0.6032913403996067
aF0.723240238612906
aF0.7673721198632906
aa(lp146
I1
aI0
aI0
aI0
aI1
aI0
aI0
aI0
aI0
aI0
aI0
aI0
aI-1
aI-1
aI1
aI-1
aI-1
aI-1
aI0
aI0
aI0
aI0
aI1
aI0
aI0
aI0
aI0
aI0
aI0
aI1
aI0
aI0
aI0
aI0
aI0
aI0
aI0
aI0
aI0
aI0
aI0
aI0
aI0
aI0
aI0
aI0
aI0
aI0
aI0
aI0
aI0
aI0
aI0
aI0
aI0
aI0
aI0
aI0
aI0
aI0
aI0
aI0
aI0
aI0
aI0
aF0.26317136141364156
aI0
aF0.5660501279322816
aF0.5762336016390824
aF0.607043828596713
aF0.5103864223005199
aF0.6052487446301636
aF0.5845182825732097
aF0.5702739089723219
aF0.5156285914792277
aF0.6731411659043034
aI1
aI1
aF0.5103864223005199
aI1
aF0.501152717616773
aF0.7043510771768892
aI1
aF0.6174869490372198
aI1
aI1
aF0.657070774851754
aF0.6483329760144455
aI1
aI1
aa(lp147
I0
aI1
aI0
aI0
aI0
aI1
aI0
aI0
aI0
aI0
aI0
aI0
aI-1
aI-1
aI-1
aI-1
aI0
aI-1
aI0
aI-1
aI0
aI0
aI1
aI0
aI0
aI0
aI0
aI0
aI1
aI1
aI0
aI0
aI0
aI0
aI0
aI0
aI0
aI0
aI0
aI0
aI0
aI0
aI0
aI0
aI0
aI0
aI0
aI0
aI0
aI0
aI0
aI0
aI0
aI0
aI0
aI0
aI0
aI0
aI0
aI0
aI0
aI0
aI0
aI0
aI0
aI0
aI0
aF0.5660501279322816
aF0.5762336016390824
aF0.607043828596713
aF0.5103864223005199
aF0.6052487446301636
aF0.5845182825732097
aF0.5702739089723219
aF0.5156285914792277
aF0.6731411659043034
aI1
aI1
aF0.5103864223005199
aI1
aF0.501152717616773
aF0.7043510771768892
aI1
aF0.6174869490372198
aI1
aI1
aF0.657070774851754
aF0.6483329760144455
aI1
aI1
aa(lp148
I0
aI1
aI0
aI1
aI0
aI0
aI0
aI0
aI0
aI0
aI0
aI0
aI-1
aI-1
aI-1
aI-1
aI-1
aI-1
aI0
aI0
aI0
aI0
aI1
aI0
aI0
aI0
aI0
aI0
aI0
aI1
aI0
aI0
aI0
aI0
aI0
aI0
aI0
aI0
aI0
aI0
aI0
aI0
aI0
aI0
aI0
aI0
aI0
aI0
aI0
aI0
aI0
aI0
aI0
aI0
aI0
aI0
aI0
aI0
aI0
aI0
aI0
aI0
aI0
aI0
aI0
aI1
aF0.5660501279322816
aF0.5
aF0.5061229086265145
aF0.6267217208682151
aF0.6603989117385534
aF0.6621964353968365
aF0.5477824374913982
aF0.5
aI1
aF0.6777375993395076
aI1
aF0.6151091496340397
aF0.5763785548030264
aI1
aF0.639871692554306
aI1
aF0.6762506775837269
aF0.6951349776953565
aF0.5
aI1
aI1
aF0.5798676341400274
aI1
aI1
aa(lp149
I0
aI0
aI1
aI0
aI0
aI1
aI0
aI0
aI0
aI0
aI0
aI0
aI-1
aI-1
aI-1
aI-1
aI0
aI-1
aI0
aI0
aI0
aI0
aI1
aI0
aI0
aI1
aI0
aI0
aI1
aI1
aI0
aI0
aI0
aI0
aI0
aI0
aI0
aI0
aI0
aI0
aI0
aI0
aI0
aI0
aI0
aI0
aI0
aI0
aI0
aI0
aI0
aI0
aI0
aI0
aI0
aI0
aI0
aI0
aI0
aI0
aI0
aI0
aI0
aI0
aI0
aI0
aF0.5845182825732097
aF0.5477824374913982
aF0.5
aF0.5
aF0.5296721231718472
aF0.7060216493045898
aI0
aF0.5
aF0.5912981335583106
aF0.644652558746943
aF0.5514303052072106
aF0.5692517375501781
aF0.5729717728534833
aI1
aF0.5
aF0.5240462374338287
aF0.5
aF0.644652558746943
aF0.644652558746943
aI1
aF0.7063995534994241
aF0.6915566880665449
aF0.672617169030399
aF0.7085848622356106
aa(lp150
I0
aI1
aI0
aI1
aI0
aI0
aI0
aI0
aI0
aI0
aI0
aI0
aI-1
aI-1
aI-1
aI-1
aI-1
aI-1
aI0
aI0
aI0
aI0
aI1
aI0
aI0
aI0
aI0
aI0
aI1
aI0
aI0
aI0
aI0
aI0
aI0
aI0
aI0
aI0
aI0
aI0
aI0
aI0
aI0
aI0
aI0
aI0
aI0
aI0
aI0
aI0
aI0
aI0
aI0
aI0
aI0
aI0
aI0
aI0
aI0
aI0
aI0
aI0
aI0
aI0
aI0
aF0.0924292260381608
aF0.67993465155383
aI1
aF0.7400451542410373
aF0.6125095177275185
aF0.5797773118629872
aF0.6806964509345699
aF0.6125095177275185
aF0.5569000808886923
aF0.6727564384497279
aF0.6624799281365624
aI1
aF0.512167376530366
aF0.5701237668734789
aF0.6377326489210315
aF0.7498778746060276
aF0.6928612906651956
aI1
aF0.6624799281365624
aF0.6818580915180469
aI1
aF0.7525007054853318
aF0.7370172453095565
aI1
aI1
aa(lp151
I0
aI1
aI0
aI1
aI0
aI0
aI0
aI0
aI0
aI0
aI0
aI0
aI-1
aI-1
aI-1
aI-1
aI-1
aI-1
aI-1
aI-1
aI0
aI0
aI1
aI0
aI0
aI0
aI1
aI0
aI1
aI1
aI0
aI0
aI0
aI0
aI0
aI0
aI0
aI0
aI0
aI0
aI0
aI0
aI0
aI0
aI0
aI0
aI0
aI0
aI0
aI0
aI0
aI0
aI0
aI0
aI0
aI0
aI0
aI0
aI0
aI0
aI0
aI0
aI0
aI0
aI0
aF0.09915303107686972
aF0.5660501279322816
aF0.5
aF0.5573136545024441
aF0.7384524672116186
aF0.6715184734345465
aF0.6856960747265942
aF0.6045273671216247
aF0.6636710976190753
aF0.55866543967563
aF0.6654066786262569
aI1
aF0.6791406917939296
aF0.5915279059953816
aF0.6610663602759543
aF0.6005614125285241
aF0.6964130398111972
aF0.6896353392651068
aF0.6691822484205258
aF0.6867539380107647
aF0.7031032848857516
aF0.7616003669075565
aF0.6791190167156169
aF0.7316921565541736
aI1
aa(lp152
I0
aI1
aI0
aI0
aI0
aI1
aI0
aI0
aI0
aI0
aI0
aI0
aI-1
aI-1
aI-1
aI-1
aI0
aI-1
aI0
aI-1
aI0
aI0
aI1
aI0
aI0
aI0
aI0
aI0
aI1
aI1
aI0
aI0
aI0
aI0
aI0
aI0
aI0
aI0
aI0
aI0
aI0
aI0
aI0
aI0
aI0
aI0
aI0
aI0
aI0
aI0
aI0
aI0
aI0
aI0
aI0
aI0
aI0
aI0
aI0
aI0
aI0
aI0
aI0
aI0
aI0
aI0
aI0
aF0.5660501279322816
aF0.5762336016390824
aF0.607043828596713
aF0.5103864223005199
aF0.6052487446301636
aF0.5845182825732097
aF0.5702739089723219
aF0.5156285914792277
aF0.6731411659043034
aI1
aI1
aF0.5103864223005199
aI1
aF0.501152717616773
aF0.7043510771768892
aI1
aF0.6174869490372198
aI1
aI1
aF0.657070774851754
aF0.6483329760144455
aI1
aI1
aa(lp153
I0
aI1
aI0
aI0
aI1
aI0
aI0
aI0
aI0
aI0
aI0
aI0
aI-1
aI-1
aI1
aI-1
aI-1
aI-1
aI0
aI-1
aI0
aI0
aI1
aI0
aI0
aI0
aI0
aI0
aI0
aI1
aI0
aI0
aI0
aI0
aI0
aI0
aI0
aI0
aI0
aI0
aI0
aI0
aI0
aI0
aI0
aI0
aI0
aI0
aI0
aI0
aI0
aI0
aI0
aI0
aI0
aI0
aI0
aI0
aI0
aI0
aI0
aI0
aI0
aI0
aI0
aI1
aI0
aF0.5660501279322816
aF0.5762336016390824
aF0.607043828596713
aF0.5103864223005199
aF0.6052487446301636
aF0.5845182825732097
aF0.5702739089723219
aF0.5156285914792277
aF0.6731411659043034
aI1
aI1
aF0.5103864223005199
aI1
aF0.501152717616773
aF0.7043510771768892
aI1
aF0.6174869490372198
aI1
aI1
aF0.657070774851754
aF0.6483329760144455
aI1
aI1
aa(lp154
I1
aI0
aI0
aI0
aI0
aI1
aI0
aI0
aI0
aI0
aI0
aI0
aI-1
aI-1
aI1
aI-1
aI-1
aI-1
aI0
aI-1
aI0
aI0
aI1
aI0
aI0
aI1
aI0
aI0
aI1
aI1
aI0
aI0
aI0
aI0
aI0
aI0
aI0
aI0
aI0
aI0
aI0
aI0
aI0
aI0
aI0
aI0
aI0
aI0
aI0
aI0
aI0
aI0
aI0
aI0
aI0
aI0
aI0
aI0
aI0
aI0
aI0
aI0
aI0
aI0
aI0
aF0.10004296768396183
aF0.5660501279322816
aF0.5
aF0.5357430314204298
aF0.5654343853748066
aF0.657338749841547
aF0.6727381017529414
aF0.5234665435026907
aF0.5777904972740775
aF0.6913237939886325
aF0.6547956927237909
aF0.7336771055118949
aF0.6647171876899333
aF0.5757218491573359
aF0.6449312485322867
aF0.5566769735591669
aF0.6847621007541346
aI1
aF0.6547956927237909
aF0.6478828400653969
aI1
aF0.7237632689209111
aF0.7144091500329147
aF0.6940606718914806
aF0.752821150512001
aa(lp155
I0
aI0
aI1
aI0
aI1
aI0
aI0
aI0
aI0
aI0
aI0
aI0
aI-1
aI-1
aI-1
aI-1
aI0
aI-1
aI0
aI0
aI0
aI0
aI1
aI0
aI0
aI1
aI0
aI0
aI1
aI1
aI0
aI0
aI0
aI0
aI0
aI0
aI0
aI0
aI0
aI0
aI0
aI0
aI0
aI0
aI0
aI0
aI0
aI0
aI0
aI0
aI0
aI0
aI0
aI0
aI0
aI0
aI0
aI0
aI0
aI0
aI0
aI0
aI0
aI0
aI0
aI0
aI1
aI1
aF0.5844089953409015
aI1
aI1
aI1
aI1
aF0.6031754525782433
aI1
aF0.6086205037150203
aI1
aI1
aF0.6118309839989352
aI1
aF0.7148423717377155
aF0.7087281892142097
aF0.639826351396688
aF0.6086205037150203
aF0.6086205037150203
aI0
aF0.5382970473844628
aF0.6292171993243101
aF0.6343399741581219
aI1
aa(lp156
I1
aI0
aI0
aI0
aI1
aI0
aI0
aI0
aI0
aI0
aI0
aI0
aI-1
aI-1
aI-1
aI-1
aI-1
aI-1
aI0
aI0
aI0
aI0
aI1
aI0
aI0
aI1
aI1
aI0
aI1
aI1
aI0
aI0
aI0
aI0
aI0
aI0
aI0
aI0
aI0
aI0
aI0
aI0
aI0
aI0
aI0
aI0
aI0
aI0
aI0
aI0
aI0
aI0
aI0
aI0
aI0
aI0
aI0
aI0
aI0
aI0
aI0
aI0
aI0
aI0
aI0
aF0.0997082012218552
aI1
aF0.6762506775837269
aF0.6287144201715433
aF0.5
aF0.6886345699919708
aI1
aF0.5
aF0.5966688280256184
aI1
aF0.6646337448295041
aF0.70838596586038
aF0.5692517375501781
aF0.6061479218472771
aI1
aF0.5200612429987673
aF0.6017842064639691
aI0
aF0.7071671807828336
aF0.7038404927512233
aF0.639826351396688
aI1
aF0.5555682321074484
aF0.6846835705702682
aF0.7085848622356106
aa(lp157
I0
aI1
aI0
aI0
aI1
aI0
aI0
aI0
aI0
aI0
aI0
aI0
aI-1
aI-1
aI-1
aI-1
aI0
aI-1
aI0
aI-1
aI0
aI0
aI1
aI0
aI0
aI0
aI0
aI0
aI1
aI0
aI0
aI0
aI0
aI0
aI0
aI0
aI0
aI0
aI0
aI0
aI0
aI0
aI0
aI0
aI0
aI0
aI0
aI0
aI0
aI0
aI0
aI0
aI0
aI0
aI0
aI0
aI0
aI0
aI0
aI0
aI0
aI0
aI0
aI0
aI0
aI0
aI1
aI1
aF0.5942770435825249
aI1
aI1
aI1
aI1
aI1
aI1
aI1
aI1
aI1
aI1
aI1
aF0.5698143925073594
aI1
aI1
aI1
aF0.5923216116494828
aI1
aI1
aI1
aI1
aI1
aa(lp158
I1
aI0
aI0
aI0
aI0
aI1
aI0
aI0
aI0
aI0
aI0
aI0
aI-1
aI-1
aI1
aI-1
aI-1
aI-1
aI0
aI-1
aI0
aI0
aI1
aI0
aI0
aI1
aI0
aI0
aI1
aI1
aI0
aI0
aI0
aI0
aI0
aI0
aI0
aI0
aI0
aI0
aI0
aI0
aI0
aI0
aI0
aI0
aI0
aI0
aI0
aI0
aI0
aI0
aI0
aI0
aI0
aI0
aI0
aI0
aI0
aI0
aI0
aI0
aI0
aI0
aI0
aF0.10004296768396183
aF0.5660501279322816
aF0.5
aF0.5357430314204298
aF0.5654343853748066
aF0.657338749841547
aF0.6727381017529414
aF0.5234665435026907
aF0.5777904972740775
aF0.6913237939886325
aF0.6547956927237909
aF0.7336771055118949
aF0.6647171876899333
aF0.5757218491573359
aF0.6449312485322867
aF0.5566769735591669
aF0.6847621007541346
aI1
aF0.6547956927237909
aF0.6478828400653969
aI1
aF0.7237632689209111
aF0.7144091500329147
aF0.6940606718914806
aF0.752821150512001
aa(lp159
I0
aI1
aI0
aI0
aI0
aI1
aI0
aI0
aI0
aI0
aI0
aI0
aI-1
aI-1
aI-1
aI-1
aI0
aI-1
aI0
aI0
aI0
aI0
aI1
aI0
aI0
aI0
aI0
aI0
aI1
aI1
aI0
aI0
aI0
aI0
aI0
aI0
aI0
aI0
aI0
aI0
aI0
aI0
aI0
aI0
aI0
aI0
aI0
aI0
aI0
aI0
aI0
aI0
aI0
aI0
aI0
aI0
aI0
aI0
aI0
aI0
aI0
aI0
aI0
aI0
aI0
aI0
aI0
aF0.5660501279322816
aF0.5762336016390824
aF0.607043828596713
aF0.5103864223005199
aF0.6052487446301636
aF0.5845182825732097
aF0.5702739089723219
aF0.5156285914792277
aF0.6731411659043034
aI1
aI1
aF0.5103864223005199
aI1
aF0.501152717616773
aF0.7043510771768892
aI1
aF0.6174869490372198
aI1
aI1
aF0.657070774851754
aF0.6483329760144455
aI1
aI1
aa(lp160
I1
aI0
aI0
aI0
aI1
aI0
aI0
aI0
aI0
aI0
aI0
aI0
aI-1
aI-1
aI1
aI-1
aI-1
aI-1
aI0
aI-1
aI0
aI0
aI1
aI0
aI0
aI1
aI0
aI0
aI1
aI1
aI0
aI0
aI0
aI0
aI0
aI0
aI0
aI0
aI0
aI0
aI0
aI0
aI0
aI0
aI0
aI0
aI0
aI0
aI0
aI0
aI0
aI0
aI0
aI0
aI0
aI0
aI0
aI0
aI0
aI0
aI0
aI0
aI0
aI0
aI0
aF0.10004296768396183
aF0.5660501279322816
aF0.5
aF0.5357430314204298
aF0.5654343853748066
aF0.657338749841547
aF0.6727381017529414
aF0.5234665435026907
aF0.5777904972740775
aF0.6913237939886325
aF0.6547956927237909
aF0.7336771055118949
aF0.6647171876899333
aF0.5757218491573359
aF0.6449312485322867
aF0.5566769735591669
aF0.6847621007541346
aI1
aF0.6547956927237909
aF0.6478828400653969
aI1
aF0.7237632689209111
aF0.7144091500329147
aF0.6940606718914806
aF0.752821150512001
aa(lp161
I1
aI0
aI0
aI0
aI1
aI0
aI0
aI0
aI0
aI0
aI0
aI0
aI-1
aI-1
aI1
aI-1
aI-1
aI-1
aI0
aI-1
aI0
aI0
aI1
aI0
aI0
aI1
aI0
aI0
aI1
aI1
aI0
aI0
aI0
aI0
aI0
aI0
aI0
aI0
aI0
aI0
aI0
aI0
aI0
aI0
aI0
aI0
aI0
aI0
aI0
aI0
aI0
aI0
aI0
aI0
aI0
aI0
aI0
aI0
aI0
aI0
aI0
aI0
aI0
aI0
aI0
aF0.12497693627647707
aF0.5702739089723219
aF0.5
aF0.5800653881041513
aF0.5
aF0.5678490720113271
aF0.5152039393334513
aF0.5
aI0
aF0.6729149169040721
aF0.5406992252857851
aF0.6388140286416842
aF0.5733567396026994
aF0.5
aI1
aF0.5
aF0.6242745850549243
aF0.5966688280256184
aF0.5406992252857851
aF0.5288860536203928
aF0.6137966834898949
aF0.7091121634889681
aF0.583317762268188
aF0.5887538457077028
aF0.7411553680049033
aa(lp162
I0
aI1
aI0
aI1
aI0
aI0
aI0
aI0
aI0
aI0
aI0
aI0
aI-1
aI-1
aI-1
aI-1
aI-1
aI-1
aI0
aI0
aI0
aI0
aI1
aI0
aI0
aI0
aI0
aI0
aI1
aI0
aI0
aI0
aI0
aI0
aI0
aI0
aI0
aI0
aI0
aI0
aI0
aI0
aI0
aI0
aI0
aI0
aI0
aI0
aI0
aI0
aI0
aI0
aI0
aI0
aI0
aI0
aI0
aI0
aI0
aI0
aI0
aI0
aI0
aI0
aI0
aF0.0924292260381608
aF0.67993465155383
aI1
aF0.7400451542410373
aF0.6125095177275185
aF0.5797773118629872
aF0.6806964509345699
aF0.6125095177275185
aF0.5569000808886923
aF0.6727564384497279
aF0.6624799281365624
aI1
aF0.512167376530366
aF0.5701237668734789
aF0.6377326489210315
aF0.7498778746060276
aF0.6928612906651956
aI1
aF0.6624799281365624
aF0.6818580915180469
aI1
aF0.7525007054853318
aF0.7370172453095565
aI1
aI1
aa(lp163
I0
aI1
aI0
aI0
aI0
aI1
aI0
aI0
aI0
aI0
aI0
aI0
aI-1
aI-1
aI-1
aI-1
aI0
aI-1
aI0
aI0
aI0
aI0
aI1
aI0
aI0
aI0
aI0
aI0
aI1
aI1
aI0
aI0
aI0
aI0
aI0
aI0
aI0
aI0
aI0
aI0
aI0
aI0
aI0
aI0
aI0
aI0
aI0
aI0
aI0
aI0
aI0
aI0
aI0
aI0
aI0
aI0
aI0
aI0
aI0
aI0
aI0
aI0
aI0
aI0
aI0
aI0
aF0.6808072550240508
aF0.5825445136881217
aF0.5
aF0.7280921355804171
aI1
aF0.7673463612022513
aF0.753241097052737
aF0.5800653881041513
aI1
aF0.5488016625178319
aI1
aF0.6191038980295175
aF0.5924979457652038
aI1
aF0.5800653881041513
aF0.5638329797688069
aF0.5818631094360815
aF0.5891711621765
aF0.5891711621765
aF0.6543185850486611
aF0.7530228083538429
aF0.6060328603933334
aF0.630288820527054
aI1
aa(lp164
I1
aI0
aI0
aI0
aI1
aI0
aI0
aI0
aI0
aI0
aI0
aI0
aI-1
aI-1
aI1
aI-1
aI-1
aI-1
aI0
aI-1
aI0
aI0
aI1
aI0
aI0
aI1
aI0
aI0
aI1
aI1
aI0
aI0
aI0
aI0
aI0
aI0
aI0
aI0
aI0
aI0
aI0
aI0
aI0
aI0
aI0
aI0
aI0
aI0
aI0
aI0
aI0
aI0
aI0
aI0
aI0
aI0
aI0
aI0
aI0
aI0
aI0
aI0
aI0
aI0
aI0
aF0.10004296768396183
aF0.5660501279322816
aF0.5
aF0.5357430314204298
aF0.5654343853748066
aF0.657338749841547
aF0.6727381017529414
aF0.5234665435026907
aF0.5777904972740775
aF0.6913237939886325
aF0.6547956927237909
aF0.7336771055118949
aF0.6647171876899333
aF0.5757218491573359
aF0.6449312485322867
aF0.5566769735591669
aF0.6847621007541346
aI1
aF0.6547956927237909
aF0.6478828400653969
aI1
aF0.7237632689209111
aF0.7144091500329147
aF0.6940606718914806
aF0.752821150512001
aa(lp165
I1
aI0
aI0
aI0
aI1
aI0
aI0
aI0
aI0
aI0
aI0
aI0
aI-1
aI-1
aI1
aI-1
aI-1
aI-1
aI0
aI0
aI0
aI0
aI1
aI0
aI0
aI0
aI1
aI0
aI1
aI1
aI0
aI0
aI0
aI0
aI0
aI0
aI0
aI0
aI0
aI0
aI0
aI0
aI0
aI0
aI0
aI0
aI0
aI0
aI0
aI0
aI0
aI0
aI0
aI0
aI0
aI0
aI0
aI0
aI0
aI0
aI0
aI0
aI0
aI0
aI0
aF0.6264764452700349
aI1
aI1
aF0.5942770435825249
aI1
aI1
aI1
aI1
aI1
aI1
aI1
aI1
aI1
aI1
aI1
aF0.5698143925073594
aI1
aI1
aI1
aF0.5923216116494828
aI1
aI1
aI1
aI1
aI1
aa(lp166
I0
aI1
aI0
aI1
aI0
aI0
aI0
aI0
aI0
aI0
aI0
aI0
aI-1
aI-1
aI-1
aI-1
aI-1
aI-1
aI0
aI0
aI0
aI0
aI1
aI0
aI0
aI0
aI0
aI0
aI1
aI0
aI0
aI0
aI0
aI0
aI0
aI0
aI0
aI0
aI0
aI0
aI0
aI0
aI0
aI0
aI0
aI0
aI0
aI0
aI0
aI0
aI0
aI0
aI0
aI0
aI0
aI0
aI0
aI0
aI0
aI0
aI0
aI0
aI0
aI0
aI0
aF0.0924292260381608
aF0.67993465155383
aI1
aF0.7400451542410373
aF0.6125095177275185
aF0.5797773118629872
aF0.6806964509345699
aF0.6125095177275185
aF0.5569000808886923
aF0.6727564384497279
aF0.6624799281365624
aI1
aF0.512167376530366
aF0.5701237668734789
aF0.6377326489210315
aF0.7498778746060276
aF0.6928612906651956
aI1
aF0.6624799281365624
aF0.6818580915180469
aI1
aF0.7525007054853318
aF0.7370172453095565
aI1
aI1
aa(lp167
I0
aI0
aI1
aI0
aI1
aI0
aI0
aI0
aI0
aI0
aI0
aI0
aI-1
aI-1
aI-1
aI-1
aI0
aI-1
aI0
aI0
aI0
aI0
aI1
aI0
aI0
aI1
aI0
aI0
aI1
aI1
aI1
aI1
aI0
aI0
aI0
aI0
aI0
aI0
aI0
aI0
aI0
aI0
aI0
aI0
aI0
aI0
aI0
aI0
aI0
aI0
aI0
aI0
aI0
aI0
aI0
aI0
aI0
aI0
aI0
aI0
aI0
aI0
aI0
aI0
aI0
aI0
aI0
aF0.5660501279322816
aF0.5762336016390824
aI0
aF0.5103864223005199
aF0.5233456403081337
aF0.5
aF0.5
aF0.5156285914792277
aF0.6731411659043034
aF0.70838596586038
aF0.5692517375501781
aF0.5
aI1
aF0.5
aF0.5973688621439767
aF0.5
aF0.5811526154815995
aF0.611137966799573
aI1
aF0.657070774851754
aF0.6483329760144455
aF0.6846835705702682
aF0.7085848622356106
aa(lp168
I0
aI1
aI0
aI0
aI1
aI0
aI0
aI0
aI0
aI0
aI0
aI0
aI-1
aI-1
aI-1
aI-1
aI0
aI-1
aI0
aI-1
aI0
aI0
aI1
aI0
aI0
aI0
aI0
aI0
aI1
aI0
aI0
aI0
aI0
aI0
aI0
aI0
aI0
aI0
aI0
aI0
aI0
aI0
aI0
aI0
aI0
aI0
aI0
aI0
aI0
aI0
aI0
aI0
aI0
aI0
aI0
aI0
aI0
aI0
aI0
aI0
aI0
aI0
aI0
aI0
aI0
aF0.14733949909459276
aI1
aI1
aI1
aI1
aF0.6909852127219921
aF0.7035643733613459
aI1
aF0.5776677961261593
aI1
aF0.572500631501619
aI1
aF0.6988620218787864
aF0.6123114105666164
aF0.6829961865504609
aI1
aF0.6343415352503409
aI1
aF0.6067538991678777
aF0.7045055558462476
aF0.5337738553626459
aI1
aI1
aI1
aI1
aa(lp169
I0
aI1
aI0
aI0
aI0
aI1
aI0
aI0
aI0
aI0
aI0
aI0
aI-1
aI-1
aI-1
aI-1
aI-1
aI-1
aI0
aI0
aI0
aI0
aI1
aI0
aI0
aI0
aI0
aI0
aI1
aI1
aI0
aI0
aI0
aI0
aI0
aI0
aI0
aI0
aI0
aI0
aI0
aI0
aI0
aI0
aI0
aI0
aI0
aI0
aI0
aI0
aI0
aI0
aI0
aI0
aI0
aI0
aI0
aI0
aI0
aI0
aI0
aI0
aI0
aI0
aI0
aI1
aI1
aI1
aI1
aI1
aI1
aI1
aI1
aI1
aI1
aI1
aI1
aI1
aI1
aI1
aI1
aI1
aI1
aI1
aI1
aI1
aI1
aI1
aI1
aI1
aa(lp170
I0
aI1
aI0
aI0
aI0
aI1
aI0
aI0
aI0
aI0
aI0
aI0
aI-1
aI-1
aI-1
aI-1
aI0
aI-1
aI0
aI0
aI0
aI0
aI1
aI0
aI0
aI1
aI0
aI0
aI0
aI1
aI0
aI0
aI0
aI0
aI0
aI0
aI0
aI0
aI0
aI0
aI0
aI0
aI0
aI0
aI0
aI0
aI0
aI0
aI0
aI0
aI0
aI0
aI0
aI0
aI0
aI0
aI0
aI0
aI0
aI0
aI0
aI0
aI0
aI0
aI0
aI1
aI1
aI1
aI1
aF0.5883155170236446
aI1
aF0.5607967185938866
aI1
aI1
aI1
aI1
aI1
aI1
aI1
aI1
aF0.5737178469184896
aI1
aI1
aI1
aI1
aI1
aI1
aI1
aI1
aI1
aa(lp171
I0
aI1
aI0
aI0
aI0
aI1
aI0
aI0
aI0
aI0
aI0
aI0
aI-1
aI-1
aI-1
aI-1
aI0
aI-1
aI0
aI0
aI0
aI0
aI1
aI0
aI0
aI0
aI0
aI0
aI1
aI1
aI0
aI0
aI0
aI0
aI0
aI0
aI0
aI0
aI0
aI0
aI0
aI0
aI0
aI0
aI0
aI0
aI0
aI0
aI0
aI0
aI0
aI0
aI0
aI0
aI0
aI0
aI0
aI0
aI0
aI0
aI0
aI0
aI0
aI0
aI0
aI0
aI0
aF0.5660501279322816
aF0.5762336016390824
aF0.607043828596713
aF0.5103864223005199
aF0.6052487446301636
aF0.5845182825732097
aF0.5702739089723219
aF0.5156285914792277
aF0.6731411659043034
aI1
aI1
aF0.5103864223005199
aI1
aF0.501152717616773
aF0.7043510771768892
aI1
aF0.6174869490372198
aI1
aI1
aF0.657070774851754
aF0.6483329760144455
aI1
aI1
aa(lp172
I1
aI0
aI0
aI0
aI1
aI0
aI0
aI0
aI0
aI0
aI0
aI0
aI-1
aI-1
aI1
aI-1
aI-1
aI-1
aI0
aI0
aI0
aI0
aI1
aI0
aI0
aI1
aI0
aI0
aI1
aI1
aI0
aI0
aI0
aI0
aI0
aI0
aI0
aI0
aI0
aI0
aI0
aI0
aI0
aI0
aI0
aI0
aI0
aI0
aI0
aI0
aI0
aI0
aI0
aI0
aI0
aI0
aI0
aI0
aI0
aI0
aI0
aI0
aI0
aI0
aI0
aF0.098346071459796
aF0.706347094572752
aI1
aF0.7352641231468
aF0.715121085564038
aF0.7007276010174428
aF0.7514609148994265
aF0.715121085564038
aF0.5855874845149507
aF0.698061356293887
aF0.6544205035984283
aF0.7672453936705266
aF0.6863947109148838
aF0.581218931327998
aI1
aF0.6900353128503088
aF0.6873961082711569
aF0.6154117379371226
aF0.6978258001664364
aF0.6978258001664364
aF0.6310155010708383
aI1
aF0.6032913403996067
aF0.723240238612906
aF0.7673721198632906
aa(lp173
I0
aI0
aI1
aI0
aI0
aI1
aI0
aI0
aI0
aI0
aI0
aI0
aI-1
aI-1
aI-1
aI-1
aI0
aI-1
aI0
aI0
aI0
aI0
aI1
aI0
aI0
aI1
aI0
aI0
aI1
aI1
aI0
aI0
aI0
aI0
aI0
aI0
aI0
aI0
aI0
aI0
aI0
aI0
aI0
aI0
aI0
aI0
aI0
aI0
aI0
aI0
aI0
aI0
aI0
aI0
aI0
aI0
aI0
aI0
aI0
aI0
aI0
aI0
aI0
aI0
aI0
aI0
aF0.5845182825732097
aF0.5477824374913982
aF0.5
aF0.5
aF0.5296721231718472
aF0.7060216493045898
aI0
aF0.5
aF0.5912981335583106
aF0.644652558746943
aF0.5514303052072106
aF0.5692517375501781
aF0.5729717728534833
aI1
aF0.5
aF0.5240462374338287
aF0.5
aF0.644652558746943
aF0.644652558746943
aI1
aF0.7063995534994241
aF0.6915566880665449
aF0.672617169030399
aF0.7085848622356106
aa(lp174
I0
aI0
aI1
aI0
aI1
aI0
aI0
aI0
aI0
aI0
aI0
aI0
aI-1
aI-1
aI-1
aI-1
aI0
aI-1
aI0
aI-1
aI0
aI0
aI1
aI0
aI0
aI1
aI0
aI0
aI1
aI1
aI0
aI0
aI0
aI0
aI0
aI0
aI0
aI0
aI0
aI0
aI0
aI0
aI0
aI0
aI0
aI0
aI0
aI0
aI0
aI0
aI0
aI0
aI0
aI0
aI0
aI0
aI0
aI0
aI0
aI0
aI0
aI0
aI0
aI0
aI0
aI0
aI1
aI1
aF0.5942770435825249
aI1
aI1
aI1
aI1
aI1
aI1
aI1
aI1
aI1
aI1
aI1
aF0.5698143925073594
aI1
aI1
aI1
aF0.5923216116494828
aI1
aI1
aI1
aI1
aI1
aa(lp175
I0
aI1
aI0
aI0
aI0
aI1
aI0
aI0
aI0
aI0
aI0
aI0
aI-1
aI-1
aI-1
aI-1
aI0
aI-1
aI0
aI-1
aI0
aI0
aI1
aI0
aI0
aI0
aI0
aI0
aI1
aI1
aI0
aI0
aI0
aI0
aI0
aI0
aI0
aI0
aI0
aI0
aI0
aI0
aI0
aI0
aI0
aI0
aI0
aI0
aI0
aI0
aI0
aI0
aI0
aI0
aI0
aI0
aI0
aI0
aI0
aI0
aI0
aI0
aI0
aI0
aI0
aI0
aI0
aF0.5660501279322816
aF0.5762336016390824
aF0.607043828596713
aF0.5103864223005199
aF0.6052487446301636
aF0.5845182825732097
aF0.5702739089723219
aF0.5156285914792277
aF0.6731411659043034
aI1
aI1
aF0.5103864223005199
aI1
aF0.501152717616773
aF0.7043510771768892
aI1
aF0.6174869490372198
aI1
aI1
aF0.657070774851754
aF0.6483329760144455
aI1
aI1
aa(lp176
I1
aI0
aI0
aI0
aI1
aI0
aI0
aI0
aI0
aI0
aI0
aI0
aI-1
aI-1
aI1
aI-1
aI-1
aI-1
aI0
aI0
aI0
aI0
aI1
aI0
aI0
aI0
aI0
aI0
aI0
aI1
aI0
aI0
aI0
aI0
aI0
aI0
aI0
aI0
aI0
aI0
aI0
aI0
aI0
aI0
aI0
aI0
aI0
aI0
aI0
aI0
aI0
aI0
aI0
aI0
aI0
aI0
aI0
aI0
aI0
aI0
aI0
aI0
aI0
aI0
aI0
aI1
aI1
aI1
aF0.6622895754187108
aI1
aF0.6566888571385147
aF0.7557950623598528
aF0.6390143088956534
aF0.7418929619691705
aF0.6257523756448831
aF0.7128871408592579
aF0.762444932375377
aI1
aF0.6650663233209374
aI1
aF0.660911041127208
aI1
aI1
aF0.7128871408592579
aF0.7128871408592579
aI1
aF0.7545887679751657
aF0.7472336287175574
aF0.7314233362083563
aF0.6663797678020744
aa(lp177
I0
aI1
aI0
aI1
aI0
aI0
aI0
aI0
aI0
aI0
aI0
aI0
aI-1
aI-1
aI-1
aI-1
aI-1
aI-1
aI0
aI0
aI0
aI0
aI1
aI0
aI0
aI0
aI0
aI0
aI0
aI1
aI0
aI0
aI0
aI0
aI0
aI0
aI0
aI0
aI0
aI0
aI0
aI0
aI0
aI0
aI0
aI0
aI0
aI0
aI0
aI0
aI0
aI0
aI0
aI0
aI0
aI0
aI0
aI0
aI0
aI0
aI0
aI0
aI0
aI0
aI0
aI1
aF0.5660501279322816
aF0.5
aF0.5061229086265145
aF0.6267217208682151
aF0.6603989117385534
aF0.6621964353968365
aF0.5477824374913982
aF0.5
aI1
aF0.6777375993395076
aI1
aF0.6151091496340397
aF0.5763785548030264
aI1
aF0.639871692554306
aI1
aF0.6762506775837269
aF0.6951349776953565
aF0.5
aI1
aI1
aF0.5798676341400274
aI1
aI1
aa(lp178
I0
aI1
aI0
aI0
aI1
aI0
aI0
aI0
aI0
aI0
aI0
aI0
aI-1
aI-1
aI1
aI-1
aI-1
aI-1
aI0
aI-1
aI0
aI0
aI1
aI0
aI0
aI0
aI0
aI0
aI0
aI1
aI0
aI0
aI0
aI0
aI0
aI0
aI0
aI0
aI0
aI0
aI0
aI0
aI0
aI0
aI0
aI0
aI0
aI0
aI0
aI0
aI0
aI0
aI0
aI0
aI0
aI0
aI0
aI0
aI0
aI0
aI0
aI0
aI0
aI0
aI0
aI1
aI0
aF0.5660501279322816
aF0.5762336016390824
aF0.607043828596713
aF0.5103864223005199
aF0.6052487446301636
aF0.5845182825732097
aF0.5702739089723219
aF0.5156285914792277
aF0.6731411659043034
aI1
aI1
aF0.5103864223005199
aI1
aF0.501152717616773
aF0.7043510771768892
aI1
aF0.6174869490372198
aI1
aI1
aF0.657070774851754
aF0.6483329760144455
aI1
aI1
aa(lp179
I0
aI1
aI0
aI1
aI0
aI0
aI0
aI0
aI0
aI0
aI0
aI0
aI-1
aI-1
aI-1
aI-1
aI-1
aI-1
aI0
aI-1
aI0
aI0
aI1
aI0
aI0
aI0
aI1
aI0
aI1
aI1
aI0
aI0
aI0
aI0
aI0
aI0
aI0
aI0
aI0
aI0
aI0
aI0
aI0
aI0
aI0
aI0
aI0
aI0
aI0
aI0
aI0
aI0
aI0
aI0
aI0
aI0
aI0
aI0
aI0
aI0
aI0
aI0
aI0
aI0
aI0
aF0.09915303107686972
aF0.5660501279322816
aF0.5
aF0.5573136545024441
aF0.7384524672116186
aF0.6715184734345465
aF0.6856960747265942
aF0.6045273671216247
aF0.6636710976190753
aF0.55866543967563
aF0.6654066786262569
aI1
aF0.6791406917939296
aF0.5915279059953816
aF0.6610663602759543
aF0.6005614125285241
aF0.6964130398111972
aF0.6896353392651068
aF0.6691822484205258
aF0.6867539380107647
aF0.7031032848857516
aF0.7616003669075565
aF0.6791190167156169
aF0.7316921565541736
aI1
aa(lp180
I0
aI1
aI0
aI0
aI0
aI1
aI0
aI0
aI0
aI0
aI0
aI0
aI-1
aI-1
aI-1
aI-1
aI0
aI-1
aI0
aI0
aI0
aI0
aI1
aI0
aI0
aI0
aI0
aI0
aI1
aI1
aI0
aI0
aI0
aI0
aI0
aI0
aI0
aI0
aI0
aI0
aI0
aI0
aI0
aI0
aI0
aI0
aI0
aI0
aI0
aI0
aI0
aI0
aI0
aI0
aI0
aI0
aI0
aI0
aI0
aI0
aI0
aI0
aI0
aI0
aI0
aI0
aI0
aF0.5660501279322816
aF0.5762336016390824
aF0.607043828596713
aF0.5103864223005199
aF0.6052487446301636
aF0.5845182825732097
aF0.5702739089723219
aF0.5156285914792277
aF0.6731411659043034
aI1
aI1
aF0.5103864223005199
aI1
aF0.501152717616773
aF0.7043510771768892
aI1
aF0.6174869490372198
aI1
aI1
aF0.657070774851754
aF0.6483329760144455
aI1
aI1
aa(lp181
I1
aI0
aI0
aI0
aI1
aI0
aI0
aI0
aI0
aI0
aI0
aI0
aI-1
aI-1
aI1
aI-1
aI-1
aI-1
aI0
aI0
aI0
aI0
aI1
aI0
aI0
aI1
aI0
aI0
aI1
aI1
aI0
aI0
aI0
aI0
aI0
aI0
aI0
aI0
aI0
aI0
aI0
aI0
aI0
aI0
aI0
aI0
aI0
aI0
aI0
aI0
aI0
aI0
aI0
aI0
aI0
aI0
aI0
aI0
aI0
aI0
aI0
aI0
aI0
aI0
aI0
aI0
aI0
aF0.5660501279322816
aF0.5762336016390824
aI0
aF0.5103864223005199
aF0.5233456403081337
aF0.5
aF0.5
aF0.5156285914792277
aF0.6731411659043034
aF0.70838596586038
aF0.5692517375501781
aF0.5
aI1
aF0.5
aF0.5973688621439767
aF0.5
aF0.5811526154815995
aF0.611137966799573
aI1
aF0.657070774851754
aF0.6483329760144455
aF0.6846835705702682
aF0.7085848622356106
aa(lp182
I1
aI0
aI0
aI0
aI0
aI1
aI0
aI0
aI0
aI0
aI0
aI0
aI-1
aI-1
aI1
aI-1
aI-1
aI-1
aI0
aI-1
aI0
aI0
aI1
aI0
aI0
aI1
aI0
aI0
aI1
aI1
aI0
aI0
aI0
aI0
aI0
aI0
aI0
aI0
aI0
aI0
aI0
aI0
aI0
aI0
aI0
aI0
aI0
aI0
aI0
aI0
aI0
aI0
aI0
aI0
aI0
aI0
aI0
aI0
aI0
aI0
aI0
aI0
aI0
aI0
aI0
aF0.15779967308059284
aI0
aF0.5660501279322816
aF0.5762336016390824
aI0
aF0.5103864223005199
aF0.5233456403081337
aF0.5
aF0.5
aF0.5156285914792277
aF0.6731411659043034
aF0.70838596586038
aF0.5692517375501781
aF0.5
aI1
aF0.5
aF0.5973688621439767
aF0.5
aF0.5811526154815995
aF0.611137966799573
aI1
aF0.657070774851754
aF0.6483329760144455
aF0.6846835705702682
aF0.7085848622356106
aa(lp183
I1
aI0
aI0
aI0
aI0
aI1
aI0
aI0
aI0
aI0
aI0
aI0
aI-1
aI-1
aI1
aI-1
aI-1
aI-1
aI0
aI-1
aI0
aI0
aI1
aI0
aI0
aI1
aI0
aI0
aI1
aI1
aI0
aI0
aI0
aI0
aI0
aI0
aI0
aI0
aI0
aI0
aI0
aI0
aI0
aI0
aI0
aI0
aI0
aI0
aI0
aI0
aI0
aI0
aI0
aI0
aI0
aI0
aI0
aI0
aI0
aI0
aI0
aI0
aI0
aI0
aI0
aF0.0924292260381608
aF0.67993465155383
aI1
aF0.7400451542410373
aF0.6125095177275185
aF0.5797773118629872
aF0.6806964509345699
aF0.6125095177275185
aF0.5569000808886923
aF0.6727564384497279
aF0.6624799281365624
aI1
aF0.512167376530366
aF0.5701237668734789
aF0.6377326489210315
aF0.7498778746060276
aF0.6928612906651956
aI1
aF0.6624799281365624
aF0.6818580915180469
aI1
aF0.7525007054853318
aF0.7370172453095565
aI1
aI1
aa(lp184
I1
aI0
aI0
aI0
aI1
aI0
aI0
aI0
aI0
aI0
aI0
aI0
aI-1
aI-1
aI1
aI-1
aI-1
aI-1
aI0
aI0
aI0
aI0
aI1
aI0
aI0
aI1
aI1
aI0
aI1
aI1
aI0
aI0
aI0
aI0
aI0
aI0
aI0
aI0
aI0
aI0
aI0
aI0
aI0
aI0
aI0
aI0
aI0
aI0
aI0
aI0
aI0
aI0
aI0
aI0
aI0
aI0
aI0
aI0
aI0
aI0
aI0
aI0
aI0
aI0
aI0
aF1e-300
aF0.6530788474012764
aI1
aF0.7357380913167351
aF0.7082261913982882
aI1
aF0.5
aF0.7369898585836806
aF0.7335553847097932
aI1
aF0.7473097042109206
aI1
aI1
aI1
aI1
aF0.5
aF0.7655273363157483
aI1
aI1
aI1
aI1
aF0.7367418561839802
aI1
aI1
aI1
aa(lp185
I1
aI0
aI0
aI0
aI0
aI1
aI0
aI0
aI0
aI0
aI0
aI0
aI-1
aI-1
aI1
aI-1
aI-1
aI-1
aI0
aI-1
aI0
aI0
aI1
aI0
aI0
aI1
aI0
aI0
aI1
aI1
aI0
aI0
aI0
aI0
aI0
aI0
aI0
aI0
aI0
aI0
aI0
aI0
aI0
aI0
aI0
aI0
aI0
aI0
aI0
aI0
aI0
aI0
aI0
aI0
aI0
aI0
aI0
aI0
aI0
aI0
aI0
aI0
aI0
aI0
aI0
aF0.10004296768396183
aF0.5660501279322816
aF0.5
aF0.5357430314204298
aF0.5654343853748066
aF0.657338749841547
aF0.6727381017529414
aF0.5234665435026907
aF0.5777904972740775
aF0.6913237939886325
aF0.6547956927237909
aF0.7336771055118949
aF0.6647171876899333
aF0.5757218491573359
aF0.6449312485322867
aF0.5566769735591669
aF0.6847621007541346
aI1
aF0.6547956927237909
aF0.6478828400653969
aI1
aF0.7237632689209111
aF0.7144091500329147
aF0.6940606718914806
aF0.752821150512001
aa(lp186
I1
aI0
aI0
aI0
aI1
aI0
aI0
aI0
aI0
aI0
aI0
aI0
aI-1
aI-1
aI1
aI-1
aI-1
aI-1
aI0
aI-1
aI0
aI0
aI1
aI0
aI0
aI1
aI0
aI0
aI1
aI1
aI0
aI0
aI0
aI0
aI0
aI0
aI0
aI0
aI0
aI0
aI0
aI0
aI0
aI0
aI0
aI0
aI0
aI0
aI0
aI0
aI0
aI0
aI0
aI0
aI0
aI0
aI0
aI0
aI0
aI0
aI0
aI0
aI0
aI0
aI0
aF0.10004296768396183
aF0.5660501279322816
aF0.5
aF0.5357430314204298
aF0.5654343853748066
aF0.657338749841547
aF0.6727381017529414
aF0.5234665435026907
aF0.5777904972740775
aF0.6913237939886325
aF0.6547956927237909
aF0.7336771055118949
aF0.6647171876899333
aF0.5757218491573359
aF0.6449312485322867
aF0.5566769735591669
aF0.6847621007541346
aI1
aF0.6547956927237909
aF0.6478828400653969
aI1
aF0.7237632689209111
aF0.7144091500329147
aF0.6940606718914806
aF0.752821150512001
aa(lp187
I0
aI0
aI1
aI0
aI1
aI0
aI0
aI0
aI0
aI0
aI0
aI0
aI-1
aI-1
aI-1
aI-1
aI0
aI-1
aI0
aI0
aI0
aI0
aI1
aI0
aI0
aI1
aI0
aI0
aI1
aI1
aI0
aI0
aI0
aI0
aI0
aI0
aI0
aI0
aI0
aI0
aI0
aI0
aI0
aI0
aI0
aI0
aI0
aI0
aI0
aI0
aI0
aI0
aI0
aI0
aI0
aI0
aI0
aI0
aI0
aI0
aI0
aI0
aI0
aI0
aI0
aI0
aF0.607043828596713
aF0.6267217208682151
aF0.6563774155260674
aI0
aF0.5577734713497952
aF0.5233456403081337
aF0.5
aF0.5
aF0.617245385686066
aF0.6876465059093766
aF0.70838596586038
aF0.5692517375501781
aF0.5
aI1
aF0.5
aF0.5973688621439767
aF0.5
aF0.5811526154815995
aF0.611137966799573
aI1
aF0.7110550340917559
aF0.6959949674278685
aF0.6846835705702682
aF0.7085848622356106
aa(lp188
I0
aI1
aI0
aI0
aI0
aI1
aI0
aI0
aI0
aI0
aI0
aI0
aI-1
aI-1
aI-1
aI-1
aI0
aI-1
aI0
aI0
aI0
aI0
aI1
aI0
aI0
aI0
aI0
aI0
aI1
aI1
aI0
aI0
aI0
aI0
aI0
aI0
aI0
aI0
aI0
aI0
aI0
aI0
aI0
aI0
aI0
aI0
aI0
aI0
aI0
aI0
aI0
aI0
aI0
aI0
aI0
aI0
aI0
aI0
aI0
aI0
aI0
aI0
aI0
aI0
aI0
aI0
aI0
aF0.5660501279322816
aF0.5762336016390824
aF0.607043828596713
aF0.5103864223005199
aF0.6052487446301636
aF0.5845182825732097
aF0.5702739089723219
aF0.5156285914792277
aF0.6731411659043034
aI1
aI1
aF0.5103864223005199
aI1
aF0.501152717616773
aF0.7043510771768892
aI1
aF0.6174869490372198
aI1
aI1
aF0.657070774851754
aF0.6483329760144455
aI1
aI1
aa(lp189
I0
aI1
aI0
aI1
aI0
aI0
aI0
aI0
aI0
aI0
aI0
aI0
aI-1
aI-1
aI-1
aI-1
aI-1
aI-1
aI0
aI-1
aI0
aI0
aI1
aI0
aI0
aI0
aI1
aI0
aI1
aI1
aI0
aI0
aI0
aI0
aI0
aI0
aI0
aI0
aI0
aI0
aI0
aI0
aI0
aI0
aI0
aI0
aI0
aI0
aI0
aI0
aI0
aI0
aI0
aI0
aI0
aI0
aI0
aI0
aI0
aI0
aI0
aI0
aI0
aI0
aI0
aF0.09915303107686972
aF0.5660501279322816
aF0.5
aF0.5573136545024441
aF0.7384524672116186
aF0.6715184734345465
aF0.6856960747265942
aF0.6045273671216247
aF0.6636710976190753
aF0.55866543967563
aF0.6654066786262569
aI1
aF0.6791406917939296
aF0.5915279059953816
aF0.6610663602759543
aF0.6005614125285241
aF0.6964130398111972
aF0.6896353392651068
aF0.6691822484205258
aF0.6867539380107647
aF0.7031032848857516
aF0.7616003669075565
aF0.6791190167156169
aF0.7316921565541736
aI1
aa(lp190
I0
aI1
aI0
aI0
aI0
aI1
aI0
aI0
aI0
aI0
aI0
aI0
aI-1
aI-1
aI-1
aI-1
aI0
aI-1
aI0
aI0
aI0
aI0
aI1
aI0
aI0
aI0
aI0
aI0
aI1
aI1
aI0
aI0
aI0
aI0
aI0
aI0
aI0
aI0
aI0
aI0
aI0
aI0
aI0
aI0
aI0
aI0
aI0
aI0
aI0
aI0
aI0
aI0
aI0
aI0
aI0
aI0
aI0
aI0
aI0
aI0
aI0
aI0
aI0
aI0
aI0
aI0
aI1
aI1
aF0.5942770435825249
aI1
aI1
aI1
aI1
aI1
aI1
aI1
aI1
aI1
aI1
aI1
aF0.5698143925073594
aI1
aI1
aI1
aF0.5923216116494828
aI1
aI1
aI1
aI1
aI1
aa(lp191
I0
aI0
aI1
aI0
aI0
aI1
aI0
aI0
aI0
aI0
aI0
aI0
aI-1
aI-1
aI-1
aI-1
aI0
aI-1
aI0
aI0
aI0
aI0
aI1
aI0
aI0
aI1
aI0
aI0
aI1
aI1
aI0
aI0
aI0
aI0
aI0
aI0
aI0
aI0
aI0
aI0
aI0
aI0
aI0
aI0
aI0
aI0
aI0
aI0
aI0
aI0
aI0
aI0
aI0
aI0
aI0
aI0
aI0
aI0
aI0
aI0
aI0
aI0
aI0
aI0
aI0
aI0
aF0.5845182825732097
aF0.5477824374913982
aF0.5
aF0.5
aF0.5296721231718472
aF0.7060216493045898
aI0
aF0.5
aF0.5912981335583106
aF0.644652558746943
aF0.5514303052072106
aF0.5692517375501781
aF0.5729717728534833
aI1
aF0.5
aF0.5240462374338287
aF0.5
aF0.644652558746943
aF0.644652558746943
aI1
aF0.7063995534994241
aF0.6915566880665449
aF0.672617169030399
aF0.7085848622356106
aa(lp192
I1
aI0
aI0
aI0
aI1
aI0
aI0
aI0
aI0
aI0
aI0
aI0
aI-1
aI-1
aI1
aI-1
aI-1
aI-1
aI0
aI-1
aI0
aI0
aI1
aI0
aI0
aI1
aI0
aI0
aI1
aI1
aI0
aI0
aI0
aI0
aI0
aI0
aI0
aI0
aI0
aI0
aI0
aI0
aI0
aI0
aI0
aI0
aI0
aI0
aI0
aI0
aI0
aI0
aI0
aI0
aI0
aI0
aI0
aI0
aI0
aI0
aI0
aI0
aI0
aI0
aI0
aF0.10004296768396183
aF0.5660501279322816
aF0.5
aF0.5357430314204298
aF0.5654343853748066
aF0.657338749841547
aF0.6727381017529414
aF0.5234665435026907
aF0.5777904972740775
aF0.6913237939886325
aF0.6547956927237909
aF0.7336771055118949
aF0.6647171876899333
aF0.5757218491573359
aF0.6449312485322867
aF0.5566769735591669
aF0.6847621007541346
aI1
aF0.6547956927237909
aF0.6478828400653969
aI1
aF0.7237632689209111
aF0.7144091500329147
aF0.6940606718914806
aF0.752821150512001
aa(lp193
I0
aI1
aI0
aI1
aI0
aI0
aI0
aI0
aI0
aI0
aI0
aI0
aI-1
aI-1
aI-1
aI-1
aI-1
aI-1
aI0
aI-1
aI0
aI0
aI1
aI0
aI0
aI0
aI0
aI0
aI1
aI0
aI0
aI0
aI0
aI0
aI0
aI0
aI0
aI0
aI0
aI0
aI0
aI0
aI0
aI0
aI0
aI0
aI0
aI0
aI0
aI0
aI0
aI0
aI0
aI0
aI0
aI0
aI0
aI0
aI0
aI0
aI0
aI0
aI0
aI0
aI0
aF0.0924292260381608
aF0.67993465155383
aI1
aF0.7400451542410373
aF0.6125095177275185
aF0.5797773118629872
aF0.6806964509345699
aF0.6125095177275185
aF0.5569000808886923
aF0.6727564384497279
aF0.6624799281365624
aI1
aF0.512167376530366
aF0.5701237668734789
aF0.6377326489210315
aF0.7498778746060276
aF0.6928612906651956
aI1
aF0.6624799281365624
aF0.6818580915180469
aI1
aF0.7525007054853318
aF0.7370172453095565
aI1
aI1
aa(lp194
I0
aI0
aI1
aI0
aI1
aI0
aI0
aI0
aI0
aI0
aI0
aI0
aI-1
aI-1
aI-1
aI-1
aI0
aI-1
aI0
aI-1
aI0
aI0
aI1
aI0
aI0
aI1
aI0
aI0
aI1
aI1
aI0
aI0
aI0
aI0
aI0
aI0
aI0
aI0
aI0
aI0
aI0
aI0
aI0
aI0
aI0
aI0
aI0
aI0
aI0
aI0
aI0
aI0
aI0
aI0
aI0
aI0
aI0
aI0
aI0
aI0
aI0
aI0
aI0
aI0
aI0
aI0
aF0.7002046764701588
aF0.7080620682426036
aF0.7163643843571238
aF0.5761564699443599
aF0.7298094388316532
aF0.7778242236320282
aF0.6846545035602672
aF0.6846545035602672
aI1
aF0.7732695325426403
aF0.7527610998778927
aF0.531953650068141
aF0.7347716729844952
aI1
aF0.6178090883814487
aF0.7880457463525948
aF0.6931163423336668
aF0.7385141342271495
aF0.7016289752434676
aI1
aF0.7647978969840609
aF0.7315763904890072
aF0.7359316313554412
aF0.7529040842951182
aa(lp195
I0
aI1
aI0
aI0
aI1
aI0
aI0
aI0
aI0
aI0
aI0
aI0
aI-1
aI-1
aI-1
aI-1
aI0
aI-1
aI0
aI0
aI0
aI0
aI1
aI0
aI0
aI1
aI1
aI0
aI1
aI1
aI0
aI0
aI0
aI0
aI0
aI0
aI0
aI0
aI0
aI0
aI0
aI0
aI0
aI0
aI0
aI0
aI0
aI0
aI0
aI0
aI0
aI0
aI0
aI0
aI0
aI0
aI0
aI0
aI0
aI0
aI0
aI0
aI0
aI0
aI0
aI0
aF0.501152717616773
aF0.5838918013627752
aF0.5309912748691271
aF0.5
aF0.601287637232065
aF0.542206755069974
aF0.5
aF0.5
aF0.5356797882797583
aF0.5252167817173543
aF0.5514303052072106
aF0.6360769640783306
aF0.5876028204815266
aF0.531707461038853
aI0
aF0.5211810840509955
aF0.5200612429987673
aF0.536092223035277
aF0.530149360213763
aF0.7148423717377155
aF0.694438318830211
aF0.6100950771863298
aF0.657674953945819
aF0.614299347539995
aa(lp196
I0
aI1
aI0
aI0
aI0
aI1
aI0
aI0
aI0
aI0
aI0
aI0
aI-1
aI-1
aI-1
aI-1
aI0
aI-1
aI0
aI0
aI0
aI0
aI1
aI0
aI0
aI0
aI0
aI0
aI1
aI1
aI0
aI0
aI0
aI0
aI0
aI0
aI0
aI0
aI0
aI0
aI0
aI0
aI0
aI0
aI0
aI0
aI0
aI0
aI0
aI0
aI0
aI0
aI0
aI0
aI0
aI0
aI0
aI0
aI0
aI0
aI0
aI0
aI0
aI0
aI0
aI0
aI1
aI1
aF0.5942770435825249
aI1
aI1
aI1
aI1
aI1
aI1
aI1
aI1
aI1
aI1
aI1
aF0.5698143925073594
aI1
aI1
aI1
aF0.5923216116494828
aI1
aI1
aI1
aI1
aI1
aa(lp197
I0
aI1
aI0
aI0
aI1
aI0
aI0
aI0
aI0
aI0
aI0
aI0
aI-1
aI-1
aI-1
aI-1
aI0
aI-1
aI0
aI-1
aI0
aI0
aI1
aI0
aI0
aI0
aI0
aI0
aI0
aI1
aI0
aI0
aI0
aI0
aI0
aI0
aI0
aI0
aI0
aI0
aI0
aI0
aI0
aI0
aI0
aI0
aI0
aI0
aI0
aI0
aI0
aI0
aI0
aI0
aI0
aI0
aI0
aI0
aI0
aI0
aI0
aI0
aI0
aI0
aI0
aI0
aI0
aF0.5660501279322816
aF0.5762336016390824
aF0.607043828596713
aF0.5103864223005199
aF0.6052487446301636
aF0.5845182825732097
aF0.5702739089723219
aF0.5156285914792277
aF0.6731411659043034
aI1
aI1
aF0.5103864223005199
aI1
aF0.501152717616773
aF0.7043510771768892
aI1
aF0.6174869490372198
aI1
aI1
aF0.657070774851754
aF0.6483329760144455
aI1
aI1
aa(lp198
I0
aI0
aI1
aI0
aI0
aI1
aI0
aI0
aI0
aI0
aI0
aI0
aI-1
aI-1
aI-1
aI-1
aI0
aI1
aI0
aI0
aI0
aI0
aI1
aI0
aI0
aI1
aI0
aI0
aI0
aI0
aI0
aI0
aI0
aI0
aI0
aI0
aI0
aI0
aI0
aI0
aI0
aI0
aI0
aI0
aI0
aI0
aI0
aI0
aI0
aI0
aI0
aI0
aI0
aI0
aI0
aI0
aI0
aI0
aI0
aI0
aI0
aI0
aI0
aI0
aI0
aI0
aF0.6694150370649532
aF0.6417498765616401
aF0.5
aF0.5692060765317528
aF0.6943120933226714
aF0.5669721448278299
aF0.5368239222327568
aF0.5
aF0.523835697855588
aF0.6630749402735499
aF0.6314822793026725
aF0.6214975441446128
aF0.5692060765317528
aI1
aF0.5296790472576347
aF0.7731053158712572
aF0.5361592754931392
aF0.5696589351798905
aF0.5199767373242329
aI1
aF0.7190901754241309
aF0.7094113479341875
aF0.6883181462584669
aF0.7481113884788531
aa(lp199
I0
aI1
aI0
aI0
aI0
aI1
aI0
aI0
aI0
aI0
aI0
aI0
aI-1
aI-1
aI-1
aI-1
aI0
aI-1
aI0
aI-1
aI0
aI0
aI1
aI0
aI0
aI0
aI0
aI0
aI1
aI1
aI0
aI0
aI0
aI0
aI0
aI0
aI0
aI0
aI0
aI0
aI0
aI0
aI0
aI0
aI0
aI0
aI0
aI0
aI0
aI0
aI0
aI0
aI0
aI0
aI0
aI0
aI0
aI0
aI0
aI0
aI0
aI0
aI0
aI0
aI0
aI0
aI0
aF0.5660501279322816
aF0.5762336016390824
aF0.607043828596713
aF0.5103864223005199
aF0.6052487446301636
aF0.5845182825732097
aF0.5702739089723219
aF0.5156285914792277
aF0.6731411659043034
aI1
aI1
aF0.5103864223005199
aI1
aF0.501152717616773
aF0.7043510771768892
aI1
aF0.6174869490372198
aI1
aI1
aF0.657070774851754
aF0.6483329760144455
aI1
aI1
aa(lp200
I0
aI0
aI1
aI0
aI1
aI0
aI0
aI0
aI0
aI0
aI0
aI0
aI-1
aI-1
aI-1
aI-1
aI-1
aI-1
aI0
aI-1
aI0
aI0
aI1
aI0
aI0
aI1
aI0
aI0
aI1
aI1
aI0
aI0
aI0
aI0
aI0
aI0
aI0
aI0
aI0
aI0
aI0
aI0
aI0
aI0
aI0
aI0
aI0
aI0
aI0
aI0
aI0
aI0
aI0
aI0
aI0
aI0
aI0
aI0
aI0
aI0
aI0
aI0
aI0
aI0
aI0
aI1
aI1
aI1
aI1
aI1
aI1
aI1
aI1
aI1
aI1
aI1
aI1
aI1
aI1
aI1
aI1
aI1
aI1
aI1
aI1
aI1
aI1
aI1
aI1
aI1
aa(lp201
I1
aI0
aI0
aI1
aI0
aI0
aI0
aI0
aI0
aI0
aI0
aI0
aI-1
aI-1
aI-1
aI-1
aI-1
aI1
aI0
aI0
aI0
aI0
aI1
aI0
aI0
aI1
aI0
aI0
aI0
aI0
aI0
aI0
aI0
aI0
aI0
aI0
aI0
aI0
aI0
aI0
aI0
aI0
aI0
aI0
aI0
aI0
aI0
aI0
aI0
aI0
aI0
aI1
aI0
aI0
aI0
aI0
aI0
aI0
aI0
aI0
aI0
aI0
aI0
aI0
aI0
aI0
aF0.5702739089723219
aF0.5
aF0.5800653881041513
aF0.5
aF0.5678490720113271
aF0.5152039393334513
aF0.5
aF0.5
aF0.6729149169040721
aF0.5406992252857851
aF0.6388140286416842
aF0.5733567396026994
aF0.5
aI1
aF0.5
aF0.6242745850549243
aF0.5966688280256184
aF0.5406992252857851
aF0.5288860536203928
aF0.6137966834898949
aF0.7091121634889681
aF0.583317762268188
aF0.5887538457077028
aF0.7411553680049033
aa(lp202
I1
aI0
aI0
aI0
aI0
aI1
aI0
aI0
aI0
aI1
aI0
aI0
aI-1
aI-1
aI-1
aI-1
aI-1
aI-1
aI0
aI-1
aI0
aI0
aI1
aI0
aI0
aI1
aI1
aI0
aI0
aI0
aI0
aI0
aI0
aI0
aI0
aI0
aI0
aI0
aI0
aI0
aI0
aI0
aI0
aI0
aI0
aI0
aI0
aI0
aI1
aI0
aI0
aI0
aI0
aI0
aI0
aI0
aI0
aI0
aI0
aI0
aI0
aI0
aI0
aI0
aI0
aI1
aF0.6694150370649532
aF0.6417498765616401
aF0.5
aF0.5692060765317528
aF0.6943120933226714
aF0.5669721448278299
aF0.5368239222327568
aF0.5
aF0.523835697855588
aF0.6630749402735499
aF0.6314822793026725
aF0.6214975441446128
aF0.5692060765317528
aI1
aF0.5296790472576347
aF0.7731053158712572
aF0.5361592754931392
aF0.5696589351798905
aF0.5199767373242329
aI1
aF0.7190901754241309
aF0.7094113479341875
aF0.6883181462584669
aF0.7481113884788531
aa(lp203
I0
aI1
aI0
aI0
aI0
aI1
aI0
aI0
aI0
aI0
aI0
aI0
aI-1
aI1
aI-1
aI-1
aI-1
aI-1
aI0
aI-1
aI0
aI0
aI1
aI0
aI0
aI0
aI1
aI0
aI0
aI0
aI0
aI0
aI0
aI0
aI0
aI0
aI0
aI0
aI0
aI0
aI0
aI0
aI0
aI0
aI0
aI0
aI0
aI0
aI0
aI0
aI0
aI0
aI0
aI0
aI0
aI0
aI0
aI0
aI0
aI0
aI0
aI0
aI0
aI0
aI0
aI1
aF0.501152717616773
aF0.639871692554306
aF0.5309912748691271
aF0.5
aF0.601287637232065
aF0.542206755069974
aF0.5
aF0.5
aF0.5356797882797583
aF0.5252167817173543
aF0.5514303052072106
aF0.6360769640783306
aF0.5876028204815266
aF0.531707461038853
aI0
aF0.5211810840509955
aF0.5200612429987673
aF0.536092223035277
aF0.530149360213763
aF0.7148423717377155
aF0.694438318830211
aF0.678093980523435
aF0.657674953945819
aF0.614299347539995
aa(lp204
I0
aI1
aI0
aI0
aI0
aI1
aI0
aI0
aI0
aI1
aI1
aI0
aI-1
aI-1
aI-1
aI-1
aI-1
aI-1
aI0
aI-1
aI0
aI0
aI1
aI0
aI0
aI0
aI1
aI0
aI0
aI0
aI0
aI0
aI0
aI0
aI0
aI0
aI0
aI0
aI0
aI0
aI0
aI0
aI0
aI0
aI0
aI0
aI0
aI0
aI0
aI0
aI0
aI0
aI0
aI0
aI0
aI0
aI0
aI0
aI0
aI0
aI0
aI0
aI0
aI0
aI0
aI1
aF0.501152717616773
aF0.639871692554306
aF0.5309912748691271
aF0.5
aF0.601287637232065
aF0.542206755069974
aF0.5
aF0.5
aF0.5356797882797583
aF0.5252167817173543
aF0.5514303052072106
aF0.6360769640783306
aF0.5876028204815266
aF0.531707461038853
aI0
aF0.5211810840509955
aF0.5200612429987673
aF0.536092223035277
aF0.530149360213763
aF0.7148423717377155
aF0.694438318830211
aF0.678093980523435
aF0.657674953945819
aF0.614299347539995
aa(lp205
I0
aI0
aI1
aI0
aI0
aI1
aI0
aI0
aI0
aI0
aI0
aI0
aI1
aI-1
aI-1
aI1
aI-1
aI-1
aI0
aI-1
aI0
aI0
aI1
aI0
aI0
aI0
aI0
aI0
aI0
aI0
aI0
aI0
aI0
aI0
aI0
aI0
aI0
aI0
aI0
aI0
aI0
aI0
aI0
aI0
aI0
aI0
aI0
aI0
aI0
aI0
aI0
aI0
aI0
aI0
aI0
aI0
aI0
aI0
aI0
aI0
aI0
aI0
aI0
aI0
aI0
aI1
aI1
aI1
aI1
aI1
aI1
aI1
aI1
aI1
aI1
aI1
aI1
aI1
aI1
aI1
aI1
aI1
aI1
aI1
aI1
aI1
aI1
aI1
aI1
aI1
aa(lp206
I0
aI1
aI0
aI0
aI1
aI0
aI0
aI0
aI0
aI0
aI0
aI0
aI-1
aI-1
aI-1
aI-1
aI1
aI1
aI0
aI1
aI0
aI0
aI1
aI0
aI0
aI0
aI0
aI0
aI0
aI0
aI0
aI0
aI0
aI0
aI0
aI0
aI0
aI0
aI0
aI0
aI0
aI0
aI0
aI0
aI0
aI0
aI0
aI0
aI0
aI0
aI0
aI0
aI0
aI0
aI0
aI0
aI0
aI0
aI0
aI0
aI0
aI0
aI0
aI0
aI0
aI1
aI1
aI1
aI1
aI1
aI1
aI1
aI1
aI1
aI1
aI1
aI1
aI1
aI1
aI1
aI1
aI1
aI1
aI1
aI1
aI1
aI1
aI1
aI1
aI1
aa(lp207
I1
aI0
aI0
aI0
aI0
aI1
aI0
aI0
aI0
aI0
aI0
aI0
aI-1
aI-1
aI-1
aI-1
aI-1
aI-1
aI0
aI0
aI0
aI0
aI1
aI0
aI0
aI1
aI0
aI0
aI0
aI0
aI0
aI0
aI0
aI0
aI0
aI0
aI0
aI0
aI0
aI0
aI0
aI0
aI0
aI0
aI0
aI0
aI0
aI0
aI0
aI0
aI0
aI0
aI0
aI0
aI0
aI0
aI0
aI0
aI0
aI1
aI0
aI0
aI0
aI1
aI0
aF0.09420020916031033
aF0.7043510771768892
aI1
aF0.7665741359586784
aF0.5973688621439767
aF0.67628317488964
aF0.6900610861329958
aF0.5240462374338287
aF0.6242745850549243
aI1
aF0.5902545845741275
aI1
aF0.6839762527433063
aF0.5962846535468412
aF0.6664574727306354
aF0.5211810840509955
aI0
aF0.6017842064639691
aF0.5902545845741275
aF0.691089818605029
aF0.7087281892142097
aF0.7673576618240046
aF0.6856793837685414
aF0.7371866760277586
aI1
aa(lp208
I0
aI0
aI1
aI0
aI0
aI1
aI0
aI0
aI1
aI0
aI0
aI0
aI-1
aI-1
aI-1
aI-1
aI0
aI-1
aI0
aI0
aI0
aI0
aI1
aI0
aI0
aI1
aI1
aI0
aI0
aI0
aI0
aI0
aI0
aI0
aI0
aI0
aI0
aI0
aI0
aI0
aI0
aI0
aI0
aI0
aI0
aI0
aI0
aI0
aI0
aI0
aI0
aI0
aI0
aI0
aI0
aI0
aI0
aI0
aI0
aI0
aI0
aI0
aI0
aI0
aI0
aI1
aI1
aI1
aI1
aI1
aI1
aI1
aI1
aI1
aI1
aI1
aI1
aI1
aI1
aI1
aI1
aI1
aI1
aI1
aI1
aI1
aI1
aI1
aI1
aI1
aa(lp209
I0
aI0
aI1
aI0
aI0
aI1
aI0
aI0
aI1
aI0
aI0
aI0
aI-1
aI-1
aI-1
aI-1
aI0
aI-1
aI0
aI0
aI0
aI0
aI1
aI0
aI0
aI1
aI1
aI0
aI0
aI0
aI0
aI0
aI0
aI0
aI0
aI0
aI0
aI0
aI0
aI0
aI0
aI0
aI0
aI0
aI0
aI0
aI0
aI0
aI0
aI0
aI0
aI0
aI0
aI0
aI0
aI0
aI0
aI0
aI0
aI0
aI0
aI0
aI0
aI0
aI0
aI1
aI1
aI1
aI1
aI1
aI1
aI1
aI1
aI1
aI1
aI1
aI1
aI1
aI1
aI1
aI1
aI1
aI1
aI1
aI1
aI1
aI1
aI1
aI1
aI1
aa(lp210
I1
aI0
aI0
aI0
aI0
aI1
aI0
aI0
aI0
aI0
aI0
aI0
aI-1
aI-1
aI1
aI-1
aI-1
aI-1
aI0
aI0
aI0
aI0
aI1
aI0
aI0
aI0
aI1
aI0
aI0
aI0
aI0
aI0
aI0
aI0
aI0
aI0
aI0
aI0
aI0
aI0
aI0
aI0
aI0
aI0
aI0
aI0
aI0
aI0
aI0
aI0
aI0
aI0
aI0
aI0
aI1
aI0
aI0
aI0
aI0
aI0
aI0
aI0
aI0
aI0
aI0
aF0.28136387185230444
aF0.7043510771768892
aI1
aF0.7665741359586784
aF0.5973688621439767
aF0.67628317488964
aF0.6900610861329958
aF0.5240462374338287
aF0.6242745850549243
aI1
aF0.5902545845741275
aI1
aF0.6839762527433063
aF0.5962846535468412
aF0.6664574727306354
aF0.5211810840509955
aI0
aF0.6017842064639691
aF0.5902545845741275
aF0.691089818605029
aF0.7087281892142097
aF0.7673576618240046
aF0.6856793837685414
aF0.7371866760277586
aI1
aa(lp211
I1
aI0
aI0
aI1
aI0
aI0
aI0
aI0
aI0
aI0
aI0
aI0
aI1
aI-1
aI-1
aI1
aI-1
aI-1
aI0
aI0
aI0
aI0
aI1
aI0
aI0
aI0
aI0
aI0
aI0
aI0
aI0
aI0
aI0
aI0
aI0
aI0
aI0
aI0
aI0
aI0
aI0
aI0
aI0
aI0
aI0
aI0
aI0
aI0
aI0
aI0
aI0
aI0
aI0
aI0
aI1
aI0
aI0
aI0
aI0
aI0
aI0
aI0
aI0
aI0
aI0
aF0.28136387185230444
aF0.6530788474012764
aI1
aF0.7357380913167351
aF0.7082261913982882
aI1
aF0.5
aF0.7369898585836806
aF0.7335553847097932
aI1
aF0.7473097042109206
aI1
aI1
aI1
aI1
aF0.5
aF0.7655273363157483
aI1
aI1
aI1
aI1
aF0.7367418561839802
aI1
aI1
aI1
aa(lp212
tp213
sS'-'
p214
((lp215
(lp216
I0
aI1
aI0
aI0
aI0
aI1
aI0
aI0
aI0
aI0
aI0
aI0
aI-1
aI-1
aI-1
aI-1
aI0
aI1
aI-1
aI0
aI0
aI1
aI0
aI0
aI0
aI1
aI0
aI0
aI0
aI0
aI0
aI0
aI0
aI0
aI0
aI0
aI0
aI0
aI0
aI0
aI0
aI0
aI0
aI0
aI0
aI0
aI0
aI0
aI0
aI0
aI0
aI0
aI0
aI0
aI0
aI0
aI0
aI0
aI0
aI0
aI0
aI0
aI0
aI0
aI0
aF0.28167468250923683
aF0.6902426141721503
aF0.6267217208682151
aF0.7315187409921419
aF0.5
aF0.6713845863266824
aF0.6012550924967062
aF0.6035440750704084
aF0.5262694268381999
aF0.6810088557968027
aF0.6876362741474213
aF0.7454172170851433
aF0.6907487010344655
aF0.5667795275468164
aI1
aF0.5284314353804603
aF0.6487674790328958
aF0.6308303126598502
aF0.6876362741474213
aF0.6876362741474213
aI1
aF0.7363730050246899
aF0.7278665425806454
aF0.709452396984755
aF0.7629662472216575
aa(lp217
I0
aI1
aI0
aI1
aI0
aI0
aI0
aI0
aI0
aI0
aI0
aI0
aI-1
aI-1
aI-1
aI-1
aI-1
aI1
aI0
aI0
aI0
aI1
aI0
aI0
aI0
aI0
aI0
aI0
aI0
aI0
aI0
aI0
aI0
aI0
aI0
aI0
aI0
aI0
aI0
aI0
aI0
aI0
aI0
aI0
aI0
aI0
aI0
aI0
aI0
aI0
aI0
aI0
aI0
aI0
aI0
aI0
aI0
aI0
aI0
aI0
aI0
aI0
aI0
aI0
aI0
aF0.28167468250923683
aF0.7190404418428853
aF0.5978026335112862
aF0.7262490816240235
aF0.5992861775445284
aF0.6954087058631137
aF0.6968555058119087
aF0.7017813141280074
aF0.5
aF0.7114647751190245
aF0.7094305442302373
aF0.7603054525565875
aF0.6677040232029223
aF0.5828667642846106
aI1
aF0.7376816278594948
aI1
aF0.7046548752346717
aF0.6428785562783049
aF0.5978026335112862
aI1
aI1
aF0.7440867143820746
aF0.7445201843771252
aF0.7604398463082618
aa(lp218
I0
aI0
aI1
aI1
aI0
aI0
aI0
aI0
aI0
aI0
aI0
aI0
aI-1
aI-1
aI-1
aI-1
aI-1
aI1
aI0
aI0
aI0
aI0
aI1
aI0
aI0
aI0
aI1
aI0
aI0
aI0
aI1
aI0
aI0
aI0
aI0
aI0
aI0
aI0
aI0
aI0
aI0
aI0
aI0
aI0
aI0
aI0
aI0
aI0
aI0
aI0
aI0
aI0
aI0
aI0
aI0
aI0
aI0
aI0
aI0
aI0
aI0
aI0
aI0
aI0
aI0
aF0.0924292260381608
aF0.67993465155383
aI1
aF0.7400451542410373
aF0.6125095177275185
aF0.5797773118629872
aF0.6806964509345699
aF0.6125095177275185
aF0.5569000808886923
aF0.6727564384497279
aF0.6624799281365624
aI1
aF0.512167376530366
aF0.5701237668734789
aF0.6377326489210315
aF0.7498778746060276
aF0.6928612906651956
aI1
aF0.6624799281365624
aF0.6818580915180469
aI1
aF0.7525007054853318
aF0.7370172453095565
aI1
aI1
aa(lp219
I0
aI0
aI1
aI1
aI0
aI0
aI0
aI0
aI1
aI0
aI0
aI1
aI-1
aI-1
aI-1
aI-1
aI-1
aI1
aI0
aI0
aI0
aI0
aI1
aI0
aI0
aI0
aI0
aI0
aI0
aI0
aI0
aI0
aI0
aI0
aI0
aI0
aI0
aI0
aI0
aI0
aI0
aI0
aI0
aI0
aI0
aI0
aI0
aI0
aI0
aI0
aI0
aI0
aI0
aI0
aI1
aI0
aI0
aI0
aI0
aI0
aI0
aI0
aI0
aI0
aI0
aF0.14733949909459276
aI1
aI1
aI1
aF0.5337013026636382
aF0.5429047615142243
aF0.5
aF0.7081244334821964
aF0.7108054098687346
aF0.6037163777043134
aF0.5727336183849193
aF0.7363611730287866
aF0.6956410850934531
aF0.6088225078031506
aF0.6794248981791163
aF0.5315984120144411
aF0.6312394619182374
aI1
aF0.5727336183849193
aF0.6738919879520486
aI1
aF0.6400140791147305
aF0.6294355650195435
aF0.69759735748837
aF0.7551348864085605
aa(lp220
I0
aI0
aI1
aI1
aI0
aI0
aI0
aI0
aI1
aI0
aI0
aI1
aI-1
aI-1
aI-1
aI-1
aI-1
aI1
aI0
aI0
aI0
aI0
aI1
aI0
aI0
aI0
aI0
aI0
aI0
aI0
aI0
aI0
aI0
aI0
aI0
aI0
aI0
aI0
aI0
aI0
aI0
aI0
aI0
aI0
aI0
aI0
aI0
aI0
aI0
aI0
aI0
aI0
aI0
aI0
aI1
aI0
aI0
aI0
aI0
aI0
aI0
aI0
aI0
aI0
aI0
aF0.14733949909459276
aI1
aI1
aI1
aF0.5337013026636382
aF0.5429047615142243
aF0.5
aF0.7081244334821964
aF0.7108054098687346
aF0.6037163777043134
aF0.5727336183849193
aF0.7363611730287866
aF0.6956410850934531
aF0.6088225078031506
aF0.6794248981791163
aF0.5315984120144411
aF0.6312394619182374
aI1
aF0.5727336183849193
aF0.6738919879520486
aI1
aF0.6400140791147305
aF0.6294355650195435
aF0.69759735748837
aF0.7551348864085605
aa(lp221
I0
aI0
aI1
aI1
aI0
aI0
aI0
aI0
aI0
aI0
aI0
aI0
aI-1
aI-1
aI-1
aI-1
aI-1
aI1
aI0
aI0
aI0
aI0
aI1
aI0
aI0
aI0
aI0
aI0
aI0
aI0
aI0
aI0
aI0
aI0
aI0
aI0
aI0
aI0
aI0
aI0
aI0
aI0
aI0
aI0
aI0
aI0
aI0
aI0
aI0
aI0
aI0
aI0
aI0
aI0
aI1
aI0
aI0
aI0
aI0
aI0
aI0
aI0
aI0
aI0
aI0
aF0.14733949909459276
aI1
aI1
aI1
aF0.5337013026636382
aF0.5429047615142243
aF0.5
aF0.7081244334821964
aF0.7108054098687346
aF0.6037163777043134
aF0.5727336183849193
aF0.7363611730287866
aF0.6956410850934531
aF0.6088225078031506
aF0.6794248981791163
aF0.5315984120144411
aF0.6312394619182374
aI1
aF0.5727336183849193
aF0.6738919879520486
aI1
aF0.6400140791147305
aF0.6294355650195435
aF0.69759735748837
aF0.7551348864085605
aa(lp222
I0
aI0
aI1
aI1
aI0
aI0
aI0
aI0
aI0
aI0
aI0
aI0
aI-1
aI-1
aI-1
aI-1
aI-1
aI1
aI0
aI0
aI0
aI0
aI1
aI0
aI0
aI0
aI0
aI0
aI0
aI0
aI0
aI0
aI0
aI0
aI0
aI0
aI0
aI0
aI0
aI0
aI0
aI0
aI0
aI0
aI0
aI0
aI0
aI0
aI0
aI0
aI0
aI0
aI0
aI0
aI1
aI0
aI0
aI0
aI0
aI0
aI0
aI0
aI0
aI0
aI0
aF0.14733949909459276
aI1
aI1
aI1
aF0.5337013026636382
aF0.5429047615142243
aF0.5
aF0.7081244334821964
aF0.7108054098687346
aF0.6037163777043134
aF0.5727336183849193
aF0.7363611730287866
aF0.6956410850934531
aF0.6088225078031506
aF0.6794248981791163
aF0.5315984120144411
aF0.6312394619182374
aI1
aF0.5727336183849193
aF0.6738919879520486
aI1
aF0.6400140791147305
aF0.6294355650195435
aF0.69759735748837
aF0.7551348864085605
aa(lp223
I0
aI0
aI1
aI1
aI0
aI0
aI0
aI0
aI1
aI0
aI0
aI1
aI-1
aI-1
aI-1
aI-1
aI-1
aI1
aI0
aI0
aI0
aI0
aI1
aI0
aI0
aI0
aI0
aI0
aI0
aI0
aI0
aI0
aI0
aI0
aI0
aI0
aI0
aI0
aI0
aI0
aI0
aI0
aI0
aI0
aI0
aI0
aI0
aI0
aI0
aI0
aI0
aI0
aI0
aI0
aI1
aI0
aI0
aI0
aI0
aI0
aI0
aI0
aI0
aI0
aI0
aF0.14733949909459276
aI1
aI1
aI1
aF0.5337013026636382
aF0.5429047615142243
aF0.5
aF0.7081244334821964
aF0.7108054098687346
aF0.6037163777043134
aF0.5727336183849193
aF0.7363611730287866
aF0.6956410850934531
aF0.6088225078031506
aF0.6794248981791163
aF0.5315984120144411
aF0.6312394619182374
aI1
aF0.5727336183849193
aF0.6738919879520486
aI1
aF0.6400140791147305
aF0.6294355650195435
aF0.69759735748837
aF0.7551348864085605
aa(lp224
I0
aI0
aI1
aI1
aI0
aI0
aI0
aI0
aI1
aI0
aI0
aI1
aI-1
aI-1
aI-1
aI-1
aI-1
aI1
aI0
aI0
aI0
aI0
aI1
aI0
aI0
aI0
aI0
aI0
aI0
aI0
aI0
aI0
aI0
aI0
aI0
aI0
aI0
aI0
aI0
aI0
aI0
aI0
aI0
aI0
aI0
aI0
aI0
aI0
aI0
aI0
aI0
aI0
aI0
aI0
aI0
aI0
aI0
aI0
aI0
aI1
aI0
aI0
aI0
aI1
aI0
aF0.1322425938390255
aI1
aF0.5049105812025713
aI1
aI1
aF0.6338824387239962
aF0.6514083091053455
aI1
aI1
aI1
aF0.5123428006355317
aI1
aF0.6407489251292355
aF0.5511143605124608
aF0.6179367739951962
aI1
aF0.5803858071090415
aI1
aF0.5123428006355317
aF0.6527090912441985
aI1
aI1
aI1
aI1
aI1
aa(lp225
I0
aI0
aI1
aI1
aI0
aI0
aI0
aI0
aI0
aI0
aI0
aI0
aI-1
aI-1
aI-1
aI-1
aI-1
aI1
aI0
aI0
aI0
aI0
aI1
aI0
aI0
aI0
aI0
aI0
aI0
aI0
aI0
aI0
aI0
aI0
aI0
aI0
aI0
aI0
aI0
aI0
aI0
aI0
aI0
aI0
aI0
aI0
aI0
aI0
aI0
aI0
aI0
aI0
aI0
aI0
aI0
aI0
aI0
aI0
aI0
aI1
aI0
aI0
aI0
aI1
aI0
aF0.1322425938390255
aI1
aF0.5049105812025713
aI1
aI1
aF0.6338824387239962
aF0.6514083091053455
aI1
aI1
aI1
aF0.5123428006355317
aI1
aF0.6407489251292355
aF0.5511143605124608
aF0.6179367739951962
aI1
aF0.5803858071090415
aI1
aF0.5123428006355317
aF0.6527090912441985
aI1
aI1
aI1
aI1
aI1
aa(lp226
I0
aI0
aI1
aI1
aI0
aI0
aI0
aI0
aI1
aI0
aI0
aI1
aI-1
aI-1
aI-1
aI-1
aI-1
aI1
aI0
aI0
aI0
aI0
aI1
aI0
aI0
aI0
aI0
aI0
aI0
aI0
aI0
aI0
aI0
aI0
aI0
aI0
aI0
aI0
aI0
aI0
aI0
aI0
aI0
aI0
aI0
aI0
aI0
aI0
aI0
aI0
aI0
aI0
aI0
aI0
aI0
aI0
aI0
aI0
aI0
aI1
aI0
aI0
aI0
aI1
aI0
aF0.1322425938390255
aI1
aF0.5049105812025713
aI1
aI1
aF0.6338824387239962
aF0.6514083091053455
aI1
aI1
aI1
aF0.5123428006355317
aI1
aF0.6407489251292355
aF0.5511143605124608
aF0.6179367739951962
aI1
aF0.5803858071090415
aI1
aF0.5123428006355317
aF0.6527090912441985
aI1
aI1
aI1
aI1
aI1
aa(lp227
I0
aI0
aI1
aI1
aI0
aI0
aI0
aI0
aI1
aI0
aI0
aI1
aI-1
aI-1
aI-1
aI-1
aI-1
aI1
aI0
aI0
aI0
aI0
aI1
aI0
aI0
aI0
aI0
aI0
aI0
aI0
aI0
aI0
aI0
aI0
aI0
aI0
aI0
aI0
aI0
aI0
aI0
aI0
aI0
aI0
aI0
aI0
aI0
aI0
aI0
aI0
aI0
aI0
aI0
aI0
aI0
aI0
aI0
aI0
aI0
aI1
aI0
aI0
aI0
aI1
aI0
aF0.1322425938390255
aI1
aF0.5049105812025713
aI1
aI1
aF0.6338824387239962
aF0.6514083091053455
aI1
aI1
aI1
aF0.5123428006355317
aI1
aF0.6407489251292355
aF0.5511143605124608
aF0.6179367739951962
aI1
aF0.5803858071090415
aI1
aF0.5123428006355317
aF0.6527090912441985
aI1
aI1
aI1
aI1
aI1
aa(lp228
I0
aI0
aI1
aI1
aI0
aI0
aI0
aI0
aI0
aI0
aI0
aI0
aI-1
aI-1
aI-1
aI-1
aI-1
aI1
aI0
aI0
aI0
aI0
aI1
aI0
aI0
aI0
aI0
aI0
aI0
aI0
aI0
aI0
aI0
aI0
aI0
aI0
aI0
aI0
aI0
aI0
aI0
aI0
aI0
aI0
aI0
aI0
aI0
aI0
aI0
aI0
aI0
aI0
aI0
aI0
aI0
aI0
aI0
aI0
aI0
aI1
aI0
aI0
aI0
aI1
aI0
aF0.1322425938390255
aI1
aF0.5049105812025713
aI1
aI1
aF0.6338824387239962
aF0.6514083091053455
aI1
aI1
aI1
aF0.5123428006355317
aI1
aF0.6407489251292355
aF0.5511143605124608
aF0.6179367739951962
aI1
aF0.5803858071090415
aI1
aF0.5123428006355317
aF0.6527090912441985
aI1
aI1
aI1
aI1
aI1
aa(lp229
I1
aI0
aI0
aI0
aI0
aI1
aI0
aI0
aI1
aI0
aI0
aI1
aI-1
aI-1
aI-1
aI-1
aI0
aI1
aI0
aI0
aI0
aI0
aI1
aI0
aI0
aI0
aI0
aI0
aI0
aI0
aI0
aI0
aI0
aI0
aI0
aI0
aI0
aI0
aI0
aI0
aI0
aI0
aI0
aI0
aI0
aI0
aI0
aI0
aI0
aI0
aI0
aI0
aI0
aI0
aI0
aI0
aI0
aI0
aI0
aI1
aI0
aI0
aI0
aI1
aI0
aF0.1804111715779821
aF0.502416142382287
aF0.5763785548030264
aF0.5711003125832678
aF0.5
aF0.5
aF0.5939517300936757
aF0.5729717728534833
aF0.5
aF0.5050424974372756
aF0.5515819430924429
aF0.6755703882944061
aF0.5917806850848999
aI0
aF0.5
aF0.5012576678551632
aF0.5962846535468412
aF0.5219575563626436
aF0.5515819430924429
aF0.5515819430924429
aF0.6224964761253446
aF0.7177485733328628
aF0.5726707012896084
aF0.5980425737457671
aF0.6196664887721092
aa(lp230
I1
aI0
aI0
aI0
aI0
aI1
aI0
aI0
aI1
aI0
aI0
aI1
aI-1
aI-1
aI-1
aI-1
aI-1
aI1
aI0
aI0
aI0
aI0
aI1
aI0
aI0
aI0
aI1
aI0
aI0
aI0
aI0
aI0
aI0
aI0
aI0
aI0
aI0
aI0
aI0
aI0
aI0
aI0
aI0
aI0
aI0
aI0
aI0
aI0
aI0
aI0
aI0
aI0
aI0
aI0
aI0
aI0
aI0
aI0
aI0
aI1
aI0
aI0
aI0
aI1
aI0
aI1
aI1
aI1
aI1
aI1
aI1
aI1
aI1
aI1
aI1
aI1
aI1
aI1
aI1
aI1
aI1
aI1
aI1
aI1
aI1
aI1
aI1
aI1
aI1
aI1
aa(lp231
I0
aI0
aI1
aI0
aI0
aI1
aI0
aI0
aI1
aI0
aI0
aI1
aI-1
aI-1
aI-1
aI1
aI-1
aI-1
aI0
aI-1
aI0
aI0
aI1
aI0
aI0
aI0
aI0
aI0
aI0
aI0
aI0
aI0
aI0
aI0
aI0
aI0
aI0
aI0
aI0
aI0
aI0
aI0
aI0
aI0
aI0
aI0
aI0
aI0
aI0
aI0
aI0
aI0
aI0
aI0
aI0
aI0
aI0
aI0
aI0
aI0
aI0
aI0
aI0
aI0
aI0
aI1
aI1
aI1
aI1
aI1
aI1
aI1
aI1
aI1
aI1
aI1
aI1
aI1
aI1
aI1
aI1
aI1
aI1
aI1
aI1
aI1
aI1
aI1
aI1
aI1
aa(lp232
I1
aI0
aI0
aI0
aI0
aI1
aI0
aI0
aI0
aI0
aI0
aI0
aI-1
aI-1
aI-1
aI-1
aI-1
aI1
aI0
aI0
aI0
aI0
aI1
aI0
aI0
aI0
aI0
aI0
aI0
aI0
aI0
aI0
aI0
aI0
aI0
aI0
aI0
aI0
aI0
aI0
aI0
aI0
aI0
aI0
aI0
aI0
aI0
aI0
aI0
aI0
aI0
aI0
aI0
aI0
aI0
aI0
aI0
aI0
aI0
aI1
aI0
aI0
aI0
aI1
aI0
aI1
aI1
aI1
aI1
aI1
aI1
aI1
aI1
aI1
aI1
aI1
aI1
aI1
aI1
aI1
aI1
aI1
aI1
aI1
aI1
aI1
aI1
aI1
aI1
aI1
aa(lp233
I1
aI0
aI0
aI0
aI0
aI1
aI0
aI0
aI1
aI1
aI1
aI1
aI-1
aI-1
aI-1
aI-1
aI0
aI1
aI0
aI0
aI0
aI0
aI1
aI0
aI0
aI1
aI1
aI0
aI0
aI0
aI0
aI0
aI0
aI0
aI0
aI0
aI0
aI0
aI0
aI0
aI0
aI0
aI0
aI0
aI0
aI0
aI0
aI0
aI0
aI0
aI0
aI0
aI0
aI0
aI0
aI0
aI0
aI0
aI0
aI1
aI0
aI0
aI0
aI1
aI0
aF0.14733949909459276
aF0.7043510771768892
aI1
aF0.7665741359586784
aF0.5973688621439767
aF0.67628317488964
aF0.6900610861329958
aF0.5240462374338287
aF0.6242745850549243
aI1
aF0.5902545845741275
aI1
aF0.6839762527433063
aF0.5962846535468412
aF0.6664574727306354
aF0.5211810840509955
aI0
aF0.6017842064639691
aF0.5902545845741275
aF0.691089818605029
aF0.7087281892142097
aF0.7673576618240046
aF0.6856793837685414
aF0.7371866760277586
aI1
aa(lp234
I1
aI0
aI0
aI0
aI0
aI1
aI0
aI0
aI0
aI1
aI1
aI0
aI-1
aI-1
aI-1
aI-1
aI0
aI1
aI0
aI0
aI0
aI0
aI1
aI0
aI0
aI1
aI1
aI0
aI0
aI0
aI0
aI0
aI0
aI0
aI0
aI0
aI0
aI0
aI0
aI0
aI0
aI0
aI0
aI0
aI0
aI0
aI0
aI0
aI0
aI0
aI0
aI0
aI0
aI0
aI0
aI0
aI0
aI0
aI0
aI1
aI0
aI0
aI0
aI1
aI0
aF0.14733949909459276
aF0.7043510771768892
aI1
aF0.7665741359586784
aF0.5973688621439767
aF0.67628317488964
aF0.6900610861329958
aF0.5240462374338287
aF0.6242745850549243
aI1
aF0.5902545845741275
aI1
aF0.6839762527433063
aF0.5962846535468412
aF0.6664574727306354
aF0.5211810840509955
aI0
aF0.6017842064639691
aF0.5902545845741275
aF0.691089818605029
aF0.7087281892142097
aF0.7673576618240046
aF0.6856793837685414
aF0.7371866760277586
aI1
aa(lp235
I1
aI0
aI0
aI0
aI0
aI1
aI0
aI0
aI0
aI1
aI1
aI0
aI-1
aI-1
aI-1
aI-1
aI0
aI1
aI0
aI0
aI0
aI0
aI1
aI0
aI0
aI1
aI0
aI0
aI0
aI0
aI0
aI0
aI0
aI0
aI0
aI0
aI0
aI0
aI0
aI0
aI0
aI0
aI0
aI0
aI0
aI0
aI0
aI0
aI0
aI0
aI0
aI0
aI0
aI0
aI0
aI0
aI0
aI0
aI0
aI1
aI0
aI0
aI0
aI1
aI0
aI1
aI1
aI1
aI1
aI1
aI1
aI1
aI1
aI1
aI1
aI1
aI1
aI1
aI1
aI1
aI1
aI1
aI1
aI1
aI1
aI1
aI1
aI1
aI1
aI1
aa(lp236
I1
aI0
aI0
aI0
aI0
aI1
aI0
aI0
aI1
aI0
aI0
aI1
aI-1
aI-1
aI-1
aI-1
aI0
aI1
aI0
aI0
aI0
aI0
aI1
aI0
aI0
aI1
aI1
aI0
aI0
aI0
aI0
aI0
aI0
aI0
aI0
aI0
aI0
aI0
aI0
aI0
aI0
aI0
aI0
aI0
aI0
aI0
aI0
aI0
aI0
aI0
aI0
aI0
aI0
aI0
aI0
aI0
aI0
aI0
aI0
aI1
aI0
aI0
aI0
aI1
aI0
aF0.14733949909459276
aF0.7043510771768892
aI1
aF0.7665741359586784
aF0.5973688621439767
aF0.67628317488964
aF0.6900610861329958
aF0.5240462374338287
aF0.6242745850549243
aI1
aF0.5902545845741275
aI1
aF0.6839762527433063
aF0.5962846535468412
aF0.6664574727306354
aF0.5211810840509955
aI0
aF0.6017842064639691
aF0.5902545845741275
aF0.691089818605029
aF0.7087281892142097
aF0.7673576618240046
aF0.6856793837685414
aF0.7371866760277586
aI1
aa(lp237
I1
aI0
aI0
aI0
aI0
aI1
aI0
aI0
aI0
aI0
aI0
aI0
aI-1
aI-1
aI-1
aI-1
aI-1
aI1
aI0
aI0
aI0
aI0
aI1
aI0
aI0
aI0
aI0
aI0
aI0
aI0
aI0
aI0
aI0
aI0
aI0
aI0
aI0
aI0
aI0
aI0
aI0
aI0
aI0
aI0
aI0
aI0
aI0
aI0
aI0
aI0
aI0
aI0
aI0
aI0
aI0
aI0
aI0
aI0
aI0
aI1
aI0
aI0
aI0
aI1
aI0
aI1
aI1
aI1
aI1
aI1
aI1
aI1
aI1
aI1
aI1
aI1
aI1
aI1
aI1
aI1
aI1
aI1
aI1
aI1
aI1
aI1
aI1
aI1
aI1
aI1
aa(lp238
I1
aI0
aI0
aI0
aI0
aI1
aI0
aI0
aI1
aI0
aI0
aI1
aI-1
aI-1
aI-1
aI-1
aI-1
aI1
aI0
aI0
aI0
aI0
aI1
aI0
aI0
aI1
aI0
aI0
aI0
aI0
aI0
aI0
aI0
aI0
aI0
aI0
aI0
aI0
aI0
aI0
aI0
aI0
aI0
aI0
aI0
aI0
aI0
aI0
aI0
aI0
aI0
aI0
aI0
aI0
aI0
aI0
aI0
aI0
aI0
aI1
aI0
aI0
aI0
aI1
aI0
aI1
aI1
aI1
aI1
aI1
aI1
aI1
aI1
aI1
aI1
aI1
aI1
aI1
aI1
aI1
aI1
aI1
aI1
aI1
aI1
aI1
aI1
aI1
aI1
aI1
aa(lp239
I1
aI0
aI0
aI0
aI0
aI1
aI0
aI0
aI1
aI0
aI0
aI1
aI-1
aI-1
aI-1
aI-1
aI0
aI1
aI0
aI0
aI0
aI0
aI1
aI0
aI0
aI1
aI1
aI0
aI0
aI0
aI0
aI0
aI0
aI0
aI0
aI0
aI0
aI0
aI0
aI0
aI0
aI0
aI0
aI0
aI0
aI0
aI0
aI0
aI0
aI0
aI0
aI0
aI0
aI0
aI0
aI0
aI0
aI0
aI0
aI1
aI0
aI0
aI0
aI1
aI0
aF0.14733949909459276
aF0.7043510771768892
aI1
aF0.7665741359586784
aF0.5973688621439767
aF0.67628317488964
aF0.6900610861329958
aF0.5240462374338287
aF0.6242745850549243
aI1
aF0.5902545845741275
aI1
aF0.6839762527433063
aF0.5962846535468412
aF0.6664574727306354
aF0.5211810840509955
aI0
aF0.6017842064639691
aF0.5902545845741275
aF0.691089818605029
aF0.7087281892142097
aF0.7673576618240046
aF0.6856793837685414
aF0.7371866760277586
aI1
aa(lp240
I1
aI0
aI0
aI0
aI0
aI1
aI0
aI0
aI0
aI1
aI1
aI0
aI-1
aI-1
aI-1
aI-1
aI0
aI1
aI0
aI0
aI0
aI0
aI1
aI0
aI0
aI1
aI1
aI0
aI0
aI0
aI0
aI0
aI0
aI0
aI0
aI0
aI0
aI0
aI0
aI0
aI0
aI0
aI0
aI0
aI0
aI0
aI0
aI0
aI0
aI0
aI0
aI0
aI0
aI0
aI0
aI0
aI0
aI0
aI0
aI1
aI0
aI0
aI0
aI1
aI0
aF0.14733949909459276
aF0.7043510771768892
aI1
aF0.7665741359586784
aF0.5973688621439767
aF0.67628317488964
aF0.6900610861329958
aF0.5240462374338287
aF0.6242745850549243
aI1
aF0.5902545845741275
aI1
aF0.6839762527433063
aF0.5962846535468412
aF0.6664574727306354
aF0.5211810840509955
aI0
aF0.6017842064639691
aF0.5902545845741275
aF0.691089818605029
aF0.7087281892142097
aF0.7673576618240046
aF0.6856793837685414
aF0.7371866760277586
aI1
aa(lp241
I1
aI0
aI0
aI0
aI0
aI1
aI0
aI0
aI0
aI0
aI0
aI0
aI-1
aI-1
aI-1
aI-1
aI-1
aI1
aI0
aI0
aI0
aI0
aI1
aI0
aI0
aI0
aI0
aI0
aI0
aI0
aI0
aI0
aI0
aI0
aI0
aI0
aI0
aI0
aI0
aI0
aI0
aI0
aI0
aI0
aI0
aI0
aI0
aI0
aI0
aI0
aI0
aI0
aI0
aI0
aI0
aI0
aI0
aI0
aI0
aI1
aI0
aI0
aI0
aI1
aI0
aF0.11563228841935964
aF0.5103864223005199
aF0.5763785548030264
aF0.5711003125832678
aF0.5
aF0.5
aF0.5939517300936757
aF0.5729717728534833
aF0.5
aF0.5050424974372756
aF0.5515819430924429
aF0.728090750079668
aF0.5917806850848999
aI0
aF0.5
aF0.5876028204815266
aF0.5962846535468412
aF0.6061479218472771
aF0.5515819430924429
aF0.5515819430924429
aF0.6224964761253446
aF0.7177485733328628
aF0.5726707012896084
aF0.5980425737457671
aF0.6196664887721092
aa(lp242
I1
aI0
aI0
aI1
aI0
aI0
aI0
aI0
aI0
aI1
aI1
aI0
aI-1
aI-1
aI-1
aI-1
aI-1
aI1
aI0
aI0
aI0
aI0
aI1
aI0
aI0
aI0
aI1
aI0
aI0
aI0
aI0
aI0
aI0
aI0
aI0
aI0
aI0
aI0
aI0
aI0
aI0
aI0
aI0
aI0
aI0
aI0
aI0
aI0
aI0
aI0
aI0
aI0
aI0
aI0
aI0
aI0
aI0
aI0
aI0
aI1
aI0
aI0
aI0
aI1
aI0
aF0.1804111715779821
aF0.5103864223005199
aF0.5763785548030264
aF0.5711003125832678
aF0.5
aF0.5
aF0.5939517300936757
aF0.5729717728534833
aF0.5
aF0.5050424974372756
aF0.5515819430924429
aF0.728090750079668
aF0.5917806850848999
aF0.5
aF0.5
aF0.5876028204815266
aF0.5962846535468412
aF0.6061479218472771
aF0.5515819430924429
aF0.5515819430924429
aF0.6224964761253446
aF0.7177485733328628
aF0.5726707012896084
aF0.5980425737457671
aF0.6196664887721092
aa(lp243
I1
aI0
aI0
aI0
aI0
aI1
aI0
aI0
aI0
aI0
aI0
aI0
aI-1
aI-1
aI-1
aI-1
aI-1
aI1
aI0
aI0
aI0
aI0
aI1
aI0
aI0
aI0
aI0
aI0
aI0
aI0
aI0
aI0
aI0
aI0
aI0
aI0
aI0
aI0
aI0
aI0
aI0
aI0
aI0
aI0
aI0
aI0
aI0
aI0
aI0
aI0
aI0
aI0
aI0
aI0
aI0
aI0
aI0
aI0
aI0
aI1
aI0
aI0
aI0
aI1
aI0
aF0.11563228841935964
aF0.5103864223005199
aF0.5763785548030264
aF0.5711003125832678
aF0.5
aF0.5
aF0.5939517300936757
aF0.5729717728534833
aF0.5
aF0.5050424974372756
aF0.5515819430924429
aF0.728090750079668
aF0.5917806850848999
aI0
aF0.5
aF0.5876028204815266
aF0.5962846535468412
aF0.6061479218472771
aF0.5515819430924429
aF0.5515819430924429
aF0.6224964761253446
aF0.7177485733328628
aF0.5726707012896084
aF0.5980425737457671
aF0.6196664887721092
aa(lp244
I1
aI0
aI0
aI0
aI0
aI1
aI0
aI0
aI0
aI0
aI0
aI0
aI-1
aI-1
aI-1
aI-1
aI-1
aI1
aI0
aI0
aI0
aI0
aI1
aI0
aI0
aI0
aI1
aI0
aI0
aI0
aI0
aI0
aI0
aI0
aI0
aI0
aI0
aI0
aI0
aI0
aI0
aI0
aI0
aI0
aI0
aI0
aI0
aI0
aI0
aI0
aI0
aI0
aI0
aI0
aI0
aI0
aI0
aI0
aI0
aI1
aI0
aI0
aI0
aI1
aI0
aF0.11591663735286703
aF0.5845182825732097
aF0.5477824374913982
aF0.5
aF0.5
aF0.5296721231718472
aF0.7060216493045898
aI0
aF0.5
aF0.5912981335583106
aF0.644652558746943
aF0.5514303052072106
aF0.5692517375501781
aF0.5729717728534833
aI1
aF0.5
aF0.5240462374338287
aF0.5
aF0.644652558746943
aF0.644652558746943
aI1
aF0.7063995534994241
aF0.6915566880665449
aF0.672617169030399
aF0.7085848622356106
aa(lp245
I1
aI0
aI0
aI1
aI0
aI0
aI0
aI0
aI1
aI1
aI1
aI1
aI-1
aI-1
aI-1
aI-1
aI0
aI1
aI0
aI0
aI0
aI0
aI1
aI0
aI0
aI0
aI1
aI0
aI0
aI0
aI0
aI0
aI0
aI0
aI0
aI0
aI0
aI0
aI0
aI0
aI0
aI0
aI0
aI0
aI0
aI0
aI0
aI0
aI0
aI0
aI0
aI0
aI0
aI0
aI0
aI0
aI0
aI0
aI0
aI1
aI0
aI0
aI0
aI1
aI0
aF0.1804111715779821
aF0.5103864223005199
aF0.5763785548030264
aF0.5711003125832678
aF0.5
aF0.5
aF0.5939517300936757
aF0.5729717728534833
aF0.5
aF0.5050424974372756
aF0.5515819430924429
aF0.728090750079668
aF0.5917806850848999
aF0.5
aF0.5
aF0.5876028204815266
aF0.5962846535468412
aF0.6061479218472771
aF0.5515819430924429
aF0.5515819430924429
aF0.6224964761253446
aF0.7177485733328628
aF0.5726707012896084
aF0.5980425737457671
aF0.6196664887721092
aa(lp246
I1
aI0
aI0
aI0
aI0
aI1
aI0
aI0
aI0
aI0
aI0
aI0
aI-1
aI-1
aI-1
aI-1
aI-1
aI1
aI0
aI0
aI0
aI0
aI1
aI0
aI0
aI0
aI0
aI0
aI0
aI0
aI0
aI0
aI0
aI0
aI0
aI0
aI0
aI0
aI0
aI0
aI0
aI0
aI0
aI0
aI0
aI0
aI0
aI0
aI0
aI0
aI0
aI0
aI0
aI0
aI0
aI0
aI0
aI0
aI0
aI1
aI0
aI0
aI0
aI1
aI0
aF0.11563228841935964
aF0.5103864223005199
aF0.5763785548030264
aF0.5711003125832678
aF0.5
aF0.5
aF0.5939517300936757
aF0.5729717728534833
aF0.5
aF0.5050424974372756
aF0.5515819430924429
aF0.728090750079668
aF0.5917806850848999
aI0
aF0.5
aF0.5876028204815266
aF0.5962846535468412
aF0.6061479218472771
aF0.5515819430924429
aF0.5515819430924429
aF0.6224964761253446
aF0.7177485733328628
aF0.5726707012896084
aF0.5980425737457671
aF0.6196664887721092
aa(lp247
I1
aI0
aI0
aI0
aI0
aI1
aI0
aI0
aI0
aI0
aI0
aI0
aI-1
aI-1
aI-1
aI-1
aI-1
aI1
aI0
aI0
aI0
aI0
aI1
aI0
aI0
aI0
aI1
aI0
aI0
aI0
aI0
aI0
aI0
aI0
aI0
aI0
aI0
aI0
aI0
aI0
aI0
aI0
aI0
aI0
aI0
aI0
aI0
aI0
aI0
aI0
aI0
aI0
aI0
aI0
aI0
aI0
aI0
aI0
aI0
aI1
aI0
aI0
aI0
aI1
aI0
aF0.11591663735286703
aF0.5845182825732097
aF0.5477824374913982
aF0.5
aF0.5
aF0.5296721231718472
aF0.7060216493045898
aI0
aF0.5
aF0.5912981335583106
aF0.644652558746943
aF0.5514303052072106
aF0.5692517375501781
aF0.5729717728534833
aI1
aF0.5
aF0.5240462374338287
aF0.5
aF0.644652558746943
aF0.644652558746943
aI1
aF0.7063995534994241
aF0.6915566880665449
aF0.672617169030399
aF0.7085848622356106
aa(lp248
I1
aI0
aI0
aI1
aI0
aI0
aI0
aI0
aI1
aI0
aI0
aI1
aI-1
aI-1
aI-1
aI-1
aI-1
aI1
aI0
aI0
aI0
aI0
aI1
aI0
aI0
aI0
aI1
aI0
aI0
aI0
aI0
aI0
aI0
aI0
aI0
aI0
aI0
aI0
aI0
aI0
aI0
aI0
aI0
aI0
aI0
aI0
aI0
aI0
aI0
aI0
aI0
aI0
aI0
aI0
aI0
aI0
aI0
aI0
aI0
aI1
aI0
aI0
aI0
aI1
aI0
aF0.1804111715779821
aF0.5103864223005199
aF0.5763785548030264
aF0.5711003125832678
aF0.5
aF0.5
aF0.5939517300936757
aF0.5729717728534833
aF0.5
aF0.5050424974372756
aF0.5515819430924429
aF0.728090750079668
aF0.5917806850848999
aF0.5
aF0.5
aF0.5876028204815266
aF0.5962846535468412
aF0.6061479218472771
aF0.5515819430924429
aF0.5515819430924429
aF0.6224964761253446
aF0.7177485733328628
aF0.5726707012896084
aF0.5980425737457671
aF0.6196664887721092
aa(lp249
I1
aI0
aI0
aI0
aI0
aI1
aI0
aI0
aI1
aI0
aI0
aI1
aI-1
aI-1
aI-1
aI-1
aI0
aI1
aI0
aI0
aI0
aI0
aI1
aI0
aI0
aI0
aI0
aI0
aI0
aI0
aI0
aI0
aI0
aI0
aI0
aI0
aI0
aI0
aI0
aI0
aI0
aI0
aI0
aI0
aI0
aI0
aI0
aI0
aI0
aI0
aI0
aI0
aI0
aI0
aI0
aI0
aI0
aI0
aI0
aI1
aI0
aI0
aI0
aI1
aI0
aF0.11563228841935964
aF0.5103864223005199
aF0.5763785548030264
aF0.5711003125832678
aF0.5
aF0.5
aF0.5939517300936757
aF0.5729717728534833
aF0.5
aF0.5050424974372756
aF0.5515819430924429
aF0.728090750079668
aF0.5917806850848999
aI0
aF0.5
aF0.5876028204815266
aF0.5962846535468412
aF0.6061479218472771
aF0.5515819430924429
aF0.5515819430924429
aF0.6224964761253446
aF0.7177485733328628
aF0.5726707012896084
aF0.5980425737457671
aF0.6196664887721092
aa(lp250
I1
aI0
aI0
aI0
aI0
aI1
aI0
aI0
aI0
aI0
aI0
aI0
aI-1
aI-1
aI-1
aI-1
aI-1
aI1
aI0
aI0
aI0
aI0
aI1
aI0
aI0
aI0
aI0
aI0
aI0
aI0
aI0
aI0
aI0
aI0
aI0
aI0
aI0
aI0
aI0
aI0
aI0
aI0
aI0
aI0
aI0
aI0
aI0
aI0
aI0
aI0
aI0
aI0
aI0
aI0
aI0
aI0
aI0
aI0
aI0
aI1
aI0
aI0
aI0
aI1
aI0
aF0.11563228841935964
aF0.5103864223005199
aF0.5763785548030264
aF0.5711003125832678
aF0.5
aF0.5
aF0.5939517300936757
aF0.5729717728534833
aF0.5
aF0.5050424974372756
aF0.5515819430924429
aF0.728090750079668
aF0.5917806850848999
aI0
aF0.5
aF0.5876028204815266
aF0.5962846535468412
aF0.6061479218472771
aF0.5515819430924429
aF0.5515819430924429
aF0.6224964761253446
aF0.7177485733328628
aF0.5726707012896084
aF0.5980425737457671
aF0.6196664887721092
aa(lp251
I1
aI0
aI0
aI1
aI0
aI0
aI0
aI0
aI0
aI1
aI1
aI0
aI-1
aI-1
aI-1
aI-1
aI-1
aI1
aI0
aI0
aI0
aI0
aI1
aI0
aI0
aI0
aI1
aI0
aI0
aI0
aI0
aI0
aI0
aI0
aI0
aI0
aI0
aI0
aI0
aI0
aI0
aI0
aI0
aI0
aI0
aI0
aI0
aI0
aI0
aI0
aI0
aI0
aI0
aI0
aI0
aI0
aI0
aI0
aI0
aI1
aI0
aI0
aI0
aI1
aI0
aF0.1804111715779821
aF0.5103864223005199
aF0.5763785548030264
aF0.5711003125832678
aF0.5
aF0.5
aF0.5939517300936757
aF0.5729717728534833
aF0.5
aF0.5050424974372756
aF0.5515819430924429
aF0.728090750079668
aF0.5917806850848999
aF0.5
aF0.5
aF0.5876028204815266
aF0.5962846535468412
aF0.6061479218472771
aF0.5515819430924429
aF0.5515819430924429
aF0.6224964761253446
aF0.7177485733328628
aF0.5726707012896084
aF0.5980425737457671
aF0.6196664887721092
aa(lp252
I1
aI0
aI0
aI0
aI0
aI1
aI0
aI0
aI1
aI0
aI0
aI1
aI-1
aI-1
aI-1
aI-1
aI0
aI1
aI0
aI0
aI0
aI0
aI1
aI0
aI0
aI0
aI0
aI0
aI0
aI0
aI0
aI0
aI0
aI0
aI0
aI0
aI0
aI0
aI0
aI0
aI0
aI0
aI0
aI0
aI0
aI0
aI0
aI0
aI0
aI0
aI0
aI0
aI0
aI0
aI0
aI0
aI0
aI0
aI0
aI1
aI0
aI0
aI0
aI1
aI0
aF0.11563228841935964
aF0.5103864223005199
aF0.5763785548030264
aF0.5711003125832678
aF0.5
aF0.5
aF0.5939517300936757
aF0.5729717728534833
aF0.5
aF0.5050424974372756
aF0.5515819430924429
aF0.728090750079668
aF0.5917806850848999
aI0
aF0.5
aF0.5876028204815266
aF0.5962846535468412
aF0.6061479218472771
aF0.5515819430924429
aF0.5515819430924429
aF0.6224964761253446
aF0.7177485733328628
aF0.5726707012896084
aF0.5980425737457671
aF0.6196664887721092
aa(lp253
I1
aI0
aI0
aI0
aI0
aI1
aI0
aI0
aI1
aI0
aI0
aI1
aI-1
aI-1
aI-1
aI-1
aI0
aI1
aI0
aI0
aI0
aI0
aI1
aI0
aI0
aI0
aI0
aI0
aI0
aI0
aI0
aI0
aI0
aI0
aI0
aI0
aI0
aI0
aI0
aI0
aI0
aI0
aI0
aI0
aI0
aI0
aI0
aI0
aI0
aI0
aI0
aI0
aI0
aI0
aI0
aI0
aI0
aI0
aI0
aI1
aI0
aI0
aI0
aI1
aI0
aF0.11563228841935964
aF0.5103864223005199
aF0.5763785548030264
aF0.5711003125832678
aF0.5
aF0.5
aF0.5939517300936757
aF0.5729717728534833
aF0.5
aF0.5050424974372756
aF0.5515819430924429
aF0.728090750079668
aF0.5917806850848999
aI0
aF0.5
aF0.5876028204815266
aF0.5962846535468412
aF0.6061479218472771
aF0.5515819430924429
aF0.5515819430924429
aF0.6224964761253446
aF0.7177485733328628
aF0.5726707012896084
aF0.5980425737457671
aF0.6196664887721092
aa(lp254
I1
aI0
aI0
aI1
aI0
aI0
aI0
aI0
aI0
aI1
aI1
aI0
aI-1
aI-1
aI-1
aI-1
aI-1
aI1
aI0
aI0
aI0
aI0
aI1
aI0
aI0
aI0
aI1
aI0
aI0
aI0
aI0
aI0
aI0
aI0
aI0
aI0
aI0
aI0
aI0
aI0
aI0
aI0
aI0
aI0
aI0
aI0
aI0
aI0
aI0
aI0
aI0
aI0
aI0
aI0
aI0
aI0
aI0
aI0
aI0
aI1
aI0
aI0
aI0
aI1
aI0
aF0.1804111715779821
aF0.5103864223005199
aF0.5763785548030264
aF0.5711003125832678
aF0.5
aF0.5
aF0.5939517300936757
aF0.5729717728534833
aF0.5
aF0.5050424974372756
aF0.5515819430924429
aF0.728090750079668
aF0.5917806850848999
aF0.5
aF0.5
aF0.5876028204815266
aF0.5962846535468412
aF0.6061479218472771
aF0.5515819430924429
aF0.5515819430924429
aF0.6224964761253446
aF0.7177485733328628
aF0.5726707012896084
aF0.5980425737457671
aF0.6196664887721092
aa(lp255
I1
aI0
aI0
aI0
aI0
aI1
aI0
aI0
aI1
aI0
aI0
aI1
aI-1
aI-1
aI-1
aI-1
aI0
aI1
aI0
aI0
aI0
aI0
aI1
aI0
aI0
aI0
aI0
aI0
aI0
aI0
aI0
aI0
aI0
aI0
aI0
aI0
aI0
aI0
aI0
aI0
aI0
aI0
aI0
aI0
aI0
aI0
aI0
aI0
aI0
aI0
aI0
aI0
aI0
aI0
aI0
aI0
aI0
aI0
aI0
aI1
aI0
aI0
aI0
aI1
aI0
aF0.11563228841935964
aF0.5103864223005199
aF0.5763785548030264
aF0.5711003125832678
aF0.5
aF0.5
aF0.5939517300936757
aF0.5729717728534833
aF0.5
aF0.5050424974372756
aF0.5515819430924429
aF0.728090750079668
aF0.5917806850848999
aI0
aF0.5
aF0.5876028204815266
aF0.5962846535468412
aF0.6061479218472771
aF0.5515819430924429
aF0.5515819430924429
aF0.6224964761253446
aF0.7177485733328628
aF0.5726707012896084
aF0.5980425737457671
aF0.6196664887721092
aa(lp256
I1
aI0
aI0
aI0
aI0
aI1
aI0
aI0
aI0
aI1
aI1
aI0
aI-1
aI-1
aI-1
aI-1
aI-1
aI1
aI-1
aI0
aI0
aI0
aI1
aI0
aI0
aI0
aI1
aI0
aI0
aI0
aI0
aI0
aI0
aI0
aI0
aI0
aI0
aI0
aI0
aI0
aI0
aI0
aI0
aI0
aI0
aI0
aI0
aI0
aI0
aI0
aI0
aI0
aI0
aI0
aI1
aI0
aI0
aI0
aI0
aI0
aI0
aI0
aI0
aI0
aI0
aF0.28136387185230444
aF0.607043828596713
aF0.6267217208682151
aF0.6563774155260674
aI0
aF0.5577734713497952
aF0.5233456403081337
aF0.5
aF0.5
aF0.617245385686066
aF0.6876465059093766
aF0.70838596586038
aF0.5692517375501781
aF0.5
aI1
aF0.5
aF0.5973688621439767
aF0.5
aF0.5811526154815995
aF0.611137966799573
aI1
aF0.7110550340917559
aF0.6959949674278685
aF0.6846835705702682
aF0.7085848622356106
aa(lp257
I1
aI0
aI0
aI1
aI0
aI0
aI0
aI0
aI0
aI0
aI0
aI0
aI-1
aI-1
aI-1
aI-1
aI-1
aI1
aI-1
aI0
aI0
aI0
aI1
aI0
aI0
aI0
aI0
aI0
aI0
aI0
aI0
aI0
aI0
aI0
aI0
aI0
aI0
aI0
aI0
aI0
aI0
aI0
aI0
aI0
aI0
aI0
aI0
aI0
aI0
aI0
aI0
aI0
aI0
aI0
aI1
aI0
aI0
aI0
aI0
aI0
aI0
aI0
aI0
aI0
aI0
aF0.28136387185230444
aF0.607043828596713
aF0.6267217208682151
aF0.6563774155260674
aF0.5
aF0.5577734713497952
aF0.5233456403081337
aF0.5
aF0.5
aF0.617245385686066
aF0.6876465059093766
aF0.70838596586038
aF0.5692517375501781
aF0.5
aI1
aF0.5
aF0.5973688621439767
aF0.5
aF0.5811526154815995
aF0.611137966799573
aI1
aF0.7110550340917559
aF0.6959949674278685
aF0.6846835705702682
aF0.7085848622356106
aa(lp258
I1
aI0
aI0
aI0
aI0
aI1
aI0
aI0
aI1
aI0
aI0
aI1
aI-1
aI-1
aI-1
aI-1
aI0
aI1
aI-1
aI0
aI0
aI0
aI1
aI0
aI0
aI0
aI1
aI0
aI0
aI0
aI0
aI0
aI0
aI0
aI0
aI0
aI0
aI0
aI0
aI0
aI0
aI0
aI0
aI0
aI0
aI0
aI0
aI0
aI0
aI0
aI0
aI0
aI0
aI0
aI1
aI0
aI0
aI0
aI0
aI0
aI0
aI0
aI0
aI0
aI0
aF0.28136387185230444
aF0.607043828596713
aF0.6267217208682151
aF0.6563774155260674
aI0
aF0.5577734713497952
aF0.5233456403081337
aF0.5
aF0.5
aF0.617245385686066
aF0.6876465059093766
aF0.70838596586038
aF0.5692517375501781
aF0.5
aI1
aF0.5
aF0.5973688621439767
aF0.5
aF0.5811526154815995
aF0.611137966799573
aI1
aF0.7110550340917559
aF0.6959949674278685
aF0.6846835705702682
aF0.7085848622356106
aa(lp259
I1
aI0
aI0
aI0
aI0
aI1
aI0
aI0
aI0
aI1
aI1
aI0
aI-1
aI-1
aI-1
aI-1
aI-1
aI1
aI0
aI0
aI0
aI0
aI1
aI0
aI0
aI1
aI0
aI0
aI0
aI0
aI0
aI0
aI0
aI0
aI0
aI0
aI0
aI0
aI0
aI0
aI0
aI0
aI0
aI0
aI0
aI0
aI0
aI0
aI0
aI0
aI0
aI0
aI0
aI0
aI0
aI0
aI0
aI0
aI0
aI1
aI0
aI0
aI0
aI1
aI0
aF0.14733949909459276
aF0.7043510771768892
aI1
aF0.7665741359586784
aF0.5973688621439767
aF0.67628317488964
aF0.6900610861329958
aF0.5240462374338287
aF0.6242745850549243
aI1
aF0.5902545845741275
aI1
aF0.6839762527433063
aF0.5962846535468412
aF0.6664574727306354
aF0.5211810840509955
aI0
aF0.6017842064639691
aF0.5902545845741275
aF0.691089818605029
aF0.7087281892142097
aF0.7673576618240046
aF0.6856793837685414
aF0.7371866760277586
aI1
aa(lp260
I0
aI0
aI1
aI1
aI0
aI0
aI0
aI0
aI0
aI0
aI0
aI0
aI-1
aI-1
aI-1
aI-1
aI-1
aI1
aI0
aI0
aI0
aI0
aI1
aI0
aI0
aI0
aI0
aI0
aI0
aI0
aI0
aI0
aI0
aI0
aI0
aI0
aI0
aI0
aI0
aI0
aI0
aI0
aI0
aI0
aI0
aI0
aI0
aI0
aI0
aI0
aI0
aI0
aI0
aI0
aI0
aI0
aI0
aI0
aI0
aI1
aI0
aI0
aI0
aI1
aI0
aF0.1322425938390255
aI1
aF0.5049105812025713
aI1
aI1
aF0.6338824387239962
aF0.6514083091053455
aI1
aI1
aI1
aF0.5123428006355317
aI1
aF0.6407489251292355
aF0.5511143605124608
aF0.6179367739951962
aI1
aF0.5803858071090415
aI1
aF0.5123428006355317
aF0.6527090912441985
aI1
aI1
aI1
aI1
aI1
aa(lp261
I0
aI0
aI1
aI1
aI0
aI0
aI0
aI0
aI1
aI0
aI0
aI1
aI-1
aI-1
aI-1
aI-1
aI-1
aI1
aI0
aI0
aI0
aI0
aI1
aI0
aI0
aI0
aI0
aI0
aI0
aI0
aI0
aI0
aI0
aI0
aI0
aI0
aI0
aI0
aI0
aI0
aI0
aI0
aI0
aI0
aI0
aI0
aI0
aI0
aI0
aI0
aI0
aI0
aI0
aI0
aI0
aI0
aI0
aI0
aI0
aI1
aI0
aI0
aI0
aI1
aI0
aF0.1322425938390255
aI1
aF0.5049105812025713
aI1
aI1
aF0.6338824387239962
aF0.6514083091053455
aI1
aI1
aI1
aF0.5123428006355317
aI1
aF0.6407489251292355
aF0.5511143605124608
aF0.6179367739951962
aI1
aF0.5803858071090415
aI1
aF0.5123428006355317
aF0.6527090912441985
aI1
aI1
aI1
aI1
aI1
aa(lp262
I0
aI0
aI1
aI1
aI0
aI0
aI0
aI0
aI1
aI0
aI0
aI1
aI-1
aI-1
aI-1
aI-1
aI-1
aI1
aI0
aI0
aI0
aI0
aI1
aI0
aI0
aI0
aI0
aI0
aI0
aI0
aI0
aI0
aI0
aI0
aI0
aI0
aI0
aI0
aI0
aI0
aI0
aI0
aI0
aI0
aI0
aI0
aI0
aI0
aI0
aI0
aI0
aI0
aI0
aI0
aI0
aI0
aI0
aI0
aI0
aI1
aI0
aI0
aI0
aI1
aI0
aF0.1322425938390255
aI1
aF0.5049105812025713
aI1
aI1
aF0.6338824387239962
aF0.6514083091053455
aI1
aI1
aI1
aF0.5123428006355317
aI1
aF0.6407489251292355
aF0.5511143605124608
aF0.6179367739951962
aI1
aF0.5803858071090415
aI1
aF0.5123428006355317
aF0.6527090912441985
aI1
aI1
aI1
aI1
aI1
aa(lp263
I0
aI0
aI1
aI1
aI0
aI0
aI0
aI0
aI0
aI0
aI0
aI0
aI-1
aI-1
aI-1
aI-1
aI-1
aI1
aI0
aI0
aI0
aI0
aI1
aI0
aI0
aI0
aI0
aI0
aI0
aI0
aI0
aI0
aI0
aI0
aI0
aI0
aI0
aI0
aI0
aI0
aI0
aI0
aI0
aI0
aI0
aI0
aI0
aI0
aI0
aI0
aI0
aI0
aI0
aI0
aI0
aI0
aI0
aI0
aI0
aI1
aI0
aI0
aI0
aI1
aI0
aF0.1322425938390255
aI1
aF0.5049105812025713
aI1
aI1
aF0.6338824387239962
aF0.6514083091053455
aI1
aI1
aI1
aF0.5123428006355317
aI1
aF0.6407489251292355
aF0.5511143605124608
aF0.6179367739951962
aI1
aF0.5803858071090415
aI1
aF0.5123428006355317
aF0.6527090912441985
aI1
aI1
aI1
aI1
aI1
aa(lp264
I0
aI0
aI1
aI1
aI0
aI0
aI0
aI0
aI1
aI0
aI0
aI1
aI-1
aI-1
aI-1
aI-1
aI-1
aI1
aI0
aI0
aI0
aI0
aI1
aI0
aI0
aI0
aI0
aI0
aI0
aI0
aI0
aI0
aI0
aI0
aI0
aI0
aI0
aI0
aI0
aI0
aI0
aI0
aI0
aI0
aI0
aI0
aI0
aI0
aI0
aI0
aI0
aI0
aI0
aI0
aI0
aI0
aI0
aI0
aI0
aI1
aI0
aI0
aI0
aI1
aI0
aF0.1322425938390255
aI1
aF0.5049105812025713
aI1
aI1
aF0.6338824387239962
aF0.6514083091053455
aI1
aI1
aI1
aF0.5123428006355317
aI1
aF0.6407489251292355
aF0.5511143605124608
aF0.6179367739951962
aI1
aF0.5803858071090415
aI1
aF0.5123428006355317
aF0.6527090912441985
aI1
aI1
aI1
aI1
aI1
aa(lp265
I1
aI0
aI0
aI1
aI0
aI0
aI0
aI0
aI1
aI1
aI1
aI1
aI-1
aI-1
aI-1
aI-1
aI0
aI1
aI0
aI0
aI0
aI0
aI1
aI0
aI0
aI1
aI1
aI0
aI0
aI0
aI0
aI0
aI0
aI0
aI0
aI0
aI0
aI0
aI0
aI0
aI0
aI0
aI0
aI0
aI0
aI0
aI0
aI0
aI0
aI0
aI0
aI0
aI0
aI0
aI1
aI0
aI0
aI0
aI0
aI0
aI0
aI0
aI0
aI0
aI0
aI1
aF0.5103864223005199
aF0.5763785548030264
aF0.5711003125832678
aF0.5
aF0.5
aF0.5939517300936757
aF0.5729717728534833
aF0.5
aF0.5050424974372756
aF0.5515819430924429
aF0.728090750079668
aF0.5917806850848999
aF0.5
aF0.5
aF0.5876028204815266
aF0.5962846535468412
aF0.6061479218472771
aF0.5515819430924429
aF0.5515819430924429
aF0.6224964761253446
aF0.7177485733328628
aF0.5726707012896084
aF0.5980425737457671
aF0.6196664887721092
aa(lp266
I1
aI0
aI0
aI0
aI0
aI1
aI0
aI0
aI0
aI1
aI1
aI0
aI-1
aI-1
aI-1
aI-1
aI-1
aI-1
aI0
aI0
aI0
aI0
aI1
aI0
aI0
aI0
aI1
aI0
aI0
aI0
aI0
aI0
aI0
aI0
aI0
aI0
aI0
aI0
aI0
aI0
aI0
aI0
aI0
aI0
aI0
aI0
aI0
aI0
aI0
aI0
aI0
aI0
aI0
aI0
aI1
aI0
aI0
aI0
aI0
aI0
aI0
aI0
aI0
aI0
aI0
aF0.28136387185230444
aF0.607043828596713
aF0.6267217208682151
aF0.6563774155260674
aI0
aF0.5577734713497952
aF0.5233456403081337
aF0.5
aF0.5
aF0.617245385686066
aF0.6876465059093766
aF0.70838596586038
aF0.5692517375501781
aF0.5
aI1
aF0.5
aF0.5973688621439767
aF0.5
aF0.5811526154815995
aF0.611137966799573
aI1
aF0.7110550340917559
aF0.6959949674278685
aF0.6846835705702682
aF0.7085848622356106
aa(lp267
I1
aI0
aI0
aI1
aI0
aI0
aI0
aI0
aI0
aI0
aI0
aI0
aI-1
aI-1
aI-1
aI-1
aI-1
aI1
aI0
aI0
aI0
aI0
aI1
aI0
aI0
aI0
aI0
aI0
aI0
aI0
aI0
aI0
aI0
aI0
aI0
aI0
aI0
aI0
aI0
aI0
aI0
aI0
aI0
aI0
aI0
aI0
aI0
aI0
aI0
aI0
aI0
aI0
aI0
aI0
aI1
aI0
aI0
aI0
aI0
aI0
aI0
aI0
aI0
aI0
aI0
aF0.28136387185230444
aF0.607043828596713
aF0.6267217208682151
aF0.6563774155260674
aF0.5
aF0.5577734713497952
aF0.5233456403081337
aF0.5
aF0.5
aF0.617245385686066
aF0.6876465059093766
aF0.70838596586038
aF0.5692517375501781
aF0.5
aI1
aF0.5
aF0.5973688621439767
aF0.5
aF0.5811526154815995
aF0.611137966799573
aI1
aF0.7110550340917559
aF0.6959949674278685
aF0.6846835705702682
aF0.7085848622356106
aa(lp268
I1
aI0
aI0
aI0
aI0
aI1
aI0
aI0
aI1
aI0
aI0
aI0
aI-1
aI-1
aI-1
aI-1
aI0
aI-1
aI0
aI0
aI0
aI0
aI1
aI0
aI0
aI0
aI1
aI0
aI0
aI0
aI0
aI0
aI0
aI0
aI0
aI0
aI0
aI0
aI0
aI0
aI0
aI0
aI0
aI0
aI0
aI0
aI0
aI0
aI0
aI0
aI0
aI0
aI0
aI0
aI1
aI0
aI0
aI0
aI0
aI0
aI0
aI0
aI0
aI0
aI0
aF0.28136387185230444
aF0.607043828596713
aF0.6267217208682151
aF0.6563774155260674
aI0
aF0.5577734713497952
aF0.5233456403081337
aF0.5
aF0.5
aF0.617245385686066
aF0.6876465059093766
aF0.70838596586038
aF0.5692517375501781
aF0.5
aI1
aF0.5
aF0.5973688621439767
aF0.5
aF0.5811526154815995
aF0.611137966799573
aI1
aF0.7110550340917559
aF0.6959949674278685
aF0.6846835705702682
aF0.7085848622356106
aa(lp269
I1
aI0
aI0
aI0
aI0
aI1
aI0
aI0
aI0
aI1
aI1
aI0
aI-1
aI-1
aI-1
aI-1
aI-1
aI1
aI0
aI0
aI0
aI0
aI1
aI0
aI0
aI0
aI1
aI0
aI0
aI0
aI0
aI0
aI0
aI0
aI0
aI0
aI0
aI0
aI0
aI0
aI0
aI0
aI0
aI0
aI0
aI0
aI0
aI0
aI0
aI0
aI0
aI0
aI0
aI0
aI1
aI0
aI0
aI0
aI0
aI0
aI0
aI0
aI0
aI0
aI0
aF0.28136387185230444
aF0.607043828596713
aF0.6267217208682151
aF0.6563774155260674
aI0
aF0.5577734713497952
aF0.5233456403081337
aF0.5
aF0.5
aF0.617245385686066
aF0.6876465059093766
aF0.70838596586038
aF0.5692517375501781
aF0.5
aI1
aF0.5
aF0.5973688621439767
aF0.5
aF0.5811526154815995
aF0.611137966799573
aI1
aF0.7110550340917559
aF0.6959949674278685
aF0.6846835705702682
aF0.7085848622356106
aa(lp270
I1
aI0
aI0
aI1
aI0
aI0
aI0
aI0
aI0
aI0
aI0
aI0
aI-1
aI-1
aI-1
aI-1
aI1
aI1
aI0
aI0
aI0
aI0
aI1
aI0
aI0
aI0
aI0
aI0
aI0
aI0
aI0
aI0
aI0
aI0
aI0
aI0
aI0
aI0
aI0
aI0
aI0
aI0
aI0
aI0
aI0
aI0
aI0
aI0
aI0
aI0
aI0
aI0
aI0
aI0
aI1
aI0
aI0
aI0
aI0
aI0
aI0
aI0
aI0
aI0
aI0
aF0.28136387185230444
aF0.607043828596713
aF0.6267217208682151
aF0.6563774155260674
aF0.5
aF0.5577734713497952
aF0.5233456403081337
aF0.5
aF0.5
aF0.617245385686066
aF0.6876465059093766
aF0.70838596586038
aF0.5692517375501781
aF0.5
aI1
aF0.5
aF0.5973688621439767
aF0.5
aF0.5811526154815995
aF0.611137966799573
aI1
aF0.7110550340917559
aF0.6959949674278685
aF0.6846835705702682
aF0.7085848622356106
aa(lp271
I1
aI0
aI0
aI0
aI0
aI1
aI0
aI0
aI1
aI0
aI0
aI1
aI-1
aI-1
aI-1
aI-1
aI0
aI1
aI0
aI0
aI0
aI0
aI1
aI0
aI0
aI0
aI1
aI0
aI0
aI0
aI0
aI0
aI0
aI0
aI0
aI0
aI0
aI0
aI0
aI0
aI0
aI0
aI0
aI0
aI0
aI0
aI0
aI0
aI0
aI0
aI0
aI0
aI0
aI0
aI1
aI0
aI0
aI0
aI0
aI0
aI0
aI0
aI0
aI0
aI0
aF0.28136387185230444
aF0.607043828596713
aF0.6267217208682151
aF0.6563774155260674
aI0
aF0.5577734713497952
aF0.5233456403081337
aF0.5
aF0.5
aF0.617245385686066
aF0.6876465059093766
aF0.70838596586038
aF0.5692517375501781
aF0.5
aI1
aF0.5
aF0.5973688621439767
aF0.5
aF0.5811526154815995
aF0.611137966799573
aI1
aF0.7110550340917559
aF0.6959949674278685
aF0.6846835705702682
aF0.7085848622356106
aa(lp272
I0
aI0
aI1
aI0
aI0
aI1
aI0
aI0
aI0
aI0
aI0
aI0
aI-1
aI-1
aI-1
aI-1
aI0
aI-1
aI0
aI0
aI0
aI1
aI0
aI0
aI0
aI0
aI0
aI0
aI0
aI0
aI0
aI0
aI0
aI0
aI0
aI0
aI0
aI0
aI0
aI0
aI0
aI0
aI0
aI0
aI0
aI0
aI0
aI0
aI0
aI0
aI0
aI0
aI0
aI0
aI0
aI0
aI0
aI0
aI0
aI0
aI0
aI0
aI0
aI0
aI1
aF0.17566185400964995
aF0.5103864223005199
aF0.5763785548030264
aF0.5711003125832678
aF0.5
aF0.5
aF0.5939517300936757
aF0.5729717728534833
aF0.5
aF0.5050424974372756
aF0.5515819430924429
aF0.728090750079668
aF0.5917806850848999
aI0
aF0.5
aF0.5876028204815266
aF0.5962846535468412
aF0.6061479218472771
aF0.5515819430924429
aF0.5515819430924429
aF0.6224964761253446
aF0.7177485733328628
aF0.5726707012896084
aF0.5980425737457671
aF0.6196664887721092
aa(lp273
I1
aI0
aI0
aI1
aI0
aI0
aI0
aI0
aI1
aI1
aI1
aI1
aI-1
aI-1
aI-1
aI-1
aI0
aI1
aI0
aI0
aI0
aI0
aI1
aI0
aI0
aI0
aI0
aI0
aI0
aI0
aI0
aI0
aI0
aI0
aI0
aI0
aI0
aI0
aI0
aI0
aI0
aI0
aI0
aI0
aI0
aI0
aI0
aI0
aI0
aI0
aI0
aI0
aI0
aI0
aI1
aI0
aI0
aI0
aI0
aI0
aI0
aI0
aI0
aI0
aI0
aI0
aF0.6530788474012764
aI1
aF0.7357380913167351
aF0.7082261913982882
aI1
aF0.5
aF0.7369898585836806
aF0.7335553847097932
aI1
aF0.7473097042109206
aI1
aI1
aI1
aI1
aF0.5
aF0.7655273363157483
aI1
aI1
aI1
aI1
aF0.7367418561839802
aI1
aI1
aI1
aa(lp274
I0
aI0
aI1
aI1
aI0
aI0
aI0
aI0
aI0
aI0
aI0
aI0
aI-1
aI-1
aI-1
aI-1
aI-1
aI1
aI0
aI0
aI0
aI0
aI1
aI0
aI0
aI0
aI1
aI0
aI0
aI0
aI0
aI0
aI0
aI0
aI0
aI0
aI0
aI0
aI0
aI0
aI0
aI0
aI0
aI0
aI0
aI0
aI0
aI0
aI0
aI0
aI0
aI0
aI0
aI0
aI1
aI0
aI0
aI0
aI0
aI0
aI0
aI0
aI0
aI0
aI0
aI1
aF0.607043828596713
aF0.6267217208682151
aF0.6563774155260674
aF0.5
aF0.5577734713497952
aF0.5233456403081337
aF0.5
aF0.5
aF0.617245385686066
aF0.6876465059093766
aF0.70838596586038
aF0.5692517375501781
aF0.5
aI1
aF0.5
aF0.5973688621439767
aF0.5
aF0.5811526154815995
aF0.611137966799573
aI1
aF0.7110550340917559
aF0.6959949674278685
aF0.6846835705702682
aF0.7085848622356106
aa(lp275
I1
aI0
aI0
aI1
aI0
aI0
aI0
aI0
aI1
aI0
aI0
aI1
aI-1
aI-1
aI-1
aI-1
aI-1
aI1
aI0
aI0
aI0
aI0
aI1
aI0
aI0
aI0
aI0
aI0
aI0
aI0
aI0
aI0
aI0
aI0
aI0
aI0
aI0
aI0
aI0
aI0
aI0
aI0
aI0
aI0
aI0
aI0
aI0
aI0
aI0
aI0
aI0
aI0
aI0
aI0
aI1
aI0
aI0
aI0
aI0
aI0
aI0
aI0
aI0
aI0
aI0
aI0
aF0.607043828596713
aF0.6267217208682151
aF0.6563774155260674
aF0.5
aF0.5577734713497952
aF0.5233456403081337
aF0.5
aF0.5
aF0.617245385686066
aF0.6876465059093766
aF0.70838596586038
aF0.5692517375501781
aF0.5
aI1
aF0.5
aF0.5973688621439767
aF0.5
aF0.5811526154815995
aF0.611137966799573
aI1
aF0.7110550340917559
aF0.6959949674278685
aF0.6846835705702682
aF0.7085848622356106
aa(lp276
I1
aI0
aI0
aI1
aI0
aI0
aI0
aI0
aI0
aI0
aI0
aI0
aI-1
aI-1
aI-1
aI-1
aI1
aI1
aI0
aI0
aI0
aI0
aI1
aI0
aI0
aI0
aI0
aI0
aI0
aI0
aI0
aI0
aI0
aI0
aI0
aI0
aI0
aI0
aI0
aI0
aI0
aI0
aI0
aI0
aI0
aI0
aI0
aI0
aI0
aI0
aI0
aI0
aI0
aI0
aI1
aI0
aI0
aI0
aI0
aI0
aI0
aI0
aI0
aI0
aI0
aI0
aF0.607043828596713
aF0.6267217208682151
aF0.6563774155260674
aF0.5
aF0.5577734713497952
aF0.5233456403081337
aF0.5
aF0.5
aF0.617245385686066
aF0.6876465059093766
aF0.70838596586038
aF0.5692517375501781
aF0.5
aI1
aF0.5
aF0.5973688621439767
aF0.5
aF0.5811526154815995
aF0.611137966799573
aI1
aF0.7110550340917559
aF0.6959949674278685
aF0.6846835705702682
aF0.7085848622356106
aa(lp277
I1
aI0
aI0
aI1
aI0
aI0
aI0
aI0
aI1
aI0
aI0
aI1
aI-1
aI-1
aI-1
aI-1
aI-1
aI1
aI0
aI0
aI0
aI0
aI1
aI0
aI0
aI0
aI0
aI0
aI0
aI0
aI0
aI0
aI0
aI0
aI0
aI0
aI0
aI0
aI0
aI0
aI0
aI0
aI0
aI0
aI0
aI0
aI0
aI0
aI0
aI0
aI0
aI0
aI0
aI0
aI1
aI0
aI0
aI0
aI0
aI0
aI0
aI0
aI0
aI0
aI0
aI0
aF0.607043828596713
aF0.6267217208682151
aF0.6563774155260674
aF0.5
aF0.5577734713497952
aF0.5233456403081337
aF0.5
aF0.5
aF0.617245385686066
aF0.6876465059093766
aF0.70838596586038
aF0.5692517375501781
aF0.5
aI1
aF0.5
aF0.5973688621439767
aF0.5
aF0.5811526154815995
aF0.611137966799573
aI1
aF0.7110550340917559
aF0.6959949674278685
aF0.6846835705702682
aF0.7085848622356106
aa(lp278
I1
aI0
aI0
aI1
aI0
aI0
aI0
aI0
aI0
aI0
aI0
aI0
aI-1
aI-1
aI-1
aI-1
aI1
aI1
aI0
aI0
aI0
aI0
aI1
aI0
aI0
aI0
aI0
aI0
aI0
aI0
aI0
aI0
aI0
aI0
aI0
aI0
aI0
aI0
aI0
aI0
aI0
aI0
aI0
aI0
aI0
aI0
aI0
aI0
aI0
aI0
aI0
aI0
aI0
aI0
aI1
aI0
aI0
aI0
aI0
aI0
aI0
aI0
aI0
aI0
aI0
aI0
aF0.607043828596713
aF0.6267217208682151
aF0.6563774155260674
aF0.5
aF0.5577734713497952
aF0.5233456403081337
aF0.5
aF0.5
aF0.617245385686066
aF0.6876465059093766
aF0.70838596586038
aF0.5692517375501781
aF0.5
aI1
aF0.5
aF0.5973688621439767
aF0.5
aF0.5811526154815995
aF0.611137966799573
aI1
aF0.7110550340917559
aF0.6959949674278685
aF0.6846835705702682
aF0.7085848622356106
aa(lp279
I0
aI0
aI1
aI1
aI0
aI0
aI0
aI0
aI1
aI1
aI1
aI1
aI-1
aI-1
aI-1
aI-1
aI0
aI1
aI0
aI0
aI0
aI0
aI1
aI0
aI0
aI0
aI1
aI0
aI0
aI0
aI0
aI0
aI0
aI0
aI0
aI0
aI0
aI0
aI0
aI0
aI0
aI0
aI0
aI0
aI0
aI0
aI0
aI0
aI0
aI0
aI0
aI0
aI0
aI0
aI1
aI0
aI0
aI0
aI0
aI0
aI0
aI0
aI0
aI0
aI0
aI1
aF0.607043828596713
aF0.6267217208682151
aF0.6563774155260674
aF0.5
aF0.5577734713497952
aF0.5233456403081337
aF0.5
aF0.5
aF0.617245385686066
aF0.6876465059093766
aF0.70838596586038
aF0.5692517375501781
aF0.5
aI1
aF0.5
aF0.5973688621439767
aF0.5
aF0.5811526154815995
aF0.611137966799573
aI1
aF0.7110550340917559
aF0.6959949674278685
aF0.6846835705702682
aF0.7085848622356106
aa(lp280
I1
aI0
aI0
aI1
aI0
aI0
aI0
aI0
aI0
aI0
aI0
aI0
aI-1
aI-1
aI-1
aI-1
aI1
aI1
aI0
aI0
aI0
aI0
aI1
aI0
aI0
aI0
aI0
aI0
aI0
aI0
aI0
aI0
aI0
aI0
aI0
aI0
aI0
aI0
aI0
aI0
aI0
aI0
aI0
aI0
aI0
aI0
aI0
aI0
aI0
aI0
aI0
aI0
aI0
aI0
aI1
aI0
aI0
aI0
aI0
aI0
aI0
aI0
aI0
aI0
aI0
aI0
aF0.607043828596713
aF0.6267217208682151
aF0.6563774155260674
aF0.5
aF0.5577734713497952
aF0.5233456403081337
aF0.5
aF0.5
aF0.617245385686066
aF0.6876465059093766
aF0.70838596586038
aF0.5692517375501781
aF0.5
aI1
aF0.5
aF0.5973688621439767
aF0.5
aF0.5811526154815995
aF0.611137966799573
aI1
aF0.7110550340917559
aF0.6959949674278685
aF0.6846835705702682
aF0.7085848622356106
aa(lp281
I1
aI0
aI0
aI1
aI0
aI0
aI0
aI0
aI1
aI0
aI0
aI1
aI-1
aI-1
aI-1
aI-1
aI-1
aI1
aI0
aI0
aI0
aI0
aI1
aI0
aI0
aI0
aI0
aI0
aI0
aI0
aI0
aI0
aI0
aI0
aI0
aI0
aI0
aI0
aI0
aI0
aI0
aI0
aI0
aI0
aI0
aI0
aI0
aI0
aI0
aI0
aI0
aI0
aI0
aI0
aI1
aI0
aI0
aI0
aI0
aI0
aI0
aI0
aI0
aI0
aI0
aI0
aF0.607043828596713
aF0.6267217208682151
aF0.6563774155260674
aF0.5
aF0.5577734713497952
aF0.5233456403081337
aF0.5
aF0.5
aF0.617245385686066
aF0.6876465059093766
aF0.70838596586038
aF0.5692517375501781
aF0.5
aI1
aF0.5
aF0.5973688621439767
aF0.5
aF0.5811526154815995
aF0.611137966799573
aI1
aF0.7110550340917559
aF0.6959949674278685
aF0.6846835705702682
aF0.7085848622356106
aa(lp282
I0
aI0
aI1
aI1
aI0
aI0
aI0
aI0
aI1
aI0
aI0
aI1
aI-1
aI-1
aI-1
aI-1
aI-1
aI1
aI0
aI0
aI0
aI0
aI1
aI0
aI0
aI0
aI1
aI0
aI0
aI0
aI0
aI0
aI0
aI0
aI0
aI0
aI0
aI0
aI0
aI0
aI0
aI0
aI0
aI0
aI0
aI0
aI0
aI0
aI0
aI0
aI0
aI0
aI0
aI0
aI1
aI0
aI0
aI0
aI0
aI0
aI0
aI0
aI0
aI0
aI0
aI1
aF0.607043828596713
aF0.6267217208682151
aF0.6563774155260674
aF0.5
aF0.5577734713497952
aF0.5233456403081337
aF0.5
aF0.5
aF0.617245385686066
aF0.6876465059093766
aF0.70838596586038
aF0.5692517375501781
aF0.5
aI1
aF0.5
aF0.5973688621439767
aF0.5
aF0.5811526154815995
aF0.611137966799573
aI1
aF0.7110550340917559
aF0.6959949674278685
aF0.6846835705702682
aF0.7085848622356106
aa(lp283
I0
aI0
aI1
aI1
aI0
aI0
aI0
aI0
aI0
aI0
aI0
aI0
aI-1
aI-1
aI-1
aI-1
aI-1
aI1
aI0
aI0
aI0
aI0
aI1
aI0
aI0
aI0
aI1
aI0
aI0
aI0
aI0
aI0
aI0
aI0
aI0
aI0
aI0
aI0
aI0
aI0
aI0
aI0
aI0
aI0
aI0
aI0
aI0
aI0
aI0
aI0
aI0
aI0
aI0
aI0
aI1
aI0
aI0
aI0
aI0
aI0
aI0
aI0
aI0
aI0
aI0
aI1
aF0.607043828596713
aF0.6267217208682151
aF0.6563774155260674
aF0.5
aF0.5577734713497952
aF0.5233456403081337
aF0.5
aF0.5
aF0.617245385686066
aF0.6876465059093766
aF0.70838596586038
aF0.5692517375501781
aF0.5
aI1
aF0.5
aF0.5973688621439767
aF0.5
aF0.5811526154815995
aF0.611137966799573
aI1
aF0.7110550340917559
aF0.6959949674278685
aF0.6846835705702682
aF0.7085848622356106
aa(lp284
I1
aI0
aI0
aI1
aI0
aI0
aI0
aI0
aI0
aI0
aI0
aI0
aI-1
aI-1
aI-1
aI-1
aI1
aI1
aI0
aI0
aI0
aI0
aI1
aI0
aI0
aI0
aI0
aI0
aI0
aI0
aI0
aI0
aI0
aI0
aI0
aI0
aI0
aI0
aI0
aI0
aI0
aI0
aI0
aI0
aI0
aI0
aI0
aI0
aI0
aI0
aI0
aI0
aI0
aI0
aI1
aI0
aI0
aI0
aI0
aI0
aI0
aI0
aI0
aI0
aI0
aI0
aF0.607043828596713
aF0.6267217208682151
aF0.6563774155260674
aF0.5
aF0.5577734713497952
aF0.5233456403081337
aF0.5
aF0.5
aF0.617245385686066
aF0.6876465059093766
aF0.70838596586038
aF0.5692517375501781
aF0.5
aI1
aF0.5
aF0.5973688621439767
aF0.5
aF0.5811526154815995
aF0.611137966799573
aI1
aF0.7110550340917559
aF0.6959949674278685
aF0.6846835705702682
aF0.7085848622356106
aa(lp285
I0
aI0
aI1
aI1
aI0
aI0
aI0
aI0
aI0
aI1
aI1
aI0
aI-1
aI-1
aI-1
aI-1
aI0
aI1
aI0
aI0
aI0
aI0
aI1
aI0
aI0
aI0
aI1
aI0
aI0
aI0
aI0
aI0
aI0
aI0
aI0
aI0
aI0
aI0
aI0
aI0
aI0
aI0
aI0
aI0
aI0
aI0
aI0
aI0
aI0
aI0
aI0
aI0
aI0
aI0
aI1
aI0
aI0
aI0
aI0
aI0
aI0
aI0
aI0
aI0
aI0
aI1
aF0.607043828596713
aF0.6267217208682151
aF0.6563774155260674
aF0.5
aF0.5577734713497952
aF0.5233456403081337
aF0.5
aF0.5
aF0.617245385686066
aF0.6876465059093766
aF0.70838596586038
aF0.5692517375501781
aF0.5
aI1
aF0.5
aF0.5973688621439767
aF0.5
aF0.5811526154815995
aF0.611137966799573
aI1
aF0.7110550340917559
aF0.6959949674278685
aF0.6846835705702682
aF0.7085848622356106
aa(lp286
tp287
sS'/'
p288
((lp289
(lp290
I1
aI0
aI0
aI0
aI0
aI1
aI0
aI0
aI0
aI0
aI0
aI0
aI-1
aI-1
aI1
aI-1
aI-1
aI-1
aI0
aI-1
aI0
aI0
aI1
aI0
aI0
aI0
aI1
aI0
aI1
aI1
aI0
aI0
aI0
aI0
aI0
aI0
aI0
aI0
aI0
aI0
aI0
aI0
aI0
aI0
aI0
aI0
aI0
aI0
aI0
aI0
aI0
aI0
aI0
aI0
aI0
aI0
aI0
aI0
aI0
aI0
aI0
aI0
aI0
aI0
aI0
aF0.09915303107686972
aF0.5660501279322816
aF0.5
aF0.5573136545024441
aF0.5
aF0.6715184734345465
aF0.6856960747265942
aF0.5
aF0.5966688280256184
aF0.55866543967563
aF0.6646337448295041
aF0.70838596586038
aF0.5692517375501781
aF0.5915279059953816
aF0.6610663602759543
aF0.5200612429987673
aF0.6017842064639691
aI0
aF0.6691822484205258
aF0.6867539380107647
aF0.639826351396688
aF0.7616003669075565
aF0.5555682321074484
aF0.6846835705702682
aF0.7085848622356106
aa(lp291
I1
aI0
aI0
aI0
aI1
aI0
aI0
aI0
aI0
aI0
aI0
aI0
aI-1
aI-1
aI-1
aI-1
aI-1
aI-1
aI-1
aI0
aI0
aI1
aI0
aI0
aI0
aI0
aI0
aI0
aI0
aI0
aI0
aI0
aI0
aI0
aI0
aI0
aI0
aI0
aI0
aI0
aI0
aI0
aI0
aI0
aI0
aI0
aI0
aI0
aI0
aI0
aI0
aI0
aI0
aI0
aI0
aI0
aI0
aI0
aI0
aI0
aI0
aI0
aI0
aI0
aI0
aF0.2509060962922141
aI0
aF0.5660501279322816
aF0.5762336016390824
aF0.607043828596713
aF0.5103864223005199
aF0.6052487446301636
aF0.5845182825732097
aF0.5702739089723219
aF0.5156285914792277
aF0.6731411659043034
aI1
aI1
aF0.5103864223005199
aI1
aF0.501152717616773
aF0.7043510771768892
aI1
aF0.6174869490372198
aI1
aI1
aF0.657070774851754
aF0.6483329760144455
aI1
aI1
aa(lp292
I0
aI0
aI1
aI0
aI0
aI1
aI0
aI0
aI0
aI0
aI0
aI0
aI-1
aI-1
aI1
aI-1
aI-1
aI-1
aI0
aI0
aI0
aI0
aI1
aI0
aI0
aI0
aI0
aI0
aI0
aI1
aI0
aI0
aI0
aI0
aI0
aI0
aI0
aI0
aI0
aI0
aI0
aI0
aI0
aI0
aI0
aI0
aI0
aI0
aI0
aI0
aI0
aI0
aI0
aI0
aI0
aI0
aI0
aI0
aI0
aI0
aI0
aI0
aI0
aI0
aI0
aI1
aI0
aF0.5660501279322816
aF0.5762336016390824
aF0.607043828596713
aF0.5103864223005199
aF0.6052487446301636
aF0.5845182825732097
aF0.5702739089723219
aF0.5156285914792277
aF0.6731411659043034
aI1
aI1
aF0.5103864223005199
aI1
aF0.501152717616773
aF0.7043510771768892
aI1
aF0.6174869490372198
aI1
aI1
aF0.657070774851754
aF0.6483329760144455
aI1
aI1
aa(lp293
I0
aI0
aI1
aI0
aI0
aI1
aI0
aI0
aI0
aI0
aI0
aI0
aI-1
aI-1
aI-1
aI-1
aI0
aI-1
aI0
aI-1
aI0
aI1
aI0
aI0
aI0
aI0
aI0
aI0
aI0
aI0
aI0
aI0
aI0
aI0
aI0
aI0
aI0
aI0
aI0
aI0
aI0
aI0
aI0
aI0
aI0
aI0
aI0
aI0
aI0
aI0
aI0
aI0
aI0
aI0
aI0
aI0
aI0
aI0
aI0
aI0
aI0
aI0
aI0
aI0
aI0
aI1
aI1
aI1
aI1
aI1
aI1
aI1
aI1
aI1
aI1
aI1
aI1
aI1
aI1
aI1
aI1
aI1
aI1
aI1
aI1
aI1
aI1
aI1
aI1
aI1
aa(lp294
I0
aI0
aI1
aI0
aI0
aI1
aI0
aI0
aI0
aI0
aI0
aI0
aI-1
aI-1
aI-1
aI-1
aI0
aI-1
aI0
aI0
aI0
aI1
aI0
aI0
aI0
aI0
aI0
aI0
aI0
aI0
aI0
aI0
aI0
aI0
aI0
aI0
aI0
aI0
aI0
aI0
aI0
aI0
aI0
aI0
aI0
aI0
aI0
aI0
aI0
aI0
aI0
aI0
aI0
aI0
aI0
aI0
aI0
aI0
aI0
aI0
aI0
aI0
aI0
aI0
aI0
aI1
aI1
aI1
aI1
aI1
aI1
aI1
aI1
aI1
aI1
aI1
aI1
aI1
aI1
aI1
aI1
aI1
aI1
aI1
aI1
aI1
aI1
aI1
aI1
aI1
aa(lp295
tp296
s.