(dp0
S'='
p1
((lp2
(lp3
tp4
sS'+'
p5
((lp6
(lp7
I1
aI0
aI0
aI0
aI0
aI1
aI0
aI0
aI0
aI0
aI0
aI0
aI-1
aI-1
aI-1
aI-1
aI-1
aI1
aI0
aI0
aI0
aI0
aI1
aI0
aI0
aI1
aI0
aI0
aI0
aI0
aI0
aI0
aI0
aI0
aI0
aI0
aI0
aI0
aI0
aI0
aI0
aI0
aI0
aI0
aI0
aI0
aI0
aI0
aI0
aI0
aI0
aI1
aI0
aI0
aI0
aI0
aI0
aI0
aI0
aI0
aI0
aI0
aI0
aI0
aI0
aI1
aI1
aF0.7009350176127823
aF0.6133616348090907
aF0.6111892945077473
aF0.72371575315022
aF0.5
aF0.6133616348090907
aF0.5834171681258565
aF0.7111802357934103
aF0.5778325540949651
aF0.653509987346825
aF0.635782970426654
aF0.6244115683366251
aI1
aF0.6125132477143002
aI1
aF0.7126707854900202
aF0.6074722025568249
aF0.6074722025568249
aI1
aF0.7397737330615402
aF0.7255630322537268
aF0.5348088124082615
aF0.7657190685564594
aa(lp8
I0
aI0
aI1
aI0
aI0
aI1
aI0
aI0
aI0
aI0
aI0
aI0
aI-1
aI-1
aI-1
aI-1
aI0
aI1
aI0
aI0
aI0
aI0
aI1
aI0
aI0
aI1
aI1
aI0
aI0
aI0
aI0
aI0
aI0
aI0
aI0
aI0
aI0
aI0
aI0
aI0
aI0
aI0
aI0
aI0
aI0
aI0
aI0
aI0
aI1
aI0
aI0
aI0
aI0
aI0
aI0
aI0
aI0
aI0
aI0
aI0
aI0
aI0
aI0
aI0
aI0
aI0
aF0.7043510771768892
aI1
aF0.7665741359586784
aF0.5973688621439767
aF0.67628317488964
aF0.6900610861329958
aF0.5240462374338287
aF0.6242745850549243
aI1
aF0.5902545845741275
aI1
aF0.6839762527433063
aF0.5962846535468412
aF0.6664574727306354
aF0.5211810840509955
aI0
aF0.6017842064639691
aF0.5902545845741275
aF0.691089818605029
aF0.7087281892142097
aF0.7673576618240046
aF0.6856793837685414
aF0.7371866760277586
aI1
aa(lp9
I0
aI0
aI1
aI0
aI0
aI1
aI0
aI0
aI1
aI0
aI0
aI1
aI-1
aI-1
aI-1
aI-1
aI0
aI1
aI0
aI0
aI0
aI0
aI1
aI0
aI0
aI1
aI1
aI0
aI0
aI0
aI0
aI0
aI0
aI0
aI0
aI0
aI0
aI0
aI0
aI0
aI0
aI0
aI0
aI0
aI0
aI0
aI0
aI0
aI1
aI0
aI0
aI0
aI0
aI0
aI0
aI0
aI0
aI0
aI0
aI0
aI0
aI0
aI0
aI0
aI0
aI0
aF0.7043510771768892
aI1
aF0.7665741359586784
aF0.5973688621439767
aF0.67628317488964
aF0.6900610861329958
aF0.5240462374338287
aF0.6242745850549243
aI1
aF0.5902545845741275
aI1
aF0.6839762527433063
aF0.5962846535468412
aF0.6664574727306354
aF0.5211810840509955
aI0
aF0.6017842064639691
aF0.5902545845741275
aF0.691089818605029
aF0.7087281892142097
aF0.7673576618240046
aF0.6856793837685414
aF0.7371866760277586
aI1
aa(lp10
I0
aI0
aI1
aI0
aI0
aI1
aI0
aI0
aI0
aI0
aI0
aI0
aI1
aI-1
aI1
aI1
aI1
aI1
aI0
aI0
aI0
aI0
aI1
aI0
aI0
aI0
aI0
aI0
aI0
aI0
aI0
aI0
aI0
aI0
aI0
aI0
aI0
aI0
aI0
aI0
aI0
aI0
aI0
aI0
aI0
aI0
aI0
aI0
aI1
aI0
aI0
aI0
aI0
aI0
aI0
aI0
aI0
aI0
aI0
aI0
aI0
aI0
aI0
aI0
aI0
aI1
aI1
aI1
aI1
aI1
aI1
aI1
aI1
aI1
aI1
aI1
aI1
aI1
aI1
aI1
aI1
aI1
aI1
aI1
aI1
aI1
aI1
aI1
aI1
aI1
aa(lp11
I0
aI0
aI1
aI0
aI0
aI1
aI0
aI0
aI0
aI0
aI0
aI0
aI-1
aI-1
aI-1
aI-1
aI0
aI1
aI0
aI0
aI0
aI0
aI1
aI0
aI0
aI0
aI1
aI0
aI0
aI0
aI0
aI0
aI0
aI0
aI0
aI0
aI0
aI0
aI0
aI0
aI0
aI0
aI0
aI0
aI0
aI0
aI0
aI0
aI0
aI0
aI0
aI0
aI0
aI0
aI0
aI0
aI0
aI0
aI0
aI0
aI0
aI0
aI0
aI0
aI0
aI0
aF0.7002046764701588
aF0.7080620682426036
aF0.7163643843571238
aF0.5761564699443599
aF0.7298094388316532
aF0.7778242236320282
aF0.6846545035602672
aF0.6846545035602672
aI1
aF0.7732695325426403
aF0.7527610998778927
aF0.531953650068141
aF0.7347716729844952
aI1
aF0.6178090883814487
aF0.7880457463525948
aF0.6931163423336668
aF0.7385141342271495
aF0.7016289752434676
aI1
aF0.7647978969840609
aF0.7315763904890072
aF0.7359316313554412
aF0.7529040842951182
aa(lp12
I0
aI0
aI1
aI0
aI0
aI1
aI0
aI0
aI0
aI0
aI0
aI0
aI-1
aI-1
aI1
aI1
aI1
aI1
aI0
aI0
aI0
aI0
aI1
aI0
aI0
aI0
aI0
aI0
aI0
aI0
aI0
aI0
aI0
aI0
aI0
aI0
aI0
aI0
aI0
aI0
aI0
aI0
aI0
aI0
aI0
aI0
aI0
aI0
aI0
aI0
aI0
aI0
aI0
aI0
aI0
aI0
aI0
aI0
aI0
aI0
aI0
aI0
aI0
aI0
aI0
aI1
aI1
aI1
aI1
aI1
aI1
aI1
aI1
aI1
aI1
aI1
aI1
aI1
aI1
aI1
aI1
aI1
aI1
aI1
aI1
aI1
aI1
aI1
aI1
aI1
aa(lp13
I0
aI0
aI1
aI0
aI0
aI1
aI0
aI0
aI0
aI0
aI0
aI0
aI-1
aI-1
aI-1
aI-1
aI0
aI1
aI0
aI-1
aI0
aI0
aI1
aI0
aI0
aI0
aI1
aI0
aI0
aI0
aI0
aI0
aI0
aI0
aI0
aI0
aI0
aI0
aI0
aI0
aI0
aI0
aI0
aI0
aI0
aI0
aI0
aI0
aI0
aI0
aI0
aI0
aI0
aI0
aI0
aI0
aI0
aI0
aI0
aI0
aI0
aI0
aI0
aI0
aI0
aI0
aF0.5762336016390824
aF0.5049105812025713
aI0
aF0.5645203190923566
aF0.5080729429727653
aF0.6514083091053455
aF0.5
aF0.5800653881041513
aF0.6708251587782617
aF0.5123428006355317
aF0.6088965640031552
aF0.6136949805920936
aF0.5511143605124608
aF0.6179367739951962
aF0.5309912748691271
aF0.5803858071090415
aF0.6287144201715433
aF0.5123428006355317
aF0.5591789068123963
aI1
aF0.7380607346989156
aF0.7407774212005223
aF0.7091758353614844
aF0.6160819249192172
aa(lp14
I0
aI0
aI1
aI0
aI0
aI1
aI0
aI0
aI0
aI0
aI0
aI0
aI1
aI-1
aI1
aI1
aI1
aI1
aI0
aI0
aI0
aI0
aI1
aI0
aI0
aI0
aI0
aI0
aI0
aI0
aI0
aI0
aI0
aI0
aI0
aI0
aI0
aI0
aI0
aI0
aI0
aI0
aI0
aI0
aI0
aI0
aI0
aI0
aI0
aI0
aI0
aI0
aI0
aI0
aI0
aI0
aI0
aI0
aI0
aI0
aI0
aI0
aI0
aI0
aI0
aI1
aI1
aI1
aI1
aI1
aI1
aI1
aI1
aI1
aI1
aI1
aI1
aI1
aI1
aI1
aI1
aI1
aI1
aI1
aI1
aI1
aI1
aI1
aI1
aI1
aa(lp15
I1
aI0
aI0
aI0
aI0
aI1
aI0
aI0
aI0
aI0
aI0
aI0
aI-1
aI-1
aI-1
aI-1
aI-1
aI-1
aI0
aI0
aI0
aI0
aI1
aI0
aI0
aI0
aI0
aI0
aI0
aI0
aI1
aI1
aI0
aI0
aI0
aI0
aI0
aI0
aI0
aI0
aI0
aI0
aI0
aI0
aI0
aI0
aI0
aI0
aI1
aI0
aI0
aI0
aI0
aI0
aI0
aI0
aI0
aI0
aI0
aI0
aI0
aI0
aI0
aI0
aI0
aF0.10004296768396183
aF0.5660501279322816
aF0.5
aF0.5357430314204298
aF0.5654343853748066
aF0.657338749841547
aF0.6727381017529414
aF0.5234665435026907
aF0.5777904972740775
aF0.6913237939886325
aF0.6547956927237909
aF0.7336771055118949
aF0.6647171876899333
aF0.5757218491573359
aF0.6449312485322867
aF0.5566769735591669
aF0.6847621007541346
aI1
aF0.6547956927237909
aF0.6478828400653969
aI1
aF0.7237632689209111
aF0.7144091500329147
aF0.6940606718914806
aF0.752821150512001
aa(lp16
I0
aI0
aI1
aI0
aI0
aI1
aI0
aI0
aI0
aI0
aI0
aI0
aI1
aI-1
aI1
aI1
aI1
aI1
aI0
aI0
aI0
aI0
aI1
aI0
aI0
aI0
aI0
aI0
aI0
aI0
aI0
aI0
aI0
aI0
aI0
aI0
aI0
aI0
aI0
aI0
aI0
aI0
aI0
aI0
aI0
aI0
aI0
aI0
aI0
aI0
aI0
aI0
aI0
aI0
aI0
aI0
aI0
aI0
aI0
aI0
aI0
aI0
aI0
aI0
aI0
aI1
aI1
aI1
aI1
aI1
aI1
aI1
aI1
aI1
aI1
aI1
aI1
aI1
aI1
aI1
aI1
aI1
aI1
aI1
aI1
aI1
aI1
aI1
aI1
aI1
aa(lp17
I0
aI0
aI1
aI0
aI0
aI1
aI0
aI0
aI0
aI0
aI0
aI0
aI1
aI-1
aI1
aI1
aI1
aI1
aI0
aI0
aI0
aI0
aI1
aI0
aI0
aI0
aI0
aI0
aI0
aI0
aI0
aI0
aI0
aI0
aI0
aI0
aI0
aI0
aI0
aI0
aI0
aI0
aI0
aI0
aI0
aI0
aI0
aI0
aI1
aI0
aI0
aI0
aI0
aI0
aI0
aI0
aI0
aI0
aI0
aI0
aI0
aI0
aI0
aI0
aI0
aI1
aI1
aI1
aI1
aI1
aI1
aI1
aI1
aI1
aI1
aI1
aI1
aI1
aI1
aI1
aI1
aI1
aI1
aI1
aI1
aI1
aI1
aI1
aI1
aI1
aa(lp18
I0
aI0
aI1
aI0
aI0
aI1
aI0
aI0
aI0
aI0
aI0
aI0
aI1
aI-1
aI1
aI1
aI1
aI1
aI0
aI0
aI0
aI0
aI1
aI0
aI0
aI0
aI0
aI0
aI0
aI0
aI0
aI0
aI0
aI0
aI0
aI0
aI0
aI0
aI0
aI0
aI0
aI0
aI0
aI0
aI0
aI0
aI0
aI0
aI1
aI0
aI0
aI0
aI0
aI0
aI0
aI0
aI0
aI0
aI0
aI0
aI0
aI0
aI0
aI0
aI0
aI1
aI1
aI1
aI1
aI1
aI1
aI1
aI1
aI1
aI1
aI1
aI1
aI1
aI1
aI1
aI1
aI1
aI1
aI1
aI1
aI1
aI1
aI1
aI1
aI1
aa(lp19
I0
aI0
aI1
aI0
aI0
aI1
aI0
aI0
aI0
aI0
aI0
aI0
aI1
aI-1
aI-1
aI-1
aI0
aI1
aI0
aI0
aI0
aI0
aI1
aI0
aI0
aI0
aI1
aI0
aI0
aI0
aI0
aI0
aI0
aI0
aI0
aI0
aI0
aI0
aI0
aI0
aI0
aI0
aI0
aI0
aI0
aI0
aI0
aI0
aI0
aI0
aI0
aI0
aI0
aI0
aI0
aI0
aI0
aI0
aI0
aI0
aI0
aI0
aI0
aI0
aI0
aI0
aI0
aF0.5660501279322816
aF0.5762336016390824
aF0.607043828596713
aF0.5103864223005199
aF0.6052487446301636
aF0.5845182825732097
aF0.5702739089723219
aF0.5156285914792277
aF0.6731411659043034
aI1
aI1
aF0.5103864223005199
aI1
aF0.501152717616773
aF0.7043510771768892
aI1
aF0.6174869490372198
aI1
aI1
aF0.657070774851754
aF0.6483329760144455
aI1
aI1
aa(lp20
I0
aI0
aI1
aI0
aI0
aI1
aI0
aI0
aI0
aI0
aI0
aI0
aI1
aI-1
aI1
aI1
aI1
aI1
aI0
aI0
aI0
aI0
aI1
aI0
aI0
aI0
aI0
aI0
aI0
aI0
aI0
aI0
aI0
aI0
aI0
aI0
aI0
aI0
aI0
aI0
aI0
aI0
aI0
aI0
aI0
aI0
aI0
aI0
aI1
aI0
aI0
aI0
aI0
aI0
aI0
aI0
aI0
aI0
aI0
aI0
aI0
aI0
aI0
aI0
aI0
aI1
aI1
aI1
aI1
aI1
aI1
aI1
aI1
aI1
aI1
aI1
aI1
aI1
aI1
aI1
aI1
aI1
aI1
aI1
aI1
aI1
aI1
aI1
aI1
aI1
aa(lp21
I0
aI0
aI1
aI0
aI0
aI1
aI0
aI0
aI0
aI0
aI0
aI0
aI-1
aI-1
aI-1
aI-1
aI0
aI1
aI0
aI0
aI0
aI0
aI1
aI0
aI0
aI0
aI1
aI0
aI0
aI0
aI0
aI0
aI0
aI0
aI0
aI0
aI0
aI0
aI0
aI0
aI0
aI0
aI0
aI0
aI0
aI0
aI0
aI0
aI0
aI0
aI0
aI0
aI0
aI0
aI0
aI0
aI0
aI0
aI0
aI0
aI0
aI0
aI0
aI0
aI0
aI0
aI0
aF0.5660501279322816
aF0.5762336016390824
aF0.607043828596713
aF0.5103864223005199
aF0.6052487446301636
aF0.5845182825732097
aF0.5702739089723219
aF0.5156285914792277
aF0.6731411659043034
aI1
aI1
aF0.5103864223005199
aI1
aF0.501152717616773
aF0.7043510771768892
aI1
aF0.6174869490372198
aI1
aI1
aF0.657070774851754
aF0.6483329760144455
aI1
aI1
aa(lp22
tp23
sS'*'
p24
((lp25
(lp26
I1
aI0
aI0
aI0
aI0
aI1
aI0
aI0
aI0
aI0
aI0
aI0
aI-1
aI-1
aI1
aI-1
aI-1
aI-1
aI0
aI0
aI0
aI0
aI1
aI0
aI0
aI0
aI0
aI0
aI0
aI1
aI0
aI0
aI0
aI0
aI0
aI0
aI0
aI0
aI0
aI0
aI0
aI0
aI0
aI0
aI0
aI0
aI0
aI0
aI0
aI0
aI0
aI0
aI0
aI0
aI0
aI0
aI0
aI0
aI0
aI0
aI0
aI0
aI0
aI0
aI0
aF0.16552921271687415
aF0.5103864223005199
aF0.5763785548030264
aF0.5711003125832678
aF0.5
aF0.5
aF0.5939517300936757
aF0.5729717728534833
aF0.5
aF0.5050424974372756
aF0.5515819430924429
aF0.728090750079668
aF0.5917806850848999
aI0
aF0.5
aF0.5876028204815266
aF0.5962846535468412
aF0.6061479218472771
aF0.5515819430924429
aF0.5515819430924429
aF0.6224964761253446
aF0.7177485733328628
aF0.5726707012896084
aF0.5980425737457671
aF0.6196664887721092
aa(lp27
I0
aI0
aI1
aI0
aI0
aI1
aI0
aI0
aI0
aI0
aI0
aI0
aI-1
aI-1
aI-1
aI-1
aI0
aI-1
aI0
aI-1
aI0
aI0
aI1
aI0
aI0
aI0
aI0
aI0
aI1
aI0
aI0
aI0
aI0
aI0
aI0
aI0
aI0
aI0
aI0
aI0
aI0
aI0
aI0
aI0
aI0
aI0
aI0
aI0
aI0
aI0
aI0
aI0
aI0
aI0
aI0
aI0
aI0
aI0
aI0
aI0
aI0
aI0
aI0
aI0
aI0
aI0
aF0.5702739089723219
aF0.5
aF0.5800653881041513
aF0.5
aF0.5678490720113271
aF0.5152039393334513
aF0.5
aI0
aF0.6727564384497279
aF0.5406992252857851
aF0.6388140286416842
aF0.512167376530366
aF0.5
aF0.6377326489210315
aF0.5
aF0.6242745850549243
aF0.5966688280256184
aF0.5406992252857851
aF0.5288860536203928
aF0.6137966834898949
aF0.7091121634889681
aF0.583317762268188
aF0.5887538457077028
aF0.7411553680049033
aa(lp28
I0
aI0
aI1
aI0
aI0
aI1
aI0
aI0
aI0
aI0
aI0
aI0
aI-1
aI-1
aI-1
aI-1
aI0
aI-1
aI0
aI-1
aI0
aI0
aI1
aI0
aI0
aI0
aI0
aI0
aI1
aI0
aI0
aI0
aI0
aI0
aI0
aI0
aI0
aI0
aI0
aI0
aI0
aI0
aI0
aI0
aI0
aI0
aI0
aI0
aI0
aI0
aI0
aI0
aI0
aI0
aI0
aI0
aI0
aI0
aI0
aI0
aI0
aI0
aI0
aI0
aI0
aI0
aF0.5702739089723219
aF0.5
aF0.5800653881041513
aF0.5
aF0.5678490720113271
aF0.5152039393334513
aF0.5
aI0
aF0.6727564384497279
aF0.5406992252857851
aF0.6388140286416842
aF0.512167376530366
aF0.5
aF0.6377326489210315
aF0.5
aF0.6242745850549243
aF0.5966688280256184
aF0.5406992252857851
aF0.5288860536203928
aF0.6137966834898949
aF0.7091121634889681
aF0.583317762268188
aF0.5887538457077028
aF0.7411553680049033
aa(lp29
I1
aI0
aI0
aI1
aI0
aI0
aI0
aI0
aI0
aI0
aI0
aI0
aI-1
aI-1
aI-1
aI-1
aI1
aI-1
aI0
aI0
aI0
aI0
aI1
aI0
aI0
aI0
aI0
aI0
aI1
aI0
aI0
aI0
aI0
aI0
aI0
aI0
aI0
aI0
aI0
aI0
aI0
aI0
aI0
aI0
aI0
aI0
aI0
aI0
aI0
aI0
aI0
aI0
aI0
aI0
aI0
aI0
aI0
aI0
aI0
aI0
aI0
aI0
aI0
aI0
aI0
aI1
aF0.721366088658735
aF0.7004265990088713
aF0.6369150598330413
aF0.7045270498646518
aF0.6304330038522488
aF0.7377645132272918
aF0.7045270498646518
aF0.6601633738342642
aF0.706985085476174
aF0.6091275321868447
aF0.6848448269891599
aF0.5565072633988184
aF0.6401227747803205
aI1
aF0.5915213663710356
aI1
aF0.7045270498646518
aF0.6259566416828922
aF0.5279335111082228
aI1
aF0.7363730050246899
aF0.7278665425806454
aF0.709452396984755
aF0.641638693782907
aa(lp30
I1
aI0
aI0
aI0
aI1
aI0
aI0
aI0
aI0
aI0
aI0
aI0
aI-1
aI-1
aI1
aI-1
aI-1
aI-1
aI0
aI0
aI0
aI0
aI1
aI0
aI0
aI0
aI0
aI0
aI0
aI1
aI0
aI0
aI0
aI0
aI0
aI0
aI0
aI0
aI0
aI0
aI0
aI0
aI0
aI0
aI0
aI0
aI0
aI0
aI0
aI0
aI0
aI0
aI0
aI0
aI0
aI0
aI0
aI0
aI0
aI0
aI0
aI0
aI0
aI0
aI0
aF0.2509060962922141
aI0
aF0.5660501279322816
aF0.5762336016390824
aF0.607043828596713
aF0.5103864223005199
aF0.6052487446301636
aF0.5845182825732097
aF0.5702739089723219
aF0.5156285914792277
aF0.6731411659043034
aI1
aI1
aF0.5103864223005199
aI1
aF0.501152717616773
aF0.7043510771768892
aI1
aF0.6174869490372198
aI1
aI1
aF0.657070774851754
aF0.6483329760144455
aI1
aI1
aa(lp31
I0
aI0
aI1
aI0
aI0
aI1
aI0
aI0
aI0
aI0
aI0
aI0
aI-1
aI-1
aI-1
aI-1
aI0
aI-1
aI0
aI0
aI0
aI0
aI1
aI0
aI0
aI0
aI0
aI0
aI1
aI1
aI0
aI0
aI0
aI0
aI0
aI0
aI0
aI0
aI0
aI0
aI0
aI0
aI0
aI0
aI0
aI0
aI0
aI0
aI0
aI0
aI0
aI0
aI0
aI0
aI0
aI0
aI0
aI0
aI0
aI0
aI0
aI0
aI0
aI0
aI0
aI0
aF0.7043510771768892
aI1
aF0.7665741359586784
aF0.5973688621439767
aF0.67628317488964
aF0.6900610861329958
aF0.5240462374338287
aF0.6242745850549243
aI1
aF0.5902545845741275
aI1
aF0.6839762527433063
aF0.5962846535468412
aF0.6664574727306354
aF0.5211810840509955
aI0
aF0.6017842064639691
aF0.5902545845741275
aF0.691089818605029
aF0.7087281892142097
aF0.7673576618240046
aF0.6856793837685414
aF0.7371866760277586
aI1
aa(lp32
I1
aI0
aI0
aI0
aI0
aI1
aI0
aI0
aI0
aI0
aI0
aI0
aI-1
aI-1
aI-1
aI-1
aI-1
aI1
aI0
aI-1
aI0
aI0
aI1
aI0
aI0
aI1
aI0
aI0
aI0
aI0
aI0
aI0
aI0
aI0
aI0
aI0
aI0
aI0
aI0
aI0
aI0
aI0
aI0
aI0
aI0
aI0
aI0
aI0
aI0
aI0
aI0
aI0
aI0
aI0
aI0
aI0
aI0
aI0
aI0
aI0
aI0
aI0
aI0
aI0
aI0
aF0.10004296768396183
aF0.5660501279322816
aF0.5
aF0.5357430314204298
aF0.5654343853748066
aF0.657338749841547
aF0.6727381017529414
aF0.5234665435026907
aF0.5777904972740775
aF0.6913237939886325
aF0.6547956927237909
aF0.7336771055118949
aF0.6647171876899333
aF0.5757218491573359
aF0.6449312485322867
aF0.5566769735591669
aF0.6847621007541346
aI1
aF0.6547956927237909
aF0.6478828400653969
aI1
aF0.7237632689209111
aF0.7144091500329147
aF0.6940606718914806
aF0.752821150512001
aa(lp33
I0
aI1
aI0
aI0
aI1
aI0
aI0
aI0
aI0
aI0
aI0
aI0
aI-1
aI-1
aI-1
aI-1
aI0
aI-1
aI0
aI-1
aI0
aI0
aI1
aI0
aI0
aI1
aI1
aI0
aI1
aI1
aI0
aI0
aI0
aI0
aI0
aI0
aI0
aI0
aI0
aI0
aI0
aI0
aI0
aI0
aI0
aI0
aI0
aI0
aI0
aI0
aI0
aI0
aI0
aI0
aI0
aI0
aI0
aI0
aI0
aI0
aI0
aI0
aI0
aI0
aI0
aI0
aI1
aF0.6104015239158005
aF0.5987294098434556
aF0.5901866248110297
aF0.6738168682713196
aF0.6878009846846004
aF0.5750719063327238
aF0.6104015239158005
aF0.6058649959931462
aF0.5875041051177083
aF0.751633399261613
aF0.6814739607467726
aF0.5936147976837124
aF0.6636688378834652
aF0.5550537442319672
aF0.6177548482788473
aF0.6547362269230542
aF0.5875041051177083
aF0.5968167610434455
aI1
aF0.7430329229123609
aF0.7349574060515182
aF0.7175211196958381
aF0.7683640579396184
aa(lp34
I1
aI0
aI0
aI0
aI0
aI1
aI0
aI0
aI0
aI0
aI0
aI0
aI-1
aI-1
aI1
aI-1
aI-1
aI-1
aI0
aI-1
aI0
aI0
aI1
aI0
aI0
aI1
aI0
aI0
aI1
aI1
aI0
aI0
aI0
aI0
aI0
aI0
aI0
aI0
aI0
aI0
aI0
aI0
aI0
aI0
aI0
aI0
aI0
aI0
aI0
aI0
aI0
aI0
aI0
aI0
aI0
aI0
aI0
aI0
aI0
aI0
aI0
aI0
aI0
aI0
aI0
aF0.10004296768396183
aF0.5660501279322816
aF0.5
aF0.5357430314204298
aF0.5654343853748066
aF0.657338749841547
aF0.6727381017529414
aF0.5234665435026907
aF0.5777904972740775
aF0.6913237939886325
aF0.6547956927237909
aF0.7336771055118949
aF0.6647171876899333
aF0.5757218491573359
aF0.6449312485322867
aF0.5566769735591669
aF0.6847621007541346
aI1
aF0.6547956927237909
aF0.6478828400653969
aI1
aF0.7237632689209111
aF0.7144091500329147
aF0.6940606718914806
aF0.752821150512001
aa(lp35
I1
aI0
aI0
aI0
aI0
aI1
aI0
aI0
aI0
aI0
aI0
aI0
aI-1
aI-1
aI1
aI-1
aI-1
aI-1
aI0
aI0
aI0
aI0
aI1
aI0
aI0
aI1
aI0
aI0
aI1
aI1
aI0
aI0
aI0
aI0
aI0
aI0
aI0
aI0
aI0
aI0
aI0
aI0
aI0
aI0
aI0
aI0
aI0
aI0
aI0
aI0
aI0
aI0
aI0
aI0
aI0
aI0
aI0
aI0
aI0
aI0
aI0
aI0
aI0
aI0
aI0
aF0.10004296768396183
aF0.5660501279322816
aF0.5
aF0.5357430314204298
aF0.5654343853748066
aF0.657338749841547
aF0.6727381017529414
aF0.5234665435026907
aF0.5777904972740775
aF0.6913237939886325
aF0.6547956927237909
aF0.7336771055118949
aF0.6647171876899333
aF0.5757218491573359
aF0.6449312485322867
aF0.5566769735591669
aF0.6847621007541346
aI1
aF0.6547956927237909
aF0.6478828400653969
aI1
aF0.7237632689209111
aF0.7144091500329147
aF0.6940606718914806
aF0.752821150512001
aa(lp36
I0
aI1
aI0
aI0
aI1
aI0
aI0
aI0
aI0
aI0
aI0
aI0
aI-1
aI-1
aI-1
aI-1
aI0
aI-1
aI0
aI-1
aI0
aI0
aI1
aI0
aI0
aI0
aI0
aI0
aI1
aI0
aI0
aI0
aI0
aI0
aI0
aI0
aI0
aI0
aI0
aI0
aI0
aI0
aI0
aI0
aI0
aI0
aI0
aI0
aI0
aI0
aI0
aI0
aI0
aI0
aI0
aI0
aI0
aI0
aI0
aI0
aI0
aI0
aI0
aI0
aI0
aF0.146869781303635
aF0.5762336016390824
aF0.5061229086265145
aI0
aF0.6563774155260674
aF0.5080729429727653
aF0.7332963591813154
aF0.5
aF0.5800653881041513
aF0.6708251587782617
aF0.7440703640152792
aF0.6088965640031552
aF0.6136949805920936
aF0.5711003125832678
aI1
aF0.5309912748691271
aF0.7665741359586784
aF0.6287144201715433
aF0.7470705179172012
aF0.5591789068123963
aI1
aF0.7380607346989156
aF0.7407774212005223
aF0.7091758353614844
aF0.6160819249192172
aa(lp37
I0
aI0
aI1
aI0
aI1
aI0
aI0
aI0
aI0
aI0
aI0
aI0
aI-1
aI-1
aI-1
aI-1
aI-1
aI-1
aI0
aI-1
aI0
aI0
aI1
aI0
aI0
aI1
aI0
aI0
aI1
aI1
aI0
aI0
aI0
aI0
aI0
aI0
aI0
aI0
aI0
aI0
aI0
aI0
aI0
aI0
aI0
aI0
aI0
aI0
aI0
aI0
aI0
aI0
aI0
aI0
aI0
aI0
aI0
aI0
aI0
aI0
aI0
aI0
aI0
aI0
aI0
aI1
aI1
aI1
aI1
aI1
aI1
aI1
aI1
aI1
aI1
aI1
aI1
aI1
aI1
aI1
aI1
aI1
aI1
aI1
aI1
aI1
aI1
aI1
aI1
aI1
aa(lp38
I0
aI1
aI0
aI0
aI0
aI1
aI0
aI0
aI0
aI0
aI0
aI0
aI-1
aI-1
aI-1
aI-1
aI0
aI-1
aI0
aI-1
aI0
aI0
aI1
aI0
aI0
aI0
aI0
aI0
aI1
aI1
aI0
aI0
aI0
aI0
aI0
aI0
aI0
aI0
aI0
aI0
aI0
aI0
aI0
aI0
aI0
aI0
aI0
aI0
aI0
aI0
aI0
aI0
aI0
aI0
aI0
aI0
aI0
aI0
aI0
aI0
aI0
aI0
aI0
aI0
aI0
aI0
aI0
aF0.5660501279322816
aF0.5762336016390824
aF0.607043828596713
aF0.5103864223005199
aF0.6052487446301636
aF0.5845182825732097
aF0.5702739089723219
aF0.5156285914792277
aF0.6731411659043034
aI1
aI1
aF0.5103864223005199
aI1
aF0.501152717616773
aF0.7043510771768892
aI1
aF0.6174869490372198
aI1
aI1
aF0.657070774851754
aF0.6483329760144455
aI1
aI1
aa(lp39
I1
aI0
aI0
aI0
aI0
aI1
aI0
aI0
aI0
aI0
aI0
aI0
aI-1
aI-1
aI1
aI-1
aI-1
aI-1
aI0
aI-1
aI0
aI0
aI1
aI0
aI0
aI1
aI0
aI0
aI1
aI1
aI0
aI0
aI0
aI0
aI0
aI0
aI0
aI0
aI0
aI0
aI0
aI0
aI0
aI0
aI0
aI0
aI0
aI0
aI0
aI0
aI0
aI0
aI0
aI0
aI0
aI0
aI0
aI0
aI0
aI0
aI0
aI0
aI0
aI0
aI0
aF0.10004296768396183
aF0.5660501279322816
aF0.5
aF0.5357430314204298
aF0.5654343853748066
aF0.657338749841547
aF0.6727381017529414
aF0.5234665435026907
aF0.5777904972740775
aF0.6913237939886325
aF0.6547956927237909
aF0.7336771055118949
aF0.6647171876899333
aF0.5757218491573359
aF0.6449312485322867
aF0.5566769735591669
aF0.6847621007541346
aI1
aF0.6547956927237909
aF0.6478828400653969
aI1
aF0.7237632689209111
aF0.7144091500329147
aF0.6940606718914806
aF0.752821150512001
aa(lp40
I0
aI0
aI1
aI0
aI1
aI0
aI0
aI0
aI0
aI0
aI0
aI0
aI-1
aI-1
aI-1
aI-1
aI0
aI-1
aI0
aI0
aI0
aI0
aI1
aI0
aI0
aI1
aI1
aI0
aI1
aI1
aI1
aI1
aI0
aI0
aI0
aI0
aI0
aI0
aI0
aI0
aI0
aI0
aI0
aI0
aI0
aI0
aI0
aI0
aI0
aI0
aI0
aI0
aI0
aI0
aI0
aI0
aI0
aI0
aI0
aI0
aI0
aI0
aI0
aI0
aI0
aI0
aF0.706347094572752
aI1
aF0.7352641231468
aF0.715121085564038
aF0.7007276010174428
aF0.7514609148994265
aF0.715121085564038
aF0.5855874845149507
aF0.698061356293887
aF0.6544205035984283
aF0.7672453936705266
aF0.6863947109148838
aF0.581218931327998
aI1
aF0.6900353128503088
aF0.6873961082711569
aF0.6154117379371226
aF0.6978258001664364
aF0.6978258001664364
aF0.6310155010708383
aI1
aF0.6032913403996067
aF0.723240238612906
aF0.7673721198632906
aa(lp41
I0
aI1
aI0
aI0
aI0
aI1
aI0
aI0
aI0
aI0
aI0
aI0
aI-1
aI-1
aI-1
aI-1
aI0
aI-1
aI0
aI0
aI0
aI0
aI1
aI0
aI0
aI0
aI0
aI0
aI1
aI1
aI0
aI0
aI0
aI0
aI0
aI0
aI0
aI0
aI0
aI0
aI0
aI0
aI0
aI0
aI0
aI0
aI0
aI0
aI0
aI0
aI0
aI0
aI0
aI0
aI0
aI0
aI0
aI0
aI0
aI0
aI0
aI0
aI0
aI0
aI0
aI0
aI1
aF0.7573546050522342
aI1
aF0.7445272745276506
aF0.7725694296131688
aI1
aF0.7414002510338914
aF0.7414002510338914
aI1
aI1
aI1
aF0.7161591609019495
aI1
aI1
aI1
aI1
aF0.7811176650007038
aF0.7787685614178466
aF0.7529269883253762
aI1
aI1
aF0.7738226622912612
aI1
aI1
aa(lp42
I1
aI0
aI0
aI0
aI1
aI0
aI0
aI0
aI0
aI0
aI0
aI0
aI-1
aI-1
aI1
aI-1
aI-1
aI-1
aI0
aI0
aI0
aI0
aI1
aI0
aI0
aI0
aI1
aI0
aI1
aI1
aI0
aI0
aI0
aI0
aI0
aI0
aI0
aI0
aI0
aI0
aI0
aI0
aI0
aI0
aI0
aI0
aI0
aI0
aI0
aI0
aI0
aI0
aI0
aI0
aI0
aI0
aI0
aI0
aI0
aI0
aI0
aI0
aI0
aI0
aI0
aF0.6264764452700349
aI1
aI1
aF0.5942770435825249
aI1
aI1
aI1
aI1
aI1
aI1
aI1
aI1
aI1
aI1
aI1
aF0.5698143925073594
aI1
aI1
aI1
aF0.5923216116494828
aI1
aI1
aI1
aI1
aI1
aa(lp43
I1
aI0
aI0
aI0
aI0
aI1
aI0
aI0
aI0
aI0
aI0
aI0
aI-1
aI-1
aI1
aI-1
aI-1
aI-1
aI0
aI-1
aI0
aI0
aI1
aI0
aI0
aI1
aI0
aI0
aI1
aI1
aI0
aI0
aI0
aI0
aI0
aI0
aI0
aI0
aI0
aI0
aI0
aI0
aI0
aI0
aI0
aI0
aI0
aI0
aI0
aI0
aI0
aI0
aI0
aI0
aI0
aI0
aI0
aI0
aI0
aI0
aI0
aI0
aI0
aI0
aI0
aF0.10004296768396183
aF0.5660501279322816
aF0.5
aF0.5357430314204298
aF0.5654343853748066
aF0.657338749841547
aF0.6727381017529414
aF0.5234665435026907
aF0.5777904972740775
aF0.6913237939886325
aF0.6547956927237909
aF0.7336771055118949
aF0.6647171876899333
aF0.5757218491573359
aF0.6449312485322867
aF0.5566769735591669
aF0.6847621007541346
aI1
aF0.6547956927237909
aF0.6478828400653969
aI1
aF0.7237632689209111
aF0.7144091500329147
aF0.6940606718914806
aF0.752821150512001
aa(lp44
I1
aI0
aI0
aI0
aI0
aI1
aI0
aI0
aI0
aI0
aI0
aI0
aI-1
aI-1
aI1
aI-1
aI-1
aI-1
aI0
aI-1
aI0
aI0
aI1
aI0
aI0
aI1
aI0
aI0
aI1
aI1
aI0
aI0
aI0
aI0
aI0
aI0
aI0
aI0
aI0
aI0
aI0
aI0
aI0
aI0
aI0
aI0
aI0
aI0
aI0
aI0
aI0
aI0
aI0
aI0
aI0
aI0
aI0
aI0
aI0
aI0
aI0
aI0
aI0
aI0
aI0
aF0.15779967308059284
aI0
aF0.5660501279322816
aF0.5762336016390824
aI0
aF0.5103864223005199
aF0.5233456403081337
aF0.5
aF0.5
aF0.5156285914792277
aF0.6731411659043034
aF0.70838596586038
aF0.5692517375501781
aF0.5
aI1
aF0.5
aF0.5973688621439767
aF0.5
aF0.5811526154815995
aF0.611137966799573
aI1
aF0.657070774851754
aF0.6483329760144455
aF0.6846835705702682
aF0.7085848622356106
aa(lp45
I0
aI1
aI0
aI0
aI0
aI1
aI0
aI0
aI0
aI0
aI0
aI0
aI-1
aI-1
aI-1
aI-1
aI0
aI-1
aI0
aI-1
aI0
aI0
aI1
aI0
aI0
aI0
aI0
aI0
aI1
aI1
aI0
aI0
aI0
aI0
aI0
aI0
aI0
aI0
aI0
aI0
aI0
aI0
aI0
aI0
aI0
aI0
aI0
aI0
aI0
aI0
aI0
aI0
aI0
aI0
aI0
aI0
aI0
aI0
aI0
aI0
aI0
aI0
aI0
aI0
aI0
aI0
aI1
aI1
aF0.5942770435825249
aI1
aI1
aI1
aI1
aI1
aI1
aI1
aI1
aI1
aI1
aI1
aF0.5698143925073594
aI1
aI1
aI1
aF0.5923216116494828
aI1
aI1
aI1
aI1
aI1
aa(lp46
I0
aI1
aI0
aI1
aI0
aI0
aI0
aI0
aI0
aI0
aI0
aI0
aI-1
aI-1
aI-1
aI-1
aI-1
aI-1
aI0
aI-1
aI0
aI0
aI1
aI0
aI0
aI0
aI1
aI0
aI1
aI1
aI0
aI0
aI0
aI0
aI0
aI0
aI0
aI0
aI0
aI0
aI0
aI0
aI0
aI0
aI0
aI0
aI0
aI0
aI0
aI0
aI0
aI0
aI0
aI0
aI0
aI0
aI0
aI0
aI0
aI0
aI0
aI0
aI0
aI0
aI0
aF0.09915303107686972
aF0.5660501279322816
aF0.5
aF0.5573136545024441
aF0.7384524672116186
aF0.6715184734345465
aF0.6856960747265942
aF0.6045273671216247
aF0.6636710976190753
aF0.55866543967563
aF0.6654066786262569
aI1
aF0.6791406917939296
aF0.5915279059953816
aF0.6610663602759543
aF0.6005614125285241
aF0.6964130398111972
aF0.6896353392651068
aF0.6691822484205258
aF0.6867539380107647
aF0.7031032848857516
aF0.7616003669075565
aF0.6791190167156169
aF0.7316921565541736
aI1
aa(lp47
I0
aI1
aI0
aI0
aI0
aI1
aI0
aI0
aI0
aI0
aI0
aI0
aI-1
aI-1
aI-1
aI-1
aI0
aI-1
aI0
aI0
aI0
aI0
aI1
aI0
aI0
aI0
aI0
aI0
aI1
aI1
aI0
aI0
aI0
aI0
aI0
aI0
aI0
aI0
aI0
aI0
aI0
aI0
aI0
aI0
aI0
aI0
aI0
aI0
aI0
aI0
aI0
aI0
aI0
aI0
aI0
aI0
aI0
aI0
aI0
aI0
aI0
aI0
aI0
aI0
aI0
aI0
aI1
aI1
aF0.5942770435825249
aI1
aI1
aI1
aI1
aI1
aI1
aI1
aI1
aI1
aI1
aI1
aF0.5698143925073594
aI1
aI1
aI1
aF0.5923216116494828
aI1
aI1
aI1
aI1
aI1
aa(lp48
I1
aI0
aI0
aI0
aI1
aI0
aI0
aI0
aI0
aI0
aI0
aI0
aI-1
aI-1
aI1
aI-1
aI-1
aI-1
aI0
aI0
aI0
aI0
aI1
aI0
aI0
aI0
aI0
aI0
aI0
aI1
aI0
aI0
aI0
aI0
aI0
aI0
aI0
aI0
aI0
aI0
aI0
aI0
aI0
aI0
aI0
aI0
aI0
aI0
aI0
aI0
aI0
aI0
aI0
aI0
aI0
aI0
aI0
aI0
aI0
aI0
aI0
aI0
aI0
aI0
aI0
aF0.21308295792439963
aI0
aF0.5660501279322816
aF0.5762336016390824
aF0.607043828596713
aF0.5103864223005199
aF0.6052487446301636
aF0.5845182825732097
aF0.5702739089723219
aF0.5156285914792277
aF0.6731411659043034
aI1
aI1
aF0.5103864223005199
aI1
aF0.501152717616773
aF0.7043510771768892
aI1
aF0.6174869490372198
aI1
aI1
aF0.657070774851754
aF0.6483329760144455
aI1
aI1
aa(lp49
I0
aI0
aI1
aI0
aI1
aI0
aI0
aI0
aI0
aI0
aI0
aI0
aI-1
aI-1
aI-1
aI-1
aI0
aI-1
aI0
aI0
aI0
aI0
aI1
aI0
aI0
aI1
aI0
aI0
aI1
aI1
aI1
aI1
aI0
aI0
aI0
aI0
aI0
aI0
aI0
aI0
aI0
aI0
aI0
aI0
aI0
aI0
aI0
aI0
aI0
aI0
aI0
aI0
aI0
aI0
aI0
aI0
aI0
aI0
aI0
aI0
aI0
aI0
aI0
aI0
aI0
aI0
aI0
aF0.5660501279322816
aF0.5762336016390824
aI0
aF0.5103864223005199
aF0.5233456403081337
aF0.5
aF0.5
aF0.5156285914792277
aF0.6731411659043034
aF0.70838596586038
aF0.5692517375501781
aF0.5
aI1
aF0.5
aF0.5973688621439767
aF0.5
aF0.5811526154815995
aF0.611137966799573
aI1
aF0.657070774851754
aF0.6483329760144455
aF0.6846835705702682
aF0.7085848622356106
aa(lp50
I0
aI1
aI0
aI0
aI1
aI0
aI0
aI0
aI0
aI0
aI0
aI0
aI-1
aI-1
aI-1
aI-1
aI0
aI-1
aI0
aI-1
aI0
aI0
aI1
aI0
aI0
aI0
aI0
aI0
aI0
aI1
aI0
aI0
aI0
aI0
aI0
aI0
aI0
aI0
aI0
aI0
aI0
aI0
aI0
aI0
aI0
aI0
aI0
aI0
aI0
aI0
aI0
aI0
aI0
aI0
aI0
aI0
aI0
aI0
aI0
aI0
aI0
aI0
aI0
aI0
aI0
aI0
aI0
aF0.5660501279322816
aF0.5762336016390824
aF0.607043828596713
aF0.5103864223005199
aF0.6052487446301636
aF0.5845182825732097
aF0.5702739089723219
aF0.5156285914792277
aF0.6731411659043034
aI1
aI1
aF0.5103864223005199
aI1
aF0.501152717616773
aF0.7043510771768892
aI1
aF0.6174869490372198
aI1
aI1
aF0.657070774851754
aF0.6483329760144455
aI1
aI1
aa(lp51
I1
aI0
aI0
aI0
aI1
aI0
aI0
aI0
aI0
aI0
aI0
aI0
aI-1
aI-1
aI1
aI-1
aI-1
aI-1
aI0
aI-1
aI0
aI0
aI1
aI0
aI0
aI1
aI0
aI0
aI1
aI1
aI0
aI0
aI0
aI0
aI0
aI0
aI0
aI0
aI0
aI0
aI0
aI0
aI0
aI0
aI0
aI0
aI0
aI0
aI0
aI0
aI0
aI0
aI0
aI0
aI0
aI0
aI0
aI0
aI0
aI0
aI0
aI0
aI0
aI0
aI0
aF0.10004296768396183
aF0.5660501279322816
aF0.5
aF0.5357430314204298
aF0.5654343853748066
aF0.657338749841547
aF0.6727381017529414
aF0.5234665435026907
aF0.5777904972740775
aF0.6913237939886325
aF0.6547956927237909
aF0.7336771055118949
aF0.6647171876899333
aF0.5757218491573359
aF0.6449312485322867
aF0.5566769735591669
aF0.6847621007541346
aI1
aF0.6547956927237909
aF0.6478828400653969
aI1
aF0.7237632689209111
aF0.7144091500329147
aF0.6940606718914806
aF0.752821150512001
aa(lp52
I0
aI1
aI0
aI0
aI0
aI1
aI0
aI0
aI0
aI0
aI0
aI0
aI-1
aI-1
aI-1
aI-1
aI0
aI-1
aI0
aI0
aI0
aI0
aI1
aI0
aI0
aI0
aI0
aI0
aI1
aI1
aI0
aI0
aI0
aI0
aI0
aI0
aI0
aI0
aI0
aI0
aI0
aI0
aI0
aI0
aI0
aI0
aI0
aI0
aI0
aI0
aI0
aI0
aI0
aI0
aI0
aI0
aI0
aI0
aI0
aI0
aI0
aI0
aI0
aI0
aI0
aI0
aI1
aI1
aF0.5942770435825249
aI1
aI1
aI1
aI1
aI1
aI1
aI1
aI1
aI1
aI1
aI1
aF0.5698143925073594
aI1
aI1
aI1
aF0.5923216116494828
aI1
aI1
aI1
aI1
aI1
aa(lp53
I0
aI1
aI0
aI0
aI0
aI1
aI0
aI0
aI0
aI0
aI0
aI0
aI-1
aI-1
aI-1
aI-1
aI0
aI-1
aI0
aI0
aI0
aI0
aI1
aI0
aI0
aI1
aI0
aI0
aI0
aI1
aI0
aI0
aI0
aI0
aI0
aI0
aI0
aI0
aI0
aI0
aI0
aI0
aI0
aI0
aI0
aI0
aI0
aI0
aI0
aI0
aI0
aI0
aI0
aI0
aI0
aI0
aI0
aI0
aI0
aI0
aI0
aI0
aI0
aI0
aI0
aI1
aI1
aI1
aI1
aF0.5883155170236446
aI1
aF0.5607967185938866
aI1
aI1
aI1
aI1
aI1
aI1
aI1
aI1
aF0.5737178469184896
aI1
aI1
aI1
aI1
aI1
aI1
aI1
aI1
aI1
aa(lp54
I0
aI1
aI0
aI0
aI0
aI1
aI0
aI0
aI0
aI0
aI0
aI0
aI-1
aI-1
aI-1
aI-1
aI0
aI-1
aI0
aI0
aI0
aI0
aI1
aI0
aI0
aI0
aI0
aI0
aI1
aI1
aI0
aI0
aI0
aI0
aI0
aI0
aI0
aI0
aI0
aI0
aI0
aI0
aI0
aI0
aI0
aI0
aI0
aI0
aI0
aI0
aI0
aI0
aI0
aI0
aI0
aI0
aI0
aI0
aI0
aI0
aI0
aI0
aI0
aI0
aI0
aI0
aI0
aF0.5660501279322816
aF0.5762336016390824
aF0.607043828596713
aF0.5103864223005199
aF0.6052487446301636
aF0.5845182825732097
aF0.5702739089723219
aF0.5156285914792277
aF0.6731411659043034
aI1
aI1
aF0.5103864223005199
aI1
aF0.501152717616773
aF0.7043510771768892
aI1
aF0.6174869490372198
aI1
aI1
aF0.657070774851754
aF0.6483329760144455
aI1
aI1
aa(lp55
I0
aI0
aI1
aI0
aI0
aI1
aI0
aI0
aI0
aI0
aI0
aI0
aI-1
aI-1
aI-1
aI-1
aI0
aI-1
aI0
aI0
aI0
aI0
aI1
aI0
aI0
aI1
aI0
aI0
aI1
aI1
aI0
aI0
aI0
aI0
aI0
aI0
aI0
aI0
aI0
aI0
aI0
aI0
aI0
aI0
aI0
aI0
aI0
aI0
aI0
aI0
aI0
aI0
aI0
aI0
aI0
aI0
aI0
aI0
aI0
aI0
aI0
aI0
aI0
aI0
aI0
aI0
aF0.5845182825732097
aF0.5477824374913982
aF0.5
aF0.5
aF0.5296721231718472
aF0.7060216493045898
aI0
aF0.5
aF0.5912981335583106
aF0.644652558746943
aF0.5514303052072106
aF0.5692517375501781
aF0.5729717728534833
aI1
aF0.5
aF0.5240462374338287
aF0.5
aF0.644652558746943
aF0.644652558746943
aI1
aF0.7063995534994241
aF0.6915566880665449
aF0.672617169030399
aF0.7085848622356106
aa(lp56
I0
aI0
aI1
aI0
aI1
aI0
aI0
aI0
aI0
aI0
aI0
aI0
aI-1
aI-1
aI-1
aI-1
aI0
aI-1
aI0
aI0
aI0
aI0
aI1
aI0
aI0
aI1
aI0
aI0
aI1
aI1
aI1
aI1
aI0
aI0
aI0
aI0
aI0
aI0
aI0
aI0
aI0
aI0
aI0
aI0
aI0
aI0
aI0
aI0
aI0
aI0
aI0
aI0
aI0
aI0
aI0
aI0
aI0
aI0
aI0
aI0
aI0
aI0
aI0
aI0
aI0
aI0
aI0
aF0.5660501279322816
aF0.5762336016390824
aI0
aF0.5103864223005199
aF0.5233456403081337
aF0.5
aF0.5
aF0.5156285914792277
aF0.6731411659043034
aF0.70838596586038
aF0.5692517375501781
aF0.5
aI1
aF0.5
aF0.5973688621439767
aF0.5
aF0.5811526154815995
aF0.611137966799573
aI1
aF0.657070774851754
aF0.6483329760144455
aF0.6846835705702682
aF0.7085848622356106
aa(lp57
I1
aI0
aI0
aI0
aI1
aI0
aI0
aI0
aI0
aI0
aI0
aI0
aI-1
aI-1
aI-1
aI-1
aI-1
aI-1
aI0
aI0
aI0
aI0
aI1
aI0
aI0
aI1
aI1
aI0
aI1
aI1
aI0
aI0
aI0
aI0
aI0
aI0
aI0
aI0
aI0
aI0
aI0
aI0
aI0
aI0
aI0
aI0
aI0
aI0
aI0
aI0
aI0
aI0
aI0
aI0
aI0
aI0
aI0
aI0
aI0
aI0
aI0
aI0
aI0
aI0
aI0
aF0.0997082012218552
aI1
aF0.6762506775837269
aF0.6287144201715433
aF0.5
aF0.6886345699919708
aI1
aF0.5
aF0.5966688280256184
aI1
aF0.6646337448295041
aF0.70838596586038
aF0.5692517375501781
aF0.6061479218472771
aI1
aF0.5200612429987673
aF0.6017842064639691
aI0
aF0.7071671807828336
aF0.7038404927512233
aF0.639826351396688
aI1
aF0.5555682321074484
aF0.6846835705702682
aF0.7085848622356106
aa(lp58
I0
aI1
aI0
aI1
aI0
aI0
aI0
aI0
aI0
aI0
aI0
aI0
aI-1
aI-1
aI-1
aI-1
aI-1
aI-1
aI-1
aI-1
aI0
aI0
aI1
aI0
aI0
aI0
aI1
aI0
aI1
aI1
aI0
aI0
aI0
aI0
aI0
aI0
aI0
aI0
aI0
aI0
aI0
aI0
aI0
aI0
aI0
aI0
aI0
aI0
aI0
aI0
aI0
aI0
aI0
aI0
aI0
aI0
aI0
aI0
aI0
aI0
aI0
aI0
aI0
aI0
aI0
aF0.09915303107686972
aF0.5660501279322816
aF0.5
aF0.5573136545024441
aF0.7384524672116186
aF0.6715184734345465
aF0.6856960747265942
aF0.6045273671216247
aF0.6636710976190753
aF0.55866543967563
aF0.6654066786262569
aI1
aF0.6791406917939296
aF0.5915279059953816
aF0.6610663602759543
aF0.6005614125285241
aF0.6964130398111972
aF0.6896353392651068
aF0.6691822484205258
aF0.6867539380107647
aF0.7031032848857516
aF0.7616003669075565
aF0.6791190167156169
aF0.7316921565541736
aI1
aa(lp59
I0
aI0
aI1
aI0
aI1
aI0
aI0
aI0
aI0
aI0
aI0
aI0
aI-1
aI-1
aI-1
aI-1
aI0
aI-1
aI0
aI0
aI0
aI0
aI1
aI0
aI0
aI1
aI0
aI0
aI1
aI1
aI0
aI0
aI0
aI0
aI0
aI0
aI0
aI0
aI0
aI0
aI0
aI0
aI0
aI0
aI0
aI0
aI0
aI0
aI0
aI0
aI0
aI0
aI0
aI0
aI0
aI0
aI0
aI0
aI0
aI0
aI0
aI0
aI0
aI0
aI0
aI0
aF0.607043828596713
aF0.6267217208682151
aF0.6563774155260674
aI0
aF0.5577734713497952
aF0.5233456403081337
aF0.5
aF0.5
aF0.617245385686066
aF0.6876465059093766
aF0.70838596586038
aF0.5692517375501781
aF0.5
aI1
aF0.5
aF0.5973688621439767
aF0.5
aF0.5811526154815995
aF0.611137966799573
aI1
aF0.7110550340917559
aF0.6959949674278685
aF0.6846835705702682
aF0.7085848622356106
aa(lp60
I1
aI0
aI0
aI0
aI1
aI0
aI0
aI0
aI0
aI0
aI0
aI0
aI-1
aI-1
aI1
aI-1
aI-1
aI-1
aI0
aI0
aI0
aI0
aI1
aI0
aI0
aI0
aI0
aI0
aI0
aI1
aI0
aI0
aI0
aI0
aI0
aI0
aI0
aI0
aI0
aI0
aI0
aI0
aI0
aI0
aI0
aI0
aI0
aI0
aI0
aI0
aI0
aI0
aI0
aI0
aI0
aI0
aI0
aI0
aI0
aI0
aI0
aI0
aI0
aI0
aI0
aF0.26317136141364156
aI0
aF0.5660501279322816
aF0.5762336016390824
aF0.607043828596713
aF0.5103864223005199
aF0.6052487446301636
aF0.5845182825732097
aF0.5702739089723219
aF0.5156285914792277
aF0.6731411659043034
aI1
aI1
aF0.5103864223005199
aI1
aF0.501152717616773
aF0.7043510771768892
aI1
aF0.6174869490372198
aI1
aI1
aF0.657070774851754
aF0.6483329760144455
aI1
aI1
aa(lp61
I0
aI1
aI0
aI0
aI0
aI1
aI0
aI0
aI0
aI0
aI0
aI0
aI-1
aI-1
aI-1
aI-1
aI0
aI-1
aI0
aI-1
aI0
aI0
aI1
aI0
aI0
aI0
aI0
aI0
aI1
aI1
aI0
aI0
aI0
aI0
aI0
aI0
aI0
aI0
aI0
aI0
aI0
aI0
aI0
aI0
aI0
aI0
aI0
aI0
aI0
aI0
aI0
aI0
aI0
aI0
aI0
aI0
aI0
aI0
aI0
aI0
aI0
aI0
aI0
aI0
aI0
aI0
aI0
aF0.5660501279322816
aF0.5762336016390824
aF0.607043828596713
aF0.5103864223005199
aF0.6052487446301636
aF0.5845182825732097
aF0.5702739089723219
aF0.5156285914792277
aF0.6731411659043034
aI1
aI1
aF0.5103864223005199
aI1
aF0.501152717616773
aF0.7043510771768892
aI1
aF0.6174869490372198
aI1
aI1
aF0.657070774851754
aF0.6483329760144455
aI1
aI1
aa(lp62
I0
aI1
aI0
aI1
aI0
aI0
aI0
aI0
aI0
aI0
aI0
aI0
aI-1
aI-1
aI-1
aI-1
aI-1
aI-1
aI0
aI0
aI0
aI0
aI1
aI0
aI0
aI0
aI0
aI0
aI0
aI1
aI0
aI0
aI0
aI0
aI0
aI0
aI0
aI0
aI0
aI0
aI0
aI0
aI0
aI0
aI0
aI0
aI0
aI0
aI0
aI0
aI0
aI0
aI0
aI0
aI0
aI0
aI0
aI0
aI0
aI0
aI0
aI0
aI0
aI0
aI0
aI1
aF0.5660501279322816
aF0.5
aF0.5061229086265145
aF0.6267217208682151
aF0.6603989117385534
aF0.6621964353968365
aF0.5477824374913982
aF0.5
aI1
aF0.6777375993395076
aI1
aF0.6151091496340397
aF0.5763785548030264
aI1
aF0.639871692554306
aI1
aF0.6762506775837269
aF0.6951349776953565
aF0.5
aI1
aI1
aF0.5798676341400274
aI1
aI1
aa(lp63
I0
aI0
aI1
aI0
aI0
aI1
aI0
aI0
aI0
aI0
aI0
aI0
aI-1
aI-1
aI-1
aI-1
aI0
aI-1
aI0
aI0
aI0
aI0
aI1
aI0
aI0
aI1
aI0
aI0
aI1
aI1
aI0
aI0
aI0
aI0
aI0
aI0
aI0
aI0
aI0
aI0
aI0
aI0
aI0
aI0
aI0
aI0
aI0
aI0
aI0
aI0
aI0
aI0
aI0
aI0
aI0
aI0
aI0
aI0
aI0
aI0
aI0
aI0
aI0
aI0
aI0
aI0
aF0.5845182825732097
aF0.5477824374913982
aF0.5
aF0.5
aF0.5296721231718472
aF0.7060216493045898
aI0
aF0.5
aF0.5912981335583106
aF0.644652558746943
aF0.5514303052072106
aF0.5692517375501781
aF0.5729717728534833
aI1
aF0.5
aF0.5240462374338287
aF0.5
aF0.644652558746943
aF0.644652558746943
aI1
aF0.7063995534994241
aF0.6915566880665449
aF0.672617169030399
aF0.7085848622356106
aa(lp64
I0
aI1
aI0
aI0
aI0
aI1
aI0
aI0
aI0
aI0
aI0
aI0
aI-1
aI-1
aI-1
aI-1
aI0
aI-1
aI0
aI0
aI0
aI0
aI1
aI0
aI0
aI0
aI0
aI0
aI1
aI1
aI0
aI0
aI0
aI0
aI0
aI0
aI0
aI0
aI0
aI0
aI0
aI0
aI0
aI0
aI0
aI0
aI0
aI0
aI0
aI0
aI0
aI0
aI0
aI0
aI0
aI0
aI0
aI0
aI0
aI0
aI0
aI0
aI0
aI0
aI0
aI0
aI0
aF0.5660501279322816
aF0.5762336016390824
aF0.607043828596713
aF0.5103864223005199
aF0.6052487446301636
aF0.5845182825732097
aF0.5702739089723219
aF0.5156285914792277
aF0.6731411659043034
aI1
aI1
aF0.5103864223005199
aI1
aF0.501152717616773
aF0.7043510771768892
aI1
aF0.6174869490372198
aI1
aI1
aF0.657070774851754
aF0.6483329760144455
aI1
aI1
aa(lp65
I0
aI1
aI0
aI1
aI0
aI0
aI0
aI0
aI0
aI0
aI0
aI0
aI-1
aI-1
aI-1
aI-1
aI-1
aI-1
aI0
aI0
aI0
aI0
aI1
aI0
aI0
aI0
aI0
aI0
aI1
aI0
aI0
aI0
aI0
aI0
aI0
aI0
aI0
aI0
aI0
aI0
aI0
aI0
aI0
aI0
aI0
aI0
aI0
aI0
aI0
aI0
aI0
aI0
aI0
aI0
aI0
aI0
aI0
aI0
aI0
aI0
aI0
aI0
aI0
aI0
aI0
aF0.0924292260381608
aF0.67993465155383
aI1
aF0.7400451542410373
aF0.6125095177275185
aF0.5797773118629872
aF0.6806964509345699
aF0.6125095177275185
aF0.5569000808886923
aF0.6727564384497279
aF0.6624799281365624
aI1
aF0.512167376530366
aF0.5701237668734789
aF0.6377326489210315
aF0.7498778746060276
aF0.6928612906651956
aI1
aF0.6624799281365624
aF0.6818580915180469
aI1
aF0.7525007054853318
aF0.7370172453095565
aI1
aI1
aa(lp66
I1
aI0
aI0
aI0
aI0
aI1
aI0
aI0
aI0
aI0
aI0
aI0
aI-1
aI-1
aI1
aI-1
aI-1
aI-1
aI0
aI-1
aI0
aI0
aI1
aI0
aI0
aI1
aI0
aI0
aI1
aI1
aI0
aI0
aI0
aI0
aI0
aI0
aI0
aI0
aI0
aI0
aI0
aI0
aI0
aI0
aI0
aI0
aI0
aI0
aI0
aI0
aI0
aI0
aI0
aI0
aI0
aI0
aI0
aI0
aI0
aI0
aI0
aI0
aI0
aI0
aI0
aF0.15779967308059284
aI0
aF0.5660501279322816
aF0.5762336016390824
aI0
aF0.5103864223005199
aF0.5233456403081337
aF0.5
aF0.5
aF0.5156285914792277
aF0.6731411659043034
aF0.70838596586038
aF0.5692517375501781
aF0.5
aI1
aF0.5
aF0.5973688621439767
aF0.5
aF0.5811526154815995
aF0.611137966799573
aI1
aF0.657070774851754
aF0.6483329760144455
aF0.6846835705702682
aF0.7085848622356106
aa(lp67
I0
aI1
aI0
aI0
aI0
aI1
aI0
aI0
aI0
aI0
aI0
aI0
aI-1
aI-1
aI-1
aI-1
aI0
aI-1
aI0
aI0
aI0
aI0
aI1
aI0
aI0
aI0
aI0
aI0
aI1
aI1
aI0
aI0
aI0
aI0
aI0
aI0
aI0
aI0
aI0
aI0
aI0
aI0
aI0
aI0
aI0
aI0
aI0
aI0
aI0
aI0
aI0
aI0
aI0
aI0
aI0
aI0
aI0
aI0
aI0
aI0
aI0
aI0
aI0
aI0
aI0
aI0
aI1
aF0.7573546050522342
aI1
aF0.7445272745276506
aF0.7725694296131688
aI1
aF0.7414002510338914
aF0.7414002510338914
aI1
aI1
aI1
aF0.7161591609019495
aI1
aI1
aI1
aI1
aF0.7811176650007038
aF0.7787685614178466
aF0.7529269883253762
aI1
aI1
aF0.7738226622912612
aI1
aI1
aa(lp68
I0
aI1
aI0
aI1
aI0
aI0
aI0
aI0
aI0
aI0
aI0
aI0
aI-1
aI-1
aI-1
aI-1
aI-1
aI-1
aI-1
aI-1
aI0
aI0
aI1
aI0
aI0
aI0
aI1
aI0
aI1
aI1
aI0
aI0
aI0
aI0
aI0
aI0
aI0
aI0
aI0
aI0
aI0
aI0
aI0
aI0
aI0
aI0
aI0
aI0
aI0
aI0
aI0
aI0
aI0
aI0
aI0
aI0
aI0
aI0
aI0
aI0
aI0
aI0
aI0
aI0
aI0
aF0.09915303107686972
aF0.5660501279322816
aF0.5
aF0.5573136545024441
aF0.7384524672116186
aF0.6715184734345465
aF0.6856960747265942
aF0.6045273671216247
aF0.6636710976190753
aF0.55866543967563
aF0.6654066786262569
aI1
aF0.6791406917939296
aF0.5915279059953816
aF0.6610663602759543
aF0.6005614125285241
aF0.6964130398111972
aF0.6896353392651068
aF0.6691822484205258
aF0.6867539380107647
aF0.7031032848857516
aF0.7616003669075565
aF0.6791190167156169
aF0.7316921565541736
aI1
aa(lp69
I0
aI1
aI0
aI0
aI0
aI1
aI0
aI0
aI0
aI0
aI0
aI0
aI-1
aI-1
aI-1
aI-1
aI0
aI-1
aI0
aI-1
aI0
aI0
aI1
aI0
aI0
aI0
aI0
aI0
aI1
aI1
aI0
aI0
aI0
aI0
aI0
aI0
aI0
aI0
aI0
aI0
aI0
aI0
aI0
aI0
aI0
aI0
aI0
aI0
aI0
aI0
aI0
aI0
aI0
aI0
aI0
aI0
aI0
aI0
aI0
aI0
aI0
aI0
aI0
aI0
aI0
aI0
aI0
aF0.5660501279322816
aF0.5762336016390824
aF0.607043828596713
aF0.5103864223005199
aF0.6052487446301636
aF0.5845182825732097
aF0.5702739089723219
aF0.5156285914792277
aF0.6731411659043034
aI1
aI1
aF0.5103864223005199
aI1
aF0.501152717616773
aF0.7043510771768892
aI1
aF0.6174869490372198
aI1
aI1
aF0.657070774851754
aF0.6483329760144455
aI1
aI1
aa(lp70
I0
aI1
aI0
aI0
aI0
aI1
aI0
aI0
aI0
aI0
aI0
aI0
aI-1
aI-1
aI-1
aI-1
aI0
aI-1
aI0
aI0
aI0
aI0
aI1
aI0
aI0
aI0
aI0
aI0
aI1
aI1
aI0
aI0
aI0
aI0
aI0
aI0
aI0
aI0
aI0
aI0
aI0
aI0
aI0
aI0
aI0
aI0
aI0
aI0
aI0
aI0
aI0
aI0
aI0
aI0
aI0
aI0
aI0
aI0
aI0
aI0
aI0
aI0
aI0
aI0
aI0
aI0
aF0.6694150370649532
aF0.6417498765616401
aF0.5
aF0.5692060765317528
aF0.6943120933226714
aF0.5669721448278299
aF0.5368239222327568
aF0.5
aF0.523835697855588
aF0.6630749402735499
aF0.6314822793026725
aF0.6214975441446128
aF0.5692060765317528
aI1
aF0.5296790472576347
aF0.7731053158712572
aF0.5361592754931392
aF0.5696589351798905
aF0.5199767373242329
aI1
aF0.7190901754241309
aF0.7094113479341875
aF0.6883181462584669
aF0.7481113884788531
aa(lp71
I0
aI0
aI1
aI0
aI1
aI0
aI0
aI0
aI0
aI0
aI0
aI0
aI-1
aI-1
aI-1
aI-1
aI0
aI-1
aI0
aI0
aI0
aI0
aI1
aI0
aI0
aI1
aI0
aI0
aI1
aI1
aI0
aI0
aI0
aI0
aI0
aI0
aI0
aI0
aI0
aI0
aI0
aI0
aI0
aI0
aI0
aI0
aI0
aI0
aI0
aI0
aI0
aI0
aI0
aI0
aI0
aI0
aI0
aI0
aI0
aI0
aI0
aI0
aI0
aI0
aI0
aI0
aI1
aI1
aF0.5844089953409015
aI1
aI1
aI1
aI1
aF0.6031754525782433
aI1
aF0.6086205037150203
aI1
aI1
aF0.6118309839989352
aI1
aF0.7148423717377155
aF0.7087281892142097
aF0.639826351396688
aF0.6086205037150203
aF0.6086205037150203
aI0
aF0.5382970473844628
aF0.6292171993243101
aF0.6343399741581219
aI1
aa(lp72
I0
aI1
aI0
aI0
aI1
aI0
aI0
aI0
aI0
aI0
aI0
aI0
aI-1
aI-1
aI-1
aI-1
aI0
aI-1
aI0
aI-1
aI0
aI0
aI1
aI0
aI0
aI0
aI0
aI0
aI1
aI0
aI0
aI0
aI0
aI0
aI0
aI0
aI0
aI0
aI0
aI0
aI0
aI0
aI0
aI0
aI0
aI0
aI0
aI0
aI0
aI0
aI0
aI0
aI0
aI0
aI0
aI0
aI0
aI0
aI0
aI0
aI0
aI0
aI0
aI0
aI0
aI0
aI1
aI1
aF0.5942770435825249
aI1
aI1
aI1
aI1
aI1
aI1
aI1
aI1
aI1
aI1
aI1
aF0.5698143925073594
aI1
aI1
aI1
aF0.5923216116494828
aI1
aI1
aI1
aI1
aI1
aa(lp73
I1
aI0
aI0
aI0
aI0
aI1
aI0
aI0
aI0
aI0
aI0
aI0
aI-1
aI-1
aI1
aI-1
aI-1
aI-1
aI0
aI-1
aI0
aI0
aI1
aI0
aI0
aI1
aI0
aI0
aI1
aI1
aI0
aI0
aI0
aI0
aI0
aI0
aI0
aI0
aI0
aI0
aI0
aI0
aI0
aI0
aI0
aI0
aI0
aI0
aI0
aI0
aI0
aI0
aI0
aI0
aI0
aI0
aI0
aI0
aI0
aI0
aI0
aI0
aI0
aI0
aI0
aF0.10004296768396183
aF0.5660501279322816
aF0.5
aF0.5357430314204298
aF0.5654343853748066
aF0.657338749841547
aF0.6727381017529414
aF0.5234665435026907
aF0.5777904972740775
aF0.6913237939886325
aF0.6547956927237909
aF0.7336771055118949
aF0.6647171876899333
aF0.5757218491573359
aF0.6449312485322867
aF0.5566769735591669
aF0.6847621007541346
aI1
aF0.6547956927237909
aF0.6478828400653969
aI1
aF0.7237632689209111
aF0.7144091500329147
aF0.6940606718914806
aF0.752821150512001
aa(lp74
I0
aI1
aI0
aI0
aI0
aI1
aI0
aI0
aI0
aI0
aI0
aI0
aI-1
aI-1
aI-1
aI-1
aI0
aI-1
aI0
aI0
aI0
aI0
aI1
aI0
aI0
aI0
aI0
aI0
aI1
aI1
aI0
aI0
aI0
aI0
aI0
aI0
aI0
aI0
aI0
aI0
aI0
aI0
aI0
aI0
aI0
aI0
aI0
aI0
aI0
aI0
aI0
aI0
aI0
aI0
aI0
aI0
aI0
aI0
aI0
aI0
aI0
aI0
aI0
aI0
aI0
aI0
aI0
aF0.5660501279322816
aF0.5762336016390824
aF0.607043828596713
aF0.5103864223005199
aF0.6052487446301636
aF0.5845182825732097
aF0.5702739089723219
aF0.5156285914792277
aF0.6731411659043034
aI1
aI1
aF0.5103864223005199
aI1
aF0.501152717616773
aF0.7043510771768892
aI1
aF0.6174869490372198
aI1
aI1
aF0.657070774851754
aF0.6483329760144455
aI1
aI1
aa(lp75
I1
aI0
aI0
aI0
aI1
aI0
aI0
aI0
aI0
aI0
aI0
aI0
aI-1
aI-1
aI1
aI-1
aI-1
aI-1
aI0
aI-1
aI0
aI0
aI1
aI0
aI0
aI1
aI0
aI0
aI1
aI1
aI0
aI0
aI0
aI0
aI0
aI0
aI0
aI0
aI0
aI0
aI0
aI0
aI0
aI0
aI0
aI0
aI0
aI0
aI0
aI0
aI0
aI0
aI0
aI0
aI0
aI0
aI0
aI0
aI0
aI0
aI0
aI0
aI0
aI0
aI0
aF0.10004296768396183
aF0.5660501279322816
aF0.5
aF0.5357430314204298
aF0.5654343853748066
aF0.657338749841547
aF0.6727381017529414
aF0.5234665435026907
aF0.5777904972740775
aF0.6913237939886325
aF0.6547956927237909
aF0.7336771055118949
aF0.6647171876899333
aF0.5757218491573359
aF0.6449312485322867
aF0.5566769735591669
aF0.6847621007541346
aI1
aF0.6547956927237909
aF0.6478828400653969
aI1
aF0.7237632689209111
aF0.7144091500329147
aF0.6940606718914806
aF0.752821150512001
aa(lp76
I0
aI1
aI0
aI0
aI0
aI1
aI0
aI0
aI0
aI0
aI0
aI0
aI-1
aI-1
aI-1
aI-1
aI0
aI-1
aI0
aI0
aI0
aI0
aI1
aI0
aI0
aI0
aI0
aI0
aI1
aI1
aI0
aI0
aI0
aI0
aI0
aI0
aI0
aI0
aI0
aI0
aI0
aI0
aI0
aI0
aI0
aI0
aI0
aI0
aI0
aI0
aI0
aI0
aI0
aI0
aI0
aI0
aI0
aI0
aI0
aI0
aI0
aI0
aI0
aI0
aI0
aI0
aF0.6808072550240508
aF0.5825445136881217
aF0.5
aF0.7280921355804171
aI1
aF0.7673463612022513
aF0.753241097052737
aF0.5800653881041513
aI1
aF0.5488016625178319
aI1
aF0.6191038980295175
aF0.5924979457652038
aI1
aF0.5800653881041513
aF0.5638329797688069
aF0.5818631094360815
aF0.5891711621765
aF0.5891711621765
aF0.6543185850486611
aF0.7530228083538429
aF0.6060328603933334
aF0.630288820527054
aI1
aa(lp77
I1
aI0
aI0
aI0
aI1
aI0
aI0
aI0
aI0
aI0
aI0
aI0
aI-1
aI-1
aI1
aI-1
aI-1
aI-1
aI0
aI0
aI0
aI0
aI1
aI0
aI0
aI0
aI0
aI0
aI0
aI1
aI0
aI0
aI0
aI0
aI0
aI0
aI0
aI0
aI0
aI0
aI0
aI0
aI0
aI0
aI0
aI0
aI0
aI0
aI0
aI0
aI0
aI0
aI0
aI0
aI0
aI0
aI0
aI0
aI0
aI0
aI0
aI0
aI0
aI0
aI0
aI1
aI1
aI1
aF0.6622895754187108
aI1
aF0.6566888571385147
aF0.7557950623598528
aF0.6390143088956534
aF0.7418929619691705
aF0.6257523756448831
aF0.7128871408592579
aF0.762444932375377
aI1
aF0.6650663233209374
aI1
aF0.660911041127208
aI1
aI1
aF0.7128871408592579
aF0.7128871408592579
aI1
aF0.7545887679751657
aF0.7472336287175574
aF0.7314233362083563
aF0.6663797678020744
aa(lp78
I1
aI0
aI0
aI0
aI1
aI0
aI0
aI0
aI0
aI0
aI0
aI0
aI-1
aI-1
aI1
aI-1
aI-1
aI-1
aI0
aI-1
aI0
aI0
aI1
aI0
aI0
aI1
aI0
aI0
aI1
aI1
aI0
aI0
aI0
aI0
aI0
aI0
aI0
aI0
aI0
aI0
aI0
aI0
aI0
aI0
aI0
aI0
aI0
aI0
aI0
aI0
aI0
aI0
aI0
aI0
aI0
aI0
aI0
aI0
aI0
aI0
aI0
aI0
aI0
aI0
aI0
aF0.10004296768396183
aF0.5660501279322816
aF0.5
aF0.5357430314204298
aF0.5654343853748066
aF0.657338749841547
aF0.6727381017529414
aF0.5234665435026907
aF0.5777904972740775
aF0.6913237939886325
aF0.6547956927237909
aF0.7336771055118949
aF0.6647171876899333
aF0.5757218491573359
aF0.6449312485322867
aF0.5566769735591669
aF0.6847621007541346
aI1
aF0.6547956927237909
aF0.6478828400653969
aI1
aF0.7237632689209111
aF0.7144091500329147
aF0.6940606718914806
aF0.752821150512001
aa(lp79
I1
aI0
aI0
aI0
aI1
aI0
aI0
aI0
aI0
aI0
aI0
aI0
aI-1
aI-1
aI1
aI-1
aI-1
aI-1
aI0
aI0
aI0
aI0
aI1
aI0
aI0
aI0
aI1
aI0
aI1
aI1
aI0
aI0
aI0
aI0
aI0
aI0
aI0
aI0
aI0
aI0
aI0
aI0
aI0
aI0
aI0
aI0
aI0
aI0
aI0
aI0
aI0
aI0
aI0
aI0
aI0
aI0
aI0
aI0
aI0
aI0
aI0
aI0
aI0
aI0
aI0
aF0.6264764452700349
aI1
aI1
aF0.5942770435825249
aI1
aI1
aI1
aI1
aI1
aI1
aI1
aI1
aI1
aI1
aI1
aF0.5698143925073594
aI1
aI1
aI1
aF0.5923216116494828
aI1
aI1
aI1
aI1
aI1
aa(lp80
I0
aI0
aI1
aI0
aI1
aI0
aI0
aI0
aI0
aI0
aI0
aI0
aI-1
aI-1
aI-1
aI-1
aI0
aI-1
aI0
aI0
aI0
aI0
aI1
aI0
aI0
aI1
aI0
aI0
aI1
aI1
aI1
aI1
aI0
aI0
aI0
aI0
aI0
aI0
aI0
aI0
aI0
aI0
aI0
aI0
aI0
aI0
aI0
aI0
aI0
aI0
aI0
aI0
aI0
aI0
aI0
aI0
aI0
aI0
aI0
aI0
aI0
aI0
aI0
aI0
aI0
aI0
aI0
aF0.5660501279322816
aF0.5762336016390824
aI0
aF0.5103864223005199
aF0.5233456403081337
aF0.5
aF0.5
aF0.5156285914792277
aF0.6731411659043034
aF0.70838596586038
aF0.5692517375501781
aF0.5
aI1
aF0.5
aF0.5973688621439767
aF0.5
aF0.5811526154815995
aF0.611137966799573
aI1
aF0.657070774851754
aF0.6483329760144455
aF0.6846835705702682
aF0.7085848622356106
aa(lp81
I0
aI1
aI0
aI0
aI1
aI0
aI0
aI0
aI0
aI0
aI0
aI0
aI-1
aI-1
aI1
aI-1
aI-1
aI-1
aI0
aI-1
aI0
aI0
aI1
aI0
aI0
aI0
aI0
aI0
aI0
aI1
aI0
aI0
aI0
aI0
aI0
aI0
aI0
aI0
aI0
aI0
aI0
aI0
aI0
aI0
aI0
aI0
aI0
aI0
aI0
aI0
aI0
aI0
aI0
aI0
aI0
aI0
aI0
aI0
aI0
aI0
aI0
aI0
aI0
aI0
aI0
aI1
aI0
aF0.5660501279322816
aF0.5762336016390824
aF0.607043828596713
aF0.5103864223005199
aF0.6052487446301636
aF0.5845182825732097
aF0.5702739089723219
aF0.5156285914792277
aF0.6731411659043034
aI1
aI1
aF0.5103864223005199
aI1
aF0.501152717616773
aF0.7043510771768892
aI1
aF0.6174869490372198
aI1
aI1
aF0.657070774851754
aF0.6483329760144455
aI1
aI1
aa(lp82
I0
aI1
aI0
aI0
aI1
aI0
aI0
aI0
aI0
aI0
aI0
aI0
aI-1
aI-1
aI-1
aI-1
aI0
aI-1
aI0
aI-1
aI0
aI0
aI1
aI0
aI0
aI0
aI0
aI0
aI1
aI0
aI0
aI0
aI0
aI0
aI0
aI0
aI0
aI0
aI0
aI0
aI0
aI0
aI0
aI0
aI0
aI0
aI0
aI0
aI0
aI0
aI0
aI0
aI0
aI0
aI0
aI0
aI0
aI0
aI0
aI0
aI0
aI0
aI0
aI0
aI0
aF0.14733949909459276
aI1
aI1
aI1
aI1
aF0.6909852127219921
aF0.7035643733613459
aI1
aF0.5776677961261593
aI1
aF0.572500631501619
aI1
aF0.6988620218787864
aF0.6123114105666164
aF0.6829961865504609
aI1
aF0.6343415352503409
aI1
aF0.6067538991678777
aF0.7045055558462476
aF0.5337738553626459
aI1
aI1
aI1
aI1
aa(lp83
I0
aI1
aI0
aI0
aI0
aI1
aI0
aI0
aI0
aI0
aI0
aI0
aI-1
aI-1
aI-1
aI-1
aI-1
aI-1
aI0
aI0
aI0
aI0
aI1
aI0
aI0
aI0
aI0
aI0
aI1
aI1
aI0
aI0
aI0
aI0
aI0
aI0
aI0
aI0
aI0
aI0
aI0
aI0
aI0
aI0
aI0
aI0
aI0
aI0
aI0
aI0
aI0
aI0
aI0
aI0
aI0
aI0
aI0
aI0
aI0
aI0
aI0
aI0
aI0
aI0
aI0
aI1
aI1
aI1
aI1
aI1
aI1
aI1
aI1
aI1
aI1
aI1
aI1
aI1
aI1
aI1
aI1
aI1
aI1
aI1
aI1
aI1
aI1
aI1
aI1
aI1
aa(lp84
I0
aI1
aI0
aI0
aI0
aI1
aI0
aI0
aI0
aI0
aI0
aI0
aI-1
aI-1
aI-1
aI-1
aI0
aI-1
aI0
aI0
aI0
aI0
aI1
aI0
aI0
aI1
aI0
aI0
aI0
aI1
aI0
aI0
aI0
aI0
aI0
aI0
aI0
aI0
aI0
aI0
aI0
aI0
aI0
aI0
aI0
aI0
aI0
aI0
aI0
aI0
aI0
aI0
aI0
aI0
aI0
aI0
aI0
aI0
aI0
aI0
aI0
aI0
aI0
aI0
aI0
aI1
aI1
aI1
aI1
aF0.5883155170236446
aI1
aF0.5607967185938866
aI1
aI1
aI1
aI1
aI1
aI1
aI1
aI1
aF0.5737178469184896
aI1
aI1
aI1
aI1
aI1
aI1
aI1
aI1
aI1
aa(lp85
I0
aI1
aI0
aI0
aI0
aI1
aI0
aI0
aI0
aI0
aI0
aI0
aI-1
aI-1
aI-1
aI-1
aI0
aI-1
aI0
aI0
aI0
aI0
aI1
aI0
aI0
aI0
aI0
aI0
aI1
aI1
aI0
aI0
aI0
aI0
aI0
aI0
aI0
aI0
aI0
aI0
aI0
aI0
aI0
aI0
aI0
aI0
aI0
aI0
aI0
aI0
aI0
aI0
aI0
aI0
aI0
aI0
aI0
aI0
aI0
aI0
aI0
aI0
aI0
aI0
aI0
aI0
aI0
aF0.5660501279322816
aF0.5762336016390824
aF0.607043828596713
aF0.5103864223005199
aF0.6052487446301636
aF0.5845182825732097
aF0.5702739089723219
aF0.5156285914792277
aF0.6731411659043034
aI1
aI1
aF0.5103864223005199
aI1
aF0.501152717616773
aF0.7043510771768892
aI1
aF0.6174869490372198
aI1
aI1
aF0.657070774851754
aF0.6483329760144455
aI1
aI1
aa(lp86
I0
aI1
aI0
aI0
aI0
aI1
aI0
aI0
aI0
aI0
aI0
aI0
aI-1
aI-1
aI-1
aI-1
aI0
aI-1
aI0
aI0
aI0
aI0
aI1
aI0
aI0
aI0
aI0
aI0
aI1
aI1
aI0
aI0
aI0
aI0
aI0
aI0
aI0
aI0
aI0
aI0
aI0
aI0
aI0
aI0
aI0
aI0
aI0
aI0
aI0
aI0
aI0
aI0
aI0
aI0
aI0
aI0
aI0
aI0
aI0
aI0
aI0
aI0
aI0
aI0
aI0
aI0
aI1
aI1
aF0.5942770435825249
aI1
aI1
aI1
aI1
aI1
aI1
aI1
aI1
aI1
aI1
aI1
aF0.5698143925073594
aI1
aI1
aI1
aF0.5923216116494828
aI1
aI1
aI1
aI1
aI1
aa(lp87
I0
aI0
aI1
aI0
aI0
aI1
aI0
aI0
aI0
aI0
aI0
aI0
aI-1
aI-1
aI-1
aI-1
aI0
aI-1
aI0
aI0
aI0
aI0
aI1
aI0
aI0
aI1
aI0
aI0
aI1
aI1
aI0
aI0
aI0
aI0
aI0
aI0
aI0
aI0
aI0
aI0
aI0
aI0
aI0
aI0
aI0
aI0
aI0
aI0
aI0
aI0
aI0
aI0
aI0
aI0
aI0
aI0
aI0
aI0
aI0
aI0
aI0
aI0
aI0
aI0
aI0
aI0
aF0.5845182825732097
aF0.5477824374913982
aF0.5
aF0.5
aF0.5296721231718472
aF0.7060216493045898
aI0
aF0.5
aF0.5912981335583106
aF0.644652558746943
aF0.5514303052072106
aF0.5692517375501781
aF0.5729717728534833
aI1
aF0.5
aF0.5240462374338287
aF0.5
aF0.644652558746943
aF0.644652558746943
aI1
aF0.7063995534994241
aF0.6915566880665449
aF0.672617169030399
aF0.7085848622356106
aa(lp88
I1
aI0
aI0
aI0
aI0
aI1
aI0
aI0
aI0
aI0
aI0
aI0
aI-1
aI-1
aI1
aI-1
aI-1
aI-1
aI0
aI-1
aI0
aI0
aI1
aI0
aI0
aI1
aI0
aI0
aI1
aI1
aI0
aI0
aI0
aI0
aI0
aI0
aI0
aI0
aI0
aI0
aI0
aI0
aI0
aI0
aI0
aI0
aI0
aI0
aI0
aI0
aI0
aI0
aI0
aI0
aI0
aI0
aI0
aI0
aI0
aI0
aI0
aI0
aI0
aI0
aI0
aF0.0924292260381608
aF0.67993465155383
aI1
aF0.7400451542410373
aF0.6125095177275185
aF0.5797773118629872
aF0.6806964509345699
aF0.6125095177275185
aF0.5569000808886923
aF0.6727564384497279
aF0.6624799281365624
aI1
aF0.512167376530366
aF0.5701237668734789
aF0.6377326489210315
aF0.7498778746060276
aF0.6928612906651956
aI1
aF0.6624799281365624
aF0.6818580915180469
aI1
aF0.7525007054853318
aF0.7370172453095565
aI1
aI1
aa(lp89
I0
aI0
aI1
aI0
aI1
aI0
aI0
aI0
aI0
aI0
aI0
aI0
aI-1
aI-1
aI-1
aI-1
aI0
aI-1
aI0
aI-1
aI0
aI0
aI1
aI0
aI0
aI1
aI0
aI0
aI1
aI1
aI0
aI0
aI0
aI0
aI0
aI0
aI0
aI0
aI0
aI0
aI0
aI0
aI0
aI0
aI0
aI0
aI0
aI0
aI0
aI0
aI0
aI0
aI0
aI0
aI0
aI0
aI0
aI0
aI0
aI0
aI0
aI0
aI0
aI0
aI0
aI0
aI1
aI1
aF0.5942770435825249
aI1
aI1
aI1
aI1
aI1
aI1
aI1
aI1
aI1
aI1
aI1
aF0.5698143925073594
aI1
aI1
aI1
aF0.5923216116494828
aI1
aI1
aI1
aI1
aI1
aa(lp90
I0
aI1
aI0
aI0
aI0
aI1
aI0
aI0
aI0
aI0
aI0
aI0
aI-1
aI-1
aI-1
aI-1
aI0
aI-1
aI0
aI-1
aI0
aI0
aI1
aI0
aI0
aI0
aI0
aI0
aI1
aI1
aI0
aI0
aI0
aI0
aI0
aI0
aI0
aI0
aI0
aI0
aI0
aI0
aI0
aI0
aI0
aI0
aI0
aI0
aI0
aI0
aI0
aI0
aI0
aI0
aI0
aI0
aI0
aI0
aI0
aI0
aI0
aI0
aI0
aI0
aI0
aI0
aI0
aF0.5660501279322816
aF0.5762336016390824
aF0.607043828596713
aF0.5103864223005199
aF0.6052487446301636
aF0.5845182825732097
aF0.5702739089723219
aF0.5156285914792277
aF0.6731411659043034
aI1
aI1
aF0.5103864223005199
aI1
aF0.501152717616773
aF0.7043510771768892
aI1
aF0.6174869490372198
aI1
aI1
aF0.657070774851754
aF0.6483329760144455
aI1
aI1
aa(lp91
I1
aI0
aI0
aI0
aI1
aI0
aI0
aI0
aI0
aI0
aI0
aI0
aI-1
aI-1
aI1
aI-1
aI-1
aI-1
aI0
aI0
aI0
aI0
aI1
aI0
aI0
aI0
aI0
aI0
aI0
aI1
aI0
aI0
aI0
aI0
aI0
aI0
aI0
aI0
aI0
aI0
aI0
aI0
aI0
aI0
aI0
aI0
aI0
aI0
aI0
aI0
aI0
aI0
aI0
aI0
aI0
aI0
aI0
aI0
aI0
aI0
aI0
aI0
aI0
aI0
aI0
aI1
aI1
aI1
aF0.6622895754187108
aI1
aF0.6566888571385147
aF0.7557950623598528
aF0.6390143088956534
aF0.7418929619691705
aF0.6257523756448831
aF0.7128871408592579
aF0.762444932375377
aI1
aF0.6650663233209374
aI1
aF0.660911041127208
aI1
aI1
aF0.7128871408592579
aF0.7128871408592579
aI1
aF0.7545887679751657
aF0.7472336287175574
aF0.7314233362083563
aF0.6663797678020744
aa(lp92
I0
aI1
aI0
aI1
aI0
aI0
aI0
aI0
aI0
aI0
aI0
aI0
aI-1
aI-1
aI-1
aI-1
aI-1
aI-1
aI0
aI0
aI0
aI0
aI1
aI0
aI0
aI0
aI0
aI0
aI0
aI1
aI0
aI0
aI0
aI0
aI0
aI0
aI0
aI0
aI0
aI0
aI0
aI0
aI0
aI0
aI0
aI0
aI0
aI0
aI0
aI0
aI0
aI0
aI0
aI0
aI0
aI0
aI0
aI0
aI0
aI0
aI0
aI0
aI0
aI0
aI0
aI1
aF0.5660501279322816
aF0.5
aF0.5061229086265145
aF0.6267217208682151
aF0.6603989117385534
aF0.6621964353968365
aF0.5477824374913982
aF0.5
aI1
aF0.6777375993395076
aI1
aF0.6151091496340397
aF0.5763785548030264
aI1
aF0.639871692554306
aI1
aF0.6762506775837269
aF0.6951349776953565
aF0.5
aI1
aI1
aF0.5798676341400274
aI1
aI1
aa(lp93
I0
aI1
aI0
aI1
aI0
aI0
aI0
aI0
aI0
aI0
aI0
aI0
aI-1
aI-1
aI-1
aI-1
aI-1
aI-1
aI0
aI-1
aI0
aI0
aI1
aI0
aI0
aI0
aI1
aI0
aI1
aI1
aI0
aI0
aI0
aI0
aI0
aI0
aI0
aI0
aI0
aI0
aI0
aI0
aI0
aI0
aI0
aI0
aI0
aI0
aI0
aI0
aI0
aI0
aI0
aI0
aI0
aI0
aI0
aI0
aI0
aI0
aI0
aI0
aI0
aI0
aI0
aF0.09915303107686972
aF0.5660501279322816
aF0.5
aF0.5573136545024441
aF0.7384524672116186
aF0.6715184734345465
aF0.6856960747265942
aF0.6045273671216247
aF0.6636710976190753
aF0.55866543967563
aF0.6654066786262569
aI1
aF0.6791406917939296
aF0.5915279059953816
aF0.6610663602759543
aF0.6005614125285241
aF0.6964130398111972
aF0.6896353392651068
aF0.6691822484205258
aF0.6867539380107647
aF0.7031032848857516
aF0.7616003669075565
aF0.6791190167156169
aF0.7316921565541736
aI1
aa(lp94
I0
aI1
aI0
aI0
aI0
aI1
aI0
aI0
aI0
aI0
aI0
aI0
aI-1
aI-1
aI-1
aI-1
aI0
aI-1
aI0
aI0
aI0
aI0
aI1
aI0
aI0
aI0
aI0
aI0
aI1
aI1
aI0
aI0
aI0
aI0
aI0
aI0
aI0
aI0
aI0
aI0
aI0
aI0
aI0
aI0
aI0
aI0
aI0
aI0
aI0
aI0
aI0
aI0
aI0
aI0
aI0
aI0
aI0
aI0
aI0
aI0
aI0
aI0
aI0
aI0
aI0
aI0
aF0.6694150370649532
aF0.6417498765616401
aF0.5
aF0.5692060765317528
aF0.6943120933226714
aF0.5669721448278299
aF0.5368239222327568
aF0.5
aF0.523835697855588
aF0.6630749402735499
aF0.6314822793026725
aF0.6214975441446128
aF0.5692060765317528
aI1
aF0.5296790472576347
aF0.7731053158712572
aF0.5361592754931392
aF0.5696589351798905
aF0.5199767373242329
aI1
aF0.7190901754241309
aF0.7094113479341875
aF0.6883181462584669
aF0.7481113884788531
aa(lp95
I0
aI1
aI0
aI0
aI0
aI1
aI0
aI0
aI0
aI0
aI0
aI0
aI-1
aI-1
aI-1
aI-1
aI0
aI-1
aI0
aI0
aI0
aI0
aI1
aI0
aI0
aI0
aI0
aI0
aI1
aI1
aI0
aI0
aI0
aI0
aI0
aI0
aI0
aI0
aI0
aI0
aI0
aI0
aI0
aI0
aI0
aI0
aI0
aI0
aI0
aI0
aI0
aI0
aI0
aI0
aI0
aI0
aI0
aI0
aI0
aI0
aI0
aI0
aI0
aI0
aI0
aI0
aI1
aF0.7573546050522342
aI1
aF0.7445272745276506
aF0.7725694296131688
aI1
aF0.7414002510338914
aF0.7414002510338914
aI1
aI1
aI1
aF0.7161591609019495
aI1
aI1
aI1
aI1
aF0.7811176650007038
aF0.7787685614178466
aF0.7529269883253762
aI1
aI1
aF0.7738226622912612
aI1
aI1
aa(lp96
I0
aI1
aI0
aI0
aI0
aI1
aI0
aI0
aI0
aI0
aI0
aI0
aI-1
aI-1
aI-1
aI-1
aI0
aI-1
aI0
aI0
aI0
aI0
aI1
aI0
aI0
aI0
aI0
aI0
aI1
aI1
aI0
aI0
aI0
aI0
aI0
aI0
aI0
aI0
aI0
aI0
aI0
aI0
aI0
aI0
aI0
aI0
aI0
aI0
aI0
aI0
aI0
aI0
aI0
aI0
aI0
aI0
aI0
aI0
aI0
aI0
aI0
aI0
aI0
aI0
aI0
aI0
aI0
aF0.5660501279322816
aF0.5762336016390824
aF0.607043828596713
aF0.5103864223005199
aF0.6052487446301636
aF0.5845182825732097
aF0.5702739089723219
aF0.5156285914792277
aF0.6731411659043034
aI1
aI1
aF0.5103864223005199
aI1
aF0.501152717616773
aF0.7043510771768892
aI1
aF0.6174869490372198
aI1
aI1
aF0.657070774851754
aF0.6483329760144455
aI1
aI1
aa(lp97
I1
aI0
aI0
aI0
aI1
aI0
aI0
aI0
aI0
aI0
aI0
aI0
aI-1
aI-1
aI1
aI-1
aI-1
aI-1
aI0
aI0
aI0
aI0
aI1
aI0
aI0
aI1
aI0
aI0
aI1
aI1
aI0
aI0
aI0
aI0
aI0
aI0
aI0
aI0
aI0
aI0
aI0
aI0
aI0
aI0
aI0
aI0
aI0
aI0
aI0
aI0
aI0
aI0
aI0
aI0
aI0
aI0
aI0
aI0
aI0
aI0
aI0
aI0
aI0
aI0
aI0
aI0
aI0
aF0.5660501279322816
aF0.5762336016390824
aI0
aF0.5103864223005199
aF0.5233456403081337
aF0.5
aF0.5
aF0.5156285914792277
aF0.6731411659043034
aF0.70838596586038
aF0.5692517375501781
aF0.5
aI1
aF0.5
aF0.5973688621439767
aF0.5
aF0.5811526154815995
aF0.611137966799573
aI1
aF0.657070774851754
aF0.6483329760144455
aF0.6846835705702682
aF0.7085848622356106
aa(lp98
I1
aI0
aI0
aI0
aI0
aI1
aI0
aI0
aI0
aI0
aI0
aI0
aI-1
aI-1
aI1
aI-1
aI-1
aI-1
aI0
aI-1
aI0
aI0
aI1
aI0
aI0
aI1
aI0
aI0
aI1
aI1
aI0
aI0
aI0
aI0
aI0
aI0
aI0
aI0
aI0
aI0
aI0
aI0
aI0
aI0
aI0
aI0
aI0
aI0
aI0
aI0
aI0
aI0
aI0
aI0
aI0
aI0
aI0
aI0
aI0
aI0
aI0
aI0
aI0
aI0
aI0
aF0.15779967308059284
aI0
aF0.5660501279322816
aF0.5762336016390824
aI0
aF0.5103864223005199
aF0.5233456403081337
aF0.5
aF0.5
aF0.5156285914792277
aF0.6731411659043034
aF0.70838596586038
aF0.5692517375501781
aF0.5
aI1
aF0.5
aF0.5973688621439767
aF0.5
aF0.5811526154815995
aF0.611137966799573
aI1
aF0.657070774851754
aF0.6483329760144455
aF0.6846835705702682
aF0.7085848622356106
aa(lp99
I0
aI0
aI1
aI0
aI0
aI1
aI0
aI0
aI0
aI0
aI0
aI0
aI-1
aI-1
aI-1
aI-1
aI0
aI-1
aI0
aI0
aI0
aI0
aI1
aI0
aI0
aI1
aI0
aI0
aI1
aI1
aI0
aI0
aI0
aI0
aI0
aI0
aI0
aI0
aI0
aI0
aI0
aI0
aI0
aI0
aI0
aI0
aI0
aI0
aI0
aI0
aI0
aI0
aI0
aI0
aI0
aI0
aI0
aI0
aI0
aI0
aI0
aI0
aI0
aI0
aI0
aI0
aF0.5845182825732097
aF0.5477824374913982
aF0.5
aF0.5
aF0.5296721231718472
aF0.7060216493045898
aI0
aF0.5
aF0.5912981335583106
aF0.644652558746943
aF0.5514303052072106
aF0.5692517375501781
aF0.5729717728534833
aI1
aF0.5
aF0.5240462374338287
aF0.5
aF0.644652558746943
aF0.644652558746943
aI1
aF0.7063995534994241
aF0.6915566880665449
aF0.672617169030399
aF0.7085848622356106
aa(lp100
I1
aI0
aI0
aI0
aI0
aI1
aI0
aI0
aI0
aI0
aI0
aI0
aI-1
aI-1
aI1
aI-1
aI-1
aI-1
aI0
aI-1
aI0
aI0
aI1
aI0
aI0
aI1
aI0
aI0
aI1
aI1
aI0
aI0
aI0
aI0
aI0
aI0
aI0
aI0
aI0
aI0
aI0
aI0
aI0
aI0
aI0
aI0
aI0
aI0
aI0
aI0
aI0
aI0
aI0
aI0
aI0
aI0
aI0
aI0
aI0
aI0
aI0
aI0
aI0
aI0
aI0
aF0.0924292260381608
aF0.67993465155383
aI1
aF0.7400451542410373
aF0.6125095177275185
aF0.5797773118629872
aF0.6806964509345699
aF0.6125095177275185
aF0.5569000808886923
aF0.6727564384497279
aF0.6624799281365624
aI1
aF0.512167376530366
aF0.5701237668734789
aF0.6377326489210315
aF0.7498778746060276
aF0.6928612906651956
aI1
aF0.6624799281365624
aF0.6818580915180469
aI1
aF0.7525007054853318
aF0.7370172453095565
aI1
aI1
aa(lp101
I1
aI0
aI0
aI0
aI1
aI0
aI0
aI0
aI0
aI0
aI0
aI0
aI-1
aI-1
aI-1
aI-1
aI-1
aI-1
aI0
aI0
aI0
aI0
aI1
aI0
aI0
aI1
aI1
aI0
aI1
aI1
aI0
aI0
aI0
aI0
aI0
aI0
aI0
aI0
aI0
aI0
aI0
aI0
aI0
aI0
aI0
aI0
aI0
aI0
aI0
aI0
aI0
aI0
aI0
aI0
aI0
aI0
aI0
aI0
aI0
aI0
aI0
aI0
aI0
aI0
aI0
aF0.0997082012218552
aI1
aF0.6762506775837269
aF0.6287144201715433
aF0.5
aF0.6886345699919708
aI1
aF0.5
aF0.5966688280256184
aI1
aF0.6646337448295041
aF0.70838596586038
aF0.5692517375501781
aF0.6061479218472771
aI1
aF0.5200612429987673
aF0.6017842064639691
aI0
aF0.7071671807828336
aF0.7038404927512233
aF0.639826351396688
aI1
aF0.5555682321074484
aF0.6846835705702682
aF0.7085848622356106
aa(lp102
I1
aI0
aI0
aI0
aI0
aI1
aI0
aI0
aI0
aI0
aI0
aI0
aI-1
aI-1
aI1
aI-1
aI-1
aI-1
aI0
aI-1
aI0
aI0
aI1
aI0
aI0
aI1
aI0
aI0
aI1
aI1
aI0
aI0
aI0
aI0
aI0
aI0
aI0
aI0
aI0
aI0
aI0
aI0
aI0
aI0
aI0
aI0
aI0
aI0
aI0
aI0
aI0
aI0
aI0
aI0
aI0
aI0
aI0
aI0
aI0
aI0
aI0
aI0
aI0
aI0
aI0
aF0.10004296768396183
aF0.5660501279322816
aF0.5
aF0.5357430314204298
aF0.5654343853748066
aF0.657338749841547
aF0.6727381017529414
aF0.5234665435026907
aF0.5777904972740775
aF0.6913237939886325
aF0.6547956927237909
aF0.7336771055118949
aF0.6647171876899333
aF0.5757218491573359
aF0.6449312485322867
aF0.5566769735591669
aF0.6847621007541346
aI1
aF0.6547956927237909
aF0.6478828400653969
aI1
aF0.7237632689209111
aF0.7144091500329147
aF0.6940606718914806
aF0.752821150512001
aa(lp103
I0
aI1
aI0
aI0
aI1
aI0
aI0
aI0
aI0
aI0
aI0
aI0
aI-1
aI-1
aI-1
aI-1
aI0
aI-1
aI0
aI-1
aI0
aI0
aI1
aI0
aI0
aI1
aI0
aI0
aI1
aI1
aI0
aI0
aI0
aI0
aI0
aI0
aI0
aI0
aI0
aI0
aI0
aI0
aI0
aI0
aI0
aI0
aI0
aI0
aI0
aI0
aI0
aI0
aI0
aI0
aI0
aI0
aI0
aI0
aI0
aI0
aI0
aI0
aI0
aI0
aI0
aI0
aI1
aF0.6774185074764169
aF0.6939868462322076
aF0.5782952702151545
aF0.7113244193224211
aF0.712624293790118
aF0.5
aF0.5378998702295655
aI1
aF0.530448783464181
aF0.7359285586757711
aF0.6267550014516486
aF0.572184855602191
aI1
aF0.5200612429987673
aF0.6341557990370253
aF0.5
aF0.6825946469196355
aF0.6825946469196355
aF0.6864077614555419
aI1
aF0.5519678770603851
aF0.7105173217417264
aF0.7360916687841034
aa(lp104
I1
aI0
aI0
aI0
aI1
aI0
aI0
aI0
aI0
aI0
aI0
aI0
aI-1
aI-1
aI1
aI-1
aI-1
aI-1
aI0
aI-1
aI0
aI0
aI1
aI0
aI0
aI1
aI0
aI0
aI1
aI1
aI0
aI0
aI0
aI0
aI0
aI0
aI0
aI0
aI0
aI0
aI0
aI0
aI0
aI0
aI0
aI0
aI0
aI0
aI0
aI0
aI0
aI0
aI0
aI0
aI0
aI0
aI0
aI0
aI0
aI0
aI0
aI0
aI0
aI0
aI0
aF0.10004296768396183
aF0.5660501279322816
aF0.5
aF0.5357430314204298
aF0.5654343853748066
aF0.657338749841547
aF0.6727381017529414
aF0.5234665435026907
aF0.5777904972740775
aF0.6913237939886325
aF0.6547956927237909
aF0.7336771055118949
aF0.6647171876899333
aF0.5757218491573359
aF0.6449312485322867
aF0.5566769735591669
aF0.6847621007541346
aI1
aF0.6547956927237909
aF0.6478828400653969
aI1
aF0.7237632689209111
aF0.7144091500329147
aF0.6940606718914806
aF0.752821150512001
aa(lp105
I0
aI1
aI0
aI0
aI0
aI1
aI0
aI0
aI0
aI0
aI0
aI0
aI-1
aI-1
aI-1
aI-1
aI0
aI-1
aI0
aI0
aI0
aI0
aI1
aI0
aI0
aI0
aI0
aI0
aI1
aI1
aI0
aI0
aI0
aI0
aI0
aI0
aI0
aI0
aI0
aI0
aI0
aI0
aI0
aI0
aI0
aI0
aI0
aI0
aI0
aI0
aI0
aI0
aI0
aI0
aI0
aI0
aI0
aI0
aI0
aI0
aI0
aI0
aI0
aI0
aI0
aI0
aI0
aF0.5660501279322816
aF0.5762336016390824
aF0.607043828596713
aF0.5103864223005199
aF0.6052487446301636
aF0.5845182825732097
aF0.5702739089723219
aF0.5156285914792277
aF0.6731411659043034
aI1
aI1
aF0.5103864223005199
aI1
aF0.501152717616773
aF0.7043510771768892
aI1
aF0.6174869490372198
aI1
aI1
aF0.657070774851754
aF0.6483329760144455
aI1
aI1
aa(lp106
I0
aI1
aI0
aI1
aI0
aI0
aI0
aI0
aI0
aI0
aI0
aI0
aI-1
aI-1
aI-1
aI-1
aI-1
aI-1
aI0
aI-1
aI0
aI0
aI1
aI0
aI0
aI0
aI1
aI0
aI1
aI1
aI0
aI0
aI0
aI0
aI0
aI0
aI0
aI0
aI0
aI0
aI0
aI0
aI0
aI0
aI0
aI0
aI0
aI0
aI0
aI0
aI0
aI0
aI0
aI0
aI0
aI0
aI0
aI0
aI0
aI0
aI0
aI0
aI0
aI0
aI0
aF0.09915303107686972
aF0.5660501279322816
aF0.5
aF0.5573136545024441
aF0.7384524672116186
aF0.6715184734345465
aF0.6856960747265942
aF0.6045273671216247
aF0.6636710976190753
aF0.55866543967563
aF0.6654066786262569
aI1
aF0.6791406917939296
aF0.5915279059953816
aF0.6610663602759543
aF0.6005614125285241
aF0.6964130398111972
aF0.6896353392651068
aF0.6691822484205258
aF0.6867539380107647
aF0.7031032848857516
aF0.7616003669075565
aF0.6791190167156169
aF0.7316921565541736
aI1
aa(lp107
I1
aI0
aI0
aI0
aI0
aI1
aI0
aI0
aI0
aI0
aI0
aI0
aI-1
aI-1
aI1
aI-1
aI-1
aI-1
aI0
aI-1
aI0
aI0
aI1
aI0
aI0
aI1
aI0
aI0
aI1
aI1
aI0
aI0
aI0
aI0
aI0
aI0
aI0
aI0
aI0
aI0
aI0
aI0
aI0
aI0
aI0
aI0
aI0
aI0
aI0
aI0
aI0
aI0
aI0
aI0
aI0
aI0
aI0
aI0
aI0
aI0
aI0
aI0
aI0
aI0
aI0
aF0.10004296768396183
aF0.5660501279322816
aF0.5
aF0.5357430314204298
aF0.5654343853748066
aF0.657338749841547
aF0.6727381017529414
aF0.5234665435026907
aF0.5777904972740775
aF0.6913237939886325
aF0.6547956927237909
aF0.7336771055118949
aF0.6647171876899333
aF0.5757218491573359
aF0.6449312485322867
aF0.5566769735591669
aF0.6847621007541346
aI1
aF0.6547956927237909
aF0.6478828400653969
aI1
aF0.7237632689209111
aF0.7144091500329147
aF0.6940606718914806
aF0.752821150512001
aa(lp108
I0
aI1
aI0
aI0
aI0
aI1
aI0
aI0
aI0
aI0
aI0
aI0
aI-1
aI-1
aI-1
aI-1
aI0
aI-1
aI0
aI0
aI0
aI0
aI1
aI0
aI0
aI0
aI0
aI0
aI1
aI1
aI0
aI0
aI0
aI0
aI0
aI0
aI0
aI0
aI0
aI0
aI0
aI0
aI0
aI0
aI0
aI0
aI0
aI0
aI0
aI0
aI0
aI0
aI0
aI0
aI0
aI0
aI0
aI0
aI0
aI0
aI0
aI0
aI0
aI0
aI0
aI0
aI1
aI1
aF0.5942770435825249
aI1
aI1
aI1
aI1
aI1
aI1
aI1
aI1
aI1
aI1
aI1
aF0.5698143925073594
aI1
aI1
aI1
aF0.5923216116494828
aI1
aI1
aI1
aI1
aI1
aa(lp109
I0
aI0
aI1
aI0
aI0
aI1
aI0
aI0
aI0
aI0
aI0
aI0
aI-1
aI-1
aI-1
aI-1
aI0
aI-1
aI0
aI0
aI0
aI0
aI1
aI0
aI0
aI1
aI0
aI0
aI1
aI1
aI0
aI0
aI0
aI0
aI0
aI0
aI0
aI0
aI0
aI0
aI0
aI0
aI0
aI0
aI0
aI0
aI0
aI0
aI0
aI0
aI0
aI0
aI0
aI0
aI0
aI0
aI0
aI0
aI0
aI0
aI0
aI0
aI0
aI0
aI0
aI0
aF0.5845182825732097
aF0.5477824374913982
aF0.5
aF0.5
aF0.5296721231718472
aF0.7060216493045898
aI0
aF0.5
aF0.5912981335583106
aF0.644652558746943
aF0.5514303052072106
aF0.5692517375501781
aF0.5729717728534833
aI1
aF0.5
aF0.5240462374338287
aF0.5
aF0.644652558746943
aF0.644652558746943
aI1
aF0.7063995534994241
aF0.6915566880665449
aF0.672617169030399
aF0.7085848622356106
aa(lp110
I1
aI0
aI0
aI0
aI1
aI0
aI0
aI0
aI0
aI0
aI0
aI0
aI-1
aI-1
aI1
aI-1
aI-1
aI-1
aI0
aI-1
aI0
aI0
aI1
aI0
aI0
aI1
aI0
aI0
aI1
aI1
aI0
aI0
aI0
aI0
aI0
aI0
aI0
aI0
aI0
aI0
aI0
aI0
aI0
aI0
aI0
aI0
aI0
aI0
aI0
aI0
aI0
aI0
aI0
aI0
aI0
aI0
aI0
aI0
aI0
aI0
aI0
aI0
aI0
aI0
aI0
aF0.10004296768396183
aF0.5660501279322816
aF0.5
aF0.5357430314204298
aF0.5654343853748066
aF0.657338749841547
aF0.6727381017529414
aF0.5234665435026907
aF0.5777904972740775
aF0.6913237939886325
aF0.6547956927237909
aF0.7336771055118949
aF0.6647171876899333
aF0.5757218491573359
aF0.6449312485322867
aF0.5566769735591669
aF0.6847621007541346
aI1
aF0.6547956927237909
aF0.6478828400653969
aI1
aF0.7237632689209111
aF0.7144091500329147
aF0.6940606718914806
aF0.752821150512001
aa(lp111
I0
aI0
aI1
aI0
aI1
aI0
aI0
aI0
aI0
aI0
aI0
aI0
aI-1
aI-1
aI-1
aI-1
aI0
aI-1
aI0
aI-1
aI0
aI0
aI1
aI0
aI0
aI1
aI0
aI0
aI1
aI1
aI0
aI0
aI0
aI0
aI0
aI0
aI0
aI0
aI0
aI0
aI0
aI0
aI0
aI0
aI0
aI0
aI0
aI0
aI0
aI0
aI0
aI0
aI0
aI0
aI0
aI0
aI0
aI0
aI0
aI0
aI0
aI0
aI0
aI0
aI0
aI0
aF0.7002046764701588
aF0.7080620682426036
aF0.7163643843571238
aF0.5761564699443599
aF0.7298094388316532
aF0.7778242236320282
aF0.6846545035602672
aF0.6846545035602672
aI1
aF0.7732695325426403
aF0.7527610998778927
aF0.531953650068141
aF0.7347716729844952
aI1
aF0.6178090883814487
aF0.7880457463525948
aF0.6931163423336668
aF0.7385141342271495
aF0.7016289752434676
aI1
aF0.7647978969840609
aF0.7315763904890072
aF0.7359316313554412
aF0.7529040842951182
aa(lp112
I0
aI1
aI0
aI0
aI0
aI1
aI0
aI0
aI0
aI0
aI0
aI0
aI-1
aI-1
aI-1
aI-1
aI0
aI-1
aI0
aI-1
aI0
aI0
aI1
aI0
aI0
aI0
aI0
aI0
aI1
aI1
aI0
aI0
aI0
aI0
aI0
aI0
aI0
aI0
aI0
aI0
aI0
aI0
aI0
aI0
aI0
aI0
aI0
aI0
aI0
aI0
aI0
aI0
aI0
aI0
aI0
aI0
aI0
aI0
aI0
aI0
aI0
aI0
aI0
aI0
aI0
aI0
aI1
aI1
aF0.5942770435825249
aI1
aI1
aI1
aI1
aI1
aI1
aI1
aI1
aI1
aI1
aI1
aF0.5698143925073594
aI1
aI1
aI1
aF0.5923216116494828
aI1
aI1
aI1
aI1
aI1
aa(lp113
I0
aI1
aI0
aI0
aI0
aI1
aI0
aI0
aI0
aI0
aI0
aI0
aI-1
aI-1
aI-1
aI-1
aI0
aI-1
aI0
aI0
aI0
aI0
aI1
aI0
aI0
aI0
aI0
aI0
aI1
aI1
aI0
aI0
aI0
aI0
aI0
aI0
aI0
aI0
aI0
aI0
aI0
aI0
aI0
aI0
aI0
aI0
aI0
aI0
aI0
aI0
aI0
aI0
aI0
aI0
aI0
aI0
aI0
aI0
aI0
aI0
aI0
aI0
aI0
aI0
aI0
aI0
aI1
aI1
aF0.5942770435825249
aI1
aI1
aI1
aI1
aI1
aI1
aI1
aI1
aI1
aI1
aI1
aF0.5698143925073594
aI1
aI1
aI1
aF0.5923216116494828
aI1
aI1
aI1
aI1
aI1
aa(lp114
I0
aI1
aI0
aI0
aI1
aI0
aI0
aI0
aI0
aI0
aI0
aI0
aI-1
aI-1
aI-1
aI-1
aI0
aI-1
aI0
aI-1
aI0
aI0
aI1
aI0
aI0
aI0
aI0
aI0
aI0
aI1
aI0
aI0
aI0
aI0
aI0
aI0
aI0
aI0
aI0
aI0
aI0
aI0
aI0
aI0
aI0
aI0
aI0
aI0
aI0
aI0
aI0
aI0
aI0
aI0
aI0
aI0
aI0
aI0
aI0
aI0
aI0
aI0
aI0
aI0
aI0
aI0
aI0
aF0.5660501279322816
aF0.5762336016390824
aF0.607043828596713
aF0.5103864223005199
aF0.6052487446301636
aF0.5845182825732097
aF0.5702739089723219
aF0.5156285914792277
aF0.6731411659043034
aI1
aI1
aF0.5103864223005199
aI1
aF0.501152717616773
aF0.7043510771768892
aI1
aF0.6174869490372198
aI1
aI1
aF0.657070774851754
aF0.6483329760144455
aI1
aI1
aa(lp115
I0
aI0
aI1
aI0
aI0
aI1
aI0
aI0
aI0
aI0
aI0
aI0
aI-1
aI-1
aI-1
aI-1
aI0
aI1
aI0
aI0
aI0
aI0
aI1
aI0
aI0
aI1
aI0
aI0
aI0
aI0
aI0
aI0
aI0
aI0
aI0
aI0
aI0
aI0
aI0
aI0
aI0
aI0
aI0
aI0
aI0
aI0
aI0
aI0
aI0
aI0
aI0
aI0
aI0
aI0
aI0
aI0
aI0
aI0
aI0
aI0
aI0
aI0
aI0
aI0
aI0
aI0
aF0.6694150370649532
aF0.6417498765616401
aF0.5
aF0.5692060765317528
aF0.6943120933226714
aF0.5669721448278299
aF0.5368239222327568
aF0.5
aF0.523835697855588
aF0.6630749402735499
aF0.6314822793026725
aF0.6214975441446128
aF0.5692060765317528
aI1
aF0.5296790472576347
aF0.7731053158712572
aF0.5361592754931392
aF0.5696589351798905
aF0.5199767373242329
aI1
aF0.7190901754241309
aF0.7094113479341875
aF0.6883181462584669
aF0.7481113884788531
aa(lp116
I0
aI1
aI0
aI0
aI0
aI1
aI0
aI0
aI0
aI0
aI0
aI0
aI-1
aI-1
aI-1
aI-1
aI0
aI-1
aI0
aI0
aI0
aI0
aI1
aI0
aI0
aI0
aI0
aI0
aI1
aI1
aI0
aI0
aI0
aI0
aI0
aI0
aI0
aI0
aI0
aI0
aI0
aI0
aI0
aI0
aI0
aI0
aI0
aI0
aI0
aI0
aI0
aI0
aI0
aI0
aI0
aI0
aI0
aI0
aI0
aI0
aI0
aI0
aI0
aI0
aI0
aI0
aI0
aF0.5660501279322816
aF0.5762336016390824
aF0.607043828596713
aF0.5103864223005199
aF0.6052487446301636
aF0.5845182825732097
aF0.5702739089723219
aF0.5156285914792277
aF0.6731411659043034
aI1
aI1
aF0.5103864223005199
aI1
aF0.501152717616773
aF0.7043510771768892
aI1
aF0.6174869490372198
aI1
aI1
aF0.657070774851754
aF0.6483329760144455
aI1
aI1
aa(lp117
I0
aI1
aI0
aI0
aI0
aI1
aI0
aI0
aI0
aI0
aI0
aI0
aI-1
aI-1
aI-1
aI-1
aI0
aI-1
aI0
aI-1
aI0
aI0
aI1
aI0
aI0
aI0
aI0
aI0
aI1
aI1
aI0
aI0
aI0
aI0
aI0
aI0
aI0
aI0
aI0
aI0
aI0
aI0
aI0
aI0
aI0
aI0
aI0
aI0
aI0
aI0
aI0
aI0
aI0
aI0
aI0
aI0
aI0
aI0
aI0
aI0
aI0
aI0
aI0
aI0
aI0
aI0
aI0
aF0.5660501279322816
aF0.5762336016390824
aF0.607043828596713
aF0.5103864223005199
aF0.6052487446301636
aF0.5845182825732097
aF0.5702739089723219
aF0.5156285914792277
aF0.6731411659043034
aI1
aI1
aF0.5103864223005199
aI1
aF0.501152717616773
aF0.7043510771768892
aI1
aF0.6174869490372198
aI1
aI1
aF0.657070774851754
aF0.6483329760144455
aI1
aI1
aa(lp118
I0
aI0
aI1
aI0
aI1
aI0
aI0
aI0
aI0
aI0
aI0
aI0
aI-1
aI-1
aI-1
aI-1
aI-1
aI-1
aI0
aI-1
aI0
aI0
aI1
aI0
aI0
aI1
aI0
aI0
aI1
aI1
aI0
aI0
aI0
aI0
aI0
aI0
aI0
aI0
aI0
aI0
aI0
aI0
aI0
aI0
aI0
aI0
aI0
aI0
aI0
aI0
aI0
aI0
aI0
aI0
aI0
aI0
aI0
aI0
aI0
aI0
aI0
aI0
aI0
aI0
aI0
aI1
aI1
aI1
aI1
aI1
aI1
aI1
aI1
aI1
aI1
aI1
aI1
aI1
aI1
aI1
aI1
aI1
aI1
aI1
aI1
aI1
aI1
aI1
aI1
aI1
aa(lp119
I0
aI1
aI0
aI1
aI0
aI0
aI0
aI0
aI0
aI0
aI0
aI0
aI-1
aI-1
aI-1
aI-1
aI-1
aI-1
aI0
aI0
aI0
aI0
aI1
aI0
aI0
aI0
aI0
aI0
aI1
aI0
aI0
aI0
aI0
aI0
aI0
aI0
aI0
aI0
aI0
aI0
aI0
aI0
aI0
aI0
aI0
aI0
aI0
aI0
aI0
aI0
aI0
aI0
aI0
aI0
aI0
aI0
aI0
aI0
aI0
aI0
aI0
aI0
aI0
aI0
aI0
aF0.0924292260381608
aF0.67993465155383
aI1
aF0.7400451542410373
aF0.6125095177275185
aF0.5797773118629872
aF0.6806964509345699
aF0.6125095177275185
aF0.5569000808886923
aF0.6727564384497279
aF0.6624799281365624
aI1
aF0.512167376530366
aF0.5701237668734789
aF0.6377326489210315
aF0.7498778746060276
aF0.6928612906651956
aI1
aF0.6624799281365624
aF0.6818580915180469
aI1
aF0.7525007054853318
aF0.7370172453095565
aI1
aI1
aa(lp120
I1
aI0
aI0
aI1
aI0
aI0
aI0
aI0
aI0
aI0
aI0
aI0
aI-1
aI-1
aI-1
aI-1
aI-1
aI1
aI0
aI0
aI0
aI0
aI1
aI0
aI0
aI1
aI0
aI0
aI0
aI0
aI0
aI0
aI0
aI0
aI0
aI0
aI0
aI0
aI0
aI0
aI0
aI0
aI0
aI0
aI0
aI0
aI0
aI0
aI0
aI0
aI0
aI1
aI0
aI0
aI0
aI0
aI0
aI0
aI0
aI0
aI0
aI0
aI0
aI0
aI0
aI0
aF0.5702739089723219
aF0.5
aF0.5800653881041513
aF0.5
aF0.5678490720113271
aF0.5152039393334513
aF0.5
aF0.5
aF0.6729149169040721
aF0.5406992252857851
aF0.6388140286416842
aF0.5733567396026994
aF0.5
aI1
aF0.5
aF0.6242745850549243
aF0.5966688280256184
aF0.5406992252857851
aF0.5288860536203928
aF0.6137966834898949
aF0.7091121634889681
aF0.583317762268188
aF0.5887538457077028
aF0.7411553680049033
aa(lp121
I1
aI0
aI0
aI0
aI0
aI1
aI0
aI0
aI0
aI0
aI0
aI0
aI-1
aI-1
aI-1
aI-1
aI0
aI-1
aI0
aI0
aI0
aI0
aI1
aI0
aI0
aI1
aI0
aI0
aI0
aI1
aI0
aI0
aI0
aI0
aI0
aI1
aI0
aI0
aI0
aI0
aI0
aI0
aI0
aI0
aI0
aI0
aI0
aI0
aI0
aI0
aI0
aI0
aI0
aI0
aI0
aI0
aI0
aI0
aI0
aI0
aI0
aI0
aI0
aI0
aI0
aI0
aF0.5701269658641944
aF0.6008869802058517
aF0.6277073527425123
aF0.7025100047689116
aF0.6595610396003734
aF0.6738919879520486
aF0.6438410223099369
aF0.5592973303895661
aF0.6248918475033312
aF0.5
aF0.5999285062784668
aF0.6710435426446468
aF0.6595610396003734
aI1
aF0.536092223035277
aF0.7863370721412085
aF0.7025100047689116
aF0.5
aF0.5
aI1
aF0.6717372847546396
aF0.6584430974209543
aF0.6289258316473711
aF0.7119741583811013
aa(lp122
I1
aI0
aI0
aI0
aI0
aI1
aI0
aI0
aI0
aI0
aI0
aI0
aI-1
aI-1
aI1
aI-1
aI-1
aI-1
aI0
aI0
aI0
aI0
aI1
aI0
aI0
aI1
aI0
aI0
aI0
aI1
aI0
aI0
aI0
aI0
aI0
aI0
aI0
aI0
aI0
aI0
aI0
aI0
aI0
aI0
aI0
aI0
aI0
aI0
aI0
aI0
aI0
aI0
aI0
aI0
aI0
aI0
aI0
aI0
aI0
aI0
aI0
aI0
aI0
aI0
aI0
aF0.09760281553225558
aI1
aI1
aI1
aI1
aI1
aI1
aI1
aI1
aI1
aI1
aI1
aI1
aI1
aI1
aI1
aI1
aI1
aI1
aI1
aI1
aI1
aI1
aI1
aI1
aa(lp123
I1
aI0
aI0
aI0
aI0
aI1
aI0
aI0
aI0
aI0
aI0
aI0
aI-1
aI-1
aI1
aI-1
aI-1
aI-1
aI0
aI0
aI0
aI0
aI1
aI0
aI0
aI1
aI0
aI0
aI0
aI1
aI0
aI0
aI0
aI0
aI0
aI0
aI0
aI0
aI0
aI0
aI0
aI0
aI0
aI0
aI0
aI0
aI0
aI0
aI0
aI0
aI0
aI0
aI0
aI0
aI0
aI0
aI0
aI0
aI0
aI0
aI0
aI0
aI0
aI0
aI0
aI0
aF0.5660501279322816
aF0.5
aF0.5573136545024441
aF0.7384524672116186
aF0.6715184734345465
aF0.6856960747265942
aF0.6045273671216247
aF0.6636710976190753
aF0.55866543967563
aF0.6654066786262569
aI1
aF0.6791406917939296
aF0.5915279059953816
aF0.6610663602759543
aF0.6005614125285241
aF0.6964130398111972
aF0.6896353392651068
aF0.6691822484205258
aF0.6867539380107647
aF0.7031032848857516
aF0.7616003669075565
aF0.6791190167156169
aF0.7316921565541736
aI1
aa(lp124
I0
aI0
aI1
aI1
aI0
aI0
aI0
aI0
aI0
aI0
aI0
aI0
aI-1
aI-1
aI-1
aI-1
aI-1
aI-1
aI0
aI0
aI0
aI0
aI1
aI0
aI0
aI0
aI0
aI0
aI0
aI1
aI0
aI0
aI0
aI0
aI0
aI0
aI0
aI0
aI0
aI0
aI0
aI0
aI0
aI0
aI0
aI0
aI0
aI0
aI0
aI0
aI0
aI0
aI0
aI0
aI0
aI0
aI0
aI0
aI0
aI0
aI0
aI0
aI0
aI0
aI0
aI1
aI1
aF0.5049105812025713
aI1
aI1
aF0.6338824387239962
aF0.6514083091053455
aI1
aI1
aI1
aF0.5123428006355317
aI1
aF0.6407489251292355
aF0.5511143605124608
aF0.6179367739951962
aI1
aF0.5803858071090415
aI1
aF0.5123428006355317
aF0.6527090912441985
aI1
aI1
aI1
aI1
aI1
aa(lp125
I0
aI1
aI0
aI0
aI1
aI0
aI0
aI0
aI0
aI0
aI0
aI0
aI-1
aI-1
aI-1
aI-1
aI0
aI-1
aI0
aI0
aI0
aI0
aI1
aI0
aI0
aI1
aI0
aI0
aI0
aI1
aI0
aI0
aI0
aI0
aI0
aI0
aI0
aI0
aI0
aI0
aI0
aI0
aI0
aI0
aI0
aI0
aI0
aI0
aI0
aI0
aI0
aI0
aI0
aI0
aI0
aI0
aI0
aI0
aI0
aI0
aI0
aI0
aI0
aI0
aI0
aF0.20467238198950918
aF0.7145517047074974
aF0.7098015589487929
aF0.7499739442390937
aF0.7178614150113725
aF0.7092446772071955
aF0.7386093330057117
aF0.742747313683568
aF0.6243956058666913
aF0.7067286697309572
aF0.6342333602888559
aI1
aF0.6367260286130658
aF0.6334559865019762
aI1
aF0.759083060958493
aI1
aI1
aF0.7587763862028396
aF0.6342333602888559
aI1
aI1
aF0.7635710827742768
aI1
aI1
aa(lp126
I0
aI0
aI1
aI0
aI1
aI0
aI0
aI0
aI1
aI0
aI0
aI0
aI-1
aI-1
aI-1
aI1
aI-1
aI-1
aI0
aI-1
aI0
aI0
aI1
aI0
aI0
aI0
aI0
aI0
aI0
aI0
aI0
aI0
aI0
aI0
aI0
aI0
aI0
aI0
aI0
aI0
aI0
aI0
aI0
aI0
aI0
aI0
aI0
aI0
aI1
aI0
aI0
aI0
aI0
aI0
aI0
aI0
aI0
aI0
aI0
aI0
aI0
aI0
aI0
aI0
aI0
aI1
aI1
aI1
aI1
aI1
aI1
aI1
aI1
aI1
aI1
aI1
aI1
aI1
aI1
aI1
aI1
aI1
aI1
aI1
aI1
aI1
aI1
aI1
aI1
aI1
aa(lp127
I1
aI0
aI0
aI1
aI0
aI0
aI0
aI0
aI0
aI0
aI0
aI0
aI-1
aI-1
aI-1
aI1
aI-1
aI-1
aI0
aI0
aI0
aI0
aI1
aI0
aI0
aI0
aI0
aI0
aI0
aI0
aI0
aI0
aI0
aI0
aI0
aI0
aI0
aI0
aI0
aI0
aI0
aI0
aI0
aI0
aI0
aI0
aI0
aI0
aI0
aI0
aI0
aI0
aI0
aI0
aI0
aI0
aI0
aI0
aI0
aI0
aI0
aI0
aI0
aI0
aI0
aF0.20634080772838026
aF0.607043828596713
aF0.6267217208682151
aF0.6563774155260674
aF0.5
aF0.5577734713497952
aF0.5233456403081337
aF0.5
aF0.5
aF0.617245385686066
aF0.6876465059093766
aF0.70838596586038
aF0.5692517375501781
aF0.5
aI1
aF0.5
aF0.5973688621439767
aF0.5
aF0.5811526154815995
aF0.611137966799573
aI1
aF0.7110550340917559
aF0.6959949674278685
aF0.6846835705702682
aF0.7085848622356106
aa(lp128
I0
aI0
aI1
aI0
aI0
aI1
aI0
aI0
aI0
aI0
aI0
aI0
aI-1
aI-1
aI-1
aI-1
aI0
aI-1
aI0
aI0
aI0
aI0
aI1
aI0
aI0
aI0
aI0
aI0
aI0
aI0
aI0
aI0
aI0
aI0
aI0
aI0
aI0
aI0
aI0
aI0
aI0
aI0
aI0
aI0
aI0
aI0
aI0
aI0
aI0
aI0
aI0
aI0
aI0
aI0
aI0
aI0
aI0
aI0
aI0
aI0
aI0
aI0
aI0
aI0
aI0
aF0.24773459518630622
aF0.7043510771768892
aF0.5049105812025713
aF0.7665741359586784
aF0.5973688621439767
aF0.6338824387239962
aF0.6514083091053455
aF0.5240462374338287
aF0.6242745850549243
aI1
aF0.5123428006355317
aI1
aF0.6407489251292355
aF0.5511143605124608
aF0.6179367739951962
aF0.5211810840509955
aI0
aF0.6017842064639691
aF0.5123428006355317
aF0.6527090912441985
aF0.7087281892142097
aF0.7673576618240046
aF0.6856793837685414
aF0.7371866760277586
aI1
aa(lp129
tp130
sS'-'
p131
((lp132
(lp133
I0
aI0
aI1
aI0
aI0
aI1
aI0
aI0
aI0
aI0
aI0
aI0
aI1
aI-1
aI1
aI1
aI1
aI1
aI0
aI0
aI0
aI0
aI1
aI0
aI0
aI0
aI0
aI0
aI0
aI0
aI0
aI0
aI0
aI0
aI0
aI0
aI0
aI0
aI0
aI0
aI0
aI0
aI0
aI0
aI0
aI0
aI0
aI0
aI0
aI0
aI0
aI0
aI0
aI0
aI1
aI0
aI0
aI0
aI0
aI0
aI0
aI0
aI0
aI0
aI0
aI1
aI1
aI1
aI1
aI1
aI1
aI1
aI1
aI1
aI1
aI1
aI1
aI1
aI1
aI1
aI1
aI1
aI1
aI1
aI1
aI1
aI1
aI1
aI1
aI1
aa(lp134
I0
aI0
aI1
aI0
aI0
aI1
aI0
aI0
aI0
aI0
aI0
aI0
aI1
aI-1
aI1
aI1
aI1
aI1
aI0
aI0
aI0
aI0
aI1
aI0
aI0
aI0
aI0
aI0
aI0
aI0
aI0
aI0
aI0
aI0
aI0
aI0
aI0
aI0
aI0
aI0
aI0
aI0
aI0
aI0
aI0
aI0
aI0
aI0
aI0
aI0
aI0
aI0
aI0
aI0
aI1
aI0
aI0
aI0
aI0
aI0
aI0
aI0
aI0
aI0
aI0
aI1
aI1
aI1
aI1
aI1
aI1
aI1
aI1
aI1
aI1
aI1
aI1
aI1
aI1
aI1
aI1
aI1
aI1
aI1
aI1
aI1
aI1
aI1
aI1
aI1
aa(lp135
I0
aI0
aI1
aI0
aI0
aI1
aI0
aI0
aI0
aI0
aI0
aI0
aI1
aI-1
aI-1
aI1
aI1
aI-1
aI0
aI0
aI0
aI0
aI1
aI0
aI0
aI0
aI0
aI0
aI0
aI0
aI0
aI0
aI0
aI0
aI0
aI0
aI0
aI0
aI0
aI0
aI0
aI0
aI0
aI0
aI0
aI0
aI0
aI0
aI0
aI0
aI1
aI0
aI0
aI0
aI0
aI0
aI0
aI0
aI0
aI0
aI0
aI0
aI0
aI0
aI0
aI1
aI1
aI1
aI1
aI1
aI1
aI1
aI1
aI1
aI1
aI1
aI1
aI1
aI1
aI1
aI1
aI1
aI1
aI1
aI1
aI1
aI1
aI1
aI1
aI1
aa(lp136
I0
aI0
aI1
aI0
aI0
aI1
aI0
aI0
aI0
aI0
aI0
aI0
aI1
aI-1
aI1
aI1
aI1
aI1
aI0
aI0
aI0
aI0
aI1
aI0
aI0
aI0
aI0
aI0
aI0
aI0
aI0
aI0
aI0
aI0
aI0
aI0
aI0
aI0
aI0
aI0
aI0
aI0
aI0
aI0
aI0
aI0
aI0
aI0
aI0
aI0
aI1
aI0
aI0
aI0
aI0
aI0
aI0
aI0
aI0
aI0
aI0
aI0
aI0
aI0
aI0
aI1
aI1
aI1
aI1
aI1
aI1
aI1
aI1
aI1
aI1
aI1
aI1
aI1
aI1
aI1
aI1
aI1
aI1
aI1
aI1
aI1
aI1
aI1
aI1
aI1
aa(lp137
I0
aI0
aI1
aI0
aI0
aI1
aI0
aI0
aI0
aI0
aI0
aI0
aI1
aI-1
aI1
aI1
aI1
aI1
aI0
aI0
aI0
aI0
aI1
aI0
aI0
aI0
aI0
aI0
aI0
aI0
aI0
aI0
aI0
aI0
aI0
aI0
aI0
aI0
aI0
aI0
aI0
aI0
aI0
aI0
aI0
aI0
aI0
aI0
aI0
aI0
aI0
aI0
aI0
aI0
aI1
aI0
aI0
aI0
aI0
aI0
aI0
aI0
aI0
aI0
aI0
aI1
aI1
aI1
aI1
aI1
aI1
aI1
aI1
aI1
aI1
aI1
aI1
aI1
aI1
aI1
aI1
aI1
aI1
aI1
aI1
aI1
aI1
aI1
aI1
aI1
aa(lp138
I0
aI0
aI1
aI0
aI0
aI1
aI0
aI0
aI0
aI0
aI0
aI0
aI1
aI-1
aI1
aI1
aI1
aI1
aI0
aI0
aI0
aI0
aI1
aI0
aI0
aI0
aI0
aI0
aI0
aI0
aI0
aI0
aI0
aI0
aI0
aI0
aI0
aI0
aI0
aI0
aI0
aI0
aI0
aI0
aI0
aI0
aI0
aI0
aI0
aI0
aI0
aI0
aI0
aI0
aI1
aI0
aI0
aI0
aI0
aI0
aI0
aI0
aI0
aI0
aI0
aI1
aI1
aI1
aI1
aI1
aI1
aI1
aI1
aI1
aI1
aI1
aI1
aI1
aI1
aI1
aI1
aI1
aI1
aI1
aI1
aI1
aI1
aI1
aI1
aI1
aa(lp139
I0
aI0
aI1
aI0
aI0
aI1
aI0
aI0
aI0
aI0
aI0
aI0
aI1
aI-1
aI1
aI1
aI1
aI1
aI0
aI0
aI0
aI0
aI1
aI0
aI0
aI0
aI0
aI0
aI0
aI0
aI0
aI0
aI0
aI0
aI0
aI0
aI0
aI0
aI0
aI0
aI0
aI0
aI0
aI0
aI0
aI0
aI0
aI0
aI0
aI0
aI1
aI0
aI0
aI0
aI0
aI0
aI0
aI0
aI0
aI0
aI0
aI0
aI0
aI0
aI0
aI1
aI1
aI1
aI1
aI1
aI1
aI1
aI1
aI1
aI1
aI1
aI1
aI1
aI1
aI1
aI1
aI1
aI1
aI1
aI1
aI1
aI1
aI1
aI1
aI1
aa(lp140
I0
aI0
aI1
aI0
aI0
aI1
aI0
aI0
aI0
aI0
aI0
aI0
aI1
aI-1
aI1
aI1
aI1
aI1
aI0
aI0
aI0
aI0
aI1
aI0
aI0
aI0
aI0
aI0
aI0
aI0
aI0
aI0
aI0
aI0
aI0
aI0
aI0
aI0
aI0
aI0
aI0
aI0
aI0
aI0
aI0
aI0
aI0
aI0
aI0
aI0
aI1
aI0
aI0
aI0
aI0
aI0
aI0
aI0
aI0
aI0
aI0
aI0
aI0
aI0
aI0
aI1
aI1
aI1
aI1
aI1
aI1
aI1
aI1
aI1
aI1
aI1
aI1
aI1
aI1
aI1
aI1
aI1
aI1
aI1
aI1
aI1
aI1
aI1
aI1
aI1
aa(lp141
I0
aI0
aI1
aI0
aI0
aI1
aI0
aI0
aI0
aI0
aI0
aI0
aI1
aI-1
aI1
aI1
aI1
aI1
aI0
aI0
aI0
aI0
aI1
aI0
aI0
aI0
aI0
aI0
aI0
aI0
aI0
aI0
aI0
aI0
aI0
aI0
aI0
aI0
aI0
aI0
aI0
aI0
aI0
aI0
aI0
aI0
aI0
aI0
aI0
aI0
aI1
aI0
aI0
aI0
aI0
aI0
aI0
aI0
aI0
aI0
aI0
aI0
aI0
aI0
aI0
aI1
aI1
aI1
aI1
aI1
aI1
aI1
aI1
aI1
aI1
aI1
aI1
aI1
aI1
aI1
aI1
aI1
aI1
aI1
aI1
aI1
aI1
aI1
aI1
aI1
aa(lp142
I0
aI0
aI1
aI0
aI0
aI1
aI0
aI0
aI0
aI0
aI0
aI0
aI1
aI-1
aI1
aI1
aI1
aI1
aI0
aI0
aI0
aI0
aI1
aI0
aI0
aI0
aI0
aI0
aI0
aI0
aI0
aI0
aI0
aI0
aI0
aI0
aI0
aI0
aI0
aI0
aI0
aI0
aI0
aI0
aI0
aI0
aI0
aI0
aI0
aI0
aI0
aI0
aI0
aI0
aI0
aI0
aI0
aI0
aI0
aI0
aI0
aI0
aI0
aI0
aI0
aI1
aI1
aI1
aI1
aI1
aI1
aI1
aI1
aI1
aI1
aI1
aI1
aI1
aI1
aI1
aI1
aI1
aI1
aI1
aI1
aI1
aI1
aI1
aI1
aI1
aa(lp143
I0
aI0
aI1
aI0
aI0
aI1
aI0
aI0
aI0
aI0
aI0
aI0
aI1
aI-1
aI1
aI1
aI1
aI1
aI0
aI0
aI0
aI0
aI1
aI0
aI0
aI0
aI0
aI0
aI0
aI0
aI0
aI0
aI0
aI0
aI0
aI0
aI0
aI0
aI0
aI0
aI0
aI0
aI0
aI0
aI0
aI0
aI0
aI0
aI0
aI0
aI0
aI0
aI0
aI0
aI1
aI0
aI0
aI0
aI0
aI0
aI0
aI0
aI0
aI0
aI0
aI1
aI1
aI1
aI1
aI1
aI1
aI1
aI1
aI1
aI1
aI1
aI1
aI1
aI1
aI1
aI1
aI1
aI1
aI1
aI1
aI1
aI1
aI1
aI1
aI1
aa(lp144
I0
aI0
aI1
aI0
aI0
aI1
aI0
aI0
aI0
aI0
aI0
aI0
aI1
aI-1
aI1
aI1
aI1
aI1
aI0
aI0
aI0
aI0
aI1
aI0
aI0
aI0
aI0
aI0
aI0
aI0
aI0
aI0
aI0
aI0
aI0
aI0
aI0
aI0
aI0
aI0
aI0
aI0
aI0
aI0
aI0
aI0
aI0
aI0
aI0
aI0
aI0
aI0
aI0
aI0
aI1
aI0
aI0
aI0
aI0
aI0
aI0
aI0
aI0
aI0
aI0
aI1
aI1
aI1
aI1
aI1
aI1
aI1
aI1
aI1
aI1
aI1
aI1
aI1
aI1
aI1
aI1
aI1
aI1
aI1
aI1
aI1
aI1
aI1
aI1
aI1
aa(lp145
I0
aI0
aI1
aI0
aI0
aI1
aI0
aI0
aI0
aI0
aI0
aI0
aI1
aI-1
aI1
aI1
aI1
aI1
aI0
aI0
aI0
aI0
aI1
aI0
aI0
aI0
aI0
aI0
aI0
aI0
aI0
aI0
aI0
aI0
aI0
aI0
aI0
aI0
aI0
aI0
aI0
aI0
aI0
aI0
aI0
aI0
aI0
aI0
aI0
aI0
aI0
aI0
aI0
aI0
aI1
aI0
aI0
aI0
aI0
aI0
aI0
aI0
aI0
aI0
aI0
aI1
aI1
aI1
aI1
aI1
aI1
aI1
aI1
aI1
aI1
aI1
aI1
aI1
aI1
aI1
aI1
aI1
aI1
aI1
aI1
aI1
aI1
aI1
aI1
aI1
aa(lp146
tp147
sS'/'
p148
((lp149
(lp150
I1
aI0
aI0
aI0
aI0
aI1
aI0
aI0
aI0
aI0
aI0
aI0
aI-1
aI-1
aI1
aI-1
aI-1
aI-1
aI0
aI-1
aI0
aI0
aI1
aI0
aI0
aI0
aI1
aI0
aI1
aI1
aI0
aI0
aI0
aI0
aI0
aI0
aI0
aI0
aI0
aI0
aI0
aI0
aI0
aI0
aI0
aI0
aI0
aI0
aI0
aI0
aI0
aI0
aI0
aI0
aI0
aI0
aI0
aI0
aI0
aI0
aI0
aI0
aI0
aI0
aI0
aF0.09915303107686972
aF0.5660501279322816
aF0.5
aF0.5573136545024441
aF0.5
aF0.6715184734345465
aF0.6856960747265942
aF0.5
aF0.5966688280256184
aF0.55866543967563
aF0.6646337448295041
aF0.70838596586038
aF0.5692517375501781
aF0.5915279059953816
aF0.6610663602759543
aF0.5200612429987673
aF0.6017842064639691
aI0
aF0.6691822484205258
aF0.6867539380107647
aF0.639826351396688
aF0.7616003669075565
aF0.5555682321074484
aF0.6846835705702682
aF0.7085848622356106
aa(lp151
I1
aI0
aI0
aI0
aI1
aI0
aI0
aI0
aI0
aI0
aI0
aI0
aI-1
aI-1
aI-1
aI-1
aI-1
aI-1
aI-1
aI0
aI0
aI1
aI0
aI0
aI0
aI0
aI0
aI0
aI0
aI0
aI0
aI0
aI0
aI0
aI0
aI0
aI0
aI0
aI0
aI0
aI0
aI0
aI0
aI0
aI0
aI0
aI0
aI0
aI0
aI0
aI0
aI0
aI0
aI0
aI0
aI0
aI0
aI0
aI0
aI0
aI0
aI0
aI0
aI0
aI0
aF0.2509060962922141
aI0
aF0.5660501279322816
aF0.5762336016390824
aF0.607043828596713
aF0.5103864223005199
aF0.6052487446301636
aF0.5845182825732097
aF0.5702739089723219
aF0.5156285914792277
aF0.6731411659043034
aI1
aI1
aF0.5103864223005199
aI1
aF0.501152717616773
aF0.7043510771768892
aI1
aF0.6174869490372198
aI1
aI1
aF0.657070774851754
aF0.6483329760144455
aI1
aI1
aa(lp152
I0
aI0
aI1
aI0
aI1
aI0
aI0
aI0
aI0
aI0
aI0
aI0
aI-1
aI-1
aI-1
aI-1
aI0
aI-1
aI0
aI0
aI0
aI0
aI1
aI0
aI0
aI0
aI0
aI0
aI0
aI1
aI0
aI0
aI0
aI0
aI0
aI0
aI0
aI0
aI0
aI0
aI0
aI0
aI0
aI0
aI0
aI0
aI0
aI0
aI0
aI0
aI0
aI0
aI0
aI0
aI0
aI0
aI0
aI0
aI0
aI0
aI0
aI0
aI0
aI0
aI0
aF0.19913640292796592
aI0
aF0.5660501279322816
aF0.5762336016390824
aF0.607043828596713
aF0.5103864223005199
aF0.6052487446301636
aF0.5845182825732097
aF0.5702739089723219
aF0.5156285914792277
aF0.6731411659043034
aI1
aI1
aF0.5103864223005199
aI1
aF0.501152717616773
aF0.7043510771768892
aI1
aF0.6174869490372198
aI1
aI1
aF0.657070774851754
aF0.6483329760144455
aI1
aI1
aa(lp153
I0
aI0
aI1
aI0
aI0
aI1
aI0
aI0
aI0
aI0
aI0
aI0
aI-1
aI-1
aI1
aI-1
aI-1
aI-1
aI0
aI0
aI0
aI0
aI1
aI0
aI0
aI0
aI0
aI0
aI0
aI1
aI0
aI0
aI0
aI0
aI0
aI0
aI0
aI0
aI0
aI0
aI0
aI0
aI0
aI0
aI0
aI0
aI0
aI0
aI0
aI0
aI0
aI0
aI0
aI0
aI0
aI0
aI0
aI0
aI0
aI0
aI0
aI0
aI0
aI0
aI0
aI1
aI0
aF0.5660501279322816
aF0.5762336016390824
aF0.607043828596713
aF0.5103864223005199
aF0.6052487446301636
aF0.5845182825732097
aF0.5702739089723219
aF0.5156285914792277
aF0.6731411659043034
aI1
aI1
aF0.5103864223005199
aI1
aF0.501152717616773
aF0.7043510771768892
aI1
aF0.6174869490372198
aI1
aI1
aF0.657070774851754
aF0.6483329760144455
aI1
aI1
aa(lp154
I0
aI0
aI1
aI0
aI0
aI1
aI0
aI0
aI0
aI0
aI0
aI0
aI-1
aI-1
aI-1
aI-1
aI0
aI-1
aI0
aI-1
aI0
aI1
aI0
aI0
aI0
aI0
aI0
aI0
aI0
aI0
aI0
aI0
aI0
aI0
aI0
aI0
aI0
aI0
aI0
aI0
aI0
aI0
aI0
aI0
aI0
aI0
aI0
aI0
aI0
aI0
aI0
aI0
aI0
aI0
aI0
aI0
aI0
aI0
aI0
aI0
aI0
aI0
aI0
aI0
aI0
aI1
aI1
aI1
aI1
aI1
aI1
aI1
aI1
aI1
aI1
aI1
aI1
aI1
aI1
aI1
aI1
aI1
aI1
aI1
aI1
aI1
aI1
aI1
aI1
aI1
aa(lp155
I0
aI0
aI1
aI0
aI0
aI1
aI0
aI0
aI0
aI0
aI0
aI0
aI-1
aI-1
aI-1
aI-1
aI0
aI-1
aI0
aI0
aI0
aI1
aI0
aI0
aI0
aI0
aI0
aI0
aI0
aI0
aI0
aI0
aI0
aI0
aI0
aI0
aI0
aI0
aI0
aI0
aI0
aI0
aI0
aI0
aI0
aI0
aI0
aI0
aI0
aI0
aI0
aI0
aI0
aI0
aI0
aI0
aI0
aI0
aI0
aI0
aI0
aI0
aI0
aI0
aI0
aI1
aI1
aI1
aI1
aI1
aI1
aI1
aI1
aI1
aI1
aI1
aI1
aI1
aI1
aI1
aI1
aI1
aI1
aI1
aI1
aI1
aI1
aI1
aI1
aI1
aa(lp156
I0
aI1
aI0
aI0
aI0
aI1
aI0
aI0
aI0
aI0
aI0
aI0
aI-1
aI-1
aI-1
aI-1
aI0
aI1
aI-1
aI0
aI0
aI1
aI0
aI0
aI0
aI1
aI0
aI0
aI0
aI0
aI0
aI0
aI0
aI0
aI0
aI0
aI0
aI0
aI0
aI0
aI0
aI0
aI0
aI0
aI0
aI0
aI0
aI0
aI0
aI0
aI0
aI0
aI0
aI0
aI0
aI0
aI0
aI0
aI0
aI0
aI0
aI0
aI0
aI0
aI0
aI0
aI0
aF0.5660501279322816
aF0.5762336016390824
aF0.607043828596713
aF0.5103864223005199
aF0.6052487446301636
aF0.5845182825732097
aF0.5702739089723219
aF0.5156285914792277
aF0.6731411659043034
aI1
aI1
aF0.5103864223005199
aI1
aF0.501152717616773
aF0.7043510771768892
aI1
aF0.6174869490372198
aI1
aI1
aF0.657070774851754
aF0.6483329760144455
aI1
aI1
aa(lp157
I1
aI0
aI0
aI1
aI0
aI0
aI0
aI0
aI0
aI0
aI0
aI0
aI-1
aI-1
aI1
aI-1
aI1
aI-1
aI0
aI0
aI0
aI0
aI1
aI0
aI0
aI1
aI0
aI0
aI0
aI1
aI0
aI0
aI0
aI0
aI0
aI0
aI0
aI0
aI0
aI0
aI0
aI0
aI0
aI0
aI0
aI0
aI0
aI0
aI0
aI0
aI0
aI0
aI1
aI0
aI0
aI0
aI0
aI0
aI0
aI0
aI0
aI0
aI0
aI0
aI0
aI0
aI1
aI1
aI1
aF0.5023223663360854
aI1
aI1
aF0.5023223663360854
aF0.5023223663360854
aI1
aI1
aI1
aI1
aI1
aI1
aF0.5082847280143348
aF0.6620883212682176
aF0.6455180183176896
aI1
aI1
aI1
aI1
aI1
aI1
aI1
aa(lp158
I1
aI0
aI0
aI0
aI0
aI1
aI0
aI0
aI0
aI0
aI0
aI0
aI-1
aI-1
aI-1
aI-1
aI-1
aI-1
aI0
aI0
aI0
aI1
aI0
aI0
aI0
aI0
aI0
aI0
aI0
aI0
aI0
aI0
aI0
aI0
aI0
aI0
aI0
aI0
aI0
aI0
aI0
aI0
aI0
aI0
aI0
aI0
aI0
aI0
aI0
aI0
aI0
aI0
aI0
aI0
aI0
aI0
aI0
aI0
aI0
aI0
aI0
aI0
aI0
aI0
aI0
aI0
aF0.5845182825732097
aF0.5971645012810256
aF0.5978610422237052
aF0.6005089563982516
aF0.5932610443766647
aF0.6860546834990408
aF0.5
aF0.537400334164282
aF0.5996224245725965
aF0.6695795066263323
aF0.7337561755640776
aF0.6786725809971873
aF0.5719708940153925
aF0.661510102251099
aF0.5
aF0.6677323561083248
aF0.6517240794023947
aF0.6695648151519439
aF0.6698968709629716
aI1
aF0.7238483343453446
aF0.6989403363527006
aF0.6941650108405898
aF0.7528892630248
aa(lp159
I0
aI1
aI0
aI1
aI0
aI0
aI0
aI0
aI0
aI0
aI0
aI0
aI-1
aI-1
aI-1
aI-1
aI-1
aI1
aI0
aI-1
aI0
aI0
aI1
aI0
aI0
aI0
aI0
aI0
aI0
aI0
aI0
aI0
aI0
aI0
aI0
aI0
aI0
aI0
aI0
aI0
aI0
aI0
aI0
aI0
aI0
aI0
aI0
aI0
aI1
aI0
aI0
aI0
aI0
aI0
aI0
aI0
aI0
aI0
aI0
aI0
aI0
aI0
aI0
aI0
aI0
aI1
aF0.6295199343764678
aF0.6654199943083915
aF0.6143993718489528
aF0.7117339184626117
aF0.6960441798330615
aF0.7317868650899185
aF0.7117339184626117
aF0.6329172114635379
aF0.6935407040360415
aF0.592680890517563
aF0.6615482370441934
aF0.6822850709795933
aF0.5765845792276674
aI1
aF0.5827588645685897
aI1
aF0.6957435749493487
aF0.592680890517563
aF0.592680890517563
aI1
aF0.7303310189944987
aF0.7214235871879506
aF0.702096220265603
aF0.7580930111352171
aa(lp160
I1
aI0
aI0
aI1
aI0
aI0
aI0
aI0
aI0
aI0
aI0
aI0
aI-1
aI-1
aI-1
aI-1
aI-1
aI1
aI0
aI0
aI0
aI0
aI1
aI0
aI0
aI0
aI0
aI0
aI0
aI0
aI0
aI0
aI0
aI0
aI0
aI0
aI0
aI0
aI0
aI0
aI0
aI0
aI0
aI0
aI0
aI0
aI0
aI0
aI0
aI0
aI0
aI0
aI0
aI0
aI0
aI0
aI0
aI0
aI0
aI0
aI0
aI0
aI0
aI0
aI0
aF0.16552921271687415
aF0.5985595369212343
aF0.7071560293172395
aF0.7357380913167351
aF0.5
aF0.6812313358793016
aF0.5
aF0.6835970844564315
aF0.5
aF0.5536478860115014
aF0.5684377878187293
aF0.5677153949716309
aF0.6449681310230511
aF0.5
aI1
aF0.5
aF0.6628079019102971
aF0.6170691149786915
aF0.5811526154815995
aF0.5888468851187562
aF0.632541384841171
aF0.6266269683249848
aF0.5290505864618972
aF0.6833365654099733
aF0.7458677214587476
aa(lp161
I0
aI0
aI1
aI0
aI0
aI1
aI0
aI0
aI0
aI0
aI0
aI0
aI1
aI-1
aI-1
aI-1
aI0
aI1
aI0
aI0
aI0
aI0
aI1
aI0
aI0
aI0
aI1
aI0
aI0
aI0
aI0
aI0
aI0
aI0
aI0
aI0
aI0
aI0
aI0
aI0
aI0
aI0
aI0
aI0
aI0
aI0
aI0
aI0
aI0
aI0
aI0
aI0
aI0
aI0
aI0
aI0
aI0
aI0
aI0
aI0
aI0
aI0
aI0
aI0
aI0
aI0
aI0
aF0.5660501279322816
aF0.5762336016390824
aF0.607043828596713
aF0.5103864223005199
aF0.6052487446301636
aF0.5845182825732097
aF0.5702739089723219
aF0.5156285914792277
aF0.6731411659043034
aI1
aI1
aF0.5103864223005199
aI1
aF0.501152717616773
aF0.7043510771768892
aI1
aF0.6174869490372198
aI1
aI1
aF0.657070774851754
aF0.6483329760144455
aI1
aI1
aa(lp162
tp163
s.