(dp0
Vcoref
p1
(lp2
(lp3
(lp4
(lp5
Vher
p6
aI0
aI4
aI4
aI5
aa(lp7
VHalloween Debby
p8
aI0
aI2
aI1
aI3
aaa(lp9
(lp10
VDebby
p11
aI1
aI0
aI0
aI1
aa(lp12
VHalloween Debby
p13
aI0
aI2
aI1
aI3
aaa(lp14
(lp15
Vher
p16
aI1
aI7
aI7
aI8
aa(lp17
VHalloween Debby
p18
aI0
aI2
aI1
aI3
aaaa(lp19
(lp20
(lp21
Vthey
p22
aI0
aI9
aI9
aI10
aa(lp23
VHalloween Debby and her sister
p24
aI0
aI2
aI1
aI6
aaa(lp25
(lp26
Vthey
p27
aI2
aI1
aI1
aI2
aa(lp28
VHalloween Debby and her sister
p29
aI0
aI2
aI1
aI6
aaa(lp30
(lp31
Vthey
p32
aI2
aI13
aI13
aI14
aa(lp33
VHalloween Debby and her sister
p34
aI0
aI2
aI1
aI6
aaaa(lp35
(lp36
(lp37
Vher sister
p38
aI1
aI8
aI7
aI9
aa(lp39
Vher sister
p40
aI0
aI5
aI4
aI6
aaaasVsentences
p41
(lp42
(dp43
Vparsetree
p44
V(ROOT (S (SBAR (IN For) (S (NP (NP (NNP Halloween) (NNP Debby)) (CC and) (NP (PRP$ her) (NN sister))) (VP (VBD combined) (NP (DT the) (NN candy))))) (NP (PRP they)) (VP (VBD received)) (. .)))
p45
sVtext
p46
VFor Halloween Debby and her sister combined the candy they received .
p47
sVdependencies
p48
(lp49
(lp50
Vroot
p51
aVROOT
p52
aVreceived
p53
aa(lp54
Vmark
p55
aVcombined
p56
aVFor
p57
aa(lp58
Vnn
p59
aVDebby
p60
aVHalloween
p61
aa(lp62
Vnsubj
p63
aVcombined
p64
aVDebby
p65
aa(lp66
Vposs
p67
aVsister
p68
aVher
p69
aa(lp70
Vconj_and
p71
aVDebby
p72
aVsister
p73
aa(lp74
Vadvcl
p75
aVreceived
p76
aVcombined
p77
aa(lp78
Vdet
p79
aVcandy
p80
aVthe
p81
aa(lp82
Vdobj
p83
aVcombined
p84
aVcandy
p85
aa(lp86
Vnsubj
p87
aVreceived
p88
aVthey
p89
aasVwords
p90
(lp91
(lp92
VFor
p93
a(dp94
VNamedEntityTag
p95
VO
p96
sVCharacterOffsetEnd
p97
V4
p98
sVCharacterOffsetBegin
p99
V1
p100
sVPartOfSpeech
p101
VIN
p102
sVLemma
p103
Vfor
p104
saa(lp105
VHalloween
p106
a(dp107
VTimex
p108
V<TIMEX3 tid="t1" type="DATE" value="XXXX-10-31">Halloween</TIMEX3>
p109
sVCharacterOffsetEnd
p110
V14
p111
sVLemma
p112
VHalloween
p113
sVPartOfSpeech
p114
VNNP
p115
sVCharacterOffsetBegin
p116
V5
p117
sVNamedEntityTag
p118
VPERSON
p119
saa(lp120
VDebby
p121
a(dp122
VNamedEntityTag
p123
VPERSON
p124
sVCharacterOffsetEnd
p125
V20
p126
sVCharacterOffsetBegin
p127
V15
p128
sVPartOfSpeech
p129
VNNP
p130
sVLemma
p131
VDebby
p132
saa(lp133
Vand
p134
a(dp135
VNamedEntityTag
p136
g96
sVCharacterOffsetEnd
p137
V24
p138
sVCharacterOffsetBegin
p139
V21
p140
sVPartOfSpeech
p141
VCC
p142
sVLemma
p143
Vand
p144
saa(lp145
Vher
p146
a(dp147
VNamedEntityTag
p148
g96
sVCharacterOffsetEnd
p149
V28
p150
sVCharacterOffsetBegin
p151
V25
p152
sVPartOfSpeech
p153
VPRP$
p154
sVLemma
p155
Vshe
p156
saa(lp157
Vsister
p158
a(dp159
VNamedEntityTag
p160
g96
sVCharacterOffsetEnd
p161
V35
p162
sVCharacterOffsetBegin
p163
V29
p164
sVPartOfSpeech
p165
VNN
p166
sVLemma
p167
Vsister
p168
saa(lp169
Vcombined
p170
a(dp171
VNamedEntityTag
p172
g96
sVCharacterOffsetEnd
p173
V44
p174
sVCharacterOffsetBegin
p175
V36
p176
sVPartOfSpeech
p177
VVBD
p178
sVLemma
p179
Vcombine
p180
saa(lp181
Vthe
p182
a(dp183
VNamedEntityTag
p184
g96
sVCharacterOffsetEnd
p185
V48
p186
sVCharacterOffsetBegin
p187
V45
p188
sVPartOfSpeech
p189
VDT
p190
sVLemma
p191
Vthe
p192
saa(lp193
Vcandy
p194
a(dp195
VNamedEntityTag
p196
g96
sVCharacterOffsetEnd
p197
V54
p198
sVCharacterOffsetBegin
p199
V49
p200
sVPartOfSpeech
p201
VNN
p202
sVLemma
p203
Vcandy
p204
saa(lp205
Vthey
p206
a(dp207
VNamedEntityTag
p208
g96
sVCharacterOffsetEnd
p209
V59
p210
sVCharacterOffsetBegin
p211
V55
p212
sVPartOfSpeech
p213
VPRP
p214
sVLemma
p215
Vthey
p216
saa(lp217
Vreceived
p218
a(dp219
VNamedEntityTag
p220
g96
sVCharacterOffsetEnd
p221
V68
p222
sVCharacterOffsetBegin
p223
V60
p224
sVPartOfSpeech
p225
VVBD
p226
sVLemma
p227
Vreceive
p228
saa(lp229
V.
p230
a(dp231
VNamedEntityTag
p232
g96
sVCharacterOffsetEnd
p233
V70
p234
sVCharacterOffsetBegin
p235
V69
p236
sVPartOfSpeech
p237
g230
sVLemma
p238
g230
saasVindexeddependencies
p239
(lp240
(lp241
Vroot
p242
aVROOT-0
p243
aVreceived-11
p244
aa(lp245
Vmark
p246
aVcombined-7
p247
aVFor-1
p248
aa(lp249
Vnn
p250
aVDebby-3
p251
aVHalloween-2
p252
aa(lp253
Vnsubj
p254
aVcombined-7
p255
aVDebby-3
p256
aa(lp257
Vposs
p258
aVsister-6
p259
aVher-5
p260
aa(lp261
Vconj_and
p262
aVDebby-3
p263
aVsister-6
p264
aa(lp265
Vadvcl
p266
aVreceived-11
p267
aVcombined-7
p268
aa(lp269
Vdet
p270
aVcandy-9
p271
aVthe-8
p272
aa(lp273
Vdobj
p274
aVcombined-7
p275
aVcandy-9
p276
aa(lp277
Vnsubj
p278
aVreceived-11
p279
aVthey-10
p280
aasa(dp281
Vparsetree
p282
V(ROOT (S (NP (NNP Debby)) (VP (VBD had) (NP (NP (CD 32) (NNS pieces)) (PP (IN of) (NP (NN candy)))) (SBAR (IN while) (S (NP (PRP$ her) (NN sister)) (VP (VBD had) (NP (CD 42)))))) (. .)))
p283
sVtext
p284
VDebby had 32 pieces of candy while her sister had 42 .
p285
sVdependencies
p286
(lp287
(lp288
Vroot
p289
aVROOT
p290
aVhad
p291
aa(lp292
Vnsubj
p293
aVhad
p294
aVDebby
p295
aa(lp296
Vnum
p297
aVpieces
p298
aV32
p299
aa(lp300
Vdobj
p301
aVhad
p302
aVpieces
p303
aa(lp304
Vprep_of
p305
aVpieces
p306
aVcandy
p307
aa(lp308
Vmark
p309
aVhad
p310
aVwhile
p311
aa(lp312
Vposs
p313
aVsister
p314
aVher
p315
aa(lp316
Vnsubj
p317
aVhad
p318
aVsister
p319
aa(lp320
Vadvcl
p321
aVhad
p322
aVhad
p323
aa(lp324
Vdobj
p325
aVhad
p326
aV42
p327
aasVwords
p328
(lp329
(lp330
VDebby
p331
a(dp332
VNamedEntityTag
p333
VPERSON
p334
sVCharacterOffsetEnd
p335
V76
p336
sVCharacterOffsetBegin
p337
V71
p338
sVPartOfSpeech
p339
VNNP
p340
sVLemma
p341
VDebby
p342
saa(lp343
Vhad
p344
a(dp345
VNamedEntityTag
p346
g96
sVCharacterOffsetEnd
p347
V80
p348
sVCharacterOffsetBegin
p349
V77
p350
sVPartOfSpeech
p351
VVBD
p352
sVLemma
p353
Vhave
p354
saa(lp355
V32
p356
a(dp357
VNormalizedNamedEntityTag
p358
V32.0
p359
sVLemma
p360
V32
p361
sVCharacterOffsetEnd
p362
V83
p363
sVPartOfSpeech
p364
VCD
p365
sVCharacterOffsetBegin
p366
V81
p367
sVNamedEntityTag
p368
VNUMBER
p369
saa(lp370
Vpieces
p371
a(dp372
VNamedEntityTag
p373
g96
sVCharacterOffsetEnd
p374
V90
p375
sVCharacterOffsetBegin
p376
V84
p377
sVPartOfSpeech
p378
VNNS
p379
sVLemma
p380
Vpiece
p381
saa(lp382
Vof
p383
a(dp384
VNamedEntityTag
p385
g96
sVCharacterOffsetEnd
p386
V93
p387
sVCharacterOffsetBegin
p388
V91
p389
sVPartOfSpeech
p390
VIN
p391
sVLemma
p392
Vof
p393
saa(lp394
Vcandy
p395
a(dp396
VNamedEntityTag
p397
g96
sVCharacterOffsetEnd
p398
V99
p399
sVCharacterOffsetBegin
p400
V94
p401
sVPartOfSpeech
p402
VNN
p403
sVLemma
p404
Vcandy
p405
saa(lp406
Vwhile
p407
a(dp408
VNamedEntityTag
p409
g96
sVCharacterOffsetEnd
p410
V105
p411
sVCharacterOffsetBegin
p412
V100
p413
sVPartOfSpeech
p414
VIN
p415
sVLemma
p416
Vwhile
p417
saa(lp418
Vher
p419
a(dp420
VNamedEntityTag
p421
g96
sVCharacterOffsetEnd
p422
V109
p423
sVCharacterOffsetBegin
p424
V106
p425
sVPartOfSpeech
p426
VPRP$
p427
sVLemma
p428
Vshe
p429
saa(lp430
Vsister
p431
a(dp432
VNamedEntityTag
p433
g96
sVCharacterOffsetEnd
p434
V116
p435
sVCharacterOffsetBegin
p436
V110
p437
sVPartOfSpeech
p438
VNN
p439
sVLemma
p440
Vsister
p441
saa(lp442
Vhad
p443
a(dp444
VNamedEntityTag
p445
g96
sVCharacterOffsetEnd
p446
V120
p447
sVCharacterOffsetBegin
p448
V117
p449
sVPartOfSpeech
p450
VVBD
p451
sVLemma
p452
Vhave
p453
saa(lp454
V42
p455
a(dp456
VNormalizedNamedEntityTag
p457
V42.0
p458
sVLemma
p459
V42
p460
sVCharacterOffsetEnd
p461
V123
p462
sVPartOfSpeech
p463
VCD
p464
sVCharacterOffsetBegin
p465
V121
p466
sVNamedEntityTag
p467
VNUMBER
p468
saa(lp469
g230
a(dp470
VNamedEntityTag
p471
g96
sVCharacterOffsetEnd
p472
V125
p473
sVCharacterOffsetBegin
p474
V124
p475
sVPartOfSpeech
p476
g230
sVLemma
p477
g230
saasVindexeddependencies
p478
(lp479
(lp480
Vroot
p481
aVROOT-0
p482
aVhad-2
p483
aa(lp484
Vnsubj
p485
aVhad-2
p486
aVDebby-1
p487
aa(lp488
Vnum
p489
aVpieces-4
p490
aV32-3
p491
aa(lp492
Vdobj
p493
aVhad-2
p494
aVpieces-4
p495
aa(lp496
Vprep_of
p497
aVpieces-4
p498
aVcandy-6
p499
aa(lp500
Vmark
p501
aVhad-10
p502
aVwhile-7
p503
aa(lp504
Vposs
p505
aVsister-9
p506
aVher-8
p507
aa(lp508
Vnsubj
p509
aVhad-10
p510
aVsister-9
p511
aa(lp512
Vadvcl
p513
aVhad-2
p514
aVhad-10
p515
aa(lp516
Vdobj
p517
aVhad-10
p518
aV42-11
p519
aasa(dp520
Vparsetree
p521
V(ROOT (SBARQ (SBAR (IN If) (S (NP (PRP they)) (VP (VBD ate) (NP (CD 35) (NNS pieces)) (NP-TMP (DT the) (JJ first) (NN night))))) (, ,) (WHNP (WHADJP (WRB how) (JJ many)) (NNS pieces)) (SQ (VBP do) (NP (PRP they)) (VP (VBP have) (VP (VBN left)))) (. ?)))
p522
sVtext
p523
VIf they ate 35 pieces the first night , how many pieces do they have left ?
p524
sVdependencies
p525
(lp526
(lp527
Vroot
p528
aVROOT
p529
aVleft
p530
aa(lp531
Vmark
p532
aVate
p533
aVIf
p534
aa(lp535
Vnsubj
p536
aVate
p537
aVthey
p538
aa(lp539
Vadvcl
p540
aVleft
p541
aVate
p542
aa(lp543
Vnum
p544
aVpieces
p545
aV35
p546
aa(lp547
Vdobj
p548
aVate
p549
aVpieces
p550
aa(lp551
Vdet
p552
aVnight
p553
aVthe
p554
aa(lp555
Vamod
p556
aVnight
p557
aVfirst
p558
aa(lp559
Vtmod
p560
aVate
p561
aVnight
p562
aa(lp563
Vadvmod
p564
aVmany
p565
aVhow
p566
aa(lp567
Vamod
p568
aVpieces
p569
aVmany
p570
aa(lp571
Vdobj
p572
aVleft
p573
aVpieces
p574
aa(lp575
Vaux
p576
aVleft
p577
aVdo
p578
aa(lp579
Vnsubj
p580
aVleft
p581
aVthey
p582
aa(lp583
Vaux
p584
aVleft
p585
aVhave
p586
aasVwords
p587
(lp588
(lp589
VIf
p590
a(dp591
VNamedEntityTag
p592
g96
sVCharacterOffsetEnd
p593
V128
p594
sVCharacterOffsetBegin
p595
V126
p596
sVPartOfSpeech
p597
VIN
p598
sVLemma
p599
Vif
p600
saa(lp601
Vthey
p602
a(dp603
VNamedEntityTag
p604
g96
sVCharacterOffsetEnd
p605
V133
p606
sVCharacterOffsetBegin
p607
V129
p608
sVPartOfSpeech
p609
VPRP
p610
sVLemma
p611
Vthey
p612
saa(lp613
Vate
p614
a(dp615
VNamedEntityTag
p616
g96
sVCharacterOffsetEnd
p617
V137
p618
sVCharacterOffsetBegin
p619
V134
p620
sVPartOfSpeech
p621
VVBD
p622
sVLemma
p623
Veat
p624
saa(lp625
V35
p626
a(dp627
VNormalizedNamedEntityTag
p628
V35.0
p629
sVLemma
p630
V35
p631
sVCharacterOffsetEnd
p632
V140
p633
sVPartOfSpeech
p634
VCD
p635
sVCharacterOffsetBegin
p636
V138
p637
sVNamedEntityTag
p638
VNUMBER
p639
saa(lp640
Vpieces
p641
a(dp642
VNamedEntityTag
p643
g96
sVCharacterOffsetEnd
p644
V147
p645
sVCharacterOffsetBegin
p646
V141
p647
sVPartOfSpeech
p648
VNNS
p649
sVLemma
p650
Vpiece
p651
saa(lp652
Vthe
p653
a(dp654
VNamedEntityTag
p655
g96
sVCharacterOffsetEnd
p656
V151
p657
sVCharacterOffsetBegin
p658
V148
p659
sVPartOfSpeech
p660
VDT
p661
sVLemma
p662
Vthe
p663
saa(lp664
Vfirst
p665
a(dp666
VNormalizedNamedEntityTag
p667
V1.0
p668
sVLemma
p669
Vfirst
p670
sVCharacterOffsetEnd
p671
V157
p672
sVPartOfSpeech
p673
VJJ
p674
sVCharacterOffsetBegin
p675
V152
p676
sVNamedEntityTag
p677
VORDINAL
p678
saa(lp679
Vnight
p680
a(dp681
VNormalizedNamedEntityTag
p682
VTNI
p683
sVTimex
p684
V<TIMEX3 tid="t2" type="TIME" value="TNI">night</TIMEX3>
p685
sVLemma
p686
Vnight
p687
sVCharacterOffsetEnd
p688
V163
p689
sVPartOfSpeech
p690
VNN
p691
sVCharacterOffsetBegin
p692
V158
p693
sVNamedEntityTag
p694
VTIME
p695
saa(lp696
V,
p697
a(dp698
VNamedEntityTag
p699
g96
sVCharacterOffsetEnd
p700
V165
p701
sVCharacterOffsetBegin
p702
V164
p703
sVPartOfSpeech
p704
g697
sVLemma
p705
g697
saa(lp706
Vhow
p707
a(dp708
VNamedEntityTag
p709
g96
sVCharacterOffsetEnd
p710
V169
p711
sVCharacterOffsetBegin
p712
V166
p713
sVPartOfSpeech
p714
VWRB
p715
sVLemma
p716
Vhow
p717
saa(lp718
Vmany
p719
a(dp720
VNamedEntityTag
p721
g96
sVCharacterOffsetEnd
p722
V174
p723
sVCharacterOffsetBegin
p724
V170
p725
sVPartOfSpeech
p726
VJJ
p727
sVLemma
p728
Vmany
p729
saa(lp730
Vpieces
p731
a(dp732
VNamedEntityTag
p733
g96
sVCharacterOffsetEnd
p734
V181
p735
sVCharacterOffsetBegin
p736
V175
p737
sVPartOfSpeech
p738
VNNS
p739
sVLemma
p740
Vpiece
p741
saa(lp742
Vdo
p743
a(dp744
VNamedEntityTag
p745
g96
sVCharacterOffsetEnd
p746
V184
p747
sVCharacterOffsetBegin
p748
V182
p749
sVPartOfSpeech
p750
VVBP
p751
sVLemma
p752
Vdo
p753
saa(lp754
Vthey
p755
a(dp756
VNamedEntityTag
p757
g96
sVCharacterOffsetEnd
p758
V189
p759
sVCharacterOffsetBegin
p760
V185
p761
sVPartOfSpeech
p762
VPRP
p763
sVLemma
p764
Vthey
p765
saa(lp766
Vhave
p767
a(dp768
VNamedEntityTag
p769
g96
sVCharacterOffsetEnd
p770
V194
p771
sVCharacterOffsetBegin
p772
V190
p773
sVPartOfSpeech
p774
VVBP
p775
sVLemma
p776
Vhave
p777
saa(lp778
Vleft
p779
a(dp780
VNamedEntityTag
p781
g96
sVCharacterOffsetEnd
p782
V199
p783
sVCharacterOffsetBegin
p784
V195
p785
sVPartOfSpeech
p786
VVBN
p787
sVLemma
p788
Vleave
p789
saa(lp790
V?
p791
a(dp792
VNamedEntityTag
p793
g96
sVCharacterOffsetEnd
p794
V201
p795
sVCharacterOffsetBegin
p796
V200
p797
sVPartOfSpeech
p798
g230
sVLemma
p799
g791
saasVindexeddependencies
p800
(lp801
(lp802
Vroot
p803
aVROOT-0
p804
aVleft-16
p805
aa(lp806
Vmark
p807
aVate-3
p808
aVIf-1
p809
aa(lp810
Vnsubj
p811
aVate-3
p812
aVthey-2
p813
aa(lp814
Vadvcl
p815
aVleft-16
p816
aVate-3
p817
aa(lp818
Vnum
p819
aVpieces-5
p820
aV35-4
p821
aa(lp822
Vdobj
p823
aVate-3
p824
aVpieces-5
p825
aa(lp826
Vdet
p827
aVnight-8
p828
aVthe-6
p829
aa(lp830
Vamod
p831
aVnight-8
p832
aVfirst-7
p833
aa(lp834
Vtmod
p835
aVate-3
p836
aVnight-8
p837
aa(lp838
Vadvmod
p839
aVmany-11
p840
aVhow-10
p841
aa(lp842
Vamod
p843
aVpieces-12
p844
aVmany-11
p845
aa(lp846
Vdobj
p847
aVleft-16
p848
aVpieces-12
p849
aa(lp850
Vaux
p851
aVleft-16
p852
aVdo-13
p853
aa(lp854
Vnsubj
p855
aVleft-16
p856
aVthey-14
p857
aa(lp858
Vaux
p859
aVleft-16
p860
aVhave-15
p861
aasas.