(dp0
Vsentences
p1
(lp2
(dp3
Vparsetree
p4
V(ROOT (S (NP (DT The) (NN state) (NN transportation) (NN commission)) (VP (VBN counted) (NP (NP (NNS cars)) (VP (VBG traveling) (ADVP (JJ east) (CC and) (JJ west)) (PP (IN across) (NP (DT a) (NN toll) (NN bridge)))))) (. .)))
p5
sVtext
p6
VThe state transportation commission counted cars traveling east and west across a toll bridge .
p7
sVdependencies
p8
(lp9
(lp10
Vroot
p11
aVROOT
p12
aVcounted
p13
aa(lp14
Vdet
p15
aVcommission
p16
aVThe
p17
aa(lp18
Vnn
p19
aVcommission
p20
aVstate
p21
aa(lp22
Vnn
p23
aVcommission
p24
aVtransportation
p25
aa(lp26
Vnsubj
p27
aVcounted
p28
aVcommission
p29
aa(lp30
Vdobj
p31
aVcounted
p32
aVcars
p33
aa(lp34
Vvmod
p35
aVcars
p36
aVtraveling
p37
aa(lp38
Vadvmod
p39
aVtraveling
p40
aVeast
p41
aa(lp42
Vconj_and
p43
aVeast
p44
aVwest
p45
aa(lp46
Vdet
p47
aVbridge
p48
aVa
p49
aa(lp50
Vnn
p51
aVbridge
p52
aVtoll
p53
aa(lp54
Vprep_across
p55
aVtraveling
p56
aVbridge
p57
aasVwords
p58
(lp59
(lp60
VThe
p61
a(dp62
VNamedEntityTag
p63
VO
p64
sVCharacterOffsetEnd
p65
V4
p66
sVCharacterOffsetBegin
p67
V1
p68
sVPartOfSpeech
p69
VDT
p70
sVLemma
p71
Vthe
p72
saa(lp73
Vstate
p74
a(dp75
VNamedEntityTag
p76
g64
sVCharacterOffsetEnd
p77
V10
p78
sVCharacterOffsetBegin
p79
V5
p80
sVPartOfSpeech
p81
VNN
p82
sVLemma
p83
Vstate
p84
saa(lp85
Vtransportation
p86
a(dp87
VNamedEntityTag
p88
g64
sVCharacterOffsetEnd
p89
V25
p90
sVCharacterOffsetBegin
p91
V11
p92
sVPartOfSpeech
p93
VNN
p94
sVLemma
p95
Vtransportation
p96
saa(lp97
Vcommission
p98
a(dp99
VNamedEntityTag
p100
g64
sVCharacterOffsetEnd
p101
V36
p102
sVCharacterOffsetBegin
p103
V26
p104
sVPartOfSpeech
p105
VNN
p106
sVLemma
p107
Vcommission
p108
saa(lp109
Vcounted
p110
a(dp111
VNamedEntityTag
p112
g64
sVCharacterOffsetEnd
p113
V44
p114
sVCharacterOffsetBegin
p115
V37
p116
sVPartOfSpeech
p117
VVBN
p118
sVLemma
p119
Vcount
p120
saa(lp121
Vcars
p122
a(dp123
VNamedEntityTag
p124
g64
sVCharacterOffsetEnd
p125
V49
p126
sVCharacterOffsetBegin
p127
V45
p128
sVPartOfSpeech
p129
VNNS
p130
sVLemma
p131
Vcar
p132
saa(lp133
Vtraveling
p134
a(dp135
VNamedEntityTag
p136
g64
sVCharacterOffsetEnd
p137
V59
p138
sVCharacterOffsetBegin
p139
V50
p140
sVPartOfSpeech
p141
VVBG
p142
sVLemma
p143
Vtravel
p144
saa(lp145
Veast
p146
a(dp147
VNamedEntityTag
p148
g64
sVCharacterOffsetEnd
p149
V64
p150
sVCharacterOffsetBegin
p151
V60
p152
sVPartOfSpeech
p153
VJJ
p154
sVLemma
p155
Veast
p156
saa(lp157
Vand
p158
a(dp159
VNamedEntityTag
p160
g64
sVCharacterOffsetEnd
p161
V68
p162
sVCharacterOffsetBegin
p163
V65
p164
sVPartOfSpeech
p165
VCC
p166
sVLemma
p167
Vand
p168
saa(lp169
Vwest
p170
a(dp171
VNamedEntityTag
p172
g64
sVCharacterOffsetEnd
p173
V73
p174
sVCharacterOffsetBegin
p175
V69
p176
sVPartOfSpeech
p177
VJJ
p178
sVLemma
p179
Vwest
p180
saa(lp181
Vacross
p182
a(dp183
VNamedEntityTag
p184
g64
sVCharacterOffsetEnd
p185
V80
p186
sVCharacterOffsetBegin
p187
V74
p188
sVPartOfSpeech
p189
VIN
p190
sVLemma
p191
Vacross
p192
saa(lp193
g49
a(dp194
VNamedEntityTag
p195
g64
sVCharacterOffsetEnd
p196
V82
p197
sVCharacterOffsetBegin
p198
V81
p199
sVPartOfSpeech
p200
VDT
p201
sVLemma
p202
g49
saa(lp203
Vtoll
p204
a(dp205
VNamedEntityTag
p206
g64
sVCharacterOffsetEnd
p207
V87
p208
sVCharacterOffsetBegin
p209
V83
p210
sVPartOfSpeech
p211
VNN
p212
sVLemma
p213
Vtoll
p214
saa(lp215
Vbridge
p216
a(dp217
VNamedEntityTag
p218
g64
sVCharacterOffsetEnd
p219
V94
p220
sVCharacterOffsetBegin
p221
V88
p222
sVPartOfSpeech
p223
VNN
p224
sVLemma
p225
Vbridge
p226
saa(lp227
V.
p228
a(dp229
VNamedEntityTag
p230
g64
sVCharacterOffsetEnd
p231
V96
p232
sVCharacterOffsetBegin
p233
V95
p234
sVPartOfSpeech
p235
g228
sVLemma
p236
g228
saasVindexeddependencies
p237
(lp238
(lp239
Vroot
p240
aVROOT-0
p241
aVcounted-5
p242
aa(lp243
Vdet
p244
aVcommission-4
p245
aVThe-1
p246
aa(lp247
Vnn
p248
aVcommission-4
p249
aVstate-2
p250
aa(lp251
Vnn
p252
aVcommission-4
p253
aVtransportation-3
p254
aa(lp255
Vnsubj
p256
aVcounted-5
p257
aVcommission-4
p258
aa(lp259
Vdobj
p260
aVcounted-5
p261
aVcars-6
p262
aa(lp263
Vvmod
p264
aVcars-6
p265
aVtraveling-7
p266
aa(lp267
Vadvmod
p268
aVtraveling-7
p269
aVeast-8
p270
aa(lp271
Vconj_and
p272
aVeast-8
p273
aVwest-10
p274
aa(lp275
Vdet
p276
aVbridge-14
p277
aVa-12
p278
aa(lp279
Vnn
p280
aVbridge-14
p281
aVtoll-13
p282
aa(lp283
Vprep_across
p284
aVtraveling-7
p285
aVbridge-14
p286
aasa(dp287
Vparsetree
p288
V(ROOT (S (NP (NP (CD 0.3) (NNS times)) (PP (IN of) (NP (NP (DT the) (CD 100) (NNS cars)) (VP (VBN counted))))) (VP (VBD were) (VP (VBG traveling) (ADVP (JJ east)))) (. .)))
p289
sVtext
p290
V0.3 times of the 100 cars counted were traveling east .
p291
sVdependencies
p292
(lp293
(lp294
Vroot
p295
aVROOT
p296
aVtraveling
p297
aa(lp298
Vnum
p299
aVtimes
p300
aV0.3
p301
aa(lp302
Vnsubj
p303
aVtraveling
p304
aVtimes
p305
aa(lp306
Vdet
p307
aVcars
p308
aVthe
p309
aa(lp310
Vnum
p311
aVcars
p312
aV100
p313
aa(lp314
Vprep_of
p315
aVtimes
p316
aVcars
p317
aa(lp318
Vvmod
p319
aVcars
p320
aVcounted
p321
aa(lp322
Vaux
p323
aVtraveling
p324
aVwere
p325
aa(lp326
Vadvmod
p327
aVtraveling
p328
aVeast
p329
aasVwords
p330
(lp331
(lp332
V0.3
p333
a(dp334
VNormalizedNamedEntityTag
p335
V0.3
p336
sVLemma
p337
V0.3
p338
sVCharacterOffsetEnd
p339
V100
p340
sVPartOfSpeech
p341
VCD
p342
sVCharacterOffsetBegin
p343
V97
p344
sVNamedEntityTag
p345
VNUMBER
p346
saa(lp347
Vtimes
p348
a(dp349
VNamedEntityTag
p350
g64
sVCharacterOffsetEnd
p351
V106
p352
sVCharacterOffsetBegin
p353
V101
p354
sVPartOfSpeech
p355
VNNS
p356
sVLemma
p357
Vtime
p358
saa(lp359
Vof
p360
a(dp361
VNamedEntityTag
p362
g64
sVCharacterOffsetEnd
p363
V109
p364
sVCharacterOffsetBegin
p365
V107
p366
sVPartOfSpeech
p367
VIN
p368
sVLemma
p369
Vof
p370
saa(lp371
Vthe
p372
a(dp373
VNamedEntityTag
p374
g64
sVCharacterOffsetEnd
p375
V113
p376
sVCharacterOffsetBegin
p377
V110
p378
sVPartOfSpeech
p379
VDT
p380
sVLemma
p381
Vthe
p382
saa(lp383
V100
p384
a(dp385
VNormalizedNamedEntityTag
p386
V100.0
p387
sVLemma
p388
V100
p389
sVCharacterOffsetEnd
p390
V117
p391
sVPartOfSpeech
p392
VCD
p393
sVCharacterOffsetBegin
p394
V114
p395
sVNamedEntityTag
p396
VNUMBER
p397
saa(lp398
Vcars
p399
a(dp400
VNamedEntityTag
p401
g64
sVCharacterOffsetEnd
p402
V122
p403
sVCharacterOffsetBegin
p404
V118
p405
sVPartOfSpeech
p406
VNNS
p407
sVLemma
p408
Vcar
p409
saa(lp410
Vcounted
p411
a(dp412
VNamedEntityTag
p413
g64
sVCharacterOffsetEnd
p414
V130
p415
sVCharacterOffsetBegin
p416
V123
p417
sVPartOfSpeech
p418
VVBN
p419
sVLemma
p420
Vcount
p421
saa(lp422
Vwere
p423
a(dp424
VNamedEntityTag
p425
g64
sVCharacterOffsetEnd
p426
V135
p427
sVCharacterOffsetBegin
p428
V131
p429
sVPartOfSpeech
p430
VVBD
p431
sVLemma
p432
Vbe
p433
saa(lp434
Vtraveling
p435
a(dp436
VNamedEntityTag
p437
g64
sVCharacterOffsetEnd
p438
V145
p439
sVCharacterOffsetBegin
p440
V136
p441
sVPartOfSpeech
p442
VVBG
p443
sVLemma
p444
Vtravel
p445
saa(lp446
Veast
p447
a(dp448
VNamedEntityTag
p449
g64
sVCharacterOffsetEnd
p450
V150
p451
sVCharacterOffsetBegin
p452
V146
p453
sVPartOfSpeech
p454
VJJ
p455
sVLemma
p456
Veast
p457
saa(lp458
g228
a(dp459
VNamedEntityTag
p460
g64
sVCharacterOffsetEnd
p461
V152
p462
sVCharacterOffsetBegin
p463
V151
p464
sVPartOfSpeech
p465
g228
sVLemma
p466
g228
saasVindexeddependencies
p467
(lp468
(lp469
Vroot
p470
aVROOT-0
p471
aVtraveling-9
p472
aa(lp473
Vnum
p474
aVtimes-2
p475
aV0.3-1
p476
aa(lp477
Vnsubj
p478
aVtraveling-9
p479
aVtimes-2
p480
aa(lp481
Vdet
p482
aVcars-6
p483
aVthe-4
p484
aa(lp485
Vnum
p486
aVcars-6
p487
aV100-5
p488
aa(lp489
Vprep_of
p490
aVtimes-2
p491
aVcars-6
p492
aa(lp493
Vvmod
p494
aVcars-6
p495
aVcounted-7
p496
aa(lp497
Vaux
p498
aVtraveling-9
p499
aVwere-8
p500
aa(lp501
Vadvmod
p502
aVtraveling-9
p503
aVeast-10
p504
aasa(dp505
Vparsetree
p506
V(ROOT (SBARQ (WHNP (WHADJP (WRB How) (JJ many)) (ADJP (JJ eastbound)) (NNS cars)) (SQ (VP (VBD did) (NP (DT the) (NN commission) (NN count)))) (. ?)))
p507
sVtext
p508
VHow many eastbound cars did the commission count ?
p509
sVdependencies
p510
(lp511
(lp512
Vroot
p513
aVROOT
p514
aVdid
p515
aa(lp516
Vadvmod
p517
aVmany
p518
aVHow
p519
aa(lp520
Vamod
p521
aVcars
p522
aVmany
p523
aa(lp524
Vamod
p525
aVcars
p526
aVeastbound
p527
aa(lp528
Vnsubj
p529
aVdid
p530
aVcars
p531
aa(lp532
Vdet
p533
aVcount
p534
aVthe
p535
aa(lp536
Vnn
p537
aVcount
p538
aVcommission
p539
aa(lp540
Vdobj
p541
aVdid
p542
aVcount
p543
aasVwords
p544
(lp545
(lp546
VHow
p547
a(dp548
VNamedEntityTag
p549
g64
sVCharacterOffsetEnd
p550
V156
p551
sVCharacterOffsetBegin
p552
V153
p553
sVPartOfSpeech
p554
VWRB
p555
sVLemma
p556
Vhow
p557
saa(lp558
Vmany
p559
a(dp560
VNamedEntityTag
p561
g64
sVCharacterOffsetEnd
p562
V161
p563
sVCharacterOffsetBegin
p564
V157
p565
sVPartOfSpeech
p566
VJJ
p567
sVLemma
p568
Vmany
p569
saa(lp570
Veastbound
p571
a(dp572
VNamedEntityTag
p573
g64
sVCharacterOffsetEnd
p574
V171
p575
sVCharacterOffsetBegin
p576
V162
p577
sVPartOfSpeech
p578
VJJ
p579
sVLemma
p580
Veastbound
p581
saa(lp582
Vcars
p583
a(dp584
VNamedEntityTag
p585
g64
sVCharacterOffsetEnd
p586
V176
p587
sVCharacterOffsetBegin
p588
V172
p589
sVPartOfSpeech
p590
VNNS
p591
sVLemma
p592
Vcar
p593
saa(lp594
Vdid
p595
a(dp596
VNamedEntityTag
p597
g64
sVCharacterOffsetEnd
p598
V180
p599
sVCharacterOffsetBegin
p600
V177
p601
sVPartOfSpeech
p602
VVBD
p603
sVLemma
p604
Vdo
p605
saa(lp606
Vthe
p607
a(dp608
VNamedEntityTag
p609
g64
sVCharacterOffsetEnd
p610
V184
p611
sVCharacterOffsetBegin
p612
V181
p613
sVPartOfSpeech
p614
VDT
p615
sVLemma
p616
Vthe
p617
saa(lp618
Vcommission
p619
a(dp620
VNamedEntityTag
p621
g64
sVCharacterOffsetEnd
p622
V195
p623
sVCharacterOffsetBegin
p624
V185
p625
sVPartOfSpeech
p626
VNN
p627
sVLemma
p628
Vcommission
p629
saa(lp630
Vcount
p631
a(dp632
VNamedEntityTag
p633
g64
sVCharacterOffsetEnd
p634
V201
p635
sVCharacterOffsetBegin
p636
V196
p637
sVPartOfSpeech
p638
VNN
p639
sVLemma
p640
Vcount
p641
saa(lp642
V?
p643
a(dp644
VNamedEntityTag
p645
g64
sVCharacterOffsetEnd
p646
V203
p647
sVCharacterOffsetBegin
p648
V202
p649
sVPartOfSpeech
p650
g228
sVLemma
p651
g643
saasVindexeddependencies
p652
(lp653
(lp654
Vroot
p655
aVROOT-0
p656
aVdid-5
p657
aa(lp658
Vadvmod
p659
aVmany-2
p660
aVHow-1
p661
aa(lp662
Vamod
p663
aVcars-4
p664
aVmany-2
p665
aa(lp666
Vamod
p667
aVcars-4
p668
aVeastbound-3
p669
aa(lp670
Vnsubj
p671
aVdid-5
p672
aVcars-4
p673
aa(lp674
Vdet
p675
aVcount-8
p676
aVthe-6
p677
aa(lp678
Vnn
p679
aVcount-8
p680
aVcommission-7
p681
aa(lp682
Vdobj
p683
aVdid-5
p684
aVcount-8
p685
aasas.