(dp0
Vcoref
p1
(lp2
(lp3
(lp4
(lp5
VShe
p6
aI1
aI0
aI0
aI1
aa(lp7
VHalloween Faye
p8
aI0
aI2
aI1
aI3
aaa(lp9
(lp10
Vher
p11
aI1
aI9
aI9
aI10
aa(lp12
VHalloween Faye
p13
aI0
aI2
aI1
aI3
aaa(lp14
(lp15
VFaye
p16
aI2
aI6
aI6
aI7
aa(lp17
VHalloween Faye
p18
aI0
aI2
aI1
aI3
aaaa(lp19
(lp20
(lp21
Vpieces of candy
p22
aI2
aI2
aI2
aI5
aa(lp23
V47 pieces of candy
p24
aI0
aI5
aI4
aI8
aaaa(lp25
(lp26
(lp27
Vher
p28
aI1
aI12
aI12
aI13
aa(lp29
Vher sister
p30
aI1
aI10
aI9
aI11
aaaasVsentences
p31
(lp32
(dp33
Vparsetree
p34
V(ROOT (S (IN For) (NP (NNP Halloween) (NNP Faye)) (VP (VBD scored) (NP (NP (CD 47) (NNS pieces)) (PP (IN of) (NP (NN candy))))) (. .)))
p35
sVtext
p36
VFor Halloween Faye scored 47 pieces of candy .
p37
sVdependencies
p38
(lp39
(lp40
Vroot
p41
aVROOT
p42
aVscored
p43
aa(lp44
Vdep
p45
aVscored
p46
aVFor
p47
aa(lp48
Vnn
p49
aVFaye
p50
aVHalloween
p51
aa(lp52
Vnsubj
p53
aVscored
p54
aVFaye
p55
aa(lp56
Vnum
p57
aVpieces
p58
aV47
p59
aa(lp60
Vdobj
p61
aVscored
p62
aVpieces
p63
aa(lp64
Vprep_of
p65
aVpieces
p66
aVcandy
p67
aasVwords
p68
(lp69
(lp70
VFor
p71
a(dp72
VNamedEntityTag
p73
VO
p74
sVCharacterOffsetEnd
p75
V4
p76
sVCharacterOffsetBegin
p77
V1
p78
sVPartOfSpeech
p79
VIN
p80
sVLemma
p81
Vfor
p82
saa(lp83
VHalloween
p84
a(dp85
VTimex
p86
V<TIMEX3 tid="t1" type="DATE" value="XXXX-10-31">Halloween</TIMEX3>
p87
sVCharacterOffsetEnd
p88
V14
p89
sVLemma
p90
VHalloween
p91
sVPartOfSpeech
p92
VNNP
p93
sVCharacterOffsetBegin
p94
V5
p95
sVNamedEntityTag
p96
VPERSON
p97
saa(lp98
VFaye
p99
a(dp100
VNamedEntityTag
p101
VPERSON
p102
sVCharacterOffsetEnd
p103
V19
p104
sVCharacterOffsetBegin
p105
V15
p106
sVPartOfSpeech
p107
VNNP
p108
sVLemma
p109
VFaye
p110
saa(lp111
Vscored
p112
a(dp113
VNamedEntityTag
p114
g74
sVCharacterOffsetEnd
p115
V26
p116
sVCharacterOffsetBegin
p117
V20
p118
sVPartOfSpeech
p119
VVBD
p120
sVLemma
p121
Vscore
p122
saa(lp123
V47
p124
a(dp125
VNormalizedNamedEntityTag
p126
V47.0
p127
sVLemma
p128
V47
p129
sVCharacterOffsetEnd
p130
V29
p131
sVPartOfSpeech
p132
VCD
p133
sVCharacterOffsetBegin
p134
V27
p135
sVNamedEntityTag
p136
VNUMBER
p137
saa(lp138
Vpieces
p139
a(dp140
VNamedEntityTag
p141
g74
sVCharacterOffsetEnd
p142
V36
p143
sVCharacterOffsetBegin
p144
V30
p145
sVPartOfSpeech
p146
VNNS
p147
sVLemma
p148
Vpiece
p149
saa(lp150
Vof
p151
a(dp152
VNamedEntityTag
p153
g74
sVCharacterOffsetEnd
p154
V39
p155
sVCharacterOffsetBegin
p156
V37
p157
sVPartOfSpeech
p158
VIN
p159
sVLemma
p160
Vof
p161
saa(lp162
Vcandy
p163
a(dp164
VNamedEntityTag
p165
g74
sVCharacterOffsetEnd
p166
V45
p167
sVCharacterOffsetBegin
p168
V40
p169
sVPartOfSpeech
p170
VNN
p171
sVLemma
p172
Vcandy
p173
saa(lp174
V.
p175
a(dp176
VNamedEntityTag
p177
g74
sVCharacterOffsetEnd
p178
V47
p179
sVCharacterOffsetBegin
p180
V46
p181
sVPartOfSpeech
p182
g175
sVLemma
p183
g175
saasVindexeddependencies
p184
(lp185
(lp186
Vroot
p187
aVROOT-0
p188
aVscored-4
p189
aa(lp190
Vdep
p191
aVscored-4
p192
aVFor-1
p193
aa(lp194
Vnn
p195
aVFaye-3
p196
aVHalloween-2
p197
aa(lp198
Vnsubj
p199
aVscored-4
p200
aVFaye-3
p201
aa(lp202
Vnum
p203
aVpieces-6
p204
aV47-5
p205
aa(lp206
Vdobj
p207
aVscored-4
p208
aVpieces-6
p209
aa(lp210
Vprep_of
p211
aVpieces-6
p212
aVcandy-8
p213
aasa(dp214
Vparsetree
p215
V(ROOT (S (S (NP (PRP She)) (VP (VBD ate) (NP (CD 25) (NNS pieces)) (NP-TMP (DT the) (JJ first) (NN night)))) (CC and) (RB then) (S (NP (PRP$ her) (NN sister)) (VP (VBD gave) (NP (PRP$ her) (QP (CD 40) (JJR more)) (NNS pieces)))) (. .)))
p216
sVtext
p217
VShe ate 25 pieces the first night and then her sister gave her 40 more pieces .
p218
sVdependencies
p219
(lp220
(lp221
Vroot
p222
aVROOT
p223
aVate
p224
aa(lp225
Vnsubj
p226
aVate
p227
aVShe
p228
aa(lp229
Vnum
p230
aVpieces
p231
aV25
p232
aa(lp233
Vdobj
p234
aVate
p235
aVpieces
p236
aa(lp237
Vdet
p238
aVnight
p239
aVthe
p240
aa(lp241
Vamod
p242
aVnight
p243
aVfirst
p244
aa(lp245
Vtmod
p246
aVate
p247
aVnight
p248
aa(lp249
Vadvmod
p250
aVgave
p251
aVthen
p252
aa(lp253
Vposs
p254
aVsister
p255
aVher
p256
aa(lp257
Vnsubj
p258
aVgave
p259
aVsister
p260
aa(lp261
Vconj_and
p262
aVate
p263
aVgave
p264
aa(lp265
Vposs
p266
aVpieces
p267
aVher
p268
aa(lp269
Vnum
p270
aVpieces
p271
aV40
p272
aa(lp273
Vquantmod
p274
aV40
p275
aVmore
p276
aa(lp277
Vdobj
p278
aVgave
p279
aVpieces
p280
aasVwords
p281
(lp282
(lp283
VShe
p284
a(dp285
VNamedEntityTag
p286
g74
sVCharacterOffsetEnd
p287
V51
p288
sVCharacterOffsetBegin
p289
V48
p290
sVPartOfSpeech
p291
VPRP
p292
sVLemma
p293
Vshe
p294
saa(lp295
Vate
p296
a(dp297
VNamedEntityTag
p298
g74
sVCharacterOffsetEnd
p299
V55
p300
sVCharacterOffsetBegin
p301
V52
p302
sVPartOfSpeech
p303
VVBD
p304
sVLemma
p305
Veat
p306
saa(lp307
V25
p308
a(dp309
VNormalizedNamedEntityTag
p310
V25.0
p311
sVLemma
p312
V25
p313
sVCharacterOffsetEnd
p314
V58
p315
sVPartOfSpeech
p316
VCD
p317
sVCharacterOffsetBegin
p318
V56
p319
sVNamedEntityTag
p320
VNUMBER
p321
saa(lp322
Vpieces
p323
a(dp324
VNamedEntityTag
p325
g74
sVCharacterOffsetEnd
p326
V65
p327
sVCharacterOffsetBegin
p328
V59
p329
sVPartOfSpeech
p330
VNNS
p331
sVLemma
p332
Vpiece
p333
saa(lp334
Vthe
p335
a(dp336
VNamedEntityTag
p337
g74
sVCharacterOffsetEnd
p338
V69
p339
sVCharacterOffsetBegin
p340
V66
p341
sVPartOfSpeech
p342
VDT
p343
sVLemma
p344
Vthe
p345
saa(lp346
Vfirst
p347
a(dp348
VNormalizedNamedEntityTag
p349
V1.0
p350
sVLemma
p351
Vfirst
p352
sVCharacterOffsetEnd
p353
V75
p354
sVPartOfSpeech
p355
VJJ
p356
sVCharacterOffsetBegin
p357
V70
p358
sVNamedEntityTag
p359
VORDINAL
p360
saa(lp361
Vnight
p362
a(dp363
VNormalizedNamedEntityTag
p364
VTNI
p365
sVTimex
p366
V<TIMEX3 tid="t2" type="TIME" value="TNI">night</TIMEX3>
p367
sVLemma
p368
Vnight
p369
sVCharacterOffsetEnd
p370
V81
p371
sVPartOfSpeech
p372
VNN
p373
sVCharacterOffsetBegin
p374
V76
p375
sVNamedEntityTag
p376
VTIME
p377
saa(lp378
Vand
p379
a(dp380
VNamedEntityTag
p381
g74
sVCharacterOffsetEnd
p382
V85
p383
sVCharacterOffsetBegin
p384
V82
p385
sVPartOfSpeech
p386
VCC
p387
sVLemma
p388
Vand
p389
saa(lp390
Vthen
p391
a(dp392
VNamedEntityTag
p393
g74
sVCharacterOffsetEnd
p394
V90
p395
sVCharacterOffsetBegin
p396
V86
p397
sVPartOfSpeech
p398
VRB
p399
sVLemma
p400
Vthen
p401
saa(lp402
Vher
p403
a(dp404
VNamedEntityTag
p405
g74
sVCharacterOffsetEnd
p406
V94
p407
sVCharacterOffsetBegin
p408
V91
p409
sVPartOfSpeech
p410
VPRP$
p411
sVLemma
p412
Vshe
p413
saa(lp414
Vsister
p415
a(dp416
VNamedEntityTag
p417
g74
sVCharacterOffsetEnd
p418
V101
p419
sVCharacterOffsetBegin
p420
V95
p421
sVPartOfSpeech
p422
VNN
p423
sVLemma
p424
Vsister
p425
saa(lp426
Vgave
p427
a(dp428
VNamedEntityTag
p429
g74
sVCharacterOffsetEnd
p430
V106
p431
sVCharacterOffsetBegin
p432
V102
p433
sVPartOfSpeech
p434
VVBD
p435
sVLemma
p436
Vgive
p437
saa(lp438
Vher
p439
a(dp440
VNamedEntityTag
p441
g74
sVCharacterOffsetEnd
p442
V110
p443
sVCharacterOffsetBegin
p444
V107
p445
sVPartOfSpeech
p446
VPRP$
p447
sVLemma
p448
Vshe
p449
saa(lp450
V40
p451
a(dp452
VNormalizedNamedEntityTag
p453
V40.0
p454
sVLemma
p455
V40
p456
sVCharacterOffsetEnd
p457
V113
p458
sVPartOfSpeech
p459
VCD
p460
sVCharacterOffsetBegin
p461
V111
p462
sVNamedEntityTag
p463
VNUMBER
p464
saa(lp465
Vmore
p466
a(dp467
VNamedEntityTag
p468
g74
sVCharacterOffsetEnd
p469
V118
p470
sVCharacterOffsetBegin
p471
V114
p472
sVPartOfSpeech
p473
VJJR
p474
sVLemma
p475
Vmore
p476
saa(lp477
Vpieces
p478
a(dp479
VNamedEntityTag
p480
g74
sVCharacterOffsetEnd
p481
V125
p482
sVCharacterOffsetBegin
p483
V119
p484
sVPartOfSpeech
p485
VNNS
p486
sVLemma
p487
Vpiece
p488
saa(lp489
g175
a(dp490
VNamedEntityTag
p491
g74
sVCharacterOffsetEnd
p492
V127
p493
sVCharacterOffsetBegin
p494
V126
p495
sVPartOfSpeech
p496
g175
sVLemma
p497
g175
saasVindexeddependencies
p498
(lp499
(lp500
Vroot
p501
aVROOT-0
p502
aVate-2
p503
aa(lp504
Vnsubj
p505
aVate-2
p506
aVShe-1
p507
aa(lp508
Vnum
p509
aVpieces-4
p510
aV25-3
p511
aa(lp512
Vdobj
p513
aVate-2
p514
aVpieces-4
p515
aa(lp516
Vdet
p517
aVnight-7
p518
aVthe-5
p519
aa(lp520
Vamod
p521
aVnight-7
p522
aVfirst-6
p523
aa(lp524
Vtmod
p525
aVate-2
p526
aVnight-7
p527
aa(lp528
Vadvmod
p529
aVgave-12
p530
aVthen-9
p531
aa(lp532
Vposs
p533
aVsister-11
p534
aVher-10
p535
aa(lp536
Vnsubj
p537
aVgave-12
p538
aVsister-11
p539
aa(lp540
Vconj_and
p541
aVate-2
p542
aVgave-12
p543
aa(lp544
Vposs
p545
aVpieces-16
p546
aVher-13
p547
aa(lp548
Vnum
p549
aVpieces-16
p550
aV40-14
p551
aa(lp552
Vquantmod
p553
aV40-14
p554
aVmore-15
p555
aa(lp556
Vdobj
p557
aVgave-12
p558
aVpieces-16
p559
aasa(dp560
Vparsetree
p561
V(ROOT (SBARQ (WHNP (WHADJP (WRB How) (JJ many)) (NP (NP (NNS pieces)) (PP (IN of) (NP (NN candy))))) (SQ (VBZ does) (NP (NNP Faye)) (VP (VB have) (NP (RB now)))) (. ?)))
p562
sVtext
p563
VHow many pieces of candy does Faye have now ?
p564
sVdependencies
p565
(lp566
(lp567
Vroot
p568
aVROOT
p569
aVhave
p570
aa(lp571
Vadvmod
p572
aVmany
p573
aVHow
p574
aa(lp575
Vamod
p576
aVpieces
p577
aVmany
p578
aa(lp579
Vdep
p580
aVhave
p581
aVpieces
p582
aa(lp583
Vprep_of
p584
aVpieces
p585
aVcandy
p586
aa(lp587
Vaux
p588
aVhave
p589
aVdoes
p590
aa(lp591
Vnsubj
p592
aVhave
p593
aVFaye
p594
aa(lp595
Vdobj
p596
aVhave
p597
aVnow
p598
aasVwords
p599
(lp600
(lp601
VHow
p602
a(dp603
VNamedEntityTag
p604
g74
sVCharacterOffsetEnd
p605
V131
p606
sVCharacterOffsetBegin
p607
V128
p608
sVPartOfSpeech
p609
VWRB
p610
sVLemma
p611
Vhow
p612
saa(lp613
Vmany
p614
a(dp615
VNamedEntityTag
p616
g74
sVCharacterOffsetEnd
p617
V136
p618
sVCharacterOffsetBegin
p619
V132
p620
sVPartOfSpeech
p621
VJJ
p622
sVLemma
p623
Vmany
p624
saa(lp625
Vpieces
p626
a(dp627
VNamedEntityTag
p628
g74
sVCharacterOffsetEnd
p629
V143
p630
sVCharacterOffsetBegin
p631
V137
p632
sVPartOfSpeech
p633
VNNS
p634
sVLemma
p635
Vpiece
p636
saa(lp637
Vof
p638
a(dp639
VNamedEntityTag
p640
g74
sVCharacterOffsetEnd
p641
V146
p642
sVCharacterOffsetBegin
p643
V144
p644
sVPartOfSpeech
p645
VIN
p646
sVLemma
p647
Vof
p648
saa(lp649
Vcandy
p650
a(dp651
VNamedEntityTag
p652
g74
sVCharacterOffsetEnd
p653
V152
p654
sVCharacterOffsetBegin
p655
V147
p656
sVPartOfSpeech
p657
VNN
p658
sVLemma
p659
Vcandy
p660
saa(lp661
Vdoes
p662
a(dp663
VNamedEntityTag
p664
g74
sVCharacterOffsetEnd
p665
V157
p666
sVCharacterOffsetBegin
p667
V153
p668
sVPartOfSpeech
p669
VVBZ
p670
sVLemma
p671
Vdo
p672
saa(lp673
VFaye
p674
a(dp675
VNamedEntityTag
p676
VPERSON
p677
sVCharacterOffsetEnd
p678
V162
p679
sVCharacterOffsetBegin
p680
V158
p681
sVPartOfSpeech
p682
VNNP
p683
sVLemma
p684
VFaye
p685
saa(lp686
Vhave
p687
a(dp688
VNamedEntityTag
p689
g74
sVCharacterOffsetEnd
p690
V167
p691
sVCharacterOffsetBegin
p692
V163
p693
sVPartOfSpeech
p694
VVB
p695
sVLemma
p696
Vhave
p697
saa(lp698
Vnow
p699
a(dp700
VNormalizedNamedEntityTag
p701
VPRESENT_REF
p702
sVTimex
p703
V<TIMEX3 tid="t3" type="DATE" value="PRESENT_REF">now</TIMEX3>
p704
sVLemma
p705
Vnow
p706
sVCharacterOffsetEnd
p707
V171
p708
sVPartOfSpeech
p709
VRB
p710
sVCharacterOffsetBegin
p711
V168
p712
sVNamedEntityTag
p713
VDATE
p714
saa(lp715
V?
p716
a(dp717
VNamedEntityTag
p718
g74
sVCharacterOffsetEnd
p719
V173
p720
sVCharacterOffsetBegin
p721
V172
p722
sVPartOfSpeech
p723
g175
sVLemma
p724
g716
saasVindexeddependencies
p725
(lp726
(lp727
Vroot
p728
aVROOT-0
p729
aVhave-8
p730
aa(lp731
Vadvmod
p732
aVmany-2
p733
aVHow-1
p734
aa(lp735
Vamod
p736
aVpieces-3
p737
aVmany-2
p738
aa(lp739
Vdep
p740
aVhave-8
p741
aVpieces-3
p742
aa(lp743
Vprep_of
p744
aVpieces-3
p745
aVcandy-5
p746
aa(lp747
Vaux
p748
aVhave-8
p749
aVdoes-6
p750
aa(lp751
Vnsubj
p752
aVhave-8
p753
aVFaye-7
p754
aa(lp755
Vdobj
p756
aVhave-8
p757
aVnow-9
p758
aasas.