(dp0
Vcoref
p1
(lp2
(lp3
(lp4
(lp5
Vhe
p6
aI1
aI1
aI1
aI2
aa(lp7
VKaleb
p8
aI0
aI0
aI0
aI1
aaa(lp9
(lp10
Vhe
p11
aI1
aI10
aI10
aI11
aa(lp12
VKaleb
p13
aI0
aI0
aI0
aI1
aaa(lp14
(lp15
VKaleb
p16
aI1
aI22
aI22
aI23
aa(lp17
VKaleb
p18
aI0
aI0
aI0
aI1
aaaasVsentences
p19
(lp20
(dp21
Vparsetree
p22
V(ROOT (S (NP (NNP Kaleb)) (VP (VBD had) (NP (CD 34) (NNS books))) (. .)))
p23
sVtext
p24
VKaleb had 34 books .
p25
sVdependencies
p26
(lp27
(lp28
Vroot
p29
aVROOT
p30
aVhad
p31
aa(lp32
Vnsubj
p33
aVhad
p34
aVKaleb
p35
aa(lp36
Vnum
p37
aVbooks
p38
aV34
p39
aa(lp40
Vdobj
p41
aVhad
p42
aVbooks
p43
aasVwords
p44
(lp45
(lp46
VKaleb
p47
a(dp48
VNamedEntityTag
p49
VPERSON
p50
sVCharacterOffsetEnd
p51
V6
p52
sVCharacterOffsetBegin
p53
V1
p54
sVPartOfSpeech
p55
VNNP
p56
sVLemma
p57
VKaleb
p58
saa(lp59
Vhad
p60
a(dp61
VNamedEntityTag
p62
VO
p63
sVCharacterOffsetEnd
p64
V10
p65
sVCharacterOffsetBegin
p66
V7
p67
sVPartOfSpeech
p68
VVBD
p69
sVLemma
p70
Vhave
p71
saa(lp72
V34
p73
a(dp74
VNormalizedNamedEntityTag
p75
V34.0
p76
sVLemma
p77
V34
p78
sVCharacterOffsetEnd
p79
V13
p80
sVPartOfSpeech
p81
VCD
p82
sVCharacterOffsetBegin
p83
V11
p84
sVNamedEntityTag
p85
VNUMBER
p86
saa(lp87
Vbooks
p88
a(dp89
VNamedEntityTag
p90
g63
sVCharacterOffsetEnd
p91
V19
p92
sVCharacterOffsetBegin
p93
V14
p94
sVPartOfSpeech
p95
VNNS
p96
sVLemma
p97
Vbook
p98
saa(lp99
V.
p100
a(dp101
VNamedEntityTag
p102
g63
sVCharacterOffsetEnd
p103
V21
p104
sVCharacterOffsetBegin
p105
V20
p106
sVPartOfSpeech
p107
g100
sVLemma
p108
g100
saasVindexeddependencies
p109
(lp110
(lp111
Vroot
p112
aVROOT-0
p113
aVhad-2
p114
aa(lp115
Vnsubj
p116
aVhad-2
p117
aVKaleb-1
p118
aa(lp119
Vnum
p120
aVbooks-4
p121
aV34-3
p122
aa(lp123
Vdobj
p124
aVhad-2
p125
aVbooks-4
p126
aasa(dp127
Vparsetree
p128
V(ROOT (SBARQ (SBAR (IN If) (S (NP (PRP he)) (VP (VP (VBD sold) (NP (NP (CD 17)) (PP (IN of) (NP (PRP them))))) (CC and) (VP (VBD used) (NP (DT the) (NN money)) (SBAR (S (NP (PRP he)) (VP (VBD earned) (S (VP (TO to) (VP (VB buy) (NP (CD 7) (JJ new) (NNS books)))))))))))) (, ,) (WHNP (WHADJP (WRB how) (JJ many)) (NNS books)) (SQ (MD would) (NP (NNP Kaleb)) (VP (VB have))) (. ?)))
p129
sVtext
p130
VIf he sold 17 of them and used the money he earned to buy 7 new books , how many books would Kaleb have ?
p131
sVdependencies
p132
(lp133
(lp134
Vroot
p135
aVROOT
p136
aVhave
p137
aa(lp138
Vmark
p139
aVsold
p140
aVIf
p141
aa(lp142
Vnsubj
p143
aVsold
p144
aVhe
p145
aa(lp146
Vadvcl
p147
aVhave
p148
aVsold
p149
aa(lp150
Vdobj
p151
aVsold
p152
aV17
p153
aa(lp154
Vprep_of
p155
aV17
p156
aVthem
p157
aa(lp158
Vconj_and
p159
aVsold
p160
aVused
p161
aa(lp162
Vdet
p163
aVmoney
p164
aVthe
p165
aa(lp166
Vdobj
p167
aVused
p168
aVmoney
p169
aa(lp170
Vnsubj
p171
aVearned
p172
aVhe
p173
aa(lp174
Vdep
p175
aVused
p176
aVearned
p177
aa(lp178
Vaux
p179
aVbuy
p180
aVto
p181
aa(lp182
Vxcomp
p183
aVearned
p184
aVbuy
p185
aa(lp186
Vnum
p187
aVbooks
p188
ag67
aa(lp189
Vamod
p190
aVbooks
p191
aVnew
p192
aa(lp193
Vdobj
p194
aVbuy
p195
aVbooks
p196
aa(lp197
Vadvmod
p198
aVmany
p199
aVhow
p200
aa(lp201
Vamod
p202
aVbooks
p203
aVmany
p204
aa(lp205
Vdobj
p206
aVhave
p207
aVbooks
p208
aa(lp209
Vaux
p210
aVhave
p211
aVwould
p212
aa(lp213
Vnsubj
p214
aVhave
p215
aVKaleb
p216
aasVwords
p217
(lp218
(lp219
VIf
p220
a(dp221
VNamedEntityTag
p222
g63
sVCharacterOffsetEnd
p223
V24
p224
sVCharacterOffsetBegin
p225
V22
p226
sVPartOfSpeech
p227
VIN
p228
sVLemma
p229
Vif
p230
saa(lp231
Vhe
p232
a(dp233
VNamedEntityTag
p234
g63
sVCharacterOffsetEnd
p235
V27
p236
sVCharacterOffsetBegin
p237
V25
p238
sVPartOfSpeech
p239
VPRP
p240
sVLemma
p241
Vhe
p242
saa(lp243
Vsold
p244
a(dp245
VNamedEntityTag
p246
g63
sVCharacterOffsetEnd
p247
V32
p248
sVCharacterOffsetBegin
p249
V28
p250
sVPartOfSpeech
p251
VVBD
p252
sVLemma
p253
Vsell
p254
saa(lp255
V17
p256
a(dp257
VNormalizedNamedEntityTag
p258
V17.0
p259
sVLemma
p260
V17
p261
sVCharacterOffsetEnd
p262
V35
p263
sVPartOfSpeech
p264
VCD
p265
sVCharacterOffsetBegin
p266
V33
p267
sVNamedEntityTag
p268
VNUMBER
p269
saa(lp270
Vof
p271
a(dp272
VNamedEntityTag
p273
g63
sVCharacterOffsetEnd
p274
V38
p275
sVCharacterOffsetBegin
p276
V36
p277
sVPartOfSpeech
p278
VIN
p279
sVLemma
p280
Vof
p281
saa(lp282
Vthem
p283
a(dp284
VNamedEntityTag
p285
g63
sVCharacterOffsetEnd
p286
V43
p287
sVCharacterOffsetBegin
p288
V39
p289
sVPartOfSpeech
p290
VPRP
p291
sVLemma
p292
Vthey
p293
saa(lp294
Vand
p295
a(dp296
VNamedEntityTag
p297
g63
sVCharacterOffsetEnd
p298
V47
p299
sVCharacterOffsetBegin
p300
V44
p301
sVPartOfSpeech
p302
VCC
p303
sVLemma
p304
Vand
p305
saa(lp306
Vused
p307
a(dp308
VNamedEntityTag
p309
g63
sVCharacterOffsetEnd
p310
V52
p311
sVCharacterOffsetBegin
p312
V48
p313
sVPartOfSpeech
p314
VVBD
p315
sVLemma
p316
Vuse
p317
saa(lp318
Vthe
p319
a(dp320
VNamedEntityTag
p321
g63
sVCharacterOffsetEnd
p322
V56
p323
sVCharacterOffsetBegin
p324
V53
p325
sVPartOfSpeech
p326
VDT
p327
sVLemma
p328
Vthe
p329
saa(lp330
Vmoney
p331
a(dp332
VNamedEntityTag
p333
g63
sVCharacterOffsetEnd
p334
V62
p335
sVCharacterOffsetBegin
p336
V57
p337
sVPartOfSpeech
p338
VNN
p339
sVLemma
p340
Vmoney
p341
saa(lp342
Vhe
p343
a(dp344
VNamedEntityTag
p345
g63
sVCharacterOffsetEnd
p346
V65
p347
sVCharacterOffsetBegin
p348
V63
p349
sVPartOfSpeech
p350
VPRP
p351
sVLemma
p352
Vhe
p353
saa(lp354
Vearned
p355
a(dp356
VNamedEntityTag
p357
g63
sVCharacterOffsetEnd
p358
V72
p359
sVCharacterOffsetBegin
p360
V66
p361
sVPartOfSpeech
p362
VVBD
p363
sVLemma
p364
Vearn
p365
saa(lp366
Vto
p367
a(dp368
VNamedEntityTag
p369
g63
sVCharacterOffsetEnd
p370
V75
p371
sVCharacterOffsetBegin
p372
V73
p373
sVPartOfSpeech
p374
VTO
p375
sVLemma
p376
Vto
p377
saa(lp378
Vbuy
p379
a(dp380
VNamedEntityTag
p381
g63
sVCharacterOffsetEnd
p382
V79
p383
sVCharacterOffsetBegin
p384
V76
p385
sVPartOfSpeech
p386
VVB
p387
sVLemma
p388
Vbuy
p389
saa(lp390
g67
a(dp391
VNormalizedNamedEntityTag
p392
V7.0
p393
sVLemma
p394
g67
sVCharacterOffsetEnd
p395
V81
p396
sVPartOfSpeech
p397
VCD
p398
sVCharacterOffsetBegin
p399
V80
p400
sVNamedEntityTag
p401
VNUMBER
p402
saa(lp403
Vnew
p404
a(dp405
VNamedEntityTag
p406
g63
sVCharacterOffsetEnd
p407
V85
p408
sVCharacterOffsetBegin
p409
V82
p410
sVPartOfSpeech
p411
VJJ
p412
sVLemma
p413
Vnew
p414
saa(lp415
Vbooks
p416
a(dp417
VNamedEntityTag
p418
g63
sVCharacterOffsetEnd
p419
V91
p420
sVCharacterOffsetBegin
p421
V86
p422
sVPartOfSpeech
p423
VNNS
p424
sVLemma
p425
Vbook
p426
saa(lp427
V,
p428
a(dp429
VNamedEntityTag
p430
g63
sVCharacterOffsetEnd
p431
V93
p432
sVCharacterOffsetBegin
p433
V92
p434
sVPartOfSpeech
p435
g428
sVLemma
p436
g428
saa(lp437
Vhow
p438
a(dp439
VNamedEntityTag
p440
g63
sVCharacterOffsetEnd
p441
V97
p442
sVCharacterOffsetBegin
p443
V94
p444
sVPartOfSpeech
p445
VWRB
p446
sVLemma
p447
Vhow
p448
saa(lp449
Vmany
p450
a(dp451
VNamedEntityTag
p452
g63
sVCharacterOffsetEnd
p453
V102
p454
sVCharacterOffsetBegin
p455
V98
p456
sVPartOfSpeech
p457
VJJ
p458
sVLemma
p459
Vmany
p460
saa(lp461
Vbooks
p462
a(dp463
VNamedEntityTag
p464
g63
sVCharacterOffsetEnd
p465
V108
p466
sVCharacterOffsetBegin
p467
V103
p468
sVPartOfSpeech
p469
VNNS
p470
sVLemma
p471
Vbook
p472
saa(lp473
Vwould
p474
a(dp475
VNamedEntityTag
p476
g63
sVCharacterOffsetEnd
p477
V114
p478
sVCharacterOffsetBegin
p479
V109
p480
sVPartOfSpeech
p481
VMD
p482
sVLemma
p483
Vwould
p484
saa(lp485
VKaleb
p486
a(dp487
VNamedEntityTag
p488
VPERSON
p489
sVCharacterOffsetEnd
p490
V120
p491
sVCharacterOffsetBegin
p492
V115
p493
sVPartOfSpeech
p494
VNNP
p495
sVLemma
p496
VKaleb
p497
saa(lp498
Vhave
p499
a(dp500
VNamedEntityTag
p501
g63
sVCharacterOffsetEnd
p502
V125
p503
sVCharacterOffsetBegin
p504
V121
p505
sVPartOfSpeech
p506
VVB
p507
sVLemma
p508
Vhave
p509
saa(lp510
V?
p511
a(dp512
VNamedEntityTag
p513
g63
sVCharacterOffsetEnd
p514
V127
p515
sVCharacterOffsetBegin
p516
V126
p517
sVPartOfSpeech
p518
g100
sVLemma
p519
g511
saasVindexeddependencies
p520
(lp521
(lp522
Vroot
p523
aVROOT-0
p524
aVhave-24
p525
aa(lp526
Vmark
p527
aVsold-3
p528
aVIf-1
p529
aa(lp530
Vnsubj
p531
aVsold-3
p532
aVhe-2
p533
aa(lp534
Vadvcl
p535
aVhave-24
p536
aVsold-3
p537
aa(lp538
Vdobj
p539
aVsold-3
p540
aV17-4
p541
aa(lp542
Vprep_of
p543
aV17-4
p544
aVthem-6
p545
aa(lp546
Vconj_and
p547
aVsold-3
p548
aVused-8
p549
aa(lp550
Vdet
p551
aVmoney-10
p552
aVthe-9
p553
aa(lp554
Vdobj
p555
aVused-8
p556
aVmoney-10
p557
aa(lp558
Vnsubj
p559
aVearned-12
p560
aVhe-11
p561
aa(lp562
Vdep
p563
aVused-8
p564
aVearned-12
p565
aa(lp566
Vaux
p567
aVbuy-14
p568
aVto-13
p569
aa(lp570
Vxcomp
p571
aVearned-12
p572
aVbuy-14
p573
aa(lp574
Vnum
p575
aVbooks-17
p576
aV7-15
p577
aa(lp578
Vamod
p579
aVbooks-17
p580
aVnew-16
p581
aa(lp582
Vdobj
p583
aVbuy-14
p584
aVbooks-17
p585
aa(lp586
Vadvmod
p587
aVmany-20
p588
aVhow-19
p589
aa(lp590
Vamod
p591
aVbooks-21
p592
aVmany-20
p593
aa(lp594
Vdobj
p595
aVhave-24
p596
aVbooks-21
p597
aa(lp598
Vaux
p599
aVhave-24
p600
aVwould-22
p601
aa(lp602
Vnsubj
p603
aVhave-24
p604
aVKaleb-23
p605
aasas.