(dp0
Vcoref
p1
(lp2
(lp3
(lp4
(lp5
Vhe
p6
aI1
aI2
aI2
aI3
aa(lp7
VOliver
p8
aI0
aI0
aI0
aI1
aaa(lp9
(lp10
Vhe
p11
aI2
aI1
aI1
aI2
aa(lp12
VOliver
p13
aI0
aI0
aI0
aI1
aaa(lp14
(lp15
Vhis
p16
aI2
aI7
aI7
aI8
aa(lp17
VOliver
p18
aI0
aI0
aI0
aI1
aaa(lp19
(lp20
Vhe
p21
aI2
aI14
aI14
aI15
aa(lp22
VOliver
p23
aI0
aI0
aI0
aI1
aaaasVsentences
p24
(lp25
(dp26
Vparsetree
p27
V(ROOT (S (NP (NNP Oliver)) (VP (VBD had) (NP (NP (CD 33) (NNS dollars)) (PP (IN in) (NP (NNP January))))) (. .)))
p28
sVtext
p29
VOliver had 33 dollars in January .
p30
sVdependencies
p31
(lp32
(lp33
Vroot
p34
aVROOT
p35
aVhad
p36
aa(lp37
Vnsubj
p38
aVhad
p39
aVOliver
p40
aa(lp41
Vnum
p42
aVdollars
p43
aV33
p44
aa(lp45
Vdobj
p46
aVhad
p47
aVdollars
p48
aa(lp49
Vprep_in
p50
aVdollars
p51
aVJanuary
p52
aasVwords
p53
(lp54
(lp55
VOliver
p56
a(dp57
VNamedEntityTag
p58
VPERSON
p59
sVCharacterOffsetEnd
p60
V7
p61
sVCharacterOffsetBegin
p62
V1
p63
sVPartOfSpeech
p64
VNNP
p65
sVLemma
p66
VOliver
p67
saa(lp68
Vhad
p69
a(dp70
VNamedEntityTag
p71
VO
p72
sVCharacterOffsetEnd
p73
V11
p74
sVCharacterOffsetBegin
p75
V8
p76
sVPartOfSpeech
p77
VVBD
p78
sVLemma
p79
Vhave
p80
saa(lp81
V33
p82
a(dp83
VNormalizedNamedEntityTag
p84
V$33.0
p85
sVLemma
p86
V33
p87
sVCharacterOffsetEnd
p88
V14
p89
sVPartOfSpeech
p90
VCD
p91
sVCharacterOffsetBegin
p92
V12
p93
sVNamedEntityTag
p94
VMONEY
p95
saa(lp96
Vdollars
p97
a(dp98
VNormalizedNamedEntityTag
p99
V$33.0
p100
sVLemma
p101
Vdollar
p102
sVCharacterOffsetEnd
p103
V22
p104
sVPartOfSpeech
p105
VNNS
p106
sVCharacterOffsetBegin
p107
V15
p108
sVNamedEntityTag
p109
VMONEY
p110
saa(lp111
Vin
p112
a(dp113
VNamedEntityTag
p114
g72
sVCharacterOffsetEnd
p115
V25
p116
sVCharacterOffsetBegin
p117
V23
p118
sVPartOfSpeech
p119
VIN
p120
sVLemma
p121
Vin
p122
saa(lp123
VJanuary
p124
a(dp125
VNormalizedNamedEntityTag
p126
VXXXX-01
p127
sVTimex
p128
V<TIMEX3 tid="t1" type="DATE" value="XXXX-01">January</TIMEX3>
p129
sVLemma
p130
VJanuary
p131
sVCharacterOffsetEnd
p132
V33
p133
sVPartOfSpeech
p134
VNNP
p135
sVCharacterOffsetBegin
p136
V26
p137
sVNamedEntityTag
p138
VDATE
p139
saa(lp140
V.
p141
a(dp142
VNamedEntityTag
p143
g72
sVCharacterOffsetEnd
p144
V35
p145
sVCharacterOffsetBegin
p146
V34
p147
sVPartOfSpeech
p148
g141
sVLemma
p149
g141
saasVindexeddependencies
p150
(lp151
(lp152
Vroot
p153
aVROOT-0
p154
aVhad-2
p155
aa(lp156
Vnsubj
p157
aVhad-2
p158
aVOliver-1
p159
aa(lp160
Vnum
p161
aVdollars-4
p162
aV33-3
p163
aa(lp164
Vdobj
p165
aVhad-2
p166
aVdollars-4
p167
aa(lp168
Vprep_in
p169
aVdollars-4
p170
aVJanuary-6
p171
aasa(dp172
Vparsetree
p173
V(ROOT (S (PP (IN By) (NP (NNP March))) (NP (PRP he)) (VP (VBD had) (VP (VBN spent) (NP (CD 4) (NNS dollars)))) (. .)))
p174
sVtext
p175
VBy March he had spent 4 dollars .
p176
sVdependencies
p177
(lp178
(lp179
Vroot
p180
aVROOT
p181
aVspent
p182
aa(lp183
Vprep_by
p184
aVspent
p185
aVMarch
p186
aa(lp187
Vnsubj
p188
aVspent
p189
aVhe
p190
aa(lp191
Vaux
p192
aVspent
p193
aVhad
p194
aa(lp195
Vnum
p196
aVdollars
p197
aV4
p198
aa(lp199
Vdobj
p200
aVspent
p201
aVdollars
p202
aasVwords
p203
(lp204
(lp205
VBy
p206
a(dp207
VNamedEntityTag
p208
g72
sVCharacterOffsetEnd
p209
V38
p210
sVCharacterOffsetBegin
p211
V36
p212
sVPartOfSpeech
p213
VIN
p214
sVLemma
p215
Vby
p216
saa(lp217
VMarch
p218
a(dp219
VNormalizedNamedEntityTag
p220
VXXXX-03
p221
sVTimex
p222
V<TIMEX3 tid="t2" type="DATE" value="XXXX-03">March</TIMEX3>
p223
sVLemma
p224
VMarch
p225
sVCharacterOffsetEnd
p226
V44
p227
sVPartOfSpeech
p228
VNNP
p229
sVCharacterOffsetBegin
p230
V39
p231
sVNamedEntityTag
p232
VDATE
p233
saa(lp234
Vhe
p235
a(dp236
VNamedEntityTag
p237
g72
sVCharacterOffsetEnd
p238
V47
p239
sVCharacterOffsetBegin
p240
V45
p241
sVPartOfSpeech
p242
VPRP
p243
sVLemma
p244
Vhe
p245
saa(lp246
Vhad
p247
a(dp248
VNamedEntityTag
p249
g72
sVCharacterOffsetEnd
p250
V51
p251
sVCharacterOffsetBegin
p252
V48
p253
sVPartOfSpeech
p254
VVBD
p255
sVLemma
p256
Vhave
p257
saa(lp258
Vspent
p259
a(dp260
VNamedEntityTag
p261
g72
sVCharacterOffsetEnd
p262
V57
p263
sVCharacterOffsetBegin
p264
V52
p265
sVPartOfSpeech
p266
VVBN
p267
sVLemma
p268
Vspend
p269
saa(lp270
g198
a(dp271
VNormalizedNamedEntityTag
p272
V$4.0
p273
sVLemma
p274
g198
sVCharacterOffsetEnd
p275
V59
p276
sVPartOfSpeech
p277
VCD
p278
sVCharacterOffsetBegin
p279
V58
p280
sVNamedEntityTag
p281
VMONEY
p282
saa(lp283
Vdollars
p284
a(dp285
VNormalizedNamedEntityTag
p286
V$4.0
p287
sVLemma
p288
Vdollar
p289
sVCharacterOffsetEnd
p290
V67
p291
sVPartOfSpeech
p292
VNNS
p293
sVCharacterOffsetBegin
p294
V60
p295
sVNamedEntityTag
p296
VMONEY
p297
saa(lp298
g141
a(dp299
VNamedEntityTag
p300
g72
sVCharacterOffsetEnd
p301
V69
p302
sVCharacterOffsetBegin
p303
V68
p304
sVPartOfSpeech
p305
g141
sVLemma
p306
g141
saasVindexeddependencies
p307
(lp308
(lp309
Vroot
p310
aVROOT-0
p311
aVspent-5
p312
aa(lp313
Vprep_by
p314
aVspent-5
p315
aVMarch-2
p316
aa(lp317
Vnsubj
p318
aVspent-5
p319
aVhe-3
p320
aa(lp321
Vaux
p322
aVspent-5
p323
aVhad-4
p324
aa(lp325
Vnum
p326
aVdollars-7
p327
aV4-6
p328
aa(lp329
Vdobj
p330
aVspent-5
p331
aVdollars-7
p332
aasa(dp333
Vparsetree
p334
V(ROOT (SBARQ (SBAR (IN If) (S (NP (PRP he)) (VP (VBD got) (NP (DT another) (CD 32) (NNS dollars)) (PP (IN from) (NP (PRP$ his) (NN mom)))))) (, ,) (WHNP (WHADJP (WRB how) (JJ much)) (NN money)) (SQ (MD would) (NP (PRP he)) (VP (VB have))) (. ?)))
p335
sVtext
p336
VIf he got another 32 dollars from his mom , how much money would he have ?
p337
sVdependencies
p338
(lp339
(lp340
Vroot
p341
aVROOT
p342
aVhave
p343
aa(lp344
Vmark
p345
aVgot
p346
aVIf
p347
aa(lp348
Vnsubj
p349
aVgot
p350
aVhe
p351
aa(lp352
Vadvcl
p353
aVhave
p354
aVgot
p355
aa(lp356
Vdet
p357
aVdollars
p358
aVanother
p359
aa(lp360
Vnum
p361
aVdollars
p362
aV32
p363
aa(lp364
Vdobj
p365
aVgot
p366
aVdollars
p367
aa(lp368
Vposs
p369
aVmom
p370
aVhis
p371
aa(lp372
Vprep_from
p373
aVgot
p374
aVmom
p375
aa(lp376
Vadvmod
p377
aVmuch
p378
aVhow
p379
aa(lp380
Vamod
p381
aVmoney
p382
aVmuch
p383
aa(lp384
Vdobj
p385
aVhave
p386
aVmoney
p387
aa(lp388
Vaux
p389
aVhave
p390
aVwould
p391
aa(lp392
Vnsubj
p393
aVhave
p394
aVhe
p395
aasVwords
p396
(lp397
(lp398
VIf
p399
a(dp400
VNamedEntityTag
p401
g72
sVCharacterOffsetEnd
p402
V72
p403
sVCharacterOffsetBegin
p404
V70
p405
sVPartOfSpeech
p406
VIN
p407
sVLemma
p408
Vif
p409
saa(lp410
Vhe
p411
a(dp412
VNamedEntityTag
p413
g72
sVCharacterOffsetEnd
p414
V75
p415
sVCharacterOffsetBegin
p416
V73
p417
sVPartOfSpeech
p418
VPRP
p419
sVLemma
p420
Vhe
p421
saa(lp422
Vgot
p423
a(dp424
VNamedEntityTag
p425
g72
sVCharacterOffsetEnd
p426
V79
p427
sVCharacterOffsetBegin
p428
V76
p429
sVPartOfSpeech
p430
VVBD
p431
sVLemma
p432
Vget
p433
saa(lp434
Vanother
p435
a(dp436
VNamedEntityTag
p437
g72
sVCharacterOffsetEnd
p438
V87
p439
sVCharacterOffsetBegin
p440
V80
p441
sVPartOfSpeech
p442
VDT
p443
sVLemma
p444
Vanother
p445
saa(lp446
V32
p447
a(dp448
VNormalizedNamedEntityTag
p449
V$32.0
p450
sVLemma
p451
V32
p452
sVCharacterOffsetEnd
p453
V90
p454
sVPartOfSpeech
p455
VCD
p456
sVCharacterOffsetBegin
p457
V88
p458
sVNamedEntityTag
p459
VMONEY
p460
saa(lp461
Vdollars
p462
a(dp463
VNormalizedNamedEntityTag
p464
V$32.0
p465
sVLemma
p466
Vdollar
p467
sVCharacterOffsetEnd
p468
V98
p469
sVPartOfSpeech
p470
VNNS
p471
sVCharacterOffsetBegin
p472
V91
p473
sVNamedEntityTag
p474
VMONEY
p475
saa(lp476
Vfrom
p477
a(dp478
VNamedEntityTag
p479
g72
sVCharacterOffsetEnd
p480
V103
p481
sVCharacterOffsetBegin
p482
V99
p483
sVPartOfSpeech
p484
VIN
p485
sVLemma
p486
Vfrom
p487
saa(lp488
Vhis
p489
a(dp490
VNamedEntityTag
p491
g72
sVCharacterOffsetEnd
p492
V107
p493
sVCharacterOffsetBegin
p494
V104
p495
sVPartOfSpeech
p496
VPRP$
p497
sVLemma
p498
Vhe
p499
saa(lp500
Vmom
p501
a(dp502
VNamedEntityTag
p503
g72
sVCharacterOffsetEnd
p504
V111
p505
sVCharacterOffsetBegin
p506
V108
p507
sVPartOfSpeech
p508
VNN
p509
sVLemma
p510
Vmom
p511
saa(lp512
V,
p513
a(dp514
VNamedEntityTag
p515
g72
sVCharacterOffsetEnd
p516
V113
p517
sVCharacterOffsetBegin
p518
V112
p519
sVPartOfSpeech
p520
g513
sVLemma
p521
g513
saa(lp522
Vhow
p523
a(dp524
VNamedEntityTag
p525
g72
sVCharacterOffsetEnd
p526
V117
p527
sVCharacterOffsetBegin
p528
V114
p529
sVPartOfSpeech
p530
VWRB
p531
sVLemma
p532
Vhow
p533
saa(lp534
Vmuch
p535
a(dp536
VNamedEntityTag
p537
g72
sVCharacterOffsetEnd
p538
V122
p539
sVCharacterOffsetBegin
p540
V118
p541
sVPartOfSpeech
p542
VJJ
p543
sVLemma
p544
Vmuch
p545
saa(lp546
Vmoney
p547
a(dp548
VNamedEntityTag
p549
g72
sVCharacterOffsetEnd
p550
V128
p551
sVCharacterOffsetBegin
p552
V123
p553
sVPartOfSpeech
p554
VNN
p555
sVLemma
p556
Vmoney
p557
saa(lp558
Vwould
p559
a(dp560
VNamedEntityTag
p561
g72
sVCharacterOffsetEnd
p562
V134
p563
sVCharacterOffsetBegin
p564
V129
p565
sVPartOfSpeech
p566
VMD
p567
sVLemma
p568
Vwould
p569
saa(lp570
Vhe
p571
a(dp572
VNamedEntityTag
p573
g72
sVCharacterOffsetEnd
p574
V137
p575
sVCharacterOffsetBegin
p576
V135
p577
sVPartOfSpeech
p578
VPRP
p579
sVLemma
p580
Vhe
p581
saa(lp582
Vhave
p583
a(dp584
VNamedEntityTag
p585
g72
sVCharacterOffsetEnd
p586
V142
p587
sVCharacterOffsetBegin
p588
V138
p589
sVPartOfSpeech
p590
VVB
p591
sVLemma
p592
Vhave
p593
saa(lp594
V?
p595
a(dp596
VNamedEntityTag
p597
g72
sVCharacterOffsetEnd
p598
V144
p599
sVCharacterOffsetBegin
p600
V143
p601
sVPartOfSpeech
p602
g141
sVLemma
p603
g595
saasVindexeddependencies
p604
(lp605
(lp606
Vroot
p607
aVROOT-0
p608
aVhave-16
p609
aa(lp610
Vmark
p611
aVgot-3
p612
aVIf-1
p613
aa(lp614
Vnsubj
p615
aVgot-3
p616
aVhe-2
p617
aa(lp618
Vadvcl
p619
aVhave-16
p620
aVgot-3
p621
aa(lp622
Vdet
p623
aVdollars-6
p624
aVanother-4
p625
aa(lp626
Vnum
p627
aVdollars-6
p628
aV32-5
p629
aa(lp630
Vdobj
p631
aVgot-3
p632
aVdollars-6
p633
aa(lp634
Vposs
p635
aVmom-9
p636
aVhis-8
p637
aa(lp638
Vprep_from
p639
aVgot-3
p640
aVmom-9
p641
aa(lp642
Vadvmod
p643
aVmuch-12
p644
aVhow-11
p645
aa(lp646
Vamod
p647
aVmoney-13
p648
aVmuch-12
p649
aa(lp650
Vdobj
p651
aVhave-16
p652
aVmoney-13
p653
aa(lp654
Vaux
p655
aVhave-16
p656
aVwould-14
p657
aa(lp658
Vnsubj
p659
aVhave-16
p660
aVhe-15
p661
aasas.