(dp0
Vcoref
p1
(lp2
(lp3
(lp4
(lp5
Vshe
p6
aI1
aI1
aI1
aI2
aa(lp7
VA teacher
p8
aI0
aI1
aI0
aI2
aaa(lp9
(lp10
Vshe
p11
aI1
aI17
aI17
aI18
aa(lp12
VA teacher
p13
aI0
aI1
aI0
aI2
aaaasVsentences
p14
(lp15
(dp16
Vparsetree
p17
V(ROOT (S (NP (DT A) (NN teacher)) (VP (VBD had) (NP (NP (CD 6) (NNS worksheets)) (PP (TO to) (NP (NN grade))))) (. .)))
p18
sVtext
p19
VA teacher had 6 worksheets to grade .
p20
sVdependencies
p21
(lp22
(lp23
Vroot
p24
aVROOT
p25
aVhad
p26
aa(lp27
Vdet
p28
aVteacher
p29
aVA
p30
aa(lp31
Vnsubj
p32
aVhad
p33
aVteacher
p34
aa(lp35
Vnum
p36
aVworksheets
p37
aV6
p38
aa(lp39
Vdobj
p40
aVhad
p41
aVworksheets
p42
aa(lp43
Vprep_to
p44
aVworksheets
p45
aVgrade
p46
aasVwords
p47
(lp48
(lp49
g30
a(dp50
VNamedEntityTag
p51
VO
p52
sVCharacterOffsetEnd
p53
V2
p54
sVCharacterOffsetBegin
p55
V1
p56
sVPartOfSpeech
p57
VDT
p58
sVLemma
p59
Va
p60
saa(lp61
Vteacher
p62
a(dp63
VNamedEntityTag
p64
g52
sVCharacterOffsetEnd
p65
V10
p66
sVCharacterOffsetBegin
p67
V3
p68
sVPartOfSpeech
p69
VNN
p70
sVLemma
p71
Vteacher
p72
saa(lp73
Vhad
p74
a(dp75
VNamedEntityTag
p76
g52
sVCharacterOffsetEnd
p77
V14
p78
sVCharacterOffsetBegin
p79
V11
p80
sVPartOfSpeech
p81
VVBD
p82
sVLemma
p83
Vhave
p84
saa(lp85
g38
a(dp86
VNormalizedNamedEntityTag
p87
V6.0
p88
sVLemma
p89
g38
sVCharacterOffsetEnd
p90
V16
p91
sVPartOfSpeech
p92
VCD
p93
sVCharacterOffsetBegin
p94
V15
p95
sVNamedEntityTag
p96
VNUMBER
p97
saa(lp98
Vworksheets
p99
a(dp100
VNamedEntityTag
p101
g52
sVCharacterOffsetEnd
p102
V27
p103
sVCharacterOffsetBegin
p104
V17
p105
sVPartOfSpeech
p106
VNNS
p107
sVLemma
p108
Vworksheet
p109
saa(lp110
Vto
p111
a(dp112
VNamedEntityTag
p113
g52
sVCharacterOffsetEnd
p114
V30
p115
sVCharacterOffsetBegin
p116
V28
p117
sVPartOfSpeech
p118
VTO
p119
sVLemma
p120
Vto
p121
saa(lp122
Vgrade
p123
a(dp124
VNamedEntityTag
p125
g52
sVCharacterOffsetEnd
p126
V36
p127
sVCharacterOffsetBegin
p128
V31
p129
sVPartOfSpeech
p130
VNN
p131
sVLemma
p132
Vgrade
p133
saa(lp134
V.
p135
a(dp136
VNamedEntityTag
p137
g52
sVCharacterOffsetEnd
p138
V38
p139
sVCharacterOffsetBegin
p140
V37
p141
sVPartOfSpeech
p142
g135
sVLemma
p143
g135
saasVindexeddependencies
p144
(lp145
(lp146
Vroot
p147
aVROOT-0
p148
aVhad-3
p149
aa(lp150
Vdet
p151
aVteacher-2
p152
aVA-1
p153
aa(lp154
Vnsubj
p155
aVhad-3
p156
aVteacher-2
p157
aa(lp158
Vnum
p159
aVworksheets-5
p160
aV6-4
p161
aa(lp162
Vdobj
p163
aVhad-3
p164
aVworksheets-5
p165
aa(lp166
Vprep_to
p167
aVworksheets-5
p168
aVgrade-7
p169
aasa(dp170
Vparsetree
p171
V(ROOT (SBARQ (SBAR (IN If) (S (S (NP (PRP she)) (VP (VBD graded) (NP (CD 4)))) (, ,) (CC but) (S (ADVP (RB then)) (NP (DT another) (CD 18)) (VP (VBD were) (VP (VBN turned) (PRT (RP in))))))) (, ,) (WHADVP (WRB how) (NP (JJ many) (NNS worksheets))) (SQ (MD would) (NP (PRP she)) (VP (VB have) (PP (TO to) (NP (NN grade))))) (. ?)))
p172
sVtext
p173
VIf she graded 4 , but then another 18 were turned in , how many worksheets would she have to grade ?
p174
sVdependencies
p175
(lp176
(lp177
Vroot
p178
aVROOT
p179
aVhave
p180
aa(lp181
Vmark
p182
aVgraded
p183
aVIf
p184
aa(lp185
Vnsubj
p186
aVgraded
p187
aVshe
p188
aa(lp189
Vadvcl
p190
aVhave
p191
aVgraded
p192
aa(lp193
Vdobj
p194
aVgraded
p195
aV4
p196
aa(lp197
Vadvmod
p198
aVturned
p199
aVthen
p200
aa(lp201
Vdet
p202
aV18
p203
aVanother
p204
aa(lp205
Vnsubjpass
p206
aVturned
p207
aV18
p208
aa(lp209
Vauxpass
p210
aVturned
p211
aVwere
p212
aa(lp213
Vconj_but
p214
aVgraded
p215
aVturned
p216
aa(lp217
Vprt
p218
aVturned
p219
aVin
p220
aa(lp221
Vadvmod
p222
aVhave
p223
aVhow
p224
aa(lp225
Vamod
p226
aVworksheets
p227
aVmany
p228
aa(lp229
Vdep
p230
aVhow
p231
aVworksheets
p232
aa(lp233
Vaux
p234
aVhave
p235
aVwould
p236
aa(lp237
Vnsubj
p238
aVhave
p239
aVshe
p240
aa(lp241
Vprep_to
p242
aVhave
p243
aVgrade
p244
aasVwords
p245
(lp246
(lp247
VIf
p248
a(dp249
VNamedEntityTag
p250
g52
sVCharacterOffsetEnd
p251
V41
p252
sVCharacterOffsetBegin
p253
V39
p254
sVPartOfSpeech
p255
VIN
p256
sVLemma
p257
Vif
p258
saa(lp259
Vshe
p260
a(dp261
VNamedEntityTag
p262
g52
sVCharacterOffsetEnd
p263
V45
p264
sVCharacterOffsetBegin
p265
V42
p266
sVPartOfSpeech
p267
VPRP
p268
sVLemma
p269
Vshe
p270
saa(lp271
Vgraded
p272
a(dp273
VNamedEntityTag
p274
g52
sVCharacterOffsetEnd
p275
V52
p276
sVCharacterOffsetBegin
p277
V46
p278
sVPartOfSpeech
p279
VVBD
p280
sVLemma
p281
Vgrade
p282
saa(lp283
g196
a(dp284
VNormalizedNamedEntityTag
p285
V4.0
p286
sVLemma
p287
g196
sVCharacterOffsetEnd
p288
V54
p289
sVPartOfSpeech
p290
VCD
p291
sVCharacterOffsetBegin
p292
V53
p293
sVNamedEntityTag
p294
VNUMBER
p295
saa(lp296
V,
p297
a(dp298
VNamedEntityTag
p299
g52
sVCharacterOffsetEnd
p300
V56
p301
sVCharacterOffsetBegin
p302
V55
p303
sVPartOfSpeech
p304
g297
sVLemma
p305
g297
saa(lp306
Vbut
p307
a(dp308
VNamedEntityTag
p309
g52
sVCharacterOffsetEnd
p310
V60
p311
sVCharacterOffsetBegin
p312
V57
p313
sVPartOfSpeech
p314
VCC
p315
sVLemma
p316
Vbut
p317
saa(lp318
Vthen
p319
a(dp320
VNamedEntityTag
p321
g52
sVCharacterOffsetEnd
p322
V65
p323
sVCharacterOffsetBegin
p324
V61
p325
sVPartOfSpeech
p326
VRB
p327
sVLemma
p328
Vthen
p329
saa(lp330
Vanother
p331
a(dp332
VNamedEntityTag
p333
g52
sVCharacterOffsetEnd
p334
V73
p335
sVCharacterOffsetBegin
p336
V66
p337
sVPartOfSpeech
p338
VDT
p339
sVLemma
p340
Vanother
p341
saa(lp342
V18
p343
a(dp344
VNormalizedNamedEntityTag
p345
V18.0
p346
sVLemma
p347
V18
p348
sVCharacterOffsetEnd
p349
V76
p350
sVPartOfSpeech
p351
VCD
p352
sVCharacterOffsetBegin
p353
V74
p354
sVNamedEntityTag
p355
VNUMBER
p356
saa(lp357
Vwere
p358
a(dp359
VNamedEntityTag
p360
g52
sVCharacterOffsetEnd
p361
V81
p362
sVCharacterOffsetBegin
p363
V77
p364
sVPartOfSpeech
p365
VVBD
p366
sVLemma
p367
Vbe
p368
saa(lp369
Vturned
p370
a(dp371
VNamedEntityTag
p372
g52
sVCharacterOffsetEnd
p373
V88
p374
sVCharacterOffsetBegin
p375
V82
p376
sVPartOfSpeech
p377
VVBN
p378
sVLemma
p379
Vturn
p380
saa(lp381
Vin
p382
a(dp383
VNamedEntityTag
p384
g52
sVCharacterOffsetEnd
p385
V91
p386
sVCharacterOffsetBegin
p387
V89
p388
sVPartOfSpeech
p389
VRP
p390
sVLemma
p391
Vin
p392
saa(lp393
g297
a(dp394
VNamedEntityTag
p395
g52
sVCharacterOffsetEnd
p396
V93
p397
sVCharacterOffsetBegin
p398
V92
p399
sVPartOfSpeech
p400
g297
sVLemma
p401
g297
saa(lp402
Vhow
p403
a(dp404
VNamedEntityTag
p405
g52
sVCharacterOffsetEnd
p406
V97
p407
sVCharacterOffsetBegin
p408
V94
p409
sVPartOfSpeech
p410
VWRB
p411
sVLemma
p412
Vhow
p413
saa(lp414
Vmany
p415
a(dp416
VNamedEntityTag
p417
g52
sVCharacterOffsetEnd
p418
V102
p419
sVCharacterOffsetBegin
p420
V98
p421
sVPartOfSpeech
p422
VJJ
p423
sVLemma
p424
Vmany
p425
saa(lp426
Vworksheets
p427
a(dp428
VNamedEntityTag
p429
g52
sVCharacterOffsetEnd
p430
V113
p431
sVCharacterOffsetBegin
p432
V103
p433
sVPartOfSpeech
p434
VNNS
p435
sVLemma
p436
Vworksheet
p437
saa(lp438
Vwould
p439
a(dp440
VNamedEntityTag
p441
g52
sVCharacterOffsetEnd
p442
V119
p443
sVCharacterOffsetBegin
p444
V114
p445
sVPartOfSpeech
p446
VMD
p447
sVLemma
p448
Vwould
p449
saa(lp450
Vshe
p451
a(dp452
VNamedEntityTag
p453
g52
sVCharacterOffsetEnd
p454
V123
p455
sVCharacterOffsetBegin
p456
V120
p457
sVPartOfSpeech
p458
VPRP
p459
sVLemma
p460
Vshe
p461
saa(lp462
Vhave
p463
a(dp464
VNamedEntityTag
p465
g52
sVCharacterOffsetEnd
p466
V128
p467
sVCharacterOffsetBegin
p468
V124
p469
sVPartOfSpeech
p470
VVB
p471
sVLemma
p472
Vhave
p473
saa(lp474
Vto
p475
a(dp476
VNamedEntityTag
p477
g52
sVCharacterOffsetEnd
p478
V131
p479
sVCharacterOffsetBegin
p480
V129
p481
sVPartOfSpeech
p482
VTO
p483
sVLemma
p484
Vto
p485
saa(lp486
Vgrade
p487
a(dp488
VNamedEntityTag
p489
g52
sVCharacterOffsetEnd
p490
V137
p491
sVCharacterOffsetBegin
p492
V132
p493
sVPartOfSpeech
p494
VNN
p495
sVLemma
p496
Vgrade
p497
saa(lp498
V?
p499
a(dp500
VNamedEntityTag
p501
g52
sVCharacterOffsetEnd
p502
V139
p503
sVCharacterOffsetBegin
p504
V138
p505
sVPartOfSpeech
p506
g135
sVLemma
p507
g499
saasVindexeddependencies
p508
(lp509
(lp510
Vroot
p511
aVROOT-0
p512
aVhave-19
p513
aa(lp514
Vmark
p515
aVgraded-3
p516
aVIf-1
p517
aa(lp518
Vnsubj
p519
aVgraded-3
p520
aVshe-2
p521
aa(lp522
Vadvcl
p523
aVhave-19
p524
aVgraded-3
p525
aa(lp526
Vdobj
p527
aVgraded-3
p528
aV4-4
p529
aa(lp530
Vadvmod
p531
aVturned-11
p532
aVthen-7
p533
aa(lp534
Vdet
p535
aV18-9
p536
aVanother-8
p537
aa(lp538
Vnsubjpass
p539
aVturned-11
p540
aV18-9
p541
aa(lp542
Vauxpass
p543
aVturned-11
p544
aVwere-10
p545
aa(lp546
Vconj_but
p547
aVgraded-3
p548
aVturned-11
p549
aa(lp550
Vprt
p551
aVturned-11
p552
aVin-12
p553
aa(lp554
Vadvmod
p555
aVhave-19
p556
aVhow-14
p557
aa(lp558
Vamod
p559
aVworksheets-16
p560
aVmany-15
p561
aa(lp562
Vdep
p563
aVhow-14
p564
aVworksheets-16
p565
aa(lp566
Vaux
p567
aVhave-19
p568
aVwould-17
p569
aa(lp570
Vnsubj
p571
aVhave-19
p572
aVshe-18
p573
aa(lp574
Vprep_to
p575
aVhave-19
p576
aVgrade-21
p577
aasas.