(dp0
Vcoref
p1
(lp2
(lp3
(lp4
(lp5
Vthe meeting
p6
aI1
aI7
aI6
aI8
aa(lp7
VA school staff meeting
p8
aI0
aI3
aI0
aI4
aaaa(lp9
(lp10
(lp11
Vfirst-year teachers
p12
aI1
aI3
aI2
aI4
aa(lp13
Vfirst-year teachers
p14
aI0
aI16
aI15
aI17
aaaasVsentences
p15
(lp16
(dp17
Vparsetree
p18
V(ROOT (S (NP (DT A) (NN school) (NN staff) (NN meeting)) (VP (VBD had) (NP (NP (CD 5) (NNS teachers)) (PP (IN in) (NP (NN attendance)))) (, ,) (PP (NP (CD 0.4) (NNS times)) (IN of) (SBAR (WHNP (WP whom)) (S (VP (VBD were) (NP (JJ first-year) (NNS teachers))))))) (. .)))
p19
sVtext
p20
VA school staff meeting had 5 teachers in attendance , 0.4 times of whom were first-year teachers .
p21
sVdependencies
p22
(lp23
(lp24
Vroot
p25
aVROOT
p26
aVhad
p27
aa(lp28
Vdet
p29
aVmeeting
p30
aVA
p31
aa(lp32
Vnn
p33
aVmeeting
p34
aVschool
p35
aa(lp36
Vnn
p37
aVmeeting
p38
aVstaff
p39
aa(lp40
Vnsubj
p41
aVhad
p42
aVmeeting
p43
aa(lp44
Vnum
p45
aVteachers
p46
aV5
p47
aa(lp48
Vdobj
p49
aVhad
p50
aVteachers
p51
aa(lp52
Vprep_in
p53
aVteachers
p54
aVattendance
p55
aa(lp56
Vnum
p57
aVtimes
p58
aV0.4
p59
aa(lp60
Vnpadvmod
p61
aVhad
p62
aVtimes
p63
aa(lp64
Vnsubj
p65
aVteachers
p66
aVwhom
p67
aa(lp68
Vcop
p69
aVteachers
p70
aVwere
p71
aa(lp72
Vamod
p73
aVteachers
p74
aVfirst-year
p75
aa(lp76
Vprepc_of
p77
aVhad
p78
aVteachers
p79
aasVwords
p80
(lp81
(lp82
g31
a(dp83
VNamedEntityTag
p84
VO
p85
sVCharacterOffsetEnd
p86
V2
p87
sVCharacterOffsetBegin
p88
V1
p89
sVPartOfSpeech
p90
VDT
p91
sVLemma
p92
Va
p93
saa(lp94
Vschool
p95
a(dp96
VNamedEntityTag
p97
g85
sVCharacterOffsetEnd
p98
V9
p99
sVCharacterOffsetBegin
p100
V3
p101
sVPartOfSpeech
p102
VNN
p103
sVLemma
p104
Vschool
p105
saa(lp106
Vstaff
p107
a(dp108
VNamedEntityTag
p109
g85
sVCharacterOffsetEnd
p110
V15
p111
sVCharacterOffsetBegin
p112
V10
p113
sVPartOfSpeech
p114
VNN
p115
sVLemma
p116
Vstaff
p117
saa(lp118
Vmeeting
p119
a(dp120
VNamedEntityTag
p121
g85
sVCharacterOffsetEnd
p122
V23
p123
sVCharacterOffsetBegin
p124
V16
p125
sVPartOfSpeech
p126
VNN
p127
sVLemma
p128
Vmeeting
p129
saa(lp130
Vhad
p131
a(dp132
VNamedEntityTag
p133
g85
sVCharacterOffsetEnd
p134
V27
p135
sVCharacterOffsetBegin
p136
V24
p137
sVPartOfSpeech
p138
VVBD
p139
sVLemma
p140
Vhave
p141
saa(lp142
g47
a(dp143
VNormalizedNamedEntityTag
p144
V5.0
p145
sVLemma
p146
g47
sVCharacterOffsetEnd
p147
V29
p148
sVPartOfSpeech
p149
VCD
p150
sVCharacterOffsetBegin
p151
V28
p152
sVNamedEntityTag
p153
VNUMBER
p154
saa(lp155
Vteachers
p156
a(dp157
VNamedEntityTag
p158
g85
sVCharacterOffsetEnd
p159
V38
p160
sVCharacterOffsetBegin
p161
V30
p162
sVPartOfSpeech
p163
VNNS
p164
sVLemma
p165
Vteacher
p166
saa(lp167
Vin
p168
a(dp169
VNamedEntityTag
p170
g85
sVCharacterOffsetEnd
p171
V41
p172
sVCharacterOffsetBegin
p173
V39
p174
sVPartOfSpeech
p175
VIN
p176
sVLemma
p177
Vin
p178
saa(lp179
Vattendance
p180
a(dp181
VNamedEntityTag
p182
g85
sVCharacterOffsetEnd
p183
V52
p184
sVCharacterOffsetBegin
p185
V42
p186
sVPartOfSpeech
p187
VNN
p188
sVLemma
p189
Vattendance
p190
saa(lp191
V,
p192
a(dp193
VNamedEntityTag
p194
g85
sVCharacterOffsetEnd
p195
V54
p196
sVCharacterOffsetBegin
p197
V53
p198
sVPartOfSpeech
p199
g192
sVLemma
p200
g192
saa(lp201
V0.4
p202
a(dp203
VNormalizedNamedEntityTag
p204
V0.4
p205
sVLemma
p206
V0.4
p207
sVCharacterOffsetEnd
p208
V58
p209
sVPartOfSpeech
p210
VCD
p211
sVCharacterOffsetBegin
p212
V55
p213
sVNamedEntityTag
p214
VNUMBER
p215
saa(lp216
Vtimes
p217
a(dp218
VNamedEntityTag
p219
g85
sVCharacterOffsetEnd
p220
V64
p221
sVCharacterOffsetBegin
p222
V59
p223
sVPartOfSpeech
p224
VNNS
p225
sVLemma
p226
Vtime
p227
saa(lp228
Vof
p229
a(dp230
VNamedEntityTag
p231
g85
sVCharacterOffsetEnd
p232
V67
p233
sVCharacterOffsetBegin
p234
V65
p235
sVPartOfSpeech
p236
VIN
p237
sVLemma
p238
Vof
p239
saa(lp240
Vwhom
p241
a(dp242
VNamedEntityTag
p243
g85
sVCharacterOffsetEnd
p244
V72
p245
sVCharacterOffsetBegin
p246
V68
p247
sVPartOfSpeech
p248
VWP
p249
sVLemma
p250
Vwhom
p251
saa(lp252
Vwere
p253
a(dp254
VNamedEntityTag
p255
g85
sVCharacterOffsetEnd
p256
V77
p257
sVCharacterOffsetBegin
p258
V73
p259
sVPartOfSpeech
p260
VVBD
p261
sVLemma
p262
Vbe
p263
saa(lp264
Vfirst-year
p265
a(dp266
VNamedEntityTag
p267
g85
sVCharacterOffsetEnd
p268
V88
p269
sVCharacterOffsetBegin
p270
V78
p271
sVPartOfSpeech
p272
VJJ
p273
sVLemma
p274
Vfirst-year
p275
saa(lp276
Vteachers
p277
a(dp278
VNamedEntityTag
p279
g85
sVCharacterOffsetEnd
p280
V97
p281
sVCharacterOffsetBegin
p282
V89
p283
sVPartOfSpeech
p284
VNNS
p285
sVLemma
p286
Vteacher
p287
saa(lp288
V.
p289
a(dp290
VNamedEntityTag
p291
g85
sVCharacterOffsetEnd
p292
V99
p293
sVCharacterOffsetBegin
p294
V98
p295
sVPartOfSpeech
p296
g289
sVLemma
p297
g289
saasVindexeddependencies
p298
(lp299
(lp300
Vroot
p301
aVROOT-0
p302
aVhad-5
p303
aa(lp304
Vdet
p305
aVmeeting-4
p306
aVA-1
p307
aa(lp308
Vnn
p309
aVmeeting-4
p310
aVschool-2
p311
aa(lp312
Vnn
p313
aVmeeting-4
p314
aVstaff-3
p315
aa(lp316
Vnsubj
p317
aVhad-5
p318
aVmeeting-4
p319
aa(lp320
Vnum
p321
aVteachers-7
p322
aV5-6
p323
aa(lp324
Vdobj
p325
aVhad-5
p326
aVteachers-7
p327
aa(lp328
Vprep_in
p329
aVteachers-7
p330
aVattendance-9
p331
aa(lp332
Vnum
p333
aVtimes-12
p334
aV0.4-11
p335
aa(lp336
Vnpadvmod
p337
aVhad-5
p338
aVtimes-12
p339
aa(lp340
Vnsubj
p341
aVteachers-17
p342
aVwhom-14
p343
aa(lp344
Vcop
p345
aVteachers-17
p346
aVwere-15
p347
aa(lp348
Vamod
p349
aVteachers-17
p350
aVfirst-year-16
p351
aa(lp352
Vprepc_of
p353
aVhad-5
p354
aVteachers-17
p355
aasa(dp356
Vparsetree
p357
V(ROOT (SBAR (WHADJP (WRB How) (JJ many)) (S (NP (JJ first-year) (NNS teachers)) (VP (VBD were) (PP (IN in) (NP (DT the) (NN meeting))))) (. ?)))
p358
sVtext
p359
VHow many first-year teachers were in the meeting ?
p360
sVdependencies
p361
(lp362
(lp363
Vroot
p364
aVROOT
p365
aVwere
p366
aa(lp367
Vadvmod
p368
aVmany
p369
aVHow
p370
aa(lp371
Vdep
p372
aVwere
p373
aVmany
p374
aa(lp375
Vamod
p376
aVteachers
p377
aVfirst-year
p378
aa(lp379
Vnsubj
p380
aVwere
p381
aVteachers
p382
aa(lp383
Vdet
p384
aVmeeting
p385
aVthe
p386
aa(lp387
Vprep_in
p388
aVwere
p389
aVmeeting
p390
aasVwords
p391
(lp392
(lp393
VHow
p394
a(dp395
VNamedEntityTag
p396
g85
sVCharacterOffsetEnd
p397
V103
p398
sVCharacterOffsetBegin
p399
V100
p400
sVPartOfSpeech
p401
VWRB
p402
sVLemma
p403
Vhow
p404
saa(lp405
Vmany
p406
a(dp407
VNamedEntityTag
p408
g85
sVCharacterOffsetEnd
p409
V108
p410
sVCharacterOffsetBegin
p411
V104
p412
sVPartOfSpeech
p413
VJJ
p414
sVLemma
p415
Vmany
p416
saa(lp417
Vfirst-year
p418
a(dp419
VNamedEntityTag
p420
g85
sVCharacterOffsetEnd
p421
V119
p422
sVCharacterOffsetBegin
p423
V109
p424
sVPartOfSpeech
p425
VJJ
p426
sVLemma
p427
Vfirst-year
p428
saa(lp429
Vteachers
p430
a(dp431
VNamedEntityTag
p432
g85
sVCharacterOffsetEnd
p433
V128
p434
sVCharacterOffsetBegin
p435
V120
p436
sVPartOfSpeech
p437
VNNS
p438
sVLemma
p439
Vteacher
p440
saa(lp441
Vwere
p442
a(dp443
VNamedEntityTag
p444
g85
sVCharacterOffsetEnd
p445
V133
p446
sVCharacterOffsetBegin
p447
V129
p448
sVPartOfSpeech
p449
VVBD
p450
sVLemma
p451
Vbe
p452
saa(lp453
Vin
p454
a(dp455
VNamedEntityTag
p456
g85
sVCharacterOffsetEnd
p457
V136
p458
sVCharacterOffsetBegin
p459
V134
p460
sVPartOfSpeech
p461
VIN
p462
sVLemma
p463
Vin
p464
saa(lp465
Vthe
p466
a(dp467
VNamedEntityTag
p468
g85
sVCharacterOffsetEnd
p469
V140
p470
sVCharacterOffsetBegin
p471
V137
p472
sVPartOfSpeech
p473
VDT
p474
sVLemma
p475
Vthe
p476
saa(lp477
Vmeeting
p478
a(dp479
VNamedEntityTag
p480
g85
sVCharacterOffsetEnd
p481
V148
p482
sVCharacterOffsetBegin
p483
V141
p484
sVPartOfSpeech
p485
VNN
p486
sVLemma
p487
Vmeeting
p488
saa(lp489
V?
p490
a(dp491
VNamedEntityTag
p492
g85
sVCharacterOffsetEnd
p493
V150
p494
sVCharacterOffsetBegin
p495
V149
p496
sVPartOfSpeech
p497
g289
sVLemma
p498
g490
saasVindexeddependencies
p499
(lp500
(lp501
Vroot
p502
aVROOT-0
p503
aVwere-5
p504
aa(lp505
Vadvmod
p506
aVmany-2
p507
aVHow-1
p508
aa(lp509
Vdep
p510
aVwere-5
p511
aVmany-2
p512
aa(lp513
Vamod
p514
aVteachers-4
p515
aVfirst-year-3
p516
aa(lp517
Vnsubj
p518
aVwere-5
p519
aVteachers-4
p520
aa(lp521
Vdet
p522
aVmeeting-8
p523
aVthe-7
p524
aa(lp525
Vprep_in
p526
aVwere-5
p527
aVmeeting-8
p528
aasas.