(dp0
Vcoref
p1
(lp2
(lp3
(lp4
(lp5
Vthe club
p6
aI1
aI8
aI7
aI9
aa(lp7
Vthe French club
p8
aI0
aI10
aI8
aI11
aaaasVsentences
p9
(lp10
(dp11
Vparsetree
p12
V(ROOT (S (SBAR (IN In) (NN order) (S (VP (TO to) (VP (VB select) (NP (JJ new) (NN board) (NNS members)))))) (, ,) (NP (DT the) (JJ French) (NN club)) (VP (VBD held) (NP (DT an) (NN election))) (. .)))
p13
sVtext
p14
VIn order to select new board members , the French club held an election .
p15
sVdependencies
p16
(lp17
(lp18
Vroot
p19
aVROOT
p20
aVheld
p21
aa(lp22
Vmark
p23
aVselect
p24
aVIn
p25
aa(lp26
Vdep
p27
aVselect
p28
aVorder
p29
aa(lp30
Vaux
p31
aVselect
p32
aVto
p33
aa(lp34
Vadvcl
p35
aVheld
p36
aVselect
p37
aa(lp38
Vamod
p39
aVmembers
p40
aVnew
p41
aa(lp42
Vnn
p43
aVmembers
p44
aVboard
p45
aa(lp46
Vdobj
p47
aVselect
p48
aVmembers
p49
aa(lp50
Vdet
p51
aVclub
p52
aVthe
p53
aa(lp54
Vamod
p55
aVclub
p56
aVFrench
p57
aa(lp58
Vnsubj
p59
aVheld
p60
aVclub
p61
aa(lp62
Vdet
p63
aVelection
p64
aVan
p65
aa(lp66
Vdobj
p67
aVheld
p68
aVelection
p69
aasVwords
p70
(lp71
(lp72
VIn
p73
a(dp74
VNamedEntityTag
p75
VO
p76
sVCharacterOffsetEnd
p77
V3
p78
sVCharacterOffsetBegin
p79
V1
p80
sVPartOfSpeech
p81
VIN
p82
sVLemma
p83
Vin
p84
saa(lp85
Vorder
p86
a(dp87
VNamedEntityTag
p88
g76
sVCharacterOffsetEnd
p89
V9
p90
sVCharacterOffsetBegin
p91
V4
p92
sVPartOfSpeech
p93
VNN
p94
sVLemma
p95
Vorder
p96
saa(lp97
Vto
p98
a(dp99
VNamedEntityTag
p100
g76
sVCharacterOffsetEnd
p101
V12
p102
sVCharacterOffsetBegin
p103
V10
p104
sVPartOfSpeech
p105
VTO
p106
sVLemma
p107
Vto
p108
saa(lp109
Vselect
p110
a(dp111
VNamedEntityTag
p112
g76
sVCharacterOffsetEnd
p113
V19
p114
sVCharacterOffsetBegin
p115
V13
p116
sVPartOfSpeech
p117
VVB
p118
sVLemma
p119
Vselect
p120
saa(lp121
Vnew
p122
a(dp123
VNamedEntityTag
p124
g76
sVCharacterOffsetEnd
p125
V23
p126
sVCharacterOffsetBegin
p127
V20
p128
sVPartOfSpeech
p129
VJJ
p130
sVLemma
p131
Vnew
p132
saa(lp133
Vboard
p134
a(dp135
VNamedEntityTag
p136
g76
sVCharacterOffsetEnd
p137
V29
p138
sVCharacterOffsetBegin
p139
V24
p140
sVPartOfSpeech
p141
VNN
p142
sVLemma
p143
Vboard
p144
saa(lp145
Vmembers
p146
a(dp147
VNamedEntityTag
p148
g76
sVCharacterOffsetEnd
p149
V37
p150
sVCharacterOffsetBegin
p151
V30
p152
sVPartOfSpeech
p153
VNNS
p154
sVLemma
p155
Vmember
p156
saa(lp157
V,
p158
a(dp159
VNamedEntityTag
p160
g76
sVCharacterOffsetEnd
p161
V39
p162
sVCharacterOffsetBegin
p163
V38
p164
sVPartOfSpeech
p165
g158
sVLemma
p166
g158
saa(lp167
Vthe
p168
a(dp169
VNamedEntityTag
p170
g76
sVCharacterOffsetEnd
p171
V43
p172
sVCharacterOffsetBegin
p173
V40
p174
sVPartOfSpeech
p175
VDT
p176
sVLemma
p177
Vthe
p178
saa(lp179
VFrench
p180
a(dp181
VNamedEntityTag
p182
VMISC
p183
sVCharacterOffsetEnd
p184
V50
p185
sVCharacterOffsetBegin
p186
V44
p187
sVPartOfSpeech
p188
VJJ
p189
sVLemma
p190
Vfrench
p191
saa(lp192
Vclub
p193
a(dp194
VNamedEntityTag
p195
g76
sVCharacterOffsetEnd
p196
V55
p197
sVCharacterOffsetBegin
p198
V51
p199
sVPartOfSpeech
p200
VNN
p201
sVLemma
p202
Vclub
p203
saa(lp204
Vheld
p205
a(dp206
VNamedEntityTag
p207
g76
sVCharacterOffsetEnd
p208
V60
p209
sVCharacterOffsetBegin
p210
V56
p211
sVPartOfSpeech
p212
VVBD
p213
sVLemma
p214
Vhold
p215
saa(lp216
Van
p217
a(dp218
VNamedEntityTag
p219
g76
sVCharacterOffsetEnd
p220
V63
p221
sVCharacterOffsetBegin
p222
V61
p223
sVPartOfSpeech
p224
VDT
p225
sVLemma
p226
Va
p227
saa(lp228
Velection
p229
a(dp230
VNamedEntityTag
p231
g76
sVCharacterOffsetEnd
p232
V72
p233
sVCharacterOffsetBegin
p234
V64
p235
sVPartOfSpeech
p236
VNN
p237
sVLemma
p238
Velection
p239
saa(lp240
V.
p241
a(dp242
VNamedEntityTag
p243
g76
sVCharacterOffsetEnd
p244
V74
p245
sVCharacterOffsetBegin
p246
V73
p247
sVPartOfSpeech
p248
g241
sVLemma
p249
g241
saasVindexeddependencies
p250
(lp251
(lp252
Vroot
p253
aVROOT-0
p254
aVheld-12
p255
aa(lp256
Vmark
p257
aVselect-4
p258
aVIn-1
p259
aa(lp260
Vdep
p261
aVselect-4
p262
aVorder-2
p263
aa(lp264
Vaux
p265
aVselect-4
p266
aVto-3
p267
aa(lp268
Vadvcl
p269
aVheld-12
p270
aVselect-4
p271
aa(lp272
Vamod
p273
aVmembers-7
p274
aVnew-5
p275
aa(lp276
Vnn
p277
aVmembers-7
p278
aVboard-6
p279
aa(lp280
Vdobj
p281
aVselect-4
p282
aVmembers-7
p283
aa(lp284
Vdet
p285
aVclub-11
p286
aVthe-9
p287
aa(lp288
Vamod
p289
aVclub-11
p290
aVFrench-10
p291
aa(lp292
Vnsubj
p293
aVheld-12
p294
aVclub-11
p295
aa(lp296
Vdet
p297
aVelection-14
p298
aVan-13
p299
aa(lp300
Vdobj
p301
aVheld-12
p302
aVelection-14
p303
aasa(dp304
Vparsetree
p305
V(ROOT (S (NP (NP (CD 0.2) (NNS times)) (PP (IN of) (NP (NP (DT the) (CD 15) (NNS members)) (PP (IN of) (NP (DT the) (NN club)))))) (VP (VBD voted)) (. .)))
p306
sVtext
p307
V0.2 times of the 15 members of the club voted .
p308
sVdependencies
p309
(lp310
(lp311
Vroot
p312
aVROOT
p313
aVvoted
p314
aa(lp315
Vnum
p316
aVtimes
p317
aV0.2
p318
aa(lp319
Vnsubj
p320
aVvoted
p321
aVtimes
p322
aa(lp323
Vdet
p324
aVmembers
p325
aVthe
p326
aa(lp327
Vnum
p328
aVmembers
p329
aV15
p330
aa(lp331
Vprep_of
p332
aVtimes
p333
aVmembers
p334
aa(lp335
Vdet
p336
aVclub
p337
aVthe
p338
aa(lp339
Vprep_of
p340
aVmembers
p341
aVclub
p342
aasVwords
p343
(lp344
(lp345
V0.2
p346
a(dp347
VNormalizedNamedEntityTag
p348
V0.2
p349
sVLemma
p350
V0.2
p351
sVCharacterOffsetEnd
p352
V78
p353
sVPartOfSpeech
p354
VCD
p355
sVCharacterOffsetBegin
p356
V75
p357
sVNamedEntityTag
p358
VNUMBER
p359
saa(lp360
Vtimes
p361
a(dp362
VNamedEntityTag
p363
g76
sVCharacterOffsetEnd
p364
V84
p365
sVCharacterOffsetBegin
p366
V79
p367
sVPartOfSpeech
p368
VNNS
p369
sVLemma
p370
Vtime
p371
saa(lp372
Vof
p373
a(dp374
VNamedEntityTag
p375
g76
sVCharacterOffsetEnd
p376
V87
p377
sVCharacterOffsetBegin
p378
V85
p379
sVPartOfSpeech
p380
VIN
p381
sVLemma
p382
Vof
p383
saa(lp384
Vthe
p385
a(dp386
VNamedEntityTag
p387
g76
sVCharacterOffsetEnd
p388
V91
p389
sVCharacterOffsetBegin
p390
V88
p391
sVPartOfSpeech
p392
VDT
p393
sVLemma
p394
Vthe
p395
saa(lp396
V15
p397
a(dp398
VNormalizedNamedEntityTag
p399
V15.0
p400
sVLemma
p401
V15
p402
sVCharacterOffsetEnd
p403
V94
p404
sVPartOfSpeech
p405
VCD
p406
sVCharacterOffsetBegin
p407
V92
p408
sVNamedEntityTag
p409
VNUMBER
p410
saa(lp411
Vmembers
p412
a(dp413
VNamedEntityTag
p414
g76
sVCharacterOffsetEnd
p415
V102
p416
sVCharacterOffsetBegin
p417
V95
p418
sVPartOfSpeech
p419
VNNS
p420
sVLemma
p421
Vmember
p422
saa(lp423
Vof
p424
a(dp425
VNamedEntityTag
p426
g76
sVCharacterOffsetEnd
p427
V105
p428
sVCharacterOffsetBegin
p429
V103
p430
sVPartOfSpeech
p431
VIN
p432
sVLemma
p433
Vof
p434
saa(lp435
Vthe
p436
a(dp437
VNamedEntityTag
p438
g76
sVCharacterOffsetEnd
p439
V109
p440
sVCharacterOffsetBegin
p441
V106
p442
sVPartOfSpeech
p443
VDT
p444
sVLemma
p445
Vthe
p446
saa(lp447
Vclub
p448
a(dp449
VNamedEntityTag
p450
g76
sVCharacterOffsetEnd
p451
V114
p452
sVCharacterOffsetBegin
p453
V110
p454
sVPartOfSpeech
p455
VNN
p456
sVLemma
p457
Vclub
p458
saa(lp459
Vvoted
p460
a(dp461
VNamedEntityTag
p462
g76
sVCharacterOffsetEnd
p463
V120
p464
sVCharacterOffsetBegin
p465
V115
p466
sVPartOfSpeech
p467
VVBD
p468
sVLemma
p469
Vvote
p470
saa(lp471
g241
a(dp472
VNamedEntityTag
p473
g76
sVCharacterOffsetEnd
p474
V122
p475
sVCharacterOffsetBegin
p476
V121
p477
sVPartOfSpeech
p478
g241
sVLemma
p479
g241
saasVindexeddependencies
p480
(lp481
(lp482
Vroot
p483
aVROOT-0
p484
aVvoted-10
p485
aa(lp486
Vnum
p487
aVtimes-2
p488
aV0.2-1
p489
aa(lp490
Vnsubj
p491
aVvoted-10
p492
aVtimes-2
p493
aa(lp494
Vdet
p495
aVmembers-6
p496
aVthe-4
p497
aa(lp498
Vnum
p499
aVmembers-6
p500
aV15-5
p501
aa(lp502
Vprep_of
p503
aVtimes-2
p504
aVmembers-6
p505
aa(lp506
Vdet
p507
aVclub-9
p508
aVthe-8
p509
aa(lp510
Vprep_of
p511
aVmembers-6
p512
aVclub-9
p513
aasa(dp514
Vparsetree
p515
V(ROOT (SBARQ (WHNP (WHADJP (WRB How) (JJ many)) (NNS members)) (SQ (VP (VBD voted))) (. ?)))
p516
sVtext
p517
VHow many members voted ?
p518
sVdependencies
p519
(lp520
(lp521
Vroot
p522
aVROOT
p523
aVvoted
p524
aa(lp525
Vadvmod
p526
aVmany
p527
aVHow
p528
aa(lp529
Vamod
p530
aVmembers
p531
aVmany
p532
aa(lp533
Vnsubj
p534
aVvoted
p535
aVmembers
p536
aasVwords
p537
(lp538
(lp539
VHow
p540
a(dp541
VNamedEntityTag
p542
g76
sVCharacterOffsetEnd
p543
V126
p544
sVCharacterOffsetBegin
p545
V123
p546
sVPartOfSpeech
p547
VWRB
p548
sVLemma
p549
Vhow
p550
saa(lp551
Vmany
p552
a(dp553
VNamedEntityTag
p554
g76
sVCharacterOffsetEnd
p555
V131
p556
sVCharacterOffsetBegin
p557
V127
p558
sVPartOfSpeech
p559
VJJ
p560
sVLemma
p561
Vmany
p562
saa(lp563
Vmembers
p564
a(dp565
VNamedEntityTag
p566
g76
sVCharacterOffsetEnd
p567
V139
p568
sVCharacterOffsetBegin
p569
V132
p570
sVPartOfSpeech
p571
VNNS
p572
sVLemma
p573
Vmember
p574
saa(lp575
Vvoted
p576
a(dp577
VNamedEntityTag
p578
g76
sVCharacterOffsetEnd
p579
V145
p580
sVCharacterOffsetBegin
p581
V140
p582
sVPartOfSpeech
p583
VVBD
p584
sVLemma
p585
Vvote
p586
saa(lp587
V?
p588
a(dp589
VNamedEntityTag
p590
g76
sVCharacterOffsetEnd
p591
V147
p592
sVCharacterOffsetBegin
p593
V146
p594
sVPartOfSpeech
p595
g241
sVLemma
p596
g588
saasVindexeddependencies
p597
(lp598
(lp599
Vroot
p600
aVROOT-0
p601
aVvoted-4
p602
aa(lp603
Vadvmod
p604
aVmany-2
p605
aVHow-1
p606
aa(lp607
Vamod
p608
aVmembers-3
p609
aVmany-2
p610
aa(lp611
Vnsubj
p612
aVvoted-4
p613
aVmembers-3
p614
aasas.