(dp0
Vcoref
p1
(lp2
(lp3
(lp4
(lp5
Vthe bin
p6
aI1
aI16
aI15
aI17
aa(lp7
Va bin
p8
aI0
aI7
aI6
aI8
aaa(lp9
(lp10
Vthe bin
p11
aI1
aI23
aI22
aI24
aa(lp12
Va bin
p13
aI0
aI7
aI6
aI8
aaaasVsentences
p14
(lp15
(dp16
Vparsetree
p17
V(ROOT (S (NP (DT A) (NN store)) (VP (VBD had) (NP (NP (CD 34) (NNS oranges)) (PP (IN in) (NP (DT a) (NN bin))))) (. .)))
p18
sVtext
p19
VA store had 34 oranges in a bin .
p20
sVdependencies
p21
(lp22
(lp23
Vroot
p24
aVROOT
p25
aVhad
p26
aa(lp27
Vdet
p28
aVstore
p29
aVA
p30
aa(lp31
Vnsubj
p32
aVhad
p33
aVstore
p34
aa(lp35
Vnum
p36
aVoranges
p37
aV34
p38
aa(lp39
Vdobj
p40
aVhad
p41
aVoranges
p42
aa(lp43
Vdet
p44
aVbin
p45
aVa
p46
aa(lp47
Vprep_in
p48
aVoranges
p49
aVbin
p50
aasVwords
p51
(lp52
(lp53
g30
a(dp54
VNamedEntityTag
p55
VO
p56
sVCharacterOffsetEnd
p57
V2
p58
sVCharacterOffsetBegin
p59
V1
p60
sVPartOfSpeech
p61
VDT
p62
sVLemma
p63
g46
saa(lp64
Vstore
p65
a(dp66
VNamedEntityTag
p67
g56
sVCharacterOffsetEnd
p68
V8
p69
sVCharacterOffsetBegin
p70
V3
p71
sVPartOfSpeech
p72
VNN
p73
sVLemma
p74
Vstore
p75
saa(lp76
Vhad
p77
a(dp78
VNamedEntityTag
p79
g56
sVCharacterOffsetEnd
p80
V12
p81
sVCharacterOffsetBegin
p82
V9
p83
sVPartOfSpeech
p84
VVBD
p85
sVLemma
p86
Vhave
p87
saa(lp88
V34
p89
a(dp90
VNormalizedNamedEntityTag
p91
V34.0
p92
sVLemma
p93
V34
p94
sVCharacterOffsetEnd
p95
V15
p96
sVPartOfSpeech
p97
VCD
p98
sVCharacterOffsetBegin
p99
V13
p100
sVNamedEntityTag
p101
VNUMBER
p102
saa(lp103
Voranges
p104
a(dp105
VNamedEntityTag
p106
g56
sVCharacterOffsetEnd
p107
V23
p108
sVCharacterOffsetBegin
p109
V16
p110
sVPartOfSpeech
p111
VNNS
p112
sVLemma
p113
Vorange
p114
saa(lp115
Vin
p116
a(dp117
VNamedEntityTag
p118
g56
sVCharacterOffsetEnd
p119
V26
p120
sVCharacterOffsetBegin
p121
V24
p122
sVPartOfSpeech
p123
VIN
p124
sVLemma
p125
Vin
p126
saa(lp127
g46
a(dp128
VNamedEntityTag
p129
g56
sVCharacterOffsetEnd
p130
V28
p131
sVCharacterOffsetBegin
p132
V27
p133
sVPartOfSpeech
p134
VDT
p135
sVLemma
p136
g46
saa(lp137
Vbin
p138
a(dp139
VNamedEntityTag
p140
g56
sVCharacterOffsetEnd
p141
V32
p142
sVCharacterOffsetBegin
p143
V29
p144
sVPartOfSpeech
p145
VNN
p146
sVLemma
p147
Vbin
p148
saa(lp149
V.
p150
a(dp151
VNamedEntityTag
p152
g56
sVCharacterOffsetEnd
p153
V34
p154
sVCharacterOffsetBegin
p155
V33
p156
sVPartOfSpeech
p157
g150
sVLemma
p158
g150
saasVindexeddependencies
p159
(lp160
(lp161
Vroot
p162
aVROOT-0
p163
aVhad-3
p164
aa(lp165
Vdet
p166
aVstore-2
p167
aVA-1
p168
aa(lp169
Vnsubj
p170
aVhad-3
p171
aVstore-2
p172
aa(lp173
Vnum
p174
aVoranges-5
p175
aV34-4
p176
aa(lp177
Vdobj
p178
aVhad-3
p179
aVoranges-5
p180
aa(lp181
Vdet
p182
aVbin-8
p183
aVa-7
p184
aa(lp185
Vprep_in
p186
aVoranges-5
p187
aVbin-8
p188
aasa(dp189
Vparsetree
p190
V(ROOT (SBARQ (SBAR (IN If) (S (NP (PRP they)) (VP (VP (VBD threw) (PRT (RB away)) (NP (NP (CD 20)) (PP (IN of) (NP (DT the) (JJ old) (NNS ones))))) (CC and) (VP (VBD put) (NP (CD 13) (JJ new) (NNS ones)) (PP (IN in) (NP (DT the) (NN bin))))))) (WHNP (WRB how) (JJ many)) (SQ (VP (MD would) (VP (VB be) (PP (IN in) (NP (DT the) (NN bin)))))) (. ?)))
p191
sVtext
p192
VIf they threw away 20 of the old ones and put 13 new ones in the bin how many would be in the bin ?
p193
sVdependencies
p194
(lp195
(lp196
Vroot
p197
aVROOT
p198
aVbe
p199
aa(lp200
Vmark
p201
aVthrew
p202
aVIf
p203
aa(lp204
Vnsubj
p205
aVthrew
p206
aVthey
p207
aa(lp208
Vdep
p209
aVbe
p210
aVthrew
p211
aa(lp212
Vprt
p213
aVthrew
p214
aVaway
p215
aa(lp216
Vdobj
p217
aVthrew
p218
aV20
p219
aa(lp220
Vdet
p221
aVones
p222
aVthe
p223
aa(lp224
Vamod
p225
aVones
p226
aVold
p227
aa(lp228
Vprep_of
p229
aV20
p230
aVones
p231
aa(lp232
Vconj_and
p233
aVthrew
p234
aVput
p235
aa(lp236
Vnum
p237
aVones
p238
aV13
p239
aa(lp240
Vamod
p241
aVones
p242
aVnew
p243
aa(lp244
Vdobj
p245
aVput
p246
aVones
p247
aa(lp248
Vdet
p249
aVbin
p250
aVthe
p251
aa(lp252
Vprep_in
p253
aVput
p254
aVbin
p255
aa(lp256
Vadvmod
p257
aVmany
p258
aVhow
p259
aa(lp260
Vnsubj
p261
aVbe
p262
aVmany
p263
aa(lp264
Vaux
p265
aVbe
p266
aVwould
p267
aa(lp268
Vdet
p269
aVbin
p270
aVthe
p271
aa(lp272
Vprep_in
p273
aVbe
p274
aVbin
p275
aasVwords
p276
(lp277
(lp278
VIf
p279
a(dp280
VNamedEntityTag
p281
g56
sVCharacterOffsetEnd
p282
V37
p283
sVCharacterOffsetBegin
p284
V35
p285
sVPartOfSpeech
p286
VIN
p287
sVLemma
p288
Vif
p289
saa(lp290
Vthey
p291
a(dp292
VNamedEntityTag
p293
g56
sVCharacterOffsetEnd
p294
V42
p295
sVCharacterOffsetBegin
p296
V38
p297
sVPartOfSpeech
p298
VPRP
p299
sVLemma
p300
Vthey
p301
saa(lp302
Vthrew
p303
a(dp304
VNamedEntityTag
p305
g56
sVCharacterOffsetEnd
p306
V48
p307
sVCharacterOffsetBegin
p308
V43
p309
sVPartOfSpeech
p310
VVBD
p311
sVLemma
p312
Vthrow
p313
saa(lp314
Vaway
p315
a(dp316
VNamedEntityTag
p317
g56
sVCharacterOffsetEnd
p318
V53
p319
sVCharacterOffsetBegin
p320
V49
p321
sVPartOfSpeech
p322
VRB
p323
sVLemma
p324
Vaway
p325
saa(lp326
V20
p327
a(dp328
VNormalizedNamedEntityTag
p329
V20.0
p330
sVLemma
p331
V20
p332
sVCharacterOffsetEnd
p333
V56
p334
sVPartOfSpeech
p335
VCD
p336
sVCharacterOffsetBegin
p337
V54
p338
sVNamedEntityTag
p339
VNUMBER
p340
saa(lp341
Vof
p342
a(dp343
VNamedEntityTag
p344
g56
sVCharacterOffsetEnd
p345
V59
p346
sVCharacterOffsetBegin
p347
V57
p348
sVPartOfSpeech
p349
VIN
p350
sVLemma
p351
Vof
p352
saa(lp353
Vthe
p354
a(dp355
VNamedEntityTag
p356
g56
sVCharacterOffsetEnd
p357
V63
p358
sVCharacterOffsetBegin
p359
V60
p360
sVPartOfSpeech
p361
VDT
p362
sVLemma
p363
Vthe
p364
saa(lp365
Vold
p366
a(dp367
VNamedEntityTag
p368
g56
sVCharacterOffsetEnd
p369
V67
p370
sVCharacterOffsetBegin
p371
V64
p372
sVPartOfSpeech
p373
VJJ
p374
sVLemma
p375
Vold
p376
saa(lp377
Vones
p378
a(dp379
VNamedEntityTag
p380
g56
sVCharacterOffsetEnd
p381
V72
p382
sVCharacterOffsetBegin
p383
V68
p384
sVPartOfSpeech
p385
VNNS
p386
sVLemma
p387
Vone
p388
saa(lp389
Vand
p390
a(dp391
VNamedEntityTag
p392
g56
sVCharacterOffsetEnd
p393
V76
p394
sVCharacterOffsetBegin
p395
V73
p396
sVPartOfSpeech
p397
VCC
p398
sVLemma
p399
Vand
p400
saa(lp401
Vput
p402
a(dp403
VNamedEntityTag
p404
g56
sVCharacterOffsetEnd
p405
V80
p406
sVCharacterOffsetBegin
p407
V77
p408
sVPartOfSpeech
p409
VVBD
p410
sVLemma
p411
Vput
p412
saa(lp413
V13
p414
a(dp415
VNormalizedNamedEntityTag
p416
V13.0
p417
sVLemma
p418
V13
p419
sVCharacterOffsetEnd
p420
V83
p421
sVPartOfSpeech
p422
VCD
p423
sVCharacterOffsetBegin
p424
V81
p425
sVNamedEntityTag
p426
VNUMBER
p427
saa(lp428
Vnew
p429
a(dp430
VNamedEntityTag
p431
g56
sVCharacterOffsetEnd
p432
V87
p433
sVCharacterOffsetBegin
p434
V84
p435
sVPartOfSpeech
p436
VJJ
p437
sVLemma
p438
Vnew
p439
saa(lp440
Vones
p441
a(dp442
VNamedEntityTag
p443
g56
sVCharacterOffsetEnd
p444
V92
p445
sVCharacterOffsetBegin
p446
V88
p447
sVPartOfSpeech
p448
VNNS
p449
sVLemma
p450
Vone
p451
saa(lp452
Vin
p453
a(dp454
VNamedEntityTag
p455
g56
sVCharacterOffsetEnd
p456
V95
p457
sVCharacterOffsetBegin
p458
V93
p459
sVPartOfSpeech
p460
VIN
p461
sVLemma
p462
Vin
p463
saa(lp464
Vthe
p465
a(dp466
VNamedEntityTag
p467
g56
sVCharacterOffsetEnd
p468
V99
p469
sVCharacterOffsetBegin
p470
V96
p471
sVPartOfSpeech
p472
VDT
p473
sVLemma
p474
Vthe
p475
saa(lp476
Vbin
p477
a(dp478
VNamedEntityTag
p479
g56
sVCharacterOffsetEnd
p480
V103
p481
sVCharacterOffsetBegin
p482
V100
p483
sVPartOfSpeech
p484
VNN
p485
sVLemma
p486
Vbin
p487
saa(lp488
Vhow
p489
a(dp490
VNamedEntityTag
p491
g56
sVCharacterOffsetEnd
p492
V107
p493
sVCharacterOffsetBegin
p494
V104
p495
sVPartOfSpeech
p496
VWRB
p497
sVLemma
p498
Vhow
p499
saa(lp500
Vmany
p501
a(dp502
VNamedEntityTag
p503
g56
sVCharacterOffsetEnd
p504
V112
p505
sVCharacterOffsetBegin
p506
V108
p507
sVPartOfSpeech
p508
VJJ
p509
sVLemma
p510
Vmany
p511
saa(lp512
Vwould
p513
a(dp514
VNamedEntityTag
p515
g56
sVCharacterOffsetEnd
p516
V118
p517
sVCharacterOffsetBegin
p518
V113
p519
sVPartOfSpeech
p520
VMD
p521
sVLemma
p522
Vwould
p523
saa(lp524
Vbe
p525
a(dp526
VNamedEntityTag
p527
g56
sVCharacterOffsetEnd
p528
V121
p529
sVCharacterOffsetBegin
p530
V119
p531
sVPartOfSpeech
p532
VVB
p533
sVLemma
p534
Vbe
p535
saa(lp536
Vin
p537
a(dp538
VNamedEntityTag
p539
g56
sVCharacterOffsetEnd
p540
V124
p541
sVCharacterOffsetBegin
p542
V122
p543
sVPartOfSpeech
p544
VIN
p545
sVLemma
p546
Vin
p547
saa(lp548
Vthe
p549
a(dp550
VNamedEntityTag
p551
g56
sVCharacterOffsetEnd
p552
V128
p553
sVCharacterOffsetBegin
p554
V125
p555
sVPartOfSpeech
p556
VDT
p557
sVLemma
p558
Vthe
p559
saa(lp560
Vbin
p561
a(dp562
VNamedEntityTag
p563
g56
sVCharacterOffsetEnd
p564
V132
p565
sVCharacterOffsetBegin
p566
V129
p567
sVPartOfSpeech
p568
VNN
p569
sVLemma
p570
Vbin
p571
saa(lp572
V?
p573
a(dp574
VNamedEntityTag
p575
g56
sVCharacterOffsetEnd
p576
V134
p577
sVCharacterOffsetBegin
p578
V133
p579
sVPartOfSpeech
p580
g150
sVLemma
p581
g573
saasVindexeddependencies
p582
(lp583
(lp584
Vroot
p585
aVROOT-0
p586
aVbe-21
p587
aa(lp588
Vmark
p589
aVthrew-3
p590
aVIf-1
p591
aa(lp592
Vnsubj
p593
aVthrew-3
p594
aVthey-2
p595
aa(lp596
Vdep
p597
aVbe-21
p598
aVthrew-3
p599
aa(lp600
Vprt
p601
aVthrew-3
p602
aVaway-4
p603
aa(lp604
Vdobj
p605
aVthrew-3
p606
aV20-5
p607
aa(lp608
Vdet
p609
aVones-9
p610
aVthe-7
p611
aa(lp612
Vamod
p613
aVones-9
p614
aVold-8
p615
aa(lp616
Vprep_of
p617
aV20-5
p618
aVones-9
p619
aa(lp620
Vconj_and
p621
aVthrew-3
p622
aVput-11
p623
aa(lp624
Vnum
p625
aVones-14
p626
aV13-12
p627
aa(lp628
Vamod
p629
aVones-14
p630
aVnew-13
p631
aa(lp632
Vdobj
p633
aVput-11
p634
aVones-14
p635
aa(lp636
Vdet
p637
aVbin-17
p638
aVthe-16
p639
aa(lp640
Vprep_in
p641
aVput-11
p642
aVbin-17
p643
aa(lp644
Vadvmod
p645
aVmany-19
p646
aVhow-18
p647
aa(lp648
Vnsubj
p649
aVbe-21
p650
aVmany-19
p651
aa(lp652
Vaux
p653
aVbe-21
p654
aVwould-20
p655
aa(lp656
Vdet
p657
aVbin-24
p658
aVthe-23
p659
aa(lp660
Vprep_in
p661
aVbe-21
p662
aVbin-24
p663
aasas.