(dp0
Vcoref
p1
(lp2
(lp3
(lp4
(lp5
VBryan
p6
aI1
aI5
aI5
aI6
aa(lp7
VBryan
p8
aI0
aI4
aI4
aI5
aaa(lp9
(lp10
VBryan
p11
aI2
aI4
aI4
aI5
aa(lp12
VBryan
p13
aI0
aI4
aI4
aI5
aaaasVsentences
p14
(lp15
(dp16
Vparsetree
p17
V(ROOT (S (PP (IN During) (NP (JJ second) (NN period))) (, ,) (NP (NNP Bryan)) (VP (VBD completed) (NP (DT a) (NN grammar) (NN worksheet))) (. .)))
p18
sVtext
p19
VDuring second period , Bryan completed a grammar worksheet .
p20
sVdependencies
p21
(lp22
(lp23
Vroot
p24
aVROOT
p25
aVcompleted
p26
aa(lp27
Vamod
p28
aVperiod
p29
aVsecond
p30
aa(lp31
Vprep_during
p32
aVcompleted
p33
aVperiod
p34
aa(lp35
Vnsubj
p36
aVcompleted
p37
aVBryan
p38
aa(lp39
Vdet
p40
aVworksheet
p41
aVa
p42
aa(lp43
Vnn
p44
aVworksheet
p45
aVgrammar
p46
aa(lp47
Vdobj
p48
aVcompleted
p49
aVworksheet
p50
aasVwords
p51
(lp52
(lp53
VDuring
p54
a(dp55
VNamedEntityTag
p56
VO
p57
sVCharacterOffsetEnd
p58
V7
p59
sVCharacterOffsetBegin
p60
V1
p61
sVPartOfSpeech
p62
VIN
p63
sVLemma
p64
Vduring
p65
saa(lp66
Vsecond
p67
a(dp68
VNormalizedNamedEntityTag
p69
V2.0
p70
sVLemma
p71
Vsecond
p72
sVCharacterOffsetEnd
p73
V14
p74
sVPartOfSpeech
p75
VJJ
p76
sVCharacterOffsetBegin
p77
V8
p78
sVNamedEntityTag
p79
VORDINAL
p80
saa(lp81
Vperiod
p82
a(dp83
VNamedEntityTag
p84
g57
sVCharacterOffsetEnd
p85
V21
p86
sVCharacterOffsetBegin
p87
V15
p88
sVPartOfSpeech
p89
VNN
p90
sVLemma
p91
Vperiod
p92
saa(lp93
V,
p94
a(dp95
VNamedEntityTag
p96
g57
sVCharacterOffsetEnd
p97
V23
p98
sVCharacterOffsetBegin
p99
V22
p100
sVPartOfSpeech
p101
g94
sVLemma
p102
g94
saa(lp103
VBryan
p104
a(dp105
VNamedEntityTag
p106
VPERSON
p107
sVCharacterOffsetEnd
p108
V29
p109
sVCharacterOffsetBegin
p110
V24
p111
sVPartOfSpeech
p112
VNNP
p113
sVLemma
p114
VBryan
p115
saa(lp116
Vcompleted
p117
a(dp118
VNamedEntityTag
p119
g57
sVCharacterOffsetEnd
p120
V39
p121
sVCharacterOffsetBegin
p122
V30
p123
sVPartOfSpeech
p124
VVBD
p125
sVLemma
p126
Vcomplete
p127
saa(lp128
g42
a(dp129
VNamedEntityTag
p130
g57
sVCharacterOffsetEnd
p131
V41
p132
sVCharacterOffsetBegin
p133
V40
p134
sVPartOfSpeech
p135
VDT
p136
sVLemma
p137
g42
saa(lp138
Vgrammar
p139
a(dp140
VNamedEntityTag
p141
g57
sVCharacterOffsetEnd
p142
V49
p143
sVCharacterOffsetBegin
p144
V42
p145
sVPartOfSpeech
p146
VNN
p147
sVLemma
p148
Vgrammar
p149
saa(lp150
Vworksheet
p151
a(dp152
VNamedEntityTag
p153
g57
sVCharacterOffsetEnd
p154
V59
p155
sVCharacterOffsetBegin
p156
V50
p157
sVPartOfSpeech
p158
VNN
p159
sVLemma
p160
Vworksheet
p161
saa(lp162
V.
p163
a(dp164
VNamedEntityTag
p165
g57
sVCharacterOffsetEnd
p166
V61
p167
sVCharacterOffsetBegin
p168
V60
p169
sVPartOfSpeech
p170
g163
sVLemma
p171
g163
saasVindexeddependencies
p172
(lp173
(lp174
Vroot
p175
aVROOT-0
p176
aVcompleted-6
p177
aa(lp178
Vamod
p179
aVperiod-3
p180
aVsecond-2
p181
aa(lp182
Vprep_during
p183
aVcompleted-6
p184
aVperiod-3
p185
aa(lp186
Vnsubj
p187
aVcompleted-6
p188
aVBryan-5
p189
aa(lp190
Vdet
p191
aVworksheet-9
p192
aVa-7
p193
aa(lp194
Vnn
p195
aVworksheet-9
p196
aVgrammar-8
p197
aa(lp198
Vdobj
p199
aVcompleted-6
p200
aVworksheet-9
p201
aasa(dp202
Vparsetree
p203
V(ROOT (S (PP (IN Of) (NP (DT the) (CD 28) (NNS questions))) (, ,) (NP (NNP Bryan)) (VP (VBD got) (NP-TMP (CD 0.75) (NNS times) (RB right))) (. .)))
p204
sVtext
p205
VOf the 28 questions , Bryan got 0.75 times right .
p206
sVdependencies
p207
(lp208
(lp209
Vroot
p210
aVROOT
p211
aVgot
p212
aa(lp213
Vdet
p214
aVquestions
p215
aVthe
p216
aa(lp217
Vnum
p218
aVquestions
p219
aV28
p220
aa(lp221
Vprep_of
p222
aVgot
p223
aVquestions
p224
aa(lp225
Vnsubj
p226
aVgot
p227
aVBryan
p228
aa(lp229
Vnum
p230
aVtimes
p231
aV0.75
p232
aa(lp233
Vtmod
p234
aVgot
p235
aVtimes
p236
aa(lp237
Vadvmod
p238
aVtimes
p239
aVright
p240
aasVwords
p241
(lp242
(lp243
VOf
p244
a(dp245
VNamedEntityTag
p246
g57
sVCharacterOffsetEnd
p247
V64
p248
sVCharacterOffsetBegin
p249
V62
p250
sVPartOfSpeech
p251
VIN
p252
sVLemma
p253
Vof
p254
saa(lp255
Vthe
p256
a(dp257
VNamedEntityTag
p258
g57
sVCharacterOffsetEnd
p259
V68
p260
sVCharacterOffsetBegin
p261
V65
p262
sVPartOfSpeech
p263
VDT
p264
sVLemma
p265
Vthe
p266
saa(lp267
V28
p268
a(dp269
VNormalizedNamedEntityTag
p270
V28.0
p271
sVLemma
p272
V28
p273
sVCharacterOffsetEnd
p274
V71
p275
sVPartOfSpeech
p276
VCD
p277
sVCharacterOffsetBegin
p278
V69
p279
sVNamedEntityTag
p280
VNUMBER
p281
saa(lp282
Vquestions
p283
a(dp284
VNamedEntityTag
p285
g57
sVCharacterOffsetEnd
p286
V81
p287
sVCharacterOffsetBegin
p288
V72
p289
sVPartOfSpeech
p290
VNNS
p291
sVLemma
p292
Vquestion
p293
saa(lp294
g94
a(dp295
VNamedEntityTag
p296
g57
sVCharacterOffsetEnd
p297
V83
p298
sVCharacterOffsetBegin
p299
V82
p300
sVPartOfSpeech
p301
g94
sVLemma
p302
g94
saa(lp303
VBryan
p304
a(dp305
VNamedEntityTag
p306
VPERSON
p307
sVCharacterOffsetEnd
p308
V89
p309
sVCharacterOffsetBegin
p310
V84
p311
sVPartOfSpeech
p312
VNNP
p313
sVLemma
p314
VBryan
p315
saa(lp316
Vgot
p317
a(dp318
VNamedEntityTag
p319
g57
sVCharacterOffsetEnd
p320
V93
p321
sVCharacterOffsetBegin
p322
V90
p323
sVPartOfSpeech
p324
VVBD
p325
sVLemma
p326
Vget
p327
saa(lp328
V0.75
p329
a(dp330
VNormalizedNamedEntityTag
p331
V0.75
p332
sVLemma
p333
V0.75
p334
sVCharacterOffsetEnd
p335
V98
p336
sVPartOfSpeech
p337
VCD
p338
sVCharacterOffsetBegin
p339
V94
p340
sVNamedEntityTag
p341
VNUMBER
p342
saa(lp343
Vtimes
p344
a(dp345
VNamedEntityTag
p346
g57
sVCharacterOffsetEnd
p347
V104
p348
sVCharacterOffsetBegin
p349
V99
p350
sVPartOfSpeech
p351
VNNS
p352
sVLemma
p353
Vtime
p354
saa(lp355
Vright
p356
a(dp357
VNamedEntityTag
p358
g57
sVCharacterOffsetEnd
p359
V110
p360
sVCharacterOffsetBegin
p361
V105
p362
sVPartOfSpeech
p363
VRB
p364
sVLemma
p365
Vright
p366
saa(lp367
g163
a(dp368
VNamedEntityTag
p369
g57
sVCharacterOffsetEnd
p370
V112
p371
sVCharacterOffsetBegin
p372
V111
p373
sVPartOfSpeech
p374
g163
sVLemma
p375
g163
saasVindexeddependencies
p376
(lp377
(lp378
Vroot
p379
aVROOT-0
p380
aVgot-7
p381
aa(lp382
Vdet
p383
aVquestions-4
p384
aVthe-2
p385
aa(lp386
Vnum
p387
aVquestions-4
p388
aV28-3
p389
aa(lp390
Vprep_of
p391
aVgot-7
p392
aVquestions-4
p393
aa(lp394
Vnsubj
p395
aVgot-7
p396
aVBryan-6
p397
aa(lp398
Vnum
p399
aVtimes-9
p400
aV0.75-8
p401
aa(lp402
Vtmod
p403
aVgot-7
p404
aVtimes-9
p405
aa(lp406
Vadvmod
p407
aVtimes-9
p408
aVright-10
p409
aasa(dp410
Vparsetree
p411
V(ROOT (SBARQ (WHNP (WHADJP (WRB How) (JJ many)) (NNS questions)) (SQ (VBD did) (NP (NNP Bryan)) (VP (VB get) (ADVP (RB right)))) (. ?)))
p412
sVtext
p413
VHow many questions did Bryan get right ?
p414
sVdependencies
p415
(lp416
(lp417
Vroot
p418
aVROOT
p419
aVget
p420
aa(lp421
Vadvmod
p422
aVmany
p423
aVHow
p424
aa(lp425
Vamod
p426
aVquestions
p427
aVmany
p428
aa(lp429
Vdobj
p430
aVget
p431
aVquestions
p432
aa(lp433
Vaux
p434
aVget
p435
aVdid
p436
aa(lp437
Vnsubj
p438
aVget
p439
aVBryan
p440
aa(lp441
Vadvmod
p442
aVget
p443
aVright
p444
aasVwords
p445
(lp446
(lp447
VHow
p448
a(dp449
VNamedEntityTag
p450
g57
sVCharacterOffsetEnd
p451
V116
p452
sVCharacterOffsetBegin
p453
V113
p454
sVPartOfSpeech
p455
VWRB
p456
sVLemma
p457
Vhow
p458
saa(lp459
Vmany
p460
a(dp461
VNamedEntityTag
p462
g57
sVCharacterOffsetEnd
p463
V121
p464
sVCharacterOffsetBegin
p465
V117
p466
sVPartOfSpeech
p467
VJJ
p468
sVLemma
p469
Vmany
p470
saa(lp471
Vquestions
p472
a(dp473
VNamedEntityTag
p474
g57
sVCharacterOffsetEnd
p475
V131
p476
sVCharacterOffsetBegin
p477
V122
p478
sVPartOfSpeech
p479
VNNS
p480
sVLemma
p481
Vquestion
p482
saa(lp483
Vdid
p484
a(dp485
VNamedEntityTag
p486
g57
sVCharacterOffsetEnd
p487
V135
p488
sVCharacterOffsetBegin
p489
V132
p490
sVPartOfSpeech
p491
VVBD
p492
sVLemma
p493
Vdo
p494
saa(lp495
VBryan
p496
a(dp497
VNamedEntityTag
p498
VPERSON
p499
sVCharacterOffsetEnd
p500
V141
p501
sVCharacterOffsetBegin
p502
V136
p503
sVPartOfSpeech
p504
VNNP
p505
sVLemma
p506
VBryan
p507
saa(lp508
Vget
p509
a(dp510
VNamedEntityTag
p511
g57
sVCharacterOffsetEnd
p512
V145
p513
sVCharacterOffsetBegin
p514
V142
p515
sVPartOfSpeech
p516
VVB
p517
sVLemma
p518
Vget
p519
saa(lp520
Vright
p521
a(dp522
VNamedEntityTag
p523
g57
sVCharacterOffsetEnd
p524
V151
p525
sVCharacterOffsetBegin
p526
V146
p527
sVPartOfSpeech
p528
VRB
p529
sVLemma
p530
Vright
p531
saa(lp532
V?
p533
a(dp534
VNamedEntityTag
p535
g57
sVCharacterOffsetEnd
p536
V153
p537
sVCharacterOffsetBegin
p538
V152
p539
sVPartOfSpeech
p540
g163
sVLemma
p541
g533
saasVindexeddependencies
p542
(lp543
(lp544
Vroot
p545
aVROOT-0
p546
aVget-6
p547
aa(lp548
Vadvmod
p549
aVmany-2
p550
aVHow-1
p551
aa(lp552
Vamod
p553
aVquestions-3
p554
aVmany-2
p555
aa(lp556
Vdobj
p557
aVget-6
p558
aVquestions-3
p559
aa(lp560
Vaux
p561
aVget-6
p562
aVdid-4
p563
aa(lp564
Vnsubj
p565
aVget-6
p566
aVBryan-5
p567
aa(lp568
Vadvmod
p569
aVget-6
p570
aVright-7
p571
aasas.