(dp0
Vcoref
p1
(lp2
(lp3
(lp4
(lp5
VTracy 's
p6
aI1
aI5
aI5
aI7
aa(lp7
VTracy 's
p8
aI0
aI3
aI3
aI5
aaaa(lp9
(lp10
(lp11
VTracy 's school
p12
aI1
aI7
aI5
aI8
aa(lp13
VTracy 's school
p14
aI0
aI5
aI3
aI6
aaaa(lp15
(lp16
(lp17
Vthe bear
p18
aI1
aI14
aI13
aI15
aa(lp19
Va bear
p20
aI0
aI9
aI8
aI10
aaa(lp21
(lp22
Vthe bear
p23
aI2
aI6
aI5
aI7
aa(lp24
Va bear
p25
aI0
aI9
aI8
aI10
aaaasVsentences
p26
(lp27
(dp28
Vparsetree
p29
V(ROOT (S (NP (NP (DT The) (NNS students)) (PP (IN at) (NP (NP (NNP Tracy) (POS 's)) (NN school)))) (VP (VBD voted) (PP (IN between) (NP (NP (DT a) (NN bear)) (CC and) (NP (DT a) (NN lion)))) (PP (IN as) (NP (DT the) (JJ new) (NN school) (NN mascot)))) (. .)))
p30
sVtext
p31
VThe students at Tracy's school voted between a bear and a lion as the new school mascot .
p32
sVdependencies
p33
(lp34
(lp35
Vroot
p36
aVROOT
p37
aVvoted
p38
aa(lp39
Vdet
p40
aVstudents
p41
aVThe
p42
aa(lp43
Vnsubj
p44
aVvoted
p45
aVstudents
p46
aa(lp47
Vposs
p48
aVschool
p49
aVTracy
p50
aa(lp51
Vprep_at
p52
aVstudents
p53
aVschool
p54
aa(lp55
Vdet
p56
aVbear
p57
aVa
p58
aa(lp59
Vprep_between
p60
aVvoted
p61
aVbear
p62
aa(lp63
Vdet
p64
aVlion
p65
ag58
aa(lp66
Vconj_and
p67
aVbear
p68
aVlion
p69
aa(lp70
Vdet
p71
aVmascot
p72
aVthe
p73
aa(lp74
Vamod
p75
aVmascot
p76
aVnew
p77
aa(lp78
Vnn
p79
aVmascot
p80
aVschool
p81
aa(lp82
Vprep_as
p83
aVvoted
p84
aVmascot
p85
aasVwords
p86
(lp87
(lp88
VThe
p89
a(dp90
VNamedEntityTag
p91
VO
p92
sVCharacterOffsetEnd
p93
V4
p94
sVCharacterOffsetBegin
p95
V1
p96
sVPartOfSpeech
p97
VDT
p98
sVLemma
p99
Vthe
p100
saa(lp101
Vstudents
p102
a(dp103
VNamedEntityTag
p104
g92
sVCharacterOffsetEnd
p105
V13
p106
sVCharacterOffsetBegin
p107
V5
p108
sVPartOfSpeech
p109
VNNS
p110
sVLemma
p111
Vstudent
p112
saa(lp113
Vat
p114
a(dp115
VNamedEntityTag
p116
g92
sVCharacterOffsetEnd
p117
V16
p118
sVCharacterOffsetBegin
p119
V14
p120
sVPartOfSpeech
p121
VIN
p122
sVLemma
p123
Vat
p124
saa(lp125
VTracy
p126
a(dp127
VNamedEntityTag
p128
VPERSON
p129
sVCharacterOffsetEnd
p130
V22
p131
sVCharacterOffsetBegin
p132
V17
p133
sVPartOfSpeech
p134
VNNP
p135
sVLemma
p136
VTracy
p137
saa(lp138
V's
p139
a(dp140
VNamedEntityTag
p141
g92
sVCharacterOffsetEnd
p142
V24
p143
sVCharacterOffsetBegin
p144
V22
p145
sVPartOfSpeech
p146
VPOS
p147
sVLemma
p148
V's
p149
saa(lp150
Vschool
p151
a(dp152
VNamedEntityTag
p153
g92
sVCharacterOffsetEnd
p154
V31
p155
sVCharacterOffsetBegin
p156
V25
p157
sVPartOfSpeech
p158
VNN
p159
sVLemma
p160
Vschool
p161
saa(lp162
Vvoted
p163
a(dp164
VNamedEntityTag
p165
g92
sVCharacterOffsetEnd
p166
V37
p167
sVCharacterOffsetBegin
p168
V32
p169
sVPartOfSpeech
p170
VVBD
p171
sVLemma
p172
Vvote
p173
saa(lp174
Vbetween
p175
a(dp176
VNamedEntityTag
p177
g92
sVCharacterOffsetEnd
p178
V45
p179
sVCharacterOffsetBegin
p180
V38
p181
sVPartOfSpeech
p182
VIN
p183
sVLemma
p184
Vbetween
p185
saa(lp186
g58
a(dp187
VNamedEntityTag
p188
g92
sVCharacterOffsetEnd
p189
V47
p190
sVCharacterOffsetBegin
p191
V46
p192
sVPartOfSpeech
p193
VDT
p194
sVLemma
p195
g58
saa(lp196
Vbear
p197
a(dp198
VNamedEntityTag
p199
g92
sVCharacterOffsetEnd
p200
V52
p201
sVCharacterOffsetBegin
p202
V48
p203
sVPartOfSpeech
p204
VNN
p205
sVLemma
p206
Vbear
p207
saa(lp208
Vand
p209
a(dp210
VNamedEntityTag
p211
g92
sVCharacterOffsetEnd
p212
V56
p213
sVCharacterOffsetBegin
p214
V53
p215
sVPartOfSpeech
p216
VCC
p217
sVLemma
p218
Vand
p219
saa(lp220
g58
a(dp221
VNamedEntityTag
p222
g92
sVCharacterOffsetEnd
p223
V58
p224
sVCharacterOffsetBegin
p225
V57
p226
sVPartOfSpeech
p227
VDT
p228
sVLemma
p229
g58
saa(lp230
Vlion
p231
a(dp232
VNamedEntityTag
p233
g92
sVCharacterOffsetEnd
p234
V63
p235
sVCharacterOffsetBegin
p236
V59
p237
sVPartOfSpeech
p238
VNN
p239
sVLemma
p240
Vlion
p241
saa(lp242
Vas
p243
a(dp244
VNamedEntityTag
p245
g92
sVCharacterOffsetEnd
p246
V66
p247
sVCharacterOffsetBegin
p248
V64
p249
sVPartOfSpeech
p250
VIN
p251
sVLemma
p252
Vas
p253
saa(lp254
Vthe
p255
a(dp256
VNamedEntityTag
p257
g92
sVCharacterOffsetEnd
p258
V70
p259
sVCharacterOffsetBegin
p260
V67
p261
sVPartOfSpeech
p262
VDT
p263
sVLemma
p264
Vthe
p265
saa(lp266
Vnew
p267
a(dp268
VNamedEntityTag
p269
g92
sVCharacterOffsetEnd
p270
V74
p271
sVCharacterOffsetBegin
p272
V71
p273
sVPartOfSpeech
p274
VJJ
p275
sVLemma
p276
Vnew
p277
saa(lp278
Vschool
p279
a(dp280
VNamedEntityTag
p281
g92
sVCharacterOffsetEnd
p282
V81
p283
sVCharacterOffsetBegin
p284
V75
p285
sVPartOfSpeech
p286
VNN
p287
sVLemma
p288
Vschool
p289
saa(lp290
Vmascot
p291
a(dp292
VNamedEntityTag
p293
g92
sVCharacterOffsetEnd
p294
V88
p295
sVCharacterOffsetBegin
p296
V82
p297
sVPartOfSpeech
p298
VNN
p299
sVLemma
p300
Vmascot
p301
saa(lp302
V.
p303
a(dp304
VNamedEntityTag
p305
g92
sVCharacterOffsetEnd
p306
V90
p307
sVCharacterOffsetBegin
p308
V89
p309
sVPartOfSpeech
p310
g303
sVLemma
p311
g303
saasVindexeddependencies
p312
(lp313
(lp314
Vroot
p315
aVROOT-0
p316
aVvoted-7
p317
aa(lp318
Vdet
p319
aVstudents-2
p320
aVThe-1
p321
aa(lp322
Vnsubj
p323
aVvoted-7
p324
aVstudents-2
p325
aa(lp326
Vposs
p327
aVschool-6
p328
aVTracy-4
p329
aa(lp330
Vprep_at
p331
aVstudents-2
p332
aVschool-6
p333
aa(lp334
Vdet
p335
aVbear-10
p336
aVa-9
p337
aa(lp338
Vprep_between
p339
aVvoted-7
p340
aVbear-10
p341
aa(lp342
Vdet
p343
aVlion-13
p344
aVa-12
p345
aa(lp346
Vconj_and
p347
aVbear-10
p348
aVlion-13
p349
aa(lp350
Vdet
p351
aVmascot-18
p352
aVthe-15
p353
aa(lp354
Vamod
p355
aVmascot-18
p356
aVnew-16
p357
aa(lp358
Vnn
p359
aVmascot-18
p360
aVschool-17
p361
aa(lp362
Vprep_as
p363
aVvoted-7
p364
aVmascot-18
p365
aasa(dp366
Vparsetree
p367
V(ROOT (S (PP (IN Of) (NP (NP (DT the) (CD 100) (NNS students)) (PP (IN at) (NP (NP (NNP Tracy) (POS 's)) (NN school))))) (, ,) (NP (CD 0.3) (NNS times)) (VP (VBD voted) (PP (IN for) (NP (DT the) (NN bear)))) (. .)))
p368
sVtext
p369
VOf the 100 students at Tracy's school , 0.3 times voted for the bear .
p370
sVdependencies
p371
(lp372
(lp373
Vroot
p374
aVROOT
p375
aVvoted
p376
aa(lp377
Vdet
p378
aVstudents
p379
aVthe
p380
aa(lp381
Vnum
p382
aVstudents
p383
aV100
p384
aa(lp385
Vprep_of
p386
aVvoted
p387
aVstudents
p388
aa(lp389
Vposs
p390
aVschool
p391
aVTracy
p392
aa(lp393
Vprep_at
p394
aVstudents
p395
aVschool
p396
aa(lp397
Vnum
p398
aVtimes
p399
aV0.3
p400
aa(lp401
Vnsubj
p402
aVvoted
p403
aVtimes
p404
aa(lp405
Vdet
p406
aVbear
p407
aVthe
p408
aa(lp409
Vprep_for
p410
aVvoted
p411
aVbear
p412
aasVwords
p413
(lp414
(lp415
VOf
p416
a(dp417
VNamedEntityTag
p418
g92
sVCharacterOffsetEnd
p419
V93
p420
sVCharacterOffsetBegin
p421
V91
p422
sVPartOfSpeech
p423
VIN
p424
sVLemma
p425
Vof
p426
saa(lp427
Vthe
p428
a(dp429
VNamedEntityTag
p430
g92
sVCharacterOffsetEnd
p431
V97
p432
sVCharacterOffsetBegin
p433
V94
p434
sVPartOfSpeech
p435
VDT
p436
sVLemma
p437
Vthe
p438
saa(lp439
V100
p440
a(dp441
VNormalizedNamedEntityTag
p442
V100.0
p443
sVLemma
p444
V100
p445
sVCharacterOffsetEnd
p446
V101
p447
sVPartOfSpeech
p448
VCD
p449
sVCharacterOffsetBegin
p450
V98
p451
sVNamedEntityTag
p452
VNUMBER
p453
saa(lp454
Vstudents
p455
a(dp456
VNamedEntityTag
p457
g92
sVCharacterOffsetEnd
p458
V110
p459
sVCharacterOffsetBegin
p460
V102
p461
sVPartOfSpeech
p462
VNNS
p463
sVLemma
p464
Vstudent
p465
saa(lp466
Vat
p467
a(dp468
VNamedEntityTag
p469
g92
sVCharacterOffsetEnd
p470
V113
p471
sVCharacterOffsetBegin
p472
V111
p473
sVPartOfSpeech
p474
VIN
p475
sVLemma
p476
Vat
p477
saa(lp478
VTracy
p479
a(dp480
VNamedEntityTag
p481
VPERSON
p482
sVCharacterOffsetEnd
p483
V119
p484
sVCharacterOffsetBegin
p485
V114
p486
sVPartOfSpeech
p487
VNNP
p488
sVLemma
p489
VTracy
p490
saa(lp491
V's
p492
a(dp493
VNamedEntityTag
p494
g92
sVCharacterOffsetEnd
p495
V121
p496
sVCharacterOffsetBegin
p497
V119
p498
sVPartOfSpeech
p499
VPOS
p500
sVLemma
p501
V's
p502
saa(lp503
Vschool
p504
a(dp505
VNamedEntityTag
p506
g92
sVCharacterOffsetEnd
p507
V128
p508
sVCharacterOffsetBegin
p509
V122
p510
sVPartOfSpeech
p511
VNN
p512
sVLemma
p513
Vschool
p514
saa(lp515
V,
p516
a(dp517
VNamedEntityTag
p518
g92
sVCharacterOffsetEnd
p519
V130
p520
sVCharacterOffsetBegin
p521
V129
p522
sVPartOfSpeech
p523
g516
sVLemma
p524
g516
saa(lp525
V0.3
p526
a(dp527
VNormalizedNamedEntityTag
p528
V0.3
p529
sVLemma
p530
V0.3
p531
sVCharacterOffsetEnd
p532
V134
p533
sVPartOfSpeech
p534
VCD
p535
sVCharacterOffsetBegin
p536
V131
p537
sVNamedEntityTag
p538
VNUMBER
p539
saa(lp540
Vtimes
p541
a(dp542
VNamedEntityTag
p543
g92
sVCharacterOffsetEnd
p544
V140
p545
sVCharacterOffsetBegin
p546
V135
p547
sVPartOfSpeech
p548
VNNS
p549
sVLemma
p550
Vtime
p551
saa(lp552
Vvoted
p553
a(dp554
VNamedEntityTag
p555
g92
sVCharacterOffsetEnd
p556
V146
p557
sVCharacterOffsetBegin
p558
V141
p559
sVPartOfSpeech
p560
VVBD
p561
sVLemma
p562
Vvote
p563
saa(lp564
Vfor
p565
a(dp566
VNamedEntityTag
p567
g92
sVCharacterOffsetEnd
p568
V150
p569
sVCharacterOffsetBegin
p570
V147
p571
sVPartOfSpeech
p572
VIN
p573
sVLemma
p574
Vfor
p575
saa(lp576
Vthe
p577
a(dp578
VNamedEntityTag
p579
g92
sVCharacterOffsetEnd
p580
V154
p581
sVCharacterOffsetBegin
p582
V151
p583
sVPartOfSpeech
p584
VDT
p585
sVLemma
p586
Vthe
p587
saa(lp588
Vbear
p589
a(dp590
VNamedEntityTag
p591
g92
sVCharacterOffsetEnd
p592
V159
p593
sVCharacterOffsetBegin
p594
V155
p595
sVPartOfSpeech
p596
VNN
p597
sVLemma
p598
Vbear
p599
saa(lp600
g303
a(dp601
VNamedEntityTag
p602
g92
sVCharacterOffsetEnd
p603
V161
p604
sVCharacterOffsetBegin
p605
V160
p606
sVPartOfSpeech
p607
g303
sVLemma
p608
g303
saasVindexeddependencies
p609
(lp610
(lp611
Vroot
p612
aVROOT-0
p613
aVvoted-12
p614
aa(lp615
Vdet
p616
aVstudents-4
p617
aVthe-2
p618
aa(lp619
Vnum
p620
aVstudents-4
p621
aV100-3
p622
aa(lp623
Vprep_of
p624
aVvoted-12
p625
aVstudents-4
p626
aa(lp627
Vposs
p628
aVschool-8
p629
aVTracy-6
p630
aa(lp631
Vprep_at
p632
aVstudents-4
p633
aVschool-8
p634
aa(lp635
Vnum
p636
aVtimes-11
p637
aV0.3-10
p638
aa(lp639
Vnsubj
p640
aVvoted-12
p641
aVtimes-11
p642
aa(lp643
Vdet
p644
aVbear-15
p645
aVthe-14
p646
aa(lp647
Vprep_for
p648
aVvoted-12
p649
aVbear-15
p650
aasa(dp651
Vparsetree
p652
V(ROOT (SBARQ (WHNP (WHADJP (WRB How) (JJ many)) (NNS students)) (SQ (VP (VBD voted) (PP (IN for) (NP (DT the) (NN bear))))) (. ?)))
p653
sVtext
p654
VHow many students voted for the bear ?
p655
sVdependencies
p656
(lp657
(lp658
Vroot
p659
aVROOT
p660
aVvoted
p661
aa(lp662
Vadvmod
p663
aVmany
p664
aVHow
p665
aa(lp666
Vamod
p667
aVstudents
p668
aVmany
p669
aa(lp670
Vnsubj
p671
aVvoted
p672
aVstudents
p673
aa(lp674
Vdet
p675
aVbear
p676
aVthe
p677
aa(lp678
Vprep_for
p679
aVvoted
p680
aVbear
p681
aasVwords
p682
(lp683
(lp684
VHow
p685
a(dp686
VNamedEntityTag
p687
g92
sVCharacterOffsetEnd
p688
V165
p689
sVCharacterOffsetBegin
p690
V162
p691
sVPartOfSpeech
p692
VWRB
p693
sVLemma
p694
Vhow
p695
saa(lp696
Vmany
p697
a(dp698
VNamedEntityTag
p699
g92
sVCharacterOffsetEnd
p700
V170
p701
sVCharacterOffsetBegin
p702
V166
p703
sVPartOfSpeech
p704
VJJ
p705
sVLemma
p706
Vmany
p707
saa(lp708
Vstudents
p709
a(dp710
VNamedEntityTag
p711
g92
sVCharacterOffsetEnd
p712
V179
p713
sVCharacterOffsetBegin
p714
V171
p715
sVPartOfSpeech
p716
VNNS
p717
sVLemma
p718
Vstudent
p719
saa(lp720
Vvoted
p721
a(dp722
VNamedEntityTag
p723
g92
sVCharacterOffsetEnd
p724
V185
p725
sVCharacterOffsetBegin
p726
V180
p727
sVPartOfSpeech
p728
VVBD
p729
sVLemma
p730
Vvote
p731
saa(lp732
Vfor
p733
a(dp734
VNamedEntityTag
p735
g92
sVCharacterOffsetEnd
p736
V189
p737
sVCharacterOffsetBegin
p738
V186
p739
sVPartOfSpeech
p740
VIN
p741
sVLemma
p742
Vfor
p743
saa(lp744
Vthe
p745
a(dp746
VNamedEntityTag
p747
g92
sVCharacterOffsetEnd
p748
V193
p749
sVCharacterOffsetBegin
p750
V190
p751
sVPartOfSpeech
p752
VDT
p753
sVLemma
p754
Vthe
p755
saa(lp756
Vbear
p757
a(dp758
VNamedEntityTag
p759
g92
sVCharacterOffsetEnd
p760
V198
p761
sVCharacterOffsetBegin
p762
V194
p763
sVPartOfSpeech
p764
VNN
p765
sVLemma
p766
Vbear
p767
saa(lp768
V?
p769
a(dp770
VNamedEntityTag
p771
g92
sVCharacterOffsetEnd
p772
V200
p773
sVCharacterOffsetBegin
p774
V199
p775
sVPartOfSpeech
p776
g303
sVLemma
p777
g769
saasVindexeddependencies
p778
(lp779
(lp780
Vroot
p781
aVROOT-0
p782
aVvoted-4
p783
aa(lp784
Vadvmod
p785
aVmany-2
p786
aVHow-1
p787
aa(lp788
Vamod
p789
aVstudents-3
p790
aVmany-2
p791
aa(lp792
Vnsubj
p793
aVvoted-4
p794
aVstudents-3
p795
aa(lp796
Vdet
p797
aVbear-7
p798
aVthe-6
p799
aa(lp800
Vprep_for
p801
aVvoted-4
p802
aVbear-7
p803
aasas.