(dp0
Vcoref
p1
(lp2
(lp3
(lp4
(lp5
Vshe
p6
aI1
aI1
aI1
aI2
aa(lp7
VKatie
p8
aI0
aI5
aI5
aI6
aaa(lp9
(lp10
Vshe
p11
aI1
aI16
aI16
aI17
aa(lp12
VKatie
p13
aI0
aI5
aI5
aI6
aaaa(lp14
(lp15
(lp16
V20
p17
aI1
aI9
aI9
aI10
aa(lp18
V20 of them
p19
aI1
aI3
aI3
aI6
aaaasVsentences
p20
(lp21
(dp22
Vparsetree
p23
V(ROOT (S (PP (IN For) (NP (DT the) (NN school) (S (VP (VB bake) (NP (NN sale)))))) (NP (NNP Katie)) (VP (VBD made) (NP (CD 26) (NNS cupcakes))) (. .)))
p24
sVtext
p25
VFor the school bake sale Katie made 26 cupcakes .
p26
sVdependencies
p27
(lp28
(lp29
Vroot
p30
aVROOT
p31
aVmade
p32
aa(lp33
Vdet
p34
aVschool
p35
aVthe
p36
aa(lp37
Vprep_for
p38
aVmade
p39
aVschool
p40
aa(lp41
Vdep
p42
aVschool
p43
aVbake
p44
aa(lp45
Vdobj
p46
aVbake
p47
aVsale
p48
aa(lp49
Vnsubj
p50
aVmade
p51
aVKatie
p52
aa(lp53
Vnum
p54
aVcupcakes
p55
aV26
p56
aa(lp57
Vdobj
p58
aVmade
p59
aVcupcakes
p60
aasVwords
p61
(lp62
(lp63
VFor
p64
a(dp65
VNamedEntityTag
p66
VO
p67
sVCharacterOffsetEnd
p68
V4
p69
sVCharacterOffsetBegin
p70
V1
p71
sVPartOfSpeech
p72
VIN
p73
sVLemma
p74
Vfor
p75
saa(lp76
Vthe
p77
a(dp78
VNamedEntityTag
p79
g67
sVCharacterOffsetEnd
p80
V8
p81
sVCharacterOffsetBegin
p82
V5
p83
sVPartOfSpeech
p84
VDT
p85
sVLemma
p86
Vthe
p87
saa(lp88
Vschool
p89
a(dp90
VNamedEntityTag
p91
g67
sVCharacterOffsetEnd
p92
V15
p93
sVCharacterOffsetBegin
p94
V9
p95
sVPartOfSpeech
p96
VNN
p97
sVLemma
p98
Vschool
p99
saa(lp100
Vbake
p101
a(dp102
VNamedEntityTag
p103
g67
sVCharacterOffsetEnd
p104
V20
p105
sVCharacterOffsetBegin
p106
V16
p107
sVPartOfSpeech
p108
VVB
p109
sVLemma
p110
Vbake
p111
saa(lp112
Vsale
p113
a(dp114
VNamedEntityTag
p115
g67
sVCharacterOffsetEnd
p116
V25
p117
sVCharacterOffsetBegin
p118
V21
p119
sVPartOfSpeech
p120
VNN
p121
sVLemma
p122
Vsale
p123
saa(lp124
VKatie
p125
a(dp126
VNamedEntityTag
p127
VPERSON
p128
sVCharacterOffsetEnd
p129
V31
p130
sVCharacterOffsetBegin
p131
V26
p132
sVPartOfSpeech
p133
VNNP
p134
sVLemma
p135
VKatie
p136
saa(lp137
Vmade
p138
a(dp139
VNamedEntityTag
p140
g67
sVCharacterOffsetEnd
p141
V36
p142
sVCharacterOffsetBegin
p143
V32
p144
sVPartOfSpeech
p145
VVBD
p146
sVLemma
p147
Vmake
p148
saa(lp149
V26
p150
a(dp151
VNormalizedNamedEntityTag
p152
V26.0
p153
sVLemma
p154
V26
p155
sVCharacterOffsetEnd
p156
V39
p157
sVPartOfSpeech
p158
VCD
p159
sVCharacterOffsetBegin
p160
V37
p161
sVNamedEntityTag
p162
VNUMBER
p163
saa(lp164
Vcupcakes
p165
a(dp166
VNamedEntityTag
p167
g67
sVCharacterOffsetEnd
p168
V48
p169
sVCharacterOffsetBegin
p170
V40
p171
sVPartOfSpeech
p172
VNNS
p173
sVLemma
p174
Vcupcake
p175
saa(lp176
V.
p177
a(dp178
VNamedEntityTag
p179
g67
sVCharacterOffsetEnd
p180
V50
p181
sVCharacterOffsetBegin
p182
V49
p183
sVPartOfSpeech
p184
g177
sVLemma
p185
g177
saasVindexeddependencies
p186
(lp187
(lp188
Vroot
p189
aVROOT-0
p190
aVmade-7
p191
aa(lp192
Vdet
p193
aVschool-3
p194
aVthe-2
p195
aa(lp196
Vprep_for
p197
aVmade-7
p198
aVschool-3
p199
aa(lp200
Vdep
p201
aVschool-3
p202
aVbake-4
p203
aa(lp204
Vdobj
p205
aVbake-4
p206
aVsale-5
p207
aa(lp208
Vnsubj
p209
aVmade-7
p210
aVKatie-6
p211
aa(lp212
Vnum
p213
aVcupcakes-9
p214
aV26-8
p215
aa(lp216
Vdobj
p217
aVmade-7
p218
aVcupcakes-9
p219
aasa(dp220
Vparsetree
p221
V(ROOT (SBARQ (SBAR (IN If) (S (NP (PRP she)) (VP (VP (VBD sold) (NP (NP (CD 20)) (PP (IN of) (NP (PRP them))))) (CC and) (VP (ADVP (RB then)) (VBD made) (NP (CD 20) (JJR more)))))) (, ,) (WHADVP (WRB how) (NP (JJ many) (NNS cupcakes))) (SQ (MD would) (NP (PRP she)) (VP (VB have))) (. ?)))
p222
sVtext
p223
VIf she sold 20 of them and then made 20 more , how many cupcakes would she have ?
p224
sVdependencies
p225
(lp226
(lp227
Vroot
p228
aVROOT
p229
aVhave
p230
aa(lp231
Vmark
p232
aVsold
p233
aVIf
p234
aa(lp235
Vnsubj
p236
aVsold
p237
aVshe
p238
aa(lp239
Vadvcl
p240
aVhave
p241
aVsold
p242
aa(lp243
Vdobj
p244
aVsold
p245
aV20
p246
aa(lp247
Vprep_of
p248
aV20
p249
aVthem
p250
aa(lp251
Vadvmod
p252
aVmade
p253
aVthen
p254
aa(lp255
Vconj_and
p256
aVsold
p257
aVmade
p258
aa(lp259
Vnum
p260
aVmore
p261
aV20
p262
aa(lp263
Vdobj
p264
aVmade
p265
aVmore
p266
aa(lp267
Vadvmod
p268
aVhave
p269
aVhow
p270
aa(lp271
Vamod
p272
aVcupcakes
p273
aVmany
p274
aa(lp275
Vdep
p276
aVhow
p277
aVcupcakes
p278
aa(lp279
Vaux
p280
aVhave
p281
aVwould
p282
aa(lp283
Vnsubj
p284
aVhave
p285
aVshe
p286
aasVwords
p287
(lp288
(lp289
VIf
p290
a(dp291
VNamedEntityTag
p292
g67
sVCharacterOffsetEnd
p293
V53
p294
sVCharacterOffsetBegin
p295
V51
p296
sVPartOfSpeech
p297
VIN
p298
sVLemma
p299
Vif
p300
saa(lp301
Vshe
p302
a(dp303
VNamedEntityTag
p304
g67
sVCharacterOffsetEnd
p305
V57
p306
sVCharacterOffsetBegin
p307
V54
p308
sVPartOfSpeech
p309
VPRP
p310
sVLemma
p311
Vshe
p312
saa(lp313
Vsold
p314
a(dp315
VNamedEntityTag
p316
g67
sVCharacterOffsetEnd
p317
V62
p318
sVCharacterOffsetBegin
p319
V58
p320
sVPartOfSpeech
p321
VVBD
p322
sVLemma
p323
Vsell
p324
saa(lp325
V20
p326
a(dp327
VNormalizedNamedEntityTag
p328
V20.0
p329
sVLemma
p330
V20
p331
sVCharacterOffsetEnd
p332
V65
p333
sVPartOfSpeech
p334
VCD
p335
sVCharacterOffsetBegin
p336
V63
p337
sVNamedEntityTag
p338
VNUMBER
p339
saa(lp340
Vof
p341
a(dp342
VNamedEntityTag
p343
g67
sVCharacterOffsetEnd
p344
V68
p345
sVCharacterOffsetBegin
p346
V66
p347
sVPartOfSpeech
p348
VIN
p349
sVLemma
p350
Vof
p351
saa(lp352
Vthem
p353
a(dp354
VNamedEntityTag
p355
g67
sVCharacterOffsetEnd
p356
V73
p357
sVCharacterOffsetBegin
p358
V69
p359
sVPartOfSpeech
p360
VPRP
p361
sVLemma
p362
Vthey
p363
saa(lp364
Vand
p365
a(dp366
VNamedEntityTag
p367
g67
sVCharacterOffsetEnd
p368
V77
p369
sVCharacterOffsetBegin
p370
V74
p371
sVPartOfSpeech
p372
VCC
p373
sVLemma
p374
Vand
p375
saa(lp376
Vthen
p377
a(dp378
VNamedEntityTag
p379
g67
sVCharacterOffsetEnd
p380
V82
p381
sVCharacterOffsetBegin
p382
V78
p383
sVPartOfSpeech
p384
VRB
p385
sVLemma
p386
Vthen
p387
saa(lp388
Vmade
p389
a(dp390
VNamedEntityTag
p391
g67
sVCharacterOffsetEnd
p392
V87
p393
sVCharacterOffsetBegin
p394
V83
p395
sVPartOfSpeech
p396
VVBD
p397
sVLemma
p398
Vmake
p399
saa(lp400
V20
p401
a(dp402
VNormalizedNamedEntityTag
p403
V20.0
p404
sVLemma
p405
V20
p406
sVCharacterOffsetEnd
p407
V90
p408
sVPartOfSpeech
p409
VCD
p410
sVCharacterOffsetBegin
p411
V88
p412
sVNamedEntityTag
p413
VNUMBER
p414
saa(lp415
Vmore
p416
a(dp417
VNamedEntityTag
p418
g67
sVCharacterOffsetEnd
p419
V95
p420
sVCharacterOffsetBegin
p421
V91
p422
sVPartOfSpeech
p423
VJJR
p424
sVLemma
p425
Vmore
p426
saa(lp427
V,
p428
a(dp429
VNamedEntityTag
p430
g67
sVCharacterOffsetEnd
p431
V97
p432
sVCharacterOffsetBegin
p433
V96
p434
sVPartOfSpeech
p435
g428
sVLemma
p436
g428
saa(lp437
Vhow
p438
a(dp439
VNamedEntityTag
p440
g67
sVCharacterOffsetEnd
p441
V101
p442
sVCharacterOffsetBegin
p443
V98
p444
sVPartOfSpeech
p445
VWRB
p446
sVLemma
p447
Vhow
p448
saa(lp449
Vmany
p450
a(dp451
VNamedEntityTag
p452
g67
sVCharacterOffsetEnd
p453
V106
p454
sVCharacterOffsetBegin
p455
V102
p456
sVPartOfSpeech
p457
VJJ
p458
sVLemma
p459
Vmany
p460
saa(lp461
Vcupcakes
p462
a(dp463
VNamedEntityTag
p464
g67
sVCharacterOffsetEnd
p465
V115
p466
sVCharacterOffsetBegin
p467
V107
p468
sVPartOfSpeech
p469
VNNS
p470
sVLemma
p471
Vcupcake
p472
saa(lp473
Vwould
p474
a(dp475
VNamedEntityTag
p476
g67
sVCharacterOffsetEnd
p477
V121
p478
sVCharacterOffsetBegin
p479
V116
p480
sVPartOfSpeech
p481
VMD
p482
sVLemma
p483
Vwould
p484
saa(lp485
Vshe
p486
a(dp487
VNamedEntityTag
p488
g67
sVCharacterOffsetEnd
p489
V125
p490
sVCharacterOffsetBegin
p491
V122
p492
sVPartOfSpeech
p493
VPRP
p494
sVLemma
p495
Vshe
p496
saa(lp497
Vhave
p498
a(dp499
VNamedEntityTag
p500
g67
sVCharacterOffsetEnd
p501
V130
p502
sVCharacterOffsetBegin
p503
V126
p504
sVPartOfSpeech
p505
VVB
p506
sVLemma
p507
Vhave
p508
saa(lp509
V?
p510
a(dp511
VNamedEntityTag
p512
g67
sVCharacterOffsetEnd
p513
V132
p514
sVCharacterOffsetBegin
p515
V131
p516
sVPartOfSpeech
p517
g177
sVLemma
p518
g510
saasVindexeddependencies
p519
(lp520
(lp521
Vroot
p522
aVROOT-0
p523
aVhave-18
p524
aa(lp525
Vmark
p526
aVsold-3
p527
aVIf-1
p528
aa(lp529
Vnsubj
p530
aVsold-3
p531
aVshe-2
p532
aa(lp533
Vadvcl
p534
aVhave-18
p535
aVsold-3
p536
aa(lp537
Vdobj
p538
aVsold-3
p539
aV20-4
p540
aa(lp541
Vprep_of
p542
aV20-4
p543
aVthem-6
p544
aa(lp545
Vadvmod
p546
aVmade-9
p547
aVthen-8
p548
aa(lp549
Vconj_and
p550
aVsold-3
p551
aVmade-9
p552
aa(lp553
Vnum
p554
aVmore-11
p555
aV20-10
p556
aa(lp557
Vdobj
p558
aVmade-9
p559
aVmore-11
p560
aa(lp561
Vadvmod
p562
aVhave-18
p563
aVhow-13
p564
aa(lp565
Vamod
p566
aVcupcakes-15
p567
aVmany-14
p568
aa(lp569
Vdep
p570
aVhow-13
p571
aVcupcakes-15
p572
aa(lp573
Vaux
p574
aVhave-18
p575
aVwould-16
p576
aa(lp577
Vnsubj
p578
aVhave-18
p579
aVshe-17
p580
aasas.