(dp0
Vcoref
p1
(lp2
(lp3
(lp4
(lp5
Vshe
p6
aI1
aI7
aI7
aI8
aa(lp7
VTiffany
p8
aI0
aI0
aI0
aI1
aaa(lp9
(lp10
Vshe
p11
aI2
aI1
aI1
aI2
aa(lp12
VTiffany
p13
aI0
aI0
aI0
aI1
aaa(lp14
(lp15
Vshe
p16
aI2
aI15
aI15
aI16
aa(lp17
VTiffany
p18
aI0
aI0
aI0
aI1
aaaa(lp19
(lp20
(lp21
Vthe game
p22
aI1
aI6
aI5
aI7
aa(lp23
Va video game
p24
aI0
aI5
aI3
aI6
aaaasVsentences
p25
(lp26
(dp27
Vparsetree
p28
V(ROOT (S (NP (NNP Tiffany)) (VP (VP (VBD was) (VP (VBG playing) (NP (DT a) (NN video) (NN game)))) (CC and) (VP (VBD had) (NP (CD 43) (NNS lives)))) (. .)))
p29
sVtext
p30
VTiffany was playing a video game and had 43 lives .
p31
sVdependencies
p32
(lp33
(lp34
Vroot
p35
aVROOT
p36
aVplaying
p37
aa(lp38
Vnsubj
p39
aVplaying
p40
aVTiffany
p41
aa(lp42
Vaux
p43
aVplaying
p44
aVwas
p45
aa(lp46
Vdet
p47
aVgame
p48
aVa
p49
aa(lp50
Vnn
p51
aVgame
p52
aVvideo
p53
aa(lp54
Vdobj
p55
aVplaying
p56
aVgame
p57
aa(lp58
Vconj_and
p59
aVplaying
p60
aVhad
p61
aa(lp62
Vnum
p63
aVlives
p64
aV43
p65
aa(lp66
Vdobj
p67
aVhad
p68
aVlives
p69
aasVwords
p70
(lp71
(lp72
VTiffany
p73
a(dp74
VNamedEntityTag
p75
VPERSON
p76
sVCharacterOffsetEnd
p77
V8
p78
sVCharacterOffsetBegin
p79
V1
p80
sVPartOfSpeech
p81
VNNP
p82
sVLemma
p83
VTiffany
p84
saa(lp85
Vwas
p86
a(dp87
VNamedEntityTag
p88
VO
p89
sVCharacterOffsetEnd
p90
V12
p91
sVCharacterOffsetBegin
p92
V9
p93
sVPartOfSpeech
p94
VVBD
p95
sVLemma
p96
Vbe
p97
saa(lp98
Vplaying
p99
a(dp100
VNamedEntityTag
p101
g89
sVCharacterOffsetEnd
p102
V20
p103
sVCharacterOffsetBegin
p104
V13
p105
sVPartOfSpeech
p106
VVBG
p107
sVLemma
p108
Vplay
p109
saa(lp110
g49
a(dp111
VNamedEntityTag
p112
g89
sVCharacterOffsetEnd
p113
V22
p114
sVCharacterOffsetBegin
p115
V21
p116
sVPartOfSpeech
p117
VDT
p118
sVLemma
p119
g49
saa(lp120
Vvideo
p121
a(dp122
VNamedEntityTag
p123
g89
sVCharacterOffsetEnd
p124
V28
p125
sVCharacterOffsetBegin
p126
V23
p127
sVPartOfSpeech
p128
VNN
p129
sVLemma
p130
Vvideo
p131
saa(lp132
Vgame
p133
a(dp134
VNamedEntityTag
p135
g89
sVCharacterOffsetEnd
p136
V33
p137
sVCharacterOffsetBegin
p138
V29
p139
sVPartOfSpeech
p140
VNN
p141
sVLemma
p142
Vgame
p143
saa(lp144
Vand
p145
a(dp146
VNamedEntityTag
p147
g89
sVCharacterOffsetEnd
p148
V37
p149
sVCharacterOffsetBegin
p150
V34
p151
sVPartOfSpeech
p152
VCC
p153
sVLemma
p154
Vand
p155
saa(lp156
Vhad
p157
a(dp158
VNamedEntityTag
p159
g89
sVCharacterOffsetEnd
p160
V41
p161
sVCharacterOffsetBegin
p162
V38
p163
sVPartOfSpeech
p164
VVBD
p165
sVLemma
p166
Vhave
p167
saa(lp168
V43
p169
a(dp170
VNormalizedNamedEntityTag
p171
V43.0
p172
sVLemma
p173
V43
p174
sVCharacterOffsetEnd
p175
V44
p176
sVPartOfSpeech
p177
VCD
p178
sVCharacterOffsetBegin
p179
V42
p180
sVNamedEntityTag
p181
VNUMBER
p182
saa(lp183
Vlives
p184
a(dp185
VNamedEntityTag
p186
g89
sVCharacterOffsetEnd
p187
V50
p188
sVCharacterOffsetBegin
p189
V45
p190
sVPartOfSpeech
p191
VNNS
p192
sVLemma
p193
Vlife
p194
saa(lp195
V.
p196
a(dp197
VNamedEntityTag
p198
g89
sVCharacterOffsetEnd
p199
V52
p200
sVCharacterOffsetBegin
p201
V51
p202
sVPartOfSpeech
p203
g196
sVLemma
p204
g196
saasVindexeddependencies
p205
(lp206
(lp207
Vroot
p208
aVROOT-0
p209
aVplaying-3
p210
aa(lp211
Vnsubj
p212
aVplaying-3
p213
aVTiffany-1
p214
aa(lp215
Vaux
p216
aVplaying-3
p217
aVwas-2
p218
aa(lp219
Vdet
p220
aVgame-6
p221
aVa-4
p222
aa(lp223
Vnn
p224
aVgame-6
p225
aVvideo-5
p226
aa(lp227
Vdobj
p228
aVplaying-3
p229
aVgame-6
p230
aa(lp231
Vconj_and
p232
aVplaying-3
p233
aVhad-8
p234
aa(lp235
Vnum
p236
aVlives-10
p237
aV43-9
p238
aa(lp239
Vdobj
p240
aVhad-8
p241
aVlives-10
p242
aasa(dp243
Vparsetree
p244
V(ROOT (S (PP (IN In) (NP (NP (DT a) (JJ hard) (NN part)) (PP (IN of) (NP (DT the) (NN game))))) (NP (PRP she)) (VP (VBD lost) (NP (CD 14) (NNS lives))) (. .)))
p245
sVtext
p246
VIn a hard part of the game she lost 14 lives .
p247
sVdependencies
p248
(lp249
(lp250
Vroot
p251
aVROOT
p252
aVlost
p253
aa(lp254
Vdet
p255
aVpart
p256
ag49
aa(lp257
Vamod
p258
aVpart
p259
aVhard
p260
aa(lp261
Vprep_in
p262
aVlost
p263
aVpart
p264
aa(lp265
Vdet
p266
aVgame
p267
aVthe
p268
aa(lp269
Vprep_of
p270
aVpart
p271
aVgame
p272
aa(lp273
Vnsubj
p274
aVlost
p275
aVshe
p276
aa(lp277
Vnum
p278
aVlives
p279
aV14
p280
aa(lp281
Vdobj
p282
aVlost
p283
aVlives
p284
aasVwords
p285
(lp286
(lp287
VIn
p288
a(dp289
VNamedEntityTag
p290
g89
sVCharacterOffsetEnd
p291
V55
p292
sVCharacterOffsetBegin
p293
V53
p294
sVPartOfSpeech
p295
VIN
p296
sVLemma
p297
Vin
p298
saa(lp299
g49
a(dp300
VNamedEntityTag
p301
g89
sVCharacterOffsetEnd
p302
V57
p303
sVCharacterOffsetBegin
p304
V56
p305
sVPartOfSpeech
p306
VDT
p307
sVLemma
p308
g49
saa(lp309
Vhard
p310
a(dp311
VNamedEntityTag
p312
g89
sVCharacterOffsetEnd
p313
V62
p314
sVCharacterOffsetBegin
p315
V58
p316
sVPartOfSpeech
p317
VJJ
p318
sVLemma
p319
Vhard
p320
saa(lp321
Vpart
p322
a(dp323
VNamedEntityTag
p324
g89
sVCharacterOffsetEnd
p325
V67
p326
sVCharacterOffsetBegin
p327
V63
p328
sVPartOfSpeech
p329
VNN
p330
sVLemma
p331
Vpart
p332
saa(lp333
Vof
p334
a(dp335
VNamedEntityTag
p336
g89
sVCharacterOffsetEnd
p337
V70
p338
sVCharacterOffsetBegin
p339
V68
p340
sVPartOfSpeech
p341
VIN
p342
sVLemma
p343
Vof
p344
saa(lp345
Vthe
p346
a(dp347
VNamedEntityTag
p348
g89
sVCharacterOffsetEnd
p349
V74
p350
sVCharacterOffsetBegin
p351
V71
p352
sVPartOfSpeech
p353
VDT
p354
sVLemma
p355
Vthe
p356
saa(lp357
Vgame
p358
a(dp359
VNamedEntityTag
p360
g89
sVCharacterOffsetEnd
p361
V79
p362
sVCharacterOffsetBegin
p363
V75
p364
sVPartOfSpeech
p365
VNN
p366
sVLemma
p367
Vgame
p368
saa(lp369
Vshe
p370
a(dp371
VNamedEntityTag
p372
g89
sVCharacterOffsetEnd
p373
V83
p374
sVCharacterOffsetBegin
p375
V80
p376
sVPartOfSpeech
p377
VPRP
p378
sVLemma
p379
Vshe
p380
saa(lp381
Vlost
p382
a(dp383
VNamedEntityTag
p384
g89
sVCharacterOffsetEnd
p385
V88
p386
sVCharacterOffsetBegin
p387
V84
p388
sVPartOfSpeech
p389
VVBD
p390
sVLemma
p391
Vlose
p392
saa(lp393
V14
p394
a(dp395
VNormalizedNamedEntityTag
p396
V14.0
p397
sVLemma
p398
V14
p399
sVCharacterOffsetEnd
p400
V91
p401
sVPartOfSpeech
p402
VCD
p403
sVCharacterOffsetBegin
p404
V89
p405
sVNamedEntityTag
p406
VNUMBER
p407
saa(lp408
Vlives
p409
a(dp410
VNamedEntityTag
p411
g89
sVCharacterOffsetEnd
p412
V97
p413
sVCharacterOffsetBegin
p414
V92
p415
sVPartOfSpeech
p416
VNNS
p417
sVLemma
p418
Vlife
p419
saa(lp420
g196
a(dp421
VNamedEntityTag
p422
g89
sVCharacterOffsetEnd
p423
V99
p424
sVCharacterOffsetBegin
p425
V98
p426
sVPartOfSpeech
p427
g196
sVLemma
p428
g196
saasVindexeddependencies
p429
(lp430
(lp431
Vroot
p432
aVROOT-0
p433
aVlost-9
p434
aa(lp435
Vdet
p436
aVpart-4
p437
aVa-2
p438
aa(lp439
Vamod
p440
aVpart-4
p441
aVhard-3
p442
aa(lp443
Vprep_in
p444
aVlost-9
p445
aVpart-4
p446
aa(lp447
Vdet
p448
aVgame-7
p449
aVthe-6
p450
aa(lp451
Vprep_of
p452
aVpart-4
p453
aVgame-7
p454
aa(lp455
Vnsubj
p456
aVlost-9
p457
aVshe-8
p458
aa(lp459
Vnum
p460
aVlives-11
p461
aV14-10
p462
aa(lp463
Vdobj
p464
aVlost-9
p465
aVlives-11
p466
aasa(dp467
Vparsetree
p468
V(ROOT (SBARQ (SBAR (IN If) (S (NP (PRP she)) (VP (VBD got) (NP (CD 27) (JJR more) (NNS lives)) (PP (IN in) (NP (DT the) (JJ next) (NN level)))))) (, ,) (WHNP (WHADJP (WRB how) (JJ many)) (NNS lives)) (SQ (MD would) (NP (PRP she)) (VP (VB have))) (. ?)))
p469
sVtext
p470
VIf she got 27 more lives in the next level , how many lives would she have ?
p471
sVdependencies
p472
(lp473
(lp474
Vroot
p475
aVROOT
p476
aVhave
p477
aa(lp478
Vmark
p479
aVgot
p480
aVIf
p481
aa(lp482
Vnsubj
p483
aVgot
p484
aVshe
p485
aa(lp486
Vadvcl
p487
aVhave
p488
aVgot
p489
aa(lp490
Vnum
p491
aVlives
p492
aV27
p493
aa(lp494
Vamod
p495
aVlives
p496
aVmore
p497
aa(lp498
Vdobj
p499
aVgot
p500
aVlives
p501
aa(lp502
Vdet
p503
aVlevel
p504
aVthe
p505
aa(lp506
Vamod
p507
aVlevel
p508
aVnext
p509
aa(lp510
Vprep_in
p511
aVgot
p512
aVlevel
p513
aa(lp514
Vadvmod
p515
aVmany
p516
aVhow
p517
aa(lp518
Vamod
p519
aVlives
p520
aVmany
p521
aa(lp522
Vdobj
p523
aVhave
p524
aVlives
p525
aa(lp526
Vaux
p527
aVhave
p528
aVwould
p529
aa(lp530
Vnsubj
p531
aVhave
p532
aVshe
p533
aasVwords
p534
(lp535
(lp536
VIf
p537
a(dp538
VNamedEntityTag
p539
g89
sVCharacterOffsetEnd
p540
V102
p541
sVCharacterOffsetBegin
p542
V100
p543
sVPartOfSpeech
p544
VIN
p545
sVLemma
p546
Vif
p547
saa(lp548
Vshe
p549
a(dp550
VNamedEntityTag
p551
g89
sVCharacterOffsetEnd
p552
V106
p553
sVCharacterOffsetBegin
p554
V103
p555
sVPartOfSpeech
p556
VPRP
p557
sVLemma
p558
Vshe
p559
saa(lp560
Vgot
p561
a(dp562
VNamedEntityTag
p563
g89
sVCharacterOffsetEnd
p564
V110
p565
sVCharacterOffsetBegin
p566
V107
p567
sVPartOfSpeech
p568
VVBD
p569
sVLemma
p570
Vget
p571
saa(lp572
V27
p573
a(dp574
VNormalizedNamedEntityTag
p575
V27.0
p576
sVLemma
p577
V27
p578
sVCharacterOffsetEnd
p579
V113
p580
sVPartOfSpeech
p581
VCD
p582
sVCharacterOffsetBegin
p583
V111
p584
sVNamedEntityTag
p585
VNUMBER
p586
saa(lp587
Vmore
p588
a(dp589
VNamedEntityTag
p590
g89
sVCharacterOffsetEnd
p591
V118
p592
sVCharacterOffsetBegin
p593
V114
p594
sVPartOfSpeech
p595
VJJR
p596
sVLemma
p597
Vmore
p598
saa(lp599
Vlives
p600
a(dp601
VNamedEntityTag
p602
g89
sVCharacterOffsetEnd
p603
V124
p604
sVCharacterOffsetBegin
p605
V119
p606
sVPartOfSpeech
p607
VNNS
p608
sVLemma
p609
Vlife
p610
saa(lp611
Vin
p612
a(dp613
VNamedEntityTag
p614
g89
sVCharacterOffsetEnd
p615
V127
p616
sVCharacterOffsetBegin
p617
V125
p618
sVPartOfSpeech
p619
VIN
p620
sVLemma
p621
Vin
p622
saa(lp623
Vthe
p624
a(dp625
VNamedEntityTag
p626
g89
sVCharacterOffsetEnd
p627
V131
p628
sVCharacterOffsetBegin
p629
V128
p630
sVPartOfSpeech
p631
VDT
p632
sVLemma
p633
Vthe
p634
saa(lp635
Vnext
p636
a(dp637
VNamedEntityTag
p638
g89
sVCharacterOffsetEnd
p639
V136
p640
sVCharacterOffsetBegin
p641
V132
p642
sVPartOfSpeech
p643
VJJ
p644
sVLemma
p645
Vnext
p646
saa(lp647
Vlevel
p648
a(dp649
VNamedEntityTag
p650
g89
sVCharacterOffsetEnd
p651
V142
p652
sVCharacterOffsetBegin
p653
V137
p654
sVPartOfSpeech
p655
VNN
p656
sVLemma
p657
Vlevel
p658
saa(lp659
V,
p660
a(dp661
VNamedEntityTag
p662
g89
sVCharacterOffsetEnd
p663
V144
p664
sVCharacterOffsetBegin
p665
V143
p666
sVPartOfSpeech
p667
g660
sVLemma
p668
g660
saa(lp669
Vhow
p670
a(dp671
VNamedEntityTag
p672
g89
sVCharacterOffsetEnd
p673
V148
p674
sVCharacterOffsetBegin
p675
V145
p676
sVPartOfSpeech
p677
VWRB
p678
sVLemma
p679
Vhow
p680
saa(lp681
Vmany
p682
a(dp683
VNamedEntityTag
p684
g89
sVCharacterOffsetEnd
p685
V153
p686
sVCharacterOffsetBegin
p687
V149
p688
sVPartOfSpeech
p689
VJJ
p690
sVLemma
p691
Vmany
p692
saa(lp693
Vlives
p694
a(dp695
VNamedEntityTag
p696
g89
sVCharacterOffsetEnd
p697
V159
p698
sVCharacterOffsetBegin
p699
V154
p700
sVPartOfSpeech
p701
VNNS
p702
sVLemma
p703
Vlife
p704
saa(lp705
Vwould
p706
a(dp707
VNamedEntityTag
p708
g89
sVCharacterOffsetEnd
p709
V165
p710
sVCharacterOffsetBegin
p711
V160
p712
sVPartOfSpeech
p713
VMD
p714
sVLemma
p715
Vwould
p716
saa(lp717
Vshe
p718
a(dp719
VNamedEntityTag
p720
g89
sVCharacterOffsetEnd
p721
V169
p722
sVCharacterOffsetBegin
p723
V166
p724
sVPartOfSpeech
p725
VPRP
p726
sVLemma
p727
Vshe
p728
saa(lp729
Vhave
p730
a(dp731
VNamedEntityTag
p732
g89
sVCharacterOffsetEnd
p733
V174
p734
sVCharacterOffsetBegin
p735
V170
p736
sVPartOfSpeech
p737
VVB
p738
sVLemma
p739
Vhave
p740
saa(lp741
V?
p742
a(dp743
VNamedEntityTag
p744
g89
sVCharacterOffsetEnd
p745
V176
p746
sVCharacterOffsetBegin
p747
V175
p748
sVPartOfSpeech
p749
g196
sVLemma
p750
g742
saasVindexeddependencies
p751
(lp752
(lp753
Vroot
p754
aVROOT-0
p755
aVhave-17
p756
aa(lp757
Vmark
p758
aVgot-3
p759
aVIf-1
p760
aa(lp761
Vnsubj
p762
aVgot-3
p763
aVshe-2
p764
aa(lp765
Vadvcl
p766
aVhave-17
p767
aVgot-3
p768
aa(lp769
Vnum
p770
aVlives-6
p771
aV27-4
p772
aa(lp773
Vamod
p774
aVlives-6
p775
aVmore-5
p776
aa(lp777
Vdobj
p778
aVgot-3
p779
aVlives-6
p780
aa(lp781
Vdet
p782
aVlevel-10
p783
aVthe-8
p784
aa(lp785
Vamod
p786
aVlevel-10
p787
aVnext-9
p788
aa(lp789
Vprep_in
p790
aVgot-3
p791
aVlevel-10
p792
aa(lp793
Vadvmod
p794
aVmany-13
p795
aVhow-12
p796
aa(lp797
Vamod
p798
aVlives-14
p799
aVmany-13
p800
aa(lp801
Vdobj
p802
aVhave-17
p803
aVlives-14
p804
aa(lp805
Vaux
p806
aVhave-17
p807
aVwould-15
p808
aa(lp809
Vnsubj
p810
aVhave-17
p811
aVshe-16
p812
aasas.