(dp0
Vcoref
p1
(lp2
(lp3
(lp4
(lp5
Vthe tea shop
p6
aI1
aI7
aI5
aI8
aa(lp7
VSidney 's Tea Shop
p8
aI0
aI3
aI0
aI4
aaa(lp9
(lp10
Vthe tea shop
p11
aI2
aI7
aI5
aI8
aa(lp12
VSidney 's Tea Shop
p13
aI0
aI3
aI0
aI4
aaaa(lp14
(lp15
(lp16
Vteas
p17
aI2
aI3
aI3
aI4
aa(lp18
V65 teas in all , 0.8 times of which were caffeinated
p19
aI1
aI10
aI9
aI20
aaaasVsentences
p20
(lp21
(dp22
Vparsetree
p23
V(ROOT (S (NP (NP (NNP Sidney) (POS 's)) (NNP Tea) (NNP Shop)) (VP (VBZ has) (VP (VP (VBN caffeinated) (NP (NN tea))) (CC and) (VP (VBN decaffeinated) (NP (NN tea))))) (. .)))
p24
sVtext
p25
VSidney's Tea Shop has caffeinated tea and decaffeinated tea .
p26
sVdependencies
p27
(lp28
(lp29
Vroot
p30
aVROOT
p31
aVcaffeinated
p32
aa(lp33
Vposs
p34
aVShop
p35
aVSidney
p36
aa(lp37
Vnn
p38
aVShop
p39
aVTea
p40
aa(lp41
Vnsubj
p42
aVcaffeinated
p43
aVShop
p44
aa(lp45
Vaux
p46
aVcaffeinated
p47
aVhas
p48
aa(lp49
Vdobj
p50
aVcaffeinated
p51
aVtea
p52
aa(lp53
Vconj_and
p54
aVcaffeinated
p55
aVdecaffeinated
p56
aa(lp57
Vdobj
p58
aVdecaffeinated
p59
aVtea
p60
aasVwords
p61
(lp62
(lp63
VSidney
p64
a(dp65
VNamedEntityTag
p66
VPERSON
p67
sVCharacterOffsetEnd
p68
V7
p69
sVCharacterOffsetBegin
p70
V1
p71
sVPartOfSpeech
p72
VNNP
p73
sVLemma
p74
VSidney
p75
saa(lp76
V's
p77
a(dp78
VNamedEntityTag
p79
VO
p80
sVCharacterOffsetEnd
p81
V9
p82
sVCharacterOffsetBegin
p83
g69
sVPartOfSpeech
p84
VPOS
p85
sVLemma
p86
V's
p87
saa(lp88
VTea
p89
a(dp90
VNamedEntityTag
p91
g80
sVCharacterOffsetEnd
p92
V13
p93
sVCharacterOffsetBegin
p94
V10
p95
sVPartOfSpeech
p96
VNNP
p97
sVLemma
p98
VTea
p99
saa(lp100
VShop
p101
a(dp102
VNamedEntityTag
p103
g80
sVCharacterOffsetEnd
p104
V18
p105
sVCharacterOffsetBegin
p106
V14
p107
sVPartOfSpeech
p108
VNNP
p109
sVLemma
p110
VShop
p111
saa(lp112
Vhas
p113
a(dp114
VNamedEntityTag
p115
g80
sVCharacterOffsetEnd
p116
V22
p117
sVCharacterOffsetBegin
p118
V19
p119
sVPartOfSpeech
p120
VVBZ
p121
sVLemma
p122
Vhave
p123
saa(lp124
Vcaffeinated
p125
a(dp126
VNamedEntityTag
p127
g80
sVCharacterOffsetEnd
p128
V34
p129
sVCharacterOffsetBegin
p130
V23
p131
sVPartOfSpeech
p132
VVBN
p133
sVLemma
p134
Vcaffeinate
p135
saa(lp136
Vtea
p137
a(dp138
VNamedEntityTag
p139
g80
sVCharacterOffsetEnd
p140
V38
p141
sVCharacterOffsetBegin
p142
V35
p143
sVPartOfSpeech
p144
VNN
p145
sVLemma
p146
Vtea
p147
saa(lp148
Vand
p149
a(dp150
VNamedEntityTag
p151
g80
sVCharacterOffsetEnd
p152
V42
p153
sVCharacterOffsetBegin
p154
V39
p155
sVPartOfSpeech
p156
VCC
p157
sVLemma
p158
Vand
p159
saa(lp160
Vdecaffeinated
p161
a(dp162
VNamedEntityTag
p163
g80
sVCharacterOffsetEnd
p164
V56
p165
sVCharacterOffsetBegin
p166
V43
p167
sVPartOfSpeech
p168
VVBN
p169
sVLemma
p170
Vdecaffeinate
p171
saa(lp172
Vtea
p173
a(dp174
VNamedEntityTag
p175
g80
sVCharacterOffsetEnd
p176
V60
p177
sVCharacterOffsetBegin
p178
V57
p179
sVPartOfSpeech
p180
VNN
p181
sVLemma
p182
Vtea
p183
saa(lp184
V.
p185
a(dp186
VNamedEntityTag
p187
g80
sVCharacterOffsetEnd
p188
V62
p189
sVCharacterOffsetBegin
p190
V61
p191
sVPartOfSpeech
p192
g185
sVLemma
p193
g185
saasVindexeddependencies
p194
(lp195
(lp196
Vroot
p197
aVROOT-0
p198
aVcaffeinated-6
p199
aa(lp200
Vposs
p201
aVShop-4
p202
aVSidney-1
p203
aa(lp204
Vnn
p205
aVShop-4
p206
aVTea-3
p207
aa(lp208
Vnsubj
p209
aVcaffeinated-6
p210
aVShop-4
p211
aa(lp212
Vaux
p213
aVcaffeinated-6
p214
aVhas-5
p215
aa(lp216
Vdobj
p217
aVcaffeinated-6
p218
aVtea-7
p219
aa(lp220
Vconj_and
p221
aVcaffeinated-6
p222
aVdecaffeinated-9
p223
aa(lp224
Vdobj
p225
aVdecaffeinated-9
p226
aVtea-10
p227
aasa(dp228
Vparsetree
p229
V(ROOT (S (PP (IN During) (NP (DT the) (NN lunchtime) (NN rush))) (, ,) (NP (DT the) (NN tea) (NN shop)) (VP (VBD served) (NP (NP (CD 65) (NNS teas)) (PP (IN in) (NP (NP (DT all)) (, ,) (SBAR (WHNP (WHNP (QP (CD 0.8) (NNS times))) (WHPP (IN of) (WHNP (WDT which)))) (S (VP (VBD were) (VP (VBN caffeinated))))))))) (. .)))
p230
sVtext
p231
VDuring the lunchtime rush , the tea shop served 65 teas in all , 0.8 times of which were caffeinated .
p232
sVdependencies
p233
(lp234
(lp235
Vroot
p236
aVROOT
p237
aVserved
p238
aa(lp239
Vdet
p240
aVrush
p241
aVthe
p242
aa(lp243
Vnn
p244
aVrush
p245
aVlunchtime
p246
aa(lp247
Vprep_during
p248
aVserved
p249
aVrush
p250
aa(lp251
Vdet
p252
aVshop
p253
aVthe
p254
aa(lp255
Vnn
p256
aVshop
p257
aVtea
p258
aa(lp259
Vnsubj
p260
aVserved
p261
aVshop
p262
aa(lp263
Vnum
p264
aVteas
p265
aV65
p266
aa(lp267
Vdobj
p268
aVserved
p269
aVteas
p270
aa(lp271
Vprep_in
p272
aVteas
p273
aVall
p274
aa(lp275
Vnumber
p276
aVtimes
p277
aV0.8
p278
aa(lp279
Vnsubjpass
p280
aVcaffeinated
p281
aVtimes
p282
aa(lp283
Vprep_of
p284
aVtimes
p285
aVwhich
p286
aa(lp287
Vauxpass
p288
aVcaffeinated
p289
aVwere
p290
aa(lp291
Vrcmod
p292
aVall
p293
aVcaffeinated
p294
aasVwords
p295
(lp296
(lp297
VDuring
p298
a(dp299
VNamedEntityTag
p300
g80
sVCharacterOffsetEnd
p301
V69
p302
sVCharacterOffsetBegin
p303
V63
p304
sVPartOfSpeech
p305
VIN
p306
sVLemma
p307
Vduring
p308
saa(lp309
Vthe
p310
a(dp311
VNamedEntityTag
p312
g80
sVCharacterOffsetEnd
p313
V73
p314
sVCharacterOffsetBegin
p315
V70
p316
sVPartOfSpeech
p317
VDT
p318
sVLemma
p319
Vthe
p320
saa(lp321
Vlunchtime
p322
a(dp323
VNormalizedNamedEntityTag
p324
V~(T13
p325
sVTimex
p326
V<TIMEX3 alt_value="~(T13 IN (T12,T14,PT2H))" tid="t1" type="DATE">lunchtime</TIMEX3>
p327
sVLemma
p328
Vlunchtime
p329
sVCharacterOffsetEnd
p330
V83
p331
sVPartOfSpeech
p332
VNN
p333
sVCharacterOffsetBegin
p334
V74
p335
sVNamedEntityTag
p336
VDATE
p337
saa(lp338
Vrush
p339
a(dp340
VNamedEntityTag
p341
g80
sVCharacterOffsetEnd
p342
V88
p343
sVCharacterOffsetBegin
p344
V84
p345
sVPartOfSpeech
p346
VNN
p347
sVLemma
p348
Vrush
p349
saa(lp350
V,
p351
a(dp352
VNamedEntityTag
p353
g80
sVCharacterOffsetEnd
p354
V90
p355
sVCharacterOffsetBegin
p356
V89
p357
sVPartOfSpeech
p358
g351
sVLemma
p359
g351
saa(lp360
Vthe
p361
a(dp362
VNamedEntityTag
p363
g80
sVCharacterOffsetEnd
p364
V94
p365
sVCharacterOffsetBegin
p366
V91
p367
sVPartOfSpeech
p368
VDT
p369
sVLemma
p370
Vthe
p371
saa(lp372
Vtea
p373
a(dp374
VNamedEntityTag
p375
g80
sVCharacterOffsetEnd
p376
V98
p377
sVCharacterOffsetBegin
p378
V95
p379
sVPartOfSpeech
p380
VNN
p381
sVLemma
p382
Vtea
p383
saa(lp384
Vshop
p385
a(dp386
VNamedEntityTag
p387
g80
sVCharacterOffsetEnd
p388
V103
p389
sVCharacterOffsetBegin
p390
V99
p391
sVPartOfSpeech
p392
VNN
p393
sVLemma
p394
Vshop
p395
saa(lp396
Vserved
p397
a(dp398
VNamedEntityTag
p399
g80
sVCharacterOffsetEnd
p400
V110
p401
sVCharacterOffsetBegin
p402
V104
p403
sVPartOfSpeech
p404
VVBD
p405
sVLemma
p406
Vserve
p407
saa(lp408
V65
p409
a(dp410
VNormalizedNamedEntityTag
p411
V65.0
p412
sVLemma
p413
V65
p414
sVCharacterOffsetEnd
p415
V113
p416
sVPartOfSpeech
p417
VCD
p418
sVCharacterOffsetBegin
p419
V111
p420
sVNamedEntityTag
p421
VNUMBER
p422
saa(lp423
Vteas
p424
a(dp425
VNamedEntityTag
p426
g80
sVCharacterOffsetEnd
p427
V118
p428
sVCharacterOffsetBegin
p429
V114
p430
sVPartOfSpeech
p431
VNNS
p432
sVLemma
p433
Vtea
p434
saa(lp435
Vin
p436
a(dp437
VNamedEntityTag
p438
g80
sVCharacterOffsetEnd
p439
V121
p440
sVCharacterOffsetBegin
p441
V119
p442
sVPartOfSpeech
p443
VIN
p444
sVLemma
p445
Vin
p446
saa(lp447
Vall
p448
a(dp449
VNamedEntityTag
p450
g80
sVCharacterOffsetEnd
p451
V125
p452
sVCharacterOffsetBegin
p453
V122
p454
sVPartOfSpeech
p455
VDT
p456
sVLemma
p457
Vall
p458
saa(lp459
g351
a(dp460
VNamedEntityTag
p461
g80
sVCharacterOffsetEnd
p462
V127
p463
sVCharacterOffsetBegin
p464
V126
p465
sVPartOfSpeech
p466
g351
sVLemma
p467
g351
saa(lp468
V0.8
p469
a(dp470
VNormalizedNamedEntityTag
p471
V0.8
p472
sVLemma
p473
V0.8
p474
sVCharacterOffsetEnd
p475
V131
p476
sVPartOfSpeech
p477
VCD
p478
sVCharacterOffsetBegin
p479
V128
p480
sVNamedEntityTag
p481
VNUMBER
p482
saa(lp483
Vtimes
p484
a(dp485
VNamedEntityTag
p486
g80
sVCharacterOffsetEnd
p487
V137
p488
sVCharacterOffsetBegin
p489
V132
p490
sVPartOfSpeech
p491
VNNS
p492
sVLemma
p493
Vtime
p494
saa(lp495
Vof
p496
a(dp497
VNamedEntityTag
p498
g80
sVCharacterOffsetEnd
p499
V140
p500
sVCharacterOffsetBegin
p501
V138
p502
sVPartOfSpeech
p503
VIN
p504
sVLemma
p505
Vof
p506
saa(lp507
Vwhich
p508
a(dp509
VNamedEntityTag
p510
g80
sVCharacterOffsetEnd
p511
V146
p512
sVCharacterOffsetBegin
p513
V141
p514
sVPartOfSpeech
p515
VWDT
p516
sVLemma
p517
Vwhich
p518
saa(lp519
Vwere
p520
a(dp521
VNamedEntityTag
p522
g80
sVCharacterOffsetEnd
p523
V151
p524
sVCharacterOffsetBegin
p525
V147
p526
sVPartOfSpeech
p527
VVBD
p528
sVLemma
p529
Vbe
p530
saa(lp531
Vcaffeinated
p532
a(dp533
VNamedEntityTag
p534
g80
sVCharacterOffsetEnd
p535
V163
p536
sVCharacterOffsetBegin
p537
V152
p538
sVPartOfSpeech
p539
VVBN
p540
sVLemma
p541
Vcaffeinate
p542
saa(lp543
g185
a(dp544
VNamedEntityTag
p545
g80
sVCharacterOffsetEnd
p546
V165
p547
sVCharacterOffsetBegin
p548
V164
p549
sVPartOfSpeech
p550
g185
sVLemma
p551
g185
saasVindexeddependencies
p552
(lp553
(lp554
Vroot
p555
aVROOT-0
p556
aVserved-9
p557
aa(lp558
Vdet
p559
aVrush-4
p560
aVthe-2
p561
aa(lp562
Vnn
p563
aVrush-4
p564
aVlunchtime-3
p565
aa(lp566
Vprep_during
p567
aVserved-9
p568
aVrush-4
p569
aa(lp570
Vdet
p571
aVshop-8
p572
aVthe-6
p573
aa(lp574
Vnn
p575
aVshop-8
p576
aVtea-7
p577
aa(lp578
Vnsubj
p579
aVserved-9
p580
aVshop-8
p581
aa(lp582
Vnum
p583
aVteas-11
p584
aV65-10
p585
aa(lp586
Vdobj
p587
aVserved-9
p588
aVteas-11
p589
aa(lp590
Vprep_in
p591
aVteas-11
p592
aVall-13
p593
aa(lp594
Vnumber
p595
aVtimes-16
p596
aV0.8-15
p597
aa(lp598
Vnsubjpass
p599
aVcaffeinated-20
p600
aVtimes-16
p601
aa(lp602
Vprep_of
p603
aVtimes-16
p604
aVwhich-18
p605
aa(lp606
Vauxpass
p607
aVcaffeinated-20
p608
aVwere-19
p609
aa(lp610
Vrcmod
p611
aVall-13
p612
aVcaffeinated-20
p613
aasa(dp614
Vparsetree
p615
V(ROOT (SBARQ (WHNP (WHNP (WRB How) (JJ many)) (PP (VBN caffeinated) (NP (NNS teas)))) (SQ (VBD did) (NP (DT the) (NN tea) (NN shop)) (VP (VB serve))) (. ?)))
p616
sVtext
p617
VHow many caffeinated teas did the tea shop serve ?
p618
sVdependencies
p619
(lp620
(lp621
Vroot
p622
aVROOT
p623
aVserve
p624
aa(lp625
Vadvmod
p626
aVmany
p627
aVHow
p628
aa(lp629
Vdobj
p630
aVserve
p631
aVmany
p632
aa(lp633
Vprep
p634
aVmany
p635
aVcaffeinated
p636
aa(lp637
Vpobj
p638
aVcaffeinated
p639
aVteas
p640
aa(lp641
Vaux
p642
aVserve
p643
aVdid
p644
aa(lp645
Vdet
p646
aVshop
p647
aVthe
p648
aa(lp649
Vnn
p650
aVshop
p651
aVtea
p652
aa(lp653
Vnsubj
p654
aVserve
p655
aVshop
p656
aasVwords
p657
(lp658
(lp659
VHow
p660
a(dp661
VNamedEntityTag
p662
g80
sVCharacterOffsetEnd
p663
V169
p664
sVCharacterOffsetBegin
p665
V166
p666
sVPartOfSpeech
p667
VWRB
p668
sVLemma
p669
Vhow
p670
saa(lp671
Vmany
p672
a(dp673
VNamedEntityTag
p674
g80
sVCharacterOffsetEnd
p675
V174
p676
sVCharacterOffsetBegin
p677
V170
p678
sVPartOfSpeech
p679
VJJ
p680
sVLemma
p681
Vmany
p682
saa(lp683
Vcaffeinated
p684
a(dp685
VNamedEntityTag
p686
g80
sVCharacterOffsetEnd
p687
V186
p688
sVCharacterOffsetBegin
p689
V175
p690
sVPartOfSpeech
p691
VVBN
p692
sVLemma
p693
Vcaffeinate
p694
saa(lp695
Vteas
p696
a(dp697
VNamedEntityTag
p698
g80
sVCharacterOffsetEnd
p699
V191
p700
sVCharacterOffsetBegin
p701
V187
p702
sVPartOfSpeech
p703
VNNS
p704
sVLemma
p705
Vtea
p706
saa(lp707
Vdid
p708
a(dp709
VNamedEntityTag
p710
g80
sVCharacterOffsetEnd
p711
V195
p712
sVCharacterOffsetBegin
p713
V192
p714
sVPartOfSpeech
p715
VVBD
p716
sVLemma
p717
Vdo
p718
saa(lp719
Vthe
p720
a(dp721
VNamedEntityTag
p722
g80
sVCharacterOffsetEnd
p723
V199
p724
sVCharacterOffsetBegin
p725
V196
p726
sVPartOfSpeech
p727
VDT
p728
sVLemma
p729
Vthe
p730
saa(lp731
Vtea
p732
a(dp733
VNamedEntityTag
p734
g80
sVCharacterOffsetEnd
p735
V203
p736
sVCharacterOffsetBegin
p737
V200
p738
sVPartOfSpeech
p739
VNN
p740
sVLemma
p741
Vtea
p742
saa(lp743
Vshop
p744
a(dp745
VNamedEntityTag
p746
g80
sVCharacterOffsetEnd
p747
V208
p748
sVCharacterOffsetBegin
p749
V204
p750
sVPartOfSpeech
p751
VNN
p752
sVLemma
p753
Vshop
p754
saa(lp755
Vserve
p756
a(dp757
VNamedEntityTag
p758
g80
sVCharacterOffsetEnd
p759
V214
p760
sVCharacterOffsetBegin
p761
V209
p762
sVPartOfSpeech
p763
VVB
p764
sVLemma
p765
Vserve
p766
saa(lp767
V?
p768
a(dp769
VNamedEntityTag
p770
g80
sVCharacterOffsetEnd
p771
V216
p772
sVCharacterOffsetBegin
p773
V215
p774
sVPartOfSpeech
p775
g185
sVLemma
p776
g768
saasVindexeddependencies
p777
(lp778
(lp779
Vroot
p780
aVROOT-0
p781
aVserve-9
p782
aa(lp783
Vadvmod
p784
aVmany-2
p785
aVHow-1
p786
aa(lp787
Vdobj
p788
aVserve-9
p789
aVmany-2
p790
aa(lp791
Vprep
p792
aVmany-2
p793
aVcaffeinated-3
p794
aa(lp795
Vpobj
p796
aVcaffeinated-3
p797
aVteas-4
p798
aa(lp799
Vaux
p800
aVserve-9
p801
aVdid-5
p802
aa(lp803
Vdet
p804
aVshop-8
p805
aVthe-6
p806
aa(lp807
Vnn
p808
aVshop-8
p809
aVtea-7
p810
aa(lp811
Vnsubj
p812
aVserve-9
p813
aVshop-8
p814
aasas.