(dp0
Vcoref
p1
(lp2
(lp3
(lp4
(lp5
Vher mp3 player
p6
aI1
aI24
aI22
aI25
aa(lp7
Vher mp3 player
p8
aI0
aI7
aI5
aI8
aaaa(lp9
(lp10
(lp11
Vshe
p12
aI1
aI1
aI1
aI2
aa(lp13
Vher
p14
aI0
aI5
aI5
aI6
aaa(lp15
(lp16
Vshe
p17
aI1
aI19
aI19
aI20
aa(lp18
Vher
p19
aI0
aI5
aI5
aI6
aaa(lp20
(lp21
Vher
p22
aI1
aI22
aI22
aI23
aa(lp23
Vher
p24
aI0
aI5
aI5
aI6
aaaa(lp25
(lp26
(lp27
Vit
p28
aI1
aI7
aI7
aI8
aa(lp29
V9
p30
aI1
aI3
aI3
aI4
aaaasVsentences
p31
(lp32
(dp33
Vparsetree
p34
V(ROOT (S (NP (NNP Paige)) (VP (VBD had) (NP (NP (CD 11) (NNS songs)) (PP (IN on) (NP (PRP$ her) (NN mp3) (NN player))))) (. .)))
p35
sVtext
p36
VPaige had 11 songs on her mp3 player .
p37
sVdependencies
p38
(lp39
(lp40
Vroot
p41
aVROOT
p42
aVhad
p43
aa(lp44
Vnsubj
p45
aVhad
p46
aVPaige
p47
aa(lp48
Vnum
p49
aVsongs
p50
aV11
p51
aa(lp52
Vdobj
p53
aVhad
p54
aVsongs
p55
aa(lp56
Vposs
p57
aVplayer
p58
aVher
p59
aa(lp60
Vnn
p61
aVplayer
p62
aVmp3
p63
aa(lp64
Vprep_on
p65
aVsongs
p66
aVplayer
p67
aasVwords
p68
(lp69
(lp70
VPaige
p71
a(dp72
VNamedEntityTag
p73
VPERSON
p74
sVCharacterOffsetEnd
p75
V6
p76
sVCharacterOffsetBegin
p77
V1
p78
sVPartOfSpeech
p79
VNNP
p80
sVLemma
p81
VPaige
p82
saa(lp83
Vhad
p84
a(dp85
VNamedEntityTag
p86
VO
p87
sVCharacterOffsetEnd
p88
V10
p89
sVCharacterOffsetBegin
p90
V7
p91
sVPartOfSpeech
p92
VVBD
p93
sVLemma
p94
Vhave
p95
saa(lp96
V11
p97
a(dp98
VNormalizedNamedEntityTag
p99
V11.0
p100
sVLemma
p101
V11
p102
sVCharacterOffsetEnd
p103
V13
p104
sVPartOfSpeech
p105
VCD
p106
sVCharacterOffsetBegin
p107
V11
p108
sVNamedEntityTag
p109
VNUMBER
p110
saa(lp111
Vsongs
p112
a(dp113
VNamedEntityTag
p114
g87
sVCharacterOffsetEnd
p115
V19
p116
sVCharacterOffsetBegin
p117
V14
p118
sVPartOfSpeech
p119
VNNS
p120
sVLemma
p121
Vsong
p122
saa(lp123
Von
p124
a(dp125
VNamedEntityTag
p126
g87
sVCharacterOffsetEnd
p127
V22
p128
sVCharacterOffsetBegin
p129
V20
p130
sVPartOfSpeech
p131
VIN
p132
sVLemma
p133
Von
p134
saa(lp135
Vher
p136
a(dp137
VNamedEntityTag
p138
g87
sVCharacterOffsetEnd
p139
V26
p140
sVCharacterOffsetBegin
p141
V23
p142
sVPartOfSpeech
p143
VPRP$
p144
sVLemma
p145
Vshe
p146
saa(lp147
Vmp3
p148
a(dp149
VNamedEntityTag
p150
g87
sVCharacterOffsetEnd
p151
V30
p152
sVCharacterOffsetBegin
p153
V27
p154
sVPartOfSpeech
p155
VNN
p156
sVLemma
p157
Vmp3
p158
saa(lp159
Vplayer
p160
a(dp161
VNamedEntityTag
p162
g87
sVCharacterOffsetEnd
p163
V37
p164
sVCharacterOffsetBegin
p165
V31
p166
sVPartOfSpeech
p167
VNN
p168
sVLemma
p169
Vplayer
p170
saa(lp171
V.
p172
a(dp173
VNamedEntityTag
p174
g87
sVCharacterOffsetEnd
p175
V39
p176
sVCharacterOffsetBegin
p177
V38
p178
sVPartOfSpeech
p179
g172
sVLemma
p180
g172
saasVindexeddependencies
p181
(lp182
(lp183
Vroot
p184
aVROOT-0
p185
aVhad-2
p186
aa(lp187
Vnsubj
p188
aVhad-2
p189
aVPaige-1
p190
aa(lp191
Vnum
p192
aVsongs-4
p193
aV11-3
p194
aa(lp195
Vdobj
p196
aVhad-2
p197
aVsongs-4
p198
aa(lp199
Vposs
p200
aVplayer-8
p201
aVher-6
p202
aa(lp203
Vnn
p204
aVplayer-8
p205
aVmp3-7
p206
aa(lp207
Vprep_on
p208
aVsongs-4
p209
aVplayer-8
p210
aasa(dp211
Vparsetree
p212
V(ROOT (SBARQ (SBAR (IN If) (S (NP (PRP she)) (VP (VP (VBD deleted) (NP (CD 9) (JJ old) (NNS songs)) (PP (IN from) (NP (PRP it)))) (CC and) (VP (ADVP (RB then)) (VBD added) (NP (CD 8) (JJ new) (NNS songs)))))) (, ,) (WHNP (WHADJP (WRB how) (JJ many)) (NNS songs)) (SQ (VBZ does) (NP (PRP she)) (VP (VB have) (PP (IN on) (NP (PRP$ her) (NN mp3) (NN player))))) (. ?)))
p213
sVtext
p214
VIf she deleted 9 old songs from it and then added 8 new songs , how many songs does she have on her mp3 player ?
p215
sVdependencies
p216
(lp217
(lp218
Vroot
p219
aVROOT
p220
aVhave
p221
aa(lp222
Vmark
p223
aVdeleted
p224
aVIf
p225
aa(lp226
Vnsubj
p227
aVdeleted
p228
aVshe
p229
aa(lp230
Vadvcl
p231
aVhave
p232
aVdeleted
p233
aa(lp234
Vnum
p235
aVsongs
p236
ag30
aa(lp237
Vamod
p238
aVsongs
p239
aVold
p240
aa(lp241
Vdobj
p242
aVdeleted
p243
aVsongs
p244
aa(lp245
Vprep_from
p246
aVdeleted
p247
aVit
p248
aa(lp249
Vadvmod
p250
aVadded
p251
aVthen
p252
aa(lp253
Vconj_and
p254
aVdeleted
p255
aVadded
p256
aa(lp257
Vnum
p258
aVsongs
p259
aV8
p260
aa(lp261
Vamod
p262
aVsongs
p263
aVnew
p264
aa(lp265
Vdobj
p266
aVadded
p267
aVsongs
p268
aa(lp269
Vadvmod
p270
aVmany
p271
aVhow
p272
aa(lp273
Vamod
p274
aVsongs
p275
aVmany
p276
aa(lp277
Vdobj
p278
aVhave
p279
aVsongs
p280
aa(lp281
Vaux
p282
aVhave
p283
aVdoes
p284
aa(lp285
Vnsubj
p286
aVhave
p287
aVshe
p288
aa(lp289
Vposs
p290
aVplayer
p291
aVher
p292
aa(lp293
Vnn
p294
aVplayer
p295
aVmp3
p296
aa(lp297
Vprep_on
p298
aVhave
p299
aVplayer
p300
aasVwords
p301
(lp302
(lp303
VIf
p304
a(dp305
VNamedEntityTag
p306
g87
sVCharacterOffsetEnd
p307
V42
p308
sVCharacterOffsetBegin
p309
V40
p310
sVPartOfSpeech
p311
VIN
p312
sVLemma
p313
Vif
p314
saa(lp315
Vshe
p316
a(dp317
VNamedEntityTag
p318
g87
sVCharacterOffsetEnd
p319
V46
p320
sVCharacterOffsetBegin
p321
V43
p322
sVPartOfSpeech
p323
VPRP
p324
sVLemma
p325
Vshe
p326
saa(lp327
Vdeleted
p328
a(dp329
VNamedEntityTag
p330
g87
sVCharacterOffsetEnd
p331
V54
p332
sVCharacterOffsetBegin
p333
V47
p334
sVPartOfSpeech
p335
VVBD
p336
sVLemma
p337
Vdelete
p338
saa(lp339
g30
a(dp340
VNormalizedNamedEntityTag
p341
V9.0
p342
sVLemma
p343
g30
sVCharacterOffsetEnd
p344
V56
p345
sVPartOfSpeech
p346
VCD
p347
sVCharacterOffsetBegin
p348
V55
p349
sVNamedEntityTag
p350
VNUMBER
p351
saa(lp352
Vold
p353
a(dp354
VNamedEntityTag
p355
g87
sVCharacterOffsetEnd
p356
V60
p357
sVCharacterOffsetBegin
p358
V57
p359
sVPartOfSpeech
p360
VJJ
p361
sVLemma
p362
Vold
p363
saa(lp364
Vsongs
p365
a(dp366
VNamedEntityTag
p367
g87
sVCharacterOffsetEnd
p368
V66
p369
sVCharacterOffsetBegin
p370
V61
p371
sVPartOfSpeech
p372
VNNS
p373
sVLemma
p374
Vsong
p375
saa(lp376
Vfrom
p377
a(dp378
VNamedEntityTag
p379
g87
sVCharacterOffsetEnd
p380
V71
p381
sVCharacterOffsetBegin
p382
V67
p383
sVPartOfSpeech
p384
VIN
p385
sVLemma
p386
Vfrom
p387
saa(lp388
Vit
p389
a(dp390
VNamedEntityTag
p391
g87
sVCharacterOffsetEnd
p392
V74
p393
sVCharacterOffsetBegin
p394
V72
p395
sVPartOfSpeech
p396
VPRP
p397
sVLemma
p398
Vit
p399
saa(lp400
Vand
p401
a(dp402
VNamedEntityTag
p403
g87
sVCharacterOffsetEnd
p404
V78
p405
sVCharacterOffsetBegin
p406
V75
p407
sVPartOfSpeech
p408
VCC
p409
sVLemma
p410
Vand
p411
saa(lp412
Vthen
p413
a(dp414
VNamedEntityTag
p415
g87
sVCharacterOffsetEnd
p416
V83
p417
sVCharacterOffsetBegin
p418
V79
p419
sVPartOfSpeech
p420
VRB
p421
sVLemma
p422
Vthen
p423
saa(lp424
Vadded
p425
a(dp426
VNamedEntityTag
p427
g87
sVCharacterOffsetEnd
p428
V89
p429
sVCharacterOffsetBegin
p430
V84
p431
sVPartOfSpeech
p432
VVBD
p433
sVLemma
p434
Vadd
p435
saa(lp436
g260
a(dp437
VNormalizedNamedEntityTag
p438
V8.0
p439
sVLemma
p440
g260
sVCharacterOffsetEnd
p441
V91
p442
sVPartOfSpeech
p443
VCD
p444
sVCharacterOffsetBegin
p445
V90
p446
sVNamedEntityTag
p447
VNUMBER
p448
saa(lp449
Vnew
p450
a(dp451
VNamedEntityTag
p452
g87
sVCharacterOffsetEnd
p453
V95
p454
sVCharacterOffsetBegin
p455
V92
p456
sVPartOfSpeech
p457
VJJ
p458
sVLemma
p459
Vnew
p460
saa(lp461
Vsongs
p462
a(dp463
VNamedEntityTag
p464
g87
sVCharacterOffsetEnd
p465
V101
p466
sVCharacterOffsetBegin
p467
V96
p468
sVPartOfSpeech
p469
VNNS
p470
sVLemma
p471
Vsong
p472
saa(lp473
V,
p474
a(dp475
VNamedEntityTag
p476
g87
sVCharacterOffsetEnd
p477
V103
p478
sVCharacterOffsetBegin
p479
V102
p480
sVPartOfSpeech
p481
g474
sVLemma
p482
g474
saa(lp483
Vhow
p484
a(dp485
VNamedEntityTag
p486
g87
sVCharacterOffsetEnd
p487
V107
p488
sVCharacterOffsetBegin
p489
V104
p490
sVPartOfSpeech
p491
VWRB
p492
sVLemma
p493
Vhow
p494
saa(lp495
Vmany
p496
a(dp497
VNamedEntityTag
p498
g87
sVCharacterOffsetEnd
p499
V112
p500
sVCharacterOffsetBegin
p501
V108
p502
sVPartOfSpeech
p503
VJJ
p504
sVLemma
p505
Vmany
p506
saa(lp507
Vsongs
p508
a(dp509
VNamedEntityTag
p510
g87
sVCharacterOffsetEnd
p511
V118
p512
sVCharacterOffsetBegin
p513
V113
p514
sVPartOfSpeech
p515
VNNS
p516
sVLemma
p517
Vsong
p518
saa(lp519
Vdoes
p520
a(dp521
VNamedEntityTag
p522
g87
sVCharacterOffsetEnd
p523
V123
p524
sVCharacterOffsetBegin
p525
V119
p526
sVPartOfSpeech
p527
VVBZ
p528
sVLemma
p529
Vdo
p530
saa(lp531
Vshe
p532
a(dp533
VNamedEntityTag
p534
g87
sVCharacterOffsetEnd
p535
V127
p536
sVCharacterOffsetBegin
p537
V124
p538
sVPartOfSpeech
p539
VPRP
p540
sVLemma
p541
Vshe
p542
saa(lp543
Vhave
p544
a(dp545
VNamedEntityTag
p546
g87
sVCharacterOffsetEnd
p547
V132
p548
sVCharacterOffsetBegin
p549
V128
p550
sVPartOfSpeech
p551
VVB
p552
sVLemma
p553
Vhave
p554
saa(lp555
Von
p556
a(dp557
VNamedEntityTag
p558
g87
sVCharacterOffsetEnd
p559
V135
p560
sVCharacterOffsetBegin
p561
V133
p562
sVPartOfSpeech
p563
VIN
p564
sVLemma
p565
Von
p566
saa(lp567
Vher
p568
a(dp569
VNamedEntityTag
p570
g87
sVCharacterOffsetEnd
p571
V139
p572
sVCharacterOffsetBegin
p573
V136
p574
sVPartOfSpeech
p575
VPRP$
p576
sVLemma
p577
Vshe
p578
saa(lp579
Vmp3
p580
a(dp581
VNamedEntityTag
p582
g87
sVCharacterOffsetEnd
p583
V143
p584
sVCharacterOffsetBegin
p585
V140
p586
sVPartOfSpeech
p587
VNN
p588
sVLemma
p589
Vmp3
p590
saa(lp591
Vplayer
p592
a(dp593
VNamedEntityTag
p594
g87
sVCharacterOffsetEnd
p595
V150
p596
sVCharacterOffsetBegin
p597
V144
p598
sVPartOfSpeech
p599
VNN
p600
sVLemma
p601
Vplayer
p602
saa(lp603
V?
p604
a(dp605
VNamedEntityTag
p606
g87
sVCharacterOffsetEnd
p607
V152
p608
sVCharacterOffsetBegin
p609
V151
p610
sVPartOfSpeech
p611
g172
sVLemma
p612
g604
saasVindexeddependencies
p613
(lp614
(lp615
Vroot
p616
aVROOT-0
p617
aVhave-21
p618
aa(lp619
Vmark
p620
aVdeleted-3
p621
aVIf-1
p622
aa(lp623
Vnsubj
p624
aVdeleted-3
p625
aVshe-2
p626
aa(lp627
Vadvcl
p628
aVhave-21
p629
aVdeleted-3
p630
aa(lp631
Vnum
p632
aVsongs-6
p633
aV9-4
p634
aa(lp635
Vamod
p636
aVsongs-6
p637
aVold-5
p638
aa(lp639
Vdobj
p640
aVdeleted-3
p641
aVsongs-6
p642
aa(lp643
Vprep_from
p644
aVdeleted-3
p645
aVit-8
p646
aa(lp647
Vadvmod
p648
aVadded-11
p649
aVthen-10
p650
aa(lp651
Vconj_and
p652
aVdeleted-3
p653
aVadded-11
p654
aa(lp655
Vnum
p656
aVsongs-14
p657
aV8-12
p658
aa(lp659
Vamod
p660
aVsongs-14
p661
aVnew-13
p662
aa(lp663
Vdobj
p664
aVadded-11
p665
aVsongs-14
p666
aa(lp667
Vadvmod
p668
aVmany-17
p669
aVhow-16
p670
aa(lp671
Vamod
p672
aVsongs-18
p673
aVmany-17
p674
aa(lp675
Vdobj
p676
aVhave-21
p677
aVsongs-18
p678
aa(lp679
Vaux
p680
aVhave-21
p681
aVdoes-19
p682
aa(lp683
Vnsubj
p684
aVhave-21
p685
aVshe-20
p686
aa(lp687
Vposs
p688
aVplayer-25
p689
aVher-23
p690
aa(lp691
Vnn
p692
aVplayer-25
p693
aVmp3-24
p694
aa(lp695
Vprep_on
p696
aVhave-21
p697
aVplayer-25
p698
aasas.