(dp0
Vcoref
p1
(lp2
(lp3
(lp4
(lp5
VLia
p6
aI2
aI4
aI4
aI5
aa(lp7
VLia
p8
aI1
aI5
aI5
aI6
aaaasVsentences
p9
(lp10
(dp11
Vparsetree
p12
V(ROOT (S (PP (IN During) (NP (JJ second) (NN period))) (, ,) (NP (NN Lia)) (VP (VBD completed) (NP (DT a) (NN grammar) (NN worksheet))) (. .)))
p13
sVtext
p14
VDuring second period , Lia completed a grammar worksheet .
p15
sVdependencies
p16
(lp17
(lp18
Vroot
p19
aVROOT
p20
aVcompleted
p21
aa(lp22
Vamod
p23
aVperiod
p24
aVsecond
p25
aa(lp26
Vprep_during
p27
aVcompleted
p28
aVperiod
p29
aa(lp30
Vnsubj
p31
aVcompleted
p32
aVLia
p33
aa(lp34
Vdet
p35
aVworksheet
p36
aVa
p37
aa(lp38
Vnn
p39
aVworksheet
p40
aVgrammar
p41
aa(lp42
Vdobj
p43
aVcompleted
p44
aVworksheet
p45
aasVwords
p46
(lp47
(lp48
VDuring
p49
a(dp50
VNamedEntityTag
p51
VO
p52
sVCharacterOffsetEnd
p53
V7
p54
sVCharacterOffsetBegin
p55
V1
p56
sVPartOfSpeech
p57
VIN
p58
sVLemma
p59
Vduring
p60
saa(lp61
Vsecond
p62
a(dp63
VNormalizedNamedEntityTag
p64
V2.0
p65
sVLemma
p66
Vsecond
p67
sVCharacterOffsetEnd
p68
V14
p69
sVPartOfSpeech
p70
VJJ
p71
sVCharacterOffsetBegin
p72
V8
p73
sVNamedEntityTag
p74
VORDINAL
p75
saa(lp76
Vperiod
p77
a(dp78
VNamedEntityTag
p79
g52
sVCharacterOffsetEnd
p80
V21
p81
sVCharacterOffsetBegin
p82
V15
p83
sVPartOfSpeech
p84
VNN
p85
sVLemma
p86
Vperiod
p87
saa(lp88
V,
p89
a(dp90
VNamedEntityTag
p91
g52
sVCharacterOffsetEnd
p92
V23
p93
sVCharacterOffsetBegin
p94
V22
p95
sVPartOfSpeech
p96
g89
sVLemma
p97
g89
saa(lp98
VLia
p99
a(dp100
VNamedEntityTag
p101
VPERSON
p102
sVCharacterOffsetEnd
p103
V27
p104
sVCharacterOffsetBegin
p105
V24
p106
sVPartOfSpeech
p107
VNN
p108
sVLemma
p109
Vlium
p110
saa(lp111
Vcompleted
p112
a(dp113
VNamedEntityTag
p114
g52
sVCharacterOffsetEnd
p115
V37
p116
sVCharacterOffsetBegin
p117
V28
p118
sVPartOfSpeech
p119
VVBD
p120
sVLemma
p121
Vcomplete
p122
saa(lp123
g37
a(dp124
VNamedEntityTag
p125
g52
sVCharacterOffsetEnd
p126
V39
p127
sVCharacterOffsetBegin
p128
V38
p129
sVPartOfSpeech
p130
VDT
p131
sVLemma
p132
g37
saa(lp133
Vgrammar
p134
a(dp135
VNamedEntityTag
p136
g52
sVCharacterOffsetEnd
p137
V47
p138
sVCharacterOffsetBegin
p139
V40
p140
sVPartOfSpeech
p141
VNN
p142
sVLemma
p143
Vgrammar
p144
saa(lp145
Vworksheet
p146
a(dp147
VNamedEntityTag
p148
g52
sVCharacterOffsetEnd
p149
V57
p150
sVCharacterOffsetBegin
p151
V48
p152
sVPartOfSpeech
p153
VNN
p154
sVLemma
p155
Vworksheet
p156
saa(lp157
V.
p158
a(dp159
VNamedEntityTag
p160
g52
sVCharacterOffsetEnd
p161
V59
p162
sVCharacterOffsetBegin
p163
V58
p164
sVPartOfSpeech
p165
g158
sVLemma
p166
g158
saasVindexeddependencies
p167
(lp168
(lp169
Vroot
p170
aVROOT-0
p171
aVcompleted-6
p172
aa(lp173
Vamod
p174
aVperiod-3
p175
aVsecond-2
p176
aa(lp177
Vprep_during
p178
aVcompleted-6
p179
aVperiod-3
p180
aa(lp181
Vnsubj
p182
aVcompleted-6
p183
aVLia-5
p184
aa(lp185
Vdet
p186
aVworksheet-9
p187
aVa-7
p188
aa(lp189
Vnn
p190
aVworksheet-9
p191
aVgrammar-8
p192
aa(lp193
Vdobj
p194
aVcompleted-6
p195
aVworksheet-9
p196
aasa(dp197
Vparsetree
p198
V(ROOT (S (PP (IN Of) (NP (DT the) (CD 40) (NNS questions))) (, ,) (NP (NNP Lia)) (VP (VBD got) (NP-TMP (CD 0.1) (NNS times) (RB right))) (. .)))
p199
sVtext
p200
VOf the 40 questions , Lia got 0.1 times right .
p201
sVdependencies
p202
(lp203
(lp204
Vroot
p205
aVROOT
p206
aVgot
p207
aa(lp208
Vdet
p209
aVquestions
p210
aVthe
p211
aa(lp212
Vnum
p213
aVquestions
p214
aV40
p215
aa(lp216
Vprep_of
p217
aVgot
p218
aVquestions
p219
aa(lp220
Vnsubj
p221
aVgot
p222
aVLia
p223
aa(lp224
Vnum
p225
aVtimes
p226
aV0.1
p227
aa(lp228
Vtmod
p229
aVgot
p230
aVtimes
p231
aa(lp232
Vadvmod
p233
aVtimes
p234
aVright
p235
aasVwords
p236
(lp237
(lp238
VOf
p239
a(dp240
VNamedEntityTag
p241
g52
sVCharacterOffsetEnd
p242
V62
p243
sVCharacterOffsetBegin
p244
V60
p245
sVPartOfSpeech
p246
VIN
p247
sVLemma
p248
Vof
p249
saa(lp250
Vthe
p251
a(dp252
VNamedEntityTag
p253
g52
sVCharacterOffsetEnd
p254
V66
p255
sVCharacterOffsetBegin
p256
V63
p257
sVPartOfSpeech
p258
VDT
p259
sVLemma
p260
Vthe
p261
saa(lp262
V40
p263
a(dp264
VNormalizedNamedEntityTag
p265
V40.0
p266
sVLemma
p267
V40
p268
sVCharacterOffsetEnd
p269
V69
p270
sVPartOfSpeech
p271
VCD
p272
sVCharacterOffsetBegin
p273
V67
p274
sVNamedEntityTag
p275
VNUMBER
p276
saa(lp277
Vquestions
p278
a(dp279
VNamedEntityTag
p280
g52
sVCharacterOffsetEnd
p281
V79
p282
sVCharacterOffsetBegin
p283
V70
p284
sVPartOfSpeech
p285
VNNS
p286
sVLemma
p287
Vquestion
p288
saa(lp289
g89
a(dp290
VNamedEntityTag
p291
g52
sVCharacterOffsetEnd
p292
V81
p293
sVCharacterOffsetBegin
p294
V80
p295
sVPartOfSpeech
p296
g89
sVLemma
p297
g89
saa(lp298
VLia
p299
a(dp300
VNamedEntityTag
p301
VPERSON
p302
sVCharacterOffsetEnd
p303
V85
p304
sVCharacterOffsetBegin
p305
V82
p306
sVPartOfSpeech
p307
VNNP
p308
sVLemma
p309
VLia
p310
saa(lp311
Vgot
p312
a(dp313
VNamedEntityTag
p314
g52
sVCharacterOffsetEnd
p315
V89
p316
sVCharacterOffsetBegin
p317
V86
p318
sVPartOfSpeech
p319
VVBD
p320
sVLemma
p321
Vget
p322
saa(lp323
V0.1
p324
a(dp325
VNormalizedNamedEntityTag
p326
V0.1
p327
sVLemma
p328
V0.1
p329
sVCharacterOffsetEnd
p330
V93
p331
sVPartOfSpeech
p332
VCD
p333
sVCharacterOffsetBegin
p334
V90
p335
sVNamedEntityTag
p336
VNUMBER
p337
saa(lp338
Vtimes
p339
a(dp340
VNamedEntityTag
p341
g52
sVCharacterOffsetEnd
p342
V99
p343
sVCharacterOffsetBegin
p344
V94
p345
sVPartOfSpeech
p346
VNNS
p347
sVLemma
p348
Vtime
p349
saa(lp350
Vright
p351
a(dp352
VNamedEntityTag
p353
g52
sVCharacterOffsetEnd
p354
V105
p355
sVCharacterOffsetBegin
p356
V100
p357
sVPartOfSpeech
p358
VRB
p359
sVLemma
p360
Vright
p361
saa(lp362
g158
a(dp363
VNamedEntityTag
p364
g52
sVCharacterOffsetEnd
p365
V107
p366
sVCharacterOffsetBegin
p367
V106
p368
sVPartOfSpeech
p369
g158
sVLemma
p370
g158
saasVindexeddependencies
p371
(lp372
(lp373
Vroot
p374
aVROOT-0
p375
aVgot-7
p376
aa(lp377
Vdet
p378
aVquestions-4
p379
aVthe-2
p380
aa(lp381
Vnum
p382
aVquestions-4
p383
aV40-3
p384
aa(lp385
Vprep_of
p386
aVgot-7
p387
aVquestions-4
p388
aa(lp389
Vnsubj
p390
aVgot-7
p391
aVLia-6
p392
aa(lp393
Vnum
p394
aVtimes-9
p395
aV0.1-8
p396
aa(lp397
Vtmod
p398
aVgot-7
p399
aVtimes-9
p400
aa(lp401
Vadvmod
p402
aVtimes-9
p403
aVright-10
p404
aasa(dp405
Vparsetree
p406
V(ROOT (SBARQ (WHNP (WHADJP (WRB How) (JJ many)) (NNS questions)) (SQ (VBD did) (NP (NNP Lia)) (VP (VB get) (ADVP (RB right)))) (. ?)))
p407
sVtext
p408
VHow many questions did Lia get right ?
p409
sVdependencies
p410
(lp411
(lp412
Vroot
p413
aVROOT
p414
aVget
p415
aa(lp416
Vadvmod
p417
aVmany
p418
aVHow
p419
aa(lp420
Vamod
p421
aVquestions
p422
aVmany
p423
aa(lp424
Vdobj
p425
aVget
p426
aVquestions
p427
aa(lp428
Vaux
p429
aVget
p430
aVdid
p431
aa(lp432
Vnsubj
p433
aVget
p434
aVLia
p435
aa(lp436
Vadvmod
p437
aVget
p438
aVright
p439
aasVwords
p440
(lp441
(lp442
VHow
p443
a(dp444
VNamedEntityTag
p445
g52
sVCharacterOffsetEnd
p446
V111
p447
sVCharacterOffsetBegin
p448
V108
p449
sVPartOfSpeech
p450
VWRB
p451
sVLemma
p452
Vhow
p453
saa(lp454
Vmany
p455
a(dp456
VNamedEntityTag
p457
g52
sVCharacterOffsetEnd
p458
V116
p459
sVCharacterOffsetBegin
p460
V112
p461
sVPartOfSpeech
p462
VJJ
p463
sVLemma
p464
Vmany
p465
saa(lp466
Vquestions
p467
a(dp468
VNamedEntityTag
p469
g52
sVCharacterOffsetEnd
p470
V126
p471
sVCharacterOffsetBegin
p472
V117
p473
sVPartOfSpeech
p474
VNNS
p475
sVLemma
p476
Vquestion
p477
saa(lp478
Vdid
p479
a(dp480
VNamedEntityTag
p481
g52
sVCharacterOffsetEnd
p482
V130
p483
sVCharacterOffsetBegin
p484
V127
p485
sVPartOfSpeech
p486
VVBD
p487
sVLemma
p488
Vdo
p489
saa(lp490
VLia
p491
a(dp492
VNamedEntityTag
p493
VPERSON
p494
sVCharacterOffsetEnd
p495
V134
p496
sVCharacterOffsetBegin
p497
V131
p498
sVPartOfSpeech
p499
VNNP
p500
sVLemma
p501
VLia
p502
saa(lp503
Vget
p504
a(dp505
VNamedEntityTag
p506
g52
sVCharacterOffsetEnd
p507
V138
p508
sVCharacterOffsetBegin
p509
V135
p510
sVPartOfSpeech
p511
VVB
p512
sVLemma
p513
Vget
p514
saa(lp515
Vright
p516
a(dp517
VNamedEntityTag
p518
g52
sVCharacterOffsetEnd
p519
V144
p520
sVCharacterOffsetBegin
p521
V139
p522
sVPartOfSpeech
p523
VRB
p524
sVLemma
p525
Vright
p526
saa(lp527
V?
p528
a(dp529
VNamedEntityTag
p530
g52
sVCharacterOffsetEnd
p531
V146
p532
sVCharacterOffsetBegin
p533
V145
p534
sVPartOfSpeech
p535
g158
sVLemma
p536
g528
saasVindexeddependencies
p537
(lp538
(lp539
Vroot
p540
aVROOT-0
p541
aVget-6
p542
aa(lp543
Vadvmod
p544
aVmany-2
p545
aVHow-1
p546
aa(lp547
Vamod
p548
aVquestions-3
p549
aVmany-2
p550
aa(lp551
Vdobj
p552
aVget-6
p553
aVquestions-3
p554
aa(lp555
Vaux
p556
aVget-6
p557
aVdid-4
p558
aa(lp559
Vnsubj
p560
aVget-6
p561
aVLia-5
p562
aa(lp563
Vadvmod
p564
aVget-6
p565
aVright-7
p566
aasas.