(dp0
Vcoref
p1
(lp2
(lp3
(lp4
(lp5
Vthe game
p6
aI1
aI6
aI5
aI7
aa(lp7
Va video game
p8
aI0
aI5
aI3
aI6
aaaa(lp9
(lp10
(lp11
Vshe
p12
aI2
aI1
aI1
aI2
aa(lp13
Vshe
p14
aI1
aI7
aI7
aI8
aaa(lp15
(lp16
Vshe
p17
aI2
aI15
aI15
aI16
aa(lp18
Vshe
p19
aI1
aI7
aI7
aI8
aaaasVsentences
p20
(lp21
(dp22
Vparsetree
p23
V(ROOT (S (NP (NN Wendy)) (VP (VP (VBD was) (VP (VBG playing) (NP (DT a) (NN video) (NN game)))) (CC and) (VP (VBD had) (NP (CD 43) (NNS lives)))) (. .)))
p24
sVtext
p25
VWendy was playing a video game and had 43 lives .
p26
sVdependencies
p27
(lp28
(lp29
Vroot
p30
aVROOT
p31
aVplaying
p32
aa(lp33
Vnsubj
p34
aVplaying
p35
aVWendy
p36
aa(lp37
Vaux
p38
aVplaying
p39
aVwas
p40
aa(lp41
Vdet
p42
aVgame
p43
aVa
p44
aa(lp45
Vnn
p46
aVgame
p47
aVvideo
p48
aa(lp49
Vdobj
p50
aVplaying
p51
aVgame
p52
aa(lp53
Vconj_and
p54
aVplaying
p55
aVhad
p56
aa(lp57
Vnum
p58
aVlives
p59
aV43
p60
aa(lp61
Vdobj
p62
aVhad
p63
aVlives
p64
aasVwords
p65
(lp66
(lp67
VWendy
p68
a(dp69
VNamedEntityTag
p70
VPERSON
p71
sVCharacterOffsetEnd
p72
V6
p73
sVCharacterOffsetBegin
p74
V1
p75
sVPartOfSpeech
p76
VNN
p77
sVLemma
p78
Vwendy
p79
saa(lp80
Vwas
p81
a(dp82
VNamedEntityTag
p83
VO
p84
sVCharacterOffsetEnd
p85
V10
p86
sVCharacterOffsetBegin
p87
V7
p88
sVPartOfSpeech
p89
VVBD
p90
sVLemma
p91
Vbe
p92
saa(lp93
Vplaying
p94
a(dp95
VNamedEntityTag
p96
g84
sVCharacterOffsetEnd
p97
V18
p98
sVCharacterOffsetBegin
p99
V11
p100
sVPartOfSpeech
p101
VVBG
p102
sVLemma
p103
Vplay
p104
saa(lp105
g44
a(dp106
VNamedEntityTag
p107
g84
sVCharacterOffsetEnd
p108
V20
p109
sVCharacterOffsetBegin
p110
V19
p111
sVPartOfSpeech
p112
VDT
p113
sVLemma
p114
g44
saa(lp115
Vvideo
p116
a(dp117
VNamedEntityTag
p118
g84
sVCharacterOffsetEnd
p119
V26
p120
sVCharacterOffsetBegin
p121
V21
p122
sVPartOfSpeech
p123
VNN
p124
sVLemma
p125
Vvideo
p126
saa(lp127
Vgame
p128
a(dp129
VNamedEntityTag
p130
g84
sVCharacterOffsetEnd
p131
V31
p132
sVCharacterOffsetBegin
p133
V27
p134
sVPartOfSpeech
p135
VNN
p136
sVLemma
p137
Vgame
p138
saa(lp139
Vand
p140
a(dp141
VNamedEntityTag
p142
g84
sVCharacterOffsetEnd
p143
V35
p144
sVCharacterOffsetBegin
p145
V32
p146
sVPartOfSpeech
p147
VCC
p148
sVLemma
p149
Vand
p150
saa(lp151
Vhad
p152
a(dp153
VNamedEntityTag
p154
g84
sVCharacterOffsetEnd
p155
V39
p156
sVCharacterOffsetBegin
p157
V36
p158
sVPartOfSpeech
p159
VVBD
p160
sVLemma
p161
Vhave
p162
saa(lp163
V43
p164
a(dp165
VNormalizedNamedEntityTag
p166
V43.0
p167
sVLemma
p168
V43
p169
sVCharacterOffsetEnd
p170
V42
p171
sVPartOfSpeech
p172
VCD
p173
sVCharacterOffsetBegin
p174
V40
p175
sVNamedEntityTag
p176
VNUMBER
p177
saa(lp178
Vlives
p179
a(dp180
VNamedEntityTag
p181
g84
sVCharacterOffsetEnd
p182
V48
p183
sVCharacterOffsetBegin
p184
V43
p185
sVPartOfSpeech
p186
VNNS
p187
sVLemma
p188
Vlife
p189
saa(lp190
V.
p191
a(dp192
VNamedEntityTag
p193
g84
sVCharacterOffsetEnd
p194
V50
p195
sVCharacterOffsetBegin
p196
V49
p197
sVPartOfSpeech
p198
g191
sVLemma
p199
g191
saasVindexeddependencies
p200
(lp201
(lp202
Vroot
p203
aVROOT-0
p204
aVplaying-3
p205
aa(lp206
Vnsubj
p207
aVplaying-3
p208
aVWendy-1
p209
aa(lp210
Vaux
p211
aVplaying-3
p212
aVwas-2
p213
aa(lp214
Vdet
p215
aVgame-6
p216
aVa-4
p217
aa(lp218
Vnn
p219
aVgame-6
p220
aVvideo-5
p221
aa(lp222
Vdobj
p223
aVplaying-3
p224
aVgame-6
p225
aa(lp226
Vconj_and
p227
aVplaying-3
p228
aVhad-8
p229
aa(lp230
Vnum
p231
aVlives-10
p232
aV43-9
p233
aa(lp234
Vdobj
p235
aVhad-8
p236
aVlives-10
p237
aasa(dp238
Vparsetree
p239
V(ROOT (S (PP (IN In) (NP (NP (DT a) (JJ hard) (NN part)) (PP (IN of) (NP (DT the) (NN game))))) (NP (PRP she)) (VP (VBD lost) (NP (CD 8) (NNS lives))) (. .)))
p240
sVtext
p241
VIn a hard part of the game she lost 8 lives .
p242
sVdependencies
p243
(lp244
(lp245
Vroot
p246
aVROOT
p247
aVlost
p248
aa(lp249
Vdet
p250
aVpart
p251
ag44
aa(lp252
Vamod
p253
aVpart
p254
aVhard
p255
aa(lp256
Vprep_in
p257
aVlost
p258
aVpart
p259
aa(lp260
Vdet
p261
aVgame
p262
aVthe
p263
aa(lp264
Vprep_of
p265
aVpart
p266
aVgame
p267
aa(lp268
Vnsubj
p269
aVlost
p270
aVshe
p271
aa(lp272
Vnum
p273
aVlives
p274
aV8
p275
aa(lp276
Vdobj
p277
aVlost
p278
aVlives
p279
aasVwords
p280
(lp281
(lp282
VIn
p283
a(dp284
VNamedEntityTag
p285
g84
sVCharacterOffsetEnd
p286
V53
p287
sVCharacterOffsetBegin
p288
V51
p289
sVPartOfSpeech
p290
VIN
p291
sVLemma
p292
Vin
p293
saa(lp294
g44
a(dp295
VNamedEntityTag
p296
g84
sVCharacterOffsetEnd
p297
V55
p298
sVCharacterOffsetBegin
p299
V54
p300
sVPartOfSpeech
p301
VDT
p302
sVLemma
p303
g44
saa(lp304
Vhard
p305
a(dp306
VNamedEntityTag
p307
g84
sVCharacterOffsetEnd
p308
V60
p309
sVCharacterOffsetBegin
p310
V56
p311
sVPartOfSpeech
p312
VJJ
p313
sVLemma
p314
Vhard
p315
saa(lp316
Vpart
p317
a(dp318
VNamedEntityTag
p319
g84
sVCharacterOffsetEnd
p320
V65
p321
sVCharacterOffsetBegin
p322
V61
p323
sVPartOfSpeech
p324
VNN
p325
sVLemma
p326
Vpart
p327
saa(lp328
Vof
p329
a(dp330
VNamedEntityTag
p331
g84
sVCharacterOffsetEnd
p332
V68
p333
sVCharacterOffsetBegin
p334
V66
p335
sVPartOfSpeech
p336
VIN
p337
sVLemma
p338
Vof
p339
saa(lp340
Vthe
p341
a(dp342
VNamedEntityTag
p343
g84
sVCharacterOffsetEnd
p344
V72
p345
sVCharacterOffsetBegin
p346
V69
p347
sVPartOfSpeech
p348
VDT
p349
sVLemma
p350
Vthe
p351
saa(lp352
Vgame
p353
a(dp354
VNamedEntityTag
p355
g84
sVCharacterOffsetEnd
p356
V77
p357
sVCharacterOffsetBegin
p358
V73
p359
sVPartOfSpeech
p360
VNN
p361
sVLemma
p362
Vgame
p363
saa(lp364
Vshe
p365
a(dp366
VNamedEntityTag
p367
g84
sVCharacterOffsetEnd
p368
V81
p369
sVCharacterOffsetBegin
p370
V78
p371
sVPartOfSpeech
p372
VPRP
p373
sVLemma
p374
Vshe
p375
saa(lp376
Vlost
p377
a(dp378
VNamedEntityTag
p379
g84
sVCharacterOffsetEnd
p380
V86
p381
sVCharacterOffsetBegin
p382
V82
p383
sVPartOfSpeech
p384
VVBD
p385
sVLemma
p386
Vlose
p387
saa(lp388
g275
a(dp389
VNormalizedNamedEntityTag
p390
V8.0
p391
sVLemma
p392
g275
sVCharacterOffsetEnd
p393
V88
p394
sVPartOfSpeech
p395
VCD
p396
sVCharacterOffsetBegin
p397
V87
p398
sVNamedEntityTag
p399
VNUMBER
p400
saa(lp401
Vlives
p402
a(dp403
VNamedEntityTag
p404
g84
sVCharacterOffsetEnd
p405
V94
p406
sVCharacterOffsetBegin
p407
V89
p408
sVPartOfSpeech
p409
VNNS
p410
sVLemma
p411
Vlife
p412
saa(lp413
g191
a(dp414
VNamedEntityTag
p415
g84
sVCharacterOffsetEnd
p416
V96
p417
sVCharacterOffsetBegin
p418
V95
p419
sVPartOfSpeech
p420
g191
sVLemma
p421
g191
saasVindexeddependencies
p422
(lp423
(lp424
Vroot
p425
aVROOT-0
p426
aVlost-9
p427
aa(lp428
Vdet
p429
aVpart-4
p430
aVa-2
p431
aa(lp432
Vamod
p433
aVpart-4
p434
aVhard-3
p435
aa(lp436
Vprep_in
p437
aVlost-9
p438
aVpart-4
p439
aa(lp440
Vdet
p441
aVgame-7
p442
aVthe-6
p443
aa(lp444
Vprep_of
p445
aVpart-4
p446
aVgame-7
p447
aa(lp448
Vnsubj
p449
aVlost-9
p450
aVshe-8
p451
aa(lp452
Vnum
p453
aVlives-11
p454
aV8-10
p455
aa(lp456
Vdobj
p457
aVlost-9
p458
aVlives-11
p459
aasa(dp460
Vparsetree
p461
V(ROOT (SBARQ (SBAR (IN If) (S (NP (PRP she)) (VP (VBD got) (NP (CD 39) (JJR more) (NNS lives)) (PP (IN in) (NP (DT the) (JJ next) (NN level)))))) (, ,) (WHNP (WHADJP (WRB how) (JJ many)) (NNS lives)) (SQ (MD would) (NP (PRP she)) (VP (VB have))) (. ?)))
p462
sVtext
p463
VIf she got 39 more lives in the next level , how many lives would she have ?
p464
sVdependencies
p465
(lp466
(lp467
Vroot
p468
aVROOT
p469
aVhave
p470
aa(lp471
Vmark
p472
aVgot
p473
aVIf
p474
aa(lp475
Vnsubj
p476
aVgot
p477
aVshe
p478
aa(lp479
Vadvcl
p480
aVhave
p481
aVgot
p482
aa(lp483
Vnum
p484
aVlives
p485
aV39
p486
aa(lp487
Vamod
p488
aVlives
p489
aVmore
p490
aa(lp491
Vdobj
p492
aVgot
p493
aVlives
p494
aa(lp495
Vdet
p496
aVlevel
p497
aVthe
p498
aa(lp499
Vamod
p500
aVlevel
p501
aVnext
p502
aa(lp503
Vprep_in
p504
aVgot
p505
aVlevel
p506
aa(lp507
Vadvmod
p508
aVmany
p509
aVhow
p510
aa(lp511
Vamod
p512
aVlives
p513
aVmany
p514
aa(lp515
Vdobj
p516
aVhave
p517
aVlives
p518
aa(lp519
Vaux
p520
aVhave
p521
aVwould
p522
aa(lp523
Vnsubj
p524
aVhave
p525
aVshe
p526
aasVwords
p527
(lp528
(lp529
VIf
p530
a(dp531
VNamedEntityTag
p532
g84
sVCharacterOffsetEnd
p533
V99
p534
sVCharacterOffsetBegin
p535
V97
p536
sVPartOfSpeech
p537
VIN
p538
sVLemma
p539
Vif
p540
saa(lp541
Vshe
p542
a(dp543
VNamedEntityTag
p544
g84
sVCharacterOffsetEnd
p545
V103
p546
sVCharacterOffsetBegin
p547
V100
p548
sVPartOfSpeech
p549
VPRP
p550
sVLemma
p551
Vshe
p552
saa(lp553
Vgot
p554
a(dp555
VNamedEntityTag
p556
g84
sVCharacterOffsetEnd
p557
V107
p558
sVCharacterOffsetBegin
p559
V104
p560
sVPartOfSpeech
p561
VVBD
p562
sVLemma
p563
Vget
p564
saa(lp565
V39
p566
a(dp567
VNormalizedNamedEntityTag
p568
V39.0
p569
sVLemma
p570
V39
p571
sVCharacterOffsetEnd
p572
V110
p573
sVPartOfSpeech
p574
VCD
p575
sVCharacterOffsetBegin
p576
V108
p577
sVNamedEntityTag
p578
VNUMBER
p579
saa(lp580
Vmore
p581
a(dp582
VNamedEntityTag
p583
g84
sVCharacterOffsetEnd
p584
V115
p585
sVCharacterOffsetBegin
p586
V111
p587
sVPartOfSpeech
p588
VJJR
p589
sVLemma
p590
Vmore
p591
saa(lp592
Vlives
p593
a(dp594
VNamedEntityTag
p595
g84
sVCharacterOffsetEnd
p596
V121
p597
sVCharacterOffsetBegin
p598
V116
p599
sVPartOfSpeech
p600
VNNS
p601
sVLemma
p602
Vlife
p603
saa(lp604
Vin
p605
a(dp606
VNamedEntityTag
p607
g84
sVCharacterOffsetEnd
p608
V124
p609
sVCharacterOffsetBegin
p610
V122
p611
sVPartOfSpeech
p612
VIN
p613
sVLemma
p614
Vin
p615
saa(lp616
Vthe
p617
a(dp618
VNamedEntityTag
p619
g84
sVCharacterOffsetEnd
p620
V128
p621
sVCharacterOffsetBegin
p622
V125
p623
sVPartOfSpeech
p624
VDT
p625
sVLemma
p626
Vthe
p627
saa(lp628
Vnext
p629
a(dp630
VNamedEntityTag
p631
g84
sVCharacterOffsetEnd
p632
V133
p633
sVCharacterOffsetBegin
p634
V129
p635
sVPartOfSpeech
p636
VJJ
p637
sVLemma
p638
Vnext
p639
saa(lp640
Vlevel
p641
a(dp642
VNamedEntityTag
p643
g84
sVCharacterOffsetEnd
p644
V139
p645
sVCharacterOffsetBegin
p646
V134
p647
sVPartOfSpeech
p648
VNN
p649
sVLemma
p650
Vlevel
p651
saa(lp652
V,
p653
a(dp654
VNamedEntityTag
p655
g84
sVCharacterOffsetEnd
p656
V141
p657
sVCharacterOffsetBegin
p658
V140
p659
sVPartOfSpeech
p660
g653
sVLemma
p661
g653
saa(lp662
Vhow
p663
a(dp664
VNamedEntityTag
p665
g84
sVCharacterOffsetEnd
p666
V145
p667
sVCharacterOffsetBegin
p668
V142
p669
sVPartOfSpeech
p670
VWRB
p671
sVLemma
p672
Vhow
p673
saa(lp674
Vmany
p675
a(dp676
VNamedEntityTag
p677
g84
sVCharacterOffsetEnd
p678
V150
p679
sVCharacterOffsetBegin
p680
V146
p681
sVPartOfSpeech
p682
VJJ
p683
sVLemma
p684
Vmany
p685
saa(lp686
Vlives
p687
a(dp688
VNamedEntityTag
p689
g84
sVCharacterOffsetEnd
p690
V156
p691
sVCharacterOffsetBegin
p692
V151
p693
sVPartOfSpeech
p694
VNNS
p695
sVLemma
p696
Vlife
p697
saa(lp698
Vwould
p699
a(dp700
VNamedEntityTag
p701
g84
sVCharacterOffsetEnd
p702
V162
p703
sVCharacterOffsetBegin
p704
V157
p705
sVPartOfSpeech
p706
VMD
p707
sVLemma
p708
Vwould
p709
saa(lp710
Vshe
p711
a(dp712
VNamedEntityTag
p713
g84
sVCharacterOffsetEnd
p714
V166
p715
sVCharacterOffsetBegin
p716
V163
p717
sVPartOfSpeech
p718
VPRP
p719
sVLemma
p720
Vshe
p721
saa(lp722
Vhave
p723
a(dp724
VNamedEntityTag
p725
g84
sVCharacterOffsetEnd
p726
V171
p727
sVCharacterOffsetBegin
p728
V167
p729
sVPartOfSpeech
p730
VVB
p731
sVLemma
p732
Vhave
p733
saa(lp734
V?
p735
a(dp736
VNamedEntityTag
p737
g84
sVCharacterOffsetEnd
p738
V173
p739
sVCharacterOffsetBegin
p740
V172
p741
sVPartOfSpeech
p742
g191
sVLemma
p743
g735
saasVindexeddependencies
p744
(lp745
(lp746
Vroot
p747
aVROOT-0
p748
aVhave-17
p749
aa(lp750
Vmark
p751
aVgot-3
p752
aVIf-1
p753
aa(lp754
Vnsubj
p755
aVgot-3
p756
aVshe-2
p757
aa(lp758
Vadvcl
p759
aVhave-17
p760
aVgot-3
p761
aa(lp762
Vnum
p763
aVlives-6
p764
aV39-4
p765
aa(lp766
Vamod
p767
aVlives-6
p768
aVmore-5
p769
aa(lp770
Vdobj
p771
aVgot-3
p772
aVlives-6
p773
aa(lp774
Vdet
p775
aVlevel-10
p776
aVthe-8
p777
aa(lp778
Vamod
p779
aVlevel-10
p780
aVnext-9
p781
aa(lp782
Vprep_in
p783
aVgot-3
p784
aVlevel-10
p785
aa(lp786
Vadvmod
p787
aVmany-13
p788
aVhow-12
p789
aa(lp790
Vamod
p791
aVlives-14
p792
aVmany-13
p793
aa(lp794
Vdobj
p795
aVhave-17
p796
aVlives-14
p797
aa(lp798
Vaux
p799
aVhave-17
p800
aVwould-15
p801
aa(lp802
Vnsubj
p803
aVhave-17
p804
aVshe-16
p805
aasas.