(dp0
Vcoref
p1
(lp2
(lp3
(lp4
(lp5
Vthe class
p6
aI1
aI8
aI7
aI9
aa(lp7
VVince 's class
p8
aI0
aI2
aI0
aI3
aaaasVsentences
p9
(lp10
(dp11
Vparsetree
p12
V(ROOT (S (NP (NP (NNP Vince) (POS 's)) (NN class)) (ADVP (RB just)) (VP (VBD held) (NP (DT a) (NN class) (NN election))) (. .)))
p13
sVtext
p14
VVince's class just held a class election .
p15
sVdependencies
p16
(lp17
(lp18
Vroot
p19
aVROOT
p20
aVheld
p21
aa(lp22
Vposs
p23
aVclass
p24
aVVince
p25
aa(lp26
Vnsubj
p27
aVheld
p28
aVclass
p29
aa(lp30
Vadvmod
p31
aVheld
p32
aVjust
p33
aa(lp34
Vdet
p35
aVelection
p36
aVa
p37
aa(lp38
Vnn
p39
aVelection
p40
aVclass
p41
aa(lp42
Vdobj
p43
aVheld
p44
aVelection
p45
aasVwords
p46
(lp47
(lp48
VVince
p49
a(dp50
VNamedEntityTag
p51
VPERSON
p52
sVCharacterOffsetEnd
p53
V6
p54
sVCharacterOffsetBegin
p55
V1
p56
sVPartOfSpeech
p57
VNNP
p58
sVLemma
p59
VVince
p60
saa(lp61
V's
p62
a(dp63
VNamedEntityTag
p64
VO
p65
sVCharacterOffsetEnd
p66
V8
p67
sVCharacterOffsetBegin
p68
g54
sVPartOfSpeech
p69
VPOS
p70
sVLemma
p71
V's
p72
saa(lp73
Vclass
p74
a(dp75
VNamedEntityTag
p76
g65
sVCharacterOffsetEnd
p77
V14
p78
sVCharacterOffsetBegin
p79
V9
p80
sVPartOfSpeech
p81
VNN
p82
sVLemma
p83
Vclass
p84
saa(lp85
Vjust
p86
a(dp87
VNamedEntityTag
p88
g65
sVCharacterOffsetEnd
p89
V19
p90
sVCharacterOffsetBegin
p91
V15
p92
sVPartOfSpeech
p93
VRB
p94
sVLemma
p95
Vjust
p96
saa(lp97
Vheld
p98
a(dp99
VNamedEntityTag
p100
g65
sVCharacterOffsetEnd
p101
V24
p102
sVCharacterOffsetBegin
p103
V20
p104
sVPartOfSpeech
p105
VVBD
p106
sVLemma
p107
Vhold
p108
saa(lp109
g37
a(dp110
VNamedEntityTag
p111
g65
sVCharacterOffsetEnd
p112
V26
p113
sVCharacterOffsetBegin
p114
V25
p115
sVPartOfSpeech
p116
VDT
p117
sVLemma
p118
g37
saa(lp119
Vclass
p120
a(dp121
VNamedEntityTag
p122
g65
sVCharacterOffsetEnd
p123
V32
p124
sVCharacterOffsetBegin
p125
V27
p126
sVPartOfSpeech
p127
VNN
p128
sVLemma
p129
Vclass
p130
saa(lp131
Velection
p132
a(dp133
VNamedEntityTag
p134
g65
sVCharacterOffsetEnd
p135
V41
p136
sVCharacterOffsetBegin
p137
V33
p138
sVPartOfSpeech
p139
VNN
p140
sVLemma
p141
Velection
p142
saa(lp143
V.
p144
a(dp145
VNamedEntityTag
p146
g65
sVCharacterOffsetEnd
p147
V43
p148
sVCharacterOffsetBegin
p149
V42
p150
sVPartOfSpeech
p151
g144
sVLemma
p152
g144
saasVindexeddependencies
p153
(lp154
(lp155
Vroot
p156
aVROOT-0
p157
aVheld-5
p158
aa(lp159
Vposs
p160
aVclass-3
p161
aVVince-1
p162
aa(lp163
Vnsubj
p164
aVheld-5
p165
aVclass-3
p166
aa(lp167
Vadvmod
p168
aVheld-5
p169
aVjust-4
p170
aa(lp171
Vdet
p172
aVelection-8
p173
aVa-6
p174
aa(lp175
Vnn
p176
aVelection-8
p177
aVclass-7
p178
aa(lp179
Vdobj
p180
aVheld-5
p181
aVelection-8
p182
aasa(dp183
Vparsetree
p184
V(ROOT (S (NP (NP (CD 0.5) (NNS times)) (PP (IN of) (NP (NP (DT the) (CD 18) (NNS students)) (PP (IN in) (NP (DT the) (NN class)))))) (VP (VBD voted)) (. .)))
p185
sVtext
p186
V0.5 times of the 18 students in the class voted .
p187
sVdependencies
p188
(lp189
(lp190
Vroot
p191
aVROOT
p192
aVvoted
p193
aa(lp194
Vnum
p195
aVtimes
p196
aV0.5
p197
aa(lp198
Vnsubj
p199
aVvoted
p200
aVtimes
p201
aa(lp202
Vdet
p203
aVstudents
p204
aVthe
p205
aa(lp206
Vnum
p207
aVstudents
p208
aV18
p209
aa(lp210
Vprep_of
p211
aVtimes
p212
aVstudents
p213
aa(lp214
Vdet
p215
aVclass
p216
aVthe
p217
aa(lp218
Vprep_in
p219
aVstudents
p220
aVclass
p221
aasVwords
p222
(lp223
(lp224
V0.5
p225
a(dp226
VNormalizedNamedEntityTag
p227
V0.5
p228
sVLemma
p229
V0.5
p230
sVCharacterOffsetEnd
p231
V47
p232
sVPartOfSpeech
p233
VCD
p234
sVCharacterOffsetBegin
p235
V44
p236
sVNamedEntityTag
p237
VNUMBER
p238
saa(lp239
Vtimes
p240
a(dp241
VNamedEntityTag
p242
g65
sVCharacterOffsetEnd
p243
V53
p244
sVCharacterOffsetBegin
p245
V48
p246
sVPartOfSpeech
p247
VNNS
p248
sVLemma
p249
Vtime
p250
saa(lp251
Vof
p252
a(dp253
VNamedEntityTag
p254
g65
sVCharacterOffsetEnd
p255
V56
p256
sVCharacterOffsetBegin
p257
V54
p258
sVPartOfSpeech
p259
VIN
p260
sVLemma
p261
Vof
p262
saa(lp263
Vthe
p264
a(dp265
VNamedEntityTag
p266
g65
sVCharacterOffsetEnd
p267
V60
p268
sVCharacterOffsetBegin
p269
V57
p270
sVPartOfSpeech
p271
VDT
p272
sVLemma
p273
Vthe
p274
saa(lp275
V18
p276
a(dp277
VNormalizedNamedEntityTag
p278
V18.0
p279
sVLemma
p280
V18
p281
sVCharacterOffsetEnd
p282
V63
p283
sVPartOfSpeech
p284
VCD
p285
sVCharacterOffsetBegin
p286
V61
p287
sVNamedEntityTag
p288
VNUMBER
p289
saa(lp290
Vstudents
p291
a(dp292
VNamedEntityTag
p293
g65
sVCharacterOffsetEnd
p294
V72
p295
sVCharacterOffsetBegin
p296
V64
p297
sVPartOfSpeech
p298
VNNS
p299
sVLemma
p300
Vstudent
p301
saa(lp302
Vin
p303
a(dp304
VNamedEntityTag
p305
g65
sVCharacterOffsetEnd
p306
V75
p307
sVCharacterOffsetBegin
p308
V73
p309
sVPartOfSpeech
p310
VIN
p311
sVLemma
p312
Vin
p313
saa(lp314
Vthe
p315
a(dp316
VNamedEntityTag
p317
g65
sVCharacterOffsetEnd
p318
V79
p319
sVCharacterOffsetBegin
p320
V76
p321
sVPartOfSpeech
p322
VDT
p323
sVLemma
p324
Vthe
p325
saa(lp326
Vclass
p327
a(dp328
VNamedEntityTag
p329
g65
sVCharacterOffsetEnd
p330
V85
p331
sVCharacterOffsetBegin
p332
V80
p333
sVPartOfSpeech
p334
VNN
p335
sVLemma
p336
Vclass
p337
saa(lp338
Vvoted
p339
a(dp340
VNamedEntityTag
p341
g65
sVCharacterOffsetEnd
p342
V91
p343
sVCharacterOffsetBegin
p344
V86
p345
sVPartOfSpeech
p346
VVBD
p347
sVLemma
p348
Vvote
p349
saa(lp350
g144
a(dp351
VNamedEntityTag
p352
g65
sVCharacterOffsetEnd
p353
V93
p354
sVCharacterOffsetBegin
p355
V92
p356
sVPartOfSpeech
p357
g144
sVLemma
p358
g144
saasVindexeddependencies
p359
(lp360
(lp361
Vroot
p362
aVROOT-0
p363
aVvoted-10
p364
aa(lp365
Vnum
p366
aVtimes-2
p367
aV0.5-1
p368
aa(lp369
Vnsubj
p370
aVvoted-10
p371
aVtimes-2
p372
aa(lp373
Vdet
p374
aVstudents-6
p375
aVthe-4
p376
aa(lp377
Vnum
p378
aVstudents-6
p379
aV18-5
p380
aa(lp381
Vprep_of
p382
aVtimes-2
p383
aVstudents-6
p384
aa(lp385
Vdet
p386
aVclass-9
p387
aVthe-8
p388
aa(lp389
Vprep_in
p390
aVstudents-6
p391
aVclass-9
p392
aasa(dp393
Vparsetree
p394
V(ROOT (SBARQ (WHNP (WHADJP (WRB How) (JJ many)) (NNS students)) (SQ (VP (VBD voted))) (. ?)))
p395
sVtext
p396
VHow many students voted ?
p397
sVdependencies
p398
(lp399
(lp400
Vroot
p401
aVROOT
p402
aVvoted
p403
aa(lp404
Vadvmod
p405
aVmany
p406
aVHow
p407
aa(lp408
Vamod
p409
aVstudents
p410
aVmany
p411
aa(lp412
Vnsubj
p413
aVvoted
p414
aVstudents
p415
aasVwords
p416
(lp417
(lp418
VHow
p419
a(dp420
VNamedEntityTag
p421
g65
sVCharacterOffsetEnd
p422
V97
p423
sVCharacterOffsetBegin
p424
V94
p425
sVPartOfSpeech
p426
VWRB
p427
sVLemma
p428
Vhow
p429
saa(lp430
Vmany
p431
a(dp432
VNamedEntityTag
p433
g65
sVCharacterOffsetEnd
p434
V102
p435
sVCharacterOffsetBegin
p436
V98
p437
sVPartOfSpeech
p438
VJJ
p439
sVLemma
p440
Vmany
p441
saa(lp442
Vstudents
p443
a(dp444
VNamedEntityTag
p445
g65
sVCharacterOffsetEnd
p446
V111
p447
sVCharacterOffsetBegin
p448
V103
p449
sVPartOfSpeech
p450
VNNS
p451
sVLemma
p452
Vstudent
p453
saa(lp454
Vvoted
p455
a(dp456
VNamedEntityTag
p457
g65
sVCharacterOffsetEnd
p458
V117
p459
sVCharacterOffsetBegin
p460
V112
p461
sVPartOfSpeech
p462
VVBD
p463
sVLemma
p464
Vvote
p465
saa(lp466
V?
p467
a(dp468
VNamedEntityTag
p469
g65
sVCharacterOffsetEnd
p470
V119
p471
sVCharacterOffsetBegin
p472
V118
p473
sVPartOfSpeech
p474
g144
sVLemma
p475
g467
saasVindexeddependencies
p476
(lp477
(lp478
Vroot
p479
aVROOT-0
p480
aVvoted-4
p481
aa(lp482
Vadvmod
p483
aVmany-2
p484
aVHow-1
p485
aa(lp486
Vamod
p487
aVstudents-3
p488
aVmany-2
p489
aa(lp490
Vnsubj
p491
aVvoted-4
p492
aVstudents-3
p493
aasas.