(dp0
Vcoref
p1
(lp2
(lp3
(lp4
(lp5
Vhe
p6
aI1
aI1
aI1
aI2
aa(lp7
VCody
p8
aI0
aI3
aI3
aI4
aaa(lp9
(lp10
Vhe
p11
aI1
aI18
aI18
aI19
aa(lp12
VCody
p13
aI0
aI3
aI3
aI4
aaaasVsentences
p14
(lp15
(dp16
Vparsetree
p17
V(ROOT (S (PP (IN At) (NP (DT the) (NN arcade))) (NP (NNP Cody)) (VP (VBD won) (NP (CD 49) (NNS tickets))) (. .)))
p18
sVtext
p19
VAt the arcade Cody won 49 tickets .
p20
sVdependencies
p21
(lp22
(lp23
Vroot
p24
aVROOT
p25
aVwon
p26
aa(lp27
Vdet
p28
aVarcade
p29
aVthe
p30
aa(lp31
Vprep_at
p32
aVwon
p33
aVarcade
p34
aa(lp35
Vnsubj
p36
aVwon
p37
aVCody
p38
aa(lp39
Vnum
p40
aVtickets
p41
aV49
p42
aa(lp43
Vdobj
p44
aVwon
p45
aVtickets
p46
aasVwords
p47
(lp48
(lp49
VAt
p50
a(dp51
VNamedEntityTag
p52
VO
p53
sVCharacterOffsetEnd
p54
V3
p55
sVCharacterOffsetBegin
p56
V1
p57
sVPartOfSpeech
p58
VIN
p59
sVLemma
p60
Vat
p61
saa(lp62
Vthe
p63
a(dp64
VNamedEntityTag
p65
g53
sVCharacterOffsetEnd
p66
V7
p67
sVCharacterOffsetBegin
p68
V4
p69
sVPartOfSpeech
p70
VDT
p71
sVLemma
p72
Vthe
p73
saa(lp74
Varcade
p75
a(dp76
VNamedEntityTag
p77
g53
sVCharacterOffsetEnd
p78
V14
p79
sVCharacterOffsetBegin
p80
V8
p81
sVPartOfSpeech
p82
VNN
p83
sVLemma
p84
Varcade
p85
saa(lp86
VCody
p87
a(dp88
VNamedEntityTag
p89
VPERSON
p90
sVCharacterOffsetEnd
p91
V19
p92
sVCharacterOffsetBegin
p93
V15
p94
sVPartOfSpeech
p95
VNNP
p96
sVLemma
p97
VCody
p98
saa(lp99
Vwon
p100
a(dp101
VNamedEntityTag
p102
g53
sVCharacterOffsetEnd
p103
V23
p104
sVCharacterOffsetBegin
p105
V20
p106
sVPartOfSpeech
p107
VVBD
p108
sVLemma
p109
Vwin
p110
saa(lp111
V49
p112
a(dp113
VNormalizedNamedEntityTag
p114
V49.0
p115
sVLemma
p116
V49
p117
sVCharacterOffsetEnd
p118
V26
p119
sVPartOfSpeech
p120
VCD
p121
sVCharacterOffsetBegin
p122
V24
p123
sVNamedEntityTag
p124
VNUMBER
p125
saa(lp126
Vtickets
p127
a(dp128
VNamedEntityTag
p129
g53
sVCharacterOffsetEnd
p130
V34
p131
sVCharacterOffsetBegin
p132
V27
p133
sVPartOfSpeech
p134
VNNS
p135
sVLemma
p136
Vticket
p137
saa(lp138
V.
p139
a(dp140
VNamedEntityTag
p141
g53
sVCharacterOffsetEnd
p142
V36
p143
sVCharacterOffsetBegin
p144
V35
p145
sVPartOfSpeech
p146
g139
sVLemma
p147
g139
saasVindexeddependencies
p148
(lp149
(lp150
Vroot
p151
aVROOT-0
p152
aVwon-5
p153
aa(lp154
Vdet
p155
aVarcade-3
p156
aVthe-2
p157
aa(lp158
Vprep_at
p159
aVwon-5
p160
aVarcade-3
p161
aa(lp162
Vnsubj
p163
aVwon-5
p164
aVCody-4
p165
aa(lp166
Vnum
p167
aVtickets-7
p168
aV49-6
p169
aa(lp170
Vdobj
p171
aVwon-5
p172
aVtickets-7
p173
aasa(dp174
Vparsetree
p175
V(ROOT (SBARQ (SBAR (IN If) (S (NP (PRP he)) (VP (VP (VBD spent) (NP (CD 25) (NNS tickets)) (PP (IN on) (NP (DT a) (NN beanie)))) (CC and) (VP (ADVP (RB later)) (VBD won) (NP (QP (CD 6) (JJR more)) (NNS tickets)))))) (, ,) (WHNP (WRB how) (JJ many)) (SQ (MD would) (NP (PRP he)) (VP (VB have))) (. ?)))
p176
sVtext
p177
VIf he spent 25 tickets on a beanie and later won 6 more tickets , how many would he have ?
p178
sVdependencies
p179
(lp180
(lp181
Vroot
p182
aVROOT
p183
aVhave
p184
aa(lp185
Vmark
p186
aVspent
p187
aVIf
p188
aa(lp189
Vnsubj
p190
aVspent
p191
aVhe
p192
aa(lp193
Vadvcl
p194
aVhave
p195
aVspent
p196
aa(lp197
Vnum
p198
aVtickets
p199
aV25
p200
aa(lp201
Vdobj
p202
aVspent
p203
aVtickets
p204
aa(lp205
Vdet
p206
aVbeanie
p207
aVa
p208
aa(lp209
Vprep_on
p210
aVspent
p211
aVbeanie
p212
aa(lp213
Vadvmod
p214
aVwon
p215
aVlater
p216
aa(lp217
Vconj_and
p218
aVspent
p219
aVwon
p220
aa(lp221
Vnum
p222
aVtickets
p223
aV6
p224
aa(lp225
Vquantmod
p226
ag224
aVmore
p227
aa(lp228
Vdobj
p229
aVwon
p230
aVtickets
p231
aa(lp232
Vadvmod
p233
aVmany
p234
aVhow
p235
aa(lp236
Vdep
p237
aVhave
p238
aVmany
p239
aa(lp240
Vaux
p241
aVhave
p242
aVwould
p243
aa(lp244
Vnsubj
p245
aVhave
p246
aVhe
p247
aasVwords
p248
(lp249
(lp250
VIf
p251
a(dp252
VNamedEntityTag
p253
g53
sVCharacterOffsetEnd
p254
V39
p255
sVCharacterOffsetBegin
p256
V37
p257
sVPartOfSpeech
p258
VIN
p259
sVLemma
p260
Vif
p261
saa(lp262
Vhe
p263
a(dp264
VNamedEntityTag
p265
g53
sVCharacterOffsetEnd
p266
V42
p267
sVCharacterOffsetBegin
p268
V40
p269
sVPartOfSpeech
p270
VPRP
p271
sVLemma
p272
Vhe
p273
saa(lp274
Vspent
p275
a(dp276
VNamedEntityTag
p277
g53
sVCharacterOffsetEnd
p278
V48
p279
sVCharacterOffsetBegin
p280
V43
p281
sVPartOfSpeech
p282
VVBD
p283
sVLemma
p284
Vspend
p285
saa(lp286
V25
p287
a(dp288
VNormalizedNamedEntityTag
p289
V25.0
p290
sVLemma
p291
V25
p292
sVCharacterOffsetEnd
p293
V51
p294
sVPartOfSpeech
p295
VCD
p296
sVCharacterOffsetBegin
p297
V49
p298
sVNamedEntityTag
p299
VNUMBER
p300
saa(lp301
Vtickets
p302
a(dp303
VNamedEntityTag
p304
g53
sVCharacterOffsetEnd
p305
V59
p306
sVCharacterOffsetBegin
p307
V52
p308
sVPartOfSpeech
p309
VNNS
p310
sVLemma
p311
Vticket
p312
saa(lp313
Von
p314
a(dp315
VNamedEntityTag
p316
g53
sVCharacterOffsetEnd
p317
V62
p318
sVCharacterOffsetBegin
p319
V60
p320
sVPartOfSpeech
p321
VIN
p322
sVLemma
p323
Von
p324
saa(lp325
g208
a(dp326
VNamedEntityTag
p327
g53
sVCharacterOffsetEnd
p328
V64
p329
sVCharacterOffsetBegin
p330
V63
p331
sVPartOfSpeech
p332
VDT
p333
sVLemma
p334
g208
saa(lp335
Vbeanie
p336
a(dp337
VNamedEntityTag
p338
g53
sVCharacterOffsetEnd
p339
V71
p340
sVCharacterOffsetBegin
p341
V65
p342
sVPartOfSpeech
p343
VNN
p344
sVLemma
p345
Vbeanie
p346
saa(lp347
Vand
p348
a(dp349
VNamedEntityTag
p350
g53
sVCharacterOffsetEnd
p351
V75
p352
sVCharacterOffsetBegin
p353
V72
p354
sVPartOfSpeech
p355
VCC
p356
sVLemma
p357
Vand
p358
saa(lp359
Vlater
p360
a(dp361
VNamedEntityTag
p362
g53
sVCharacterOffsetEnd
p363
V81
p364
sVCharacterOffsetBegin
p365
V76
p366
sVPartOfSpeech
p367
VRB
p368
sVLemma
p369
Vlater
p370
saa(lp371
Vwon
p372
a(dp373
VNamedEntityTag
p374
g53
sVCharacterOffsetEnd
p375
V85
p376
sVCharacterOffsetBegin
p377
V82
p378
sVPartOfSpeech
p379
VVBD
p380
sVLemma
p381
Vwin
p382
saa(lp383
g224
a(dp384
VNormalizedNamedEntityTag
p385
V6.0
p386
sVLemma
p387
g224
sVCharacterOffsetEnd
p388
V87
p389
sVPartOfSpeech
p390
VCD
p391
sVCharacterOffsetBegin
p392
V86
p393
sVNamedEntityTag
p394
VNUMBER
p395
saa(lp396
Vmore
p397
a(dp398
VNamedEntityTag
p399
g53
sVCharacterOffsetEnd
p400
V92
p401
sVCharacterOffsetBegin
p402
V88
p403
sVPartOfSpeech
p404
VJJR
p405
sVLemma
p406
Vmore
p407
saa(lp408
Vtickets
p409
a(dp410
VNamedEntityTag
p411
g53
sVCharacterOffsetEnd
p412
V100
p413
sVCharacterOffsetBegin
p414
V93
p415
sVPartOfSpeech
p416
VNNS
p417
sVLemma
p418
Vticket
p419
saa(lp420
V,
p421
a(dp422
VNamedEntityTag
p423
g53
sVCharacterOffsetEnd
p424
V102
p425
sVCharacterOffsetBegin
p426
V101
p427
sVPartOfSpeech
p428
g421
sVLemma
p429
g421
saa(lp430
Vhow
p431
a(dp432
VNamedEntityTag
p433
g53
sVCharacterOffsetEnd
p434
V106
p435
sVCharacterOffsetBegin
p436
V103
p437
sVPartOfSpeech
p438
VWRB
p439
sVLemma
p440
Vhow
p441
saa(lp442
Vmany
p443
a(dp444
VNamedEntityTag
p445
g53
sVCharacterOffsetEnd
p446
V111
p447
sVCharacterOffsetBegin
p448
V107
p449
sVPartOfSpeech
p450
VJJ
p451
sVLemma
p452
Vmany
p453
saa(lp454
Vwould
p455
a(dp456
VNamedEntityTag
p457
g53
sVCharacterOffsetEnd
p458
V117
p459
sVCharacterOffsetBegin
p460
V112
p461
sVPartOfSpeech
p462
VMD
p463
sVLemma
p464
Vwould
p465
saa(lp466
Vhe
p467
a(dp468
VNamedEntityTag
p469
g53
sVCharacterOffsetEnd
p470
V120
p471
sVCharacterOffsetBegin
p472
V118
p473
sVPartOfSpeech
p474
VPRP
p475
sVLemma
p476
Vhe
p477
saa(lp478
Vhave
p479
a(dp480
VNamedEntityTag
p481
g53
sVCharacterOffsetEnd
p482
V125
p483
sVCharacterOffsetBegin
p484
V121
p485
sVPartOfSpeech
p486
VVB
p487
sVLemma
p488
Vhave
p489
saa(lp490
V?
p491
a(dp492
VNamedEntityTag
p493
g53
sVCharacterOffsetEnd
p494
V127
p495
sVCharacterOffsetBegin
p496
V126
p497
sVPartOfSpeech
p498
g139
sVLemma
p499
g491
saasVindexeddependencies
p500
(lp501
(lp502
Vroot
p503
aVROOT-0
p504
aVhave-20
p505
aa(lp506
Vmark
p507
aVspent-3
p508
aVIf-1
p509
aa(lp510
Vnsubj
p511
aVspent-3
p512
aVhe-2
p513
aa(lp514
Vadvcl
p515
aVhave-20
p516
aVspent-3
p517
aa(lp518
Vnum
p519
aVtickets-5
p520
aV25-4
p521
aa(lp522
Vdobj
p523
aVspent-3
p524
aVtickets-5
p525
aa(lp526
Vdet
p527
aVbeanie-8
p528
aVa-7
p529
aa(lp530
Vprep_on
p531
aVspent-3
p532
aVbeanie-8
p533
aa(lp534
Vadvmod
p535
aVwon-11
p536
aVlater-10
p537
aa(lp538
Vconj_and
p539
aVspent-3
p540
aVwon-11
p541
aa(lp542
Vnum
p543
aVtickets-14
p544
aV6-12
p545
aa(lp546
Vquantmod
p547
aV6-12
p548
aVmore-13
p549
aa(lp550
Vdobj
p551
aVwon-11
p552
aVtickets-14
p553
aa(lp554
Vadvmod
p555
aVmany-17
p556
aVhow-16
p557
aa(lp558
Vdep
p559
aVhave-20
p560
aVmany-17
p561
aa(lp562
Vaux
p563
aVhave-20
p564
aVwould-18
p565
aa(lp566
Vnsubj
p567
aVhave-20
p568
aVhe-19
p569
aasas.