(dp0
Vcoref
p1
(lp2
(lp3
(lp4
(lp5
Vhe
p6
aI1
aI1
aI1
aI2
aa(lp7
VJerry
p8
aI0
aI3
aI3
aI4
aaa(lp9
(lp10
Vhe
p11
aI1
aI18
aI18
aI19
aa(lp12
VJerry
p13
aI0
aI3
aI3
aI4
aaaasVsentences
p14
(lp15
(dp16
Vparsetree
p17
V(ROOT (S (PP (IN At) (NP (DT the) (NN arcade))) (NP (NNP Jerry)) (VP (VBD won) (NP (CD 4) (NNS tickets))) (. .)))
p18
sVtext
p19
VAt the arcade Jerry won 4 tickets .
p20
sVdependencies
p21
(lp22
(lp23
Vroot
p24
aVROOT
p25
aVwon
p26
aa(lp27
Vdet
p28
aVarcade
p29
aVthe
p30
aa(lp31
Vprep_at
p32
aVwon
p33
aVarcade
p34
aa(lp35
Vnsubj
p36
aVwon
p37
aVJerry
p38
aa(lp39
Vnum
p40
aVtickets
p41
aV4
p42
aa(lp43
Vdobj
p44
aVwon
p45
aVtickets
p46
aasVwords
p47
(lp48
(lp49
VAt
p50
a(dp51
VNamedEntityTag
p52
VO
p53
sVCharacterOffsetEnd
p54
V3
p55
sVCharacterOffsetBegin
p56
V1
p57
sVPartOfSpeech
p58
VIN
p59
sVLemma
p60
Vat
p61
saa(lp62
Vthe
p63
a(dp64
VNamedEntityTag
p65
g53
sVCharacterOffsetEnd
p66
V7
p67
sVCharacterOffsetBegin
p68
g42
sVPartOfSpeech
p69
VDT
p70
sVLemma
p71
Vthe
p72
saa(lp73
Varcade
p74
a(dp75
VNamedEntityTag
p76
g53
sVCharacterOffsetEnd
p77
V14
p78
sVCharacterOffsetBegin
p79
V8
p80
sVPartOfSpeech
p81
VNN
p82
sVLemma
p83
Varcade
p84
saa(lp85
VJerry
p86
a(dp87
VNamedEntityTag
p88
VPERSON
p89
sVCharacterOffsetEnd
p90
V20
p91
sVCharacterOffsetBegin
p92
V15
p93
sVPartOfSpeech
p94
VNNP
p95
sVLemma
p96
VJerry
p97
saa(lp98
Vwon
p99
a(dp100
VNamedEntityTag
p101
g53
sVCharacterOffsetEnd
p102
V24
p103
sVCharacterOffsetBegin
p104
V21
p105
sVPartOfSpeech
p106
VVBD
p107
sVLemma
p108
Vwin
p109
saa(lp110
g42
a(dp111
VNormalizedNamedEntityTag
p112
V4.0
p113
sVLemma
p114
g42
sVCharacterOffsetEnd
p115
V26
p116
sVPartOfSpeech
p117
VCD
p118
sVCharacterOffsetBegin
p119
V25
p120
sVNamedEntityTag
p121
VNUMBER
p122
saa(lp123
Vtickets
p124
a(dp125
VNamedEntityTag
p126
g53
sVCharacterOffsetEnd
p127
V34
p128
sVCharacterOffsetBegin
p129
V27
p130
sVPartOfSpeech
p131
VNNS
p132
sVLemma
p133
Vticket
p134
saa(lp135
V.
p136
a(dp137
VNamedEntityTag
p138
g53
sVCharacterOffsetEnd
p139
V36
p140
sVCharacterOffsetBegin
p141
V35
p142
sVPartOfSpeech
p143
g136
sVLemma
p144
g136
saasVindexeddependencies
p145
(lp146
(lp147
Vroot
p148
aVROOT-0
p149
aVwon-5
p150
aa(lp151
Vdet
p152
aVarcade-3
p153
aVthe-2
p154
aa(lp155
Vprep_at
p156
aVwon-5
p157
aVarcade-3
p158
aa(lp159
Vnsubj
p160
aVwon-5
p161
aVJerry-4
p162
aa(lp163
Vnum
p164
aVtickets-7
p165
aV4-6
p166
aa(lp167
Vdobj
p168
aVwon-5
p169
aVtickets-7
p170
aasa(dp171
Vparsetree
p172
V(ROOT (SBARQ (SBAR (IN If) (S (NP (PRP he)) (VP (VP (VBD spent) (NP (CD 2) (NNS tickets)) (PP (IN on) (NP (DT a) (NN beanie)))) (CC and) (VP (ADVP (RB later)) (VBD won) (NP (CD 47) (JJR more) (NNS tickets)))))) (, ,) (WHNP (WRB how) (JJ many)) (SQ (MD would) (NP (PRP he)) (VP (VB have))) (. ?)))
p173
sVtext
p174
VIf he spent 2 tickets on a beanie and later won 47 more tickets , how many would he have ?
p175
sVdependencies
p176
(lp177
(lp178
Vroot
p179
aVROOT
p180
aVhave
p181
aa(lp182
Vmark
p183
aVspent
p184
aVIf
p185
aa(lp186
Vnsubj
p187
aVspent
p188
aVhe
p189
aa(lp190
Vadvcl
p191
aVhave
p192
aVspent
p193
aa(lp194
Vnum
p195
aVtickets
p196
aV2
p197
aa(lp198
Vdobj
p199
aVspent
p200
aVtickets
p201
aa(lp202
Vdet
p203
aVbeanie
p204
aVa
p205
aa(lp206
Vprep_on
p207
aVspent
p208
aVbeanie
p209
aa(lp210
Vadvmod
p211
aVwon
p212
aVlater
p213
aa(lp214
Vconj_and
p215
aVspent
p216
aVwon
p217
aa(lp218
Vnum
p219
aVtickets
p220
aV47
p221
aa(lp222
Vamod
p223
aVtickets
p224
aVmore
p225
aa(lp226
Vdobj
p227
aVwon
p228
aVtickets
p229
aa(lp230
Vadvmod
p231
aVmany
p232
aVhow
p233
aa(lp234
Vdep
p235
aVhave
p236
aVmany
p237
aa(lp238
Vaux
p239
aVhave
p240
aVwould
p241
aa(lp242
Vnsubj
p243
aVhave
p244
aVhe
p245
aasVwords
p246
(lp247
(lp248
VIf
p249
a(dp250
VNamedEntityTag
p251
g53
sVCharacterOffsetEnd
p252
V39
p253
sVCharacterOffsetBegin
p254
V37
p255
sVPartOfSpeech
p256
VIN
p257
sVLemma
p258
Vif
p259
saa(lp260
Vhe
p261
a(dp262
VNamedEntityTag
p263
g53
sVCharacterOffsetEnd
p264
V42
p265
sVCharacterOffsetBegin
p266
V40
p267
sVPartOfSpeech
p268
VPRP
p269
sVLemma
p270
Vhe
p271
saa(lp272
Vspent
p273
a(dp274
VNamedEntityTag
p275
g53
sVCharacterOffsetEnd
p276
V48
p277
sVCharacterOffsetBegin
p278
V43
p279
sVPartOfSpeech
p280
VVBD
p281
sVLemma
p282
Vspend
p283
saa(lp284
g197
a(dp285
VNormalizedNamedEntityTag
p286
V2.0
p287
sVLemma
p288
g197
sVCharacterOffsetEnd
p289
V50
p290
sVPartOfSpeech
p291
VCD
p292
sVCharacterOffsetBegin
p293
V49
p294
sVNamedEntityTag
p295
VNUMBER
p296
saa(lp297
Vtickets
p298
a(dp299
VNamedEntityTag
p300
g53
sVCharacterOffsetEnd
p301
V58
p302
sVCharacterOffsetBegin
p303
V51
p304
sVPartOfSpeech
p305
VNNS
p306
sVLemma
p307
Vticket
p308
saa(lp309
Von
p310
a(dp311
VNamedEntityTag
p312
g53
sVCharacterOffsetEnd
p313
V61
p314
sVCharacterOffsetBegin
p315
V59
p316
sVPartOfSpeech
p317
VIN
p318
sVLemma
p319
Von
p320
saa(lp321
g205
a(dp322
VNamedEntityTag
p323
g53
sVCharacterOffsetEnd
p324
V63
p325
sVCharacterOffsetBegin
p326
V62
p327
sVPartOfSpeech
p328
VDT
p329
sVLemma
p330
g205
saa(lp331
Vbeanie
p332
a(dp333
VNamedEntityTag
p334
g53
sVCharacterOffsetEnd
p335
V70
p336
sVCharacterOffsetBegin
p337
V64
p338
sVPartOfSpeech
p339
VNN
p340
sVLemma
p341
Vbeanie
p342
saa(lp343
Vand
p344
a(dp345
VNamedEntityTag
p346
g53
sVCharacterOffsetEnd
p347
V74
p348
sVCharacterOffsetBegin
p349
V71
p350
sVPartOfSpeech
p351
VCC
p352
sVLemma
p353
Vand
p354
saa(lp355
Vlater
p356
a(dp357
VNamedEntityTag
p358
g53
sVCharacterOffsetEnd
p359
V80
p360
sVCharacterOffsetBegin
p361
V75
p362
sVPartOfSpeech
p363
VRB
p364
sVLemma
p365
Vlater
p366
saa(lp367
Vwon
p368
a(dp369
VNamedEntityTag
p370
g53
sVCharacterOffsetEnd
p371
V84
p372
sVCharacterOffsetBegin
p373
V81
p374
sVPartOfSpeech
p375
VVBD
p376
sVLemma
p377
Vwin
p378
saa(lp379
V47
p380
a(dp381
VNormalizedNamedEntityTag
p382
V47.0
p383
sVLemma
p384
V47
p385
sVCharacterOffsetEnd
p386
V87
p387
sVPartOfSpeech
p388
VCD
p389
sVCharacterOffsetBegin
p390
V85
p391
sVNamedEntityTag
p392
VNUMBER
p393
saa(lp394
Vmore
p395
a(dp396
VNamedEntityTag
p397
g53
sVCharacterOffsetEnd
p398
V92
p399
sVCharacterOffsetBegin
p400
V88
p401
sVPartOfSpeech
p402
VJJR
p403
sVLemma
p404
Vmore
p405
saa(lp406
Vtickets
p407
a(dp408
VNamedEntityTag
p409
g53
sVCharacterOffsetEnd
p410
V100
p411
sVCharacterOffsetBegin
p412
V93
p413
sVPartOfSpeech
p414
VNNS
p415
sVLemma
p416
Vticket
p417
saa(lp418
V,
p419
a(dp420
VNamedEntityTag
p421
g53
sVCharacterOffsetEnd
p422
V102
p423
sVCharacterOffsetBegin
p424
V101
p425
sVPartOfSpeech
p426
g419
sVLemma
p427
g419
saa(lp428
Vhow
p429
a(dp430
VNamedEntityTag
p431
g53
sVCharacterOffsetEnd
p432
V106
p433
sVCharacterOffsetBegin
p434
V103
p435
sVPartOfSpeech
p436
VWRB
p437
sVLemma
p438
Vhow
p439
saa(lp440
Vmany
p441
a(dp442
VNamedEntityTag
p443
g53
sVCharacterOffsetEnd
p444
V111
p445
sVCharacterOffsetBegin
p446
V107
p447
sVPartOfSpeech
p448
VJJ
p449
sVLemma
p450
Vmany
p451
saa(lp452
Vwould
p453
a(dp454
VNamedEntityTag
p455
g53
sVCharacterOffsetEnd
p456
V117
p457
sVCharacterOffsetBegin
p458
V112
p459
sVPartOfSpeech
p460
VMD
p461
sVLemma
p462
Vwould
p463
saa(lp464
Vhe
p465
a(dp466
VNamedEntityTag
p467
g53
sVCharacterOffsetEnd
p468
V120
p469
sVCharacterOffsetBegin
p470
V118
p471
sVPartOfSpeech
p472
VPRP
p473
sVLemma
p474
Vhe
p475
saa(lp476
Vhave
p477
a(dp478
VNamedEntityTag
p479
g53
sVCharacterOffsetEnd
p480
V125
p481
sVCharacterOffsetBegin
p482
V121
p483
sVPartOfSpeech
p484
VVB
p485
sVLemma
p486
Vhave
p487
saa(lp488
V?
p489
a(dp490
VNamedEntityTag
p491
g53
sVCharacterOffsetEnd
p492
V127
p493
sVCharacterOffsetBegin
p494
V126
p495
sVPartOfSpeech
p496
g136
sVLemma
p497
g489
saasVindexeddependencies
p498
(lp499
(lp500
Vroot
p501
aVROOT-0
p502
aVhave-20
p503
aa(lp504
Vmark
p505
aVspent-3
p506
aVIf-1
p507
aa(lp508
Vnsubj
p509
aVspent-3
p510
aVhe-2
p511
aa(lp512
Vadvcl
p513
aVhave-20
p514
aVspent-3
p515
aa(lp516
Vnum
p517
aVtickets-5
p518
aV2-4
p519
aa(lp520
Vdobj
p521
aVspent-3
p522
aVtickets-5
p523
aa(lp524
Vdet
p525
aVbeanie-8
p526
aVa-7
p527
aa(lp528
Vprep_on
p529
aVspent-3
p530
aVbeanie-8
p531
aa(lp532
Vadvmod
p533
aVwon-11
p534
aVlater-10
p535
aa(lp536
Vconj_and
p537
aVspent-3
p538
aVwon-11
p539
aa(lp540
Vnum
p541
aVtickets-14
p542
aV47-12
p543
aa(lp544
Vamod
p545
aVtickets-14
p546
aVmore-13
p547
aa(lp548
Vdobj
p549
aVwon-11
p550
aVtickets-14
p551
aa(lp552
Vadvmod
p553
aVmany-17
p554
aVhow-16
p555
aa(lp556
Vdep
p557
aVhave-20
p558
aVmany-17
p559
aa(lp560
Vaux
p561
aVhave-20
p562
aVwould-18
p563
aa(lp564
Vnsubj
p565
aVhave-20
p566
aVhe-19
p567
aasas.