(dp0
Vcoref
p1
(lp2
(lp3
(lp4
(lp5
Vthe bin
p6
aI1
aI16
aI15
aI17
aa(lp7
Va bin
p8
aI0
aI7
aI6
aI8
aaa(lp9
(lp10
Vthe bin
p11
aI1
aI23
aI22
aI24
aa(lp12
Va bin
p13
aI0
aI7
aI6
aI8
aaaasVsentences
p14
(lp15
(dp16
Vparsetree
p17
V(ROOT (S (NP (DT A) (NN store)) (VP (VBD had) (NP (NP (CD 31) (NNS oranges)) (PP (IN in) (NP (DT a) (NN bin))))) (. .)))
p18
sVtext
p19
VA store had 31 oranges in a bin .
p20
sVdependencies
p21
(lp22
(lp23
Vroot
p24
aVROOT
p25
aVhad
p26
aa(lp27
Vdet
p28
aVstore
p29
aVA
p30
aa(lp31
Vnsubj
p32
aVhad
p33
aVstore
p34
aa(lp35
Vnum
p36
aVoranges
p37
aV31
p38
aa(lp39
Vdobj
p40
aVhad
p41
aVoranges
p42
aa(lp43
Vdet
p44
aVbin
p45
aVa
p46
aa(lp47
Vprep_in
p48
aVoranges
p49
aVbin
p50
aasVwords
p51
(lp52
(lp53
g30
a(dp54
VNamedEntityTag
p55
VO
p56
sVCharacterOffsetEnd
p57
V2
p58
sVCharacterOffsetBegin
p59
V1
p60
sVPartOfSpeech
p61
VDT
p62
sVLemma
p63
g46
saa(lp64
Vstore
p65
a(dp66
VNamedEntityTag
p67
g56
sVCharacterOffsetEnd
p68
V8
p69
sVCharacterOffsetBegin
p70
V3
p71
sVPartOfSpeech
p72
VNN
p73
sVLemma
p74
Vstore
p75
saa(lp76
Vhad
p77
a(dp78
VNamedEntityTag
p79
g56
sVCharacterOffsetEnd
p80
V12
p81
sVCharacterOffsetBegin
p82
V9
p83
sVPartOfSpeech
p84
VVBD
p85
sVLemma
p86
Vhave
p87
saa(lp88
V31
p89
a(dp90
VNormalizedNamedEntityTag
p91
V31.0
p92
sVLemma
p93
V31
p94
sVCharacterOffsetEnd
p95
V15
p96
sVPartOfSpeech
p97
VCD
p98
sVCharacterOffsetBegin
p99
V13
p100
sVNamedEntityTag
p101
VNUMBER
p102
saa(lp103
Voranges
p104
a(dp105
VNamedEntityTag
p106
g56
sVCharacterOffsetEnd
p107
V23
p108
sVCharacterOffsetBegin
p109
V16
p110
sVPartOfSpeech
p111
VNNS
p112
sVLemma
p113
Vorange
p114
saa(lp115
Vin
p116
a(dp117
VNamedEntityTag
p118
g56
sVCharacterOffsetEnd
p119
V26
p120
sVCharacterOffsetBegin
p121
V24
p122
sVPartOfSpeech
p123
VIN
p124
sVLemma
p125
Vin
p126
saa(lp127
g46
a(dp128
VNamedEntityTag
p129
g56
sVCharacterOffsetEnd
p130
V28
p131
sVCharacterOffsetBegin
p132
V27
p133
sVPartOfSpeech
p134
VDT
p135
sVLemma
p136
g46
saa(lp137
Vbin
p138
a(dp139
VNamedEntityTag
p140
g56
sVCharacterOffsetEnd
p141
V32
p142
sVCharacterOffsetBegin
p143
V29
p144
sVPartOfSpeech
p145
VNN
p146
sVLemma
p147
Vbin
p148
saa(lp149
V.
p150
a(dp151
VNamedEntityTag
p152
g56
sVCharacterOffsetEnd
p153
V34
p154
sVCharacterOffsetBegin
p155
V33
p156
sVPartOfSpeech
p157
g150
sVLemma
p158
g150
saasVindexeddependencies
p159
(lp160
(lp161
Vroot
p162
aVROOT-0
p163
aVhad-3
p164
aa(lp165
Vdet
p166
aVstore-2
p167
aVA-1
p168
aa(lp169
Vnsubj
p170
aVhad-3
p171
aVstore-2
p172
aa(lp173
Vnum
p174
aVoranges-5
p175
aV31-4
p176
aa(lp177
Vdobj
p178
aVhad-3
p179
aVoranges-5
p180
aa(lp181
Vdet
p182
aVbin-8
p183
aVa-7
p184
aa(lp185
Vprep_in
p186
aVoranges-5
p187
aVbin-8
p188
aasa(dp189
Vparsetree
p190
V(ROOT (SBARQ (SBAR (IN If) (S (NP (PRP they)) (VP (VP (VBD threw) (PRT (RP away)) (NP (NP (CD 9)) (PP (IN of) (NP (DT the) (JJ old) (NNS ones))))) (CC and) (VP (VBD put) (NP (CD 38) (JJ new) (NNS ones)) (PP (IN in) (NP (DT the) (NN bin))))))) (WHNP (WRB how) (JJ many)) (SQ (VP (MD would) (VP (VB be) (PP (IN in) (NP (DT the) (NN bin)))))) (. ?)))
p191
sVtext
p192
VIf they threw away 9 of the old ones and put 38 new ones in the bin how many would be in the bin ?
p193
sVdependencies
p194
(lp195
(lp196
Vroot
p197
aVROOT
p198
aVbe
p199
aa(lp200
Vmark
p201
aVthrew
p202
aVIf
p203
aa(lp204
Vnsubj
p205
aVthrew
p206
aVthey
p207
aa(lp208
Vdep
p209
aVbe
p210
aVthrew
p211
aa(lp212
Vprt
p213
aVthrew
p214
aVaway
p215
aa(lp216
Vdobj
p217
aVthrew
p218
ag83
aa(lp219
Vdet
p220
aVones
p221
aVthe
p222
aa(lp223
Vamod
p224
aVones
p225
aVold
p226
aa(lp227
Vprep_of
p228
ag83
aVones
p229
aa(lp230
Vconj_and
p231
aVthrew
p232
aVput
p233
aa(lp234
Vnum
p235
aVones
p236
aV38
p237
aa(lp238
Vamod
p239
aVones
p240
aVnew
p241
aa(lp242
Vdobj
p243
aVput
p244
aVones
p245
aa(lp246
Vdet
p247
aVbin
p248
aVthe
p249
aa(lp250
Vprep_in
p251
aVput
p252
aVbin
p253
aa(lp254
Vadvmod
p255
aVmany
p256
aVhow
p257
aa(lp258
Vnsubj
p259
aVbe
p260
aVmany
p261
aa(lp262
Vaux
p263
aVbe
p264
aVwould
p265
aa(lp266
Vdet
p267
aVbin
p268
aVthe
p269
aa(lp270
Vprep_in
p271
aVbe
p272
aVbin
p273
aasVwords
p274
(lp275
(lp276
VIf
p277
a(dp278
VNamedEntityTag
p279
g56
sVCharacterOffsetEnd
p280
V37
p281
sVCharacterOffsetBegin
p282
V35
p283
sVPartOfSpeech
p284
VIN
p285
sVLemma
p286
Vif
p287
saa(lp288
Vthey
p289
a(dp290
VNamedEntityTag
p291
g56
sVCharacterOffsetEnd
p292
V42
p293
sVCharacterOffsetBegin
p294
V38
p295
sVPartOfSpeech
p296
VPRP
p297
sVLemma
p298
Vthey
p299
saa(lp300
Vthrew
p301
a(dp302
VNamedEntityTag
p303
g56
sVCharacterOffsetEnd
p304
V48
p305
sVCharacterOffsetBegin
p306
V43
p307
sVPartOfSpeech
p308
VVBD
p309
sVLemma
p310
Vthrow
p311
saa(lp312
Vaway
p313
a(dp314
VNamedEntityTag
p315
g56
sVCharacterOffsetEnd
p316
V53
p317
sVCharacterOffsetBegin
p318
V49
p319
sVPartOfSpeech
p320
VRP
p321
sVLemma
p322
Vaway
p323
saa(lp324
g83
a(dp325
VNormalizedNamedEntityTag
p326
V9.0
p327
sVLemma
p328
g83
sVCharacterOffsetEnd
p329
V55
p330
sVPartOfSpeech
p331
VCD
p332
sVCharacterOffsetBegin
p333
V54
p334
sVNamedEntityTag
p335
VNUMBER
p336
saa(lp337
Vof
p338
a(dp339
VNamedEntityTag
p340
g56
sVCharacterOffsetEnd
p341
V58
p342
sVCharacterOffsetBegin
p343
V56
p344
sVPartOfSpeech
p345
VIN
p346
sVLemma
p347
Vof
p348
saa(lp349
Vthe
p350
a(dp351
VNamedEntityTag
p352
g56
sVCharacterOffsetEnd
p353
V62
p354
sVCharacterOffsetBegin
p355
V59
p356
sVPartOfSpeech
p357
VDT
p358
sVLemma
p359
Vthe
p360
saa(lp361
Vold
p362
a(dp363
VNamedEntityTag
p364
g56
sVCharacterOffsetEnd
p365
V66
p366
sVCharacterOffsetBegin
p367
V63
p368
sVPartOfSpeech
p369
VJJ
p370
sVLemma
p371
Vold
p372
saa(lp373
Vones
p374
a(dp375
VNamedEntityTag
p376
g56
sVCharacterOffsetEnd
p377
V71
p378
sVCharacterOffsetBegin
p379
V67
p380
sVPartOfSpeech
p381
VNNS
p382
sVLemma
p383
Vone
p384
saa(lp385
Vand
p386
a(dp387
VNamedEntityTag
p388
g56
sVCharacterOffsetEnd
p389
V75
p390
sVCharacterOffsetBegin
p391
V72
p392
sVPartOfSpeech
p393
VCC
p394
sVLemma
p395
Vand
p396
saa(lp397
Vput
p398
a(dp399
VNamedEntityTag
p400
g56
sVCharacterOffsetEnd
p401
V79
p402
sVCharacterOffsetBegin
p403
V76
p404
sVPartOfSpeech
p405
VVBD
p406
sVLemma
p407
Vput
p408
saa(lp409
V38
p410
a(dp411
VNormalizedNamedEntityTag
p412
V38.0
p413
sVLemma
p414
V38
p415
sVCharacterOffsetEnd
p416
V82
p417
sVPartOfSpeech
p418
VCD
p419
sVCharacterOffsetBegin
p420
V80
p421
sVNamedEntityTag
p422
VNUMBER
p423
saa(lp424
Vnew
p425
a(dp426
VNamedEntityTag
p427
g56
sVCharacterOffsetEnd
p428
V86
p429
sVCharacterOffsetBegin
p430
V83
p431
sVPartOfSpeech
p432
VJJ
p433
sVLemma
p434
Vnew
p435
saa(lp436
Vones
p437
a(dp438
VNamedEntityTag
p439
g56
sVCharacterOffsetEnd
p440
V91
p441
sVCharacterOffsetBegin
p442
V87
p443
sVPartOfSpeech
p444
VNNS
p445
sVLemma
p446
Vone
p447
saa(lp448
Vin
p449
a(dp450
VNamedEntityTag
p451
g56
sVCharacterOffsetEnd
p452
V94
p453
sVCharacterOffsetBegin
p454
V92
p455
sVPartOfSpeech
p456
VIN
p457
sVLemma
p458
Vin
p459
saa(lp460
Vthe
p461
a(dp462
VNamedEntityTag
p463
g56
sVCharacterOffsetEnd
p464
V98
p465
sVCharacterOffsetBegin
p466
V95
p467
sVPartOfSpeech
p468
VDT
p469
sVLemma
p470
Vthe
p471
saa(lp472
Vbin
p473
a(dp474
VNamedEntityTag
p475
g56
sVCharacterOffsetEnd
p476
V102
p477
sVCharacterOffsetBegin
p478
V99
p479
sVPartOfSpeech
p480
VNN
p481
sVLemma
p482
Vbin
p483
saa(lp484
Vhow
p485
a(dp486
VNamedEntityTag
p487
g56
sVCharacterOffsetEnd
p488
V106
p489
sVCharacterOffsetBegin
p490
V103
p491
sVPartOfSpeech
p492
VWRB
p493
sVLemma
p494
Vhow
p495
saa(lp496
Vmany
p497
a(dp498
VNamedEntityTag
p499
g56
sVCharacterOffsetEnd
p500
V111
p501
sVCharacterOffsetBegin
p502
V107
p503
sVPartOfSpeech
p504
VJJ
p505
sVLemma
p506
Vmany
p507
saa(lp508
Vwould
p509
a(dp510
VNamedEntityTag
p511
g56
sVCharacterOffsetEnd
p512
V117
p513
sVCharacterOffsetBegin
p514
V112
p515
sVPartOfSpeech
p516
VMD
p517
sVLemma
p518
Vwould
p519
saa(lp520
Vbe
p521
a(dp522
VNamedEntityTag
p523
g56
sVCharacterOffsetEnd
p524
V120
p525
sVCharacterOffsetBegin
p526
V118
p527
sVPartOfSpeech
p528
VVB
p529
sVLemma
p530
Vbe
p531
saa(lp532
Vin
p533
a(dp534
VNamedEntityTag
p535
g56
sVCharacterOffsetEnd
p536
V123
p537
sVCharacterOffsetBegin
p538
V121
p539
sVPartOfSpeech
p540
VIN
p541
sVLemma
p542
Vin
p543
saa(lp544
Vthe
p545
a(dp546
VNamedEntityTag
p547
g56
sVCharacterOffsetEnd
p548
V127
p549
sVCharacterOffsetBegin
p550
V124
p551
sVPartOfSpeech
p552
VDT
p553
sVLemma
p554
Vthe
p555
saa(lp556
Vbin
p557
a(dp558
VNamedEntityTag
p559
g56
sVCharacterOffsetEnd
p560
V131
p561
sVCharacterOffsetBegin
p562
V128
p563
sVPartOfSpeech
p564
VNN
p565
sVLemma
p566
Vbin
p567
saa(lp568
V?
p569
a(dp570
VNamedEntityTag
p571
g56
sVCharacterOffsetEnd
p572
V133
p573
sVCharacterOffsetBegin
p574
V132
p575
sVPartOfSpeech
p576
g150
sVLemma
p577
g569
saasVindexeddependencies
p578
(lp579
(lp580
Vroot
p581
aVROOT-0
p582
aVbe-21
p583
aa(lp584
Vmark
p585
aVthrew-3
p586
aVIf-1
p587
aa(lp588
Vnsubj
p589
aVthrew-3
p590
aVthey-2
p591
aa(lp592
Vdep
p593
aVbe-21
p594
aVthrew-3
p595
aa(lp596
Vprt
p597
aVthrew-3
p598
aVaway-4
p599
aa(lp600
Vdobj
p601
aVthrew-3
p602
aV9-5
p603
aa(lp604
Vdet
p605
aVones-9
p606
aVthe-7
p607
aa(lp608
Vamod
p609
aVones-9
p610
aVold-8
p611
aa(lp612
Vprep_of
p613
aV9-5
p614
aVones-9
p615
aa(lp616
Vconj_and
p617
aVthrew-3
p618
aVput-11
p619
aa(lp620
Vnum
p621
aVones-14
p622
aV38-12
p623
aa(lp624
Vamod
p625
aVones-14
p626
aVnew-13
p627
aa(lp628
Vdobj
p629
aVput-11
p630
aVones-14
p631
aa(lp632
Vdet
p633
aVbin-17
p634
aVthe-16
p635
aa(lp636
Vprep_in
p637
aVput-11
p638
aVbin-17
p639
aa(lp640
Vadvmod
p641
aVmany-19
p642
aVhow-18
p643
aa(lp644
Vnsubj
p645
aVbe-21
p646
aVmany-19
p647
aa(lp648
Vaux
p649
aVbe-21
p650
aVwould-20
p651
aa(lp652
Vdet
p653
aVbin-24
p654
aVthe-23
p655
aa(lp656
Vprep_in
p657
aVbe-21
p658
aVbin-24
p659
aasas.