(dp0
Vcoref
p1
(lp2
(lp3
(lp4
(lp5
Vearly-admission tickets
p6
aI0
aI12
aI11
aI13
aa(lp7
V0.5 times of the tickets sold at a school carnival
p8
aI0
aI1
aI0
aI10
aaaa(lp9
(lp10
(lp11
Vit
p12
aI1
aI14
aI14
aI15
aa(lp13
Vthe school
p14
aI1
aI2
aI1
aI3
aaaasVsentences
p15
(lp16
(dp17
Vparsetree
p18
V(ROOT (S (NP (NP (QP (CD 0.5) (NNS times))) (PP (IN of) (NP (NP (DT the) (NNS tickets)) (VP (VBN sold) (PP (IN at) (NP (DT a) (NN school) (NN carnival))))))) (VP (VBD were) (NP (JJ early-admission) (NNS tickets))) (. .)))
p19
sVtext
p20
V0.5 times of the tickets sold at a school carnival were early-admission tickets .
p21
sVdependencies
p22
(lp23
(lp24
Vroot
p25
aVROOT
p26
aVtickets
p27
aa(lp28
Vnumber
p29
aVtimes
p30
aV0.5
p31
aa(lp32
Vnsubj
p33
aVtickets
p34
aVtimes
p35
aa(lp36
Vdet
p37
aVtickets
p38
aVthe
p39
aa(lp40
Vprep_of
p41
aVtimes
p42
aVtickets
p43
aa(lp44
Vvmod
p45
aVtickets
p46
aVsold
p47
aa(lp48
Vdet
p49
aVcarnival
p50
aVa
p51
aa(lp52
Vnn
p53
aVcarnival
p54
aVschool
p55
aa(lp56
Vprep_at
p57
aVsold
p58
aVcarnival
p59
aa(lp60
Vcop
p61
aVtickets
p62
aVwere
p63
aa(lp64
Vamod
p65
aVtickets
p66
aVearly-admission
p67
aasVwords
p68
(lp69
(lp70
V0.5
p71
a(dp72
VNormalizedNamedEntityTag
p73
V0.5
p74
sVLemma
p75
V0.5
p76
sVCharacterOffsetEnd
p77
V4
p78
sVPartOfSpeech
p79
VCD
p80
sVCharacterOffsetBegin
p81
V1
p82
sVNamedEntityTag
p83
VNUMBER
p84
saa(lp85
Vtimes
p86
a(dp87
VNamedEntityTag
p88
VO
p89
sVCharacterOffsetEnd
p90
V10
p91
sVCharacterOffsetBegin
p92
V5
p93
sVPartOfSpeech
p94
VNNS
p95
sVLemma
p96
Vtime
p97
saa(lp98
Vof
p99
a(dp100
VNamedEntityTag
p101
g89
sVCharacterOffsetEnd
p102
V13
p103
sVCharacterOffsetBegin
p104
V11
p105
sVPartOfSpeech
p106
VIN
p107
sVLemma
p108
Vof
p109
saa(lp110
Vthe
p111
a(dp112
VNamedEntityTag
p113
g89
sVCharacterOffsetEnd
p114
V17
p115
sVCharacterOffsetBegin
p116
V14
p117
sVPartOfSpeech
p118
VDT
p119
sVLemma
p120
Vthe
p121
saa(lp122
Vtickets
p123
a(dp124
VNamedEntityTag
p125
g89
sVCharacterOffsetEnd
p126
V25
p127
sVCharacterOffsetBegin
p128
V18
p129
sVPartOfSpeech
p130
VNNS
p131
sVLemma
p132
Vticket
p133
saa(lp134
Vsold
p135
a(dp136
VNamedEntityTag
p137
g89
sVCharacterOffsetEnd
p138
V30
p139
sVCharacterOffsetBegin
p140
V26
p141
sVPartOfSpeech
p142
VVBN
p143
sVLemma
p144
Vsell
p145
saa(lp146
Vat
p147
a(dp148
VNamedEntityTag
p149
g89
sVCharacterOffsetEnd
p150
V33
p151
sVCharacterOffsetBegin
p152
V31
p153
sVPartOfSpeech
p154
VIN
p155
sVLemma
p156
Vat
p157
saa(lp158
g51
a(dp159
VNamedEntityTag
p160
g89
sVCharacterOffsetEnd
p161
V35
p162
sVCharacterOffsetBegin
p163
V34
p164
sVPartOfSpeech
p165
VDT
p166
sVLemma
p167
g51
saa(lp168
Vschool
p169
a(dp170
VNamedEntityTag
p171
g89
sVCharacterOffsetEnd
p172
V42
p173
sVCharacterOffsetBegin
p174
V36
p175
sVPartOfSpeech
p176
VNN
p177
sVLemma
p178
Vschool
p179
saa(lp180
Vcarnival
p181
a(dp182
VNamedEntityTag
p183
g89
sVCharacterOffsetEnd
p184
V51
p185
sVCharacterOffsetBegin
p186
V43
p187
sVPartOfSpeech
p188
VNN
p189
sVLemma
p190
Vcarnival
p191
saa(lp192
Vwere
p193
a(dp194
VNamedEntityTag
p195
g89
sVCharacterOffsetEnd
p196
V56
p197
sVCharacterOffsetBegin
p198
V52
p199
sVPartOfSpeech
p200
VVBD
p201
sVLemma
p202
Vbe
p203
saa(lp204
Vearly-admission
p205
a(dp206
VNamedEntityTag
p207
g89
sVCharacterOffsetEnd
p208
V72
p209
sVCharacterOffsetBegin
p210
V57
p211
sVPartOfSpeech
p212
VJJ
p213
sVLemma
p214
Vearly-admission
p215
saa(lp216
Vtickets
p217
a(dp218
VNamedEntityTag
p219
g89
sVCharacterOffsetEnd
p220
V80
p221
sVCharacterOffsetBegin
p222
V73
p223
sVPartOfSpeech
p224
VNNS
p225
sVLemma
p226
Vticket
p227
saa(lp228
V.
p229
a(dp230
VNamedEntityTag
p231
g89
sVCharacterOffsetEnd
p232
V82
p233
sVCharacterOffsetBegin
p234
V81
p235
sVPartOfSpeech
p236
g229
sVLemma
p237
g229
saasVindexeddependencies
p238
(lp239
(lp240
Vroot
p241
aVROOT-0
p242
aVtickets-13
p243
aa(lp244
Vnumber
p245
aVtimes-2
p246
aV0.5-1
p247
aa(lp248
Vnsubj
p249
aVtickets-13
p250
aVtimes-2
p251
aa(lp252
Vdet
p253
aVtickets-5
p254
aVthe-4
p255
aa(lp256
Vprep_of
p257
aVtimes-2
p258
aVtickets-5
p259
aa(lp260
Vvmod
p261
aVtickets-5
p262
aVsold-6
p263
aa(lp264
Vdet
p265
aVcarnival-10
p266
aVa-8
p267
aa(lp268
Vnn
p269
aVcarnival-10
p270
aVschool-9
p271
aa(lp272
Vprep_at
p273
aVsold-6
p274
aVcarnival-10
p275
aa(lp276
Vcop
p277
aVtickets-13
p278
aVwere-11
p279
aa(lp280
Vamod
p281
aVtickets-13
p282
aVearly-admission-12
p283
aasa(dp284
Vparsetree
p285
V(ROOT (SBARQ (SBAR (IN If) (S (NP (DT the) (NN school)) (VP (VBD sold) (NP (CD 20) (NNS tickets)) (PP (IN in) (NP (DT all)))))) (, ,) (WHNP (WHADJP (WRB how) (JJ many)) (ADJP (JJ early-admission)) (NNS tickets)) (SQ (VBD did) (NP (PRP it)) (VP (VB sell))) (. ?)))
p286
sVtext
p287
VIf the school sold 20 tickets in all , how many early-admission tickets did it sell ?
p288
sVdependencies
p289
(lp290
(lp291
Vroot
p292
aVROOT
p293
aVsell
p294
aa(lp295
Vmark
p296
aVsold
p297
aVIf
p298
aa(lp299
Vdet
p300
aVschool
p301
aVthe
p302
aa(lp303
Vnsubj
p304
aVsold
p305
aVschool
p306
aa(lp307
Vadvcl
p308
aVsell
p309
aVsold
p310
aa(lp311
Vnum
p312
aVtickets
p313
aV20
p314
aa(lp315
Vdobj
p316
aVsold
p317
aVtickets
p318
aa(lp319
Vprep_in
p320
aVsold
p321
aVall
p322
aa(lp323
Vadvmod
p324
aVmany
p325
aVhow
p326
aa(lp327
Vamod
p328
aVtickets
p329
aVmany
p330
aa(lp331
Vamod
p332
aVtickets
p333
aVearly-admission
p334
aa(lp335
Vdobj
p336
aVsell
p337
aVtickets
p338
aa(lp339
Vaux
p340
aVsell
p341
aVdid
p342
aa(lp343
Vnsubj
p344
aVsell
p345
aVit
p346
aasVwords
p347
(lp348
(lp349
VIf
p350
a(dp351
VNamedEntityTag
p352
g89
sVCharacterOffsetEnd
p353
V85
p354
sVCharacterOffsetBegin
p355
V83
p356
sVPartOfSpeech
p357
VIN
p358
sVLemma
p359
Vif
p360
saa(lp361
Vthe
p362
a(dp363
VNamedEntityTag
p364
g89
sVCharacterOffsetEnd
p365
V89
p366
sVCharacterOffsetBegin
p367
V86
p368
sVPartOfSpeech
p369
VDT
p370
sVLemma
p371
Vthe
p372
saa(lp373
Vschool
p374
a(dp375
VNamedEntityTag
p376
g89
sVCharacterOffsetEnd
p377
V96
p378
sVCharacterOffsetBegin
p379
V90
p380
sVPartOfSpeech
p381
VNN
p382
sVLemma
p383
Vschool
p384
saa(lp385
Vsold
p386
a(dp387
VNamedEntityTag
p388
g89
sVCharacterOffsetEnd
p389
V101
p390
sVCharacterOffsetBegin
p391
V97
p392
sVPartOfSpeech
p393
VVBD
p394
sVLemma
p395
Vsell
p396
saa(lp397
V20
p398
a(dp399
VNormalizedNamedEntityTag
p400
V20.0
p401
sVLemma
p402
V20
p403
sVCharacterOffsetEnd
p404
V104
p405
sVPartOfSpeech
p406
VCD
p407
sVCharacterOffsetBegin
p408
V102
p409
sVNamedEntityTag
p410
VNUMBER
p411
saa(lp412
Vtickets
p413
a(dp414
VNamedEntityTag
p415
g89
sVCharacterOffsetEnd
p416
V112
p417
sVCharacterOffsetBegin
p418
V105
p419
sVPartOfSpeech
p420
VNNS
p421
sVLemma
p422
Vticket
p423
saa(lp424
Vin
p425
a(dp426
VNamedEntityTag
p427
g89
sVCharacterOffsetEnd
p428
V115
p429
sVCharacterOffsetBegin
p430
V113
p431
sVPartOfSpeech
p432
VIN
p433
sVLemma
p434
Vin
p435
saa(lp436
Vall
p437
a(dp438
VNamedEntityTag
p439
g89
sVCharacterOffsetEnd
p440
V119
p441
sVCharacterOffsetBegin
p442
V116
p443
sVPartOfSpeech
p444
VDT
p445
sVLemma
p446
Vall
p447
saa(lp448
V,
p449
a(dp450
VNamedEntityTag
p451
g89
sVCharacterOffsetEnd
p452
V121
p453
sVCharacterOffsetBegin
p454
V120
p455
sVPartOfSpeech
p456
g449
sVLemma
p457
g449
saa(lp458
Vhow
p459
a(dp460
VNamedEntityTag
p461
g89
sVCharacterOffsetEnd
p462
V125
p463
sVCharacterOffsetBegin
p464
V122
p465
sVPartOfSpeech
p466
VWRB
p467
sVLemma
p468
Vhow
p469
saa(lp470
Vmany
p471
a(dp472
VNamedEntityTag
p473
g89
sVCharacterOffsetEnd
p474
V130
p475
sVCharacterOffsetBegin
p476
V126
p477
sVPartOfSpeech
p478
VJJ
p479
sVLemma
p480
Vmany
p481
saa(lp482
Vearly-admission
p483
a(dp484
VNamedEntityTag
p485
g89
sVCharacterOffsetEnd
p486
V146
p487
sVCharacterOffsetBegin
p488
V131
p489
sVPartOfSpeech
p490
VJJ
p491
sVLemma
p492
Vearly-admission
p493
saa(lp494
Vtickets
p495
a(dp496
VNamedEntityTag
p497
g89
sVCharacterOffsetEnd
p498
V154
p499
sVCharacterOffsetBegin
p500
V147
p501
sVPartOfSpeech
p502
VNNS
p503
sVLemma
p504
Vticket
p505
saa(lp506
Vdid
p507
a(dp508
VNamedEntityTag
p509
g89
sVCharacterOffsetEnd
p510
V158
p511
sVCharacterOffsetBegin
p512
V155
p513
sVPartOfSpeech
p514
VVBD
p515
sVLemma
p516
Vdo
p517
saa(lp518
Vit
p519
a(dp520
VNamedEntityTag
p521
g89
sVCharacterOffsetEnd
p522
V161
p523
sVCharacterOffsetBegin
p524
V159
p525
sVPartOfSpeech
p526
VPRP
p527
sVLemma
p528
Vit
p529
saa(lp530
Vsell
p531
a(dp532
VNamedEntityTag
p533
g89
sVCharacterOffsetEnd
p534
V166
p535
sVCharacterOffsetBegin
p536
V162
p537
sVPartOfSpeech
p538
VVB
p539
sVLemma
p540
Vsell
p541
saa(lp542
V?
p543
a(dp544
VNamedEntityTag
p545
g89
sVCharacterOffsetEnd
p546
V168
p547
sVCharacterOffsetBegin
p548
V167
p549
sVPartOfSpeech
p550
g229
sVLemma
p551
g543
saasVindexeddependencies
p552
(lp553
(lp554
Vroot
p555
aVROOT-0
p556
aVsell-16
p557
aa(lp558
Vmark
p559
aVsold-4
p560
aVIf-1
p561
aa(lp562
Vdet
p563
aVschool-3
p564
aVthe-2
p565
aa(lp566
Vnsubj
p567
aVsold-4
p568
aVschool-3
p569
aa(lp570
Vadvcl
p571
aVsell-16
p572
aVsold-4
p573
aa(lp574
Vnum
p575
aVtickets-6
p576
aV20-5
p577
aa(lp578
Vdobj
p579
aVsold-4
p580
aVtickets-6
p581
aa(lp582
Vprep_in
p583
aVsold-4
p584
aVall-8
p585
aa(lp586
Vadvmod
p587
aVmany-11
p588
aVhow-10
p589
aa(lp590
Vamod
p591
aVtickets-13
p592
aVmany-11
p593
aa(lp594
Vamod
p595
aVtickets-13
p596
aVearly-admission-12
p597
aa(lp598
Vdobj
p599
aVsell-16
p600
aVtickets-13
p601
aa(lp602
Vaux
p603
aVsell-16
p604
aVdid-14
p605
aa(lp606
Vnsubj
p607
aVsell-16
p608
aVit-15
p609
aasas.