(dp0
Vcoref
p1
(lp2
(lp3
(lp4
(lp5
Vbaseball caps
p6
aI0
aI13
aI12
aI14
aa(lp7
V0.25 times of the 92 hats
p8
aI0
aI6
aI5
aI11
aaaasVsentences
p9
(lp10
(dp11
Vparsetree
p12
V(ROOT (S (PP (IN At) (NP (NP (NNP Johnny) (POS 's)) (NNS Hats))) (, ,) (NP (NP (CD 0.25) (NNS times)) (PP (IN of) (NP (DT the) (CD 92) (NNS hats)))) (VP (VBP are) (NP (NN baseball) (NNS caps))) (. .)))
p13
sVtext
p14
VAt Johnny's Hats , 0.25 times of the 92 hats are baseball caps .
p15
sVdependencies
p16
(lp17
(lp18
Vroot
p19
aVROOT
p20
aVcaps
p21
aa(lp22
Vposs
p23
aVHats
p24
aVJohnny
p25
aa(lp26
Vprep_at
p27
aVcaps
p28
aVHats
p29
aa(lp30
Vnum
p31
aVtimes
p32
aV0.25
p33
aa(lp34
Vnsubj
p35
aVcaps
p36
aVtimes
p37
aa(lp38
Vdet
p39
aVhats
p40
aVthe
p41
aa(lp42
Vnum
p43
aVhats
p44
aV92
p45
aa(lp46
Vprep_of
p47
aVtimes
p48
aVhats
p49
aa(lp50
Vcop
p51
aVcaps
p52
aVare
p53
aa(lp54
Vnn
p55
aVcaps
p56
aVbaseball
p57
aasVwords
p58
(lp59
(lp60
VAt
p61
a(dp62
VNamedEntityTag
p63
VO
p64
sVCharacterOffsetEnd
p65
V3
p66
sVCharacterOffsetBegin
p67
V1
p68
sVPartOfSpeech
p69
VIN
p70
sVLemma
p71
Vat
p72
saa(lp73
VJohnny
p74
a(dp75
VNamedEntityTag
p76
VPERSON
p77
sVCharacterOffsetEnd
p78
V10
p79
sVCharacterOffsetBegin
p80
V4
p81
sVPartOfSpeech
p82
VNNP
p83
sVLemma
p84
VJohnny
p85
saa(lp86
V's
p87
a(dp88
VNamedEntityTag
p89
g64
sVCharacterOffsetEnd
p90
V12
p91
sVCharacterOffsetBegin
p92
V10
p93
sVPartOfSpeech
p94
VPOS
p95
sVLemma
p96
V's
p97
saa(lp98
VHats
p99
a(dp100
VNamedEntityTag
p101
g64
sVCharacterOffsetEnd
p102
V17
p103
sVCharacterOffsetBegin
p104
V13
p105
sVPartOfSpeech
p106
VNNS
p107
sVLemma
p108
Vhat
p109
saa(lp110
V,
p111
a(dp112
VNamedEntityTag
p113
g64
sVCharacterOffsetEnd
p114
V19
p115
sVCharacterOffsetBegin
p116
V18
p117
sVPartOfSpeech
p118
g111
sVLemma
p119
g111
saa(lp120
V0.25
p121
a(dp122
VNormalizedNamedEntityTag
p123
V0.25
p124
sVLemma
p125
V0.25
p126
sVCharacterOffsetEnd
p127
V24
p128
sVPartOfSpeech
p129
VCD
p130
sVCharacterOffsetBegin
p131
V20
p132
sVNamedEntityTag
p133
VNUMBER
p134
saa(lp135
Vtimes
p136
a(dp137
VNamedEntityTag
p138
g64
sVCharacterOffsetEnd
p139
V30
p140
sVCharacterOffsetBegin
p141
V25
p142
sVPartOfSpeech
p143
VNNS
p144
sVLemma
p145
Vtime
p146
saa(lp147
Vof
p148
a(dp149
VNamedEntityTag
p150
g64
sVCharacterOffsetEnd
p151
V33
p152
sVCharacterOffsetBegin
p153
V31
p154
sVPartOfSpeech
p155
VIN
p156
sVLemma
p157
Vof
p158
saa(lp159
Vthe
p160
a(dp161
VNamedEntityTag
p162
g64
sVCharacterOffsetEnd
p163
V37
p164
sVCharacterOffsetBegin
p165
V34
p166
sVPartOfSpeech
p167
VDT
p168
sVLemma
p169
Vthe
p170
saa(lp171
V92
p172
a(dp173
VNormalizedNamedEntityTag
p174
V92.0
p175
sVLemma
p176
V92
p177
sVCharacterOffsetEnd
p178
V40
p179
sVPartOfSpeech
p180
VCD
p181
sVCharacterOffsetBegin
p182
V38
p183
sVNamedEntityTag
p184
VNUMBER
p185
saa(lp186
Vhats
p187
a(dp188
VNamedEntityTag
p189
g64
sVCharacterOffsetEnd
p190
V45
p191
sVCharacterOffsetBegin
p192
V41
p193
sVPartOfSpeech
p194
VNNS
p195
sVLemma
p196
Vhat
p197
saa(lp198
Vare
p199
a(dp200
VNamedEntityTag
p201
g64
sVCharacterOffsetEnd
p202
V49
p203
sVCharacterOffsetBegin
p204
V46
p205
sVPartOfSpeech
p206
VVBP
p207
sVLemma
p208
Vbe
p209
saa(lp210
Vbaseball
p211
a(dp212
VNamedEntityTag
p213
g64
sVCharacterOffsetEnd
p214
V58
p215
sVCharacterOffsetBegin
p216
V50
p217
sVPartOfSpeech
p218
VNN
p219
sVLemma
p220
Vbaseball
p221
saa(lp222
Vcaps
p223
a(dp224
VNamedEntityTag
p225
g64
sVCharacterOffsetEnd
p226
V63
p227
sVCharacterOffsetBegin
p228
V59
p229
sVPartOfSpeech
p230
VNNS
p231
sVLemma
p232
Vcap
p233
saa(lp234
V.
p235
a(dp236
VNamedEntityTag
p237
g64
sVCharacterOffsetEnd
p238
V65
p239
sVCharacterOffsetBegin
p240
V64
p241
sVPartOfSpeech
p242
g235
sVLemma
p243
g235
saasVindexeddependencies
p244
(lp245
(lp246
Vroot
p247
aVROOT-0
p248
aVcaps-14
p249
aa(lp250
Vposs
p251
aVHats-4
p252
aVJohnny-2
p253
aa(lp254
Vprep_at
p255
aVcaps-14
p256
aVHats-4
p257
aa(lp258
Vnum
p259
aVtimes-7
p260
aV0.25-6
p261
aa(lp262
Vnsubj
p263
aVcaps-14
p264
aVtimes-7
p265
aa(lp266
Vdet
p267
aVhats-11
p268
aVthe-9
p269
aa(lp270
Vnum
p271
aVhats-11
p272
aV92-10
p273
aa(lp274
Vprep_of
p275
aVtimes-7
p276
aVhats-11
p277
aa(lp278
Vcop
p279
aVcaps-14
p280
aVare-12
p281
aa(lp282
Vnn
p283
aVcaps-14
p284
aVbaseball-13
p285
aasa(dp286
Vparsetree
p287
V(ROOT (SBARQ (WHNP (WHADJP (WRB How) (JJ many)) (NN baseball) (NNS caps)) (SQ (VBP are) (NP (EX there))) (. ?)))
p288
sVtext
p289
VHow many baseball caps are there ?
p290
sVdependencies
p291
(lp292
(lp293
Vroot
p294
aVROOT
p295
aVare
p296
aa(lp297
Vadvmod
p298
aVmany
p299
aVHow
p300
aa(lp301
Vamod
p302
aVcaps
p303
aVmany
p304
aa(lp305
Vnn
p306
aVcaps
p307
aVbaseball
p308
aa(lp309
Vnsubj
p310
aVare
p311
aVcaps
p312
aa(lp313
Vexpl
p314
aVare
p315
aVthere
p316
aasVwords
p317
(lp318
(lp319
VHow
p320
a(dp321
VNamedEntityTag
p322
g64
sVCharacterOffsetEnd
p323
V69
p324
sVCharacterOffsetBegin
p325
V66
p326
sVPartOfSpeech
p327
VWRB
p328
sVLemma
p329
Vhow
p330
saa(lp331
Vmany
p332
a(dp333
VNamedEntityTag
p334
g64
sVCharacterOffsetEnd
p335
V74
p336
sVCharacterOffsetBegin
p337
V70
p338
sVPartOfSpeech
p339
VJJ
p340
sVLemma
p341
Vmany
p342
saa(lp343
Vbaseball
p344
a(dp345
VNamedEntityTag
p346
g64
sVCharacterOffsetEnd
p347
V83
p348
sVCharacterOffsetBegin
p349
V75
p350
sVPartOfSpeech
p351
VNN
p352
sVLemma
p353
Vbaseball
p354
saa(lp355
Vcaps
p356
a(dp357
VNamedEntityTag
p358
g64
sVCharacterOffsetEnd
p359
V88
p360
sVCharacterOffsetBegin
p361
V84
p362
sVPartOfSpeech
p363
VNNS
p364
sVLemma
p365
Vcap
p366
saa(lp367
Vare
p368
a(dp369
VNamedEntityTag
p370
g64
sVCharacterOffsetEnd
p371
V92
p372
sVCharacterOffsetBegin
p373
V89
p374
sVPartOfSpeech
p375
VVBP
p376
sVLemma
p377
Vbe
p378
saa(lp379
Vthere
p380
a(dp381
VNamedEntityTag
p382
g64
sVCharacterOffsetEnd
p383
V98
p384
sVCharacterOffsetBegin
p385
V93
p386
sVPartOfSpeech
p387
VEX
p388
sVLemma
p389
Vthere
p390
saa(lp391
V?
p392
a(dp393
VNamedEntityTag
p394
g64
sVCharacterOffsetEnd
p395
V100
p396
sVCharacterOffsetBegin
p397
V99
p398
sVPartOfSpeech
p399
g235
sVLemma
p400
g392
saasVindexeddependencies
p401
(lp402
(lp403
Vroot
p404
aVROOT-0
p405
aVare-5
p406
aa(lp407
Vadvmod
p408
aVmany-2
p409
aVHow-1
p410
aa(lp411
Vamod
p412
aVcaps-4
p413
aVmany-2
p414
aa(lp415
Vnn
p416
aVcaps-4
p417
aVbaseball-3
p418
aa(lp419
Vnsubj
p420
aVare-5
p421
aVcaps-4
p422
aa(lp423
Vexpl
p424
aVare-5
p425
aVthere-6
p426
aasas.