(dp0
Vcoref
p1
(lp2
(lp3
(lp4
(lp5
Vhe
p6
aI0
aI9
aI9
aI10
aa(lp7
VHanson
p8
aI0
aI0
aI0
aI1
aaa(lp9
(lp10
Vhe
p11
aI0
aI19
aI19
aI20
aa(lp12
VHanson
p13
aI0
aI0
aI0
aI1
aaa(lp14
(lp15
VHanson
p16
aI1
aI0
aI0
aI1
aa(lp17
VHanson
p18
aI0
aI0
aI0
aI1
aaa(lp19
(lp20
Vhe
p21
aI2
aI2
aI2
aI3
aa(lp22
VHanson
p23
aI0
aI0
aI0
aI1
aaa(lp24
(lp25
Vhe
p26
aI3
aI4
aI4
aI5
aa(lp27
VHanson
p28
aI0
aI0
aI0
aI1
aaaa(lp29
(lp30
(lp31
Vyesterday
p32
aI3
aI6
aI6
aI7
aa(lp33
VYesterday
p34
aI2
aI0
aI0
aI1
aaaasVsentences
p35
(lp36
(dp37
Vparsetree
p38
V(ROOT (S (S (NP (NNP Hanson)) (VP (VBZ is) (VP (VBG trying) (S (VP (TO to) (VP (VB drink) (NP (JJR more) (NN water)))))))) (, ,) (RB so) (S (NP (PRP he)) (VP (VBZ has) (VP (VBN been) (VP (VBG keeping) (NP (NP (DT a) (NN log)) (PP (IN of) (SBAR (WHNP (WHNP (WRB how) (JJ much)) (NP (NN water))) (S (NP (PRP he)) (VP (VBZ drinks)))))))))) (. .)))
p39
sVtext
p40
VHanson is trying to drink more water , so he has been keeping a log of how much water he drinks .
p41
sVdependencies
p42
(lp43
(lp44
Vroot
p45
aVROOT
p46
aVtrying
p47
aa(lp48
Vnsubj
p49
aVtrying
p50
aVHanson
p51
aa(lp52
Vaux
p53
aVtrying
p54
aVis
p55
aa(lp56
Vaux
p57
aVdrink
p58
aVto
p59
aa(lp60
Vxcomp
p61
aVtrying
p62
aVdrink
p63
aa(lp64
Vamod
p65
aVwater
p66
aVmore
p67
aa(lp68
Vdobj
p69
aVdrink
p70
aVwater
p71
aa(lp72
Vadvmod
p73
aVtrying
p74
aVso
p75
aa(lp76
Vnsubj
p77
aVkeeping
p78
aVhe
p79
aa(lp80
Vaux
p81
aVkeeping
p82
aVhas
p83
aa(lp84
Vaux
p85
aVkeeping
p86
aVbeen
p87
aa(lp88
Vparataxis
p89
aVtrying
p90
aVkeeping
p91
aa(lp92
Vdet
p93
aVlog
p94
aVa
p95
aa(lp96
Vdobj
p97
aVkeeping
p98
aVlog
p99
aa(lp100
Vadvmod
p101
aVmuch
p102
aVhow
p103
aa(lp104
Vdobj
p105
aVdrinks
p106
aVmuch
p107
aa(lp108
Vdep
p109
aVmuch
p110
aVwater
p111
aa(lp112
Vnsubj
p113
aVdrinks
p114
aVhe
p115
aa(lp116
Vprepc_of
p117
aVlog
p118
aVdrinks
p119
aasVwords
p120
(lp121
(lp122
VHanson
p123
a(dp124
VNamedEntityTag
p125
VPERSON
p126
sVCharacterOffsetEnd
p127
V7
p128
sVCharacterOffsetBegin
p129
V1
p130
sVPartOfSpeech
p131
VNNP
p132
sVLemma
p133
VHanson
p134
saa(lp135
Vis
p136
a(dp137
VNamedEntityTag
p138
VO
p139
sVCharacterOffsetEnd
p140
V10
p141
sVCharacterOffsetBegin
p142
V8
p143
sVPartOfSpeech
p144
VVBZ
p145
sVLemma
p146
Vbe
p147
saa(lp148
Vtrying
p149
a(dp150
VNamedEntityTag
p151
g139
sVCharacterOffsetEnd
p152
V17
p153
sVCharacterOffsetBegin
p154
V11
p155
sVPartOfSpeech
p156
VVBG
p157
sVLemma
p158
Vtry
p159
saa(lp160
Vto
p161
a(dp162
VNamedEntityTag
p163
g139
sVCharacterOffsetEnd
p164
V20
p165
sVCharacterOffsetBegin
p166
V18
p167
sVPartOfSpeech
p168
VTO
p169
sVLemma
p170
Vto
p171
saa(lp172
Vdrink
p173
a(dp174
VNamedEntityTag
p175
g139
sVCharacterOffsetEnd
p176
V26
p177
sVCharacterOffsetBegin
p178
V21
p179
sVPartOfSpeech
p180
VVB
p181
sVLemma
p182
Vdrink
p183
saa(lp184
Vmore
p185
a(dp186
VNamedEntityTag
p187
g139
sVCharacterOffsetEnd
p188
V31
p189
sVCharacterOffsetBegin
p190
V27
p191
sVPartOfSpeech
p192
VJJR
p193
sVLemma
p194
Vmore
p195
saa(lp196
Vwater
p197
a(dp198
VNamedEntityTag
p199
g139
sVCharacterOffsetEnd
p200
V37
p201
sVCharacterOffsetBegin
p202
V32
p203
sVPartOfSpeech
p204
VNN
p205
sVLemma
p206
Vwater
p207
saa(lp208
V,
p209
a(dp210
VNamedEntityTag
p211
g139
sVCharacterOffsetEnd
p212
V39
p213
sVCharacterOffsetBegin
p214
V38
p215
sVPartOfSpeech
p216
g209
sVLemma
p217
g209
saa(lp218
Vso
p219
a(dp220
VNamedEntityTag
p221
g139
sVCharacterOffsetEnd
p222
V42
p223
sVCharacterOffsetBegin
p224
V40
p225
sVPartOfSpeech
p226
VRB
p227
sVLemma
p228
Vso
p229
saa(lp230
Vhe
p231
a(dp232
VNamedEntityTag
p233
g139
sVCharacterOffsetEnd
p234
V45
p235
sVCharacterOffsetBegin
p236
V43
p237
sVPartOfSpeech
p238
VPRP
p239
sVLemma
p240
Vhe
p241
saa(lp242
Vhas
p243
a(dp244
VNamedEntityTag
p245
g139
sVCharacterOffsetEnd
p246
V49
p247
sVCharacterOffsetBegin
p248
V46
p249
sVPartOfSpeech
p250
VVBZ
p251
sVLemma
p252
Vhave
p253
saa(lp254
Vbeen
p255
a(dp256
VNamedEntityTag
p257
g139
sVCharacterOffsetEnd
p258
V54
p259
sVCharacterOffsetBegin
p260
V50
p261
sVPartOfSpeech
p262
VVBN
p263
sVLemma
p264
Vbe
p265
saa(lp266
Vkeeping
p267
a(dp268
VNamedEntityTag
p269
g139
sVCharacterOffsetEnd
p270
V62
p271
sVCharacterOffsetBegin
p272
V55
p273
sVPartOfSpeech
p274
VVBG
p275
sVLemma
p276
Vkeep
p277
saa(lp278
g95
a(dp279
VNamedEntityTag
p280
g139
sVCharacterOffsetEnd
p281
V64
p282
sVCharacterOffsetBegin
p283
V63
p284
sVPartOfSpeech
p285
VDT
p286
sVLemma
p287
g95
saa(lp288
Vlog
p289
a(dp290
VNamedEntityTag
p291
g139
sVCharacterOffsetEnd
p292
V68
p293
sVCharacterOffsetBegin
p294
V65
p295
sVPartOfSpeech
p296
VNN
p297
sVLemma
p298
Vlog
p299
saa(lp300
Vof
p301
a(dp302
VNamedEntityTag
p303
g139
sVCharacterOffsetEnd
p304
V71
p305
sVCharacterOffsetBegin
p306
V69
p307
sVPartOfSpeech
p308
VIN
p309
sVLemma
p310
Vof
p311
saa(lp312
Vhow
p313
a(dp314
VNamedEntityTag
p315
g139
sVCharacterOffsetEnd
p316
V75
p317
sVCharacterOffsetBegin
p318
V72
p319
sVPartOfSpeech
p320
VWRB
p321
sVLemma
p322
Vhow
p323
saa(lp324
Vmuch
p325
a(dp326
VNamedEntityTag
p327
g139
sVCharacterOffsetEnd
p328
V80
p329
sVCharacterOffsetBegin
p330
V76
p331
sVPartOfSpeech
p332
VJJ
p333
sVLemma
p334
Vmuch
p335
saa(lp336
Vwater
p337
a(dp338
VNamedEntityTag
p339
g139
sVCharacterOffsetEnd
p340
V86
p341
sVCharacterOffsetBegin
p342
V81
p343
sVPartOfSpeech
p344
VNN
p345
sVLemma
p346
Vwater
p347
saa(lp348
Vhe
p349
a(dp350
VNamedEntityTag
p351
g139
sVCharacterOffsetEnd
p352
V89
p353
sVCharacterOffsetBegin
p354
V87
p355
sVPartOfSpeech
p356
VPRP
p357
sVLemma
p358
Vhe
p359
saa(lp360
Vdrinks
p361
a(dp362
VNamedEntityTag
p363
g139
sVCharacterOffsetEnd
p364
V96
p365
sVCharacterOffsetBegin
p366
V90
p367
sVPartOfSpeech
p368
VVBZ
p369
sVLemma
p370
Vdrink
p371
saa(lp372
V.
p373
a(dp374
VNamedEntityTag
p375
g139
sVCharacterOffsetEnd
p376
V98
p377
sVCharacterOffsetBegin
p378
V97
p379
sVPartOfSpeech
p380
g373
sVLemma
p381
g373
saasVindexeddependencies
p382
(lp383
(lp384
Vroot
p385
aVROOT-0
p386
aVtrying-3
p387
aa(lp388
Vnsubj
p389
aVtrying-3
p390
aVHanson-1
p391
aa(lp392
Vaux
p393
aVtrying-3
p394
aVis-2
p395
aa(lp396
Vaux
p397
aVdrink-5
p398
aVto-4
p399
aa(lp400
Vxcomp
p401
aVtrying-3
p402
aVdrink-5
p403
aa(lp404
Vamod
p405
aVwater-7
p406
aVmore-6
p407
aa(lp408
Vdobj
p409
aVdrink-5
p410
aVwater-7
p411
aa(lp412
Vadvmod
p413
aVtrying-3
p414
aVso-9
p415
aa(lp416
Vnsubj
p417
aVkeeping-13
p418
aVhe-10
p419
aa(lp420
Vaux
p421
aVkeeping-13
p422
aVhas-11
p423
aa(lp424
Vaux
p425
aVkeeping-13
p426
aVbeen-12
p427
aa(lp428
Vparataxis
p429
aVtrying-3
p430
aVkeeping-13
p431
aa(lp432
Vdet
p433
aVlog-15
p434
aVa-14
p435
aa(lp436
Vdobj
p437
aVkeeping-13
p438
aVlog-15
p439
aa(lp440
Vadvmod
p441
aVmuch-18
p442
aVhow-17
p443
aa(lp444
Vdobj
p445
aVdrinks-21
p446
aVmuch-18
p447
aa(lp448
Vdep
p449
aVmuch-18
p450
aVwater-19
p451
aa(lp452
Vnsubj
p453
aVdrinks-21
p454
aVhe-20
p455
aa(lp456
Vprepc_of
p457
aVlog-15
p458
aVdrinks-21
p459
aasa(dp460
Vparsetree
p461
V(ROOT (S (NP (NNP Hanson)) (VP (VBD drank) (NP (NP (CD 70) (NNS ounces)) (PP (IN of) (NP (NN water)))) (NP-TMP (CD two) (NNS days) (RB ago))) (. .)))
p462
sVtext
p463
VHanson drank 70 ounces of water two days ago .
p464
sVdependencies
p465
(lp466
(lp467
Vroot
p468
aVROOT
p469
aVdrank
p470
aa(lp471
Vnsubj
p472
aVdrank
p473
aVHanson
p474
aa(lp475
Vnum
p476
aVounces
p477
aV70
p478
aa(lp479
Vdobj
p480
aVdrank
p481
aVounces
p482
aa(lp483
Vprep_of
p484
aVounces
p485
aVwater
p486
aa(lp487
Vnum
p488
aVdays
p489
aVtwo
p490
aa(lp491
Vtmod
p492
aVdrank
p493
aVdays
p494
aa(lp495
Vadvmod
p496
aVdays
p497
aVago
p498
aasVwords
p499
(lp500
(lp501
VHanson
p502
a(dp503
VNamedEntityTag
p504
VPERSON
p505
sVCharacterOffsetEnd
p506
V105
p507
sVCharacterOffsetBegin
p508
V99
p509
sVPartOfSpeech
p510
VNNP
p511
sVLemma
p512
VHanson
p513
saa(lp514
Vdrank
p515
a(dp516
VNamedEntityTag
p517
g139
sVCharacterOffsetEnd
p518
V111
p519
sVCharacterOffsetBegin
p520
V106
p521
sVPartOfSpeech
p522
VVBD
p523
sVLemma
p524
Vdrink
p525
saa(lp526
V70
p527
a(dp528
VNormalizedNamedEntityTag
p529
V70.0
p530
sVLemma
p531
V70
p532
sVCharacterOffsetEnd
p533
V114
p534
sVPartOfSpeech
p535
VCD
p536
sVCharacterOffsetBegin
p537
V112
p538
sVNamedEntityTag
p539
VNUMBER
p540
saa(lp541
Vounces
p542
a(dp543
VNamedEntityTag
p544
g139
sVCharacterOffsetEnd
p545
V121
p546
sVCharacterOffsetBegin
p547
V115
p548
sVPartOfSpeech
p549
VNNS
p550
sVLemma
p551
Vounce
p552
saa(lp553
Vof
p554
a(dp555
VNamedEntityTag
p556
g139
sVCharacterOffsetEnd
p557
V124
p558
sVCharacterOffsetBegin
p559
V122
p560
sVPartOfSpeech
p561
VIN
p562
sVLemma
p563
Vof
p564
saa(lp565
Vwater
p566
a(dp567
VNamedEntityTag
p568
g139
sVCharacterOffsetEnd
p569
V130
p570
sVCharacterOffsetBegin
p571
V125
p572
sVPartOfSpeech
p573
VNN
p574
sVLemma
p575
Vwater
p576
saa(lp577
Vtwo
p578
a(dp579
VNormalizedNamedEntityTag
p580
VOFFSET
p581
sVTimex
p582
V<TIMEX3 alt_value="OFFSET P-2D" anchorTimeID="t0" temporalFunction="true" tid="t1" type="DATE" valueFromFunction="tf0">two days ago</TIMEX3>
p583
sVLemma
p584
Vtwo
p585
sVCharacterOffsetEnd
p586
V134
p587
sVPartOfSpeech
p588
VCD
p589
sVCharacterOffsetBegin
p590
V131
p591
sVNamedEntityTag
p592
VDATE
p593
saa(lp594
Vdays
p595
a(dp596
VNormalizedNamedEntityTag
p597
VOFFSET
p598
sVTimex
p599
V<TIMEX3 alt_value="OFFSET P-2D" anchorTimeID="t0" temporalFunction="true" tid="t1" type="DATE" valueFromFunction="tf0">two days ago</TIMEX3>
p600
sVLemma
p601
Vday
p602
sVCharacterOffsetEnd
p603
V139
p604
sVPartOfSpeech
p605
VNNS
p606
sVCharacterOffsetBegin
p607
V135
p608
sVNamedEntityTag
p609
VDATE
p610
saa(lp611
Vago
p612
a(dp613
VNormalizedNamedEntityTag
p614
VOFFSET
p615
sVTimex
p616
V<TIMEX3 alt_value="OFFSET P-2D" anchorTimeID="t0" temporalFunction="true" tid="t1" type="DATE" valueFromFunction="tf0">two days ago</TIMEX3>
p617
sVLemma
p618
Vago
p619
sVCharacterOffsetEnd
p620
V143
p621
sVPartOfSpeech
p622
VRB
p623
sVCharacterOffsetBegin
p624
V140
p625
sVNamedEntityTag
p626
VDATE
p627
saa(lp628
g373
a(dp629
VNamedEntityTag
p630
g139
sVCharacterOffsetEnd
p631
V145
p632
sVCharacterOffsetBegin
p633
V144
p634
sVPartOfSpeech
p635
g373
sVLemma
p636
g373
saasVindexeddependencies
p637
(lp638
(lp639
Vroot
p640
aVROOT-0
p641
aVdrank-2
p642
aa(lp643
Vnsubj
p644
aVdrank-2
p645
aVHanson-1
p646
aa(lp647
Vnum
p648
aVounces-4
p649
aV70-3
p650
aa(lp651
Vdobj
p652
aVdrank-2
p653
aVounces-4
p654
aa(lp655
Vprep_of
p656
aVounces-4
p657
aVwater-6
p658
aa(lp659
Vnum
p660
aVdays-8
p661
aVtwo-7
p662
aa(lp663
Vtmod
p664
aVdrank-2
p665
aVdays-8
p666
aa(lp667
Vadvmod
p668
aVdays-8
p669
aVago-9
p670
aasa(dp671
Vparsetree
p672
V(ROOT (S (NP-TMP (NN Yesterday)) (, ,) (NP (PRP he)) (VP (VBD drank) (NP (QP (CD 0.2) (NNS times) (RBR less)))) (. .)))
p673
sVtext
p674
VYesterday , he drank 0.2 times less .
p675
sVdependencies
p676
(lp677
(lp678
Vroot
p679
aVROOT
p680
aVdrank
p681
aa(lp682
Vtmod
p683
aVdrank
p684
aVYesterday
p685
aa(lp686
Vnsubj
p687
aVdrank
p688
aVhe
p689
aa(lp690
Vnumber
p691
aVtimes
p692
aV0.2
p693
aa(lp694
Vdobj
p695
aVdrank
p696
aVtimes
p697
aa(lp698
Vquantmod
p699
aVtimes
p700
aVless
p701
aasVwords
p702
(lp703
(lp704
VYesterday
p705
a(dp706
VNormalizedNamedEntityTag
p707
VOFFSET
p708
sVTimex
p709
V<TIMEX3 alt_value="OFFSET P-1D" anchorTimeID="t0" temporalFunction="true" tid="t2" type="DATE" valueFromFunction="tf1">Yesterday</TIMEX3>
p710
sVLemma
p711
Vyesterday
p712
sVCharacterOffsetEnd
p713
V155
p714
sVPartOfSpeech
p715
VNN
p716
sVCharacterOffsetBegin
p717
V146
p718
sVNamedEntityTag
p719
VDATE
p720
saa(lp721
g209
a(dp722
VNamedEntityTag
p723
g139
sVCharacterOffsetEnd
p724
V157
p725
sVCharacterOffsetBegin
p726
V156
p727
sVPartOfSpeech
p728
g209
sVLemma
p729
g209
saa(lp730
Vhe
p731
a(dp732
VNamedEntityTag
p733
g139
sVCharacterOffsetEnd
p734
V160
p735
sVCharacterOffsetBegin
p736
V158
p737
sVPartOfSpeech
p738
VPRP
p739
sVLemma
p740
Vhe
p741
saa(lp742
Vdrank
p743
a(dp744
VNamedEntityTag
p745
g139
sVCharacterOffsetEnd
p746
V166
p747
sVCharacterOffsetBegin
p748
V161
p749
sVPartOfSpeech
p750
VVBD
p751
sVLemma
p752
Vdrink
p753
saa(lp754
V0.2
p755
a(dp756
VNormalizedNamedEntityTag
p757
V0.2
p758
sVLemma
p759
V0.2
p760
sVCharacterOffsetEnd
p761
V170
p762
sVPartOfSpeech
p763
VCD
p764
sVCharacterOffsetBegin
p765
V167
p766
sVNamedEntityTag
p767
VNUMBER
p768
saa(lp769
Vtimes
p770
a(dp771
VNamedEntityTag
p772
g139
sVCharacterOffsetEnd
p773
V176
p774
sVCharacterOffsetBegin
p775
V171
p776
sVPartOfSpeech
p777
VNNS
p778
sVLemma
p779
Vtime
p780
saa(lp781
Vless
p782
a(dp783
VNamedEntityTag
p784
g139
sVCharacterOffsetEnd
p785
V181
p786
sVCharacterOffsetBegin
p787
V177
p788
sVPartOfSpeech
p789
VRBR
p790
sVLemma
p791
Vless
p792
saa(lp793
g373
a(dp794
VNamedEntityTag
p795
g139
sVCharacterOffsetEnd
p796
V183
p797
sVCharacterOffsetBegin
p798
V182
p799
sVPartOfSpeech
p800
g373
sVLemma
p801
g373
saasVindexeddependencies
p802
(lp803
(lp804
Vroot
p805
aVROOT-0
p806
aVdrank-4
p807
aa(lp808
Vtmod
p809
aVdrank-4
p810
aVYesterday-1
p811
aa(lp812
Vnsubj
p813
aVdrank-4
p814
aVhe-3
p815
aa(lp816
Vnumber
p817
aVtimes-6
p818
aV0.2-5
p819
aa(lp820
Vdobj
p821
aVdrank-4
p822
aVtimes-6
p823
aa(lp824
Vquantmod
p825
aVtimes-6
p826
aVless-7
p827
aasa(dp828
Vparsetree
p829
V(ROOT (SBARQ (WHNP (WHNP (WRB How) (JJ much)) (NP (NN water))) (SQ (VBD did) (NP (PRP he)) (VP (VB drink) (NP-TMP (NN yesterday)))) (. ?)))
p830
sVtext
p831
VHow much water did he drink yesterday ?
p832
sVdependencies
p833
(lp834
(lp835
Vroot
p836
aVROOT
p837
aVdrink
p838
aa(lp839
Vadvmod
p840
aVmuch
p841
aVHow
p842
aa(lp843
Vdobj
p844
aVdrink
p845
aVmuch
p846
aa(lp847
Vdep
p848
aVmuch
p849
aVwater
p850
aa(lp851
Vaux
p852
aVdrink
p853
aVdid
p854
aa(lp855
Vnsubj
p856
aVdrink
p857
aVhe
p858
aa(lp859
Vtmod
p860
aVdrink
p861
aVyesterday
p862
aasVwords
p863
(lp864
(lp865
VHow
p866
a(dp867
VNamedEntityTag
p868
g139
sVCharacterOffsetEnd
p869
V187
p870
sVCharacterOffsetBegin
p871
V184
p872
sVPartOfSpeech
p873
VWRB
p874
sVLemma
p875
Vhow
p876
saa(lp877
Vmuch
p878
a(dp879
VNamedEntityTag
p880
g139
sVCharacterOffsetEnd
p881
V192
p882
sVCharacterOffsetBegin
p883
V188
p884
sVPartOfSpeech
p885
VJJ
p886
sVLemma
p887
Vmuch
p888
saa(lp889
Vwater
p890
a(dp891
VNamedEntityTag
p892
g139
sVCharacterOffsetEnd
p893
V198
p894
sVCharacterOffsetBegin
p895
V193
p896
sVPartOfSpeech
p897
VNN
p898
sVLemma
p899
Vwater
p900
saa(lp901
Vdid
p902
a(dp903
VNamedEntityTag
p904
g139
sVCharacterOffsetEnd
p905
V202
p906
sVCharacterOffsetBegin
p907
V199
p908
sVPartOfSpeech
p909
VVBD
p910
sVLemma
p911
Vdo
p912
saa(lp913
Vhe
p914
a(dp915
VNamedEntityTag
p916
g139
sVCharacterOffsetEnd
p917
V205
p918
sVCharacterOffsetBegin
p919
V203
p920
sVPartOfSpeech
p921
VPRP
p922
sVLemma
p923
Vhe
p924
saa(lp925
Vdrink
p926
a(dp927
VNamedEntityTag
p928
g139
sVCharacterOffsetEnd
p929
V211
p930
sVCharacterOffsetBegin
p931
V206
p932
sVPartOfSpeech
p933
VVB
p934
sVLemma
p935
Vdrink
p936
saa(lp937
Vyesterday
p938
a(dp939
VNormalizedNamedEntityTag
p940
VOFFSET
p941
sVTimex
p942
V<TIMEX3 alt_value="OFFSET P-1D" anchorTimeID="t0" temporalFunction="true" tid="t2" type="DATE" valueFromFunction="tf1">yesterday</TIMEX3>
p943
sVLemma
p944
Vyesterday
p945
sVCharacterOffsetEnd
p946
V221
p947
sVPartOfSpeech
p948
VNN
p949
sVCharacterOffsetBegin
p950
V212
p951
sVNamedEntityTag
p952
VDATE
p953
saa(lp954
V?
p955
a(dp956
VNamedEntityTag
p957
g139
sVCharacterOffsetEnd
p958
V223
p959
sVCharacterOffsetBegin
p960
V222
p961
sVPartOfSpeech
p962
g373
sVLemma
p963
g955
saasVindexeddependencies
p964
(lp965
(lp966
Vroot
p967
aVROOT-0
p968
aVdrink-6
p969
aa(lp970
Vadvmod
p971
aVmuch-2
p972
aVHow-1
p973
aa(lp974
Vdobj
p975
aVdrink-6
p976
aVmuch-2
p977
aa(lp978
Vdep
p979
aVmuch-2
p980
aVwater-3
p981
aa(lp982
Vaux
p983
aVdrink-6
p984
aVdid-4
p985
aa(lp986
Vnsubj
p987
aVdrink-6
p988
aVhe-5
p989
aa(lp990
Vtmod
p991
aVdrink-6
p992
aVyesterday-7
p993
aasas.