(dp0
Vcoref
p1
(lp2
(lp3
(lp4
(lp5
Vthat
p6
aI1
aI1
aI1
aI2
aa(lp7
Vthe advance-purchase deadline
p8
aI0
aI3
aI1
aI4
aaaa(lp9
(lp10
(lp11
Vthe cost
p12
aI2
aI3
aI2
aI4
aa(lp13
Vthe cost of attending a particular event
p14
aI0
aI6
aI5
aI12
aaaasVsentences
p15
(lp16
(dp17
Vparsetree
p18
V(ROOT (S (PP (IN Before) (NP (DT the) (JJ advance-purchase) (NN deadline))) (, ,) (NP (NP (DT the) (NN cost)) (PP (IN of) (S (VP (VBG attending) (NP (DT a) (JJ particular) (NN event)))))) (VP (VBZ is) (NP ($ $) (CD 70))) (. .)))
p19
sVtext
p20
VBefore the advance-purchase deadline , the cost of attending a particular event is $70 .
p21
sVdependencies
p22
(lp23
(lp24
Vroot
p25
aVROOT
p26
aV$
p27
aa(lp28
Vdet
p29
aVdeadline
p30
aVthe
p31
aa(lp32
Vamod
p33
aVdeadline
p34
aVadvance-purchase
p35
aa(lp36
Vprep_before
p37
ag27
aVdeadline
p38
aa(lp39
Vdet
p40
aVcost
p41
aVthe
p42
aa(lp43
Vnsubj
p44
ag27
aVcost
p45
aa(lp46
Vprepc_of
p47
aVcost
p48
aVattending
p49
aa(lp50
Vdet
p51
aVevent
p52
aVa
p53
aa(lp54
Vamod
p55
aVevent
p56
aVparticular
p57
aa(lp58
Vdobj
p59
aVattending
p60
aVevent
p61
aa(lp62
Vcop
p63
ag27
aVis
p64
aa(lp65
Vnum
p66
ag27
aV70
p67
aasVwords
p68
(lp69
(lp70
VBefore
p71
a(dp72
VNamedEntityTag
p73
VO
p74
sVCharacterOffsetEnd
p75
V7
p76
sVCharacterOffsetBegin
p77
V1
p78
sVPartOfSpeech
p79
VIN
p80
sVLemma
p81
Vbefore
p82
saa(lp83
Vthe
p84
a(dp85
VNamedEntityTag
p86
g74
sVCharacterOffsetEnd
p87
V11
p88
sVCharacterOffsetBegin
p89
V8
p90
sVPartOfSpeech
p91
VDT
p92
sVLemma
p93
Vthe
p94
saa(lp95
Vadvance-purchase
p96
a(dp97
VNamedEntityTag
p98
g74
sVCharacterOffsetEnd
p99
V28
p100
sVCharacterOffsetBegin
p101
V12
p102
sVPartOfSpeech
p103
VJJ
p104
sVLemma
p105
Vadvance-purchase
p106
saa(lp107
Vdeadline
p108
a(dp109
VNamedEntityTag
p110
g74
sVCharacterOffsetEnd
p111
V37
p112
sVCharacterOffsetBegin
p113
V29
p114
sVPartOfSpeech
p115
VNN
p116
sVLemma
p117
Vdeadline
p118
saa(lp119
V,
p120
a(dp121
VNamedEntityTag
p122
g74
sVCharacterOffsetEnd
p123
V39
p124
sVCharacterOffsetBegin
p125
V38
p126
sVPartOfSpeech
p127
g120
sVLemma
p128
g120
saa(lp129
Vthe
p130
a(dp131
VNamedEntityTag
p132
g74
sVCharacterOffsetEnd
p133
V43
p134
sVCharacterOffsetBegin
p135
V40
p136
sVPartOfSpeech
p137
VDT
p138
sVLemma
p139
Vthe
p140
saa(lp141
Vcost
p142
a(dp143
VNamedEntityTag
p144
g74
sVCharacterOffsetEnd
p145
V48
p146
sVCharacterOffsetBegin
p147
V44
p148
sVPartOfSpeech
p149
VNN
p150
sVLemma
p151
Vcost
p152
saa(lp153
Vof
p154
a(dp155
VNamedEntityTag
p156
g74
sVCharacterOffsetEnd
p157
V51
p158
sVCharacterOffsetBegin
p159
V49
p160
sVPartOfSpeech
p161
VIN
p162
sVLemma
p163
Vof
p164
saa(lp165
Vattending
p166
a(dp167
VNamedEntityTag
p168
g74
sVCharacterOffsetEnd
p169
V61
p170
sVCharacterOffsetBegin
p171
V52
p172
sVPartOfSpeech
p173
VVBG
p174
sVLemma
p175
Vattend
p176
saa(lp177
g53
a(dp178
VNamedEntityTag
p179
g74
sVCharacterOffsetEnd
p180
V63
p181
sVCharacterOffsetBegin
p182
V62
p183
sVPartOfSpeech
p184
VDT
p185
sVLemma
p186
g53
saa(lp187
Vparticular
p188
a(dp189
VNamedEntityTag
p190
g74
sVCharacterOffsetEnd
p191
V74
p192
sVCharacterOffsetBegin
p193
V64
p194
sVPartOfSpeech
p195
VJJ
p196
sVLemma
p197
Vparticular
p198
saa(lp199
Vevent
p200
a(dp201
VNamedEntityTag
p202
g74
sVCharacterOffsetEnd
p203
V80
p204
sVCharacterOffsetBegin
p205
V75
p206
sVPartOfSpeech
p207
VNN
p208
sVLemma
p209
Vevent
p210
saa(lp211
Vis
p212
a(dp213
VNamedEntityTag
p214
g74
sVCharacterOffsetEnd
p215
V83
p216
sVCharacterOffsetBegin
p217
V81
p218
sVPartOfSpeech
p219
VVBZ
p220
sVLemma
p221
Vbe
p222
saa(lp223
g27
a(dp224
VNormalizedNamedEntityTag
p225
V$70.0
p226
sVLemma
p227
g27
sVCharacterOffsetEnd
p228
V85
p229
sVPartOfSpeech
p230
g27
sVCharacterOffsetBegin
p231
V84
p232
sVNamedEntityTag
p233
VMONEY
p234
saa(lp235
V70
p236
a(dp237
VNormalizedNamedEntityTag
p238
V$70.0
p239
sVLemma
p240
V70
p241
sVCharacterOffsetEnd
p242
V87
p243
sVPartOfSpeech
p244
VCD
p245
sVCharacterOffsetBegin
p246
V85
p247
sVNamedEntityTag
p248
VMONEY
p249
saa(lp250
V.
p251
a(dp252
VNamedEntityTag
p253
g74
sVCharacterOffsetEnd
p254
V89
p255
sVCharacterOffsetBegin
p256
V88
p257
sVPartOfSpeech
p258
g251
sVLemma
p259
g251
saasVindexeddependencies
p260
(lp261
(lp262
Vroot
p263
aVROOT-0
p264
aV$-14
p265
aa(lp266
Vdet
p267
aVdeadline-4
p268
aVthe-2
p269
aa(lp270
Vamod
p271
aVdeadline-4
p272
aVadvance-purchase-3
p273
aa(lp274
Vprep_before
p275
aV$-14
p276
aVdeadline-4
p277
aa(lp278
Vdet
p279
aVcost-7
p280
aVthe-6
p281
aa(lp282
Vnsubj
p283
aV$-14
p284
aVcost-7
p285
aa(lp286
Vprepc_of
p287
aVcost-7
p288
aVattending-9
p289
aa(lp290
Vdet
p291
aVevent-12
p292
aVa-10
p293
aa(lp294
Vamod
p295
aVevent-12
p296
aVparticular-11
p297
aa(lp298
Vdobj
p299
aVattending-9
p300
aVevent-12
p301
aa(lp302
Vcop
p303
aV$-14
p304
aVis-13
p305
aa(lp306
Vnum
p307
aV$-14
p308
aV70-15
p309
aasa(dp310
Vparsetree
p311
V(ROOT (S (PP (IN After) (NP (DT that))) (, ,) (NP (DT the) (NN price)) (VP (VBZ increases) (NP (CD 0.2) (NNS times))) (. .)))
p312
sVtext
p313
VAfter that , the price increases 0.2 times .
p314
sVdependencies
p315
(lp316
(lp317
Vroot
p318
aVROOT
p319
aVincreases
p320
aa(lp321
Vprep_after
p322
aVincreases
p323
aVthat
p324
aa(lp325
Vdet
p326
aVprice
p327
aVthe
p328
aa(lp329
Vnsubj
p330
aVincreases
p331
aVprice
p332
aa(lp333
Vnum
p334
aVtimes
p335
aV0.2
p336
aa(lp337
Vdobj
p338
aVincreases
p339
aVtimes
p340
aasVwords
p341
(lp342
(lp343
VAfter
p344
a(dp345
VNamedEntityTag
p346
g74
sVCharacterOffsetEnd
p347
V95
p348
sVCharacterOffsetBegin
p349
V90
p350
sVPartOfSpeech
p351
VIN
p352
sVLemma
p353
Vafter
p354
saa(lp355
Vthat
p356
a(dp357
VNamedEntityTag
p358
g74
sVCharacterOffsetEnd
p359
V100
p360
sVCharacterOffsetBegin
p361
V96
p362
sVPartOfSpeech
p363
VDT
p364
sVLemma
p365
Vthat
p366
saa(lp367
g120
a(dp368
VNamedEntityTag
p369
g74
sVCharacterOffsetEnd
p370
V102
p371
sVCharacterOffsetBegin
p372
V101
p373
sVPartOfSpeech
p374
g120
sVLemma
p375
g120
saa(lp376
Vthe
p377
a(dp378
VNamedEntityTag
p379
g74
sVCharacterOffsetEnd
p380
V106
p381
sVCharacterOffsetBegin
p382
V103
p383
sVPartOfSpeech
p384
VDT
p385
sVLemma
p386
Vthe
p387
saa(lp388
Vprice
p389
a(dp390
VNamedEntityTag
p391
g74
sVCharacterOffsetEnd
p392
V112
p393
sVCharacterOffsetBegin
p394
V107
p395
sVPartOfSpeech
p396
VNN
p397
sVLemma
p398
Vprice
p399
saa(lp400
Vincreases
p401
a(dp402
VNamedEntityTag
p403
g74
sVCharacterOffsetEnd
p404
V122
p405
sVCharacterOffsetBegin
p406
V113
p407
sVPartOfSpeech
p408
VVBZ
p409
sVLemma
p410
Vincrease
p411
saa(lp412
V0.2
p413
a(dp414
VNormalizedNamedEntityTag
p415
V0.2
p416
sVLemma
p417
V0.2
p418
sVCharacterOffsetEnd
p419
V126
p420
sVPartOfSpeech
p421
VCD
p422
sVCharacterOffsetBegin
p423
V123
p424
sVNamedEntityTag
p425
VNUMBER
p426
saa(lp427
Vtimes
p428
a(dp429
VNamedEntityTag
p430
g74
sVCharacterOffsetEnd
p431
V132
p432
sVCharacterOffsetBegin
p433
V127
p434
sVPartOfSpeech
p435
VNNS
p436
sVLemma
p437
Vtime
p438
saa(lp439
g251
a(dp440
VNamedEntityTag
p441
g74
sVCharacterOffsetEnd
p442
V134
p443
sVCharacterOffsetBegin
p444
V133
p445
sVPartOfSpeech
p446
g251
sVLemma
p447
g251
saasVindexeddependencies
p448
(lp449
(lp450
Vroot
p451
aVROOT-0
p452
aVincreases-6
p453
aa(lp454
Vprep_after
p455
aVincreases-6
p456
aVthat-2
p457
aa(lp458
Vdet
p459
aVprice-5
p460
aVthe-4
p461
aa(lp462
Vnsubj
p463
aVincreases-6
p464
aVprice-5
p465
aa(lp466
Vnum
p467
aVtimes-8
p468
aV0.2-7
p469
aa(lp470
Vdobj
p471
aVincreases-6
p472
aVtimes-8
p473
aasa(dp474
Vparsetree
p475
V(ROOT (SBARQ (WHNP (WP What)) (SQ (VBZ is) (NP (DT the) (NN cost)) (ADVP (RB then))) (. ?)))
p476
sVtext
p477
VWhat is the cost then ?
p478
sVdependencies
p479
(lp480
(lp481
Vroot
p482
aVROOT
p483
aVWhat
p484
aa(lp485
Vcop
p486
aVWhat
p487
aVis
p488
aa(lp489
Vdet
p490
aVcost
p491
aVthe
p492
aa(lp493
Vnsubj
p494
aVWhat
p495
aVcost
p496
aa(lp497
Vadvmod
p498
aVWhat
p499
aVthen
p500
aasVwords
p501
(lp502
(lp503
VWhat
p504
a(dp505
VNamedEntityTag
p506
g74
sVCharacterOffsetEnd
p507
V139
p508
sVCharacterOffsetBegin
p509
V135
p510
sVPartOfSpeech
p511
VWP
p512
sVLemma
p513
Vwhat
p514
saa(lp515
Vis
p516
a(dp517
VNamedEntityTag
p518
g74
sVCharacterOffsetEnd
p519
V142
p520
sVCharacterOffsetBegin
p521
V140
p522
sVPartOfSpeech
p523
VVBZ
p524
sVLemma
p525
Vbe
p526
saa(lp527
Vthe
p528
a(dp529
VNamedEntityTag
p530
g74
sVCharacterOffsetEnd
p531
V146
p532
sVCharacterOffsetBegin
p533
V143
p534
sVPartOfSpeech
p535
VDT
p536
sVLemma
p537
Vthe
p538
saa(lp539
Vcost
p540
a(dp541
VNamedEntityTag
p542
g74
sVCharacterOffsetEnd
p543
V151
p544
sVCharacterOffsetBegin
p545
V147
p546
sVPartOfSpeech
p547
VNN
p548
sVLemma
p549
Vcost
p550
saa(lp551
Vthen
p552
a(dp553
VNamedEntityTag
p554
g74
sVCharacterOffsetEnd
p555
V156
p556
sVCharacterOffsetBegin
p557
V152
p558
sVPartOfSpeech
p559
VRB
p560
sVLemma
p561
Vthen
p562
saa(lp563
V?
p564
a(dp565
VNamedEntityTag
p566
g74
sVCharacterOffsetEnd
p567
V158
p568
sVCharacterOffsetBegin
p569
V157
p570
sVPartOfSpeech
p571
g251
sVLemma
p572
g564
saasVindexeddependencies
p573
(lp574
(lp575
Vroot
p576
aVROOT-0
p577
aVWhat-1
p578
aa(lp579
Vcop
p580
aVWhat-1
p581
aVis-2
p582
aa(lp583
Vdet
p584
aVcost-4
p585
aVthe-3
p586
aa(lp587
Vnsubj
p588
aVWhat-1
p589
aVcost-4
p590
aa(lp591
Vadvmod
p592
aVWhat-1
p593
aVthen-5
p594
aasas.