(dp0
Vcoref
p1
(lp2
(lp3
(lp4
(lp5
VIt
p6
aI1
aI0
aI0
aI1
aa(lp7
VThe FAA
p8
aI0
aI1
aI0
aI2
aaaa(lp9
(lp10
(lp11
Vthis year
p12
aI2
aI3
aI2
aI4
aa(lp13
Vlast year
p14
aI1
aI5
aI4
aI6
aaaa(lp15
(lp16
(lp17
Vthe airline
p18
aI2
aI6
aI5
aI7
aa(lp19
Va particular airline
p20
aI1
aI9
aI7
aI10
aaaasVsentences
p21
(lp22
(dp23
Vparsetree
p24
V(ROOT (S (NP (DT The) (NNP FAA)) (VP (VBZ tracks) (NP (JJ average) (NN flight) (NNS delays))) (. .)))
p25
sVtext
p26
VThe FAA tracks average flight delays .
p27
sVdependencies
p28
(lp29
(lp30
Vroot
p31
aVROOT
p32
aVtracks
p33
aa(lp34
Vdet
p35
aVFAA
p36
aVThe
p37
aa(lp38
Vnsubj
p39
aVtracks
p40
aVFAA
p41
aa(lp42
Vamod
p43
aVdelays
p44
aVaverage
p45
aa(lp46
Vnn
p47
aVdelays
p48
aVflight
p49
aa(lp50
Vdobj
p51
aVtracks
p52
aVdelays
p53
aasVwords
p54
(lp55
(lp56
VThe
p57
a(dp58
VNamedEntityTag
p59
VO
p60
sVCharacterOffsetEnd
p61
V4
p62
sVCharacterOffsetBegin
p63
V1
p64
sVPartOfSpeech
p65
VDT
p66
sVLemma
p67
Vthe
p68
saa(lp69
VFAA
p70
a(dp71
VNamedEntityTag
p72
VORGANIZATION
p73
sVCharacterOffsetEnd
p74
V8
p75
sVCharacterOffsetBegin
p76
V5
p77
sVPartOfSpeech
p78
VNNP
p79
sVLemma
p80
VFAA
p81
saa(lp82
Vtracks
p83
a(dp84
VNamedEntityTag
p85
g60
sVCharacterOffsetEnd
p86
V15
p87
sVCharacterOffsetBegin
p88
V9
p89
sVPartOfSpeech
p90
VVBZ
p91
sVLemma
p92
Vtrack
p93
saa(lp94
Vaverage
p95
a(dp96
VNamedEntityTag
p97
g60
sVCharacterOffsetEnd
p98
V23
p99
sVCharacterOffsetBegin
p100
V16
p101
sVPartOfSpeech
p102
VJJ
p103
sVLemma
p104
Vaverage
p105
saa(lp106
Vflight
p107
a(dp108
VNamedEntityTag
p109
g60
sVCharacterOffsetEnd
p110
V30
p111
sVCharacterOffsetBegin
p112
V24
p113
sVPartOfSpeech
p114
VNN
p115
sVLemma
p116
Vflight
p117
saa(lp118
Vdelays
p119
a(dp120
VNamedEntityTag
p121
g60
sVCharacterOffsetEnd
p122
V37
p123
sVCharacterOffsetBegin
p124
V31
p125
sVPartOfSpeech
p126
VNNS
p127
sVLemma
p128
Vdelay
p129
saa(lp130
V.
p131
a(dp132
VNamedEntityTag
p133
g60
sVCharacterOffsetEnd
p134
V39
p135
sVCharacterOffsetBegin
p136
V38
p137
sVPartOfSpeech
p138
g131
sVLemma
p139
g131
saasVindexeddependencies
p140
(lp141
(lp142
Vroot
p143
aVROOT-0
p144
aVtracks-3
p145
aa(lp146
Vdet
p147
aVFAA-2
p148
aVThe-1
p149
aa(lp150
Vnsubj
p151
aVtracks-3
p152
aVFAA-2
p153
aa(lp154
Vamod
p155
aVdelays-6
p156
aVaverage-4
p157
aa(lp158
Vnn
p159
aVdelays-6
p160
aVflight-5
p161
aa(lp162
Vdobj
p163
aVtracks-3
p164
aVdelays-6
p165
aasa(dp166
Vparsetree
p167
V(ROOT (S (NP (PRP It)) (VP (VBD found) (SBAR (IN that) (, ,) (S (NP-TMP (JJ last) (NN year)) (, ,) (NP (DT a) (ADJP (JJ particular)) (NN airline)) (VP (VBD had) (NP (NP (DT an) (JJ average) (NN flight) (NN delay)) (PP (IN of) (NP (CD 5) (NNS minutes)))))))) (. .)))
p168
sVtext
p169
VIt found that , last year , a particular airline had an average flight delay of 5 minutes .
p170
sVdependencies
p171
(lp172
(lp173
Vroot
p174
aVROOT
p175
aVfound
p176
aa(lp177
Vnsubj
p178
aVfound
p179
aVIt
p180
aa(lp181
Vmark
p182
aVhad
p183
aVthat
p184
aa(lp185
Vamod
p186
aVyear
p187
aVlast
p188
aa(lp189
Vtmod
p190
aVhad
p191
aVyear
p192
aa(lp193
Vdet
p194
aVairline
p195
aVa
p196
aa(lp197
Vamod
p198
aVairline
p199
aVparticular
p200
aa(lp201
Vnsubj
p202
aVhad
p203
aVairline
p204
aa(lp205
Vccomp
p206
aVfound
p207
aVhad
p208
aa(lp209
Vdet
p210
aVdelay
p211
aVan
p212
aa(lp213
Vamod
p214
aVdelay
p215
aVaverage
p216
aa(lp217
Vnn
p218
aVdelay
p219
aVflight
p220
aa(lp221
Vdobj
p222
aVhad
p223
aVdelay
p224
aa(lp225
Vnum
p226
aVminutes
p227
ag77
aa(lp228
Vprep_of
p229
aVdelay
p230
aVminutes
p231
aasVwords
p232
(lp233
(lp234
VIt
p235
a(dp236
VNamedEntityTag
p237
g60
sVCharacterOffsetEnd
p238
V42
p239
sVCharacterOffsetBegin
p240
V40
p241
sVPartOfSpeech
p242
VPRP
p243
sVLemma
p244
Vit
p245
saa(lp246
Vfound
p247
a(dp248
VNamedEntityTag
p249
g60
sVCharacterOffsetEnd
p250
V48
p251
sVCharacterOffsetBegin
p252
V43
p253
sVPartOfSpeech
p254
VVBD
p255
sVLemma
p256
Vfind
p257
saa(lp258
Vthat
p259
a(dp260
VNamedEntityTag
p261
g60
sVCharacterOffsetEnd
p262
V53
p263
sVCharacterOffsetBegin
p264
V49
p265
sVPartOfSpeech
p266
VIN
p267
sVLemma
p268
Vthat
p269
saa(lp270
V,
p271
a(dp272
VNamedEntityTag
p273
g60
sVCharacterOffsetEnd
p274
V55
p275
sVCharacterOffsetBegin
p276
V54
p277
sVPartOfSpeech
p278
g271
sVLemma
p279
g271
saa(lp280
Vlast
p281
a(dp282
VNormalizedNamedEntityTag
p283
VTHIS
p284
sVTimex
p285
V<TIMEX3 alt_value="THIS P1Y OFFSET P-1Y" anchorTimeID="t2" temporalFunction="true" tid="t1" type="DATE" valueFromFunction="tf0">last year</TIMEX3>
p286
sVLemma
p287
Vlast
p288
sVCharacterOffsetEnd
p289
V60
p290
sVPartOfSpeech
p291
VJJ
p292
sVCharacterOffsetBegin
p293
V56
p294
sVNamedEntityTag
p295
VDATE
p296
saa(lp297
Vyear
p298
a(dp299
VNormalizedNamedEntityTag
p300
VTHIS
p301
sVTimex
p302
V<TIMEX3 alt_value="THIS P1Y OFFSET P-1Y" anchorTimeID="t2" temporalFunction="true" tid="t1" type="DATE" valueFromFunction="tf0">last year</TIMEX3>
p303
sVLemma
p304
Vyear
p305
sVCharacterOffsetEnd
p306
V65
p307
sVPartOfSpeech
p308
VNN
p309
sVCharacterOffsetBegin
p310
V61
p311
sVNamedEntityTag
p312
VDATE
p313
saa(lp314
g271
a(dp315
VNamedEntityTag
p316
g60
sVCharacterOffsetEnd
p317
V67
p318
sVCharacterOffsetBegin
p319
V66
p320
sVPartOfSpeech
p321
g271
sVLemma
p322
g271
saa(lp323
g196
a(dp324
VNamedEntityTag
p325
g60
sVCharacterOffsetEnd
p326
V69
p327
sVCharacterOffsetBegin
p328
V68
p329
sVPartOfSpeech
p330
VDT
p331
sVLemma
p332
g196
saa(lp333
Vparticular
p334
a(dp335
VNamedEntityTag
p336
g60
sVCharacterOffsetEnd
p337
V80
p338
sVCharacterOffsetBegin
p339
V70
p340
sVPartOfSpeech
p341
VJJ
p342
sVLemma
p343
Vparticular
p344
saa(lp345
Vairline
p346
a(dp347
VNamedEntityTag
p348
g60
sVCharacterOffsetEnd
p349
V88
p350
sVCharacterOffsetBegin
p351
V81
p352
sVPartOfSpeech
p353
VNN
p354
sVLemma
p355
Vairline
p356
saa(lp357
Vhad
p358
a(dp359
VNamedEntityTag
p360
g60
sVCharacterOffsetEnd
p361
V92
p362
sVCharacterOffsetBegin
p363
V89
p364
sVPartOfSpeech
p365
VVBD
p366
sVLemma
p367
Vhave
p368
saa(lp369
Van
p370
a(dp371
VNamedEntityTag
p372
g60
sVCharacterOffsetEnd
p373
V95
p374
sVCharacterOffsetBegin
p375
V93
p376
sVPartOfSpeech
p377
VDT
p378
sVLemma
p379
g196
saa(lp380
Vaverage
p381
a(dp382
VNamedEntityTag
p383
g60
sVCharacterOffsetEnd
p384
V103
p385
sVCharacterOffsetBegin
p386
V96
p387
sVPartOfSpeech
p388
VJJ
p389
sVLemma
p390
Vaverage
p391
saa(lp392
Vflight
p393
a(dp394
VNamedEntityTag
p395
g60
sVCharacterOffsetEnd
p396
V110
p397
sVCharacterOffsetBegin
p398
V104
p399
sVPartOfSpeech
p400
VNN
p401
sVLemma
p402
Vflight
p403
saa(lp404
Vdelay
p405
a(dp406
VNamedEntityTag
p407
g60
sVCharacterOffsetEnd
p408
V116
p409
sVCharacterOffsetBegin
p410
V111
p411
sVPartOfSpeech
p412
VNN
p413
sVLemma
p414
Vdelay
p415
saa(lp416
Vof
p417
a(dp418
VNamedEntityTag
p419
g60
sVCharacterOffsetEnd
p420
V119
p421
sVCharacterOffsetBegin
p422
V117
p423
sVPartOfSpeech
p424
VIN
p425
sVLemma
p426
Vof
p427
saa(lp428
g77
a(dp429
VNormalizedNamedEntityTag
p430
VPT5M
p431
sVTimex
p432
V<TIMEX3 tid="t3" type="DURATION" value="PT5M">5 minutes</TIMEX3>
p433
sVLemma
p434
g77
sVCharacterOffsetEnd
p435
V121
p436
sVPartOfSpeech
p437
VCD
p438
sVCharacterOffsetBegin
p439
V120
p440
sVNamedEntityTag
p441
VDURATION
p442
saa(lp443
Vminutes
p444
a(dp445
VNormalizedNamedEntityTag
p446
VPT5M
p447
sVTimex
p448
V<TIMEX3 tid="t3" type="DURATION" value="PT5M">5 minutes</TIMEX3>
p449
sVLemma
p450
Vminute
p451
sVCharacterOffsetEnd
p452
V129
p453
sVPartOfSpeech
p454
VNNS
p455
sVCharacterOffsetBegin
p456
V122
p457
sVNamedEntityTag
p458
VDURATION
p459
saa(lp460
g131
a(dp461
VNamedEntityTag
p462
g60
sVCharacterOffsetEnd
p463
V131
p464
sVCharacterOffsetBegin
p465
V130
p466
sVPartOfSpeech
p467
g131
sVLemma
p468
g131
saasVindexeddependencies
p469
(lp470
(lp471
Vroot
p472
aVROOT-0
p473
aVfound-2
p474
aa(lp475
Vnsubj
p476
aVfound-2
p477
aVIt-1
p478
aa(lp479
Vmark
p480
aVhad-11
p481
aVthat-3
p482
aa(lp483
Vamod
p484
aVyear-6
p485
aVlast-5
p486
aa(lp487
Vtmod
p488
aVhad-11
p489
aVyear-6
p490
aa(lp491
Vdet
p492
aVairline-10
p493
aVa-8
p494
aa(lp495
Vamod
p496
aVairline-10
p497
aVparticular-9
p498
aa(lp499
Vnsubj
p500
aVhad-11
p501
aVairline-10
p502
aa(lp503
Vccomp
p504
aVfound-2
p505
aVhad-11
p506
aa(lp507
Vdet
p508
aVdelay-15
p509
aVan-12
p510
aa(lp511
Vamod
p512
aVdelay-15
p513
aVaverage-13
p514
aa(lp515
Vnn
p516
aVdelay-15
p517
aVflight-14
p518
aa(lp519
Vdobj
p520
aVhad-11
p521
aVdelay-15
p522
aa(lp523
Vnum
p524
aVminutes-18
p525
aV5-17
p526
aa(lp527
Vprep_of
p528
aVdelay-15
p529
aVminutes-18
p530
aasa(dp531
Vparsetree
p532
V(ROOT (S (ADVP (RB So) (RB far)) (NP-TMP (DT this) (NN year)) (, ,) (NP (DT the) (NN airline)) (VP (VBZ has) (NP (NP (DT an) (NN average)) (SBAR (WHNP (WDT that)) (S (VP (VBZ is) (ADJP (NP (CD 0.4) (NNS times)) (JJR shorter))))))) (. .)))
p533
sVtext
p534
VSo far this year , the airline has an average that is 0.4 times shorter .
p535
sVdependencies
p536
(lp537
(lp538
Vroot
p539
aVROOT
p540
aVhas
p541
aa(lp542
Vadvmod
p543
aVfar
p544
aVSo
p545
aa(lp546
Vadvmod
p547
aVhas
p548
aVfar
p549
aa(lp550
Vdet
p551
aVyear
p552
aVthis
p553
aa(lp554
Vtmod
p555
aVhas
p556
aVyear
p557
aa(lp558
Vdet
p559
aVairline
p560
aVthe
p561
aa(lp562
Vnsubj
p563
aVhas
p564
aVairline
p565
aa(lp566
Vdet
p567
aVaverage
p568
aVan
p569
aa(lp570
Vdobj
p571
aVhas
p572
aVaverage
p573
aa(lp574
Vnsubj
p575
aVshorter
p576
aVthat
p577
aa(lp578
Vcop
p579
aVshorter
p580
aVis
p581
aa(lp582
Vnum
p583
aVtimes
p584
aV0.4
p585
aa(lp586
Vnpadvmod
p587
aVshorter
p588
aVtimes
p589
aa(lp590
Vrcmod
p591
aVaverage
p592
aVshorter
p593
aasVwords
p594
(lp595
(lp596
VSo
p597
a(dp598
VNamedEntityTag
p599
g60
sVCharacterOffsetEnd
p600
V134
p601
sVCharacterOffsetBegin
p602
V132
p603
sVPartOfSpeech
p604
VRB
p605
sVLemma
p606
Vso
p607
saa(lp608
Vfar
p609
a(dp610
VNamedEntityTag
p611
g60
sVCharacterOffsetEnd
p612
V138
p613
sVCharacterOffsetBegin
p614
V135
p615
sVPartOfSpeech
p616
VRB
p617
sVLemma
p618
Vfar
p619
saa(lp620
Vthis
p621
a(dp622
VNormalizedNamedEntityTag
p623
VTHIS
p624
sVTimex
p625
V<TIMEX3 alt_value="THIS P1Y" anchorTimeID="t0" temporalFunction="true" tid="t4" type="DATE" valueFromFunction="tf1">this year</TIMEX3>
p626
sVLemma
p627
Vthis
p628
sVCharacterOffsetEnd
p629
V143
p630
sVPartOfSpeech
p631
VDT
p632
sVCharacterOffsetBegin
p633
V139
p634
sVNamedEntityTag
p635
VDATE
p636
saa(lp637
Vyear
p638
a(dp639
VNormalizedNamedEntityTag
p640
VTHIS
p641
sVTimex
p642
V<TIMEX3 alt_value="THIS P1Y" anchorTimeID="t0" temporalFunction="true" tid="t4" type="DATE" valueFromFunction="tf1">this year</TIMEX3>
p643
sVLemma
p644
Vyear
p645
sVCharacterOffsetEnd
p646
V148
p647
sVPartOfSpeech
p648
VNN
p649
sVCharacterOffsetBegin
p650
V144
p651
sVNamedEntityTag
p652
VDATE
p653
saa(lp654
g271
a(dp655
VNamedEntityTag
p656
g60
sVCharacterOffsetEnd
p657
V150
p658
sVCharacterOffsetBegin
p659
V149
p660
sVPartOfSpeech
p661
g271
sVLemma
p662
g271
saa(lp663
Vthe
p664
a(dp665
VNamedEntityTag
p666
g60
sVCharacterOffsetEnd
p667
V154
p668
sVCharacterOffsetBegin
p669
V151
p670
sVPartOfSpeech
p671
VDT
p672
sVLemma
p673
Vthe
p674
saa(lp675
Vairline
p676
a(dp677
VNamedEntityTag
p678
g60
sVCharacterOffsetEnd
p679
V162
p680
sVCharacterOffsetBegin
p681
V155
p682
sVPartOfSpeech
p683
VNN
p684
sVLemma
p685
Vairline
p686
saa(lp687
Vhas
p688
a(dp689
VNamedEntityTag
p690
g60
sVCharacterOffsetEnd
p691
V166
p692
sVCharacterOffsetBegin
p693
V163
p694
sVPartOfSpeech
p695
VVBZ
p696
sVLemma
p697
Vhave
p698
saa(lp699
Van
p700
a(dp701
VNamedEntityTag
p702
g60
sVCharacterOffsetEnd
p703
V169
p704
sVCharacterOffsetBegin
p705
V167
p706
sVPartOfSpeech
p707
VDT
p708
sVLemma
p709
g196
saa(lp710
Vaverage
p711
a(dp712
VNamedEntityTag
p713
g60
sVCharacterOffsetEnd
p714
V177
p715
sVCharacterOffsetBegin
p716
V170
p717
sVPartOfSpeech
p718
VNN
p719
sVLemma
p720
Vaverage
p721
saa(lp722
Vthat
p723
a(dp724
VNamedEntityTag
p725
g60
sVCharacterOffsetEnd
p726
V182
p727
sVCharacterOffsetBegin
p728
V178
p729
sVPartOfSpeech
p730
VWDT
p731
sVLemma
p732
Vthat
p733
saa(lp734
Vis
p735
a(dp736
VNamedEntityTag
p737
g60
sVCharacterOffsetEnd
p738
V185
p739
sVCharacterOffsetBegin
p740
V183
p741
sVPartOfSpeech
p742
VVBZ
p743
sVLemma
p744
Vbe
p745
saa(lp746
V0.4
p747
a(dp748
VNormalizedNamedEntityTag
p749
V0.4
p750
sVLemma
p751
V0.4
p752
sVCharacterOffsetEnd
p753
V189
p754
sVPartOfSpeech
p755
VCD
p756
sVCharacterOffsetBegin
p757
V186
p758
sVNamedEntityTag
p759
VNUMBER
p760
saa(lp761
Vtimes
p762
a(dp763
VNamedEntityTag
p764
g60
sVCharacterOffsetEnd
p765
V195
p766
sVCharacterOffsetBegin
p767
V190
p768
sVPartOfSpeech
p769
VNNS
p770
sVLemma
p771
Vtime
p772
saa(lp773
Vshorter
p774
a(dp775
VNamedEntityTag
p776
g60
sVCharacterOffsetEnd
p777
V203
p778
sVCharacterOffsetBegin
p779
V196
p780
sVPartOfSpeech
p781
VJJR
p782
sVLemma
p783
Vshorter
p784
saa(lp785
g131
a(dp786
VNamedEntityTag
p787
g60
sVCharacterOffsetEnd
p788
V205
p789
sVCharacterOffsetBegin
p790
V204
p791
sVPartOfSpeech
p792
g131
sVLemma
p793
g131
saasVindexeddependencies
p794
(lp795
(lp796
Vroot
p797
aVROOT-0
p798
aVhas-8
p799
aa(lp800
Vadvmod
p801
aVfar-2
p802
aVSo-1
p803
aa(lp804
Vadvmod
p805
aVhas-8
p806
aVfar-2
p807
aa(lp808
Vdet
p809
aVyear-4
p810
aVthis-3
p811
aa(lp812
Vtmod
p813
aVhas-8
p814
aVyear-4
p815
aa(lp816
Vdet
p817
aVairline-7
p818
aVthe-6
p819
aa(lp820
Vnsubj
p821
aVhas-8
p822
aVairline-7
p823
aa(lp824
Vdet
p825
aVaverage-10
p826
aVan-9
p827
aa(lp828
Vdobj
p829
aVhas-8
p830
aVaverage-10
p831
aa(lp832
Vnsubj
p833
aVshorter-15
p834
aVthat-11
p835
aa(lp836
Vcop
p837
aVshorter-15
p838
aVis-12
p839
aa(lp840
Vnum
p841
aVtimes-14
p842
aV0.4-13
p843
aa(lp844
Vnpadvmod
p845
aVshorter-15
p846
aVtimes-14
p847
aa(lp848
Vrcmod
p849
aVaverage-10
p850
aVshorter-15
p851
aasa(dp852
Vparsetree
p853
V(ROOT (SBARQ (WHNP (WP What)) (SQ (VBZ is) (NP (NP (DT the) (JJ current) (NN year) (POS 's)) (NN average))) (. ?)))
p854
sVtext
p855
VWhat is the current year's average ?
p856
sVdependencies
p857
(lp858
(lp859
Vroot
p860
aVROOT
p861
aVWhat
p862
aa(lp863
Vcop
p864
aVWhat
p865
aVis
p866
aa(lp867
Vdet
p868
aVyear
p869
aVthe
p870
aa(lp871
Vamod
p872
aVyear
p873
aVcurrent
p874
aa(lp875
Vposs
p876
aVaverage
p877
aVyear
p878
aa(lp879
Vnsubj
p880
aVWhat
p881
aVaverage
p882
aasVwords
p883
(lp884
(lp885
VWhat
p886
a(dp887
VNamedEntityTag
p888
g60
sVCharacterOffsetEnd
p889
V210
p890
sVCharacterOffsetBegin
p891
V206
p892
sVPartOfSpeech
p893
VWP
p894
sVLemma
p895
Vwhat
p896
saa(lp897
Vis
p898
a(dp899
VNamedEntityTag
p900
g60
sVCharacterOffsetEnd
p901
V213
p902
sVCharacterOffsetBegin
p903
V211
p904
sVPartOfSpeech
p905
VVBZ
p906
sVLemma
p907
Vbe
p908
saa(lp909
Vthe
p910
a(dp911
VNormalizedNamedEntityTag
p912
VTHIS
p913
sVTimex
p914
V<TIMEX3 alt_value="THIS P1Y" anchorTimeID="t0" temporalFunction="true" tid="t4" type="DATE" valueFromFunction="tf1">the current year</TIMEX3>
p915
sVLemma
p916
Vthe
p917
sVCharacterOffsetEnd
p918
V217
p919
sVPartOfSpeech
p920
VDT
p921
sVCharacterOffsetBegin
p922
V214
p923
sVNamedEntityTag
p924
VDATE
p925
saa(lp926
Vcurrent
p927
a(dp928
VNormalizedNamedEntityTag
p929
VTHIS
p930
sVTimex
p931
V<TIMEX3 alt_value="THIS P1Y" anchorTimeID="t0" temporalFunction="true" tid="t4" type="DATE" valueFromFunction="tf1">the current year</TIMEX3>
p932
sVLemma
p933
Vcurrent
p934
sVCharacterOffsetEnd
p935
V225
p936
sVPartOfSpeech
p937
VJJ
p938
sVCharacterOffsetBegin
p939
V218
p940
sVNamedEntityTag
p941
VDATE
p942
saa(lp943
Vyear
p944
a(dp945
VNormalizedNamedEntityTag
p946
VTHIS
p947
sVTimex
p948
V<TIMEX3 alt_value="THIS P1Y" anchorTimeID="t0" temporalFunction="true" tid="t4" type="DATE" valueFromFunction="tf1">the current year</TIMEX3>
p949
sVLemma
p950
Vyear
p951
sVCharacterOffsetEnd
p952
V230
p953
sVPartOfSpeech
p954
VNN
p955
sVCharacterOffsetBegin
p956
V226
p957
sVNamedEntityTag
p958
VDATE
p959
saa(lp960
V's
p961
a(dp962
VNamedEntityTag
p963
g60
sVCharacterOffsetEnd
p964
V232
p965
sVCharacterOffsetBegin
p966
V230
p967
sVPartOfSpeech
p968
VPOS
p969
sVLemma
p970
V's
p971
saa(lp972
Vaverage
p973
a(dp974
VNamedEntityTag
p975
g60
sVCharacterOffsetEnd
p976
V240
p977
sVCharacterOffsetBegin
p978
V233
p979
sVPartOfSpeech
p980
VNN
p981
sVLemma
p982
Vaverage
p983
saa(lp984
V?
p985
a(dp986
VNamedEntityTag
p987
g60
sVCharacterOffsetEnd
p988
V242
p989
sVCharacterOffsetBegin
p990
V241
p991
sVPartOfSpeech
p992
g131
sVLemma
p993
g985
saasVindexeddependencies
p994
(lp995
(lp996
Vroot
p997
aVROOT-0
p998
aVWhat-1
p999
aa(lp1000
Vcop
p1001
aVWhat-1
p1002
aVis-2
p1003
aa(lp1004
Vdet
p1005
aVyear-5
p1006
aVthe-3
p1007
aa(lp1008
Vamod
p1009
aVyear-5
p1010
aVcurrent-4
p1011
aa(lp1012
Vposs
p1013
aVaverage-7
p1014
aVyear-5
p1015
aa(lp1016
Vnsubj
p1017
aVWhat-1
p1018
aVaverage-7
p1019
aasas.