(dp0
Vcoref
p1
(lp2
(lp3
(lp4
(lp5
VHaley
p6
aI2
aI6
aI6
aI7
aa(lp7
VHalloween Haley
p8
aI0
aI2
aI1
aI3
aaaa(lp9
(lp10
(lp11
Vpieces of candy
p12
aI2
aI2
aI2
aI5
aa(lp13
V33 pieces of candy
p14
aI0
aI5
aI4
aI8
aaaa(lp15
(lp16
(lp17
Vher
p18
aI1
aI9
aI9
aI10
aa(lp19
VShe
p20
aI1
aI0
aI0
aI1
aaaa(lp21
(lp22
(lp23
Vher
p24
aI1
aI12
aI12
aI13
aa(lp25
Vher sister
p26
aI1
aI10
aI9
aI11
aaaasVsentences
p27
(lp28
(dp29
Vparsetree
p30
V(ROOT (S (IN For) (NP (NNP Halloween) (NNP Haley)) (VP (VBD scored) (NP (NP (CD 33) (NNS pieces)) (PP (IN of) (NP (NN candy))))) (. .)))
p31
sVtext
p32
VFor Halloween Haley scored 33 pieces of candy .
p33
sVdependencies
p34
(lp35
(lp36
Vroot
p37
aVROOT
p38
aVscored
p39
aa(lp40
Vdep
p41
aVscored
p42
aVFor
p43
aa(lp44
Vnn
p45
aVHaley
p46
aVHalloween
p47
aa(lp48
Vnsubj
p49
aVscored
p50
aVHaley
p51
aa(lp52
Vnum
p53
aVpieces
p54
aV33
p55
aa(lp56
Vdobj
p57
aVscored
p58
aVpieces
p59
aa(lp60
Vprep_of
p61
aVpieces
p62
aVcandy
p63
aasVwords
p64
(lp65
(lp66
VFor
p67
a(dp68
VNamedEntityTag
p69
VO
p70
sVCharacterOffsetEnd
p71
V4
p72
sVCharacterOffsetBegin
p73
V1
p74
sVPartOfSpeech
p75
VIN
p76
sVLemma
p77
Vfor
p78
saa(lp79
VHalloween
p80
a(dp81
VTimex
p82
V<TIMEX3 tid="t1" type="DATE" value="XXXX-10-31">Halloween</TIMEX3>
p83
sVCharacterOffsetEnd
p84
V14
p85
sVLemma
p86
VHalloween
p87
sVPartOfSpeech
p88
VNNP
p89
sVCharacterOffsetBegin
p90
V5
p91
sVNamedEntityTag
p92
VPERSON
p93
saa(lp94
VHaley
p95
a(dp96
VNamedEntityTag
p97
VPERSON
p98
sVCharacterOffsetEnd
p99
V20
p100
sVCharacterOffsetBegin
p101
V15
p102
sVPartOfSpeech
p103
VNNP
p104
sVLemma
p105
VHaley
p106
saa(lp107
Vscored
p108
a(dp109
VNamedEntityTag
p110
g70
sVCharacterOffsetEnd
p111
V27
p112
sVCharacterOffsetBegin
p113
V21
p114
sVPartOfSpeech
p115
VVBD
p116
sVLemma
p117
Vscore
p118
saa(lp119
V33
p120
a(dp121
VNormalizedNamedEntityTag
p122
V33.0
p123
sVLemma
p124
V33
p125
sVCharacterOffsetEnd
p126
V30
p127
sVPartOfSpeech
p128
VCD
p129
sVCharacterOffsetBegin
p130
V28
p131
sVNamedEntityTag
p132
VNUMBER
p133
saa(lp134
Vpieces
p135
a(dp136
VNamedEntityTag
p137
g70
sVCharacterOffsetEnd
p138
V37
p139
sVCharacterOffsetBegin
p140
V31
p141
sVPartOfSpeech
p142
VNNS
p143
sVLemma
p144
Vpiece
p145
saa(lp146
Vof
p147
a(dp148
VNamedEntityTag
p149
g70
sVCharacterOffsetEnd
p150
V40
p151
sVCharacterOffsetBegin
p152
V38
p153
sVPartOfSpeech
p154
VIN
p155
sVLemma
p156
Vof
p157
saa(lp158
Vcandy
p159
a(dp160
VNamedEntityTag
p161
g70
sVCharacterOffsetEnd
p162
V46
p163
sVCharacterOffsetBegin
p164
V41
p165
sVPartOfSpeech
p166
VNN
p167
sVLemma
p168
Vcandy
p169
saa(lp170
V.
p171
a(dp172
VNamedEntityTag
p173
g70
sVCharacterOffsetEnd
p174
V48
p175
sVCharacterOffsetBegin
p176
V47
p177
sVPartOfSpeech
p178
g171
sVLemma
p179
g171
saasVindexeddependencies
p180
(lp181
(lp182
Vroot
p183
aVROOT-0
p184
aVscored-4
p185
aa(lp186
Vdep
p187
aVscored-4
p188
aVFor-1
p189
aa(lp190
Vnn
p191
aVHaley-3
p192
aVHalloween-2
p193
aa(lp194
Vnsubj
p195
aVscored-4
p196
aVHaley-3
p197
aa(lp198
Vnum
p199
aVpieces-6
p200
aV33-5
p201
aa(lp202
Vdobj
p203
aVscored-4
p204
aVpieces-6
p205
aa(lp206
Vprep_of
p207
aVpieces-6
p208
aVcandy-8
p209
aasa(dp210
Vparsetree
p211
V(ROOT (S (S (NP (PRP She)) (VP (VBD ate) (NP (CD 17) (NNS pieces)) (NP-TMP (DT the) (JJ first) (NN night)))) (CC and) (RB then) (S (NP (PRP$ her) (NN sister)) (VP (VBD gave) (NP (PRP$ her) (QP (CD 19) (JJR more)) (NNS pieces)))) (. .)))
p212
sVtext
p213
VShe ate 17 pieces the first night and then her sister gave her 19 more pieces .
p214
sVdependencies
p215
(lp216
(lp217
Vroot
p218
aVROOT
p219
aVate
p220
aa(lp221
Vnsubj
p222
aVate
p223
aVShe
p224
aa(lp225
Vnum
p226
aVpieces
p227
aV17
p228
aa(lp229
Vdobj
p230
aVate
p231
aVpieces
p232
aa(lp233
Vdet
p234
aVnight
p235
aVthe
p236
aa(lp237
Vamod
p238
aVnight
p239
aVfirst
p240
aa(lp241
Vtmod
p242
aVate
p243
aVnight
p244
aa(lp245
Vadvmod
p246
aVgave
p247
aVthen
p248
aa(lp249
Vposs
p250
aVsister
p251
aVher
p252
aa(lp253
Vnsubj
p254
aVgave
p255
aVsister
p256
aa(lp257
Vconj_and
p258
aVate
p259
aVgave
p260
aa(lp261
Vposs
p262
aVpieces
p263
aVher
p264
aa(lp265
Vnum
p266
aVpieces
p267
aV19
p268
aa(lp269
Vquantmod
p270
aV19
p271
aVmore
p272
aa(lp273
Vdobj
p274
aVgave
p275
aVpieces
p276
aasVwords
p277
(lp278
(lp279
VShe
p280
a(dp281
VNamedEntityTag
p282
g70
sVCharacterOffsetEnd
p283
V52
p284
sVCharacterOffsetBegin
p285
V49
p286
sVPartOfSpeech
p287
VPRP
p288
sVLemma
p289
Vshe
p290
saa(lp291
Vate
p292
a(dp293
VNamedEntityTag
p294
g70
sVCharacterOffsetEnd
p295
V56
p296
sVCharacterOffsetBegin
p297
V53
p298
sVPartOfSpeech
p299
VVBD
p300
sVLemma
p301
Veat
p302
saa(lp303
V17
p304
a(dp305
VNormalizedNamedEntityTag
p306
V17.0
p307
sVLemma
p308
V17
p309
sVCharacterOffsetEnd
p310
V59
p311
sVPartOfSpeech
p312
VCD
p313
sVCharacterOffsetBegin
p314
V57
p315
sVNamedEntityTag
p316
VNUMBER
p317
saa(lp318
Vpieces
p319
a(dp320
VNamedEntityTag
p321
g70
sVCharacterOffsetEnd
p322
V66
p323
sVCharacterOffsetBegin
p324
V60
p325
sVPartOfSpeech
p326
VNNS
p327
sVLemma
p328
Vpiece
p329
saa(lp330
Vthe
p331
a(dp332
VNamedEntityTag
p333
g70
sVCharacterOffsetEnd
p334
V70
p335
sVCharacterOffsetBegin
p336
V67
p337
sVPartOfSpeech
p338
VDT
p339
sVLemma
p340
Vthe
p341
saa(lp342
Vfirst
p343
a(dp344
VNormalizedNamedEntityTag
p345
V1.0
p346
sVLemma
p347
Vfirst
p348
sVCharacterOffsetEnd
p349
V76
p350
sVPartOfSpeech
p351
VJJ
p352
sVCharacterOffsetBegin
p353
V71
p354
sVNamedEntityTag
p355
VORDINAL
p356
saa(lp357
Vnight
p358
a(dp359
VNormalizedNamedEntityTag
p360
VTNI
p361
sVTimex
p362
V<TIMEX3 tid="t2" type="TIME" value="TNI">night</TIMEX3>
p363
sVLemma
p364
Vnight
p365
sVCharacterOffsetEnd
p366
V82
p367
sVPartOfSpeech
p368
VNN
p369
sVCharacterOffsetBegin
p370
V77
p371
sVNamedEntityTag
p372
VTIME
p373
saa(lp374
Vand
p375
a(dp376
VNamedEntityTag
p377
g70
sVCharacterOffsetEnd
p378
V86
p379
sVCharacterOffsetBegin
p380
V83
p381
sVPartOfSpeech
p382
VCC
p383
sVLemma
p384
Vand
p385
saa(lp386
Vthen
p387
a(dp388
VNamedEntityTag
p389
g70
sVCharacterOffsetEnd
p390
V91
p391
sVCharacterOffsetBegin
p392
V87
p393
sVPartOfSpeech
p394
VRB
p395
sVLemma
p396
Vthen
p397
saa(lp398
Vher
p399
a(dp400
VNamedEntityTag
p401
g70
sVCharacterOffsetEnd
p402
V95
p403
sVCharacterOffsetBegin
p404
V92
p405
sVPartOfSpeech
p406
VPRP$
p407
sVLemma
p408
Vshe
p409
saa(lp410
Vsister
p411
a(dp412
VNamedEntityTag
p413
g70
sVCharacterOffsetEnd
p414
V102
p415
sVCharacterOffsetBegin
p416
V96
p417
sVPartOfSpeech
p418
VNN
p419
sVLemma
p420
Vsister
p421
saa(lp422
Vgave
p423
a(dp424
VNamedEntityTag
p425
g70
sVCharacterOffsetEnd
p426
V107
p427
sVCharacterOffsetBegin
p428
V103
p429
sVPartOfSpeech
p430
VVBD
p431
sVLemma
p432
Vgive
p433
saa(lp434
Vher
p435
a(dp436
VNamedEntityTag
p437
g70
sVCharacterOffsetEnd
p438
V111
p439
sVCharacterOffsetBegin
p440
V108
p441
sVPartOfSpeech
p442
VPRP$
p443
sVLemma
p444
Vshe
p445
saa(lp446
V19
p447
a(dp448
VNormalizedNamedEntityTag
p449
V19.0
p450
sVLemma
p451
V19
p452
sVCharacterOffsetEnd
p453
V114
p454
sVPartOfSpeech
p455
VCD
p456
sVCharacterOffsetBegin
p457
V112
p458
sVNamedEntityTag
p459
VNUMBER
p460
saa(lp461
Vmore
p462
a(dp463
VNamedEntityTag
p464
g70
sVCharacterOffsetEnd
p465
V119
p466
sVCharacterOffsetBegin
p467
V115
p468
sVPartOfSpeech
p469
VJJR
p470
sVLemma
p471
Vmore
p472
saa(lp473
Vpieces
p474
a(dp475
VNamedEntityTag
p476
g70
sVCharacterOffsetEnd
p477
V126
p478
sVCharacterOffsetBegin
p479
V120
p480
sVPartOfSpeech
p481
VNNS
p482
sVLemma
p483
Vpiece
p484
saa(lp485
g171
a(dp486
VNamedEntityTag
p487
g70
sVCharacterOffsetEnd
p488
V128
p489
sVCharacterOffsetBegin
p490
V127
p491
sVPartOfSpeech
p492
g171
sVLemma
p493
g171
saasVindexeddependencies
p494
(lp495
(lp496
Vroot
p497
aVROOT-0
p498
aVate-2
p499
aa(lp500
Vnsubj
p501
aVate-2
p502
aVShe-1
p503
aa(lp504
Vnum
p505
aVpieces-4
p506
aV17-3
p507
aa(lp508
Vdobj
p509
aVate-2
p510
aVpieces-4
p511
aa(lp512
Vdet
p513
aVnight-7
p514
aVthe-5
p515
aa(lp516
Vamod
p517
aVnight-7
p518
aVfirst-6
p519
aa(lp520
Vtmod
p521
aVate-2
p522
aVnight-7
p523
aa(lp524
Vadvmod
p525
aVgave-12
p526
aVthen-9
p527
aa(lp528
Vposs
p529
aVsister-11
p530
aVher-10
p531
aa(lp532
Vnsubj
p533
aVgave-12
p534
aVsister-11
p535
aa(lp536
Vconj_and
p537
aVate-2
p538
aVgave-12
p539
aa(lp540
Vposs
p541
aVpieces-16
p542
aVher-13
p543
aa(lp544
Vnum
p545
aVpieces-16
p546
aV19-14
p547
aa(lp548
Vquantmod
p549
aV19-14
p550
aVmore-15
p551
aa(lp552
Vdobj
p553
aVgave-12
p554
aVpieces-16
p555
aasa(dp556
Vparsetree
p557
V(ROOT (SBARQ (WHNP (WHADJP (WRB How) (JJ many)) (NP (NP (NNS pieces)) (PP (IN of) (NP (NN candy))))) (SQ (VBZ does) (NP (NNP Haley)) (VP (VB have) (NP (RB now)))) (. ?)))
p558
sVtext
p559
VHow many pieces of candy does Haley have now ?
p560
sVdependencies
p561
(lp562
(lp563
Vroot
p564
aVROOT
p565
aVhave
p566
aa(lp567
Vadvmod
p568
aVmany
p569
aVHow
p570
aa(lp571
Vamod
p572
aVpieces
p573
aVmany
p574
aa(lp575
Vdep
p576
aVhave
p577
aVpieces
p578
aa(lp579
Vprep_of
p580
aVpieces
p581
aVcandy
p582
aa(lp583
Vaux
p584
aVhave
p585
aVdoes
p586
aa(lp587
Vnsubj
p588
aVhave
p589
aVHaley
p590
aa(lp591
Vdobj
p592
aVhave
p593
aVnow
p594
aasVwords
p595
(lp596
(lp597
VHow
p598
a(dp599
VNamedEntityTag
p600
g70
sVCharacterOffsetEnd
p601
V132
p602
sVCharacterOffsetBegin
p603
V129
p604
sVPartOfSpeech
p605
VWRB
p606
sVLemma
p607
Vhow
p608
saa(lp609
Vmany
p610
a(dp611
VNamedEntityTag
p612
g70
sVCharacterOffsetEnd
p613
V137
p614
sVCharacterOffsetBegin
p615
V133
p616
sVPartOfSpeech
p617
VJJ
p618
sVLemma
p619
Vmany
p620
saa(lp621
Vpieces
p622
a(dp623
VNamedEntityTag
p624
g70
sVCharacterOffsetEnd
p625
V144
p626
sVCharacterOffsetBegin
p627
V138
p628
sVPartOfSpeech
p629
VNNS
p630
sVLemma
p631
Vpiece
p632
saa(lp633
Vof
p634
a(dp635
VNamedEntityTag
p636
g70
sVCharacterOffsetEnd
p637
V147
p638
sVCharacterOffsetBegin
p639
V145
p640
sVPartOfSpeech
p641
VIN
p642
sVLemma
p643
Vof
p644
saa(lp645
Vcandy
p646
a(dp647
VNamedEntityTag
p648
g70
sVCharacterOffsetEnd
p649
V153
p650
sVCharacterOffsetBegin
p651
V148
p652
sVPartOfSpeech
p653
VNN
p654
sVLemma
p655
Vcandy
p656
saa(lp657
Vdoes
p658
a(dp659
VNamedEntityTag
p660
g70
sVCharacterOffsetEnd
p661
V158
p662
sVCharacterOffsetBegin
p663
V154
p664
sVPartOfSpeech
p665
VVBZ
p666
sVLemma
p667
Vdo
p668
saa(lp669
VHaley
p670
a(dp671
VNamedEntityTag
p672
VPERSON
p673
sVCharacterOffsetEnd
p674
V164
p675
sVCharacterOffsetBegin
p676
V159
p677
sVPartOfSpeech
p678
VNNP
p679
sVLemma
p680
VHaley
p681
saa(lp682
Vhave
p683
a(dp684
VNamedEntityTag
p685
g70
sVCharacterOffsetEnd
p686
V169
p687
sVCharacterOffsetBegin
p688
V165
p689
sVPartOfSpeech
p690
VVB
p691
sVLemma
p692
Vhave
p693
saa(lp694
Vnow
p695
a(dp696
VNormalizedNamedEntityTag
p697
VPRESENT_REF
p698
sVTimex
p699
V<TIMEX3 tid="t3" type="DATE" value="PRESENT_REF">now</TIMEX3>
p700
sVLemma
p701
Vnow
p702
sVCharacterOffsetEnd
p703
V173
p704
sVPartOfSpeech
p705
VRB
p706
sVCharacterOffsetBegin
p707
V170
p708
sVNamedEntityTag
p709
VDATE
p710
saa(lp711
V?
p712
a(dp713
VNamedEntityTag
p714
g70
sVCharacterOffsetEnd
p715
V175
p716
sVCharacterOffsetBegin
p717
V174
p718
sVPartOfSpeech
p719
g171
sVLemma
p720
g712
saasVindexeddependencies
p721
(lp722
(lp723
Vroot
p724
aVROOT-0
p725
aVhave-8
p726
aa(lp727
Vadvmod
p728
aVmany-2
p729
aVHow-1
p730
aa(lp731
Vamod
p732
aVpieces-3
p733
aVmany-2
p734
aa(lp735
Vdep
p736
aVhave-8
p737
aVpieces-3
p738
aa(lp739
Vprep_of
p740
aVpieces-3
p741
aVcandy-5
p742
aa(lp743
Vaux
p744
aVhave-8
p745
aVdoes-6
p746
aa(lp747
Vnsubj
p748
aVhave-8
p749
aVHaley-7
p750
aa(lp751
Vdobj
p752
aVhave-8
p753
aVnow-9
p754
aasas.