(dp0
Vcoref
p1
(lp2
(lp3
(lp4
(lp5
Vhis
p6
aI0
aI10
aI10
aI11
aa(lp7
VKemal
p8
aI0
aI0
aI0
aI1
aaaa(lp9
(lp10
(lp11
VThis summer
p12
aI2
aI1
aI0
aI2
aa(lp13
VLast summer
p14
aI1
aI1
aI0
aI2
aaaa(lp15
(lp16
(lp17
Vthe average water temperature
p18
aI1
aI6
aI3
aI7
aa(lp19
V20 Celcious
p20
aI1
aI9
aI8
aI10
aaa(lp21
(lp22
Vthe average water temperature
p23
aI2
aI6
aI3
aI7
aa(lp24
V20 Celcious
p25
aI1
aI9
aI8
aI10
aaa(lp26
(lp27
V17 Celcious
p28
aI2
aI9
aI8
aI10
aa(lp29
V20 Celcious
p30
aI1
aI9
aI8
aI10
aaa(lp31
(lp32
Vthe temperature
p33
aI3
aI8
aI7
aI9
aa(lp34
V20 Celcious
p35
aI1
aI9
aI8
aI10
aaaasVsentences
p36
(lp37
(dp38
Vparsetree
p39
V(ROOT (S (NP (JJ Kemal)) (VP (VBZ swims) (NP (NP (QP (JJ several) (NNS times))) (PP (IN per) (NP (NN week)))) (PP (IN in) (NP (NP (DT a) (NN lake)) (PP (IN near) (NP (PRP$ his) (NN home)))))) (. .)))
p40
sVtext
p41
VKemal swims several times per week in a lake near his home .
p42
sVdependencies
p43
(lp44
(lp45
Vroot
p46
aVROOT
p47
aVswims
p48
aa(lp49
Vnsubj
p50
aVswims
p51
aVKemal
p52
aa(lp53
Vquantmod
p54
aVtimes
p55
aVseveral
p56
aa(lp57
Vdobj
p58
aVswims
p59
aVtimes
p60
aa(lp61
Vprep_per
p62
aVtimes
p63
aVweek
p64
aa(lp65
Vdet
p66
aVlake
p67
aVa
p68
aa(lp69
Vprep_in
p70
aVswims
p71
aVlake
p72
aa(lp73
Vposs
p74
aVhome
p75
aVhis
p76
aa(lp77
Vprep_near
p78
aVlake
p79
aVhome
p80
aasVwords
p81
(lp82
(lp83
VKemal
p84
a(dp85
VNamedEntityTag
p86
VPERSON
p87
sVCharacterOffsetEnd
p88
V6
p89
sVCharacterOffsetBegin
p90
V1
p91
sVPartOfSpeech
p92
VJJ
p93
sVLemma
p94
Vkemal
p95
saa(lp96
Vswims
p97
a(dp98
VNamedEntityTag
p99
VO
p100
sVCharacterOffsetEnd
p101
V12
p102
sVCharacterOffsetBegin
p103
V7
p104
sVPartOfSpeech
p105
VVBZ
p106
sVLemma
p107
Vswim
p108
saa(lp109
Vseveral
p110
a(dp111
VNamedEntityTag
p112
g100
sVCharacterOffsetEnd
p113
V20
p114
sVCharacterOffsetBegin
p115
V13
p116
sVPartOfSpeech
p117
VJJ
p118
sVLemma
p119
Vseveral
p120
saa(lp121
Vtimes
p122
a(dp123
VNamedEntityTag
p124
g100
sVCharacterOffsetEnd
p125
V26
p126
sVCharacterOffsetBegin
p127
V21
p128
sVPartOfSpeech
p129
VNNS
p130
sVLemma
p131
Vtime
p132
saa(lp133
Vper
p134
a(dp135
VNamedEntityTag
p136
g100
sVCharacterOffsetEnd
p137
V30
p138
sVCharacterOffsetBegin
p139
V27
p140
sVPartOfSpeech
p141
VIN
p142
sVLemma
p143
Vper
p144
saa(lp145
Vweek
p146
a(dp147
VNormalizedNamedEntityTag
p148
VP1W
p149
sVTimex
p150
V<TIMEX3 tid="t1" type="DURATION" value="P1W">week</TIMEX3>
p151
sVLemma
p152
Vweek
p153
sVCharacterOffsetEnd
p154
V35
p155
sVPartOfSpeech
p156
VNN
p157
sVCharacterOffsetBegin
p158
V31
p159
sVNamedEntityTag
p160
VDURATION
p161
saa(lp162
Vin
p163
a(dp164
VNamedEntityTag
p165
g100
sVCharacterOffsetEnd
p166
V38
p167
sVCharacterOffsetBegin
p168
V36
p169
sVPartOfSpeech
p170
VIN
p171
sVLemma
p172
Vin
p173
saa(lp174
g68
a(dp175
VNamedEntityTag
p176
g100
sVCharacterOffsetEnd
p177
V40
p178
sVCharacterOffsetBegin
p179
V39
p180
sVPartOfSpeech
p181
VDT
p182
sVLemma
p183
g68
saa(lp184
Vlake
p185
a(dp186
VNamedEntityTag
p187
g100
sVCharacterOffsetEnd
p188
V45
p189
sVCharacterOffsetBegin
p190
V41
p191
sVPartOfSpeech
p192
VNN
p193
sVLemma
p194
Vlake
p195
saa(lp196
Vnear
p197
a(dp198
VNamedEntityTag
p199
g100
sVCharacterOffsetEnd
p200
V50
p201
sVCharacterOffsetBegin
p202
V46
p203
sVPartOfSpeech
p204
VIN
p205
sVLemma
p206
Vnear
p207
saa(lp208
Vhis
p209
a(dp210
VNamedEntityTag
p211
g100
sVCharacterOffsetEnd
p212
V54
p213
sVCharacterOffsetBegin
p214
V51
p215
sVPartOfSpeech
p216
VPRP$
p217
sVLemma
p218
Vhe
p219
saa(lp220
Vhome
p221
a(dp222
VNamedEntityTag
p223
g100
sVCharacterOffsetEnd
p224
V59
p225
sVCharacterOffsetBegin
p226
V55
p227
sVPartOfSpeech
p228
VNN
p229
sVLemma
p230
Vhome
p231
saa(lp232
V.
p233
a(dp234
VNamedEntityTag
p235
g100
sVCharacterOffsetEnd
p236
V61
p237
sVCharacterOffsetBegin
p238
V60
p239
sVPartOfSpeech
p240
g233
sVLemma
p241
g233
saasVindexeddependencies
p242
(lp243
(lp244
Vroot
p245
aVROOT-0
p246
aVswims-2
p247
aa(lp248
Vnsubj
p249
aVswims-2
p250
aVKemal-1
p251
aa(lp252
Vquantmod
p253
aVtimes-4
p254
aVseveral-3
p255
aa(lp256
Vdobj
p257
aVswims-2
p258
aVtimes-4
p259
aa(lp260
Vprep_per
p261
aVtimes-4
p262
aVweek-6
p263
aa(lp264
Vdet
p265
aVlake-9
p266
aVa-8
p267
aa(lp268
Vprep_in
p269
aVswims-2
p270
aVlake-9
p271
aa(lp272
Vposs
p273
aVhome-12
p274
aVhis-11
p275
aa(lp276
Vprep_near
p277
aVlake-9
p278
aVhome-12
p279
aasa(dp280
Vparsetree
p281
V(ROOT (S (NP-TMP (JJ Last) (NN summer)) (, ,) (NP (DT the) (JJ average) (NN water) (NN temperature)) (VP (VBD was) (NP (CD 20) (NNP Celcious))) (. .)))
p282
sVtext
p283
VLast summer , the average water temperature was 20 Celcious .
p284
sVdependencies
p285
(lp286
(lp287
Vroot
p288
aVROOT
p289
aVCelcious
p290
aa(lp291
Vamod
p292
aVsummer
p293
aVLast
p294
aa(lp295
Vtmod
p296
aVCelcious
p297
aVsummer
p298
aa(lp299
Vdet
p300
aVtemperature
p301
aVthe
p302
aa(lp303
Vamod
p304
aVtemperature
p305
aVaverage
p306
aa(lp307
Vnn
p308
aVtemperature
p309
aVwater
p310
aa(lp311
Vnsubj
p312
aVCelcious
p313
aVtemperature
p314
aa(lp315
Vcop
p316
aVCelcious
p317
aVwas
p318
aa(lp319
Vnum
p320
aVCelcious
p321
aV20
p322
aasVwords
p323
(lp324
(lp325
VLast
p326
a(dp327
VNormalizedNamedEntityTag
p328
VXXXX-SU
p329
sVTimex
p330
V<TIMEX3 alt_value="XXXX-SU OFFSET P-1Y" anchorTimeID="t3" temporalFunction="true" tid="t2" type="DATE" valueFromFunction="tf0">Last summer</TIMEX3>
p331
sVLemma
p332
Vlast
p333
sVCharacterOffsetEnd
p334
V66
p335
sVPartOfSpeech
p336
VJJ
p337
sVCharacterOffsetBegin
p338
V62
p339
sVNamedEntityTag
p340
VDATE
p341
saa(lp342
Vsummer
p343
a(dp344
VNormalizedNamedEntityTag
p345
VXXXX-SU
p346
sVTimex
p347
V<TIMEX3 alt_value="XXXX-SU OFFSET P-1Y" anchorTimeID="t3" temporalFunction="true" tid="t2" type="DATE" valueFromFunction="tf0">Last summer</TIMEX3>
p348
sVLemma
p349
Vsummer
p350
sVCharacterOffsetEnd
p351
V73
p352
sVPartOfSpeech
p353
VNN
p354
sVCharacterOffsetBegin
p355
V67
p356
sVNamedEntityTag
p357
VDATE
p358
saa(lp359
V,
p360
a(dp361
VNamedEntityTag
p362
g100
sVCharacterOffsetEnd
p363
V75
p364
sVCharacterOffsetBegin
p365
V74
p366
sVPartOfSpeech
p367
g360
sVLemma
p368
g360
saa(lp369
Vthe
p370
a(dp371
VNamedEntityTag
p372
g100
sVCharacterOffsetEnd
p373
V79
p374
sVCharacterOffsetBegin
p375
V76
p376
sVPartOfSpeech
p377
VDT
p378
sVLemma
p379
Vthe
p380
saa(lp381
Vaverage
p382
a(dp383
VNamedEntityTag
p384
g100
sVCharacterOffsetEnd
p385
V87
p386
sVCharacterOffsetBegin
p387
V80
p388
sVPartOfSpeech
p389
VJJ
p390
sVLemma
p391
Vaverage
p392
saa(lp393
Vwater
p394
a(dp395
VNamedEntityTag
p396
g100
sVCharacterOffsetEnd
p397
V93
p398
sVCharacterOffsetBegin
p399
V88
p400
sVPartOfSpeech
p401
VNN
p402
sVLemma
p403
Vwater
p404
saa(lp405
Vtemperature
p406
a(dp407
VNamedEntityTag
p408
g100
sVCharacterOffsetEnd
p409
V105
p410
sVCharacterOffsetBegin
p411
V94
p412
sVPartOfSpeech
p413
VNN
p414
sVLemma
p415
Vtemperature
p416
saa(lp417
Vwas
p418
a(dp419
VNamedEntityTag
p420
g100
sVCharacterOffsetEnd
p421
V109
p422
sVCharacterOffsetBegin
p423
V106
p424
sVPartOfSpeech
p425
VVBD
p426
sVLemma
p427
Vbe
p428
saa(lp429
V20
p430
a(dp431
VNormalizedNamedEntityTag
p432
V20.0
p433
sVLemma
p434
V20
p435
sVCharacterOffsetEnd
p436
V112
p437
sVPartOfSpeech
p438
VCD
p439
sVCharacterOffsetBegin
p440
V110
p441
sVNamedEntityTag
p442
VNUMBER
p443
saa(lp444
VCelcious
p445
a(dp446
VNamedEntityTag
p447
g100
sVCharacterOffsetEnd
p448
V121
p449
sVCharacterOffsetBegin
p450
V113
p451
sVPartOfSpeech
p452
VNNP
p453
sVLemma
p454
VCelcious
p455
saa(lp456
g233
a(dp457
VNamedEntityTag
p458
g100
sVCharacterOffsetEnd
p459
V123
p460
sVCharacterOffsetBegin
p461
V122
p462
sVPartOfSpeech
p463
g233
sVLemma
p464
g233
saasVindexeddependencies
p465
(lp466
(lp467
Vroot
p468
aVROOT-0
p469
aVCelcious-10
p470
aa(lp471
Vamod
p472
aVsummer-2
p473
aVLast-1
p474
aa(lp475
Vtmod
p476
aVCelcious-10
p477
aVsummer-2
p478
aa(lp479
Vdet
p480
aVtemperature-7
p481
aVthe-4
p482
aa(lp483
Vamod
p484
aVtemperature-7
p485
aVaverage-5
p486
aa(lp487
Vnn
p488
aVtemperature-7
p489
aVwater-6
p490
aa(lp491
Vnsubj
p492
aVCelcious-10
p493
aVtemperature-7
p494
aa(lp495
Vcop
p496
aVCelcious-10
p497
aVwas-8
p498
aa(lp499
Vnum
p500
aVCelcious-10
p501
aV20-9
p502
aasa(dp503
Vparsetree
p504
V(ROOT (S (NP-TMP (DT This) (NN summer)) (, ,) (NP (DT the) (JJ average) (NN water) (NN temperature)) (VP (VBD was) (NP (CD 17) (NNP Celcious))) (. .)))
p505
sVtext
p506
VThis summer , the average water temperature was 17 Celcious .
p507
sVdependencies
p508
(lp509
(lp510
Vroot
p511
aVROOT
p512
aVCelcious
p513
aa(lp514
Vdet
p515
aVsummer
p516
aVThis
p517
aa(lp518
Vtmod
p519
aVCelcious
p520
aVsummer
p521
aa(lp522
Vdet
p523
aVtemperature
p524
aVthe
p525
aa(lp526
Vamod
p527
aVtemperature
p528
aVaverage
p529
aa(lp530
Vnn
p531
aVtemperature
p532
aVwater
p533
aa(lp534
Vnsubj
p535
aVCelcious
p536
aVtemperature
p537
aa(lp538
Vcop
p539
aVCelcious
p540
aVwas
p541
aa(lp542
Vnum
p543
aVCelcious
p544
aV17
p545
aasVwords
p546
(lp547
(lp548
VThis
p549
a(dp550
VNormalizedNamedEntityTag
p551
VTHIS
p552
sVTimex
p553
V<TIMEX3 alt_value="THIS SU" anchorTimeID="t0" temporalFunction="true" tid="t4" type="DATE" valueFromFunction="tf1">This summer</TIMEX3>
p554
sVLemma
p555
Vthis
p556
sVCharacterOffsetEnd
p557
V128
p558
sVPartOfSpeech
p559
VDT
p560
sVCharacterOffsetBegin
p561
V124
p562
sVNamedEntityTag
p563
VDATE
p564
saa(lp565
Vsummer
p566
a(dp567
VNormalizedNamedEntityTag
p568
VTHIS
p569
sVTimex
p570
V<TIMEX3 alt_value="THIS SU" anchorTimeID="t0" temporalFunction="true" tid="t4" type="DATE" valueFromFunction="tf1">This summer</TIMEX3>
p571
sVLemma
p572
Vsummer
p573
sVCharacterOffsetEnd
p574
V135
p575
sVPartOfSpeech
p576
VNN
p577
sVCharacterOffsetBegin
p578
V129
p579
sVNamedEntityTag
p580
VDATE
p581
saa(lp582
g360
a(dp583
VNamedEntityTag
p584
g100
sVCharacterOffsetEnd
p585
V137
p586
sVCharacterOffsetBegin
p587
V136
p588
sVPartOfSpeech
p589
g360
sVLemma
p590
g360
saa(lp591
Vthe
p592
a(dp593
VNamedEntityTag
p594
g100
sVCharacterOffsetEnd
p595
V141
p596
sVCharacterOffsetBegin
p597
V138
p598
sVPartOfSpeech
p599
VDT
p600
sVLemma
p601
Vthe
p602
saa(lp603
Vaverage
p604
a(dp605
VNamedEntityTag
p606
g100
sVCharacterOffsetEnd
p607
V149
p608
sVCharacterOffsetBegin
p609
V142
p610
sVPartOfSpeech
p611
VJJ
p612
sVLemma
p613
Vaverage
p614
saa(lp615
Vwater
p616
a(dp617
VNamedEntityTag
p618
g100
sVCharacterOffsetEnd
p619
V155
p620
sVCharacterOffsetBegin
p621
V150
p622
sVPartOfSpeech
p623
VNN
p624
sVLemma
p625
Vwater
p626
saa(lp627
Vtemperature
p628
a(dp629
VNamedEntityTag
p630
g100
sVCharacterOffsetEnd
p631
V167
p632
sVCharacterOffsetBegin
p633
V156
p634
sVPartOfSpeech
p635
VNN
p636
sVLemma
p637
Vtemperature
p638
saa(lp639
Vwas
p640
a(dp641
VNamedEntityTag
p642
g100
sVCharacterOffsetEnd
p643
V171
p644
sVCharacterOffsetBegin
p645
V168
p646
sVPartOfSpeech
p647
VVBD
p648
sVLemma
p649
Vbe
p650
saa(lp651
V17
p652
a(dp653
VNormalizedNamedEntityTag
p654
V17.0
p655
sVLemma
p656
V17
p657
sVCharacterOffsetEnd
p658
V174
p659
sVPartOfSpeech
p660
VCD
p661
sVCharacterOffsetBegin
p662
V172
p663
sVNamedEntityTag
p664
VNUMBER
p665
saa(lp666
VCelcious
p667
a(dp668
VNamedEntityTag
p669
g100
sVCharacterOffsetEnd
p670
V183
p671
sVCharacterOffsetBegin
p672
V175
p673
sVPartOfSpeech
p674
VNNP
p675
sVLemma
p676
VCelcious
p677
saa(lp678
g233
a(dp679
VNamedEntityTag
p680
g100
sVCharacterOffsetEnd
p681
V185
p682
sVCharacterOffsetBegin
p683
V184
p684
sVPartOfSpeech
p685
g233
sVLemma
p686
g233
saasVindexeddependencies
p687
(lp688
(lp689
Vroot
p690
aVROOT-0
p691
aVCelcious-10
p692
aa(lp693
Vdet
p694
aVsummer-2
p695
aVThis-1
p696
aa(lp697
Vtmod
p698
aVCelcious-10
p699
aVsummer-2
p700
aa(lp701
Vdet
p702
aVtemperature-7
p703
aVthe-4
p704
aa(lp705
Vamod
p706
aVtemperature-7
p707
aVaverage-5
p708
aa(lp709
Vnn
p710
aVtemperature-7
p711
aVwater-6
p712
aa(lp713
Vnsubj
p714
aVCelcious-10
p715
aVtemperature-7
p716
aa(lp717
Vcop
p718
aVCelcious-10
p719
aVwas-8
p720
aa(lp721
Vnum
p722
aVCelcious-10
p723
aV17-9
p724
aasa(dp725
Vparsetree
p726
V(ROOT (SBARQ (WHNP (WP What)) (SQ (VBD was) (NP (NP (DT the) (NNS times)) (PP (IN of) (NP (NP (NN decrease)) (PP (IN in) (NP (DT the) (NN temperature))))))) (. ?)))
p727
sVtext
p728
VWhat was the times of decrease in the temperature ?
p729
sVdependencies
p730
(lp731
(lp732
Vroot
p733
aVROOT
p734
aVWhat
p735
aa(lp736
Vcop
p737
aVWhat
p738
aVwas
p739
aa(lp740
Vdet
p741
aVtimes
p742
aVthe
p743
aa(lp744
Vnsubj
p745
aVWhat
p746
aVtimes
p747
aa(lp748
Vprep_of
p749
aVtimes
p750
aVdecrease
p751
aa(lp752
Vdet
p753
aVtemperature
p754
aVthe
p755
aa(lp756
Vprep_in
p757
aVdecrease
p758
aVtemperature
p759
aasVwords
p760
(lp761
(lp762
VWhat
p763
a(dp764
VNamedEntityTag
p765
g100
sVCharacterOffsetEnd
p766
V190
p767
sVCharacterOffsetBegin
p768
V186
p769
sVPartOfSpeech
p770
VWP
p771
sVLemma
p772
Vwhat
p773
saa(lp774
Vwas
p775
a(dp776
VNamedEntityTag
p777
g100
sVCharacterOffsetEnd
p778
V194
p779
sVCharacterOffsetBegin
p780
V191
p781
sVPartOfSpeech
p782
VVBD
p783
sVLemma
p784
Vbe
p785
saa(lp786
Vthe
p787
a(dp788
VNamedEntityTag
p789
g100
sVCharacterOffsetEnd
p790
V198
p791
sVCharacterOffsetBegin
p792
V195
p793
sVPartOfSpeech
p794
VDT
p795
sVLemma
p796
Vthe
p797
saa(lp798
Vtimes
p799
a(dp800
VNamedEntityTag
p801
g100
sVCharacterOffsetEnd
p802
V204
p803
sVCharacterOffsetBegin
p804
V199
p805
sVPartOfSpeech
p806
VNNS
p807
sVLemma
p808
Vtime
p809
saa(lp810
Vof
p811
a(dp812
VNamedEntityTag
p813
g100
sVCharacterOffsetEnd
p814
V207
p815
sVCharacterOffsetBegin
p816
V205
p817
sVPartOfSpeech
p818
VIN
p819
sVLemma
p820
Vof
p821
saa(lp822
Vdecrease
p823
a(dp824
VNamedEntityTag
p825
g100
sVCharacterOffsetEnd
p826
V216
p827
sVCharacterOffsetBegin
p828
V208
p829
sVPartOfSpeech
p830
VNN
p831
sVLemma
p832
Vdecrease
p833
saa(lp834
Vin
p835
a(dp836
VNamedEntityTag
p837
g100
sVCharacterOffsetEnd
p838
V219
p839
sVCharacterOffsetBegin
p840
V217
p841
sVPartOfSpeech
p842
VIN
p843
sVLemma
p844
Vin
p845
saa(lp846
Vthe
p847
a(dp848
VNamedEntityTag
p849
g100
sVCharacterOffsetEnd
p850
V223
p851
sVCharacterOffsetBegin
p852
V220
p853
sVPartOfSpeech
p854
VDT
p855
sVLemma
p856
Vthe
p857
saa(lp858
Vtemperature
p859
a(dp860
VNamedEntityTag
p861
g100
sVCharacterOffsetEnd
p862
V235
p863
sVCharacterOffsetBegin
p864
V224
p865
sVPartOfSpeech
p866
VNN
p867
sVLemma
p868
Vtemperature
p869
saa(lp870
V?
p871
a(dp872
VNamedEntityTag
p873
g100
sVCharacterOffsetEnd
p874
V237
p875
sVCharacterOffsetBegin
p876
V236
p877
sVPartOfSpeech
p878
g233
sVLemma
p879
g871
saasVindexeddependencies
p880
(lp881
(lp882
Vroot
p883
aVROOT-0
p884
aVWhat-1
p885
aa(lp886
Vcop
p887
aVWhat-1
p888
aVwas-2
p889
aa(lp890
Vdet
p891
aVtimes-4
p892
aVthe-3
p893
aa(lp894
Vnsubj
p895
aVWhat-1
p896
aVtimes-4
p897
aa(lp898
Vprep_of
p899
aVtimes-4
p900
aVdecrease-6
p901
aa(lp902
Vdet
p903
aVtemperature-9
p904
aVthe-8
p905
aa(lp906
Vprep_in
p907
aVdecrease-6
p908
aVtemperature-9
p909
aasas.