(dp0
Vcoref
p1
(lp2
(lp3
(lp4
(lp5
Vhis
p6
aI0
aI9
aI9
aI10
aa(lp7
VGavin
p8
aI0
aI0
aI0
aI1
aaaa(lp9
(lp10
(lp11
Vthem
p12
aI1
aI12
aI12
aI13
aa(lp13
V20 students
p14
aI1
aI1
aI0
aI2
aaaasVsentences
p15
(lp16
(dp17
Vparsetree
p18
V(ROOT (S (NP (NNP Gavin)) (VP (VBD brought) (NP (NN chocolate) (CC and) (NN vanilla) (NNS cupcakes)) (PP (TO to) (NP (NN school))) (PP (IN for) (NP (PRP$ his) (NN birthday)))) (. .)))
p19
sVtext
p20
VGavin brought chocolate and vanilla cupcakes to school for his birthday .
p21
sVdependencies
p22
(lp23
(lp24
Vroot
p25
aVROOT
p26
aVbrought
p27
aa(lp28
Vnsubj
p29
aVbrought
p30
aVGavin
p31
aa(lp32
Vnn
p33
aVcupcakes
p34
aVchocolate
p35
aa(lp36
Vconj_and
p37
aVchocolate
p38
aVvanilla
p39
aa(lp40
Vdobj
p41
aVbrought
p42
aVcupcakes
p43
aa(lp44
Vprep_to
p45
aVbrought
p46
aVschool
p47
aa(lp48
Vposs
p49
aVbirthday
p50
aVhis
p51
aa(lp52
Vprep_for
p53
aVbrought
p54
aVbirthday
p55
aasVwords
p56
(lp57
(lp58
VGavin
p59
a(dp60
VNamedEntityTag
p61
VPERSON
p62
sVCharacterOffsetEnd
p63
V6
p64
sVCharacterOffsetBegin
p65
V1
p66
sVPartOfSpeech
p67
VNNP
p68
sVLemma
p69
VGavin
p70
saa(lp71
Vbrought
p72
a(dp73
VNamedEntityTag
p74
VO
p75
sVCharacterOffsetEnd
p76
V14
p77
sVCharacterOffsetBegin
p78
V7
p79
sVPartOfSpeech
p80
VVBD
p81
sVLemma
p82
Vbring
p83
saa(lp84
Vchocolate
p85
a(dp86
VNamedEntityTag
p87
g75
sVCharacterOffsetEnd
p88
V24
p89
sVCharacterOffsetBegin
p90
V15
p91
sVPartOfSpeech
p92
VNN
p93
sVLemma
p94
Vchocolate
p95
saa(lp96
Vand
p97
a(dp98
VNamedEntityTag
p99
g75
sVCharacterOffsetEnd
p100
V28
p101
sVCharacterOffsetBegin
p102
V25
p103
sVPartOfSpeech
p104
VCC
p105
sVLemma
p106
Vand
p107
saa(lp108
Vvanilla
p109
a(dp110
VNamedEntityTag
p111
g75
sVCharacterOffsetEnd
p112
V36
p113
sVCharacterOffsetBegin
p114
V29
p115
sVPartOfSpeech
p116
VNN
p117
sVLemma
p118
Vvanilla
p119
saa(lp120
Vcupcakes
p121
a(dp122
VNamedEntityTag
p123
g75
sVCharacterOffsetEnd
p124
V45
p125
sVCharacterOffsetBegin
p126
V37
p127
sVPartOfSpeech
p128
VNNS
p129
sVLemma
p130
Vcupcake
p131
saa(lp132
Vto
p133
a(dp134
VNamedEntityTag
p135
g75
sVCharacterOffsetEnd
p136
V48
p137
sVCharacterOffsetBegin
p138
V46
p139
sVPartOfSpeech
p140
VTO
p141
sVLemma
p142
Vto
p143
saa(lp144
Vschool
p145
a(dp146
VNamedEntityTag
p147
g75
sVCharacterOffsetEnd
p148
V55
p149
sVCharacterOffsetBegin
p150
V49
p151
sVPartOfSpeech
p152
VNN
p153
sVLemma
p154
Vschool
p155
saa(lp156
Vfor
p157
a(dp158
VNamedEntityTag
p159
g75
sVCharacterOffsetEnd
p160
V59
p161
sVCharacterOffsetBegin
p162
V56
p163
sVPartOfSpeech
p164
VIN
p165
sVLemma
p166
Vfor
p167
saa(lp168
Vhis
p169
a(dp170
VNamedEntityTag
p171
g75
sVCharacterOffsetEnd
p172
V63
p173
sVCharacterOffsetBegin
p174
V60
p175
sVPartOfSpeech
p176
VPRP$
p177
sVLemma
p178
Vhe
p179
saa(lp180
Vbirthday
p181
a(dp182
VNamedEntityTag
p183
g75
sVCharacterOffsetEnd
p184
V72
p185
sVCharacterOffsetBegin
p186
V64
p187
sVPartOfSpeech
p188
VNN
p189
sVLemma
p190
Vbirthday
p191
saa(lp192
V.
p193
a(dp194
VNamedEntityTag
p195
g75
sVCharacterOffsetEnd
p196
V74
p197
sVCharacterOffsetBegin
p198
V73
p199
sVPartOfSpeech
p200
g193
sVLemma
p201
g193
saasVindexeddependencies
p202
(lp203
(lp204
Vroot
p205
aVROOT-0
p206
aVbrought-2
p207
aa(lp208
Vnsubj
p209
aVbrought-2
p210
aVGavin-1
p211
aa(lp212
Vnn
p213
aVcupcakes-6
p214
aVchocolate-3
p215
aa(lp216
Vconj_and
p217
aVchocolate-3
p218
aVvanilla-5
p219
aa(lp220
Vdobj
p221
aVbrought-2
p222
aVcupcakes-6
p223
aa(lp224
Vprep_to
p225
aVbrought-2
p226
aVschool-8
p227
aa(lp228
Vposs
p229
aVbirthday-11
p230
aVhis-10
p231
aa(lp232
Vprep_for
p233
aVbrought-2
p234
aVbirthday-11
p235
aasa(dp236
Vparsetree
p237
V(ROOT (S (S (NP (CD 20) (NNS students)) (VP (VBD decided) (S (VP (TO to) (VP (VB take) (NP (DT a) (NN cupcake))))))) (, ,) (CC and) (S (NP (NP (CD 0.7) (NNS times)) (PP (IN of) (NP (PRP them)))) (VP (VBD picked) (ADJP (NN vanilla)))) (. .)))
p238
sVtext
p239
V20 students decided to take a cupcake , and 0.7 times of them picked vanilla .
p240
sVdependencies
p241
(lp242
(lp243
Vroot
p244
aVROOT
p245
aVdecided
p246
aa(lp247
Vnum
p248
aVstudents
p249
aV20
p250
aa(lp251
Vnsubj
p252
aVdecided
p253
aVstudents
p254
aa(lp255
Vaux
p256
aVtake
p257
aVto
p258
aa(lp259
Vxcomp
p260
aVdecided
p261
aVtake
p262
aa(lp263
Vdet
p264
aVcupcake
p265
aVa
p266
aa(lp267
Vdobj
p268
aVtake
p269
aVcupcake
p270
aa(lp271
Vnum
p272
aVtimes
p273
aV0.7
p274
aa(lp275
Vnsubj
p276
aVpicked
p277
aVtimes
p278
aa(lp279
Vprep_of
p280
aVtimes
p281
aVthem
p282
aa(lp283
Vconj_and
p284
aVdecided
p285
aVpicked
p286
aa(lp287
Vacomp
p288
aVpicked
p289
aVvanilla
p290
aasVwords
p291
(lp292
(lp293
V20
p294
a(dp295
VNormalizedNamedEntityTag
p296
V20.0
p297
sVLemma
p298
V20
p299
sVCharacterOffsetEnd
p300
V77
p301
sVPartOfSpeech
p302
VCD
p303
sVCharacterOffsetBegin
p304
V75
p305
sVNamedEntityTag
p306
VNUMBER
p307
saa(lp308
Vstudents
p309
a(dp310
VNamedEntityTag
p311
g75
sVCharacterOffsetEnd
p312
V86
p313
sVCharacterOffsetBegin
p314
V78
p315
sVPartOfSpeech
p316
VNNS
p317
sVLemma
p318
Vstudent
p319
saa(lp320
Vdecided
p321
a(dp322
VNamedEntityTag
p323
g75
sVCharacterOffsetEnd
p324
V94
p325
sVCharacterOffsetBegin
p326
V87
p327
sVPartOfSpeech
p328
VVBD
p329
sVLemma
p330
Vdecide
p331
saa(lp332
Vto
p333
a(dp334
VNamedEntityTag
p335
g75
sVCharacterOffsetEnd
p336
V97
p337
sVCharacterOffsetBegin
p338
V95
p339
sVPartOfSpeech
p340
VTO
p341
sVLemma
p342
Vto
p343
saa(lp344
Vtake
p345
a(dp346
VNamedEntityTag
p347
g75
sVCharacterOffsetEnd
p348
V102
p349
sVCharacterOffsetBegin
p350
V98
p351
sVPartOfSpeech
p352
VVB
p353
sVLemma
p354
Vtake
p355
saa(lp356
g266
a(dp357
VNamedEntityTag
p358
g75
sVCharacterOffsetEnd
p359
V104
p360
sVCharacterOffsetBegin
p361
V103
p362
sVPartOfSpeech
p363
VDT
p364
sVLemma
p365
g266
saa(lp366
Vcupcake
p367
a(dp368
VNamedEntityTag
p369
g75
sVCharacterOffsetEnd
p370
V112
p371
sVCharacterOffsetBegin
p372
V105
p373
sVPartOfSpeech
p374
VNN
p375
sVLemma
p376
Vcupcake
p377
saa(lp378
V,
p379
a(dp380
VNamedEntityTag
p381
g75
sVCharacterOffsetEnd
p382
V114
p383
sVCharacterOffsetBegin
p384
V113
p385
sVPartOfSpeech
p386
g379
sVLemma
p387
g379
saa(lp388
Vand
p389
a(dp390
VNamedEntityTag
p391
g75
sVCharacterOffsetEnd
p392
V118
p393
sVCharacterOffsetBegin
p394
V115
p395
sVPartOfSpeech
p396
VCC
p397
sVLemma
p398
Vand
p399
saa(lp400
V0.7
p401
a(dp402
VNormalizedNamedEntityTag
p403
V0.7
p404
sVLemma
p405
V0.7
p406
sVCharacterOffsetEnd
p407
V122
p408
sVPartOfSpeech
p409
VCD
p410
sVCharacterOffsetBegin
p411
V119
p412
sVNamedEntityTag
p413
VNUMBER
p414
saa(lp415
Vtimes
p416
a(dp417
VNamedEntityTag
p418
g75
sVCharacterOffsetEnd
p419
V128
p420
sVCharacterOffsetBegin
p421
V123
p422
sVPartOfSpeech
p423
VNNS
p424
sVLemma
p425
Vtime
p426
saa(lp427
Vof
p428
a(dp429
VNamedEntityTag
p430
g75
sVCharacterOffsetEnd
p431
V131
p432
sVCharacterOffsetBegin
p433
V129
p434
sVPartOfSpeech
p435
VIN
p436
sVLemma
p437
Vof
p438
saa(lp439
Vthem
p440
a(dp441
VNamedEntityTag
p442
g75
sVCharacterOffsetEnd
p443
V136
p444
sVCharacterOffsetBegin
p445
V132
p446
sVPartOfSpeech
p447
VPRP
p448
sVLemma
p449
Vthey
p450
saa(lp451
Vpicked
p452
a(dp453
VNamedEntityTag
p454
g75
sVCharacterOffsetEnd
p455
V143
p456
sVCharacterOffsetBegin
p457
V137
p458
sVPartOfSpeech
p459
VVBD
p460
sVLemma
p461
Vpick
p462
saa(lp463
Vvanilla
p464
a(dp465
VNamedEntityTag
p466
g75
sVCharacterOffsetEnd
p467
V151
p468
sVCharacterOffsetBegin
p469
V144
p470
sVPartOfSpeech
p471
VNN
p472
sVLemma
p473
Vvanilla
p474
saa(lp475
g193
a(dp476
VNamedEntityTag
p477
g75
sVCharacterOffsetEnd
p478
V153
p479
sVCharacterOffsetBegin
p480
V152
p481
sVPartOfSpeech
p482
g193
sVLemma
p483
g193
saasVindexeddependencies
p484
(lp485
(lp486
Vroot
p487
aVROOT-0
p488
aVdecided-3
p489
aa(lp490
Vnum
p491
aVstudents-2
p492
aV20-1
p493
aa(lp494
Vnsubj
p495
aVdecided-3
p496
aVstudents-2
p497
aa(lp498
Vaux
p499
aVtake-5
p500
aVto-4
p501
aa(lp502
Vxcomp
p503
aVdecided-3
p504
aVtake-5
p505
aa(lp506
Vdet
p507
aVcupcake-7
p508
aVa-6
p509
aa(lp510
Vdobj
p511
aVtake-5
p512
aVcupcake-7
p513
aa(lp514
Vnum
p515
aVtimes-11
p516
aV0.7-10
p517
aa(lp518
Vnsubj
p519
aVpicked-14
p520
aVtimes-11
p521
aa(lp522
Vprep_of
p523
aVtimes-11
p524
aVthem-13
p525
aa(lp526
Vconj_and
p527
aVdecided-3
p528
aVpicked-14
p529
aa(lp530
Vacomp
p531
aVpicked-14
p532
aVvanilla-15
p533
aasa(dp534
Vparsetree
p535
V(ROOT (SBARQ (WHNP (WHADJP (WRB How) (JJ many)) (NNS people)) (SQ (VP (VBD picked) (NP (DT a) (NN vanilla) (NN cupcake)))) (. ?)))
p536
sVtext
p537
VHow many people picked a vanilla cupcake ?
p538
sVdependencies
p539
(lp540
(lp541
Vroot
p542
aVROOT
p543
aVpicked
p544
aa(lp545
Vadvmod
p546
aVmany
p547
aVHow
p548
aa(lp549
Vamod
p550
aVpeople
p551
aVmany
p552
aa(lp553
Vnsubj
p554
aVpicked
p555
aVpeople
p556
aa(lp557
Vdet
p558
aVcupcake
p559
ag266
aa(lp560
Vnn
p561
aVcupcake
p562
aVvanilla
p563
aa(lp564
Vdobj
p565
aVpicked
p566
aVcupcake
p567
aasVwords
p568
(lp569
(lp570
VHow
p571
a(dp572
VNamedEntityTag
p573
g75
sVCharacterOffsetEnd
p574
V157
p575
sVCharacterOffsetBegin
p576
V154
p577
sVPartOfSpeech
p578
VWRB
p579
sVLemma
p580
Vhow
p581
saa(lp582
Vmany
p583
a(dp584
VNamedEntityTag
p585
g75
sVCharacterOffsetEnd
p586
V162
p587
sVCharacterOffsetBegin
p588
V158
p589
sVPartOfSpeech
p590
VJJ
p591
sVLemma
p592
Vmany
p593
saa(lp594
Vpeople
p595
a(dp596
VNamedEntityTag
p597
g75
sVCharacterOffsetEnd
p598
V169
p599
sVCharacterOffsetBegin
p600
V163
p601
sVPartOfSpeech
p602
VNNS
p603
sVLemma
p604
Vpeople
p605
saa(lp606
Vpicked
p607
a(dp608
VNamedEntityTag
p609
g75
sVCharacterOffsetEnd
p610
V176
p611
sVCharacterOffsetBegin
p612
V170
p613
sVPartOfSpeech
p614
VVBD
p615
sVLemma
p616
Vpick
p617
saa(lp618
g266
a(dp619
VNamedEntityTag
p620
g75
sVCharacterOffsetEnd
p621
V178
p622
sVCharacterOffsetBegin
p623
V177
p624
sVPartOfSpeech
p625
VDT
p626
sVLemma
p627
g266
saa(lp628
Vvanilla
p629
a(dp630
VNamedEntityTag
p631
g75
sVCharacterOffsetEnd
p632
V186
p633
sVCharacterOffsetBegin
p634
V179
p635
sVPartOfSpeech
p636
VNN
p637
sVLemma
p638
Vvanilla
p639
saa(lp640
Vcupcake
p641
a(dp642
VNamedEntityTag
p643
g75
sVCharacterOffsetEnd
p644
V194
p645
sVCharacterOffsetBegin
p646
V187
p647
sVPartOfSpeech
p648
VNN
p649
sVLemma
p650
Vcupcake
p651
saa(lp652
V?
p653
a(dp654
VNamedEntityTag
p655
g75
sVCharacterOffsetEnd
p656
V196
p657
sVCharacterOffsetBegin
p658
V195
p659
sVPartOfSpeech
p660
g193
sVLemma
p661
g653
saasVindexeddependencies
p662
(lp663
(lp664
Vroot
p665
aVROOT-0
p666
aVpicked-4
p667
aa(lp668
Vadvmod
p669
aVmany-2
p670
aVHow-1
p671
aa(lp672
Vamod
p673
aVpeople-3
p674
aVmany-2
p675
aa(lp676
Vnsubj
p677
aVpicked-4
p678
aVpeople-3
p679
aa(lp680
Vdet
p681
aVcupcake-7
p682
aVa-5
p683
aa(lp684
Vnn
p685
aVcupcake-7
p686
aVvanilla-6
p687
aa(lp688
Vdobj
p689
aVpicked-4
p690
aVcupcake-7
p691
aasas.