(dp0
Vcoref
p1
(lp2
(lp3
(lp4
(lp5
Vfourth
p6
aI2
aI5
aI5
aI6
aa(lp7
Vfourth
p8
aI0
aI1
aI1
aI2
aaaa(lp9
(lp10
(lp11
Vthe year
p12
aI1
aI2
aI1
aI3
aa(lp13
Vthe year
p14
aI0
aI12
aI11
aI13
aaaa(lp15
(lp16
(lp17
V10
p18
aI1
aI7
aI7
aI8
aa(lp19
V10
p20
aI1
aI3
aI3
aI4
aaaasVsentences
p21
(lp22
(dp23
Vparsetree
p24
V(ROOT (S (PP (IN In) (NP (JJ fourth) (NN grade))) (NP (EX there)) (VP (VBD were) (NP (NP (CD 35) (NNS students)) (PP (IN at) (NP (NP (DT the) (NN start)) (PP (IN of) (NP (DT the) (NN year))))))) (. .)))
p25
sVtext
p26
VIn fourth grade there were 35 students at the start of the year .
p27
sVdependencies
p28
(lp29
(lp30
Vroot
p31
aVROOT
p32
aVwere
p33
aa(lp34
Vamod
p35
aVgrade
p36
aVfourth
p37
aa(lp38
Vprep_in
p39
aVwere
p40
aVgrade
p41
aa(lp42
Vexpl
p43
aVwere
p44
aVthere
p45
aa(lp46
Vnum
p47
aVstudents
p48
aV35
p49
aa(lp50
Vnsubj
p51
aVwere
p52
aVstudents
p53
aa(lp54
Vdet
p55
aVstart
p56
aVthe
p57
aa(lp58
Vprep_at
p59
aVstudents
p60
aVstart
p61
aa(lp62
Vdet
p63
aVyear
p64
aVthe
p65
aa(lp66
Vprep_of
p67
aVstart
p68
aVyear
p69
aasVwords
p70
(lp71
(lp72
VIn
p73
a(dp74
VNamedEntityTag
p75
VO
p76
sVCharacterOffsetEnd
p77
V3
p78
sVCharacterOffsetBegin
p79
V1
p80
sVPartOfSpeech
p81
VIN
p82
sVLemma
p83
Vin
p84
saa(lp85
Vfourth
p86
a(dp87
VNormalizedNamedEntityTag
p88
V4.0
p89
sVLemma
p90
Vfourth
p91
sVCharacterOffsetEnd
p92
V10
p93
sVPartOfSpeech
p94
VJJ
p95
sVCharacterOffsetBegin
p96
V4
p97
sVNamedEntityTag
p98
VORDINAL
p99
saa(lp100
Vgrade
p101
a(dp102
VNamedEntityTag
p103
g76
sVCharacterOffsetEnd
p104
V16
p105
sVCharacterOffsetBegin
p106
V11
p107
sVPartOfSpeech
p108
VNN
p109
sVLemma
p110
Vgrade
p111
saa(lp112
Vthere
p113
a(dp114
VNamedEntityTag
p115
g76
sVCharacterOffsetEnd
p116
V22
p117
sVCharacterOffsetBegin
p118
V17
p119
sVPartOfSpeech
p120
VEX
p121
sVLemma
p122
Vthere
p123
saa(lp124
Vwere
p125
a(dp126
VNamedEntityTag
p127
g76
sVCharacterOffsetEnd
p128
V27
p129
sVCharacterOffsetBegin
p130
V23
p131
sVPartOfSpeech
p132
VVBD
p133
sVLemma
p134
Vbe
p135
saa(lp136
V35
p137
a(dp138
VNormalizedNamedEntityTag
p139
V35.0
p140
sVLemma
p141
V35
p142
sVCharacterOffsetEnd
p143
V30
p144
sVPartOfSpeech
p145
VCD
p146
sVCharacterOffsetBegin
p147
V28
p148
sVNamedEntityTag
p149
VNUMBER
p150
saa(lp151
Vstudents
p152
a(dp153
VNamedEntityTag
p154
g76
sVCharacterOffsetEnd
p155
V39
p156
sVCharacterOffsetBegin
p157
V31
p158
sVPartOfSpeech
p159
VNNS
p160
sVLemma
p161
Vstudent
p162
saa(lp163
Vat
p164
a(dp165
VNamedEntityTag
p166
g76
sVCharacterOffsetEnd
p167
V42
p168
sVCharacterOffsetBegin
p169
V40
p170
sVPartOfSpeech
p171
VIN
p172
sVLemma
p173
Vat
p174
saa(lp175
Vthe
p176
a(dp177
VNormalizedNamedEntityTag
p178
VTHIS
p179
sVTimex
p180
V<TIMEX3 alt_value="THIS P1Y" anchorTimeID="t0" mod="EARLY" temporalFunction="true" tid="t1" type="DATE" valueFromFunction="tf0">the start of the year</TIMEX3>
p181
sVLemma
p182
Vthe
p183
sVCharacterOffsetEnd
p184
V46
p185
sVPartOfSpeech
p186
VDT
p187
sVCharacterOffsetBegin
p188
V43
p189
sVNamedEntityTag
p190
VDATE
p191
saa(lp192
Vstart
p193
a(dp194
VNormalizedNamedEntityTag
p195
VTHIS
p196
sVTimex
p197
V<TIMEX3 alt_value="THIS P1Y" anchorTimeID="t0" mod="EARLY" temporalFunction="true" tid="t1" type="DATE" valueFromFunction="tf0">the start of the year</TIMEX3>
p198
sVLemma
p199
Vstart
p200
sVCharacterOffsetEnd
p201
V52
p202
sVPartOfSpeech
p203
VNN
p204
sVCharacterOffsetBegin
p205
V47
p206
sVNamedEntityTag
p207
VDATE
p208
saa(lp209
Vof
p210
a(dp211
VNormalizedNamedEntityTag
p212
VTHIS
p213
sVTimex
p214
V<TIMEX3 alt_value="THIS P1Y" anchorTimeID="t0" mod="EARLY" temporalFunction="true" tid="t1" type="DATE" valueFromFunction="tf0">the start of the year</TIMEX3>
p215
sVLemma
p216
Vof
p217
sVCharacterOffsetEnd
p218
V55
p219
sVPartOfSpeech
p220
VIN
p221
sVCharacterOffsetBegin
p222
V53
p223
sVNamedEntityTag
p224
VDATE
p225
saa(lp226
Vthe
p227
a(dp228
VNormalizedNamedEntityTag
p229
VTHIS
p230
sVTimex
p231
V<TIMEX3 alt_value="THIS P1Y" anchorTimeID="t0" mod="EARLY" temporalFunction="true" tid="t1" type="DATE" valueFromFunction="tf0">the start of the year</TIMEX3>
p232
sVLemma
p233
Vthe
p234
sVCharacterOffsetEnd
p235
V59
p236
sVPartOfSpeech
p237
VDT
p238
sVCharacterOffsetBegin
p239
V56
p240
sVNamedEntityTag
p241
VDATE
p242
saa(lp243
Vyear
p244
a(dp245
VNormalizedNamedEntityTag
p246
VTHIS
p247
sVTimex
p248
V<TIMEX3 alt_value="THIS P1Y" anchorTimeID="t0" mod="EARLY" temporalFunction="true" tid="t1" type="DATE" valueFromFunction="tf0">the start of the year</TIMEX3>
p249
sVLemma
p250
Vyear
p251
sVCharacterOffsetEnd
p252
V64
p253
sVPartOfSpeech
p254
VNN
p255
sVCharacterOffsetBegin
p256
V60
p257
sVNamedEntityTag
p258
VDATE
p259
saa(lp260
V.
p261
a(dp262
VNamedEntityTag
p263
g76
sVCharacterOffsetEnd
p264
V66
p265
sVCharacterOffsetBegin
p266
V65
p267
sVPartOfSpeech
p268
g261
sVLemma
p269
g261
saasVindexeddependencies
p270
(lp271
(lp272
Vroot
p273
aVROOT-0
p274
aVwere-5
p275
aa(lp276
Vamod
p277
aVgrade-3
p278
aVfourth-2
p279
aa(lp280
Vprep_in
p281
aVwere-5
p282
aVgrade-3
p283
aa(lp284
Vexpl
p285
aVwere-5
p286
aVthere-4
p287
aa(lp288
Vnum
p289
aVstudents-7
p290
aV35-6
p291
aa(lp292
Vnsubj
p293
aVwere-5
p294
aVstudents-7
p295
aa(lp296
Vdet
p297
aVstart-10
p298
aVthe-9
p299
aa(lp300
Vprep_at
p301
aVstudents-7
p302
aVstart-10
p303
aa(lp304
Vdet
p305
aVyear-13
p306
aVthe-12
p307
aa(lp308
Vprep_of
p309
aVstart-10
p310
aVyear-13
p311
aasa(dp312
Vparsetree
p313
V(ROOT (S (S (PP (IN During) (NP (DT the) (NN year))) (NP (CD 10) (NNS students)) (VP (VBD left))) (CC and) (S (NP (CD 10) (JJ new) (NNS students)) (VP (VBD came) (PP (TO to) (NP (NN school))))) (. .)))
p314
sVtext
p315
VDuring the year 10 students left and 10 new students came to school .
p316
sVdependencies
p317
(lp318
(lp319
Vroot
p320
aVROOT
p321
aVleft
p322
aa(lp323
Vdet
p324
aVyear
p325
aVthe
p326
aa(lp327
Vprep_during
p328
aVleft
p329
aVyear
p330
aa(lp331
Vnum
p332
aVstudents
p333
aV10
p334
aa(lp335
Vnsubj
p336
aVleft
p337
aVstudents
p338
aa(lp339
Vnum
p340
aVstudents
p341
aV10
p342
aa(lp343
Vamod
p344
aVstudents
p345
aVnew
p346
aa(lp347
Vnsubj
p348
aVcame
p349
aVstudents
p350
aa(lp351
Vconj_and
p352
aVleft
p353
aVcame
p354
aa(lp355
Vprep_to
p356
aVcame
p357
aVschool
p358
aasVwords
p359
(lp360
(lp361
VDuring
p362
a(dp363
VNamedEntityTag
p364
g76
sVCharacterOffsetEnd
p365
V73
p366
sVCharacterOffsetBegin
p367
V67
p368
sVPartOfSpeech
p369
VIN
p370
sVLemma
p371
Vduring
p372
saa(lp373
Vthe
p374
a(dp375
VNormalizedNamedEntityTag
p376
VTHIS
p377
sVTimex
p378
V<TIMEX3 alt_value="THIS P1Y" anchorTimeID="t0" temporalFunction="true" tid="t1" type="DATE" valueFromFunction="tf0">the year</TIMEX3>
p379
sVLemma
p380
Vthe
p381
sVCharacterOffsetEnd
p382
V77
p383
sVPartOfSpeech
p384
VDT
p385
sVCharacterOffsetBegin
p386
V74
p387
sVNamedEntityTag
p388
VDATE
p389
saa(lp390
Vyear
p391
a(dp392
VNormalizedNamedEntityTag
p393
VTHIS
p394
sVTimex
p395
V<TIMEX3 alt_value="THIS P1Y" anchorTimeID="t0" temporalFunction="true" tid="t1" type="DATE" valueFromFunction="tf0">the year</TIMEX3>
p396
sVLemma
p397
Vyear
p398
sVCharacterOffsetEnd
p399
V82
p400
sVPartOfSpeech
p401
VNN
p402
sVCharacterOffsetBegin
p403
V78
p404
sVNamedEntityTag
p405
VDATE
p406
saa(lp407
V10
p408
a(dp409
VNormalizedNamedEntityTag
p410
V10.0
p411
sVLemma
p412
V10
p413
sVCharacterOffsetEnd
p414
V85
p415
sVPartOfSpeech
p416
VCD
p417
sVCharacterOffsetBegin
p418
V83
p419
sVNamedEntityTag
p420
VNUMBER
p421
saa(lp422
Vstudents
p423
a(dp424
VNamedEntityTag
p425
g76
sVCharacterOffsetEnd
p426
V94
p427
sVCharacterOffsetBegin
p428
V86
p429
sVPartOfSpeech
p430
VNNS
p431
sVLemma
p432
Vstudent
p433
saa(lp434
Vleft
p435
a(dp436
VNamedEntityTag
p437
g76
sVCharacterOffsetEnd
p438
V99
p439
sVCharacterOffsetBegin
p440
V95
p441
sVPartOfSpeech
p442
VVBD
p443
sVLemma
p444
Vleave
p445
saa(lp446
Vand
p447
a(dp448
VNamedEntityTag
p449
g76
sVCharacterOffsetEnd
p450
V103
p451
sVCharacterOffsetBegin
p452
V100
p453
sVPartOfSpeech
p454
VCC
p455
sVLemma
p456
Vand
p457
saa(lp458
V10
p459
a(dp460
VNormalizedNamedEntityTag
p461
V10.0
p462
sVLemma
p463
V10
p464
sVCharacterOffsetEnd
p465
V106
p466
sVPartOfSpeech
p467
VCD
p468
sVCharacterOffsetBegin
p469
V104
p470
sVNamedEntityTag
p471
VNUMBER
p472
saa(lp473
Vnew
p474
a(dp475
VNamedEntityTag
p476
g76
sVCharacterOffsetEnd
p477
V110
p478
sVCharacterOffsetBegin
p479
V107
p480
sVPartOfSpeech
p481
VJJ
p482
sVLemma
p483
Vnew
p484
saa(lp485
Vstudents
p486
a(dp487
VNamedEntityTag
p488
g76
sVCharacterOffsetEnd
p489
V119
p490
sVCharacterOffsetBegin
p491
V111
p492
sVPartOfSpeech
p493
VNNS
p494
sVLemma
p495
Vstudent
p496
saa(lp497
Vcame
p498
a(dp499
VNamedEntityTag
p500
g76
sVCharacterOffsetEnd
p501
V124
p502
sVCharacterOffsetBegin
p503
V120
p504
sVPartOfSpeech
p505
VVBD
p506
sVLemma
p507
Vcome
p508
saa(lp509
Vto
p510
a(dp511
VNamedEntityTag
p512
g76
sVCharacterOffsetEnd
p513
V127
p514
sVCharacterOffsetBegin
p515
V125
p516
sVPartOfSpeech
p517
VTO
p518
sVLemma
p519
Vto
p520
saa(lp521
Vschool
p522
a(dp523
VNamedEntityTag
p524
g76
sVCharacterOffsetEnd
p525
V134
p526
sVCharacterOffsetBegin
p527
V128
p528
sVPartOfSpeech
p529
VNN
p530
sVLemma
p531
Vschool
p532
saa(lp533
g261
a(dp534
VNamedEntityTag
p535
g76
sVCharacterOffsetEnd
p536
V136
p537
sVCharacterOffsetBegin
p538
V135
p539
sVPartOfSpeech
p540
g261
sVLemma
p541
g261
saasVindexeddependencies
p542
(lp543
(lp544
Vroot
p545
aVROOT-0
p546
aVleft-6
p547
aa(lp548
Vdet
p549
aVyear-3
p550
aVthe-2
p551
aa(lp552
Vprep_during
p553
aVleft-6
p554
aVyear-3
p555
aa(lp556
Vnum
p557
aVstudents-5
p558
aV10-4
p559
aa(lp560
Vnsubj
p561
aVleft-6
p562
aVstudents-5
p563
aa(lp564
Vnum
p565
aVstudents-10
p566
aV10-8
p567
aa(lp568
Vamod
p569
aVstudents-10
p570
aVnew-9
p571
aa(lp572
Vnsubj
p573
aVcame-11
p574
aVstudents-10
p575
aa(lp576
Vconj_and
p577
aVleft-6
p578
aVcame-11
p579
aa(lp580
Vprep_to
p581
aVcame-11
p582
aVschool-13
p583
aasa(dp584
Vparsetree
p585
V(ROOT (SBARQ (WHNP (WHADJP (WRB How) (JJ many)) (NNS students)) (SQ (VP (VBD were) (PP (IN in) (NP (NP (JJ fourth) (NN grade)) (PP (IN at) (NP (DT the) (NN end))))))) (. ?)))
p586
sVtext
p587
VHow many students were in fourth grade at the end ?
p588
sVdependencies
p589
(lp590
(lp591
Vroot
p592
aVROOT
p593
aVwere
p594
aa(lp595
Vadvmod
p596
aVmany
p597
aVHow
p598
aa(lp599
Vamod
p600
aVstudents
p601
aVmany
p602
aa(lp603
Vnsubj
p604
aVwere
p605
aVstudents
p606
aa(lp607
Vamod
p608
aVgrade
p609
aVfourth
p610
aa(lp611
Vprep_in
p612
aVwere
p613
aVgrade
p614
aa(lp615
Vdet
p616
aVend
p617
aVthe
p618
aa(lp619
Vprep_at
p620
aVgrade
p621
aVend
p622
aasVwords
p623
(lp624
(lp625
VHow
p626
a(dp627
VNamedEntityTag
p628
g76
sVCharacterOffsetEnd
p629
V140
p630
sVCharacterOffsetBegin
p631
V137
p632
sVPartOfSpeech
p633
VWRB
p634
sVLemma
p635
Vhow
p636
saa(lp637
Vmany
p638
a(dp639
VNamedEntityTag
p640
g76
sVCharacterOffsetEnd
p641
V145
p642
sVCharacterOffsetBegin
p643
V141
p644
sVPartOfSpeech
p645
VJJ
p646
sVLemma
p647
Vmany
p648
saa(lp649
Vstudents
p650
a(dp651
VNamedEntityTag
p652
g76
sVCharacterOffsetEnd
p653
V154
p654
sVCharacterOffsetBegin
p655
V146
p656
sVPartOfSpeech
p657
VNNS
p658
sVLemma
p659
Vstudent
p660
saa(lp661
Vwere
p662
a(dp663
VNamedEntityTag
p664
g76
sVCharacterOffsetEnd
p665
V159
p666
sVCharacterOffsetBegin
p667
V155
p668
sVPartOfSpeech
p669
VVBD
p670
sVLemma
p671
Vbe
p672
saa(lp673
Vin
p674
a(dp675
VNamedEntityTag
p676
g76
sVCharacterOffsetEnd
p677
V162
p678
sVCharacterOffsetBegin
p679
V160
p680
sVPartOfSpeech
p681
VIN
p682
sVLemma
p683
Vin
p684
saa(lp685
Vfourth
p686
a(dp687
VNormalizedNamedEntityTag
p688
V4.0
p689
sVLemma
p690
Vfourth
p691
sVCharacterOffsetEnd
p692
V169
p693
sVPartOfSpeech
p694
VJJ
p695
sVCharacterOffsetBegin
p696
V163
p697
sVNamedEntityTag
p698
VORDINAL
p699
saa(lp700
Vgrade
p701
a(dp702
VNamedEntityTag
p703
g76
sVCharacterOffsetEnd
p704
V175
p705
sVCharacterOffsetBegin
p706
V170
p707
sVPartOfSpeech
p708
VNN
p709
sVLemma
p710
Vgrade
p711
saa(lp712
Vat
p713
a(dp714
VNamedEntityTag
p715
g76
sVCharacterOffsetEnd
p716
V178
p717
sVCharacterOffsetBegin
p718
V176
p719
sVPartOfSpeech
p720
VIN
p721
sVLemma
p722
Vat
p723
saa(lp724
Vthe
p725
a(dp726
VNamedEntityTag
p727
g76
sVCharacterOffsetEnd
p728
V182
p729
sVCharacterOffsetBegin
p730
V179
p731
sVPartOfSpeech
p732
VDT
p733
sVLemma
p734
Vthe
p735
saa(lp736
Vend
p737
a(dp738
VNamedEntityTag
p739
g76
sVCharacterOffsetEnd
p740
V186
p741
sVCharacterOffsetBegin
p742
V183
p743
sVPartOfSpeech
p744
VNN
p745
sVLemma
p746
Vend
p747
saa(lp748
V?
p749
a(dp750
VNamedEntityTag
p751
g76
sVCharacterOffsetEnd
p752
V188
p753
sVCharacterOffsetBegin
p754
V187
p755
sVPartOfSpeech
p756
g261
sVLemma
p757
g749
saasVindexeddependencies
p758
(lp759
(lp760
Vroot
p761
aVROOT-0
p762
aVwere-4
p763
aa(lp764
Vadvmod
p765
aVmany-2
p766
aVHow-1
p767
aa(lp768
Vamod
p769
aVstudents-3
p770
aVmany-2
p771
aa(lp772
Vnsubj
p773
aVwere-4
p774
aVstudents-3
p775
aa(lp776
Vamod
p777
aVgrade-7
p778
aVfourth-6
p779
aa(lp780
Vprep_in
p781
aVwere-4
p782
aVgrade-7
p783
aa(lp784
Vdet
p785
aVend-10
p786
aVthe-9
p787
aa(lp788
Vprep_at
p789
aVgrade-7
p790
aVend-10
p791
aasas.