(dp0
Vcoref
p1
(lp2
(lp3
(lp4
(lp5
Vits
p6
aI0
aI6
aI6
aI7
aa(lp7
VEach morning
p8
aI0
aI1
aI0
aI2
aaaa(lp9
(lp10
(lp11
VThe hotel
p12
aI1
aI1
aI0
aI2
aa(lp13
VSleepwell Hotel
p14
aI0
aI4
aI3
aI5
aaa(lp15
(lp16
Vthe hotel
p17
aI2
aI4
aI3
aI5
aa(lp18
VSleepwell Hotel
p19
aI0
aI4
aI3
aI5
aaaa(lp20
(lp21
(lp22
VThis year
p23
aI2
aI1
aI0
aI2
aa(lp24
Vlast year
p25
aI1
aI9
aI8
aI10
aaa(lp26
(lp27
Vit
p28
aI2
aI12
aI12
aI13
aa(lp29
Vlast year
p30
aI1
aI9
aI8
aI10
aaa(lp31
(lp32
Vthis year
p33
aI3
aI5
aI4
aI6
aa(lp34
Vlast year
p35
aI1
aI9
aI8
aI10
aaaasVsentences
p36
(lp37
(dp38
Vparsetree
p39
V(ROOT (S (NP-TMP (DT Each) (NN morning)) (, ,) (NP (NNP Sleepwell) (NNP Hotel)) (VP (VBZ offers) (NP (PRP$ its) (NNS guests)) (NP (NP (DT a) (JJ free) (JJ continental) (NN breakfast)) (PP (IN with) (NP (NP (NNS pastries)) (CC and) (NP (JJ orange) (NN juice)))))) (. .)))
p40
sVtext
p41
VEach morning , Sleepwell Hotel offers its guests a free continental breakfast with pastries and orange juice .
p42
sVdependencies
p43
(lp44
(lp45
Vroot
p46
aVROOT
p47
aVoffers
p48
aa(lp49
Vdet
p50
aVmorning
p51
aVEach
p52
aa(lp53
Vtmod
p54
aVoffers
p55
aVmorning
p56
aa(lp57
Vnn
p58
aVHotel
p59
aVSleepwell
p60
aa(lp61
Vnsubj
p62
aVoffers
p63
aVHotel
p64
aa(lp65
Vposs
p66
aVguests
p67
aVits
p68
aa(lp69
Vdep
p70
aVoffers
p71
aVguests
p72
aa(lp73
Vdet
p74
aVbreakfast
p75
aVa
p76
aa(lp77
Vamod
p78
aVbreakfast
p79
aVfree
p80
aa(lp81
Vamod
p82
aVbreakfast
p83
aVcontinental
p84
aa(lp85
Vdobj
p86
aVoffers
p87
aVbreakfast
p88
aa(lp89
Vprep_with
p90
aVbreakfast
p91
aVpastries
p92
aa(lp93
Vamod
p94
aVjuice
p95
aVorange
p96
aa(lp97
Vconj_and
p98
aVpastries
p99
aVjuice
p100
aasVwords
p101
(lp102
(lp103
VEach
p104
a(dp105
VTimex
p106
V<TIMEX3 periodicity="P1D" quant="each" tid="t1" type="SET" value="TMO">Each morning</TIMEX3>
p107
sVCharacterOffsetEnd
p108
V5
p109
sVLemma
p110
Veach
p111
sVPartOfSpeech
p112
VDT
p113
sVCharacterOffsetBegin
p114
V1
p115
sVNamedEntityTag
p116
VSET
p117
saa(lp118
Vmorning
p119
a(dp120
VTimex
p121
V<TIMEX3 periodicity="P1D" quant="each" tid="t1" type="SET" value="TMO">Each morning</TIMEX3>
p122
sVCharacterOffsetEnd
p123
V13
p124
sVLemma
p125
Vmorning
p126
sVPartOfSpeech
p127
VNN
p128
sVCharacterOffsetBegin
p129
V6
p130
sVNamedEntityTag
p131
VSET
p132
saa(lp133
V,
p134
a(dp135
VNamedEntityTag
p136
VO
p137
sVCharacterOffsetEnd
p138
V15
p139
sVCharacterOffsetBegin
p140
V14
p141
sVPartOfSpeech
p142
g134
sVLemma
p143
g134
saa(lp144
VSleepwell
p145
a(dp146
VNamedEntityTag
p147
g137
sVCharacterOffsetEnd
p148
V25
p149
sVCharacterOffsetBegin
p150
V16
p151
sVPartOfSpeech
p152
VNNP
p153
sVLemma
p154
VSleepwell
p155
saa(lp156
VHotel
p157
a(dp158
VNamedEntityTag
p159
g137
sVCharacterOffsetEnd
p160
V31
p161
sVCharacterOffsetBegin
p162
V26
p163
sVPartOfSpeech
p164
VNNP
p165
sVLemma
p166
VHotel
p167
saa(lp168
Voffers
p169
a(dp170
VNamedEntityTag
p171
g137
sVCharacterOffsetEnd
p172
V38
p173
sVCharacterOffsetBegin
p174
V32
p175
sVPartOfSpeech
p176
VVBZ
p177
sVLemma
p178
Voffer
p179
saa(lp180
Vits
p181
a(dp182
VNamedEntityTag
p183
g137
sVCharacterOffsetEnd
p184
V42
p185
sVCharacterOffsetBegin
p186
V39
p187
sVPartOfSpeech
p188
VPRP$
p189
sVLemma
p190
Vits
p191
saa(lp192
Vguests
p193
a(dp194
VNamedEntityTag
p195
g137
sVCharacterOffsetEnd
p196
V49
p197
sVCharacterOffsetBegin
p198
V43
p199
sVPartOfSpeech
p200
VNNS
p201
sVLemma
p202
Vguest
p203
saa(lp204
g76
a(dp205
VNamedEntityTag
p206
g137
sVCharacterOffsetEnd
p207
V51
p208
sVCharacterOffsetBegin
p209
V50
p210
sVPartOfSpeech
p211
VDT
p212
sVLemma
p213
g76
saa(lp214
Vfree
p215
a(dp216
VNamedEntityTag
p217
g137
sVCharacterOffsetEnd
p218
V56
p219
sVCharacterOffsetBegin
p220
V52
p221
sVPartOfSpeech
p222
VJJ
p223
sVLemma
p224
Vfree
p225
saa(lp226
Vcontinental
p227
a(dp228
VNamedEntityTag
p229
g137
sVCharacterOffsetEnd
p230
V68
p231
sVCharacterOffsetBegin
p232
V57
p233
sVPartOfSpeech
p234
VJJ
p235
sVLemma
p236
Vcontinental
p237
saa(lp238
Vbreakfast
p239
a(dp240
VNamedEntityTag
p241
g137
sVCharacterOffsetEnd
p242
V78
p243
sVCharacterOffsetBegin
p244
V69
p245
sVPartOfSpeech
p246
VNN
p247
sVLemma
p248
Vbreakfast
p249
saa(lp250
Vwith
p251
a(dp252
VNamedEntityTag
p253
g137
sVCharacterOffsetEnd
p254
V83
p255
sVCharacterOffsetBegin
p256
V79
p257
sVPartOfSpeech
p258
VIN
p259
sVLemma
p260
Vwith
p261
saa(lp262
Vpastries
p263
a(dp264
VNamedEntityTag
p265
g137
sVCharacterOffsetEnd
p266
V92
p267
sVCharacterOffsetBegin
p268
V84
p269
sVPartOfSpeech
p270
VNNS
p271
sVLemma
p272
Vpastry
p273
saa(lp274
Vand
p275
a(dp276
VNamedEntityTag
p277
g137
sVCharacterOffsetEnd
p278
V96
p279
sVCharacterOffsetBegin
p280
V93
p281
sVPartOfSpeech
p282
VCC
p283
sVLemma
p284
Vand
p285
saa(lp286
Vorange
p287
a(dp288
VNamedEntityTag
p289
g137
sVCharacterOffsetEnd
p290
V103
p291
sVCharacterOffsetBegin
p292
V97
p293
sVPartOfSpeech
p294
VJJ
p295
sVLemma
p296
Vorange
p297
saa(lp298
Vjuice
p299
a(dp300
VNamedEntityTag
p301
g137
sVCharacterOffsetEnd
p302
V109
p303
sVCharacterOffsetBegin
p304
V104
p305
sVPartOfSpeech
p306
VNN
p307
sVLemma
p308
Vjuice
p309
saa(lp310
V.
p311
a(dp312
VNamedEntityTag
p313
g137
sVCharacterOffsetEnd
p314
V111
p315
sVCharacterOffsetBegin
p316
V110
p317
sVPartOfSpeech
p318
g311
sVLemma
p319
g311
saasVindexeddependencies
p320
(lp321
(lp322
Vroot
p323
aVROOT-0
p324
aVoffers-6
p325
aa(lp326
Vdet
p327
aVmorning-2
p328
aVEach-1
p329
aa(lp330
Vtmod
p331
aVoffers-6
p332
aVmorning-2
p333
aa(lp334
Vnn
p335
aVHotel-5
p336
aVSleepwell-4
p337
aa(lp338
Vnsubj
p339
aVoffers-6
p340
aVHotel-5
p341
aa(lp342
Vposs
p343
aVguests-8
p344
aVits-7
p345
aa(lp346
Vdep
p347
aVoffers-6
p348
aVguests-8
p349
aa(lp350
Vdet
p351
aVbreakfast-12
p352
aVa-9
p353
aa(lp354
Vamod
p355
aVbreakfast-12
p356
aVfree-10
p357
aa(lp358
Vamod
p359
aVbreakfast-12
p360
aVcontinental-11
p361
aa(lp362
Vdobj
p363
aVoffers-6
p364
aVbreakfast-12
p365
aa(lp366
Vprep_with
p367
aVbreakfast-12
p368
aVpastries-14
p369
aa(lp370
Vamod
p371
aVjuice-17
p372
aVorange-16
p373
aa(lp374
Vconj_and
p375
aVpastries-14
p376
aVjuice-17
p377
aasa(dp378
Vparsetree
p379
V(ROOT (S (NP (DT The) (NN hotel)) (VP (VBD served) (NP (NP (CD 240) (NNS gallons)) (PP (IN of) (NP (JJ orange) (NN juice)))) (NP-TMP (JJ last) (NN year))) (. .)))
p380
sVtext
p381
VThe hotel served 240 gallons of orange juice last year .
p382
sVdependencies
p383
(lp384
(lp385
Vroot
p386
aVROOT
p387
aVserved
p388
aa(lp389
Vdet
p390
aVhotel
p391
aVThe
p392
aa(lp393
Vnsubj
p394
aVserved
p395
aVhotel
p396
aa(lp397
Vnum
p398
aVgallons
p399
aV240
p400
aa(lp401
Vdobj
p402
aVserved
p403
aVgallons
p404
aa(lp405
Vamod
p406
aVjuice
p407
aVorange
p408
aa(lp409
Vprep_of
p410
aVgallons
p411
aVjuice
p412
aa(lp413
Vamod
p414
aVyear
p415
aVlast
p416
aa(lp417
Vtmod
p418
aVserved
p419
aVyear
p420
aasVwords
p421
(lp422
(lp423
VThe
p424
a(dp425
VNamedEntityTag
p426
g137
sVCharacterOffsetEnd
p427
V115
p428
sVCharacterOffsetBegin
p429
V112
p430
sVPartOfSpeech
p431
VDT
p432
sVLemma
p433
Vthe
p434
saa(lp435
Vhotel
p436
a(dp437
VNamedEntityTag
p438
g137
sVCharacterOffsetEnd
p439
V121
p440
sVCharacterOffsetBegin
p441
V116
p442
sVPartOfSpeech
p443
VNN
p444
sVLemma
p445
Vhotel
p446
saa(lp447
Vserved
p448
a(dp449
VNamedEntityTag
p450
g137
sVCharacterOffsetEnd
p451
V128
p452
sVCharacterOffsetBegin
p453
V122
p454
sVPartOfSpeech
p455
VVBD
p456
sVLemma
p457
Vserve
p458
saa(lp459
V240
p460
a(dp461
VNormalizedNamedEntityTag
p462
V240.0
p463
sVLemma
p464
V240
p465
sVCharacterOffsetEnd
p466
V132
p467
sVPartOfSpeech
p468
VCD
p469
sVCharacterOffsetBegin
p470
V129
p471
sVNamedEntityTag
p472
VNUMBER
p473
saa(lp474
Vgallons
p475
a(dp476
VNamedEntityTag
p477
g137
sVCharacterOffsetEnd
p478
V140
p479
sVCharacterOffsetBegin
p480
V133
p481
sVPartOfSpeech
p482
VNNS
p483
sVLemma
p484
Vgallon
p485
saa(lp486
Vof
p487
a(dp488
VNamedEntityTag
p489
g137
sVCharacterOffsetEnd
p490
V143
p491
sVCharacterOffsetBegin
p492
V141
p493
sVPartOfSpeech
p494
VIN
p495
sVLemma
p496
Vof
p497
saa(lp498
Vorange
p499
a(dp500
VNamedEntityTag
p501
g137
sVCharacterOffsetEnd
p502
V150
p503
sVCharacterOffsetBegin
p504
V144
p505
sVPartOfSpeech
p506
VJJ
p507
sVLemma
p508
Vorange
p509
saa(lp510
Vjuice
p511
a(dp512
VNamedEntityTag
p513
g137
sVCharacterOffsetEnd
p514
V156
p515
sVCharacterOffsetBegin
p516
V151
p517
sVPartOfSpeech
p518
VNN
p519
sVLemma
p520
Vjuice
p521
saa(lp522
Vlast
p523
a(dp524
VNormalizedNamedEntityTag
p525
VTHIS
p526
sVTimex
p527
V<TIMEX3 alt_value="THIS P1Y OFFSET P-1Y" anchorTimeID="t3" temporalFunction="true" tid="t2" type="DATE" valueFromFunction="tf0">last year</TIMEX3>
p528
sVLemma
p529
Vlast
p530
sVCharacterOffsetEnd
p531
V161
p532
sVPartOfSpeech
p533
VJJ
p534
sVCharacterOffsetBegin
p535
V157
p536
sVNamedEntityTag
p537
VDATE
p538
saa(lp539
Vyear
p540
a(dp541
VNormalizedNamedEntityTag
p542
VTHIS
p543
sVTimex
p544
V<TIMEX3 alt_value="THIS P1Y OFFSET P-1Y" anchorTimeID="t3" temporalFunction="true" tid="t2" type="DATE" valueFromFunction="tf0">last year</TIMEX3>
p545
sVLemma
p546
Vyear
p547
sVCharacterOffsetEnd
p548
V166
p549
sVPartOfSpeech
p550
VNN
p551
sVCharacterOffsetBegin
p552
V162
p553
sVNamedEntityTag
p554
VDATE
p555
saa(lp556
g311
a(dp557
VNamedEntityTag
p558
g137
sVCharacterOffsetEnd
p559
V168
p560
sVCharacterOffsetBegin
p561
V167
p562
sVPartOfSpeech
p563
g311
sVLemma
p564
g311
saasVindexeddependencies
p565
(lp566
(lp567
Vroot
p568
aVROOT-0
p569
aVserved-3
p570
aa(lp571
Vdet
p572
aVhotel-2
p573
aVThe-1
p574
aa(lp575
Vnsubj
p576
aVserved-3
p577
aVhotel-2
p578
aa(lp579
Vnum
p580
aVgallons-5
p581
aV240-4
p582
aa(lp583
Vdobj
p584
aVserved-3
p585
aVgallons-5
p586
aa(lp587
Vamod
p588
aVjuice-8
p589
aVorange-7
p590
aa(lp591
Vprep_of
p592
aVgallons-5
p593
aVjuice-8
p594
aa(lp595
Vamod
p596
aVyear-10
p597
aVlast-9
p598
aa(lp599
Vtmod
p600
aVserved-3
p601
aVyear-10
p602
aasa(dp603
Vparsetree
p604
V(ROOT (S (NP-TMP (DT This) (NN year)) (, ,) (NP (DT the) (NN hotel)) (VP (VBD served) (NP (QP (CD 0.55) (NNS times) (RBR more)) (JJ orange) (NN juice)) (SBAR (IN than) (S (NP (PRP it)) (VP (VBD did) (NP (DT the) (JJ previous) (NN year)))))) (. .)))
p605
sVtext
p606
VThis year , the hotel served 0.55 times more orange juice than it did the previous year .
p607
sVdependencies
p608
(lp609
(lp610
Vroot
p611
aVROOT
p612
aVserved
p613
aa(lp614
Vdet
p615
aVyear
p616
aVThis
p617
aa(lp618
Vtmod
p619
aVserved
p620
aVyear
p621
aa(lp622
Vdet
p623
aVhotel
p624
aVthe
p625
aa(lp626
Vnsubj
p627
aVserved
p628
aVhotel
p629
aa(lp630
Vnumber
p631
aVtimes
p632
aV0.55
p633
aa(lp634
Vnum
p635
aVjuice
p636
aVtimes
p637
aa(lp638
Vquantmod
p639
aVtimes
p640
aVmore
p641
aa(lp642
Vamod
p643
aVjuice
p644
aVorange
p645
aa(lp646
Vdobj
p647
aVserved
p648
aVjuice
p649
aa(lp650
Vmark
p651
aVdid
p652
aVthan
p653
aa(lp654
Vnsubj
p655
aVdid
p656
aVit
p657
aa(lp658
Vadvcl
p659
aVserved
p660
aVdid
p661
aa(lp662
Vdet
p663
aVyear
p664
aVthe
p665
aa(lp666
Vamod
p667
aVyear
p668
aVprevious
p669
aa(lp670
Vtmod
p671
aVdid
p672
aVyear
p673
aasVwords
p674
(lp675
(lp676
VThis
p677
a(dp678
VNormalizedNamedEntityTag
p679
VTHIS
p680
sVTimex
p681
V<TIMEX3 alt_value="THIS P1Y" anchorTimeID="t0" temporalFunction="true" tid="t4" type="DATE" valueFromFunction="tf1">This year</TIMEX3>
p682
sVLemma
p683
Vthis
p684
sVCharacterOffsetEnd
p685
V173
p686
sVPartOfSpeech
p687
VDT
p688
sVCharacterOffsetBegin
p689
V169
p690
sVNamedEntityTag
p691
VDATE
p692
saa(lp693
Vyear
p694
a(dp695
VNormalizedNamedEntityTag
p696
VTHIS
p697
sVTimex
p698
V<TIMEX3 alt_value="THIS P1Y" anchorTimeID="t0" temporalFunction="true" tid="t4" type="DATE" valueFromFunction="tf1">This year</TIMEX3>
p699
sVLemma
p700
Vyear
p701
sVCharacterOffsetEnd
p702
V178
p703
sVPartOfSpeech
p704
VNN
p705
sVCharacterOffsetBegin
p706
V174
p707
sVNamedEntityTag
p708
VDATE
p709
saa(lp710
g134
a(dp711
VNamedEntityTag
p712
g137
sVCharacterOffsetEnd
p713
V180
p714
sVCharacterOffsetBegin
p715
V179
p716
sVPartOfSpeech
p717
g134
sVLemma
p718
g134
saa(lp719
Vthe
p720
a(dp721
VNamedEntityTag
p722
g137
sVCharacterOffsetEnd
p723
V184
p724
sVCharacterOffsetBegin
p725
V181
p726
sVPartOfSpeech
p727
VDT
p728
sVLemma
p729
Vthe
p730
saa(lp731
Vhotel
p732
a(dp733
VNamedEntityTag
p734
g137
sVCharacterOffsetEnd
p735
V190
p736
sVCharacterOffsetBegin
p737
V185
p738
sVPartOfSpeech
p739
VNN
p740
sVLemma
p741
Vhotel
p742
saa(lp743
Vserved
p744
a(dp745
VNamedEntityTag
p746
g137
sVCharacterOffsetEnd
p747
V197
p748
sVCharacterOffsetBegin
p749
V191
p750
sVPartOfSpeech
p751
VVBD
p752
sVLemma
p753
Vserve
p754
saa(lp755
V0.55
p756
a(dp757
VNormalizedNamedEntityTag
p758
V0.55
p759
sVLemma
p760
V0.55
p761
sVCharacterOffsetEnd
p762
V202
p763
sVPartOfSpeech
p764
VCD
p765
sVCharacterOffsetBegin
p766
V198
p767
sVNamedEntityTag
p768
VNUMBER
p769
saa(lp770
Vtimes
p771
a(dp772
VNamedEntityTag
p773
g137
sVCharacterOffsetEnd
p774
V208
p775
sVCharacterOffsetBegin
p776
V203
p777
sVPartOfSpeech
p778
VNNS
p779
sVLemma
p780
Vtime
p781
saa(lp782
Vmore
p783
a(dp784
VNamedEntityTag
p785
g137
sVCharacterOffsetEnd
p786
V213
p787
sVCharacterOffsetBegin
p788
V209
p789
sVPartOfSpeech
p790
VRBR
p791
sVLemma
p792
Vmore
p793
saa(lp794
Vorange
p795
a(dp796
VNamedEntityTag
p797
g137
sVCharacterOffsetEnd
p798
V220
p799
sVCharacterOffsetBegin
p800
V214
p801
sVPartOfSpeech
p802
VJJ
p803
sVLemma
p804
Vorange
p805
saa(lp806
Vjuice
p807
a(dp808
VNamedEntityTag
p809
g137
sVCharacterOffsetEnd
p810
V226
p811
sVCharacterOffsetBegin
p812
V221
p813
sVPartOfSpeech
p814
VNN
p815
sVLemma
p816
Vjuice
p817
saa(lp818
Vthan
p819
a(dp820
VNamedEntityTag
p821
g137
sVCharacterOffsetEnd
p822
V231
p823
sVCharacterOffsetBegin
p824
V227
p825
sVPartOfSpeech
p826
VIN
p827
sVLemma
p828
Vthan
p829
saa(lp830
Vit
p831
a(dp832
VNamedEntityTag
p833
g137
sVCharacterOffsetEnd
p834
V234
p835
sVCharacterOffsetBegin
p836
V232
p837
sVPartOfSpeech
p838
VPRP
p839
sVLemma
p840
Vit
p841
saa(lp842
Vdid
p843
a(dp844
VNamedEntityTag
p845
g137
sVCharacterOffsetEnd
p846
V238
p847
sVCharacterOffsetBegin
p848
V235
p849
sVPartOfSpeech
p850
VVBD
p851
sVLemma
p852
Vdo
p853
saa(lp854
Vthe
p855
a(dp856
VNormalizedNamedEntityTag
p857
VPREV_IMMEDIATE
p858
sVTimex
p859
V<TIMEX3 alt_value="PREV_IMMEDIATE P1Y" anchorTimeID="t0" temporalFunction="true" tid="t5" type="DATE" valueFromFunction="tf2">the previous year</TIMEX3>
p860
sVLemma
p861
Vthe
p862
sVCharacterOffsetEnd
p863
V242
p864
sVPartOfSpeech
p865
VDT
p866
sVCharacterOffsetBegin
p867
V239
p868
sVNamedEntityTag
p869
VDATE
p870
saa(lp871
Vprevious
p872
a(dp873
VNormalizedNamedEntityTag
p874
VPREV_IMMEDIATE
p875
sVTimex
p876
V<TIMEX3 alt_value="PREV_IMMEDIATE P1Y" anchorTimeID="t0" temporalFunction="true" tid="t5" type="DATE" valueFromFunction="tf2">the previous year</TIMEX3>
p877
sVLemma
p878
Vprevious
p879
sVCharacterOffsetEnd
p880
V251
p881
sVPartOfSpeech
p882
VJJ
p883
sVCharacterOffsetBegin
p884
V243
p885
sVNamedEntityTag
p886
VDATE
p887
saa(lp888
Vyear
p889
a(dp890
VNormalizedNamedEntityTag
p891
VPREV_IMMEDIATE
p892
sVTimex
p893
V<TIMEX3 alt_value="PREV_IMMEDIATE P1Y" anchorTimeID="t0" temporalFunction="true" tid="t5" type="DATE" valueFromFunction="tf2">the previous year</TIMEX3>
p894
sVLemma
p895
Vyear
p896
sVCharacterOffsetEnd
p897
V256
p898
sVPartOfSpeech
p899
VNN
p900
sVCharacterOffsetBegin
p901
V252
p902
sVNamedEntityTag
p903
VDATE
p904
saa(lp905
g311
a(dp906
VNamedEntityTag
p907
g137
sVCharacterOffsetEnd
p908
V258
p909
sVCharacterOffsetBegin
p910
V257
p911
sVPartOfSpeech
p912
g311
sVLemma
p913
g311
saasVindexeddependencies
p914
(lp915
(lp916
Vroot
p917
aVROOT-0
p918
aVserved-6
p919
aa(lp920
Vdet
p921
aVyear-2
p922
aVThis-1
p923
aa(lp924
Vtmod
p925
aVserved-6
p926
aVyear-2
p927
aa(lp928
Vdet
p929
aVhotel-5
p930
aVthe-4
p931
aa(lp932
Vnsubj
p933
aVserved-6
p934
aVhotel-5
p935
aa(lp936
Vnumber
p937
aVtimes-8
p938
aV0.55-7
p939
aa(lp940
Vnum
p941
aVjuice-11
p942
aVtimes-8
p943
aa(lp944
Vquantmod
p945
aVtimes-8
p946
aVmore-9
p947
aa(lp948
Vamod
p949
aVjuice-11
p950
aVorange-10
p951
aa(lp952
Vdobj
p953
aVserved-6
p954
aVjuice-11
p955
aa(lp956
Vmark
p957
aVdid-14
p958
aVthan-12
p959
aa(lp960
Vnsubj
p961
aVdid-14
p962
aVit-13
p963
aa(lp964
Vadvcl
p965
aVserved-6
p966
aVdid-14
p967
aa(lp968
Vdet
p969
aVyear-17
p970
aVthe-15
p971
aa(lp972
Vamod
p973
aVyear-17
p974
aVprevious-16
p975
aa(lp976
Vtmod
p977
aVdid-14
p978
aVyear-17
p979
aasa(dp980
Vparsetree
p981
V(ROOT (SBARQ (WHNP (WRB How) (RB much)) (SQ (VBD was) (VP (VBN served) (NP-TMP (DT this) (NN year)))) (. ?)))
p982
sVtext
p983
VHow much was served this year ?
p984
sVdependencies
p985
(lp986
(lp987
Vroot
p988
aVROOT
p989
aVserved
p990
aa(lp991
Vadvmod
p992
aVmuch
p993
aVHow
p994
aa(lp995
Vnsubjpass
p996
aVserved
p997
aVmuch
p998
aa(lp999
Vauxpass
p1000
aVserved
p1001
aVwas
p1002
aa(lp1003
Vdet
p1004
aVyear
p1005
aVthis
p1006
aa(lp1007
Vtmod
p1008
aVserved
p1009
aVyear
p1010
aasVwords
p1011
(lp1012
(lp1013
VHow
p1014
a(dp1015
VNamedEntityTag
p1016
g137
sVCharacterOffsetEnd
p1017
V262
p1018
sVCharacterOffsetBegin
p1019
V259
p1020
sVPartOfSpeech
p1021
VWRB
p1022
sVLemma
p1023
Vhow
p1024
saa(lp1025
Vmuch
p1026
a(dp1027
VNamedEntityTag
p1028
g137
sVCharacterOffsetEnd
p1029
V267
p1030
sVCharacterOffsetBegin
p1031
V263
p1032
sVPartOfSpeech
p1033
VRB
p1034
sVLemma
p1035
Vmuch
p1036
saa(lp1037
Vwas
p1038
a(dp1039
VNamedEntityTag
p1040
g137
sVCharacterOffsetEnd
p1041
V271
p1042
sVCharacterOffsetBegin
p1043
V268
p1044
sVPartOfSpeech
p1045
VVBD
p1046
sVLemma
p1047
Vbe
p1048
saa(lp1049
Vserved
p1050
a(dp1051
VNamedEntityTag
p1052
g137
sVCharacterOffsetEnd
p1053
V278
p1054
sVCharacterOffsetBegin
p1055
V272
p1056
sVPartOfSpeech
p1057
VVBN
p1058
sVLemma
p1059
Vserve
p1060
saa(lp1061
Vthis
p1062
a(dp1063
VNormalizedNamedEntityTag
p1064
VTHIS
p1065
sVTimex
p1066
V<TIMEX3 alt_value="THIS P1Y" anchorTimeID="t0" temporalFunction="true" tid="t4" type="DATE" valueFromFunction="tf1">this year</TIMEX3>
p1067
sVLemma
p1068
Vthis
p1069
sVCharacterOffsetEnd
p1070
V283
p1071
sVPartOfSpeech
p1072
VDT
p1073
sVCharacterOffsetBegin
p1074
V279
p1075
sVNamedEntityTag
p1076
VDATE
p1077
saa(lp1078
Vyear
p1079
a(dp1080
VNormalizedNamedEntityTag
p1081
VTHIS
p1082
sVTimex
p1083
V<TIMEX3 alt_value="THIS P1Y" anchorTimeID="t0" temporalFunction="true" tid="t4" type="DATE" valueFromFunction="tf1">this year</TIMEX3>
p1084
sVLemma
p1085
Vyear
p1086
sVCharacterOffsetEnd
p1087
V288
p1088
sVPartOfSpeech
p1089
VNN
p1090
sVCharacterOffsetBegin
p1091
V284
p1092
sVNamedEntityTag
p1093
VDATE
p1094
saa(lp1095
V?
p1096
a(dp1097
VNamedEntityTag
p1098
g137
sVCharacterOffsetEnd
p1099
V290
p1100
sVCharacterOffsetBegin
p1101
V289
p1102
sVPartOfSpeech
p1103
g311
sVLemma
p1104
g1096
saasVindexeddependencies
p1105
(lp1106
(lp1107
Vroot
p1108
aVROOT-0
p1109
aVserved-4
p1110
aa(lp1111
Vadvmod
p1112
aVmuch-2
p1113
aVHow-1
p1114
aa(lp1115
Vnsubjpass
p1116
aVserved-4
p1117
aVmuch-2
p1118
aa(lp1119
Vauxpass
p1120
aVserved-4
p1121
aVwas-3
p1122
aa(lp1123
Vdet
p1124
aVyear-6
p1125
aVthis-5
p1126
aa(lp1127
Vtmod
p1128
aVserved-4
p1129
aVyear-6
p1130
aasas.