(dp0
Vcoref
p1
(lp2
(lp3
(lp4
(lp5
Vthe meeting
p6
aI2
aI6
aI5
aI7
aa(lp7
Va company meeting
p8
aI0
aI3
aI1
aI4
aaaa(lp9
(lp10
(lp11
Vthem
p12
aI1
aI3
aI3
aI4
aa(lp13
V68 people in attendance
p14
aI0
aI8
aI7
aI11
aaaasVsentences
p15
(lp16
(dp17
Vparsetree
p18
V(ROOT (S (PP (IN At) (NP (DT a) (NN company) (NN meeting))) (, ,) (NP (EX there)) (VP (VBD were) (NP (NP (CD 68) (NNS people)) (PP (IN in) (NP (NN attendance))))) (. .)))
p19
sVtext
p20
VAt a company meeting , there were 68 people in attendance .
p21
sVdependencies
p22
(lp23
(lp24
Vroot
p25
aVROOT
p26
aVwere
p27
aa(lp28
Vdet
p29
aVmeeting
p30
aVa
p31
aa(lp32
Vnn
p33
aVmeeting
p34
aVcompany
p35
aa(lp36
Vprep_at
p37
aVwere
p38
aVmeeting
p39
aa(lp40
Vexpl
p41
aVwere
p42
aVthere
p43
aa(lp44
Vnum
p45
aVpeople
p46
aV68
p47
aa(lp48
Vnsubj
p49
aVwere
p50
aVpeople
p51
aa(lp52
Vprep_in
p53
aVpeople
p54
aVattendance
p55
aasVwords
p56
(lp57
(lp58
VAt
p59
a(dp60
VNamedEntityTag
p61
VO
p62
sVCharacterOffsetEnd
p63
V3
p64
sVCharacterOffsetBegin
p65
V1
p66
sVPartOfSpeech
p67
VIN
p68
sVLemma
p69
Vat
p70
saa(lp71
g31
a(dp72
VNamedEntityTag
p73
g62
sVCharacterOffsetEnd
p74
V5
p75
sVCharacterOffsetBegin
p76
V4
p77
sVPartOfSpeech
p78
VDT
p79
sVLemma
p80
g31
saa(lp81
Vcompany
p82
a(dp83
VNamedEntityTag
p84
g62
sVCharacterOffsetEnd
p85
V13
p86
sVCharacterOffsetBegin
p87
V6
p88
sVPartOfSpeech
p89
VNN
p90
sVLemma
p91
Vcompany
p92
saa(lp93
Vmeeting
p94
a(dp95
VNamedEntityTag
p96
g62
sVCharacterOffsetEnd
p97
V21
p98
sVCharacterOffsetBegin
p99
V14
p100
sVPartOfSpeech
p101
VNN
p102
sVLemma
p103
Vmeeting
p104
saa(lp105
V,
p106
a(dp107
VNamedEntityTag
p108
g62
sVCharacterOffsetEnd
p109
V23
p110
sVCharacterOffsetBegin
p111
V22
p112
sVPartOfSpeech
p113
g106
sVLemma
p114
g106
saa(lp115
Vthere
p116
a(dp117
VNamedEntityTag
p118
g62
sVCharacterOffsetEnd
p119
V29
p120
sVCharacterOffsetBegin
p121
V24
p122
sVPartOfSpeech
p123
VEX
p124
sVLemma
p125
Vthere
p126
saa(lp127
Vwere
p128
a(dp129
VNamedEntityTag
p130
g62
sVCharacterOffsetEnd
p131
V34
p132
sVCharacterOffsetBegin
p133
V30
p134
sVPartOfSpeech
p135
VVBD
p136
sVLemma
p137
Vbe
p138
saa(lp139
V68
p140
a(dp141
VNormalizedNamedEntityTag
p142
V68.0
p143
sVLemma
p144
V68
p145
sVCharacterOffsetEnd
p146
V37
p147
sVPartOfSpeech
p148
VCD
p149
sVCharacterOffsetBegin
p150
V35
p151
sVNamedEntityTag
p152
VNUMBER
p153
saa(lp154
Vpeople
p155
a(dp156
VNamedEntityTag
p157
g62
sVCharacterOffsetEnd
p158
V44
p159
sVCharacterOffsetBegin
p160
V38
p161
sVPartOfSpeech
p162
VNNS
p163
sVLemma
p164
Vpeople
p165
saa(lp166
Vin
p167
a(dp168
VNamedEntityTag
p169
g62
sVCharacterOffsetEnd
p170
V47
p171
sVCharacterOffsetBegin
p172
V45
p173
sVPartOfSpeech
p174
VIN
p175
sVLemma
p176
Vin
p177
saa(lp178
Vattendance
p179
a(dp180
VNamedEntityTag
p181
g62
sVCharacterOffsetEnd
p182
V58
p183
sVCharacterOffsetBegin
p184
V48
p185
sVPartOfSpeech
p186
VNN
p187
sVLemma
p188
Vattendance
p189
saa(lp190
V.
p191
a(dp192
VNamedEntityTag
p193
g62
sVCharacterOffsetEnd
p194
V60
p195
sVCharacterOffsetBegin
p196
V59
p197
sVPartOfSpeech
p198
g191
sVLemma
p199
g191
saasVindexeddependencies
p200
(lp201
(lp202
Vroot
p203
aVROOT-0
p204
aVwere-7
p205
aa(lp206
Vdet
p207
aVmeeting-4
p208
aVa-2
p209
aa(lp210
Vnn
p211
aVmeeting-4
p212
aVcompany-3
p213
aa(lp214
Vprep_at
p215
aVwere-7
p216
aVmeeting-4
p217
aa(lp218
Vexpl
p219
aVwere-7
p220
aVthere-6
p221
aa(lp222
Vnum
p223
aVpeople-9
p224
aV68-8
p225
aa(lp226
Vnsubj
p227
aVwere-7
p228
aVpeople-9
p229
aa(lp230
Vprep_in
p231
aVpeople-9
p232
aVattendance-11
p233
aasa(dp234
Vparsetree
p235
V(ROOT (S (NP (NP (CD 0.5) (NNS times)) (PP (IN of) (NP (PRP them)))) (VP (VBD were) (NP (NNS managers))) (. .)))
p236
sVtext
p237
V0.5 times of them were managers .
p238
sVdependencies
p239
(lp240
(lp241
Vroot
p242
aVROOT
p243
aVmanagers
p244
aa(lp245
Vnum
p246
aVtimes
p247
aV0.5
p248
aa(lp249
Vnsubj
p250
aVmanagers
p251
aVtimes
p252
aa(lp253
Vprep_of
p254
aVtimes
p255
aVthem
p256
aa(lp257
Vcop
p258
aVmanagers
p259
aVwere
p260
aasVwords
p261
(lp262
(lp263
V0.5
p264
a(dp265
VNormalizedNamedEntityTag
p266
V0.5
p267
sVLemma
p268
V0.5
p269
sVCharacterOffsetEnd
p270
V64
p271
sVPartOfSpeech
p272
VCD
p273
sVCharacterOffsetBegin
p274
V61
p275
sVNamedEntityTag
p276
VNUMBER
p277
saa(lp278
Vtimes
p279
a(dp280
VNamedEntityTag
p281
g62
sVCharacterOffsetEnd
p282
V70
p283
sVCharacterOffsetBegin
p284
V65
p285
sVPartOfSpeech
p286
VNNS
p287
sVLemma
p288
Vtime
p289
saa(lp290
Vof
p291
a(dp292
VNamedEntityTag
p293
g62
sVCharacterOffsetEnd
p294
V73
p295
sVCharacterOffsetBegin
p296
V71
p297
sVPartOfSpeech
p298
VIN
p299
sVLemma
p300
Vof
p301
saa(lp302
Vthem
p303
a(dp304
VNamedEntityTag
p305
g62
sVCharacterOffsetEnd
p306
V78
p307
sVCharacterOffsetBegin
p308
V74
p309
sVPartOfSpeech
p310
VPRP
p311
sVLemma
p312
Vthey
p313
saa(lp314
Vwere
p315
a(dp316
VNamedEntityTag
p317
g62
sVCharacterOffsetEnd
p318
V83
p319
sVCharacterOffsetBegin
p320
V79
p321
sVPartOfSpeech
p322
VVBD
p323
sVLemma
p324
Vbe
p325
saa(lp326
Vmanagers
p327
a(dp328
VNamedEntityTag
p329
g62
sVCharacterOffsetEnd
p330
V92
p331
sVCharacterOffsetBegin
p332
V84
p333
sVPartOfSpeech
p334
VNNS
p335
sVLemma
p336
Vmanager
p337
saa(lp338
g191
a(dp339
VNamedEntityTag
p340
g62
sVCharacterOffsetEnd
p341
V94
p342
sVCharacterOffsetBegin
p343
V93
p344
sVPartOfSpeech
p345
g191
sVLemma
p346
g191
saasVindexeddependencies
p347
(lp348
(lp349
Vroot
p350
aVROOT-0
p351
aVmanagers-6
p352
aa(lp353
Vnum
p354
aVtimes-2
p355
aV0.5-1
p356
aa(lp357
Vnsubj
p358
aVmanagers-6
p359
aVtimes-2
p360
aa(lp361
Vprep_of
p362
aVtimes-2
p363
aVthem-4
p364
aa(lp365
Vcop
p366
aVmanagers-6
p367
aVwere-5
p368
aasa(dp369
Vparsetree
p370
V(ROOT (SBARQ (WHNP (WHADJP (WRB How) (JJ many)) (NNS managers)) (SQ (VP (VBD were) (PP (IN in) (NP (DT the) (NN meeting))))) (. ?)))
p371
sVtext
p372
VHow many managers were in the meeting ?
p373
sVdependencies
p374
(lp375
(lp376
Vroot
p377
aVROOT
p378
aVwere
p379
aa(lp380
Vadvmod
p381
aVmany
p382
aVHow
p383
aa(lp384
Vamod
p385
aVmanagers
p386
aVmany
p387
aa(lp388
Vnsubj
p389
aVwere
p390
aVmanagers
p391
aa(lp392
Vdet
p393
aVmeeting
p394
aVthe
p395
aa(lp396
Vprep_in
p397
aVwere
p398
aVmeeting
p399
aasVwords
p400
(lp401
(lp402
VHow
p403
a(dp404
VNamedEntityTag
p405
g62
sVCharacterOffsetEnd
p406
V98
p407
sVCharacterOffsetBegin
p408
V95
p409
sVPartOfSpeech
p410
VWRB
p411
sVLemma
p412
Vhow
p413
saa(lp414
Vmany
p415
a(dp416
VNamedEntityTag
p417
g62
sVCharacterOffsetEnd
p418
V103
p419
sVCharacterOffsetBegin
p420
V99
p421
sVPartOfSpeech
p422
VJJ
p423
sVLemma
p424
Vmany
p425
saa(lp426
Vmanagers
p427
a(dp428
VNamedEntityTag
p429
g62
sVCharacterOffsetEnd
p430
V112
p431
sVCharacterOffsetBegin
p432
V104
p433
sVPartOfSpeech
p434
VNNS
p435
sVLemma
p436
Vmanager
p437
saa(lp438
Vwere
p439
a(dp440
VNamedEntityTag
p441
g62
sVCharacterOffsetEnd
p442
V117
p443
sVCharacterOffsetBegin
p444
V113
p445
sVPartOfSpeech
p446
VVBD
p447
sVLemma
p448
Vbe
p449
saa(lp450
Vin
p451
a(dp452
VNamedEntityTag
p453
g62
sVCharacterOffsetEnd
p454
V120
p455
sVCharacterOffsetBegin
p456
V118
p457
sVPartOfSpeech
p458
VIN
p459
sVLemma
p460
Vin
p461
saa(lp462
Vthe
p463
a(dp464
VNamedEntityTag
p465
g62
sVCharacterOffsetEnd
p466
V124
p467
sVCharacterOffsetBegin
p468
V121
p469
sVPartOfSpeech
p470
VDT
p471
sVLemma
p472
Vthe
p473
saa(lp474
Vmeeting
p475
a(dp476
VNamedEntityTag
p477
g62
sVCharacterOffsetEnd
p478
V132
p479
sVCharacterOffsetBegin
p480
V125
p481
sVPartOfSpeech
p482
VNN
p483
sVLemma
p484
Vmeeting
p485
saa(lp486
V?
p487
a(dp488
VNamedEntityTag
p489
g62
sVCharacterOffsetEnd
p490
V134
p491
sVCharacterOffsetBegin
p492
V133
p493
sVPartOfSpeech
p494
g191
sVLemma
p495
g487
saasVindexeddependencies
p496
(lp497
(lp498
Vroot
p499
aVROOT-0
p500
aVwere-4
p501
aa(lp502
Vadvmod
p503
aVmany-2
p504
aVHow-1
p505
aa(lp506
Vamod
p507
aVmanagers-3
p508
aVmany-2
p509
aa(lp510
Vnsubj
p511
aVwere-4
p512
aVmanagers-3
p513
aa(lp514
Vdet
p515
aVmeeting-7
p516
aVthe-6
p517
aa(lp518
Vprep_in
p519
aVwere-4
p520
aVmeeting-7
p521
aasas.