(dp0
Vcoref
p1
(lp2
(lp3
(lp4
(lp5
Vfirst-year teachers
p6
aI1
aI10
aI9
aI11
aa(lp7
V24 first-year teachers
p8
aI0
aI2
aI0
aI3
aaaa(lp9
(lp10
(lp11
Vthe meeting
p12
aI1
aI7
aI6
aI8
aa(lp13
Va school staff meeting meeting
p14
aI0
aI12
aI8
aI13
aaaasVsentences
p15
(lp16
(dp17
Vparsetree
p18
V(ROOT (S (NP (NP (CD 24) (JJ first-year) (NNS teachers)) (CC and) (NP (CD 6) (JJ experienced) (NNS teachers))) (VP (VBD attended) (NP (DT a) (NN school) (NN staff) (NN meeting) (NN meeting))) (. .)))
p19
sVtext
p20
V24 first-year teachers and 6 experienced teachers attended a school staff meeting meeting .
p21
sVdependencies
p22
(lp23
(lp24
Vroot
p25
aVROOT
p26
aVattended
p27
aa(lp28
Vnum
p29
aVteachers
p30
aV24
p31
aa(lp32
Vamod
p33
aVteachers
p34
aVfirst-year
p35
aa(lp36
Vnsubj
p37
aVattended
p38
aVteachers
p39
aa(lp40
Vnum
p41
aVteachers
p42
aV6
p43
aa(lp44
Vamod
p45
aVteachers
p46
aVexperienced
p47
aa(lp48
Vconj_and
p49
aVteachers
p50
aVteachers
p51
aa(lp52
Vdet
p53
aVmeeting
p54
aVa
p55
aa(lp56
Vnn
p57
aVmeeting
p58
aVschool
p59
aa(lp60
Vnn
p61
aVmeeting
p62
aVstaff
p63
aa(lp64
Vnn
p65
aVmeeting
p66
aVmeeting
p67
aa(lp68
Vdobj
p69
aVattended
p70
aVmeeting
p71
aasVwords
p72
(lp73
(lp74
V24
p75
a(dp76
VNormalizedNamedEntityTag
p77
V24.0
p78
sVLemma
p79
V24
p80
sVCharacterOffsetEnd
p81
V3
p82
sVPartOfSpeech
p83
VCD
p84
sVCharacterOffsetBegin
p85
V1
p86
sVNamedEntityTag
p87
VNUMBER
p88
saa(lp89
Vfirst-year
p90
a(dp91
VNamedEntityTag
p92
VO
p93
sVCharacterOffsetEnd
p94
V14
p95
sVCharacterOffsetBegin
p96
V4
p97
sVPartOfSpeech
p98
VJJ
p99
sVLemma
p100
Vfirst-year
p101
saa(lp102
Vteachers
p103
a(dp104
VNamedEntityTag
p105
g93
sVCharacterOffsetEnd
p106
V23
p107
sVCharacterOffsetBegin
p108
V15
p109
sVPartOfSpeech
p110
VNNS
p111
sVLemma
p112
Vteacher
p113
saa(lp114
Vand
p115
a(dp116
VNamedEntityTag
p117
g93
sVCharacterOffsetEnd
p118
V27
p119
sVCharacterOffsetBegin
p120
V24
p121
sVPartOfSpeech
p122
VCC
p123
sVLemma
p124
Vand
p125
saa(lp126
g43
a(dp127
VNormalizedNamedEntityTag
p128
V6.0
p129
sVLemma
p130
g43
sVCharacterOffsetEnd
p131
V29
p132
sVPartOfSpeech
p133
VCD
p134
sVCharacterOffsetBegin
p135
V28
p136
sVNamedEntityTag
p137
VNUMBER
p138
saa(lp139
Vexperienced
p140
a(dp141
VNamedEntityTag
p142
g93
sVCharacterOffsetEnd
p143
V41
p144
sVCharacterOffsetBegin
p145
V30
p146
sVPartOfSpeech
p147
VJJ
p148
sVLemma
p149
Vexperienced
p150
saa(lp151
Vteachers
p152
a(dp153
VNamedEntityTag
p154
g93
sVCharacterOffsetEnd
p155
V50
p156
sVCharacterOffsetBegin
p157
V42
p158
sVPartOfSpeech
p159
VNNS
p160
sVLemma
p161
Vteacher
p162
saa(lp163
Vattended
p164
a(dp165
VNamedEntityTag
p166
g93
sVCharacterOffsetEnd
p167
V59
p168
sVCharacterOffsetBegin
p169
V51
p170
sVPartOfSpeech
p171
VVBD
p172
sVLemma
p173
Vattend
p174
saa(lp175
g55
a(dp176
VNamedEntityTag
p177
g93
sVCharacterOffsetEnd
p178
V61
p179
sVCharacterOffsetBegin
p180
V60
p181
sVPartOfSpeech
p182
VDT
p183
sVLemma
p184
g55
saa(lp185
Vschool
p186
a(dp187
VNamedEntityTag
p188
g93
sVCharacterOffsetEnd
p189
V68
p190
sVCharacterOffsetBegin
p191
V62
p192
sVPartOfSpeech
p193
VNN
p194
sVLemma
p195
Vschool
p196
saa(lp197
Vstaff
p198
a(dp199
VNamedEntityTag
p200
g93
sVCharacterOffsetEnd
p201
V74
p202
sVCharacterOffsetBegin
p203
V69
p204
sVPartOfSpeech
p205
VNN
p206
sVLemma
p207
Vstaff
p208
saa(lp209
Vmeeting
p210
a(dp211
VNamedEntityTag
p212
g93
sVCharacterOffsetEnd
p213
V82
p214
sVCharacterOffsetBegin
p215
V75
p216
sVPartOfSpeech
p217
VNN
p218
sVLemma
p219
Vmeeting
p220
saa(lp221
Vmeeting
p222
a(dp223
VNamedEntityTag
p224
g93
sVCharacterOffsetEnd
p225
V90
p226
sVCharacterOffsetBegin
p227
V83
p228
sVPartOfSpeech
p229
VNN
p230
sVLemma
p231
Vmeeting
p232
saa(lp233
V.
p234
a(dp235
VNamedEntityTag
p236
g93
sVCharacterOffsetEnd
p237
V92
p238
sVCharacterOffsetBegin
p239
V91
p240
sVPartOfSpeech
p241
g234
sVLemma
p242
g234
saasVindexeddependencies
p243
(lp244
(lp245
Vroot
p246
aVROOT-0
p247
aVattended-8
p248
aa(lp249
Vnum
p250
aVteachers-3
p251
aV24-1
p252
aa(lp253
Vamod
p254
aVteachers-3
p255
aVfirst-year-2
p256
aa(lp257
Vnsubj
p258
aVattended-8
p259
aVteachers-3
p260
aa(lp261
Vnum
p262
aVteachers-7
p263
aV6-5
p264
aa(lp265
Vamod
p266
aVteachers-7
p267
aVexperienced-6
p268
aa(lp269
Vconj_and
p270
aVteachers-3
p271
aVteachers-7
p272
aa(lp273
Vdet
p274
aVmeeting-13
p275
aVa-9
p276
aa(lp277
Vnn
p278
aVmeeting-13
p279
aVschool-10
p280
aa(lp281
Vnn
p282
aVmeeting-13
p283
aVstaff-11
p284
aa(lp285
Vnn
p286
aVmeeting-13
p287
aVmeeting-12
p288
aa(lp289
Vdobj
p290
aVattended-8
p291
aVmeeting-13
p292
aasa(dp293
Vparsetree
p294
V(ROOT (SBARQ (WHNP (WHNP (WDT What) (NN percentage)) (PP (IN of) (NP (NP (DT the) (NNS teachers)) (PP (IN in) (NP (DT the) (NN meeting)))))) (SQ (VBD were) (NP (JJ first-year) (NNS teachers))) (. ?)))
p295
sVtext
p296
VWhat percentage of the teachers in the meeting were first-year teachers ?
p297
sVdependencies
p298
(lp299
(lp300
Vroot
p301
aVROOT
p302
aVwere
p303
aa(lp304
Vdet
p305
aVpercentage
p306
aVWhat
p307
aa(lp308
Vdep
p309
aVwere
p310
aVpercentage
p311
aa(lp312
Vdet
p313
aVteachers
p314
aVthe
p315
aa(lp316
Vprep_of
p317
aVpercentage
p318
aVteachers
p319
aa(lp320
Vdet
p321
aVmeeting
p322
aVthe
p323
aa(lp324
Vprep_in
p325
aVteachers
p326
aVmeeting
p327
aa(lp328
Vamod
p329
aVteachers
p330
aVfirst-year
p331
aa(lp332
Vnsubj
p333
aVwere
p334
aVteachers
p335
aasVwords
p336
(lp337
(lp338
VWhat
p339
a(dp340
VNamedEntityTag
p341
g93
sVCharacterOffsetEnd
p342
V97
p343
sVCharacterOffsetBegin
p344
V93
p345
sVPartOfSpeech
p346
VWDT
p347
sVLemma
p348
Vwhat
p349
saa(lp350
Vpercentage
p351
a(dp352
VNamedEntityTag
p353
g93
sVCharacterOffsetEnd
p354
V108
p355
sVCharacterOffsetBegin
p356
V98
p357
sVPartOfSpeech
p358
VNN
p359
sVLemma
p360
Vpercentage
p361
saa(lp362
Vof
p363
a(dp364
VNamedEntityTag
p365
g93
sVCharacterOffsetEnd
p366
V111
p367
sVCharacterOffsetBegin
p368
V109
p369
sVPartOfSpeech
p370
VIN
p371
sVLemma
p372
Vof
p373
saa(lp374
Vthe
p375
a(dp376
VNamedEntityTag
p377
g93
sVCharacterOffsetEnd
p378
V115
p379
sVCharacterOffsetBegin
p380
V112
p381
sVPartOfSpeech
p382
VDT
p383
sVLemma
p384
Vthe
p385
saa(lp386
Vteachers
p387
a(dp388
VNamedEntityTag
p389
g93
sVCharacterOffsetEnd
p390
V124
p391
sVCharacterOffsetBegin
p392
V116
p393
sVPartOfSpeech
p394
VNNS
p395
sVLemma
p396
Vteacher
p397
saa(lp398
Vin
p399
a(dp400
VNamedEntityTag
p401
g93
sVCharacterOffsetEnd
p402
V127
p403
sVCharacterOffsetBegin
p404
V125
p405
sVPartOfSpeech
p406
VIN
p407
sVLemma
p408
Vin
p409
saa(lp410
Vthe
p411
a(dp412
VNamedEntityTag
p413
g93
sVCharacterOffsetEnd
p414
V131
p415
sVCharacterOffsetBegin
p416
V128
p417
sVPartOfSpeech
p418
VDT
p419
sVLemma
p420
Vthe
p421
saa(lp422
Vmeeting
p423
a(dp424
VNamedEntityTag
p425
g93
sVCharacterOffsetEnd
p426
V139
p427
sVCharacterOffsetBegin
p428
V132
p429
sVPartOfSpeech
p430
VNN
p431
sVLemma
p432
Vmeeting
p433
saa(lp434
Vwere
p435
a(dp436
VNamedEntityTag
p437
g93
sVCharacterOffsetEnd
p438
V144
p439
sVCharacterOffsetBegin
p440
V140
p441
sVPartOfSpeech
p442
VVBD
p443
sVLemma
p444
Vbe
p445
saa(lp446
Vfirst-year
p447
a(dp448
VNamedEntityTag
p449
g93
sVCharacterOffsetEnd
p450
V155
p451
sVCharacterOffsetBegin
p452
V145
p453
sVPartOfSpeech
p454
VJJ
p455
sVLemma
p456
Vfirst-year
p457
saa(lp458
Vteachers
p459
a(dp460
VNamedEntityTag
p461
g93
sVCharacterOffsetEnd
p462
V164
p463
sVCharacterOffsetBegin
p464
V156
p465
sVPartOfSpeech
p466
VNNS
p467
sVLemma
p468
Vteacher
p469
saa(lp470
V?
p471
a(dp472
VNamedEntityTag
p473
g93
sVCharacterOffsetEnd
p474
V166
p475
sVCharacterOffsetBegin
p476
V165
p477
sVPartOfSpeech
p478
g234
sVLemma
p479
g471
saasVindexeddependencies
p480
(lp481
(lp482
Vroot
p483
aVROOT-0
p484
aVwere-9
p485
aa(lp486
Vdet
p487
aVpercentage-2
p488
aVWhat-1
p489
aa(lp490
Vdep
p491
aVwere-9
p492
aVpercentage-2
p493
aa(lp494
Vdet
p495
aVteachers-5
p496
aVthe-4
p497
aa(lp498
Vprep_of
p499
aVpercentage-2
p500
aVteachers-5
p501
aa(lp502
Vdet
p503
aVmeeting-8
p504
aVthe-7
p505
aa(lp506
Vprep_in
p507
aVteachers-5
p508
aVmeeting-8
p509
aa(lp510
Vamod
p511
aVteachers-11
p512
aVfirst-year-10
p513
aa(lp514
Vnsubj
p515
aVwere-9
p516
aVteachers-11
p517
aasas.