(dp0
Vcoref
p1
(lp2
(lp3
(lp4
(lp5
Vthe pancake house
p6
aI1
aI9
aI7
aI10
aa(lp7
VTara 's Pancake House
p8
aI0
aI4
aI1
aI5
aaaasVsentences
p9
(lp10
(dp11
Vparsetree
p12
V(ROOT (S (PP (IN At) (NP (NP (NNP Tara) (POS 's)) (NNP Pancake) (NNP House))) (NP (EX there)) (VP (VBP are) (NP (NP (CD 21) (JJ dirty) (NN coffee) (NNS mugs)) (CC and) (NP (CD 49) (JJ clean) (NN coffee) (NNS mugs)))) (. .)))
p13
sVtext
p14
VAt Tara's Pancake House there are 21 dirty coffee mugs and 49 clean coffee mugs .
p15
sVdependencies
p16
(lp17
(lp18
Vroot
p19
aVROOT
p20
aVare
p21
aa(lp22
Vposs
p23
aVHouse
p24
aVTara
p25
aa(lp26
Vnn
p27
aVHouse
p28
aVPancake
p29
aa(lp30
Vprep_at
p31
aVare
p32
aVHouse
p33
aa(lp34
Vexpl
p35
aVare
p36
aVthere
p37
aa(lp38
Vnum
p39
aVmugs
p40
aV21
p41
aa(lp42
Vamod
p43
aVmugs
p44
aVdirty
p45
aa(lp46
Vnn
p47
aVmugs
p48
aVcoffee
p49
aa(lp50
Vnsubj
p51
aVare
p52
aVmugs
p53
aa(lp54
Vnum
p55
aVmugs
p56
aV49
p57
aa(lp58
Vamod
p59
aVmugs
p60
aVclean
p61
aa(lp62
Vnn
p63
aVmugs
p64
aVcoffee
p65
aa(lp66
Vconj_and
p67
aVmugs
p68
aVmugs
p69
aasVwords
p70
(lp71
(lp72
VAt
p73
a(dp74
VNamedEntityTag
p75
VO
p76
sVCharacterOffsetEnd
p77
V3
p78
sVCharacterOffsetBegin
p79
V1
p80
sVPartOfSpeech
p81
VIN
p82
sVLemma
p83
Vat
p84
saa(lp85
VTara
p86
a(dp87
VNamedEntityTag
p88
VPERSON
p89
sVCharacterOffsetEnd
p90
V8
p91
sVCharacterOffsetBegin
p92
V4
p93
sVPartOfSpeech
p94
VNNP
p95
sVLemma
p96
VTara
p97
saa(lp98
V's
p99
a(dp100
VNamedEntityTag
p101
g76
sVCharacterOffsetEnd
p102
V10
p103
sVCharacterOffsetBegin
p104
g91
sVPartOfSpeech
p105
VPOS
p106
sVLemma
p107
V's
p108
saa(lp109
VPancake
p110
a(dp111
VNamedEntityTag
p112
VORGANIZATION
p113
sVCharacterOffsetEnd
p114
V18
p115
sVCharacterOffsetBegin
p116
V11
p117
sVPartOfSpeech
p118
VNNP
p119
sVLemma
p120
VPancake
p121
saa(lp122
VHouse
p123
a(dp124
VNamedEntityTag
p125
VORGANIZATION
p126
sVCharacterOffsetEnd
p127
V24
p128
sVCharacterOffsetBegin
p129
V19
p130
sVPartOfSpeech
p131
VNNP
p132
sVLemma
p133
VHouse
p134
saa(lp135
Vthere
p136
a(dp137
VNamedEntityTag
p138
g76
sVCharacterOffsetEnd
p139
V30
p140
sVCharacterOffsetBegin
p141
V25
p142
sVPartOfSpeech
p143
VEX
p144
sVLemma
p145
Vthere
p146
saa(lp147
Vare
p148
a(dp149
VNamedEntityTag
p150
g76
sVCharacterOffsetEnd
p151
V34
p152
sVCharacterOffsetBegin
p153
V31
p154
sVPartOfSpeech
p155
VVBP
p156
sVLemma
p157
Vbe
p158
saa(lp159
V21
p160
a(dp161
VNormalizedNamedEntityTag
p162
V21.0
p163
sVLemma
p164
V21
p165
sVCharacterOffsetEnd
p166
V37
p167
sVPartOfSpeech
p168
VCD
p169
sVCharacterOffsetBegin
p170
V35
p171
sVNamedEntityTag
p172
VNUMBER
p173
saa(lp174
Vdirty
p175
a(dp176
VNamedEntityTag
p177
g76
sVCharacterOffsetEnd
p178
V43
p179
sVCharacterOffsetBegin
p180
V38
p181
sVPartOfSpeech
p182
VJJ
p183
sVLemma
p184
Vdirty
p185
saa(lp186
Vcoffee
p187
a(dp188
VNamedEntityTag
p189
g76
sVCharacterOffsetEnd
p190
V50
p191
sVCharacterOffsetBegin
p192
V44
p193
sVPartOfSpeech
p194
VNN
p195
sVLemma
p196
Vcoffee
p197
saa(lp198
Vmugs
p199
a(dp200
VNamedEntityTag
p201
g76
sVCharacterOffsetEnd
p202
V55
p203
sVCharacterOffsetBegin
p204
V51
p205
sVPartOfSpeech
p206
VNNS
p207
sVLemma
p208
Vmug
p209
saa(lp210
Vand
p211
a(dp212
VNamedEntityTag
p213
g76
sVCharacterOffsetEnd
p214
V59
p215
sVCharacterOffsetBegin
p216
V56
p217
sVPartOfSpeech
p218
VCC
p219
sVLemma
p220
Vand
p221
saa(lp222
V49
p223
a(dp224
VNormalizedNamedEntityTag
p225
V49.0
p226
sVLemma
p227
V49
p228
sVCharacterOffsetEnd
p229
V62
p230
sVPartOfSpeech
p231
VCD
p232
sVCharacterOffsetBegin
p233
V60
p234
sVNamedEntityTag
p235
VNUMBER
p236
saa(lp237
Vclean
p238
a(dp239
VNamedEntityTag
p240
g76
sVCharacterOffsetEnd
p241
V68
p242
sVCharacterOffsetBegin
p243
V63
p244
sVPartOfSpeech
p245
VJJ
p246
sVLemma
p247
Vclean
p248
saa(lp249
Vcoffee
p250
a(dp251
VNamedEntityTag
p252
g76
sVCharacterOffsetEnd
p253
V75
p254
sVCharacterOffsetBegin
p255
V69
p256
sVPartOfSpeech
p257
VNN
p258
sVLemma
p259
Vcoffee
p260
saa(lp261
Vmugs
p262
a(dp263
VNamedEntityTag
p264
g76
sVCharacterOffsetEnd
p265
V80
p266
sVCharacterOffsetBegin
p267
V76
p268
sVPartOfSpeech
p269
VNNS
p270
sVLemma
p271
Vmug
p272
saa(lp273
V.
p274
a(dp275
VNamedEntityTag
p276
g76
sVCharacterOffsetEnd
p277
V82
p278
sVCharacterOffsetBegin
p279
V81
p280
sVPartOfSpeech
p281
g274
sVLemma
p282
g274
saasVindexeddependencies
p283
(lp284
(lp285
Vroot
p286
aVROOT-0
p287
aVare-7
p288
aa(lp289
Vposs
p290
aVHouse-5
p291
aVTara-2
p292
aa(lp293
Vnn
p294
aVHouse-5
p295
aVPancake-4
p296
aa(lp297
Vprep_at
p298
aVare-7
p299
aVHouse-5
p300
aa(lp301
Vexpl
p302
aVare-7
p303
aVthere-6
p304
aa(lp305
Vnum
p306
aVmugs-11
p307
aV21-8
p308
aa(lp309
Vamod
p310
aVmugs-11
p311
aVdirty-9
p312
aa(lp313
Vnn
p314
aVmugs-11
p315
aVcoffee-10
p316
aa(lp317
Vnsubj
p318
aVare-7
p319
aVmugs-11
p320
aa(lp321
Vnum
p322
aVmugs-16
p323
aV49-13
p324
aa(lp325
Vamod
p326
aVmugs-16
p327
aVclean-14
p328
aa(lp329
Vnn
p330
aVmugs-16
p331
aVcoffee-15
p332
aa(lp333
Vconj_and
p334
aVmugs-11
p335
aVmugs-16
p336
aasa(dp337
Vparsetree
p338
V(ROOT (SBARQ (WHNP (WHNP (WDT What) (NN percentage)) (PP (IN of) (NP (NP (DT the) (NN coffee) (NNS mugs)) (PP (IN at) (NP (DT the) (NN pancake) (NN house)))))) (SQ (VP (VBP are) (ADJP (JJ dirty)))) (. ?)))
p339
sVtext
p340
VWhat percentage of the coffee mugs at the pancake house are dirty ?
p341
sVdependencies
p342
(lp343
(lp344
Vroot
p345
aVROOT
p346
aVdirty
p347
aa(lp348
Vdet
p349
aVpercentage
p350
aVWhat
p351
aa(lp352
Vnsubj
p353
aVdirty
p354
aVpercentage
p355
aa(lp356
Vdet
p357
aVmugs
p358
aVthe
p359
aa(lp360
Vnn
p361
aVmugs
p362
aVcoffee
p363
aa(lp364
Vprep_of
p365
aVpercentage
p366
aVmugs
p367
aa(lp368
Vdet
p369
aVhouse
p370
aVthe
p371
aa(lp372
Vnn
p373
aVhouse
p374
aVpancake
p375
aa(lp376
Vprep_at
p377
aVmugs
p378
aVhouse
p379
aa(lp380
Vcop
p381
aVdirty
p382
aVare
p383
aasVwords
p384
(lp385
(lp386
VWhat
p387
a(dp388
VNamedEntityTag
p389
g76
sVCharacterOffsetEnd
p390
V87
p391
sVCharacterOffsetBegin
p392
V83
p393
sVPartOfSpeech
p394
VWDT
p395
sVLemma
p396
Vwhat
p397
saa(lp398
Vpercentage
p399
a(dp400
VNamedEntityTag
p401
g76
sVCharacterOffsetEnd
p402
V98
p403
sVCharacterOffsetBegin
p404
V88
p405
sVPartOfSpeech
p406
VNN
p407
sVLemma
p408
Vpercentage
p409
saa(lp410
Vof
p411
a(dp412
VNamedEntityTag
p413
g76
sVCharacterOffsetEnd
p414
V101
p415
sVCharacterOffsetBegin
p416
V99
p417
sVPartOfSpeech
p418
VIN
p419
sVLemma
p420
Vof
p421
saa(lp422
Vthe
p423
a(dp424
VNamedEntityTag
p425
g76
sVCharacterOffsetEnd
p426
V105
p427
sVCharacterOffsetBegin
p428
V102
p429
sVPartOfSpeech
p430
VDT
p431
sVLemma
p432
Vthe
p433
saa(lp434
Vcoffee
p435
a(dp436
VNamedEntityTag
p437
g76
sVCharacterOffsetEnd
p438
V112
p439
sVCharacterOffsetBegin
p440
V106
p441
sVPartOfSpeech
p442
VNN
p443
sVLemma
p444
Vcoffee
p445
saa(lp446
Vmugs
p447
a(dp448
VNamedEntityTag
p449
g76
sVCharacterOffsetEnd
p450
V117
p451
sVCharacterOffsetBegin
p452
V113
p453
sVPartOfSpeech
p454
VNNS
p455
sVLemma
p456
Vmug
p457
saa(lp458
Vat
p459
a(dp460
VNamedEntityTag
p461
g76
sVCharacterOffsetEnd
p462
V120
p463
sVCharacterOffsetBegin
p464
V118
p465
sVPartOfSpeech
p466
VIN
p467
sVLemma
p468
Vat
p469
saa(lp470
Vthe
p471
a(dp472
VNamedEntityTag
p473
g76
sVCharacterOffsetEnd
p474
V124
p475
sVCharacterOffsetBegin
p476
V121
p477
sVPartOfSpeech
p478
VDT
p479
sVLemma
p480
Vthe
p481
saa(lp482
Vpancake
p483
a(dp484
VNamedEntityTag
p485
g76
sVCharacterOffsetEnd
p486
V132
p487
sVCharacterOffsetBegin
p488
V125
p489
sVPartOfSpeech
p490
VNN
p491
sVLemma
p492
Vpancake
p493
saa(lp494
Vhouse
p495
a(dp496
VNamedEntityTag
p497
g76
sVCharacterOffsetEnd
p498
V138
p499
sVCharacterOffsetBegin
p500
V133
p501
sVPartOfSpeech
p502
VNN
p503
sVLemma
p504
Vhouse
p505
saa(lp506
Vare
p507
a(dp508
VNamedEntityTag
p509
g76
sVCharacterOffsetEnd
p510
V142
p511
sVCharacterOffsetBegin
p512
V139
p513
sVPartOfSpeech
p514
VVBP
p515
sVLemma
p516
Vbe
p517
saa(lp518
Vdirty
p519
a(dp520
VNamedEntityTag
p521
g76
sVCharacterOffsetEnd
p522
V148
p523
sVCharacterOffsetBegin
p524
V143
p525
sVPartOfSpeech
p526
VJJ
p527
sVLemma
p528
Vdirty
p529
saa(lp530
V?
p531
a(dp532
VNamedEntityTag
p533
g76
sVCharacterOffsetEnd
p534
V150
p535
sVCharacterOffsetBegin
p536
V149
p537
sVPartOfSpeech
p538
g274
sVLemma
p539
g531
saasVindexeddependencies
p540
(lp541
(lp542
Vroot
p543
aVROOT-0
p544
aVdirty-12
p545
aa(lp546
Vdet
p547
aVpercentage-2
p548
aVWhat-1
p549
aa(lp550
Vnsubj
p551
aVdirty-12
p552
aVpercentage-2
p553
aa(lp554
Vdet
p555
aVmugs-6
p556
aVthe-4
p557
aa(lp558
Vnn
p559
aVmugs-6
p560
aVcoffee-5
p561
aa(lp562
Vprep_of
p563
aVpercentage-2
p564
aVmugs-6
p565
aa(lp566
Vdet
p567
aVhouse-10
p568
aVthe-8
p569
aa(lp570
Vnn
p571
aVhouse-10
p572
aVpancake-9
p573
aa(lp574
Vprep_at
p575
aVmugs-6
p576
aVhouse-10
p577
aa(lp578
Vcop
p579
aVdirty-12
p580
aVare-11
p581
aasas.