(dp0
Vcoref
p1
(lp2
(lp3
(lp4
(lp5
V40 Farenhite
p6
aI0
aI11
aI10
aI12
aa(lp7
Vthe average low temperature for January
p8
aI0
aI6
aI3
aI9
aaaa(lp9
(lp10
(lp11
Vthe average low in February
p12
aI2
aI4
aI2
aI7
aa(lp13
VThe average low in February
p14
aI1
aI2
aI0
aI5
aaaa(lp15
(lp16
(lp17
VFebruary
p18
aI2
aI6
aI6
aI7
aa(lp19
VFebruary
p20
aI1
aI4
aI4
aI5
aaaasVsentences
p21
(lp22
(dp23
Vparsetree
p24
V(ROOT (S (PP (IN In) (NP (NNP Stamford))) (, ,) (NP (NP (DT the) (JJ average) (JJ low) (NN temperature)) (PP (IN for) (NP (NNP January)))) (VP (VBD was) (NP (CD 40) (NN Farenhite))) (. .)))
p25
sVtext
p26
VIn Stamford , the average low temperature for January was 40 Farenhite .
p27
sVdependencies
p28
(lp29
(lp30
Vroot
p31
aVROOT
p32
aVFarenhite
p33
aa(lp34
Vprep_in
p35
aVFarenhite
p36
aVStamford
p37
aa(lp38
Vdet
p39
aVtemperature
p40
aVthe
p41
aa(lp42
Vamod
p43
aVtemperature
p44
aVaverage
p45
aa(lp46
Vamod
p47
aVtemperature
p48
aVlow
p49
aa(lp50
Vnsubj
p51
aVFarenhite
p52
aVtemperature
p53
aa(lp54
Vprep_for
p55
aVtemperature
p56
aVJanuary
p57
aa(lp58
Vcop
p59
aVFarenhite
p60
aVwas
p61
aa(lp62
Vnum
p63
aVFarenhite
p64
aV40
p65
aasVwords
p66
(lp67
(lp68
VIn
p69
a(dp70
VNamedEntityTag
p71
VO
p72
sVCharacterOffsetEnd
p73
V3
p74
sVCharacterOffsetBegin
p75
V1
p76
sVPartOfSpeech
p77
VIN
p78
sVLemma
p79
Vin
p80
saa(lp81
VStamford
p82
a(dp83
VNamedEntityTag
p84
VLOCATION
p85
sVCharacterOffsetEnd
p86
V12
p87
sVCharacterOffsetBegin
p88
V4
p89
sVPartOfSpeech
p90
VNNP
p91
sVLemma
p92
VStamford
p93
saa(lp94
V,
p95
a(dp96
VNamedEntityTag
p97
g72
sVCharacterOffsetEnd
p98
V14
p99
sVCharacterOffsetBegin
p100
V13
p101
sVPartOfSpeech
p102
g95
sVLemma
p103
g95
saa(lp104
Vthe
p105
a(dp106
VNamedEntityTag
p107
g72
sVCharacterOffsetEnd
p108
V18
p109
sVCharacterOffsetBegin
p110
V15
p111
sVPartOfSpeech
p112
VDT
p113
sVLemma
p114
Vthe
p115
saa(lp116
Vaverage
p117
a(dp118
VNamedEntityTag
p119
g72
sVCharacterOffsetEnd
p120
V26
p121
sVCharacterOffsetBegin
p122
V19
p123
sVPartOfSpeech
p124
VJJ
p125
sVLemma
p126
Vaverage
p127
saa(lp128
Vlow
p129
a(dp130
VNamedEntityTag
p131
g72
sVCharacterOffsetEnd
p132
V30
p133
sVCharacterOffsetBegin
p134
V27
p135
sVPartOfSpeech
p136
VJJ
p137
sVLemma
p138
Vlow
p139
saa(lp140
Vtemperature
p141
a(dp142
VNamedEntityTag
p143
g72
sVCharacterOffsetEnd
p144
V42
p145
sVCharacterOffsetBegin
p146
V31
p147
sVPartOfSpeech
p148
VNN
p149
sVLemma
p150
Vtemperature
p151
saa(lp152
Vfor
p153
a(dp154
VNamedEntityTag
p155
g72
sVCharacterOffsetEnd
p156
V46
p157
sVCharacterOffsetBegin
p158
V43
p159
sVPartOfSpeech
p160
VIN
p161
sVLemma
p162
Vfor
p163
saa(lp164
VJanuary
p165
a(dp166
VNormalizedNamedEntityTag
p167
VXXXX-01
p168
sVTimex
p169
V<TIMEX3 tid="t1" type="DATE" value="XXXX-01">January</TIMEX3>
p170
sVLemma
p171
VJanuary
p172
sVCharacterOffsetEnd
p173
V54
p174
sVPartOfSpeech
p175
VNNP
p176
sVCharacterOffsetBegin
p177
V47
p178
sVNamedEntityTag
p179
VDATE
p180
saa(lp181
Vwas
p182
a(dp183
VNamedEntityTag
p184
g72
sVCharacterOffsetEnd
p185
V58
p186
sVCharacterOffsetBegin
p187
V55
p188
sVPartOfSpeech
p189
VVBD
p190
sVLemma
p191
Vbe
p192
saa(lp193
V40
p194
a(dp195
VNormalizedNamedEntityTag
p196
V40.0
p197
sVLemma
p198
V40
p199
sVCharacterOffsetEnd
p200
V61
p201
sVPartOfSpeech
p202
VCD
p203
sVCharacterOffsetBegin
p204
V59
p205
sVNamedEntityTag
p206
VNUMBER
p207
saa(lp208
VFarenhite
p209
a(dp210
VNamedEntityTag
p211
g72
sVCharacterOffsetEnd
p212
V71
p213
sVCharacterOffsetBegin
p214
V62
p215
sVPartOfSpeech
p216
VNN
p217
sVLemma
p218
Vfarenhite
p219
saa(lp220
V.
p221
a(dp222
VNamedEntityTag
p223
g72
sVCharacterOffsetEnd
p224
V73
p225
sVCharacterOffsetBegin
p226
V72
p227
sVPartOfSpeech
p228
g221
sVLemma
p229
g221
saasVindexeddependencies
p230
(lp231
(lp232
Vroot
p233
aVROOT-0
p234
aVFarenhite-12
p235
aa(lp236
Vprep_in
p237
aVFarenhite-12
p238
aVStamford-2
p239
aa(lp240
Vdet
p241
aVtemperature-7
p242
aVthe-4
p243
aa(lp244
Vamod
p245
aVtemperature-7
p246
aVaverage-5
p247
aa(lp248
Vamod
p249
aVtemperature-7
p250
aVlow-6
p251
aa(lp252
Vnsubj
p253
aVFarenhite-12
p254
aVtemperature-7
p255
aa(lp256
Vprep_for
p257
aVtemperature-7
p258
aVJanuary-9
p259
aa(lp260
Vcop
p261
aVFarenhite-12
p262
aVwas-10
p263
aa(lp264
Vnum
p265
aVFarenhite-12
p266
aV40-11
p267
aasa(dp268
Vparsetree
p269
V(ROOT (S (NP (NP (DT The) (JJ average) (JJ low)) (PP (IN in) (NP (NNP February)))) (VP (VBD was) (ADJP (NP (CD 0.15) (NNS times)) (JJR higher))) (. .)))
p270
sVtext
p271
VThe average low in February was 0.15 times higher .
p272
sVdependencies
p273
(lp274
(lp275
Vroot
p276
aVROOT
p277
aVhigher
p278
aa(lp279
Vdet
p280
aVlow
p281
aVThe
p282
aa(lp283
Vamod
p284
aVlow
p285
aVaverage
p286
aa(lp287
Vnsubj
p288
aVhigher
p289
aVlow
p290
aa(lp291
Vprep_in
p292
aVlow
p293
aVFebruary
p294
aa(lp295
Vcop
p296
aVhigher
p297
aVwas
p298
aa(lp299
Vnum
p300
aVtimes
p301
aV0.15
p302
aa(lp303
Vnpadvmod
p304
aVhigher
p305
aVtimes
p306
aasVwords
p307
(lp308
(lp309
VThe
p310
a(dp311
VNamedEntityTag
p312
g72
sVCharacterOffsetEnd
p313
V77
p314
sVCharacterOffsetBegin
p315
V74
p316
sVPartOfSpeech
p317
VDT
p318
sVLemma
p319
Vthe
p320
saa(lp321
Vaverage
p322
a(dp323
VNamedEntityTag
p324
g72
sVCharacterOffsetEnd
p325
V85
p326
sVCharacterOffsetBegin
p327
V78
p328
sVPartOfSpeech
p329
VJJ
p330
sVLemma
p331
Vaverage
p332
saa(lp333
Vlow
p334
a(dp335
VNamedEntityTag
p336
g72
sVCharacterOffsetEnd
p337
V89
p338
sVCharacterOffsetBegin
p339
V86
p340
sVPartOfSpeech
p341
VJJ
p342
sVLemma
p343
Vlow
p344
saa(lp345
Vin
p346
a(dp347
VNamedEntityTag
p348
g72
sVCharacterOffsetEnd
p349
V92
p350
sVCharacterOffsetBegin
p351
V90
p352
sVPartOfSpeech
p353
VIN
p354
sVLemma
p355
Vin
p356
saa(lp357
VFebruary
p358
a(dp359
VNormalizedNamedEntityTag
p360
VXXXX-02
p361
sVTimex
p362
V<TIMEX3 tid="t2" type="DATE" value="XXXX-02">February</TIMEX3>
p363
sVLemma
p364
VFebruary
p365
sVCharacterOffsetEnd
p366
V101
p367
sVPartOfSpeech
p368
VNNP
p369
sVCharacterOffsetBegin
p370
V93
p371
sVNamedEntityTag
p372
VDATE
p373
saa(lp374
Vwas
p375
a(dp376
VNamedEntityTag
p377
g72
sVCharacterOffsetEnd
p378
V105
p379
sVCharacterOffsetBegin
p380
V102
p381
sVPartOfSpeech
p382
VVBD
p383
sVLemma
p384
Vbe
p385
saa(lp386
V0.15
p387
a(dp388
VNormalizedNamedEntityTag
p389
V0.15
p390
sVLemma
p391
V0.15
p392
sVCharacterOffsetEnd
p393
V110
p394
sVPartOfSpeech
p395
VCD
p396
sVCharacterOffsetBegin
p397
V106
p398
sVNamedEntityTag
p399
VNUMBER
p400
saa(lp401
Vtimes
p402
a(dp403
VNamedEntityTag
p404
g72
sVCharacterOffsetEnd
p405
V116
p406
sVCharacterOffsetBegin
p407
V111
p408
sVPartOfSpeech
p409
VNNS
p410
sVLemma
p411
Vtime
p412
saa(lp413
Vhigher
p414
a(dp415
VNamedEntityTag
p416
g72
sVCharacterOffsetEnd
p417
V123
p418
sVCharacterOffsetBegin
p419
V117
p420
sVPartOfSpeech
p421
VJJR
p422
sVLemma
p423
Vhigher
p424
saa(lp425
g221
a(dp426
VNamedEntityTag
p427
g72
sVCharacterOffsetEnd
p428
V125
p429
sVCharacterOffsetBegin
p430
V124
p431
sVPartOfSpeech
p432
g221
sVLemma
p433
g221
saasVindexeddependencies
p434
(lp435
(lp436
Vroot
p437
aVROOT-0
p438
aVhigher-9
p439
aa(lp440
Vdet
p441
aVlow-3
p442
aVThe-1
p443
aa(lp444
Vamod
p445
aVlow-3
p446
aVaverage-2
p447
aa(lp448
Vnsubj
p449
aVhigher-9
p450
aVlow-3
p451
aa(lp452
Vprep_in
p453
aVlow-3
p454
aVFebruary-5
p455
aa(lp456
Vcop
p457
aVhigher-9
p458
aVwas-6
p459
aa(lp460
Vnum
p461
aVtimes-8
p462
aV0.15-7
p463
aa(lp464
Vnpadvmod
p465
aVhigher-9
p466
aVtimes-8
p467
aasa(dp468
Vparsetree
p469
V(ROOT (SBARQ (WHNP (WP What)) (SQ (VBD was) (NP (NP (DT the) (JJ average) (JJ low)) (PP (IN in) (NP (NNP February))))) (. ?)))
p470
sVtext
p471
VWhat was the average low in February ?
p472
sVdependencies
p473
(lp474
(lp475
Vroot
p476
aVROOT
p477
aVWhat
p478
aa(lp479
Vcop
p480
aVWhat
p481
aVwas
p482
aa(lp483
Vdet
p484
aVlow
p485
aVthe
p486
aa(lp487
Vamod
p488
aVlow
p489
aVaverage
p490
aa(lp491
Vnsubj
p492
aVWhat
p493
aVlow
p494
aa(lp495
Vprep_in
p496
aVlow
p497
aVFebruary
p498
aasVwords
p499
(lp500
(lp501
VWhat
p502
a(dp503
VNamedEntityTag
p504
g72
sVCharacterOffsetEnd
p505
V130
p506
sVCharacterOffsetBegin
p507
V126
p508
sVPartOfSpeech
p509
VWP
p510
sVLemma
p511
Vwhat
p512
saa(lp513
Vwas
p514
a(dp515
VNamedEntityTag
p516
g72
sVCharacterOffsetEnd
p517
V134
p518
sVCharacterOffsetBegin
p519
V131
p520
sVPartOfSpeech
p521
VVBD
p522
sVLemma
p523
Vbe
p524
saa(lp525
Vthe
p526
a(dp527
VNamedEntityTag
p528
g72
sVCharacterOffsetEnd
p529
V138
p530
sVCharacterOffsetBegin
p531
V135
p532
sVPartOfSpeech
p533
VDT
p534
sVLemma
p535
Vthe
p536
saa(lp537
Vaverage
p538
a(dp539
VNamedEntityTag
p540
g72
sVCharacterOffsetEnd
p541
V146
p542
sVCharacterOffsetBegin
p543
V139
p544
sVPartOfSpeech
p545
VJJ
p546
sVLemma
p547
Vaverage
p548
saa(lp549
Vlow
p550
a(dp551
VNamedEntityTag
p552
g72
sVCharacterOffsetEnd
p553
V150
p554
sVCharacterOffsetBegin
p555
V147
p556
sVPartOfSpeech
p557
VJJ
p558
sVLemma
p559
Vlow
p560
saa(lp561
Vin
p562
a(dp563
VNamedEntityTag
p564
g72
sVCharacterOffsetEnd
p565
V153
p566
sVCharacterOffsetBegin
p567
V151
p568
sVPartOfSpeech
p569
VIN
p570
sVLemma
p571
Vin
p572
saa(lp573
VFebruary
p574
a(dp575
VNormalizedNamedEntityTag
p576
VXXXX-02
p577
sVTimex
p578
V<TIMEX3 tid="t3" type="DATE" value="XXXX-02">February</TIMEX3>
p579
sVLemma
p580
VFebruary
p581
sVCharacterOffsetEnd
p582
V162
p583
sVPartOfSpeech
p584
VNNP
p585
sVCharacterOffsetBegin
p586
V154
p587
sVNamedEntityTag
p588
VDATE
p589
saa(lp590
V?
p591
a(dp592
VNamedEntityTag
p593
g72
sVCharacterOffsetEnd
p594
V164
p595
sVCharacterOffsetBegin
p596
V163
p597
sVPartOfSpeech
p598
g221
sVLemma
p599
g591
saasVindexeddependencies
p600
(lp601
(lp602
Vroot
p603
aVROOT-0
p604
aVWhat-1
p605
aa(lp606
Vcop
p607
aVWhat-1
p608
aVwas-2
p609
aa(lp610
Vdet
p611
aVlow-5
p612
aVthe-3
p613
aa(lp614
Vamod
p615
aVlow-5
p616
aVaverage-4
p617
aa(lp618
Vnsubj
p619
aVWhat-1
p620
aVlow-5
p621
aa(lp622
Vprep_in
p623
aVlow-5
p624
aVFebruary-7
p625
aasas.