(dp0
Vcoref
p1
(lp2
(lp3
(lp4
(lp5
Vthe employees
p6
aI1
aI4
aI3
aI5
aa(lp7
V2 part-time employees
p8
aI0
aI6
aI4
aI7
aaaasVsentences
p9
(lp10
(dp11
Vparsetree
p12
V(ROOT (S (NP (DT The) (NNS sports) (NN shop)) (VP (VBZ has) (NP (NP (CD 2) (JJ part-time) (NNS employees)) (CC and) (NP (CD 3) (JJ full-time) (NNS employees)))) (. .)))
p13
sVtext
p14
VThe sports shop has 2 part-time employees and 3 full-time employees .
p15
sVdependencies
p16
(lp17
(lp18
Vroot
p19
aVROOT
p20
aVhas
p21
aa(lp22
Vdet
p23
aVshop
p24
aVThe
p25
aa(lp26
Vnn
p27
aVshop
p28
aVsports
p29
aa(lp30
Vnsubj
p31
aVhas
p32
aVshop
p33
aa(lp34
Vnum
p35
aVemployees
p36
aV2
p37
aa(lp38
Vamod
p39
aVemployees
p40
aVpart-time
p41
aa(lp42
Vdobj
p43
aVhas
p44
aVemployees
p45
aa(lp46
Vnum
p47
aVemployees
p48
aV3
p49
aa(lp50
Vamod
p51
aVemployees
p52
aVfull-time
p53
aa(lp54
Vconj_and
p55
aVemployees
p56
aVemployees
p57
aasVwords
p58
(lp59
(lp60
VThe
p61
a(dp62
VNamedEntityTag
p63
VO
p64
sVCharacterOffsetEnd
p65
V4
p66
sVCharacterOffsetBegin
p67
V1
p68
sVPartOfSpeech
p69
VDT
p70
sVLemma
p71
Vthe
p72
saa(lp73
Vsports
p74
a(dp75
VNamedEntityTag
p76
g64
sVCharacterOffsetEnd
p77
V11
p78
sVCharacterOffsetBegin
p79
V5
p80
sVPartOfSpeech
p81
VNNS
p82
sVLemma
p83
Vsport
p84
saa(lp85
Vshop
p86
a(dp87
VNamedEntityTag
p88
g64
sVCharacterOffsetEnd
p89
V16
p90
sVCharacterOffsetBegin
p91
V12
p92
sVPartOfSpeech
p93
VNN
p94
sVLemma
p95
Vshop
p96
saa(lp97
Vhas
p98
a(dp99
VNamedEntityTag
p100
g64
sVCharacterOffsetEnd
p101
V20
p102
sVCharacterOffsetBegin
p103
V17
p104
sVPartOfSpeech
p105
VVBZ
p106
sVLemma
p107
Vhave
p108
saa(lp109
g37
a(dp110
VNormalizedNamedEntityTag
p111
V2.0
p112
sVLemma
p113
g37
sVCharacterOffsetEnd
p114
V22
p115
sVPartOfSpeech
p116
VCD
p117
sVCharacterOffsetBegin
p118
V21
p119
sVNamedEntityTag
p120
VNUMBER
p121
saa(lp122
Vpart-time
p123
a(dp124
VNamedEntityTag
p125
g64
sVCharacterOffsetEnd
p126
V32
p127
sVCharacterOffsetBegin
p128
V23
p129
sVPartOfSpeech
p130
VJJ
p131
sVLemma
p132
Vpart-time
p133
saa(lp134
Vemployees
p135
a(dp136
VNamedEntityTag
p137
g64
sVCharacterOffsetEnd
p138
V42
p139
sVCharacterOffsetBegin
p140
V33
p141
sVPartOfSpeech
p142
VNNS
p143
sVLemma
p144
Vemployee
p145
saa(lp146
Vand
p147
a(dp148
VNamedEntityTag
p149
g64
sVCharacterOffsetEnd
p150
V46
p151
sVCharacterOffsetBegin
p152
V43
p153
sVPartOfSpeech
p154
VCC
p155
sVLemma
p156
Vand
p157
saa(lp158
g49
a(dp159
VNormalizedNamedEntityTag
p160
V3.0
p161
sVLemma
p162
g49
sVCharacterOffsetEnd
p163
V48
p164
sVPartOfSpeech
p165
VCD
p166
sVCharacterOffsetBegin
p167
V47
p168
sVNamedEntityTag
p169
VNUMBER
p170
saa(lp171
Vfull-time
p172
a(dp173
VNamedEntityTag
p174
g64
sVCharacterOffsetEnd
p175
V58
p176
sVCharacterOffsetBegin
p177
V49
p178
sVPartOfSpeech
p179
VJJ
p180
sVLemma
p181
Vfull-time
p182
saa(lp183
Vemployees
p184
a(dp185
VNamedEntityTag
p186
g64
sVCharacterOffsetEnd
p187
V68
p188
sVCharacterOffsetBegin
p189
V59
p190
sVPartOfSpeech
p191
VNNS
p192
sVLemma
p193
Vemployee
p194
saa(lp195
V.
p196
a(dp197
VNamedEntityTag
p198
g64
sVCharacterOffsetEnd
p199
V70
p200
sVCharacterOffsetBegin
p201
V69
p202
sVPartOfSpeech
p203
g196
sVLemma
p204
g196
saasVindexeddependencies
p205
(lp206
(lp207
Vroot
p208
aVROOT-0
p209
aVhas-4
p210
aa(lp211
Vdet
p212
aVshop-3
p213
aVThe-1
p214
aa(lp215
Vnn
p216
aVshop-3
p217
aVsports-2
p218
aa(lp219
Vnsubj
p220
aVhas-4
p221
aVshop-3
p222
aa(lp223
Vnum
p224
aVemployees-7
p225
aV2-5
p226
aa(lp227
Vamod
p228
aVemployees-7
p229
aVpart-time-6
p230
aa(lp231
Vdobj
p232
aVhas-4
p233
aVemployees-7
p234
aa(lp235
Vnum
p236
aVemployees-11
p237
aV3-9
p238
aa(lp239
Vamod
p240
aVemployees-11
p241
aVfull-time-10
p242
aa(lp243
Vconj_and
p244
aVemployees-7
p245
aVemployees-11
p246
aasa(dp247
Vparsetree
p248
V(ROOT (FRAG (WHNP (WHNP (WDT What) (NN percentage)) (PP (IN of) (NP (DT the) (NNS employees)))) (PP (IN at) (NP (DT the) (NNS sports) (NN shop) (NN work)) (ADVP (RB part-time))) (. ?)))
p249
sVtext
p250
VWhat percentage of the employees at the sports shop work part-time ?
p251
sVdependencies
p252
(lp253
(lp254
Vroot
p255
aVROOT
p256
aVpercentage
p257
aa(lp258
Vdet
p259
aVpercentage
p260
aVWhat
p261
aa(lp262
Vdet
p263
aVemployees
p264
aVthe
p265
aa(lp266
Vprep_of
p267
aVpercentage
p268
aVemployees
p269
aa(lp270
Vdet
p271
aVwork
p272
aVthe
p273
aa(lp274
Vnn
p275
aVwork
p276
aVsports
p277
aa(lp278
Vnn
p279
aVwork
p280
aVshop
p281
aa(lp282
Vprep_at
p283
aVpercentage
p284
aVwork
p285
aa(lp286
Vadvmod
p287
aVpercentage
p288
aVpart-time
p289
aasVwords
p290
(lp291
(lp292
VWhat
p293
a(dp294
VNamedEntityTag
p295
g64
sVCharacterOffsetEnd
p296
V75
p297
sVCharacterOffsetBegin
p298
V71
p299
sVPartOfSpeech
p300
VWDT
p301
sVLemma
p302
Vwhat
p303
saa(lp304
Vpercentage
p305
a(dp306
VNamedEntityTag
p307
g64
sVCharacterOffsetEnd
p308
V86
p309
sVCharacterOffsetBegin
p310
V76
p311
sVPartOfSpeech
p312
VNN
p313
sVLemma
p314
Vpercentage
p315
saa(lp316
Vof
p317
a(dp318
VNamedEntityTag
p319
g64
sVCharacterOffsetEnd
p320
V89
p321
sVCharacterOffsetBegin
p322
V87
p323
sVPartOfSpeech
p324
VIN
p325
sVLemma
p326
Vof
p327
saa(lp328
Vthe
p329
a(dp330
VNamedEntityTag
p331
g64
sVCharacterOffsetEnd
p332
V93
p333
sVCharacterOffsetBegin
p334
V90
p335
sVPartOfSpeech
p336
VDT
p337
sVLemma
p338
Vthe
p339
saa(lp340
Vemployees
p341
a(dp342
VNamedEntityTag
p343
g64
sVCharacterOffsetEnd
p344
V103
p345
sVCharacterOffsetBegin
p346
V94
p347
sVPartOfSpeech
p348
VNNS
p349
sVLemma
p350
Vemployee
p351
saa(lp352
Vat
p353
a(dp354
VNamedEntityTag
p355
g64
sVCharacterOffsetEnd
p356
V106
p357
sVCharacterOffsetBegin
p358
V104
p359
sVPartOfSpeech
p360
VIN
p361
sVLemma
p362
Vat
p363
saa(lp364
Vthe
p365
a(dp366
VNamedEntityTag
p367
g64
sVCharacterOffsetEnd
p368
V110
p369
sVCharacterOffsetBegin
p370
V107
p371
sVPartOfSpeech
p372
VDT
p373
sVLemma
p374
Vthe
p375
saa(lp376
Vsports
p377
a(dp378
VNamedEntityTag
p379
g64
sVCharacterOffsetEnd
p380
V117
p381
sVCharacterOffsetBegin
p382
V111
p383
sVPartOfSpeech
p384
VNNS
p385
sVLemma
p386
Vsport
p387
saa(lp388
Vshop
p389
a(dp390
VNamedEntityTag
p391
g64
sVCharacterOffsetEnd
p392
V122
p393
sVCharacterOffsetBegin
p394
V118
p395
sVPartOfSpeech
p396
VNN
p397
sVLemma
p398
Vshop
p399
saa(lp400
Vwork
p401
a(dp402
VNamedEntityTag
p403
g64
sVCharacterOffsetEnd
p404
V127
p405
sVCharacterOffsetBegin
p406
V123
p407
sVPartOfSpeech
p408
VNN
p409
sVLemma
p410
Vwork
p411
saa(lp412
Vpart-time
p413
a(dp414
VNamedEntityTag
p415
g64
sVCharacterOffsetEnd
p416
V137
p417
sVCharacterOffsetBegin
p418
V128
p419
sVPartOfSpeech
p420
VRB
p421
sVLemma
p422
Vpart-time
p423
saa(lp424
V?
p425
a(dp426
VNamedEntityTag
p427
g64
sVCharacterOffsetEnd
p428
V139
p429
sVCharacterOffsetBegin
p430
V138
p431
sVPartOfSpeech
p432
g196
sVLemma
p433
g425
saasVindexeddependencies
p434
(lp435
(lp436
Vroot
p437
aVROOT-0
p438
aVpercentage-2
p439
aa(lp440
Vdet
p441
aVpercentage-2
p442
aVWhat-1
p443
aa(lp444
Vdet
p445
aVemployees-5
p446
aVthe-4
p447
aa(lp448
Vprep_of
p449
aVpercentage-2
p450
aVemployees-5
p451
aa(lp452
Vdet
p453
aVwork-10
p454
aVthe-7
p455
aa(lp456
Vnn
p457
aVwork-10
p458
aVsports-8
p459
aa(lp460
Vnn
p461
aVwork-10
p462
aVshop-9
p463
aa(lp464
Vprep_at
p465
aVpercentage-2
p466
aVwork-10
p467
aa(lp468
Vadvmod
p469
aVpercentage-2
p470
aVpart-time-11
p471
aasas.