(dp0
Vcoref
p1
(lp2
(lp3
(lp4
(lp5
Vher
p6
aI0
aI7
aI7
aI8
aa(lp7
VMaria
p8
aI0
aI0
aI0
aI1
aaa(lp9
(lp10
Vshe
p11
aI1
aI1
aI1
aI2
aa(lp12
VMaria
p13
aI0
aI0
aI0
aI1
aaa(lp14
(lp15
Vshe
p16
aI1
aI16
aI16
aI17
aa(lp17
VMaria
p18
aI0
aI0
aI0
aI1
aaaasVsentences
p19
(lp20
(dp21
Vparsetree
p22
V(ROOT (S (NP (NNP Maria)) (VP (VBD had) (NP (NP (CD 14) (NNS bottles)) (PP (IN of) (NP (NN water)))) (PP (IN in) (NP (PRP$ her) (NN fridge)))) (. .)))
p23
sVtext
p24
VMaria had 14 bottles of water in her fridge .
p25
sVdependencies
p26
(lp27
(lp28
Vroot
p29
aVROOT
p30
aVhad
p31
aa(lp32
Vnsubj
p33
aVhad
p34
aVMaria
p35
aa(lp36
Vnum
p37
aVbottles
p38
aV14
p39
aa(lp40
Vdobj
p41
aVhad
p42
aVbottles
p43
aa(lp44
Vprep_of
p45
aVbottles
p46
aVwater
p47
aa(lp48
Vposs
p49
aVfridge
p50
aVher
p51
aa(lp52
Vprep_in
p53
aVhad
p54
aVfridge
p55
aasVwords
p56
(lp57
(lp58
VMaria
p59
a(dp60
VNamedEntityTag
p61
VPERSON
p62
sVCharacterOffsetEnd
p63
V6
p64
sVCharacterOffsetBegin
p65
V1
p66
sVPartOfSpeech
p67
VNNP
p68
sVLemma
p69
VMaria
p70
saa(lp71
Vhad
p72
a(dp73
VNamedEntityTag
p74
VO
p75
sVCharacterOffsetEnd
p76
V10
p77
sVCharacterOffsetBegin
p78
V7
p79
sVPartOfSpeech
p80
VVBD
p81
sVLemma
p82
Vhave
p83
saa(lp84
V14
p85
a(dp86
VNormalizedNamedEntityTag
p87
V14.0
p88
sVLemma
p89
V14
p90
sVCharacterOffsetEnd
p91
V13
p92
sVPartOfSpeech
p93
VCD
p94
sVCharacterOffsetBegin
p95
V11
p96
sVNamedEntityTag
p97
VNUMBER
p98
saa(lp99
Vbottles
p100
a(dp101
VNamedEntityTag
p102
g75
sVCharacterOffsetEnd
p103
V21
p104
sVCharacterOffsetBegin
p105
V14
p106
sVPartOfSpeech
p107
VNNS
p108
sVLemma
p109
Vbottle
p110
saa(lp111
Vof
p112
a(dp113
VNamedEntityTag
p114
g75
sVCharacterOffsetEnd
p115
V24
p116
sVCharacterOffsetBegin
p117
V22
p118
sVPartOfSpeech
p119
VIN
p120
sVLemma
p121
Vof
p122
saa(lp123
Vwater
p124
a(dp125
VNamedEntityTag
p126
g75
sVCharacterOffsetEnd
p127
V30
p128
sVCharacterOffsetBegin
p129
V25
p130
sVPartOfSpeech
p131
VNN
p132
sVLemma
p133
Vwater
p134
saa(lp135
Vin
p136
a(dp137
VNamedEntityTag
p138
g75
sVCharacterOffsetEnd
p139
V33
p140
sVCharacterOffsetBegin
p141
V31
p142
sVPartOfSpeech
p143
VIN
p144
sVLemma
p145
Vin
p146
saa(lp147
Vher
p148
a(dp149
VNamedEntityTag
p150
g75
sVCharacterOffsetEnd
p151
V37
p152
sVCharacterOffsetBegin
p153
V34
p154
sVPartOfSpeech
p155
VPRP$
p156
sVLemma
p157
Vshe
p158
saa(lp159
Vfridge
p160
a(dp161
VNamedEntityTag
p162
g75
sVCharacterOffsetEnd
p163
V44
p164
sVCharacterOffsetBegin
p165
V38
p166
sVPartOfSpeech
p167
VNN
p168
sVLemma
p169
Vfridge
p170
saa(lp171
V.
p172
a(dp173
VNamedEntityTag
p174
g75
sVCharacterOffsetEnd
p175
V46
p176
sVCharacterOffsetBegin
p177
V45
p178
sVPartOfSpeech
p179
g172
sVLemma
p180
g172
saasVindexeddependencies
p181
(lp182
(lp183
Vroot
p184
aVROOT-0
p185
aVhad-2
p186
aa(lp187
Vnsubj
p188
aVhad-2
p189
aVMaria-1
p190
aa(lp191
Vnum
p192
aVbottles-4
p193
aV14-3
p194
aa(lp195
Vdobj
p196
aVhad-2
p197
aVbottles-4
p198
aa(lp199
Vprep_of
p200
aVbottles-4
p201
aVwater-6
p202
aa(lp203
Vposs
p204
aVfridge-9
p205
aVher-8
p206
aa(lp207
Vprep_in
p208
aVhad-2
p209
aVfridge-9
p210
aasa(dp211
Vparsetree
p212
V(ROOT (SBARQ (SBAR (IN If) (S (NP (PRP she)) (VP (VP (VBD drank) (NP (NP (CD 8)) (PP (IN of) (NP (PRP them))))) (CC and) (VP (ADVP (RB then)) (VBD bought) (NP (CD 45) (JJR more)))))) (, ,) (WHNP (WHADJP (WRB how) (JJ many)) (NNS bottles)) (SQ (MD would) (NP (PRP she)) (VP (VB have))) (. ?)))
p213
sVtext
p214
VIf she drank 8 of them and then bought 45 more , how many bottles would she have ?
p215
sVdependencies
p216
(lp217
(lp218
Vroot
p219
aVROOT
p220
aVhave
p221
aa(lp222
Vmark
p223
aVdrank
p224
aVIf
p225
aa(lp226
Vnsubj
p227
aVdrank
p228
aVshe
p229
aa(lp230
Vadvcl
p231
aVhave
p232
aVdrank
p233
aa(lp234
Vdobj
p235
aVdrank
p236
aV8
p237
aa(lp238
Vprep_of
p239
ag237
aVthem
p240
aa(lp241
Vadvmod
p242
aVbought
p243
aVthen
p244
aa(lp245
Vconj_and
p246
aVdrank
p247
aVbought
p248
aa(lp249
Vnum
p250
aVmore
p251
aV45
p252
aa(lp253
Vdobj
p254
aVbought
p255
aVmore
p256
aa(lp257
Vadvmod
p258
aVmany
p259
aVhow
p260
aa(lp261
Vamod
p262
aVbottles
p263
aVmany
p264
aa(lp265
Vdobj
p266
aVhave
p267
aVbottles
p268
aa(lp269
Vaux
p270
aVhave
p271
aVwould
p272
aa(lp273
Vnsubj
p274
aVhave
p275
aVshe
p276
aasVwords
p277
(lp278
(lp279
VIf
p280
a(dp281
VNamedEntityTag
p282
g75
sVCharacterOffsetEnd
p283
V49
p284
sVCharacterOffsetBegin
p285
V47
p286
sVPartOfSpeech
p287
VIN
p288
sVLemma
p289
Vif
p290
saa(lp291
Vshe
p292
a(dp293
VNamedEntityTag
p294
g75
sVCharacterOffsetEnd
p295
V53
p296
sVCharacterOffsetBegin
p297
V50
p298
sVPartOfSpeech
p299
VPRP
p300
sVLemma
p301
Vshe
p302
saa(lp303
Vdrank
p304
a(dp305
VNamedEntityTag
p306
g75
sVCharacterOffsetEnd
p307
V59
p308
sVCharacterOffsetBegin
p309
V54
p310
sVPartOfSpeech
p311
VVBD
p312
sVLemma
p313
Vdrink
p314
saa(lp315
g237
a(dp316
VNormalizedNamedEntityTag
p317
V8.0
p318
sVLemma
p319
g237
sVCharacterOffsetEnd
p320
V61
p321
sVPartOfSpeech
p322
VCD
p323
sVCharacterOffsetBegin
p324
V60
p325
sVNamedEntityTag
p326
VNUMBER
p327
saa(lp328
Vof
p329
a(dp330
VNamedEntityTag
p331
g75
sVCharacterOffsetEnd
p332
V64
p333
sVCharacterOffsetBegin
p334
V62
p335
sVPartOfSpeech
p336
VIN
p337
sVLemma
p338
Vof
p339
saa(lp340
Vthem
p341
a(dp342
VNamedEntityTag
p343
g75
sVCharacterOffsetEnd
p344
V69
p345
sVCharacterOffsetBegin
p346
V65
p347
sVPartOfSpeech
p348
VPRP
p349
sVLemma
p350
Vthey
p351
saa(lp352
Vand
p353
a(dp354
VNamedEntityTag
p355
g75
sVCharacterOffsetEnd
p356
V73
p357
sVCharacterOffsetBegin
p358
V70
p359
sVPartOfSpeech
p360
VCC
p361
sVLemma
p362
Vand
p363
saa(lp364
Vthen
p365
a(dp366
VNamedEntityTag
p367
g75
sVCharacterOffsetEnd
p368
V78
p369
sVCharacterOffsetBegin
p370
V74
p371
sVPartOfSpeech
p372
VRB
p373
sVLemma
p374
Vthen
p375
saa(lp376
Vbought
p377
a(dp378
VNamedEntityTag
p379
g75
sVCharacterOffsetEnd
p380
V85
p381
sVCharacterOffsetBegin
p382
V79
p383
sVPartOfSpeech
p384
VVBD
p385
sVLemma
p386
Vbuy
p387
saa(lp388
V45
p389
a(dp390
VNormalizedNamedEntityTag
p391
V45.0
p392
sVLemma
p393
V45
p394
sVCharacterOffsetEnd
p395
V88
p396
sVPartOfSpeech
p397
VCD
p398
sVCharacterOffsetBegin
p399
V86
p400
sVNamedEntityTag
p401
VNUMBER
p402
saa(lp403
Vmore
p404
a(dp405
VNamedEntityTag
p406
g75
sVCharacterOffsetEnd
p407
V93
p408
sVCharacterOffsetBegin
p409
V89
p410
sVPartOfSpeech
p411
VJJR
p412
sVLemma
p413
Vmore
p414
saa(lp415
V,
p416
a(dp417
VNamedEntityTag
p418
g75
sVCharacterOffsetEnd
p419
V95
p420
sVCharacterOffsetBegin
p421
V94
p422
sVPartOfSpeech
p423
g416
sVLemma
p424
g416
saa(lp425
Vhow
p426
a(dp427
VNamedEntityTag
p428
g75
sVCharacterOffsetEnd
p429
V99
p430
sVCharacterOffsetBegin
p431
V96
p432
sVPartOfSpeech
p433
VWRB
p434
sVLemma
p435
Vhow
p436
saa(lp437
Vmany
p438
a(dp439
VNamedEntityTag
p440
g75
sVCharacterOffsetEnd
p441
V104
p442
sVCharacterOffsetBegin
p443
V100
p444
sVPartOfSpeech
p445
VJJ
p446
sVLemma
p447
Vmany
p448
saa(lp449
Vbottles
p450
a(dp451
VNamedEntityTag
p452
g75
sVCharacterOffsetEnd
p453
V112
p454
sVCharacterOffsetBegin
p455
V105
p456
sVPartOfSpeech
p457
VNNS
p458
sVLemma
p459
Vbottle
p460
saa(lp461
Vwould
p462
a(dp463
VNamedEntityTag
p464
g75
sVCharacterOffsetEnd
p465
V118
p466
sVCharacterOffsetBegin
p467
V113
p468
sVPartOfSpeech
p469
VMD
p470
sVLemma
p471
Vwould
p472
saa(lp473
Vshe
p474
a(dp475
VNamedEntityTag
p476
g75
sVCharacterOffsetEnd
p477
V122
p478
sVCharacterOffsetBegin
p479
V119
p480
sVPartOfSpeech
p481
VPRP
p482
sVLemma
p483
Vshe
p484
saa(lp485
Vhave
p486
a(dp487
VNamedEntityTag
p488
g75
sVCharacterOffsetEnd
p489
V127
p490
sVCharacterOffsetBegin
p491
V123
p492
sVPartOfSpeech
p493
VVB
p494
sVLemma
p495
Vhave
p496
saa(lp497
V?
p498
a(dp499
VNamedEntityTag
p500
g75
sVCharacterOffsetEnd
p501
V129
p502
sVCharacterOffsetBegin
p503
V128
p504
sVPartOfSpeech
p505
g172
sVLemma
p506
g498
saasVindexeddependencies
p507
(lp508
(lp509
Vroot
p510
aVROOT-0
p511
aVhave-18
p512
aa(lp513
Vmark
p514
aVdrank-3
p515
aVIf-1
p516
aa(lp517
Vnsubj
p518
aVdrank-3
p519
aVshe-2
p520
aa(lp521
Vadvcl
p522
aVhave-18
p523
aVdrank-3
p524
aa(lp525
Vdobj
p526
aVdrank-3
p527
aV8-4
p528
aa(lp529
Vprep_of
p530
aV8-4
p531
aVthem-6
p532
aa(lp533
Vadvmod
p534
aVbought-9
p535
aVthen-8
p536
aa(lp537
Vconj_and
p538
aVdrank-3
p539
aVbought-9
p540
aa(lp541
Vnum
p542
aVmore-11
p543
aV45-10
p544
aa(lp545
Vdobj
p546
aVbought-9
p547
aVmore-11
p548
aa(lp549
Vadvmod
p550
aVmany-14
p551
aVhow-13
p552
aa(lp553
Vamod
p554
aVbottles-15
p555
aVmany-14
p556
aa(lp557
Vdobj
p558
aVhave-18
p559
aVbottles-15
p560
aa(lp561
Vaux
p562
aVhave-18
p563
aVwould-16
p564
aa(lp565
Vnsubj
p566
aVhave-18
p567
aVshe-17
p568
aasas.