(dp0
Vcoref
p1
(lp2
(lp3
(lp4
(lp5
Vshe
p6
aI1
aI1
aI1
aI2
aa(lp7
VA teacher
p8
aI0
aI1
aI0
aI2
aaa(lp9
(lp10
Vshe
p11
aI1
aI17
aI17
aI18
aa(lp12
VA teacher
p13
aI0
aI1
aI0
aI2
aaaasVsentences
p14
(lp15
(dp16
Vparsetree
p17
V(ROOT (S (NP (DT A) (NN teacher)) (VP (VBD had) (NP (NP (CD 34) (NNS worksheets)) (PP (TO to) (NP (NN grade))))) (. .)))
p18
sVtext
p19
VA teacher had 34 worksheets to grade .
p20
sVdependencies
p21
(lp22
(lp23
Vroot
p24
aVROOT
p25
aVhad
p26
aa(lp27
Vdet
p28
aVteacher
p29
aVA
p30
aa(lp31
Vnsubj
p32
aVhad
p33
aVteacher
p34
aa(lp35
Vnum
p36
aVworksheets
p37
aV34
p38
aa(lp39
Vdobj
p40
aVhad
p41
aVworksheets
p42
aa(lp43
Vprep_to
p44
aVworksheets
p45
aVgrade
p46
aasVwords
p47
(lp48
(lp49
g30
a(dp50
VNamedEntityTag
p51
VO
p52
sVCharacterOffsetEnd
p53
V2
p54
sVCharacterOffsetBegin
p55
V1
p56
sVPartOfSpeech
p57
VDT
p58
sVLemma
p59
Va
p60
saa(lp61
Vteacher
p62
a(dp63
VNamedEntityTag
p64
g52
sVCharacterOffsetEnd
p65
V10
p66
sVCharacterOffsetBegin
p67
V3
p68
sVPartOfSpeech
p69
VNN
p70
sVLemma
p71
Vteacher
p72
saa(lp73
Vhad
p74
a(dp75
VNamedEntityTag
p76
g52
sVCharacterOffsetEnd
p77
V14
p78
sVCharacterOffsetBegin
p79
V11
p80
sVPartOfSpeech
p81
VVBD
p82
sVLemma
p83
Vhave
p84
saa(lp85
V34
p86
a(dp87
VNormalizedNamedEntityTag
p88
V34.0
p89
sVLemma
p90
V34
p91
sVCharacterOffsetEnd
p92
V17
p93
sVPartOfSpeech
p94
VCD
p95
sVCharacterOffsetBegin
p96
V15
p97
sVNamedEntityTag
p98
VNUMBER
p99
saa(lp100
Vworksheets
p101
a(dp102
VNamedEntityTag
p103
g52
sVCharacterOffsetEnd
p104
V28
p105
sVCharacterOffsetBegin
p106
V18
p107
sVPartOfSpeech
p108
VNNS
p109
sVLemma
p110
Vworksheet
p111
saa(lp112
Vto
p113
a(dp114
VNamedEntityTag
p115
g52
sVCharacterOffsetEnd
p116
V31
p117
sVCharacterOffsetBegin
p118
V29
p119
sVPartOfSpeech
p120
VTO
p121
sVLemma
p122
Vto
p123
saa(lp124
Vgrade
p125
a(dp126
VNamedEntityTag
p127
g52
sVCharacterOffsetEnd
p128
V37
p129
sVCharacterOffsetBegin
p130
V32
p131
sVPartOfSpeech
p132
VNN
p133
sVLemma
p134
Vgrade
p135
saa(lp136
V.
p137
a(dp138
VNamedEntityTag
p139
g52
sVCharacterOffsetEnd
p140
V39
p141
sVCharacterOffsetBegin
p142
V38
p143
sVPartOfSpeech
p144
g137
sVLemma
p145
g137
saasVindexeddependencies
p146
(lp147
(lp148
Vroot
p149
aVROOT-0
p150
aVhad-3
p151
aa(lp152
Vdet
p153
aVteacher-2
p154
aVA-1
p155
aa(lp156
Vnsubj
p157
aVhad-3
p158
aVteacher-2
p159
aa(lp160
Vnum
p161
aVworksheets-5
p162
aV34-4
p163
aa(lp164
Vdobj
p165
aVhad-3
p166
aVworksheets-5
p167
aa(lp168
Vprep_to
p169
aVworksheets-5
p170
aVgrade-7
p171
aasa(dp172
Vparsetree
p173
V(ROOT (SBARQ (SBAR (IN If) (S (S (NP (PRP she)) (VP (VBD graded) (NP (CD 7)))) (, ,) (CC but) (S (ADVP (RB then)) (NP (DT another) (CD 36)) (VP (VBD were) (VP (VBN turned) (PRT (RP in))))))) (, ,) (WHADVP (WRB how) (NP (JJ many) (NNS worksheets))) (SQ (MD would) (NP (PRP she)) (VP (VB have) (PP (TO to) (NP (NN grade))))) (. ?)))
p174
sVtext
p175
VIf she graded 7 , but then another 36 were turned in , how many worksheets would she have to grade ?
p176
sVdependencies
p177
(lp178
(lp179
Vroot
p180
aVROOT
p181
aVhave
p182
aa(lp183
Vmark
p184
aVgraded
p185
aVIf
p186
aa(lp187
Vnsubj
p188
aVgraded
p189
aVshe
p190
aa(lp191
Vadvcl
p192
aVhave
p193
aVgraded
p194
aa(lp195
Vdobj
p196
aVgraded
p197
aV7
p198
aa(lp199
Vadvmod
p200
aVturned
p201
aVthen
p202
aa(lp203
Vdet
p204
aV36
p205
aVanother
p206
aa(lp207
Vnsubjpass
p208
aVturned
p209
aV36
p210
aa(lp211
Vauxpass
p212
aVturned
p213
aVwere
p214
aa(lp215
Vconj_but
p216
aVgraded
p217
aVturned
p218
aa(lp219
Vprt
p220
aVturned
p221
aVin
p222
aa(lp223
Vadvmod
p224
aVhave
p225
aVhow
p226
aa(lp227
Vamod
p228
aVworksheets
p229
aVmany
p230
aa(lp231
Vdep
p232
aVhow
p233
aVworksheets
p234
aa(lp235
Vaux
p236
aVhave
p237
aVwould
p238
aa(lp239
Vnsubj
p240
aVhave
p241
aVshe
p242
aa(lp243
Vprep_to
p244
aVhave
p245
aVgrade
p246
aasVwords
p247
(lp248
(lp249
VIf
p250
a(dp251
VNamedEntityTag
p252
g52
sVCharacterOffsetEnd
p253
V42
p254
sVCharacterOffsetBegin
p255
V40
p256
sVPartOfSpeech
p257
VIN
p258
sVLemma
p259
Vif
p260
saa(lp261
Vshe
p262
a(dp263
VNamedEntityTag
p264
g52
sVCharacterOffsetEnd
p265
V46
p266
sVCharacterOffsetBegin
p267
V43
p268
sVPartOfSpeech
p269
VPRP
p270
sVLemma
p271
Vshe
p272
saa(lp273
Vgraded
p274
a(dp275
VNamedEntityTag
p276
g52
sVCharacterOffsetEnd
p277
V53
p278
sVCharacterOffsetBegin
p279
V47
p280
sVPartOfSpeech
p281
VVBD
p282
sVLemma
p283
Vgrade
p284
saa(lp285
g198
a(dp286
VNormalizedNamedEntityTag
p287
V7.0
p288
sVLemma
p289
g198
sVCharacterOffsetEnd
p290
V55
p291
sVPartOfSpeech
p292
VCD
p293
sVCharacterOffsetBegin
p294
V54
p295
sVNamedEntityTag
p296
VNUMBER
p297
saa(lp298
V,
p299
a(dp300
VNamedEntityTag
p301
g52
sVCharacterOffsetEnd
p302
V57
p303
sVCharacterOffsetBegin
p304
V56
p305
sVPartOfSpeech
p306
g299
sVLemma
p307
g299
saa(lp308
Vbut
p309
a(dp310
VNamedEntityTag
p311
g52
sVCharacterOffsetEnd
p312
V61
p313
sVCharacterOffsetBegin
p314
V58
p315
sVPartOfSpeech
p316
VCC
p317
sVLemma
p318
Vbut
p319
saa(lp320
Vthen
p321
a(dp322
VNamedEntityTag
p323
g52
sVCharacterOffsetEnd
p324
V66
p325
sVCharacterOffsetBegin
p326
V62
p327
sVPartOfSpeech
p328
VRB
p329
sVLemma
p330
Vthen
p331
saa(lp332
Vanother
p333
a(dp334
VNamedEntityTag
p335
g52
sVCharacterOffsetEnd
p336
V74
p337
sVCharacterOffsetBegin
p338
V67
p339
sVPartOfSpeech
p340
VDT
p341
sVLemma
p342
Vanother
p343
saa(lp344
V36
p345
a(dp346
VNormalizedNamedEntityTag
p347
V36.0
p348
sVLemma
p349
V36
p350
sVCharacterOffsetEnd
p351
V77
p352
sVPartOfSpeech
p353
VCD
p354
sVCharacterOffsetBegin
p355
V75
p356
sVNamedEntityTag
p357
VNUMBER
p358
saa(lp359
Vwere
p360
a(dp361
VNamedEntityTag
p362
g52
sVCharacterOffsetEnd
p363
V82
p364
sVCharacterOffsetBegin
p365
V78
p366
sVPartOfSpeech
p367
VVBD
p368
sVLemma
p369
Vbe
p370
saa(lp371
Vturned
p372
a(dp373
VNamedEntityTag
p374
g52
sVCharacterOffsetEnd
p375
V89
p376
sVCharacterOffsetBegin
p377
V83
p378
sVPartOfSpeech
p379
VVBN
p380
sVLemma
p381
Vturn
p382
saa(lp383
Vin
p384
a(dp385
VNamedEntityTag
p386
g52
sVCharacterOffsetEnd
p387
V92
p388
sVCharacterOffsetBegin
p389
V90
p390
sVPartOfSpeech
p391
VRP
p392
sVLemma
p393
Vin
p394
saa(lp395
g299
a(dp396
VNamedEntityTag
p397
g52
sVCharacterOffsetEnd
p398
V94
p399
sVCharacterOffsetBegin
p400
V93
p401
sVPartOfSpeech
p402
g299
sVLemma
p403
g299
saa(lp404
Vhow
p405
a(dp406
VNamedEntityTag
p407
g52
sVCharacterOffsetEnd
p408
V98
p409
sVCharacterOffsetBegin
p410
V95
p411
sVPartOfSpeech
p412
VWRB
p413
sVLemma
p414
Vhow
p415
saa(lp416
Vmany
p417
a(dp418
VNamedEntityTag
p419
g52
sVCharacterOffsetEnd
p420
V103
p421
sVCharacterOffsetBegin
p422
V99
p423
sVPartOfSpeech
p424
VJJ
p425
sVLemma
p426
Vmany
p427
saa(lp428
Vworksheets
p429
a(dp430
VNamedEntityTag
p431
g52
sVCharacterOffsetEnd
p432
V114
p433
sVCharacterOffsetBegin
p434
V104
p435
sVPartOfSpeech
p436
VNNS
p437
sVLemma
p438
Vworksheet
p439
saa(lp440
Vwould
p441
a(dp442
VNamedEntityTag
p443
g52
sVCharacterOffsetEnd
p444
V120
p445
sVCharacterOffsetBegin
p446
V115
p447
sVPartOfSpeech
p448
VMD
p449
sVLemma
p450
Vwould
p451
saa(lp452
Vshe
p453
a(dp454
VNamedEntityTag
p455
g52
sVCharacterOffsetEnd
p456
V124
p457
sVCharacterOffsetBegin
p458
V121
p459
sVPartOfSpeech
p460
VPRP
p461
sVLemma
p462
Vshe
p463
saa(lp464
Vhave
p465
a(dp466
VNamedEntityTag
p467
g52
sVCharacterOffsetEnd
p468
V129
p469
sVCharacterOffsetBegin
p470
V125
p471
sVPartOfSpeech
p472
VVB
p473
sVLemma
p474
Vhave
p475
saa(lp476
Vto
p477
a(dp478
VNamedEntityTag
p479
g52
sVCharacterOffsetEnd
p480
V132
p481
sVCharacterOffsetBegin
p482
V130
p483
sVPartOfSpeech
p484
VTO
p485
sVLemma
p486
Vto
p487
saa(lp488
Vgrade
p489
a(dp490
VNamedEntityTag
p491
g52
sVCharacterOffsetEnd
p492
V138
p493
sVCharacterOffsetBegin
p494
V133
p495
sVPartOfSpeech
p496
VNN
p497
sVLemma
p498
Vgrade
p499
saa(lp500
V?
p501
a(dp502
VNamedEntityTag
p503
g52
sVCharacterOffsetEnd
p504
V140
p505
sVCharacterOffsetBegin
p506
V139
p507
sVPartOfSpeech
p508
g137
sVLemma
p509
g501
saasVindexeddependencies
p510
(lp511
(lp512
Vroot
p513
aVROOT-0
p514
aVhave-19
p515
aa(lp516
Vmark
p517
aVgraded-3
p518
aVIf-1
p519
aa(lp520
Vnsubj
p521
aVgraded-3
p522
aVshe-2
p523
aa(lp524
Vadvcl
p525
aVhave-19
p526
aVgraded-3
p527
aa(lp528
Vdobj
p529
aVgraded-3
p530
aV7-4
p531
aa(lp532
Vadvmod
p533
aVturned-11
p534
aVthen-7
p535
aa(lp536
Vdet
p537
aV36-9
p538
aVanother-8
p539
aa(lp540
Vnsubjpass
p541
aVturned-11
p542
aV36-9
p543
aa(lp544
Vauxpass
p545
aVturned-11
p546
aVwere-10
p547
aa(lp548
Vconj_but
p549
aVgraded-3
p550
aVturned-11
p551
aa(lp552
Vprt
p553
aVturned-11
p554
aVin-12
p555
aa(lp556
Vadvmod
p557
aVhave-19
p558
aVhow-14
p559
aa(lp560
Vamod
p561
aVworksheets-16
p562
aVmany-15
p563
aa(lp564
Vdep
p565
aVhow-14
p566
aVworksheets-16
p567
aa(lp568
Vaux
p569
aVhave-19
p570
aVwould-17
p571
aa(lp572
Vnsubj
p573
aVhave-19
p574
aVshe-18
p575
aa(lp576
Vprep_to
p577
aVhave-19
p578
aVgrade-21
p579
aasas.