(dp0
Vcoref
p1
(lp2
(lp3
(lp4
(lp5
Vthe employees at the water slides
p6
aI1
aI4
aI3
aI9
aa(lp7
Vthe 50 employees at the water slides
p8
aI0
aI5
aI3
aI10
aaaa(lp9
(lp10
(lp11
Vthe water slides
p12
aI1
aI8
aI6
aI9
aa(lp13
Vthe water slides
p14
aI0
aI9
aI7
aI10
aaaasVsentences
p15
(lp16
(dp17
Vparsetree
p18
V(ROOT (S (NP (NP (CD 5)) (PP (ADVP (IN out)) (IN of) (NP (NP (DT the) (CD 50) (NNS employees)) (PP (IN at) (NP (DT the) (NN water) (NNS slides)))))) (VP (VBP are) (NP (JJ temporary) (NNS employees))) (. .)))
p19
sVtext
p20
V5 out of the 50 employees at the water slides are temporary employees .
p21
sVdependencies
p22
(lp23
(lp24
Vroot
p25
aVROOT
p26
aVemployees
p27
aa(lp28
Vnsubj
p29
aVemployees
p30
aV5
p31
aa(lp32
Vdet
p33
aVemployees
p34
aVthe
p35
aa(lp36
Vnum
p37
aVemployees
p38
aV50
p39
aa(lp40
Vprep_out_of
p41
ag31
aVemployees
p42
aa(lp43
Vdet
p44
aVslides
p45
aVthe
p46
aa(lp47
Vnn
p48
aVslides
p49
aVwater
p50
aa(lp51
Vprep_at
p52
aVemployees
p53
aVslides
p54
aa(lp55
Vcop
p56
aVemployees
p57
aVare
p58
aa(lp59
Vamod
p60
aVemployees
p61
aVtemporary
p62
aasVwords
p63
(lp64
(lp65
g31
a(dp66
VNormalizedNamedEntityTag
p67
V5.0
p68
sVLemma
p69
g31
sVCharacterOffsetEnd
p70
V2
p71
sVPartOfSpeech
p72
VCD
p73
sVCharacterOffsetBegin
p74
V1
p75
sVNamedEntityTag
p76
VNUMBER
p77
saa(lp78
Vout
p79
a(dp80
VNamedEntityTag
p81
VO
p82
sVCharacterOffsetEnd
p83
V6
p84
sVCharacterOffsetBegin
p85
V3
p86
sVPartOfSpeech
p87
VIN
p88
sVLemma
p89
Vout
p90
saa(lp91
Vof
p92
a(dp93
VNamedEntityTag
p94
g82
sVCharacterOffsetEnd
p95
V9
p96
sVCharacterOffsetBegin
p97
V7
p98
sVPartOfSpeech
p99
VIN
p100
sVLemma
p101
Vof
p102
saa(lp103
Vthe
p104
a(dp105
VNamedEntityTag
p106
g82
sVCharacterOffsetEnd
p107
V13
p108
sVCharacterOffsetBegin
p109
V10
p110
sVPartOfSpeech
p111
VDT
p112
sVLemma
p113
Vthe
p114
saa(lp115
V50
p116
a(dp117
VNormalizedNamedEntityTag
p118
V50.0
p119
sVLemma
p120
V50
p121
sVCharacterOffsetEnd
p122
V16
p123
sVPartOfSpeech
p124
VCD
p125
sVCharacterOffsetBegin
p126
V14
p127
sVNamedEntityTag
p128
VNUMBER
p129
saa(lp130
Vemployees
p131
a(dp132
VNamedEntityTag
p133
g82
sVCharacterOffsetEnd
p134
V26
p135
sVCharacterOffsetBegin
p136
V17
p137
sVPartOfSpeech
p138
VNNS
p139
sVLemma
p140
Vemployee
p141
saa(lp142
Vat
p143
a(dp144
VNamedEntityTag
p145
g82
sVCharacterOffsetEnd
p146
V29
p147
sVCharacterOffsetBegin
p148
V27
p149
sVPartOfSpeech
p150
VIN
p151
sVLemma
p152
Vat
p153
saa(lp154
Vthe
p155
a(dp156
VNamedEntityTag
p157
g82
sVCharacterOffsetEnd
p158
V33
p159
sVCharacterOffsetBegin
p160
V30
p161
sVPartOfSpeech
p162
VDT
p163
sVLemma
p164
Vthe
p165
saa(lp166
Vwater
p167
a(dp168
VNamedEntityTag
p169
g82
sVCharacterOffsetEnd
p170
V39
p171
sVCharacterOffsetBegin
p172
V34
p173
sVPartOfSpeech
p174
VNN
p175
sVLemma
p176
Vwater
p177
saa(lp178
Vslides
p179
a(dp180
VNamedEntityTag
p181
g82
sVCharacterOffsetEnd
p182
V46
p183
sVCharacterOffsetBegin
p184
V40
p185
sVPartOfSpeech
p186
VNNS
p187
sVLemma
p188
Vslide
p189
saa(lp190
Vare
p191
a(dp192
VNamedEntityTag
p193
g82
sVCharacterOffsetEnd
p194
V50
p195
sVCharacterOffsetBegin
p196
V47
p197
sVPartOfSpeech
p198
VVBP
p199
sVLemma
p200
Vbe
p201
saa(lp202
Vtemporary
p203
a(dp204
VNamedEntityTag
p205
g82
sVCharacterOffsetEnd
p206
V60
p207
sVCharacterOffsetBegin
p208
V51
p209
sVPartOfSpeech
p210
VJJ
p211
sVLemma
p212
Vtemporary
p213
saa(lp214
Vemployees
p215
a(dp216
VNamedEntityTag
p217
g82
sVCharacterOffsetEnd
p218
V70
p219
sVCharacterOffsetBegin
p220
V61
p221
sVPartOfSpeech
p222
VNNS
p223
sVLemma
p224
Vemployee
p225
saa(lp226
V.
p227
a(dp228
VNamedEntityTag
p229
g82
sVCharacterOffsetEnd
p230
V72
p231
sVCharacterOffsetBegin
p232
V71
p233
sVPartOfSpeech
p234
g227
sVLemma
p235
g227
saasVindexeddependencies
p236
(lp237
(lp238
Vroot
p239
aVROOT-0
p240
aVemployees-13
p241
aa(lp242
Vnsubj
p243
aVemployees-13
p244
aV5-1
p245
aa(lp246
Vdet
p247
aVemployees-6
p248
aVthe-4
p249
aa(lp250
Vnum
p251
aVemployees-6
p252
aV50-5
p253
aa(lp254
Vprep_out_of
p255
aV5-1
p256
aVemployees-6
p257
aa(lp258
Vdet
p259
aVslides-10
p260
aVthe-8
p261
aa(lp262
Vnn
p263
aVslides-10
p264
aVwater-9
p265
aa(lp266
Vprep_at
p267
aVemployees-6
p268
aVslides-10
p269
aa(lp270
Vcop
p271
aVemployees-13
p272
aVare-11
p273
aa(lp274
Vamod
p275
aVemployees-13
p276
aVtemporary-12
p277
aasa(dp278
Vparsetree
p279
V(ROOT (SBARQ (WHNP (WHNP (WDT What) (NN percentage)) (PP (IN of) (NP (NP (DT the) (NNS employees)) (PP (IN at) (NP (DT the) (NN water) (NNS slides)))))) (SQ (VP (VBP are) (ADJP (JJ temporary)))) (. ?)))
p280
sVtext
p281
VWhat percentage of the employees at the water slides are temporary ?
p282
sVdependencies
p283
(lp284
(lp285
Vroot
p286
aVROOT
p287
aVtemporary
p288
aa(lp289
Vdet
p290
aVpercentage
p291
aVWhat
p292
aa(lp293
Vnsubj
p294
aVtemporary
p295
aVpercentage
p296
aa(lp297
Vdet
p298
aVemployees
p299
aVthe
p300
aa(lp301
Vprep_of
p302
aVpercentage
p303
aVemployees
p304
aa(lp305
Vdet
p306
aVslides
p307
aVthe
p308
aa(lp309
Vnn
p310
aVslides
p311
aVwater
p312
aa(lp313
Vprep_at
p314
aVemployees
p315
aVslides
p316
aa(lp317
Vcop
p318
aVtemporary
p319
aVare
p320
aasVwords
p321
(lp322
(lp323
VWhat
p324
a(dp325
VNamedEntityTag
p326
g82
sVCharacterOffsetEnd
p327
V77
p328
sVCharacterOffsetBegin
p329
V73
p330
sVPartOfSpeech
p331
VWDT
p332
sVLemma
p333
Vwhat
p334
saa(lp335
Vpercentage
p336
a(dp337
VNamedEntityTag
p338
g82
sVCharacterOffsetEnd
p339
V88
p340
sVCharacterOffsetBegin
p341
V78
p342
sVPartOfSpeech
p343
VNN
p344
sVLemma
p345
Vpercentage
p346
saa(lp347
Vof
p348
a(dp349
VNamedEntityTag
p350
g82
sVCharacterOffsetEnd
p351
V91
p352
sVCharacterOffsetBegin
p353
V89
p354
sVPartOfSpeech
p355
VIN
p356
sVLemma
p357
Vof
p358
saa(lp359
Vthe
p360
a(dp361
VNamedEntityTag
p362
g82
sVCharacterOffsetEnd
p363
V95
p364
sVCharacterOffsetBegin
p365
V92
p366
sVPartOfSpeech
p367
VDT
p368
sVLemma
p369
Vthe
p370
saa(lp371
Vemployees
p372
a(dp373
VNamedEntityTag
p374
g82
sVCharacterOffsetEnd
p375
V105
p376
sVCharacterOffsetBegin
p377
V96
p378
sVPartOfSpeech
p379
VNNS
p380
sVLemma
p381
Vemployee
p382
saa(lp383
Vat
p384
a(dp385
VNamedEntityTag
p386
g82
sVCharacterOffsetEnd
p387
V108
p388
sVCharacterOffsetBegin
p389
V106
p390
sVPartOfSpeech
p391
VIN
p392
sVLemma
p393
Vat
p394
saa(lp395
Vthe
p396
a(dp397
VNamedEntityTag
p398
g82
sVCharacterOffsetEnd
p399
V112
p400
sVCharacterOffsetBegin
p401
V109
p402
sVPartOfSpeech
p403
VDT
p404
sVLemma
p405
Vthe
p406
saa(lp407
Vwater
p408
a(dp409
VNamedEntityTag
p410
g82
sVCharacterOffsetEnd
p411
V118
p412
sVCharacterOffsetBegin
p413
V113
p414
sVPartOfSpeech
p415
VNN
p416
sVLemma
p417
Vwater
p418
saa(lp419
Vslides
p420
a(dp421
VNamedEntityTag
p422
g82
sVCharacterOffsetEnd
p423
V125
p424
sVCharacterOffsetBegin
p425
V119
p426
sVPartOfSpeech
p427
VNNS
p428
sVLemma
p429
Vslide
p430
saa(lp431
Vare
p432
a(dp433
VNamedEntityTag
p434
g82
sVCharacterOffsetEnd
p435
V129
p436
sVCharacterOffsetBegin
p437
V126
p438
sVPartOfSpeech
p439
VVBP
p440
sVLemma
p441
Vbe
p442
saa(lp443
Vtemporary
p444
a(dp445
VNamedEntityTag
p446
g82
sVCharacterOffsetEnd
p447
V139
p448
sVCharacterOffsetBegin
p449
V130
p450
sVPartOfSpeech
p451
VJJ
p452
sVLemma
p453
Vtemporary
p454
saa(lp455
V?
p456
a(dp457
VNamedEntityTag
p458
g82
sVCharacterOffsetEnd
p459
V141
p460
sVCharacterOffsetBegin
p461
V140
p462
sVPartOfSpeech
p463
g227
sVLemma
p464
g456
saasVindexeddependencies
p465
(lp466
(lp467
Vroot
p468
aVROOT-0
p469
aVtemporary-11
p470
aa(lp471
Vdet
p472
aVpercentage-2
p473
aVWhat-1
p474
aa(lp475
Vnsubj
p476
aVtemporary-11
p477
aVpercentage-2
p478
aa(lp479
Vdet
p480
aVemployees-5
p481
aVthe-4
p482
aa(lp483
Vprep_of
p484
aVpercentage-2
p485
aVemployees-5
p486
aa(lp487
Vdet
p488
aVslides-9
p489
aVthe-7
p490
aa(lp491
Vnn
p492
aVslides-9
p493
aVwater-8
p494
aa(lp495
Vprep_at
p496
aVemployees-5
p497
aVslides-9
p498
aa(lp499
Vcop
p500
aVtemporary-11
p501
aVare-10
p502
aasas.