(dp0
Vcoref
p1
(lp2
(lp3
(lp4
(lp5
Vsalmon filet and steak
p6
aI0
aI14
aI13
aI17
aa(lp7
Vthe two dinner specials at Marie 's favorite restaurant
p8
aI0
aI6
aI3
aI12
aaa(lp9
(lp10
Vthe salmon filet
p11
aI1
aI14
aI12
aI15
aa(lp12
Vthe two dinner specials at Marie 's favorite restaurant
p13
aI0
aI6
aI3
aI12
aaaa(lp14
(lp15
(lp16
VThe restaurant
p17
aI1
aI1
aI0
aI2
aa(lp18
VMarie 's favorite restaurant
p19
aI0
aI11
aI8
aI12
aaaa(lp20
(lp21
(lp22
Vthe specials
p23
aI2
aI4
aI3
aI5
aa(lp24
V80 specials in all , 56 of which were the salmon filet
p25
aI1
aI4
aI3
aI15
aaaasVsentences
p26
(lp27
(dp28
Vparsetree
p29
V(ROOT (S (NP-TMP (JJ Last) (NN night)) (, ,) (NP (NP (DT the) (CD two) (NN dinner) (NNS specials)) (PP (IN at) (NP (NP (NNP Marie) (POS 's)) (JJ favorite) (NN restaurant)))) (VP (VBD were) (NP (NN salmon) (NN filet) (CC and) (NN steak))) (. .)))
p30
sVtext
p31
VLast night , the two dinner specials at Marie's favorite restaurant were salmon filet and steak .
p32
sVdependencies
p33
(lp34
(lp35
Vroot
p36
aVROOT
p37
aVfilet
p38
aa(lp39
Vamod
p40
aVnight
p41
aVLast
p42
aa(lp43
Vtmod
p44
aVfilet
p45
aVnight
p46
aa(lp47
Vdet
p48
aVspecials
p49
aVthe
p50
aa(lp51
Vnum
p52
aVspecials
p53
aVtwo
p54
aa(lp55
Vnn
p56
aVspecials
p57
aVdinner
p58
aa(lp59
Vnsubj
p60
aVfilet
p61
aVspecials
p62
aa(lp63
Vposs
p64
aVrestaurant
p65
aVMarie
p66
aa(lp67
Vamod
p68
aVrestaurant
p69
aVfavorite
p70
aa(lp71
Vprep_at
p72
aVspecials
p73
aVrestaurant
p74
aa(lp75
Vcop
p76
aVfilet
p77
aVwere
p78
aa(lp79
Vnn
p80
aVfilet
p81
aVsalmon
p82
aa(lp83
Vconj_and
p84
aVfilet
p85
aVsteak
p86
aasVwords
p87
(lp88
(lp89
VLast
p90
a(dp91
VNormalizedNamedEntityTag
p92
VTNI
p93
sVTimex
p94
V<TIMEX3 alt_value="TNI OFFSET P-1D" anchorTimeID="t2" temporalFunction="true" tid="t1" type="DATE" valueFromFunction="tf0">Last night</TIMEX3>
p95
sVLemma
p96
Vlast
p97
sVCharacterOffsetEnd
p98
V5
p99
sVPartOfSpeech
p100
VJJ
p101
sVCharacterOffsetBegin
p102
V1
p103
sVNamedEntityTag
p104
VDATE
p105
saa(lp106
Vnight
p107
a(dp108
VNormalizedNamedEntityTag
p109
VTNI
p110
sVTimex
p111
V<TIMEX3 alt_value="TNI OFFSET P-1D" anchorTimeID="t2" temporalFunction="true" tid="t1" type="DATE" valueFromFunction="tf0">Last night</TIMEX3>
p112
sVLemma
p113
Vnight
p114
sVCharacterOffsetEnd
p115
V11
p116
sVPartOfSpeech
p117
VNN
p118
sVCharacterOffsetBegin
p119
V6
p120
sVNamedEntityTag
p121
VDATE
p122
saa(lp123
V,
p124
a(dp125
VNamedEntityTag
p126
VO
p127
sVCharacterOffsetEnd
p128
V13
p129
sVCharacterOffsetBegin
p130
V12
p131
sVPartOfSpeech
p132
g124
sVLemma
p133
g124
saa(lp134
Vthe
p135
a(dp136
VNamedEntityTag
p137
g127
sVCharacterOffsetEnd
p138
V17
p139
sVCharacterOffsetBegin
p140
V14
p141
sVPartOfSpeech
p142
VDT
p143
sVLemma
p144
Vthe
p145
saa(lp146
Vtwo
p147
a(dp148
VNormalizedNamedEntityTag
p149
V2.0
p150
sVLemma
p151
Vtwo
p152
sVCharacterOffsetEnd
p153
V21
p154
sVPartOfSpeech
p155
VCD
p156
sVCharacterOffsetBegin
p157
V18
p158
sVNamedEntityTag
p159
VNUMBER
p160
saa(lp161
Vdinner
p162
a(dp163
VNamedEntityTag
p164
g127
sVCharacterOffsetEnd
p165
V28
p166
sVCharacterOffsetBegin
p167
V22
p168
sVPartOfSpeech
p169
VNN
p170
sVLemma
p171
Vdinner
p172
saa(lp173
Vspecials
p174
a(dp175
VNamedEntityTag
p176
g127
sVCharacterOffsetEnd
p177
V37
p178
sVCharacterOffsetBegin
p179
V29
p180
sVPartOfSpeech
p181
VNNS
p182
sVLemma
p183
Vspecial
p184
saa(lp185
Vat
p186
a(dp187
VNamedEntityTag
p188
g127
sVCharacterOffsetEnd
p189
V40
p190
sVCharacterOffsetBegin
p191
V38
p192
sVPartOfSpeech
p193
VIN
p194
sVLemma
p195
Vat
p196
saa(lp197
VMarie
p198
a(dp199
VNamedEntityTag
p200
VPERSON
p201
sVCharacterOffsetEnd
p202
V46
p203
sVCharacterOffsetBegin
p204
V41
p205
sVPartOfSpeech
p206
VNNP
p207
sVLemma
p208
VMarie
p209
saa(lp210
V's
p211
a(dp212
VNamedEntityTag
p213
g127
sVCharacterOffsetEnd
p214
V48
p215
sVCharacterOffsetBegin
p216
V46
p217
sVPartOfSpeech
p218
VPOS
p219
sVLemma
p220
V's
p221
saa(lp222
Vfavorite
p223
a(dp224
VNamedEntityTag
p225
g127
sVCharacterOffsetEnd
p226
V57
p227
sVCharacterOffsetBegin
p228
V49
p229
sVPartOfSpeech
p230
VJJ
p231
sVLemma
p232
Vfavorite
p233
saa(lp234
Vrestaurant
p235
a(dp236
VNamedEntityTag
p237
g127
sVCharacterOffsetEnd
p238
V68
p239
sVCharacterOffsetBegin
p240
V58
p241
sVPartOfSpeech
p242
VNN
p243
sVLemma
p244
Vrestaurant
p245
saa(lp246
Vwere
p247
a(dp248
VNamedEntityTag
p249
g127
sVCharacterOffsetEnd
p250
V73
p251
sVCharacterOffsetBegin
p252
V69
p253
sVPartOfSpeech
p254
VVBD
p255
sVLemma
p256
Vbe
p257
saa(lp258
Vsalmon
p259
a(dp260
VNamedEntityTag
p261
g127
sVCharacterOffsetEnd
p262
V80
p263
sVCharacterOffsetBegin
p264
V74
p265
sVPartOfSpeech
p266
VNN
p267
sVLemma
p268
Vsalmon
p269
saa(lp270
Vfilet
p271
a(dp272
VNamedEntityTag
p273
g127
sVCharacterOffsetEnd
p274
V86
p275
sVCharacterOffsetBegin
p276
V81
p277
sVPartOfSpeech
p278
VNN
p279
sVLemma
p280
Vfilet
p281
saa(lp282
Vand
p283
a(dp284
VNamedEntityTag
p285
g127
sVCharacterOffsetEnd
p286
V90
p287
sVCharacterOffsetBegin
p288
V87
p289
sVPartOfSpeech
p290
VCC
p291
sVLemma
p292
Vand
p293
saa(lp294
Vsteak
p295
a(dp296
VNamedEntityTag
p297
g127
sVCharacterOffsetEnd
p298
V96
p299
sVCharacterOffsetBegin
p300
V91
p301
sVPartOfSpeech
p302
VNN
p303
sVLemma
p304
Vsteak
p305
saa(lp306
V.
p307
a(dp308
VNamedEntityTag
p309
g127
sVCharacterOffsetEnd
p310
V98
p311
sVCharacterOffsetBegin
p312
V97
p313
sVPartOfSpeech
p314
g307
sVLemma
p315
g307
saasVindexeddependencies
p316
(lp317
(lp318
Vroot
p319
aVROOT-0
p320
aVfilet-15
p321
aa(lp322
Vamod
p323
aVnight-2
p324
aVLast-1
p325
aa(lp326
Vtmod
p327
aVfilet-15
p328
aVnight-2
p329
aa(lp330
Vdet
p331
aVspecials-7
p332
aVthe-4
p333
aa(lp334
Vnum
p335
aVspecials-7
p336
aVtwo-5
p337
aa(lp338
Vnn
p339
aVspecials-7
p340
aVdinner-6
p341
aa(lp342
Vnsubj
p343
aVfilet-15
p344
aVspecials-7
p345
aa(lp346
Vposs
p347
aVrestaurant-12
p348
aVMarie-9
p349
aa(lp350
Vamod
p351
aVrestaurant-12
p352
aVfavorite-11
p353
aa(lp354
Vprep_at
p355
aVspecials-7
p356
aVrestaurant-12
p357
aa(lp358
Vcop
p359
aVfilet-15
p360
aVwere-13
p361
aa(lp362
Vnn
p363
aVfilet-15
p364
aVsalmon-14
p365
aa(lp366
Vconj_and
p367
aVfilet-15
p368
aVsteak-17
p369
aasa(dp370
Vparsetree
p371
V(ROOT (S (NP (DT The) (NN restaurant)) (VP (VBD served) (NP (NP (CD 80) (NNS specials)) (PP (IN in) (NP (NP (DT all)) (, ,) (SBAR (WHNP (NP (CD 56)) (WHPP (IN of) (WHNP (WDT which)))) (S (VP (VBD were) (NP (DT the) (NN salmon) (NN filet))))))))) (. .)))
p372
sVtext
p373
VThe restaurant served 80 specials in all , 56 of which were the salmon filet .
p374
sVdependencies
p375
(lp376
(lp377
Vroot
p378
aVROOT
p379
aVserved
p380
aa(lp381
Vdet
p382
aVrestaurant
p383
aVThe
p384
aa(lp385
Vnsubj
p386
aVserved
p387
aVrestaurant
p388
aa(lp389
Vnum
p390
aVspecials
p391
aV80
p392
aa(lp393
Vdobj
p394
aVserved
p395
aVspecials
p396
aa(lp397
Vprep_in
p398
aVspecials
p399
aVall
p400
aa(lp401
Vnsubj
p402
aVfilet
p403
aV56
p404
aa(lp405
Vprep_of
p406
aV56
p407
aVwhich
p408
aa(lp409
Vcop
p410
aVfilet
p411
aVwere
p412
aa(lp413
Vdet
p414
aVfilet
p415
aVthe
p416
aa(lp417
Vnn
p418
aVfilet
p419
aVsalmon
p420
aa(lp421
Vrcmod
p422
aVall
p423
aVfilet
p424
aasVwords
p425
(lp426
(lp427
VThe
p428
a(dp429
VNamedEntityTag
p430
g127
sVCharacterOffsetEnd
p431
V102
p432
sVCharacterOffsetBegin
p433
V99
p434
sVPartOfSpeech
p435
VDT
p436
sVLemma
p437
Vthe
p438
saa(lp439
Vrestaurant
p440
a(dp441
VNamedEntityTag
p442
g127
sVCharacterOffsetEnd
p443
V113
p444
sVCharacterOffsetBegin
p445
V103
p446
sVPartOfSpeech
p447
VNN
p448
sVLemma
p449
Vrestaurant
p450
saa(lp451
Vserved
p452
a(dp453
VNamedEntityTag
p454
g127
sVCharacterOffsetEnd
p455
V120
p456
sVCharacterOffsetBegin
p457
V114
p458
sVPartOfSpeech
p459
VVBD
p460
sVLemma
p461
Vserve
p462
saa(lp463
V80
p464
a(dp465
VNormalizedNamedEntityTag
p466
V80.0
p467
sVLemma
p468
V80
p469
sVCharacterOffsetEnd
p470
V123
p471
sVPartOfSpeech
p472
VCD
p473
sVCharacterOffsetBegin
p474
V121
p475
sVNamedEntityTag
p476
VNUMBER
p477
saa(lp478
Vspecials
p479
a(dp480
VNamedEntityTag
p481
g127
sVCharacterOffsetEnd
p482
V132
p483
sVCharacterOffsetBegin
p484
V124
p485
sVPartOfSpeech
p486
VNNS
p487
sVLemma
p488
Vspecial
p489
saa(lp490
Vin
p491
a(dp492
VNamedEntityTag
p493
g127
sVCharacterOffsetEnd
p494
V135
p495
sVCharacterOffsetBegin
p496
V133
p497
sVPartOfSpeech
p498
VIN
p499
sVLemma
p500
Vin
p501
saa(lp502
Vall
p503
a(dp504
VNamedEntityTag
p505
g127
sVCharacterOffsetEnd
p506
V139
p507
sVCharacterOffsetBegin
p508
V136
p509
sVPartOfSpeech
p510
VDT
p511
sVLemma
p512
Vall
p513
saa(lp514
g124
a(dp515
VNamedEntityTag
p516
g127
sVCharacterOffsetEnd
p517
V141
p518
sVCharacterOffsetBegin
p519
V140
p520
sVPartOfSpeech
p521
g124
sVLemma
p522
g124
saa(lp523
V56
p524
a(dp525
VNormalizedNamedEntityTag
p526
V56.0
p527
sVLemma
p528
V56
p529
sVCharacterOffsetEnd
p530
V144
p531
sVPartOfSpeech
p532
VCD
p533
sVCharacterOffsetBegin
p534
V142
p535
sVNamedEntityTag
p536
VNUMBER
p537
saa(lp538
Vof
p539
a(dp540
VNamedEntityTag
p541
g127
sVCharacterOffsetEnd
p542
V147
p543
sVCharacterOffsetBegin
p544
V145
p545
sVPartOfSpeech
p546
VIN
p547
sVLemma
p548
Vof
p549
saa(lp550
Vwhich
p551
a(dp552
VNamedEntityTag
p553
g127
sVCharacterOffsetEnd
p554
V153
p555
sVCharacterOffsetBegin
p556
V148
p557
sVPartOfSpeech
p558
VWDT
p559
sVLemma
p560
Vwhich
p561
saa(lp562
Vwere
p563
a(dp564
VNamedEntityTag
p565
g127
sVCharacterOffsetEnd
p566
V158
p567
sVCharacterOffsetBegin
p568
V154
p569
sVPartOfSpeech
p570
VVBD
p571
sVLemma
p572
Vbe
p573
saa(lp574
Vthe
p575
a(dp576
VNamedEntityTag
p577
g127
sVCharacterOffsetEnd
p578
V162
p579
sVCharacterOffsetBegin
p580
V159
p581
sVPartOfSpeech
p582
VDT
p583
sVLemma
p584
Vthe
p585
saa(lp586
Vsalmon
p587
a(dp588
VNamedEntityTag
p589
g127
sVCharacterOffsetEnd
p590
V169
p591
sVCharacterOffsetBegin
p592
V163
p593
sVPartOfSpeech
p594
VNN
p595
sVLemma
p596
Vsalmon
p597
saa(lp598
Vfilet
p599
a(dp600
VNamedEntityTag
p601
g127
sVCharacterOffsetEnd
p602
V175
p603
sVCharacterOffsetBegin
p604
V170
p605
sVPartOfSpeech
p606
VNN
p607
sVLemma
p608
Vfilet
p609
saa(lp610
g307
a(dp611
VNamedEntityTag
p612
g127
sVCharacterOffsetEnd
p613
V177
p614
sVCharacterOffsetBegin
p615
V176
p616
sVPartOfSpeech
p617
g307
sVLemma
p618
g307
saasVindexeddependencies
p619
(lp620
(lp621
Vroot
p622
aVROOT-0
p623
aVserved-3
p624
aa(lp625
Vdet
p626
aVrestaurant-2
p627
aVThe-1
p628
aa(lp629
Vnsubj
p630
aVserved-3
p631
aVrestaurant-2
p632
aa(lp633
Vnum
p634
aVspecials-5
p635
aV80-4
p636
aa(lp637
Vdobj
p638
aVserved-3
p639
aVspecials-5
p640
aa(lp641
Vprep_in
p642
aVspecials-5
p643
aVall-7
p644
aa(lp645
Vnsubj
p646
aVfilet-15
p647
aV56-9
p648
aa(lp649
Vprep_of
p650
aV56-9
p651
aVwhich-11
p652
aa(lp653
Vcop
p654
aVfilet-15
p655
aVwere-12
p656
aa(lp657
Vdet
p658
aVfilet-15
p659
aVthe-13
p660
aa(lp661
Vnn
p662
aVfilet-15
p663
aVsalmon-14
p664
aa(lp665
Vrcmod
p666
aVall-7
p667
aVfilet-15
p668
aasa(dp669
Vparsetree
p670
V(ROOT (SBARQ (WHNP (WHNP (WDT What) (NN percentage)) (PP (IN of) (NP (DT the) (NNS specials)))) (SQ (VBD were) (NP (NN salmon) (NNS filets))) (. ?)))
p671
sVtext
p672
VWhat percentage of the specials were salmon filets ?
p673
sVdependencies
p674
(lp675
(lp676
Vroot
p677
aVROOT
p678
aVwere
p679
aa(lp680
Vdet
p681
aVpercentage
p682
aVWhat
p683
aa(lp684
Vdep
p685
aVwere
p686
aVpercentage
p687
aa(lp688
Vdet
p689
aVspecials
p690
aVthe
p691
aa(lp692
Vprep_of
p693
aVpercentage
p694
aVspecials
p695
aa(lp696
Vnn
p697
aVfilets
p698
aVsalmon
p699
aa(lp700
Vnsubj
p701
aVwere
p702
aVfilets
p703
aasVwords
p704
(lp705
(lp706
VWhat
p707
a(dp708
VNamedEntityTag
p709
g127
sVCharacterOffsetEnd
p710
V182
p711
sVCharacterOffsetBegin
p712
V178
p713
sVPartOfSpeech
p714
VWDT
p715
sVLemma
p716
Vwhat
p717
saa(lp718
Vpercentage
p719
a(dp720
VNamedEntityTag
p721
g127
sVCharacterOffsetEnd
p722
V193
p723
sVCharacterOffsetBegin
p724
V183
p725
sVPartOfSpeech
p726
VNN
p727
sVLemma
p728
Vpercentage
p729
saa(lp730
Vof
p731
a(dp732
VNamedEntityTag
p733
g127
sVCharacterOffsetEnd
p734
V196
p735
sVCharacterOffsetBegin
p736
V194
p737
sVPartOfSpeech
p738
VIN
p739
sVLemma
p740
Vof
p741
saa(lp742
Vthe
p743
a(dp744
VNamedEntityTag
p745
g127
sVCharacterOffsetEnd
p746
V200
p747
sVCharacterOffsetBegin
p748
V197
p749
sVPartOfSpeech
p750
VDT
p751
sVLemma
p752
Vthe
p753
saa(lp754
Vspecials
p755
a(dp756
VNamedEntityTag
p757
g127
sVCharacterOffsetEnd
p758
V209
p759
sVCharacterOffsetBegin
p760
V201
p761
sVPartOfSpeech
p762
VNNS
p763
sVLemma
p764
Vspecial
p765
saa(lp766
Vwere
p767
a(dp768
VNamedEntityTag
p769
g127
sVCharacterOffsetEnd
p770
V214
p771
sVCharacterOffsetBegin
p772
V210
p773
sVPartOfSpeech
p774
VVBD
p775
sVLemma
p776
Vbe
p777
saa(lp778
Vsalmon
p779
a(dp780
VNamedEntityTag
p781
g127
sVCharacterOffsetEnd
p782
V221
p783
sVCharacterOffsetBegin
p784
V215
p785
sVPartOfSpeech
p786
VNN
p787
sVLemma
p788
Vsalmon
p789
saa(lp790
Vfilets
p791
a(dp792
VNamedEntityTag
p793
g127
sVCharacterOffsetEnd
p794
V228
p795
sVCharacterOffsetBegin
p796
V222
p797
sVPartOfSpeech
p798
VNNS
p799
sVLemma
p800
Vfilet
p801
saa(lp802
V?
p803
a(dp804
VNamedEntityTag
p805
g127
sVCharacterOffsetEnd
p806
V230
p807
sVCharacterOffsetBegin
p808
V229
p809
sVPartOfSpeech
p810
g307
sVLemma
p811
g803
saasVindexeddependencies
p812
(lp813
(lp814
Vroot
p815
aVROOT-0
p816
aVwere-6
p817
aa(lp818
Vdet
p819
aVpercentage-2
p820
aVWhat-1
p821
aa(lp822
Vdep
p823
aVwere-6
p824
aVpercentage-2
p825
aa(lp826
Vdet
p827
aVspecials-5
p828
aVthe-4
p829
aa(lp830
Vprep_of
p831
aVpercentage-2
p832
aVspecials-5
p833
aa(lp834
Vnn
p835
aVfilets-8
p836
aVsalmon-7
p837
aa(lp838
Vnsubj
p839
aVwere-6
p840
aVfilets-8
p841
aasas.