(dp0
Vcoref
p1
(lp2
(lp3
(lp4
(lp5
Vthe beads on clearance
p6
aI1
aI4
aI3
aI7
aa(lp7
V69 plastic beads and 23 metal beads on clearance
p8
aI0
aI10
aI8
aI17
aaaasVsentences
p9
(lp10
(dp11
Vparsetree
p12
V(ROOT (S (PP (IN At) (NP (NP (NNP Karlene) (POS 's)) (NNP Beading) (NNP Boutique))) (, ,) (NP (EX there)) (VP (VBP are) (NP (NP (CD 69) (JJ plastic) (NNS beads)) (CC and) (NP (NP (CD 23) (NN metal) (NNS beads)) (PP (IN on) (NP (NN clearance)))))) (. .)))
p13
sVtext
p14
VAt Karlene's Beading Boutique , there are 69 plastic beads and 23 metal beads on clearance .
p15
sVdependencies
p16
(lp17
(lp18
Vroot
p19
aVROOT
p20
aVare
p21
aa(lp22
Vposs
p23
aVBoutique
p24
aVKarlene
p25
aa(lp26
Vnn
p27
aVBoutique
p28
aVBeading
p29
aa(lp30
Vprep_at
p31
aVare
p32
aVBoutique
p33
aa(lp34
Vexpl
p35
aVare
p36
aVthere
p37
aa(lp38
Vnum
p39
aVbeads
p40
aV69
p41
aa(lp42
Vamod
p43
aVbeads
p44
aVplastic
p45
aa(lp46
Vnsubj
p47
aVare
p48
aVbeads
p49
aa(lp50
Vnum
p51
aVbeads
p52
aV23
p53
aa(lp54
Vnn
p55
aVbeads
p56
aVmetal
p57
aa(lp58
Vconj_and
p59
aVbeads
p60
aVbeads
p61
aa(lp62
Vprep_on
p63
aVbeads
p64
aVclearance
p65
aasVwords
p66
(lp67
(lp68
VAt
p69
a(dp70
VNamedEntityTag
p71
VO
p72
sVCharacterOffsetEnd
p73
V3
p74
sVCharacterOffsetBegin
p75
V1
p76
sVPartOfSpeech
p77
VIN
p78
sVLemma
p79
Vat
p80
saa(lp81
VKarlene
p82
a(dp83
VNamedEntityTag
p84
VPERSON
p85
sVCharacterOffsetEnd
p86
V11
p87
sVCharacterOffsetBegin
p88
V4
p89
sVPartOfSpeech
p90
VNNP
p91
sVLemma
p92
VKarlene
p93
saa(lp94
V's
p95
a(dp96
VNamedEntityTag
p97
g72
sVCharacterOffsetEnd
p98
V13
p99
sVCharacterOffsetBegin
p100
V11
p101
sVPartOfSpeech
p102
VPOS
p103
sVLemma
p104
V's
p105
saa(lp106
VBeading
p107
a(dp108
VNamedEntityTag
p109
g72
sVCharacterOffsetEnd
p110
V21
p111
sVCharacterOffsetBegin
p112
V14
p113
sVPartOfSpeech
p114
VNNP
p115
sVLemma
p116
VBeading
p117
saa(lp118
VBoutique
p119
a(dp120
VNamedEntityTag
p121
g72
sVCharacterOffsetEnd
p122
V30
p123
sVCharacterOffsetBegin
p124
V22
p125
sVPartOfSpeech
p126
VNNP
p127
sVLemma
p128
VBoutique
p129
saa(lp130
V,
p131
a(dp132
VNamedEntityTag
p133
g72
sVCharacterOffsetEnd
p134
V32
p135
sVCharacterOffsetBegin
p136
V31
p137
sVPartOfSpeech
p138
g131
sVLemma
p139
g131
saa(lp140
Vthere
p141
a(dp142
VNamedEntityTag
p143
g72
sVCharacterOffsetEnd
p144
V38
p145
sVCharacterOffsetBegin
p146
V33
p147
sVPartOfSpeech
p148
VEX
p149
sVLemma
p150
Vthere
p151
saa(lp152
Vare
p153
a(dp154
VNamedEntityTag
p155
g72
sVCharacterOffsetEnd
p156
V42
p157
sVCharacterOffsetBegin
p158
V39
p159
sVPartOfSpeech
p160
VVBP
p161
sVLemma
p162
Vbe
p163
saa(lp164
V69
p165
a(dp166
VNormalizedNamedEntityTag
p167
V69.0
p168
sVLemma
p169
V69
p170
sVCharacterOffsetEnd
p171
V45
p172
sVPartOfSpeech
p173
VCD
p174
sVCharacterOffsetBegin
p175
V43
p176
sVNamedEntityTag
p177
VNUMBER
p178
saa(lp179
Vplastic
p180
a(dp181
VNamedEntityTag
p182
g72
sVCharacterOffsetEnd
p183
V53
p184
sVCharacterOffsetBegin
p185
V46
p186
sVPartOfSpeech
p187
VJJ
p188
sVLemma
p189
Vplastic
p190
saa(lp191
Vbeads
p192
a(dp193
VNamedEntityTag
p194
g72
sVCharacterOffsetEnd
p195
V59
p196
sVCharacterOffsetBegin
p197
V54
p198
sVPartOfSpeech
p199
VNNS
p200
sVLemma
p201
Vbead
p202
saa(lp203
Vand
p204
a(dp205
VNamedEntityTag
p206
g72
sVCharacterOffsetEnd
p207
V63
p208
sVCharacterOffsetBegin
p209
V60
p210
sVPartOfSpeech
p211
VCC
p212
sVLemma
p213
Vand
p214
saa(lp215
V23
p216
a(dp217
VNormalizedNamedEntityTag
p218
V23.0
p219
sVLemma
p220
V23
p221
sVCharacterOffsetEnd
p222
V66
p223
sVPartOfSpeech
p224
VCD
p225
sVCharacterOffsetBegin
p226
V64
p227
sVNamedEntityTag
p228
VNUMBER
p229
saa(lp230
Vmetal
p231
a(dp232
VNamedEntityTag
p233
g72
sVCharacterOffsetEnd
p234
V72
p235
sVCharacterOffsetBegin
p236
V67
p237
sVPartOfSpeech
p238
VNN
p239
sVLemma
p240
Vmetal
p241
saa(lp242
Vbeads
p243
a(dp244
VNamedEntityTag
p245
g72
sVCharacterOffsetEnd
p246
V78
p247
sVCharacterOffsetBegin
p248
V73
p249
sVPartOfSpeech
p250
VNNS
p251
sVLemma
p252
Vbead
p253
saa(lp254
Von
p255
a(dp256
VNamedEntityTag
p257
g72
sVCharacterOffsetEnd
p258
V81
p259
sVCharacterOffsetBegin
p260
V79
p261
sVPartOfSpeech
p262
VIN
p263
sVLemma
p264
Von
p265
saa(lp266
Vclearance
p267
a(dp268
VNamedEntityTag
p269
g72
sVCharacterOffsetEnd
p270
V91
p271
sVCharacterOffsetBegin
p272
V82
p273
sVPartOfSpeech
p274
VNN
p275
sVLemma
p276
Vclearance
p277
saa(lp278
V.
p279
a(dp280
VNamedEntityTag
p281
g72
sVCharacterOffsetEnd
p282
V93
p283
sVCharacterOffsetBegin
p284
V92
p285
sVPartOfSpeech
p286
g279
sVLemma
p287
g279
saasVindexeddependencies
p288
(lp289
(lp290
Vroot
p291
aVROOT-0
p292
aVare-8
p293
aa(lp294
Vposs
p295
aVBoutique-5
p296
aVKarlene-2
p297
aa(lp298
Vnn
p299
aVBoutique-5
p300
aVBeading-4
p301
aa(lp302
Vprep_at
p303
aVare-8
p304
aVBoutique-5
p305
aa(lp306
Vexpl
p307
aVare-8
p308
aVthere-7
p309
aa(lp310
Vnum
p311
aVbeads-11
p312
aV69-9
p313
aa(lp314
Vamod
p315
aVbeads-11
p316
aVplastic-10
p317
aa(lp318
Vnsubj
p319
aVare-8
p320
aVbeads-11
p321
aa(lp322
Vnum
p323
aVbeads-15
p324
aV23-13
p325
aa(lp326
Vnn
p327
aVbeads-15
p328
aVmetal-14
p329
aa(lp330
Vconj_and
p331
aVbeads-11
p332
aVbeads-15
p333
aa(lp334
Vprep_on
p335
aVbeads-15
p336
aVclearance-17
p337
aasa(dp338
Vparsetree
p339
V(ROOT (SBARQ (WHNP (WHNP (WDT What) (NN percentage)) (PP (IN of) (NP (NP (DT the) (NNS beads)) (PP (IN on) (NP (NN clearance)))))) (SQ (VBP are) (NP (NN plastic))) (. ?)))
p340
sVtext
p341
VWhat percentage of the beads on clearance are plastic ?
p342
sVdependencies
p343
(lp344
(lp345
Vroot
p346
aVROOT
p347
aVare
p348
aa(lp349
Vdet
p350
aVpercentage
p351
aVWhat
p352
aa(lp353
Vdep
p354
aVare
p355
aVpercentage
p356
aa(lp357
Vdet
p358
aVbeads
p359
aVthe
p360
aa(lp361
Vprep_of
p362
aVpercentage
p363
aVbeads
p364
aa(lp365
Vprep_on
p366
aVbeads
p367
aVclearance
p368
aa(lp369
Vnsubj
p370
aVare
p371
aVplastic
p372
aasVwords
p373
(lp374
(lp375
VWhat
p376
a(dp377
VNamedEntityTag
p378
g72
sVCharacterOffsetEnd
p379
V98
p380
sVCharacterOffsetBegin
p381
V94
p382
sVPartOfSpeech
p383
VWDT
p384
sVLemma
p385
Vwhat
p386
saa(lp387
Vpercentage
p388
a(dp389
VNamedEntityTag
p390
g72
sVCharacterOffsetEnd
p391
V109
p392
sVCharacterOffsetBegin
p393
V99
p394
sVPartOfSpeech
p395
VNN
p396
sVLemma
p397
Vpercentage
p398
saa(lp399
Vof
p400
a(dp401
VNamedEntityTag
p402
g72
sVCharacterOffsetEnd
p403
V112
p404
sVCharacterOffsetBegin
p405
V110
p406
sVPartOfSpeech
p407
VIN
p408
sVLemma
p409
Vof
p410
saa(lp411
Vthe
p412
a(dp413
VNamedEntityTag
p414
g72
sVCharacterOffsetEnd
p415
V116
p416
sVCharacterOffsetBegin
p417
V113
p418
sVPartOfSpeech
p419
VDT
p420
sVLemma
p421
Vthe
p422
saa(lp423
Vbeads
p424
a(dp425
VNamedEntityTag
p426
g72
sVCharacterOffsetEnd
p427
V122
p428
sVCharacterOffsetBegin
p429
V117
p430
sVPartOfSpeech
p431
VNNS
p432
sVLemma
p433
Vbead
p434
saa(lp435
Von
p436
a(dp437
VNamedEntityTag
p438
g72
sVCharacterOffsetEnd
p439
V125
p440
sVCharacterOffsetBegin
p441
V123
p442
sVPartOfSpeech
p443
VIN
p444
sVLemma
p445
Von
p446
saa(lp447
Vclearance
p448
a(dp449
VNamedEntityTag
p450
g72
sVCharacterOffsetEnd
p451
V135
p452
sVCharacterOffsetBegin
p453
V126
p454
sVPartOfSpeech
p455
VNN
p456
sVLemma
p457
Vclearance
p458
saa(lp459
Vare
p460
a(dp461
VNamedEntityTag
p462
g72
sVCharacterOffsetEnd
p463
V139
p464
sVCharacterOffsetBegin
p465
V136
p466
sVPartOfSpeech
p467
VVBP
p468
sVLemma
p469
Vbe
p470
saa(lp471
Vplastic
p472
a(dp473
VNamedEntityTag
p474
g72
sVCharacterOffsetEnd
p475
V147
p476
sVCharacterOffsetBegin
p477
V140
p478
sVPartOfSpeech
p479
VNN
p480
sVLemma
p481
Vplastic
p482
saa(lp483
V?
p484
a(dp485
VNamedEntityTag
p486
g72
sVCharacterOffsetEnd
p487
V149
p488
sVCharacterOffsetBegin
p489
V148
p490
sVPartOfSpeech
p491
g279
sVLemma
p492
g484
saasVindexeddependencies
p493
(lp494
(lp495
Vroot
p496
aVROOT-0
p497
aVare-8
p498
aa(lp499
Vdet
p500
aVpercentage-2
p501
aVWhat-1
p502
aa(lp503
Vdep
p504
aVare-8
p505
aVpercentage-2
p506
aa(lp507
Vdet
p508
aVbeads-5
p509
aVthe-4
p510
aa(lp511
Vprep_of
p512
aVpercentage-2
p513
aVbeads-5
p514
aa(lp515
Vprep_on
p516
aVbeads-5
p517
aVclearance-7
p518
aa(lp519
Vnsubj
p520
aVare-8
p521
aVplastic-9
p522
aasas.