(dp0
Vcoref
p1
(lp2
(lp3
(lp4
(lp5
Vher
p6
aI0
aI5
aI5
aI6
aa(lp7
VRobin
p8
aI0
aI0
aI0
aI1
aaa(lp9
(lp10
Vshe
p11
aI1
aI1
aI1
aI2
aa(lp12
VRobin
p13
aI0
aI0
aI0
aI1
aaa(lp14
(lp15
Vshe
p16
aI1
aI19
aI19
aI20
aa(lp17
VRobin
p18
aI0
aI0
aI0
aI1
aaa(lp19
(lp20
Vher
p21
aI1
aI22
aI22
aI23
aa(lp22
VRobin
p23
aI0
aI0
aI0
aI1
aaaa(lp24
(lp25
(lp26
Vher mp3 player
p27
aI1
aI24
aI22
aI25
aa(lp28
Vher mp3 player
p29
aI0
aI7
aI5
aI8
aaaa(lp30
(lp31
(lp32
Vit
p33
aI1
aI7
aI7
aI8
aa(lp34
V8
p35
aI1
aI3
aI3
aI4
aaaasVsentences
p36
(lp37
(dp38
Vparsetree
p39
V(ROOT (S (NP (NNP Robin)) (VP (VBD had) (NP (NP (CD 30) (NNS songs)) (PP (IN on) (NP (PRP$ her) (NN mp3) (NN player))))) (. .)))
p40
sVtext
p41
VRobin had 30 songs on her mp3 player .
p42
sVdependencies
p43
(lp44
(lp45
Vroot
p46
aVROOT
p47
aVhad
p48
aa(lp49
Vnsubj
p50
aVhad
p51
aVRobin
p52
aa(lp53
Vnum
p54
aVsongs
p55
aV30
p56
aa(lp57
Vdobj
p58
aVhad
p59
aVsongs
p60
aa(lp61
Vposs
p62
aVplayer
p63
aVher
p64
aa(lp65
Vnn
p66
aVplayer
p67
aVmp3
p68
aa(lp69
Vprep_on
p70
aVsongs
p71
aVplayer
p72
aasVwords
p73
(lp74
(lp75
VRobin
p76
a(dp77
VNamedEntityTag
p78
VPERSON
p79
sVCharacterOffsetEnd
p80
V6
p81
sVCharacterOffsetBegin
p82
V1
p83
sVPartOfSpeech
p84
VNNP
p85
sVLemma
p86
VRobin
p87
saa(lp88
Vhad
p89
a(dp90
VNamedEntityTag
p91
VO
p92
sVCharacterOffsetEnd
p93
V10
p94
sVCharacterOffsetBegin
p95
V7
p96
sVPartOfSpeech
p97
VVBD
p98
sVLemma
p99
Vhave
p100
saa(lp101
V30
p102
a(dp103
VNormalizedNamedEntityTag
p104
V30.0
p105
sVLemma
p106
V30
p107
sVCharacterOffsetEnd
p108
V13
p109
sVPartOfSpeech
p110
VCD
p111
sVCharacterOffsetBegin
p112
V11
p113
sVNamedEntityTag
p114
VNUMBER
p115
saa(lp116
Vsongs
p117
a(dp118
VNamedEntityTag
p119
g92
sVCharacterOffsetEnd
p120
V19
p121
sVCharacterOffsetBegin
p122
V14
p123
sVPartOfSpeech
p124
VNNS
p125
sVLemma
p126
Vsong
p127
saa(lp128
Von
p129
a(dp130
VNamedEntityTag
p131
g92
sVCharacterOffsetEnd
p132
V22
p133
sVCharacterOffsetBegin
p134
V20
p135
sVPartOfSpeech
p136
VIN
p137
sVLemma
p138
Von
p139
saa(lp140
Vher
p141
a(dp142
VNamedEntityTag
p143
g92
sVCharacterOffsetEnd
p144
V26
p145
sVCharacterOffsetBegin
p146
V23
p147
sVPartOfSpeech
p148
VPRP$
p149
sVLemma
p150
Vshe
p151
saa(lp152
Vmp3
p153
a(dp154
VNamedEntityTag
p155
g92
sVCharacterOffsetEnd
p156
V30
p157
sVCharacterOffsetBegin
p158
V27
p159
sVPartOfSpeech
p160
VNN
p161
sVLemma
p162
Vmp3
p163
saa(lp164
Vplayer
p165
a(dp166
VNamedEntityTag
p167
g92
sVCharacterOffsetEnd
p168
V37
p169
sVCharacterOffsetBegin
p170
V31
p171
sVPartOfSpeech
p172
VNN
p173
sVLemma
p174
Vplayer
p175
saa(lp176
V.
p177
a(dp178
VNamedEntityTag
p179
g92
sVCharacterOffsetEnd
p180
V39
p181
sVCharacterOffsetBegin
p182
V38
p183
sVPartOfSpeech
p184
g177
sVLemma
p185
g177
saasVindexeddependencies
p186
(lp187
(lp188
Vroot
p189
aVROOT-0
p190
aVhad-2
p191
aa(lp192
Vnsubj
p193
aVhad-2
p194
aVRobin-1
p195
aa(lp196
Vnum
p197
aVsongs-4
p198
aV30-3
p199
aa(lp200
Vdobj
p201
aVhad-2
p202
aVsongs-4
p203
aa(lp204
Vposs
p205
aVplayer-8
p206
aVher-6
p207
aa(lp208
Vnn
p209
aVplayer-8
p210
aVmp3-7
p211
aa(lp212
Vprep_on
p213
aVsongs-4
p214
aVplayer-8
p215
aasa(dp216
Vparsetree
p217
V(ROOT (SBARQ (SBAR (IN If) (S (NP (PRP she)) (VP (VP (VBD deleted) (NP (CD 8) (JJ old) (NNS songs)) (PP (IN from) (NP (PRP it)))) (CC and) (VP (ADVP (RB then)) (VBD added) (NP (CD 10) (JJ new) (NNS songs)))))) (, ,) (WHNP (WHADJP (WRB how) (JJ many)) (NNS songs)) (SQ (VBZ does) (NP (PRP she)) (VP (VB have) (PP (IN on) (NP (PRP$ her) (NN mp3) (NN player))))) (. ?)))
p218
sVtext
p219
VIf she deleted 8 old songs from it and then added 10 new songs , how many songs does she have on her mp3 player ?
p220
sVdependencies
p221
(lp222
(lp223
Vroot
p224
aVROOT
p225
aVhave
p226
aa(lp227
Vmark
p228
aVdeleted
p229
aVIf
p230
aa(lp231
Vnsubj
p232
aVdeleted
p233
aVshe
p234
aa(lp235
Vadvcl
p236
aVhave
p237
aVdeleted
p238
aa(lp239
Vnum
p240
aVsongs
p241
ag35
aa(lp242
Vamod
p243
aVsongs
p244
aVold
p245
aa(lp246
Vdobj
p247
aVdeleted
p248
aVsongs
p249
aa(lp250
Vprep_from
p251
aVdeleted
p252
aVit
p253
aa(lp254
Vadvmod
p255
aVadded
p256
aVthen
p257
aa(lp258
Vconj_and
p259
aVdeleted
p260
aVadded
p261
aa(lp262
Vnum
p263
aVsongs
p264
aV10
p265
aa(lp266
Vamod
p267
aVsongs
p268
aVnew
p269
aa(lp270
Vdobj
p271
aVadded
p272
aVsongs
p273
aa(lp274
Vadvmod
p275
aVmany
p276
aVhow
p277
aa(lp278
Vamod
p279
aVsongs
p280
aVmany
p281
aa(lp282
Vdobj
p283
aVhave
p284
aVsongs
p285
aa(lp286
Vaux
p287
aVhave
p288
aVdoes
p289
aa(lp290
Vnsubj
p291
aVhave
p292
aVshe
p293
aa(lp294
Vposs
p295
aVplayer
p296
aVher
p297
aa(lp298
Vnn
p299
aVplayer
p300
aVmp3
p301
aa(lp302
Vprep_on
p303
aVhave
p304
aVplayer
p305
aasVwords
p306
(lp307
(lp308
VIf
p309
a(dp310
VNamedEntityTag
p311
g92
sVCharacterOffsetEnd
p312
V42
p313
sVCharacterOffsetBegin
p314
V40
p315
sVPartOfSpeech
p316
VIN
p317
sVLemma
p318
Vif
p319
saa(lp320
Vshe
p321
a(dp322
VNamedEntityTag
p323
g92
sVCharacterOffsetEnd
p324
V46
p325
sVCharacterOffsetBegin
p326
V43
p327
sVPartOfSpeech
p328
VPRP
p329
sVLemma
p330
Vshe
p331
saa(lp332
Vdeleted
p333
a(dp334
VNamedEntityTag
p335
g92
sVCharacterOffsetEnd
p336
V54
p337
sVCharacterOffsetBegin
p338
V47
p339
sVPartOfSpeech
p340
VVBD
p341
sVLemma
p342
Vdelete
p343
saa(lp344
g35
a(dp345
VNormalizedNamedEntityTag
p346
V8.0
p347
sVLemma
p348
g35
sVCharacterOffsetEnd
p349
V56
p350
sVPartOfSpeech
p351
VCD
p352
sVCharacterOffsetBegin
p353
V55
p354
sVNamedEntityTag
p355
VNUMBER
p356
saa(lp357
Vold
p358
a(dp359
VNamedEntityTag
p360
g92
sVCharacterOffsetEnd
p361
V60
p362
sVCharacterOffsetBegin
p363
V57
p364
sVPartOfSpeech
p365
VJJ
p366
sVLemma
p367
Vold
p368
saa(lp369
Vsongs
p370
a(dp371
VNamedEntityTag
p372
g92
sVCharacterOffsetEnd
p373
V66
p374
sVCharacterOffsetBegin
p375
V61
p376
sVPartOfSpeech
p377
VNNS
p378
sVLemma
p379
Vsong
p380
saa(lp381
Vfrom
p382
a(dp383
VNamedEntityTag
p384
g92
sVCharacterOffsetEnd
p385
V71
p386
sVCharacterOffsetBegin
p387
V67
p388
sVPartOfSpeech
p389
VIN
p390
sVLemma
p391
Vfrom
p392
saa(lp393
Vit
p394
a(dp395
VNamedEntityTag
p396
g92
sVCharacterOffsetEnd
p397
V74
p398
sVCharacterOffsetBegin
p399
V72
p400
sVPartOfSpeech
p401
VPRP
p402
sVLemma
p403
Vit
p404
saa(lp405
Vand
p406
a(dp407
VNamedEntityTag
p408
g92
sVCharacterOffsetEnd
p409
V78
p410
sVCharacterOffsetBegin
p411
V75
p412
sVPartOfSpeech
p413
VCC
p414
sVLemma
p415
Vand
p416
saa(lp417
Vthen
p418
a(dp419
VNamedEntityTag
p420
g92
sVCharacterOffsetEnd
p421
V83
p422
sVCharacterOffsetBegin
p423
V79
p424
sVPartOfSpeech
p425
VRB
p426
sVLemma
p427
Vthen
p428
saa(lp429
Vadded
p430
a(dp431
VNamedEntityTag
p432
g92
sVCharacterOffsetEnd
p433
V89
p434
sVCharacterOffsetBegin
p435
V84
p436
sVPartOfSpeech
p437
VVBD
p438
sVLemma
p439
Vadd
p440
saa(lp441
V10
p442
a(dp443
VNormalizedNamedEntityTag
p444
V10.0
p445
sVLemma
p446
V10
p447
sVCharacterOffsetEnd
p448
V92
p449
sVPartOfSpeech
p450
VCD
p451
sVCharacterOffsetBegin
p452
V90
p453
sVNamedEntityTag
p454
VNUMBER
p455
saa(lp456
Vnew
p457
a(dp458
VNamedEntityTag
p459
g92
sVCharacterOffsetEnd
p460
V96
p461
sVCharacterOffsetBegin
p462
V93
p463
sVPartOfSpeech
p464
VJJ
p465
sVLemma
p466
Vnew
p467
saa(lp468
Vsongs
p469
a(dp470
VNamedEntityTag
p471
g92
sVCharacterOffsetEnd
p472
V102
p473
sVCharacterOffsetBegin
p474
V97
p475
sVPartOfSpeech
p476
VNNS
p477
sVLemma
p478
Vsong
p479
saa(lp480
V,
p481
a(dp482
VNamedEntityTag
p483
g92
sVCharacterOffsetEnd
p484
V104
p485
sVCharacterOffsetBegin
p486
V103
p487
sVPartOfSpeech
p488
g481
sVLemma
p489
g481
saa(lp490
Vhow
p491
a(dp492
VNamedEntityTag
p493
g92
sVCharacterOffsetEnd
p494
V108
p495
sVCharacterOffsetBegin
p496
V105
p497
sVPartOfSpeech
p498
VWRB
p499
sVLemma
p500
Vhow
p501
saa(lp502
Vmany
p503
a(dp504
VNamedEntityTag
p505
g92
sVCharacterOffsetEnd
p506
V113
p507
sVCharacterOffsetBegin
p508
V109
p509
sVPartOfSpeech
p510
VJJ
p511
sVLemma
p512
Vmany
p513
saa(lp514
Vsongs
p515
a(dp516
VNamedEntityTag
p517
g92
sVCharacterOffsetEnd
p518
V119
p519
sVCharacterOffsetBegin
p520
V114
p521
sVPartOfSpeech
p522
VNNS
p523
sVLemma
p524
Vsong
p525
saa(lp526
Vdoes
p527
a(dp528
VNamedEntityTag
p529
g92
sVCharacterOffsetEnd
p530
V124
p531
sVCharacterOffsetBegin
p532
V120
p533
sVPartOfSpeech
p534
VVBZ
p535
sVLemma
p536
Vdo
p537
saa(lp538
Vshe
p539
a(dp540
VNamedEntityTag
p541
g92
sVCharacterOffsetEnd
p542
V128
p543
sVCharacterOffsetBegin
p544
V125
p545
sVPartOfSpeech
p546
VPRP
p547
sVLemma
p548
Vshe
p549
saa(lp550
Vhave
p551
a(dp552
VNamedEntityTag
p553
g92
sVCharacterOffsetEnd
p554
V133
p555
sVCharacterOffsetBegin
p556
V129
p557
sVPartOfSpeech
p558
VVB
p559
sVLemma
p560
Vhave
p561
saa(lp562
Von
p563
a(dp564
VNamedEntityTag
p565
g92
sVCharacterOffsetEnd
p566
V136
p567
sVCharacterOffsetBegin
p568
V134
p569
sVPartOfSpeech
p570
VIN
p571
sVLemma
p572
Von
p573
saa(lp574
Vher
p575
a(dp576
VNamedEntityTag
p577
g92
sVCharacterOffsetEnd
p578
V140
p579
sVCharacterOffsetBegin
p580
V137
p581
sVPartOfSpeech
p582
VPRP$
p583
sVLemma
p584
Vshe
p585
saa(lp586
Vmp3
p587
a(dp588
VNamedEntityTag
p589
g92
sVCharacterOffsetEnd
p590
V144
p591
sVCharacterOffsetBegin
p592
V141
p593
sVPartOfSpeech
p594
VNN
p595
sVLemma
p596
Vmp3
p597
saa(lp598
Vplayer
p599
a(dp600
VNamedEntityTag
p601
g92
sVCharacterOffsetEnd
p602
V151
p603
sVCharacterOffsetBegin
p604
V145
p605
sVPartOfSpeech
p606
VNN
p607
sVLemma
p608
Vplayer
p609
saa(lp610
V?
p611
a(dp612
VNamedEntityTag
p613
g92
sVCharacterOffsetEnd
p614
V153
p615
sVCharacterOffsetBegin
p616
V152
p617
sVPartOfSpeech
p618
g177
sVLemma
p619
g611
saasVindexeddependencies
p620
(lp621
(lp622
Vroot
p623
aVROOT-0
p624
aVhave-21
p625
aa(lp626
Vmark
p627
aVdeleted-3
p628
aVIf-1
p629
aa(lp630
Vnsubj
p631
aVdeleted-3
p632
aVshe-2
p633
aa(lp634
Vadvcl
p635
aVhave-21
p636
aVdeleted-3
p637
aa(lp638
Vnum
p639
aVsongs-6
p640
aV8-4
p641
aa(lp642
Vamod
p643
aVsongs-6
p644
aVold-5
p645
aa(lp646
Vdobj
p647
aVdeleted-3
p648
aVsongs-6
p649
aa(lp650
Vprep_from
p651
aVdeleted-3
p652
aVit-8
p653
aa(lp654
Vadvmod
p655
aVadded-11
p656
aVthen-10
p657
aa(lp658
Vconj_and
p659
aVdeleted-3
p660
aVadded-11
p661
aa(lp662
Vnum
p663
aVsongs-14
p664
aV10-12
p665
aa(lp666
Vamod
p667
aVsongs-14
p668
aVnew-13
p669
aa(lp670
Vdobj
p671
aVadded-11
p672
aVsongs-14
p673
aa(lp674
Vadvmod
p675
aVmany-17
p676
aVhow-16
p677
aa(lp678
Vamod
p679
aVsongs-18
p680
aVmany-17
p681
aa(lp682
Vdobj
p683
aVhave-21
p684
aVsongs-18
p685
aa(lp686
Vaux
p687
aVhave-21
p688
aVdoes-19
p689
aa(lp690
Vnsubj
p691
aVhave-21
p692
aVshe-20
p693
aa(lp694
Vposs
p695
aVplayer-25
p696
aVher-23
p697
aa(lp698
Vnn
p699
aVplayer-25
p700
aVmp3-24
p701
aa(lp702
Vprep_on
p703
aVhave-21
p704
aVplayer-25
p705
aasas.