(dp0
Vcoref
p1
(lp2
(lp3
(lp4
(lp5
Vthey
p6
aI1
aI20
aI20
aI21
aa(lp7
Vthey
p8
aI1
aI1
aI1
aI2
aaaasVsentences
p9
(lp10
(dp11
Vparsetree
p12
V(ROOT (S (NP (DT The) (NN school) (NN cafeteria)) (VP (VBD had) (NP (CD 23) (NNS apples))) (. .)))
p13
sVtext
p14
VThe school cafeteria had 23 apples .
p15
sVdependencies
p16
(lp17
(lp18
Vroot
p19
aVROOT
p20
aVhad
p21
aa(lp22
Vdet
p23
aVcafeteria
p24
aVThe
p25
aa(lp26
Vnn
p27
aVcafeteria
p28
aVschool
p29
aa(lp30
Vnsubj
p31
aVhad
p32
aVcafeteria
p33
aa(lp34
Vnum
p35
aVapples
p36
aV23
p37
aa(lp38
Vdobj
p39
aVhad
p40
aVapples
p41
aasVwords
p42
(lp43
(lp44
VThe
p45
a(dp46
VNamedEntityTag
p47
VO
p48
sVCharacterOffsetEnd
p49
V4
p50
sVCharacterOffsetBegin
p51
V1
p52
sVPartOfSpeech
p53
VDT
p54
sVLemma
p55
Vthe
p56
saa(lp57
Vschool
p58
a(dp59
VNamedEntityTag
p60
g48
sVCharacterOffsetEnd
p61
V11
p62
sVCharacterOffsetBegin
p63
V5
p64
sVPartOfSpeech
p65
VNN
p66
sVLemma
p67
Vschool
p68
saa(lp69
Vcafeteria
p70
a(dp71
VNamedEntityTag
p72
g48
sVCharacterOffsetEnd
p73
V21
p74
sVCharacterOffsetBegin
p75
V12
p76
sVPartOfSpeech
p77
VNN
p78
sVLemma
p79
Vcafeteria
p80
saa(lp81
Vhad
p82
a(dp83
VNamedEntityTag
p84
g48
sVCharacterOffsetEnd
p85
V25
p86
sVCharacterOffsetBegin
p87
V22
p88
sVPartOfSpeech
p89
VVBD
p90
sVLemma
p91
Vhave
p92
saa(lp93
V23
p94
a(dp95
VNormalizedNamedEntityTag
p96
V23.0
p97
sVLemma
p98
V23
p99
sVCharacterOffsetEnd
p100
V28
p101
sVPartOfSpeech
p102
VCD
p103
sVCharacterOffsetBegin
p104
V26
p105
sVNamedEntityTag
p106
VNUMBER
p107
saa(lp108
Vapples
p109
a(dp110
VNamedEntityTag
p111
g48
sVCharacterOffsetEnd
p112
V35
p113
sVCharacterOffsetBegin
p114
V29
p115
sVPartOfSpeech
p116
VNNS
p117
sVLemma
p118
Vapple
p119
saa(lp120
V.
p121
a(dp122
VNamedEntityTag
p123
g48
sVCharacterOffsetEnd
p124
V37
p125
sVCharacterOffsetBegin
p126
V36
p127
sVPartOfSpeech
p128
g121
sVLemma
p129
g121
saasVindexeddependencies
p130
(lp131
(lp132
Vroot
p133
aVROOT-0
p134
aVhad-4
p135
aa(lp136
Vdet
p137
aVcafeteria-3
p138
aVThe-1
p139
aa(lp140
Vnn
p141
aVcafeteria-3
p142
aVschool-2
p143
aa(lp144
Vnsubj
p145
aVhad-4
p146
aVcafeteria-3
p147
aa(lp148
Vnum
p149
aVapples-6
p150
aV23-5
p151
aa(lp152
Vdobj
p153
aVhad-4
p154
aVapples-6
p155
aasa(dp156
Vparsetree
p157
V(ROOT (SBARQ (SBAR (IN If) (S (NP (PRP they)) (VP (VP (VBD used) (NP (CD 20)) (S (VP (TO to) (VP (VB make) (NP (NN lunch)) (PP (IN for) (NP (DT the) (NNS students))))))) (CC and) (VP (ADVP (RB then)) (VBD bought) (NP (CD 6) (JJR more)))))) (, ,) (WHNP (WHADJP (WRB how) (JJ many)) (NNS apples)) (SQ (MD would) (NP (PRP they)) (VP (VB have))) (. ?)))
p158
sVtext
p159
VIf they used 20 to make lunch for the students and then bought 6 more , how many apples would they have ?
p160
sVdependencies
p161
(lp162
(lp163
Vroot
p164
aVROOT
p165
aVhave
p166
aa(lp167
Vmark
p168
aVused
p169
aVIf
p170
aa(lp171
Vnsubj
p172
aVused
p173
aVthey
p174
aa(lp175
Vadvcl
p176
aVhave
p177
aVused
p178
aa(lp179
Vdobj
p180
aVused
p181
aV20
p182
aa(lp183
Vaux
p184
aVmake
p185
aVto
p186
aa(lp187
Vvmod
p188
aVused
p189
aVmake
p190
aa(lp191
Vdobj
p192
aVmake
p193
aVlunch
p194
aa(lp195
Vdet
p196
aVstudents
p197
aVthe
p198
aa(lp199
Vprep_for
p200
aVmake
p201
aVstudents
p202
aa(lp203
Vadvmod
p204
aVbought
p205
aVthen
p206
aa(lp207
Vconj_and
p208
aVused
p209
aVbought
p210
aa(lp211
Vnum
p212
aVmore
p213
aV6
p214
aa(lp215
Vdobj
p216
aVbought
p217
aVmore
p218
aa(lp219
Vadvmod
p220
aVmany
p221
aVhow
p222
aa(lp223
Vamod
p224
aVapples
p225
aVmany
p226
aa(lp227
Vdobj
p228
aVhave
p229
aVapples
p230
aa(lp231
Vaux
p232
aVhave
p233
aVwould
p234
aa(lp235
Vnsubj
p236
aVhave
p237
aVthey
p238
aasVwords
p239
(lp240
(lp241
VIf
p242
a(dp243
VNamedEntityTag
p244
g48
sVCharacterOffsetEnd
p245
V40
p246
sVCharacterOffsetBegin
p247
V38
p248
sVPartOfSpeech
p249
VIN
p250
sVLemma
p251
Vif
p252
saa(lp253
Vthey
p254
a(dp255
VNamedEntityTag
p256
g48
sVCharacterOffsetEnd
p257
V45
p258
sVCharacterOffsetBegin
p259
V41
p260
sVPartOfSpeech
p261
VPRP
p262
sVLemma
p263
Vthey
p264
saa(lp265
Vused
p266
a(dp267
VNamedEntityTag
p268
g48
sVCharacterOffsetEnd
p269
V50
p270
sVCharacterOffsetBegin
p271
V46
p272
sVPartOfSpeech
p273
VVBD
p274
sVLemma
p275
Vuse
p276
saa(lp277
V20
p278
a(dp279
VNormalizedNamedEntityTag
p280
V20.0
p281
sVLemma
p282
V20
p283
sVCharacterOffsetEnd
p284
V53
p285
sVPartOfSpeech
p286
VCD
p287
sVCharacterOffsetBegin
p288
V51
p289
sVNamedEntityTag
p290
VNUMBER
p291
saa(lp292
Vto
p293
a(dp294
VNamedEntityTag
p295
g48
sVCharacterOffsetEnd
p296
V56
p297
sVCharacterOffsetBegin
p298
V54
p299
sVPartOfSpeech
p300
VTO
p301
sVLemma
p302
Vto
p303
saa(lp304
Vmake
p305
a(dp306
VNamedEntityTag
p307
g48
sVCharacterOffsetEnd
p308
V61
p309
sVCharacterOffsetBegin
p310
V57
p311
sVPartOfSpeech
p312
VVB
p313
sVLemma
p314
Vmake
p315
saa(lp316
Vlunch
p317
a(dp318
VNamedEntityTag
p319
g48
sVCharacterOffsetEnd
p320
V67
p321
sVCharacterOffsetBegin
p322
V62
p323
sVPartOfSpeech
p324
VNN
p325
sVLemma
p326
Vlunch
p327
saa(lp328
Vfor
p329
a(dp330
VNamedEntityTag
p331
g48
sVCharacterOffsetEnd
p332
V71
p333
sVCharacterOffsetBegin
p334
V68
p335
sVPartOfSpeech
p336
VIN
p337
sVLemma
p338
Vfor
p339
saa(lp340
Vthe
p341
a(dp342
VNamedEntityTag
p343
g48
sVCharacterOffsetEnd
p344
V75
p345
sVCharacterOffsetBegin
p346
V72
p347
sVPartOfSpeech
p348
VDT
p349
sVLemma
p350
Vthe
p351
saa(lp352
Vstudents
p353
a(dp354
VNamedEntityTag
p355
g48
sVCharacterOffsetEnd
p356
V84
p357
sVCharacterOffsetBegin
p358
V76
p359
sVPartOfSpeech
p360
VNNS
p361
sVLemma
p362
Vstudent
p363
saa(lp364
Vand
p365
a(dp366
VNamedEntityTag
p367
g48
sVCharacterOffsetEnd
p368
V88
p369
sVCharacterOffsetBegin
p370
V85
p371
sVPartOfSpeech
p372
VCC
p373
sVLemma
p374
Vand
p375
saa(lp376
Vthen
p377
a(dp378
VNamedEntityTag
p379
g48
sVCharacterOffsetEnd
p380
V93
p381
sVCharacterOffsetBegin
p382
V89
p383
sVPartOfSpeech
p384
VRB
p385
sVLemma
p386
Vthen
p387
saa(lp388
Vbought
p389
a(dp390
VNamedEntityTag
p391
g48
sVCharacterOffsetEnd
p392
V100
p393
sVCharacterOffsetBegin
p394
V94
p395
sVPartOfSpeech
p396
VVBD
p397
sVLemma
p398
Vbuy
p399
saa(lp400
g214
a(dp401
VNormalizedNamedEntityTag
p402
V6.0
p403
sVLemma
p404
g214
sVCharacterOffsetEnd
p405
V102
p406
sVPartOfSpeech
p407
VCD
p408
sVCharacterOffsetBegin
p409
V101
p410
sVNamedEntityTag
p411
VNUMBER
p412
saa(lp413
Vmore
p414
a(dp415
VNamedEntityTag
p416
g48
sVCharacterOffsetEnd
p417
V107
p418
sVCharacterOffsetBegin
p419
V103
p420
sVPartOfSpeech
p421
VJJR
p422
sVLemma
p423
Vmore
p424
saa(lp425
V,
p426
a(dp427
VNamedEntityTag
p428
g48
sVCharacterOffsetEnd
p429
V109
p430
sVCharacterOffsetBegin
p431
V108
p432
sVPartOfSpeech
p433
g426
sVLemma
p434
g426
saa(lp435
Vhow
p436
a(dp437
VNamedEntityTag
p438
g48
sVCharacterOffsetEnd
p439
V113
p440
sVCharacterOffsetBegin
p441
V110
p442
sVPartOfSpeech
p443
VWRB
p444
sVLemma
p445
Vhow
p446
saa(lp447
Vmany
p448
a(dp449
VNamedEntityTag
p450
g48
sVCharacterOffsetEnd
p451
V118
p452
sVCharacterOffsetBegin
p453
V114
p454
sVPartOfSpeech
p455
VJJ
p456
sVLemma
p457
Vmany
p458
saa(lp459
Vapples
p460
a(dp461
VNamedEntityTag
p462
g48
sVCharacterOffsetEnd
p463
V125
p464
sVCharacterOffsetBegin
p465
V119
p466
sVPartOfSpeech
p467
VNNS
p468
sVLemma
p469
Vapple
p470
saa(lp471
Vwould
p472
a(dp473
VNamedEntityTag
p474
g48
sVCharacterOffsetEnd
p475
V131
p476
sVCharacterOffsetBegin
p477
V126
p478
sVPartOfSpeech
p479
VMD
p480
sVLemma
p481
Vwould
p482
saa(lp483
Vthey
p484
a(dp485
VNamedEntityTag
p486
g48
sVCharacterOffsetEnd
p487
V136
p488
sVCharacterOffsetBegin
p489
V132
p490
sVPartOfSpeech
p491
VPRP
p492
sVLemma
p493
Vthey
p494
saa(lp495
Vhave
p496
a(dp497
VNamedEntityTag
p498
g48
sVCharacterOffsetEnd
p499
V141
p500
sVCharacterOffsetBegin
p501
V137
p502
sVPartOfSpeech
p503
VVB
p504
sVLemma
p505
Vhave
p506
saa(lp507
V?
p508
a(dp509
VNamedEntityTag
p510
g48
sVCharacterOffsetEnd
p511
V143
p512
sVCharacterOffsetBegin
p513
V142
p514
sVPartOfSpeech
p515
g121
sVLemma
p516
g508
saasVindexeddependencies
p517
(lp518
(lp519
Vroot
p520
aVROOT-0
p521
aVhave-22
p522
aa(lp523
Vmark
p524
aVused-3
p525
aVIf-1
p526
aa(lp527
Vnsubj
p528
aVused-3
p529
aVthey-2
p530
aa(lp531
Vadvcl
p532
aVhave-22
p533
aVused-3
p534
aa(lp535
Vdobj
p536
aVused-3
p537
aV20-4
p538
aa(lp539
Vaux
p540
aVmake-6
p541
aVto-5
p542
aa(lp543
Vvmod
p544
aVused-3
p545
aVmake-6
p546
aa(lp547
Vdobj
p548
aVmake-6
p549
aVlunch-7
p550
aa(lp551
Vdet
p552
aVstudents-10
p553
aVthe-9
p554
aa(lp555
Vprep_for
p556
aVmake-6
p557
aVstudents-10
p558
aa(lp559
Vadvmod
p560
aVbought-13
p561
aVthen-12
p562
aa(lp563
Vconj_and
p564
aVused-3
p565
aVbought-13
p566
aa(lp567
Vnum
p568
aVmore-15
p569
aV6-14
p570
aa(lp571
Vdobj
p572
aVbought-13
p573
aVmore-15
p574
aa(lp575
Vadvmod
p576
aVmany-18
p577
aVhow-17
p578
aa(lp579
Vamod
p580
aVapples-19
p581
aVmany-18
p582
aa(lp583
Vdobj
p584
aVhave-22
p585
aVapples-19
p586
aa(lp587
Vaux
p588
aVhave-22
p589
aVwould-20
p590
aa(lp591
Vnsubj
p592
aVhave-22
p593
aVthey-21
p594
aasas.