(dp0
Vcoref
p1
(lp2
(lp3
(lp4
(lp5
Vthe cafe
p6
aI1
aI4
aI3
aI5
aa(lp7
VTara 's Cafe
p8
aI0
aI2
aI0
aI3
aaaasVsentences
p9
(lp10
(dp11
Vparsetree
p12
V(ROOT (S (NP (NP (NNP Tara) (POS 's)) (NNP Cafe)) (VP (VBZ offers) (NP (NP (NP (CD two) (NNS kinds)) (PP (IN of) (NP (NN espresso)))) (: :) (NP (NP (JJ single-shot)) (CC and) (NP (NN double-shot))))) (. .)))
p13
sVtext
p14
VTara's Cafe offers two kinds of espresso: single-shot and double-shot .
p15
sVdependencies
p16
(lp17
(lp18
Vroot
p19
aVROOT
p20
aVoffers
p21
aa(lp22
Vposs
p23
aVCafe
p24
aVTara
p25
aa(lp26
Vnsubj
p27
aVoffers
p28
aVCafe
p29
aa(lp30
Vnum
p31
aVkinds
p32
aVtwo
p33
aa(lp34
Vdobj
p35
aVoffers
p36
aVkinds
p37
aa(lp38
Vprep_of
p39
aVkinds
p40
aVespresso
p41
aa(lp42
Vdep
p43
aVkinds
p44
aVsingle-shot
p45
aa(lp46
Vconj_and
p47
aVsingle-shot
p48
aVdouble-shot
p49
aasVwords
p50
(lp51
(lp52
VTara
p53
a(dp54
VNamedEntityTag
p55
VPERSON
p56
sVCharacterOffsetEnd
p57
V5
p58
sVCharacterOffsetBegin
p59
V1
p60
sVPartOfSpeech
p61
VNNP
p62
sVLemma
p63
VTara
p64
saa(lp65
V's
p66
a(dp67
VNamedEntityTag
p68
VO
p69
sVCharacterOffsetEnd
p70
V7
p71
sVCharacterOffsetBegin
p72
g58
sVPartOfSpeech
p73
VPOS
p74
sVLemma
p75
V's
p76
saa(lp77
VCafe
p78
a(dp79
VNamedEntityTag
p80
g69
sVCharacterOffsetEnd
p81
V12
p82
sVCharacterOffsetBegin
p83
V8
p84
sVPartOfSpeech
p85
VNNP
p86
sVLemma
p87
VCafe
p88
saa(lp89
Voffers
p90
a(dp91
VNamedEntityTag
p92
g69
sVCharacterOffsetEnd
p93
V19
p94
sVCharacterOffsetBegin
p95
V13
p96
sVPartOfSpeech
p97
VVBZ
p98
sVLemma
p99
Voffer
p100
saa(lp101
Vtwo
p102
a(dp103
VNormalizedNamedEntityTag
p104
V2.0
p105
sVLemma
p106
Vtwo
p107
sVCharacterOffsetEnd
p108
V23
p109
sVPartOfSpeech
p110
VCD
p111
sVCharacterOffsetBegin
p112
V20
p113
sVNamedEntityTag
p114
VNUMBER
p115
saa(lp116
Vkinds
p117
a(dp118
VNamedEntityTag
p119
g69
sVCharacterOffsetEnd
p120
V29
p121
sVCharacterOffsetBegin
p122
V24
p123
sVPartOfSpeech
p124
VNNS
p125
sVLemma
p126
Vkind
p127
saa(lp128
Vof
p129
a(dp130
VNamedEntityTag
p131
g69
sVCharacterOffsetEnd
p132
V32
p133
sVCharacterOffsetBegin
p134
V30
p135
sVPartOfSpeech
p136
VIN
p137
sVLemma
p138
Vof
p139
saa(lp140
Vespresso
p141
a(dp142
VNamedEntityTag
p143
g69
sVCharacterOffsetEnd
p144
V41
p145
sVCharacterOffsetBegin
p146
V33
p147
sVPartOfSpeech
p148
VNN
p149
sVLemma
p150
Vespresso
p151
saa(lp152
V:
p153
a(dp154
VNamedEntityTag
p155
g69
sVCharacterOffsetEnd
p156
V42
p157
sVCharacterOffsetBegin
p158
V41
p159
sVPartOfSpeech
p160
g153
sVLemma
p161
g153
saa(lp162
Vsingle-shot
p163
a(dp164
VNamedEntityTag
p165
g69
sVCharacterOffsetEnd
p166
V54
p167
sVCharacterOffsetBegin
p168
V43
p169
sVPartOfSpeech
p170
VJJ
p171
sVLemma
p172
Vsingle-shot
p173
saa(lp174
Vand
p175
a(dp176
VNamedEntityTag
p177
g69
sVCharacterOffsetEnd
p178
V58
p179
sVCharacterOffsetBegin
p180
V55
p181
sVPartOfSpeech
p182
VCC
p183
sVLemma
p184
Vand
p185
saa(lp186
Vdouble-shot
p187
a(dp188
VNamedEntityTag
p189
g69
sVCharacterOffsetEnd
p190
V70
p191
sVCharacterOffsetBegin
p192
V59
p193
sVPartOfSpeech
p194
VNN
p195
sVLemma
p196
Vdouble-shot
p197
saa(lp198
V.
p199
a(dp200
VNamedEntityTag
p201
g69
sVCharacterOffsetEnd
p202
V72
p203
sVCharacterOffsetBegin
p204
V71
p205
sVPartOfSpeech
p206
g199
sVLemma
p207
g199
saasVindexeddependencies
p208
(lp209
(lp210
Vroot
p211
aVROOT-0
p212
aVoffers-4
p213
aa(lp214
Vposs
p215
aVCafe-3
p216
aVTara-1
p217
aa(lp218
Vnsubj
p219
aVoffers-4
p220
aVCafe-3
p221
aa(lp222
Vnum
p223
aVkinds-6
p224
aVtwo-5
p225
aa(lp226
Vdobj
p227
aVoffers-4
p228
aVkinds-6
p229
aa(lp230
Vprep_of
p231
aVkinds-6
p232
aVespresso-8
p233
aa(lp234
Vdep
p235
aVkinds-6
p236
aVsingle-shot-10
p237
aa(lp238
Vconj_and
p239
aVsingle-shot-10
p240
aVdouble-shot-12
p241
aasa(dp242
Vparsetree
p243
V(ROOT (S (NP-TMP (NN Yesterday) (NN afternoon)) (, ,) (NP (DT the) (NN cafe)) (VP (VBD sold) (NP (NP (CD 90) (JJ single-shot) (NNS espressos)) (CC and) (NP (CD 10) (JJ double-shot) (NNS espressos)))) (. .)))
p244
sVtext
p245
VYesterday afternoon , the cafe sold 90 single-shot espressos and 10 double-shot espressos .
p246
sVdependencies
p247
(lp248
(lp249
Vroot
p250
aVROOT
p251
aVsold
p252
aa(lp253
Vnn
p254
aVafternoon
p255
aVYesterday
p256
aa(lp257
Vtmod
p258
aVsold
p259
aVafternoon
p260
aa(lp261
Vdet
p262
aVcafe
p263
aVthe
p264
aa(lp265
Vnsubj
p266
aVsold
p267
aVcafe
p268
aa(lp269
Vnum
p270
aVespressos
p271
aV90
p272
aa(lp273
Vamod
p274
aVespressos
p275
aVsingle-shot
p276
aa(lp277
Vdobj
p278
aVsold
p279
aVespressos
p280
aa(lp281
Vnum
p282
aVespressos
p283
aV10
p284
aa(lp285
Vamod
p286
aVespressos
p287
aVdouble-shot
p288
aa(lp289
Vconj_and
p290
aVespressos
p291
aVespressos
p292
aasVwords
p293
(lp294
(lp295
VYesterday
p296
a(dp297
VNormalizedNamedEntityTag
p298
VOFFSET
p299
sVTimex
p300
V<TIMEX3 alt_value="OFFSET P-1D INTERSECT AF" anchorTimeID="t2" temporalFunction="true" tid="t1" type="DATE" valueFromFunction="tf0">Yesterday afternoon</TIMEX3>
p301
sVLemma
p302
Vyesterday
p303
sVCharacterOffsetEnd
p304
V82
p305
sVPartOfSpeech
p306
VNN
p307
sVCharacterOffsetBegin
p308
V73
p309
sVNamedEntityTag
p310
VDATE
p311
saa(lp312
Vafternoon
p313
a(dp314
VNormalizedNamedEntityTag
p315
VOFFSET
p316
sVTimex
p317
V<TIMEX3 alt_value="OFFSET P-1D INTERSECT AF" anchorTimeID="t2" temporalFunction="true" tid="t1" type="DATE" valueFromFunction="tf0">Yesterday afternoon</TIMEX3>
p318
sVLemma
p319
Vafternoon
p320
sVCharacterOffsetEnd
p321
V92
p322
sVPartOfSpeech
p323
VNN
p324
sVCharacterOffsetBegin
p325
V83
p326
sVNamedEntityTag
p327
VDATE
p328
saa(lp329
V,
p330
a(dp331
VNamedEntityTag
p332
g69
sVCharacterOffsetEnd
p333
V94
p334
sVCharacterOffsetBegin
p335
V93
p336
sVPartOfSpeech
p337
g330
sVLemma
p338
g330
saa(lp339
Vthe
p340
a(dp341
VNamedEntityTag
p342
g69
sVCharacterOffsetEnd
p343
V98
p344
sVCharacterOffsetBegin
p345
V95
p346
sVPartOfSpeech
p347
VDT
p348
sVLemma
p349
Vthe
p350
saa(lp351
Vcafe
p352
a(dp353
VNamedEntityTag
p354
g69
sVCharacterOffsetEnd
p355
V103
p356
sVCharacterOffsetBegin
p357
V99
p358
sVPartOfSpeech
p359
VNN
p360
sVLemma
p361
Vcafe
p362
saa(lp363
Vsold
p364
a(dp365
VNamedEntityTag
p366
g69
sVCharacterOffsetEnd
p367
V108
p368
sVCharacterOffsetBegin
p369
V104
p370
sVPartOfSpeech
p371
VVBD
p372
sVLemma
p373
Vsell
p374
saa(lp375
V90
p376
a(dp377
VNormalizedNamedEntityTag
p378
V90.0
p379
sVLemma
p380
V90
p381
sVCharacterOffsetEnd
p382
V111
p383
sVPartOfSpeech
p384
VCD
p385
sVCharacterOffsetBegin
p386
V109
p387
sVNamedEntityTag
p388
VNUMBER
p389
saa(lp390
Vsingle-shot
p391
a(dp392
VNamedEntityTag
p393
g69
sVCharacterOffsetEnd
p394
V123
p395
sVCharacterOffsetBegin
p396
V112
p397
sVPartOfSpeech
p398
VJJ
p399
sVLemma
p400
Vsingle-shot
p401
saa(lp402
Vespressos
p403
a(dp404
VNamedEntityTag
p405
g69
sVCharacterOffsetEnd
p406
V133
p407
sVCharacterOffsetBegin
p408
V124
p409
sVPartOfSpeech
p410
VNNS
p411
sVLemma
p412
Vespresso
p413
saa(lp414
Vand
p415
a(dp416
VNamedEntityTag
p417
g69
sVCharacterOffsetEnd
p418
V137
p419
sVCharacterOffsetBegin
p420
V134
p421
sVPartOfSpeech
p422
VCC
p423
sVLemma
p424
Vand
p425
saa(lp426
V10
p427
a(dp428
VNormalizedNamedEntityTag
p429
V10.0
p430
sVLemma
p431
V10
p432
sVCharacterOffsetEnd
p433
V140
p434
sVPartOfSpeech
p435
VCD
p436
sVCharacterOffsetBegin
p437
V138
p438
sVNamedEntityTag
p439
VNUMBER
p440
saa(lp441
Vdouble-shot
p442
a(dp443
VNamedEntityTag
p444
g69
sVCharacterOffsetEnd
p445
V152
p446
sVCharacterOffsetBegin
p447
V141
p448
sVPartOfSpeech
p449
VJJ
p450
sVLemma
p451
Vdouble-shot
p452
saa(lp453
Vespressos
p454
a(dp455
VNamedEntityTag
p456
g69
sVCharacterOffsetEnd
p457
V162
p458
sVCharacterOffsetBegin
p459
V153
p460
sVPartOfSpeech
p461
VNNS
p462
sVLemma
p463
Vespresso
p464
saa(lp465
g199
a(dp466
VNamedEntityTag
p467
g69
sVCharacterOffsetEnd
p468
V164
p469
sVCharacterOffsetBegin
p470
V163
p471
sVPartOfSpeech
p472
g199
sVLemma
p473
g199
saasVindexeddependencies
p474
(lp475
(lp476
Vroot
p477
aVROOT-0
p478
aVsold-6
p479
aa(lp480
Vnn
p481
aVafternoon-2
p482
aVYesterday-1
p483
aa(lp484
Vtmod
p485
aVsold-6
p486
aVafternoon-2
p487
aa(lp488
Vdet
p489
aVcafe-5
p490
aVthe-4
p491
aa(lp492
Vnsubj
p493
aVsold-6
p494
aVcafe-5
p495
aa(lp496
Vnum
p497
aVespressos-9
p498
aV90-7
p499
aa(lp500
Vamod
p501
aVespressos-9
p502
aVsingle-shot-8
p503
aa(lp504
Vdobj
p505
aVsold-6
p506
aVespressos-9
p507
aa(lp508
Vnum
p509
aVespressos-13
p510
aV10-11
p511
aa(lp512
Vamod
p513
aVespressos-13
p514
aVdouble-shot-12
p515
aa(lp516
Vconj_and
p517
aVespressos-9
p518
aVespressos-13
p519
aasa(dp520
Vparsetree
p521
V(ROOT (SBARQ (WHNP (WHNP (WDT What) (NN percentage)) (PP (IN of) (NP (NP (DT the) (NNS espressos)) (VP (VBN sold))))) (SQ (VP (VBD were) (ADJP (JJ single-shot)))) (. ?)))
p522
sVtext
p523
VWhat percentage of the espressos sold were single-shot ?
p524
sVdependencies
p525
(lp526
(lp527
Vroot
p528
aVROOT
p529
aVsingle-shot
p530
aa(lp531
Vdet
p532
aVpercentage
p533
aVWhat
p534
aa(lp535
Vnsubj
p536
aVsingle-shot
p537
aVpercentage
p538
aa(lp539
Vdet
p540
aVespressos
p541
aVthe
p542
aa(lp543
Vprep_of
p544
aVpercentage
p545
aVespressos
p546
aa(lp547
Vvmod
p548
aVespressos
p549
aVsold
p550
aa(lp551
Vcop
p552
aVsingle-shot
p553
aVwere
p554
aasVwords
p555
(lp556
(lp557
VWhat
p558
a(dp559
VNamedEntityTag
p560
g69
sVCharacterOffsetEnd
p561
V169
p562
sVCharacterOffsetBegin
p563
V165
p564
sVPartOfSpeech
p565
VWDT
p566
sVLemma
p567
Vwhat
p568
saa(lp569
Vpercentage
p570
a(dp571
VNamedEntityTag
p572
g69
sVCharacterOffsetEnd
p573
V180
p574
sVCharacterOffsetBegin
p575
V170
p576
sVPartOfSpeech
p577
VNN
p578
sVLemma
p579
Vpercentage
p580
saa(lp581
Vof
p582
a(dp583
VNamedEntityTag
p584
g69
sVCharacterOffsetEnd
p585
V183
p586
sVCharacterOffsetBegin
p587
V181
p588
sVPartOfSpeech
p589
VIN
p590
sVLemma
p591
Vof
p592
saa(lp593
Vthe
p594
a(dp595
VNamedEntityTag
p596
g69
sVCharacterOffsetEnd
p597
V187
p598
sVCharacterOffsetBegin
p599
V184
p600
sVPartOfSpeech
p601
VDT
p602
sVLemma
p603
Vthe
p604
saa(lp605
Vespressos
p606
a(dp607
VNamedEntityTag
p608
g69
sVCharacterOffsetEnd
p609
V197
p610
sVCharacterOffsetBegin
p611
V188
p612
sVPartOfSpeech
p613
VNNS
p614
sVLemma
p615
Vespresso
p616
saa(lp617
Vsold
p618
a(dp619
VNamedEntityTag
p620
g69
sVCharacterOffsetEnd
p621
V202
p622
sVCharacterOffsetBegin
p623
V198
p624
sVPartOfSpeech
p625
VVBN
p626
sVLemma
p627
Vsell
p628
saa(lp629
Vwere
p630
a(dp631
VNamedEntityTag
p632
g69
sVCharacterOffsetEnd
p633
V207
p634
sVCharacterOffsetBegin
p635
V203
p636
sVPartOfSpeech
p637
VVBD
p638
sVLemma
p639
Vbe
p640
saa(lp641
Vsingle-shot
p642
a(dp643
VNamedEntityTag
p644
g69
sVCharacterOffsetEnd
p645
V219
p646
sVCharacterOffsetBegin
p647
V208
p648
sVPartOfSpeech
p649
VJJ
p650
sVLemma
p651
Vsingle-shot
p652
saa(lp653
V?
p654
a(dp655
VNamedEntityTag
p656
g69
sVCharacterOffsetEnd
p657
V221
p658
sVCharacterOffsetBegin
p659
V220
p660
sVPartOfSpeech
p661
g199
sVLemma
p662
g654
saasVindexeddependencies
p663
(lp664
(lp665
Vroot
p666
aVROOT-0
p667
aVsingle-shot-8
p668
aa(lp669
Vdet
p670
aVpercentage-2
p671
aVWhat-1
p672
aa(lp673
Vnsubj
p674
aVsingle-shot-8
p675
aVpercentage-2
p676
aa(lp677
Vdet
p678
aVespressos-5
p679
aVthe-4
p680
aa(lp681
Vprep_of
p682
aVpercentage-2
p683
aVespressos-5
p684
aa(lp685
Vvmod
p686
aVespressos-5
p687
aVsold-6
p688
aa(lp689
Vcop
p690
aVsingle-shot-8
p691
aVwere-7
p692
aasas.