(dp0
Vcoref
p1
(lp2
(lp3
(lp4
(lp5
Vits
p6
aI0
aI8
aI8
aI9
aa(lp7
V775,570
p8
aI0
aI2
aI2
aI3
aaa(lp9
(lp10
Vit
p11
aI1
aI1
aI1
aI2
aa(lp12
V775,570
p13
aI0
aI2
aI2
aI3
aaaasVsentences
p14
(lp15
(dp16
Vparsetree
p17
V(ROOT (S (NP (NNP Winchester)) (VP (VBD had) (NP (NP (CD 775,570) (NNS residents)) (PP (IN at) (NP (NP (DT the) (NN time)) (PP (IN of) (NP (PRP$ its) (NN founding))))))) (. .)))
p18
sVtext
p19
VWinchester had 775,570 residents at the time of its founding .
p20
sVdependencies
p21
(lp22
(lp23
Vroot
p24
aVROOT
p25
aVhad
p26
aa(lp27
Vnsubj
p28
aVhad
p29
aVWinchester
p30
aa(lp31
Vnum
p32
aVresidents
p33
aV775,570
p34
aa(lp35
Vdobj
p36
aVhad
p37
aVresidents
p38
aa(lp39
Vdet
p40
aVtime
p41
aVthe
p42
aa(lp43
Vprep_at
p44
aVresidents
p45
aVtime
p46
aa(lp47
Vposs
p48
aVfounding
p49
aVits
p50
aa(lp51
Vprep_of
p52
aVtime
p53
aVfounding
p54
aasVwords
p55
(lp56
(lp57
VWinchester
p58
a(dp59
VNamedEntityTag
p60
VPERSON
p61
sVCharacterOffsetEnd
p62
V11
p63
sVCharacterOffsetBegin
p64
V1
p65
sVPartOfSpeech
p66
VNNP
p67
sVLemma
p68
VWinchester
p69
saa(lp70
Vhad
p71
a(dp72
VNamedEntityTag
p73
VO
p74
sVCharacterOffsetEnd
p75
V15
p76
sVCharacterOffsetBegin
p77
V12
p78
sVPartOfSpeech
p79
VVBD
p80
sVLemma
p81
Vhave
p82
saa(lp83
V775,570
p84
a(dp85
VNormalizedNamedEntityTag
p86
V775570.0
p87
sVLemma
p88
V775,570
p89
sVCharacterOffsetEnd
p90
V23
p91
sVPartOfSpeech
p92
VCD
p93
sVCharacterOffsetBegin
p94
V16
p95
sVNamedEntityTag
p96
VNUMBER
p97
saa(lp98
Vresidents
p99
a(dp100
VNamedEntityTag
p101
g74
sVCharacterOffsetEnd
p102
V33
p103
sVCharacterOffsetBegin
p104
V24
p105
sVPartOfSpeech
p106
VNNS
p107
sVLemma
p108
Vresident
p109
saa(lp110
Vat
p111
a(dp112
VNamedEntityTag
p113
g74
sVCharacterOffsetEnd
p114
V36
p115
sVCharacterOffsetBegin
p116
V34
p117
sVPartOfSpeech
p118
VIN
p119
sVLemma
p120
Vat
p121
saa(lp122
Vthe
p123
a(dp124
VNamedEntityTag
p125
g74
sVCharacterOffsetEnd
p126
V40
p127
sVCharacterOffsetBegin
p128
V37
p129
sVPartOfSpeech
p130
VDT
p131
sVLemma
p132
Vthe
p133
saa(lp134
Vtime
p135
a(dp136
VNamedEntityTag
p137
g74
sVCharacterOffsetEnd
p138
V45
p139
sVCharacterOffsetBegin
p140
V41
p141
sVPartOfSpeech
p142
VNN
p143
sVLemma
p144
Vtime
p145
saa(lp146
Vof
p147
a(dp148
VNamedEntityTag
p149
g74
sVCharacterOffsetEnd
p150
V48
p151
sVCharacterOffsetBegin
p152
V46
p153
sVPartOfSpeech
p154
VIN
p155
sVLemma
p156
Vof
p157
saa(lp158
Vits
p159
a(dp160
VNamedEntityTag
p161
g74
sVCharacterOffsetEnd
p162
V52
p163
sVCharacterOffsetBegin
p164
V49
p165
sVPartOfSpeech
p166
VPRP$
p167
sVLemma
p168
Vits
p169
saa(lp170
Vfounding
p171
a(dp172
VNamedEntityTag
p173
g74
sVCharacterOffsetEnd
p174
V61
p175
sVCharacterOffsetBegin
p176
V53
p177
sVPartOfSpeech
p178
VNN
p179
sVLemma
p180
Vfounding
p181
saa(lp182
V.
p183
a(dp184
VNamedEntityTag
p185
g74
sVCharacterOffsetEnd
p186
V63
p187
sVCharacterOffsetBegin
p188
V62
p189
sVPartOfSpeech
p190
g183
sVLemma
p191
g183
saasVindexeddependencies
p192
(lp193
(lp194
Vroot
p195
aVROOT-0
p196
aVhad-2
p197
aa(lp198
Vnsubj
p199
aVhad-2
p200
aVWinchester-1
p201
aa(lp202
Vnum
p203
aVresidents-4
p204
aV775,570-3
p205
aa(lp206
Vdobj
p207
aVhad-2
p208
aVresidents-4
p209
aa(lp210
Vdet
p211
aVtime-7
p212
aVthe-6
p213
aa(lp214
Vprep_at
p215
aVresidents-4
p216
aVtime-7
p217
aa(lp218
Vposs
p219
aVfounding-10
p220
aVits-9
p221
aa(lp222
Vprep_of
p223
aVtime-7
p224
aVfounding-10
p225
aasa(dp226
Vparsetree
p227
V(ROOT (S (ADVP (RB Currently)) (NP (PRP it)) (VP (VBZ is) (ADJP (NP (CD 0.2) (NNS times)) (JJR smaller))) (. .)))
p228
sVtext
p229
VCurrently it is 0.2 times smaller .
p230
sVdependencies
p231
(lp232
(lp233
Vroot
p234
aVROOT
p235
aVsmaller
p236
aa(lp237
Vadvmod
p238
aVsmaller
p239
aVCurrently
p240
aa(lp241
Vnsubj
p242
aVsmaller
p243
aVit
p244
aa(lp245
Vcop
p246
aVsmaller
p247
aVis
p248
aa(lp249
Vnum
p250
aVtimes
p251
aV0.2
p252
aa(lp253
Vnpadvmod
p254
aVsmaller
p255
aVtimes
p256
aasVwords
p257
(lp258
(lp259
VCurrently
p260
a(dp261
VNormalizedNamedEntityTag
p262
VPRESENT_REF
p263
sVTimex
p264
V<TIMEX3 tid="t1" type="DATE" value="PRESENT_REF">Currently</TIMEX3>
p265
sVLemma
p266
Vcurrently
p267
sVCharacterOffsetEnd
p268
V73
p269
sVPartOfSpeech
p270
VRB
p271
sVCharacterOffsetBegin
p272
V64
p273
sVNamedEntityTag
p274
VDATE
p275
saa(lp276
Vit
p277
a(dp278
VNamedEntityTag
p279
g74
sVCharacterOffsetEnd
p280
V76
p281
sVCharacterOffsetBegin
p282
V74
p283
sVPartOfSpeech
p284
VPRP
p285
sVLemma
p286
Vit
p287
saa(lp288
Vis
p289
a(dp290
VNamedEntityTag
p291
g74
sVCharacterOffsetEnd
p292
V79
p293
sVCharacterOffsetBegin
p294
V77
p295
sVPartOfSpeech
p296
VVBZ
p297
sVLemma
p298
Vbe
p299
saa(lp300
V0.2
p301
a(dp302
VNormalizedNamedEntityTag
p303
V0.2
p304
sVLemma
p305
V0.2
p306
sVCharacterOffsetEnd
p307
V83
p308
sVPartOfSpeech
p309
VCD
p310
sVCharacterOffsetBegin
p311
V80
p312
sVNamedEntityTag
p313
VNUMBER
p314
saa(lp315
Vtimes
p316
a(dp317
VNamedEntityTag
p318
g74
sVCharacterOffsetEnd
p319
V89
p320
sVCharacterOffsetBegin
p321
V84
p322
sVPartOfSpeech
p323
VNNS
p324
sVLemma
p325
Vtime
p326
saa(lp327
Vsmaller
p328
a(dp329
VNamedEntityTag
p330
g74
sVCharacterOffsetEnd
p331
V97
p332
sVCharacterOffsetBegin
p333
V90
p334
sVPartOfSpeech
p335
VJJR
p336
sVLemma
p337
Vsmaller
p338
saa(lp339
g183
a(dp340
VNamedEntityTag
p341
g74
sVCharacterOffsetEnd
p342
V99
p343
sVCharacterOffsetBegin
p344
V98
p345
sVPartOfSpeech
p346
g183
sVLemma
p347
g183
saasVindexeddependencies
p348
(lp349
(lp350
Vroot
p351
aVROOT-0
p352
aVsmaller-6
p353
aa(lp354
Vadvmod
p355
aVsmaller-6
p356
aVCurrently-1
p357
aa(lp358
Vnsubj
p359
aVsmaller-6
p360
aVit-2
p361
aa(lp362
Vcop
p363
aVsmaller-6
p364
aVis-3
p365
aa(lp366
Vnum
p367
aVtimes-5
p368
aV0.2-4
p369
aa(lp370
Vnpadvmod
p371
aVsmaller-6
p372
aVtimes-5
p373
aasa(dp374
Vparsetree
p375
V(ROOT (SBARQ (WHNP (WP What)) (SQ (VBZ is) (NP (DT the) (JJ current) (NN population))) (. ?)))
p376
sVtext
p377
VWhat is the current population ?
p378
sVdependencies
p379
(lp380
(lp381
Vroot
p382
aVROOT
p383
aVWhat
p384
aa(lp385
Vcop
p386
aVWhat
p387
aVis
p388
aa(lp389
Vdet
p390
aVpopulation
p391
aVthe
p392
aa(lp393
Vamod
p394
aVpopulation
p395
aVcurrent
p396
aa(lp397
Vnsubj
p398
aVWhat
p399
aVpopulation
p400
aasVwords
p401
(lp402
(lp403
VWhat
p404
a(dp405
VNamedEntityTag
p406
g74
sVCharacterOffsetEnd
p407
V104
p408
sVCharacterOffsetBegin
p409
V100
p410
sVPartOfSpeech
p411
VWP
p412
sVLemma
p413
Vwhat
p414
saa(lp415
Vis
p416
a(dp417
VNamedEntityTag
p418
g74
sVCharacterOffsetEnd
p419
V107
p420
sVCharacterOffsetBegin
p421
V105
p422
sVPartOfSpeech
p423
VVBZ
p424
sVLemma
p425
Vbe
p426
saa(lp427
Vthe
p428
a(dp429
VNamedEntityTag
p430
g74
sVCharacterOffsetEnd
p431
V111
p432
sVCharacterOffsetBegin
p433
V108
p434
sVPartOfSpeech
p435
VDT
p436
sVLemma
p437
Vthe
p438
saa(lp439
Vcurrent
p440
a(dp441
VNormalizedNamedEntityTag
p442
VPRESENT_REF
p443
sVTimex
p444
V<TIMEX3 tid="t2" type="DATE" value="PRESENT_REF">current</TIMEX3>
p445
sVLemma
p446
Vcurrent
p447
sVCharacterOffsetEnd
p448
V119
p449
sVPartOfSpeech
p450
VJJ
p451
sVCharacterOffsetBegin
p452
V112
p453
sVNamedEntityTag
p454
VDATE
p455
saa(lp456
Vpopulation
p457
a(dp458
VNamedEntityTag
p459
g74
sVCharacterOffsetEnd
p460
V130
p461
sVCharacterOffsetBegin
p462
V120
p463
sVPartOfSpeech
p464
VNN
p465
sVLemma
p466
Vpopulation
p467
saa(lp468
V?
p469
a(dp470
VNamedEntityTag
p471
g74
sVCharacterOffsetEnd
p472
V132
p473
sVCharacterOffsetBegin
p474
V131
p475
sVPartOfSpeech
p476
g183
sVLemma
p477
g469
saasVindexeddependencies
p478
(lp479
(lp480
Vroot
p481
aVROOT-0
p482
aVWhat-1
p483
aa(lp484
Vcop
p485
aVWhat-1
p486
aVis-2
p487
aa(lp488
Vdet
p489
aVpopulation-5
p490
aVthe-3
p491
aa(lp492
Vamod
p493
aVpopulation-5
p494
aVcurrent-4
p495
aa(lp496
Vnsubj
p497
aVWhat-1
p498
aVpopulation-5
p499
aasas.