(dp0
Vcoref
p1
(lp2
(lp3
(lp4
(lp5
Vhe
p6
aI1
aI2
aI2
aI3
aa(lp7
VRoger
p8
aI0
aI0
aI0
aI1
aaa(lp9
(lp10
Vhe
p11
aI2
aI1
aI1
aI2
aa(lp12
VRoger
p13
aI0
aI0
aI0
aI1
aaa(lp14
(lp15
Vhis
p16
aI2
aI7
aI7
aI8
aa(lp17
VRoger
p18
aI0
aI0
aI0
aI1
aaa(lp19
(lp20
Vhe
p21
aI2
aI14
aI14
aI15
aa(lp22
VRoger
p23
aI0
aI0
aI0
aI1
aaaasVsentences
p24
(lp25
(dp26
Vparsetree
p27
V(ROOT (S (NP (NNP Roger)) (VP (VBD had) (NP (NP (CD 45) (NNS dollars)) (PP (IN in) (NP (NNP January))))) (. .)))
p28
sVtext
p29
VRoger had 45 dollars in January .
p30
sVdependencies
p31
(lp32
(lp33
Vroot
p34
aVROOT
p35
aVhad
p36
aa(lp37
Vnsubj
p38
aVhad
p39
aVRoger
p40
aa(lp41
Vnum
p42
aVdollars
p43
aV45
p44
aa(lp45
Vdobj
p46
aVhad
p47
aVdollars
p48
aa(lp49
Vprep_in
p50
aVdollars
p51
aVJanuary
p52
aasVwords
p53
(lp54
(lp55
VRoger
p56
a(dp57
VNamedEntityTag
p58
VPERSON
p59
sVCharacterOffsetEnd
p60
V6
p61
sVCharacterOffsetBegin
p62
V1
p63
sVPartOfSpeech
p64
VNNP
p65
sVLemma
p66
VRoger
p67
saa(lp68
Vhad
p69
a(dp70
VNamedEntityTag
p71
VO
p72
sVCharacterOffsetEnd
p73
V10
p74
sVCharacterOffsetBegin
p75
V7
p76
sVPartOfSpeech
p77
VVBD
p78
sVLemma
p79
Vhave
p80
saa(lp81
V45
p82
a(dp83
VNormalizedNamedEntityTag
p84
V$45.0
p85
sVLemma
p86
V45
p87
sVCharacterOffsetEnd
p88
V13
p89
sVPartOfSpeech
p90
VCD
p91
sVCharacterOffsetBegin
p92
V11
p93
sVNamedEntityTag
p94
VMONEY
p95
saa(lp96
Vdollars
p97
a(dp98
VNormalizedNamedEntityTag
p99
V$45.0
p100
sVLemma
p101
Vdollar
p102
sVCharacterOffsetEnd
p103
V21
p104
sVPartOfSpeech
p105
VNNS
p106
sVCharacterOffsetBegin
p107
V14
p108
sVNamedEntityTag
p109
VMONEY
p110
saa(lp111
Vin
p112
a(dp113
VNamedEntityTag
p114
g72
sVCharacterOffsetEnd
p115
V24
p116
sVCharacterOffsetBegin
p117
V22
p118
sVPartOfSpeech
p119
VIN
p120
sVLemma
p121
Vin
p122
saa(lp123
VJanuary
p124
a(dp125
VNormalizedNamedEntityTag
p126
VXXXX-01
p127
sVTimex
p128
V<TIMEX3 tid="t1" type="DATE" value="XXXX-01">January</TIMEX3>
p129
sVLemma
p130
VJanuary
p131
sVCharacterOffsetEnd
p132
V32
p133
sVPartOfSpeech
p134
VNNP
p135
sVCharacterOffsetBegin
p136
V25
p137
sVNamedEntityTag
p138
VDATE
p139
saa(lp140
V.
p141
a(dp142
VNamedEntityTag
p143
g72
sVCharacterOffsetEnd
p144
V34
p145
sVCharacterOffsetBegin
p146
V33
p147
sVPartOfSpeech
p148
g141
sVLemma
p149
g141
saasVindexeddependencies
p150
(lp151
(lp152
Vroot
p153
aVROOT-0
p154
aVhad-2
p155
aa(lp156
Vnsubj
p157
aVhad-2
p158
aVRoger-1
p159
aa(lp160
Vnum
p161
aVdollars-4
p162
aV45-3
p163
aa(lp164
Vdobj
p165
aVhad-2
p166
aVdollars-4
p167
aa(lp168
Vprep_in
p169
aVdollars-4
p170
aVJanuary-6
p171
aasa(dp172
Vparsetree
p173
V(ROOT (S (PP (IN By) (NP (NNP March))) (NP (PRP he)) (VP (VBD had) (VP (VBN spent) (NP (CD 20) (NNS dollars)))) (. .)))
p174
sVtext
p175
VBy March he had spent 20 dollars .
p176
sVdependencies
p177
(lp178
(lp179
Vroot
p180
aVROOT
p181
aVspent
p182
aa(lp183
Vprep_by
p184
aVspent
p185
aVMarch
p186
aa(lp187
Vnsubj
p188
aVspent
p189
aVhe
p190
aa(lp191
Vaux
p192
aVspent
p193
aVhad
p194
aa(lp195
Vnum
p196
aVdollars
p197
aV20
p198
aa(lp199
Vdobj
p200
aVspent
p201
aVdollars
p202
aasVwords
p203
(lp204
(lp205
VBy
p206
a(dp207
VNamedEntityTag
p208
g72
sVCharacterOffsetEnd
p209
V37
p210
sVCharacterOffsetBegin
p211
V35
p212
sVPartOfSpeech
p213
VIN
p214
sVLemma
p215
Vby
p216
saa(lp217
VMarch
p218
a(dp219
VNormalizedNamedEntityTag
p220
VXXXX-03
p221
sVTimex
p222
V<TIMEX3 tid="t2" type="DATE" value="XXXX-03">March</TIMEX3>
p223
sVLemma
p224
VMarch
p225
sVCharacterOffsetEnd
p226
V43
p227
sVPartOfSpeech
p228
VNNP
p229
sVCharacterOffsetBegin
p230
V38
p231
sVNamedEntityTag
p232
VDATE
p233
saa(lp234
Vhe
p235
a(dp236
VNamedEntityTag
p237
g72
sVCharacterOffsetEnd
p238
V46
p239
sVCharacterOffsetBegin
p240
V44
p241
sVPartOfSpeech
p242
VPRP
p243
sVLemma
p244
Vhe
p245
saa(lp246
Vhad
p247
a(dp248
VNamedEntityTag
p249
g72
sVCharacterOffsetEnd
p250
V50
p251
sVCharacterOffsetBegin
p252
V47
p253
sVPartOfSpeech
p254
VVBD
p255
sVLemma
p256
Vhave
p257
saa(lp258
Vspent
p259
a(dp260
VNamedEntityTag
p261
g72
sVCharacterOffsetEnd
p262
V56
p263
sVCharacterOffsetBegin
p264
V51
p265
sVPartOfSpeech
p266
VVBN
p267
sVLemma
p268
Vspend
p269
saa(lp270
V20
p271
a(dp272
VNormalizedNamedEntityTag
p273
V$20.0
p274
sVLemma
p275
V20
p276
sVCharacterOffsetEnd
p277
V59
p278
sVPartOfSpeech
p279
VCD
p280
sVCharacterOffsetBegin
p281
V57
p282
sVNamedEntityTag
p283
VMONEY
p284
saa(lp285
Vdollars
p286
a(dp287
VNormalizedNamedEntityTag
p288
V$20.0
p289
sVLemma
p290
Vdollar
p291
sVCharacterOffsetEnd
p292
V67
p293
sVPartOfSpeech
p294
VNNS
p295
sVCharacterOffsetBegin
p296
V60
p297
sVNamedEntityTag
p298
VMONEY
p299
saa(lp300
g141
a(dp301
VNamedEntityTag
p302
g72
sVCharacterOffsetEnd
p303
V69
p304
sVCharacterOffsetBegin
p305
V68
p306
sVPartOfSpeech
p307
g141
sVLemma
p308
g141
saasVindexeddependencies
p309
(lp310
(lp311
Vroot
p312
aVROOT-0
p313
aVspent-5
p314
aa(lp315
Vprep_by
p316
aVspent-5
p317
aVMarch-2
p318
aa(lp319
Vnsubj
p320
aVspent-5
p321
aVhe-3
p322
aa(lp323
Vaux
p324
aVspent-5
p325
aVhad-4
p326
aa(lp327
Vnum
p328
aVdollars-7
p329
aV20-6
p330
aa(lp331
Vdobj
p332
aVspent-5
p333
aVdollars-7
p334
aasa(dp335
Vparsetree
p336
V(ROOT (SBARQ (SBAR (IN If) (S (NP (PRP he)) (VP (VBD got) (NP (DT another) (CD 46) (NNS dollars)) (PP (IN from) (NP (PRP$ his) (NN mom)))))) (, ,) (WHNP (WHADJP (WRB how) (JJ much)) (NN money)) (SQ (MD would) (NP (PRP he)) (VP (VB have))) (. ?)))
p337
sVtext
p338
VIf he got another 46 dollars from his mom , how much money would he have ?
p339
sVdependencies
p340
(lp341
(lp342
Vroot
p343
aVROOT
p344
aVhave
p345
aa(lp346
Vmark
p347
aVgot
p348
aVIf
p349
aa(lp350
Vnsubj
p351
aVgot
p352
aVhe
p353
aa(lp354
Vadvcl
p355
aVhave
p356
aVgot
p357
aa(lp358
Vdet
p359
aVdollars
p360
aVanother
p361
aa(lp362
Vnum
p363
aVdollars
p364
aV46
p365
aa(lp366
Vdobj
p367
aVgot
p368
aVdollars
p369
aa(lp370
Vposs
p371
aVmom
p372
aVhis
p373
aa(lp374
Vprep_from
p375
aVgot
p376
aVmom
p377
aa(lp378
Vadvmod
p379
aVmuch
p380
aVhow
p381
aa(lp382
Vamod
p383
aVmoney
p384
aVmuch
p385
aa(lp386
Vdobj
p387
aVhave
p388
aVmoney
p389
aa(lp390
Vaux
p391
aVhave
p392
aVwould
p393
aa(lp394
Vnsubj
p395
aVhave
p396
aVhe
p397
aasVwords
p398
(lp399
(lp400
VIf
p401
a(dp402
VNamedEntityTag
p403
g72
sVCharacterOffsetEnd
p404
V72
p405
sVCharacterOffsetBegin
p406
V70
p407
sVPartOfSpeech
p408
VIN
p409
sVLemma
p410
Vif
p411
saa(lp412
Vhe
p413
a(dp414
VNamedEntityTag
p415
g72
sVCharacterOffsetEnd
p416
V75
p417
sVCharacterOffsetBegin
p418
V73
p419
sVPartOfSpeech
p420
VPRP
p421
sVLemma
p422
Vhe
p423
saa(lp424
Vgot
p425
a(dp426
VNamedEntityTag
p427
g72
sVCharacterOffsetEnd
p428
V79
p429
sVCharacterOffsetBegin
p430
V76
p431
sVPartOfSpeech
p432
VVBD
p433
sVLemma
p434
Vget
p435
saa(lp436
Vanother
p437
a(dp438
VNamedEntityTag
p439
g72
sVCharacterOffsetEnd
p440
V87
p441
sVCharacterOffsetBegin
p442
V80
p443
sVPartOfSpeech
p444
VDT
p445
sVLemma
p446
Vanother
p447
saa(lp448
V46
p449
a(dp450
VNormalizedNamedEntityTag
p451
V$46.0
p452
sVLemma
p453
V46
p454
sVCharacterOffsetEnd
p455
V90
p456
sVPartOfSpeech
p457
VCD
p458
sVCharacterOffsetBegin
p459
V88
p460
sVNamedEntityTag
p461
VMONEY
p462
saa(lp463
Vdollars
p464
a(dp465
VNormalizedNamedEntityTag
p466
V$46.0
p467
sVLemma
p468
Vdollar
p469
sVCharacterOffsetEnd
p470
V98
p471
sVPartOfSpeech
p472
VNNS
p473
sVCharacterOffsetBegin
p474
V91
p475
sVNamedEntityTag
p476
VMONEY
p477
saa(lp478
Vfrom
p479
a(dp480
VNamedEntityTag
p481
g72
sVCharacterOffsetEnd
p482
V103
p483
sVCharacterOffsetBegin
p484
V99
p485
sVPartOfSpeech
p486
VIN
p487
sVLemma
p488
Vfrom
p489
saa(lp490
Vhis
p491
a(dp492
VNamedEntityTag
p493
g72
sVCharacterOffsetEnd
p494
V107
p495
sVCharacterOffsetBegin
p496
V104
p497
sVPartOfSpeech
p498
VPRP$
p499
sVLemma
p500
Vhe
p501
saa(lp502
Vmom
p503
a(dp504
VNamedEntityTag
p505
g72
sVCharacterOffsetEnd
p506
V111
p507
sVCharacterOffsetBegin
p508
V108
p509
sVPartOfSpeech
p510
VNN
p511
sVLemma
p512
Vmom
p513
saa(lp514
V,
p515
a(dp516
VNamedEntityTag
p517
g72
sVCharacterOffsetEnd
p518
V113
p519
sVCharacterOffsetBegin
p520
V112
p521
sVPartOfSpeech
p522
g515
sVLemma
p523
g515
saa(lp524
Vhow
p525
a(dp526
VNamedEntityTag
p527
g72
sVCharacterOffsetEnd
p528
V117
p529
sVCharacterOffsetBegin
p530
V114
p531
sVPartOfSpeech
p532
VWRB
p533
sVLemma
p534
Vhow
p535
saa(lp536
Vmuch
p537
a(dp538
VNamedEntityTag
p539
g72
sVCharacterOffsetEnd
p540
V122
p541
sVCharacterOffsetBegin
p542
V118
p543
sVPartOfSpeech
p544
VJJ
p545
sVLemma
p546
Vmuch
p547
saa(lp548
Vmoney
p549
a(dp550
VNamedEntityTag
p551
g72
sVCharacterOffsetEnd
p552
V128
p553
sVCharacterOffsetBegin
p554
V123
p555
sVPartOfSpeech
p556
VNN
p557
sVLemma
p558
Vmoney
p559
saa(lp560
Vwould
p561
a(dp562
VNamedEntityTag
p563
g72
sVCharacterOffsetEnd
p564
V134
p565
sVCharacterOffsetBegin
p566
V129
p567
sVPartOfSpeech
p568
VMD
p569
sVLemma
p570
Vwould
p571
saa(lp572
Vhe
p573
a(dp574
VNamedEntityTag
p575
g72
sVCharacterOffsetEnd
p576
V137
p577
sVCharacterOffsetBegin
p578
V135
p579
sVPartOfSpeech
p580
VPRP
p581
sVLemma
p582
Vhe
p583
saa(lp584
Vhave
p585
a(dp586
VNamedEntityTag
p587
g72
sVCharacterOffsetEnd
p588
V142
p589
sVCharacterOffsetBegin
p590
V138
p591
sVPartOfSpeech
p592
VVB
p593
sVLemma
p594
Vhave
p595
saa(lp596
V?
p597
a(dp598
VNamedEntityTag
p599
g72
sVCharacterOffsetEnd
p600
V144
p601
sVCharacterOffsetBegin
p602
V143
p603
sVPartOfSpeech
p604
g141
sVLemma
p605
g597
saasVindexeddependencies
p606
(lp607
(lp608
Vroot
p609
aVROOT-0
p610
aVhave-16
p611
aa(lp612
Vmark
p613
aVgot-3
p614
aVIf-1
p615
aa(lp616
Vnsubj
p617
aVgot-3
p618
aVhe-2
p619
aa(lp620
Vadvcl
p621
aVhave-16
p622
aVgot-3
p623
aa(lp624
Vdet
p625
aVdollars-6
p626
aVanother-4
p627
aa(lp628
Vnum
p629
aVdollars-6
p630
aV46-5
p631
aa(lp632
Vdobj
p633
aVgot-3
p634
aVdollars-6
p635
aa(lp636
Vposs
p637
aVmom-9
p638
aVhis-8
p639
aa(lp640
Vprep_from
p641
aVgot-3
p642
aVmom-9
p643
aa(lp644
Vadvmod
p645
aVmuch-12
p646
aVhow-11
p647
aa(lp648
Vamod
p649
aVmoney-13
p650
aVmuch-12
p651
aa(lp652
Vdobj
p653
aVhave-16
p654
aVmoney-13
p655
aa(lp656
Vaux
p657
aVhave-16
p658
aVwould-14
p659
aa(lp660
Vnsubj
p661
aVhave-16
p662
aVhe-15
p663
aasas.