(dp0
Vcoref
p1
(lp2
(lp3
(lp4
(lp5
Van online music service
p6
aI0
aI9
aI6
aI10
aa(lp7
VRhythm Time
p8
aI0
aI4
aI3
aI5
aaaa(lp9
(lp10
(lp11
Vthey
p12
aI2
aI4
aI4
aI5
aa(lp13
VThe customers of Rhythm Time , an online music service
p14
aI0
aI1
aI0
aI10
aaaa(lp15
(lp16
(lp17
VThis year
p18
aI1
aI1
aI0
aI2
aa(lp19
Vlast year
p20
aI0
aI15
aI14
aI16
aaa(lp21
(lp22
Vthis year
p23
aI2
aI7
aI6
aI8
aa(lp24
Vlast year
p25
aI0
aI15
aI14
aI16
aaaasVsentences
p26
(lp27
(dp28
Vparsetree
p29
V(ROOT (S (NP (NP (DT The) (NNS customers)) (PP (IN of) (NP (NP (NNP Rhythm) (NNP Time)) (, ,) (NP (DT an) (JJ online) (NN music) (NN service)) (, ,)))) (VP (VBD downloaded) (NP (CD 283,560) (NNS songs)) (NP-TMP (JJ last) (NN year))) (. .)))
p30
sVtext
p31
VThe customers of Rhythm Time , an online music service , downloaded 283,560 songs last year .
p32
sVdependencies
p33
(lp34
(lp35
Vroot
p36
aVROOT
p37
aVdownloaded
p38
aa(lp39
Vdet
p40
aVcustomers
p41
aVThe
p42
aa(lp43
Vnsubj
p44
aVdownloaded
p45
aVcustomers
p46
aa(lp47
Vnn
p48
aVTime
p49
aVRhythm
p50
aa(lp51
Vprep_of
p52
aVcustomers
p53
aVTime
p54
aa(lp55
Vdet
p56
aVservice
p57
aVan
p58
aa(lp59
Vamod
p60
aVservice
p61
aVonline
p62
aa(lp63
Vnn
p64
aVservice
p65
aVmusic
p66
aa(lp67
Vappos
p68
aVTime
p69
aVservice
p70
aa(lp71
Vnum
p72
aVsongs
p73
aV283,560
p74
aa(lp75
Vdobj
p76
aVdownloaded
p77
aVsongs
p78
aa(lp79
Vamod
p80
aVyear
p81
aVlast
p82
aa(lp83
Vtmod
p84
aVdownloaded
p85
aVyear
p86
aasVwords
p87
(lp88
(lp89
VThe
p90
a(dp91
VNamedEntityTag
p92
VO
p93
sVCharacterOffsetEnd
p94
V4
p95
sVCharacterOffsetBegin
p96
V1
p97
sVPartOfSpeech
p98
VDT
p99
sVLemma
p100
Vthe
p101
saa(lp102
Vcustomers
p103
a(dp104
VNamedEntityTag
p105
g93
sVCharacterOffsetEnd
p106
V14
p107
sVCharacterOffsetBegin
p108
V5
p109
sVPartOfSpeech
p110
VNNS
p111
sVLemma
p112
Vcustomer
p113
saa(lp114
Vof
p115
a(dp116
VNamedEntityTag
p117
g93
sVCharacterOffsetEnd
p118
V17
p119
sVCharacterOffsetBegin
p120
V15
p121
sVPartOfSpeech
p122
VIN
p123
sVLemma
p124
Vof
p125
saa(lp126
VRhythm
p127
a(dp128
VNamedEntityTag
p129
VMISC
p130
sVCharacterOffsetEnd
p131
V24
p132
sVCharacterOffsetBegin
p133
V18
p134
sVPartOfSpeech
p135
VNNP
p136
sVLemma
p137
VRhythm
p138
saa(lp139
VTime
p140
a(dp141
VNamedEntityTag
p142
VMISC
p143
sVCharacterOffsetEnd
p144
V29
p145
sVCharacterOffsetBegin
p146
V25
p147
sVPartOfSpeech
p148
VNNP
p149
sVLemma
p150
VTime
p151
saa(lp152
V,
p153
a(dp154
VNamedEntityTag
p155
g93
sVCharacterOffsetEnd
p156
V31
p157
sVCharacterOffsetBegin
p158
V30
p159
sVPartOfSpeech
p160
g153
sVLemma
p161
g153
saa(lp162
Van
p163
a(dp164
VNamedEntityTag
p165
g93
sVCharacterOffsetEnd
p166
V34
p167
sVCharacterOffsetBegin
p168
V32
p169
sVPartOfSpeech
p170
VDT
p171
sVLemma
p172
Va
p173
saa(lp174
Vonline
p175
a(dp176
VNamedEntityTag
p177
g93
sVCharacterOffsetEnd
p178
V41
p179
sVCharacterOffsetBegin
p180
V35
p181
sVPartOfSpeech
p182
VJJ
p183
sVLemma
p184
Vonline
p185
saa(lp186
Vmusic
p187
a(dp188
VNamedEntityTag
p189
g93
sVCharacterOffsetEnd
p190
V47
p191
sVCharacterOffsetBegin
p192
V42
p193
sVPartOfSpeech
p194
VNN
p195
sVLemma
p196
Vmusic
p197
saa(lp198
Vservice
p199
a(dp200
VNamedEntityTag
p201
g93
sVCharacterOffsetEnd
p202
V55
p203
sVCharacterOffsetBegin
p204
V48
p205
sVPartOfSpeech
p206
VNN
p207
sVLemma
p208
Vservice
p209
saa(lp210
g153
a(dp211
VNamedEntityTag
p212
g93
sVCharacterOffsetEnd
p213
V57
p214
sVCharacterOffsetBegin
p215
V56
p216
sVPartOfSpeech
p217
g153
sVLemma
p218
g153
saa(lp219
Vdownloaded
p220
a(dp221
VNamedEntityTag
p222
g93
sVCharacterOffsetEnd
p223
V68
p224
sVCharacterOffsetBegin
p225
V58
p226
sVPartOfSpeech
p227
VVBD
p228
sVLemma
p229
Vdownload
p230
saa(lp231
V283,560
p232
a(dp233
VNormalizedNamedEntityTag
p234
V283560.0
p235
sVLemma
p236
V283,560
p237
sVCharacterOffsetEnd
p238
V76
p239
sVPartOfSpeech
p240
VCD
p241
sVCharacterOffsetBegin
p242
V69
p243
sVNamedEntityTag
p244
VNUMBER
p245
saa(lp246
Vsongs
p247
a(dp248
VNamedEntityTag
p249
g93
sVCharacterOffsetEnd
p250
V82
p251
sVCharacterOffsetBegin
p252
V77
p253
sVPartOfSpeech
p254
VNNS
p255
sVLemma
p256
Vsong
p257
saa(lp258
Vlast
p259
a(dp260
VNormalizedNamedEntityTag
p261
VTHIS
p262
sVTimex
p263
V<TIMEX3 alt_value="THIS P1Y OFFSET P-1Y" anchorTimeID="t2" temporalFunction="true" tid="t1" type="DATE" valueFromFunction="tf0">last year</TIMEX3>
p264
sVLemma
p265
Vlast
p266
sVCharacterOffsetEnd
p267
V87
p268
sVPartOfSpeech
p269
VJJ
p270
sVCharacterOffsetBegin
p271
V83
p272
sVNamedEntityTag
p273
VDATE
p274
saa(lp275
Vyear
p276
a(dp277
VNormalizedNamedEntityTag
p278
VTHIS
p279
sVTimex
p280
V<TIMEX3 alt_value="THIS P1Y OFFSET P-1Y" anchorTimeID="t2" temporalFunction="true" tid="t1" type="DATE" valueFromFunction="tf0">last year</TIMEX3>
p281
sVLemma
p282
Vyear
p283
sVCharacterOffsetEnd
p284
V92
p285
sVPartOfSpeech
p286
VNN
p287
sVCharacterOffsetBegin
p288
V88
p289
sVNamedEntityTag
p290
VDATE
p291
saa(lp292
V.
p293
a(dp294
VNamedEntityTag
p295
g93
sVCharacterOffsetEnd
p296
V94
p297
sVCharacterOffsetBegin
p298
V93
p299
sVPartOfSpeech
p300
g293
sVLemma
p301
g293
saasVindexeddependencies
p302
(lp303
(lp304
Vroot
p305
aVROOT-0
p306
aVdownloaded-12
p307
aa(lp308
Vdet
p309
aVcustomers-2
p310
aVThe-1
p311
aa(lp312
Vnsubj
p313
aVdownloaded-12
p314
aVcustomers-2
p315
aa(lp316
Vnn
p317
aVTime-5
p318
aVRhythm-4
p319
aa(lp320
Vprep_of
p321
aVcustomers-2
p322
aVTime-5
p323
aa(lp324
Vdet
p325
aVservice-10
p326
aVan-7
p327
aa(lp328
Vamod
p329
aVservice-10
p330
aVonline-8
p331
aa(lp332
Vnn
p333
aVservice-10
p334
aVmusic-9
p335
aa(lp336
Vappos
p337
aVTime-5
p338
aVservice-10
p339
aa(lp340
Vnum
p341
aVsongs-14
p342
aV283,560-13
p343
aa(lp344
Vdobj
p345
aVdownloaded-12
p346
aVsongs-14
p347
aa(lp348
Vamod
p349
aVyear-16
p350
aVlast-15
p351
aa(lp352
Vtmod
p353
aVdownloaded-12
p354
aVyear-16
p355
aasa(dp356
Vparsetree
p357
V(ROOT (S (NP-TMP (DT This) (NN year)) (, ,) (NP (DT the) (NN number)) (VP (VBD was) (ADJP (QP (CD 0.55) (NNS times)) (JJR higher))) (. .)))
p358
sVtext
p359
VThis year , the number was 0.55 times higher .
p360
sVdependencies
p361
(lp362
(lp363
Vroot
p364
aVROOT
p365
aVtimes
p366
aa(lp367
Vdet
p368
aVyear
p369
aVThis
p370
aa(lp371
Vtmod
p372
aVtimes
p373
aVyear
p374
aa(lp375
Vdet
p376
aVnumber
p377
aVthe
p378
aa(lp379
Vnsubj
p380
aVtimes
p381
aVnumber
p382
aa(lp383
Vcop
p384
aVtimes
p385
aVwas
p386
aa(lp387
Vnumber
p388
aVtimes
p389
aV0.55
p390
aa(lp391
Vdep
p392
aVtimes
p393
aVhigher
p394
aasVwords
p395
(lp396
(lp397
VThis
p398
a(dp399
VNormalizedNamedEntityTag
p400
VTHIS
p401
sVTimex
p402
V<TIMEX3 alt_value="THIS P1Y" anchorTimeID="t0" temporalFunction="true" tid="t3" type="DATE" valueFromFunction="tf1">This year</TIMEX3>
p403
sVLemma
p404
Vthis
p405
sVCharacterOffsetEnd
p406
V99
p407
sVPartOfSpeech
p408
VDT
p409
sVCharacterOffsetBegin
p410
V95
p411
sVNamedEntityTag
p412
VDATE
p413
saa(lp414
Vyear
p415
a(dp416
VNormalizedNamedEntityTag
p417
VTHIS
p418
sVTimex
p419
V<TIMEX3 alt_value="THIS P1Y" anchorTimeID="t0" temporalFunction="true" tid="t3" type="DATE" valueFromFunction="tf1">This year</TIMEX3>
p420
sVLemma
p421
Vyear
p422
sVCharacterOffsetEnd
p423
V104
p424
sVPartOfSpeech
p425
VNN
p426
sVCharacterOffsetBegin
p427
V100
p428
sVNamedEntityTag
p429
VDATE
p430
saa(lp431
g153
a(dp432
VNamedEntityTag
p433
g93
sVCharacterOffsetEnd
p434
V106
p435
sVCharacterOffsetBegin
p436
V105
p437
sVPartOfSpeech
p438
g153
sVLemma
p439
g153
saa(lp440
Vthe
p441
a(dp442
VNamedEntityTag
p443
g93
sVCharacterOffsetEnd
p444
V110
p445
sVCharacterOffsetBegin
p446
V107
p447
sVPartOfSpeech
p448
VDT
p449
sVLemma
p450
Vthe
p451
saa(lp452
Vnumber
p453
a(dp454
VNamedEntityTag
p455
g93
sVCharacterOffsetEnd
p456
V117
p457
sVCharacterOffsetBegin
p458
V111
p459
sVPartOfSpeech
p460
VNN
p461
sVLemma
p462
Vnumber
p463
saa(lp464
Vwas
p465
a(dp466
VNamedEntityTag
p467
g93
sVCharacterOffsetEnd
p468
V121
p469
sVCharacterOffsetBegin
p470
V118
p471
sVPartOfSpeech
p472
VVBD
p473
sVLemma
p474
Vbe
p475
saa(lp476
V0.55
p477
a(dp478
VNormalizedNamedEntityTag
p479
V0.55
p480
sVLemma
p481
V0.55
p482
sVCharacterOffsetEnd
p483
V126
p484
sVPartOfSpeech
p485
VCD
p486
sVCharacterOffsetBegin
p487
V122
p488
sVNamedEntityTag
p489
VNUMBER
p490
saa(lp491
Vtimes
p492
a(dp493
VNamedEntityTag
p494
g93
sVCharacterOffsetEnd
p495
V132
p496
sVCharacterOffsetBegin
p497
V127
p498
sVPartOfSpeech
p499
VNNS
p500
sVLemma
p501
Vtime
p502
saa(lp503
Vhigher
p504
a(dp505
VNamedEntityTag
p506
g93
sVCharacterOffsetEnd
p507
V139
p508
sVCharacterOffsetBegin
p509
V133
p510
sVPartOfSpeech
p511
VJJR
p512
sVLemma
p513
Vhigher
p514
saa(lp515
g293
a(dp516
VNamedEntityTag
p517
g93
sVCharacterOffsetEnd
p518
V141
p519
sVCharacterOffsetBegin
p520
V140
p521
sVPartOfSpeech
p522
g293
sVLemma
p523
g293
saasVindexeddependencies
p524
(lp525
(lp526
Vroot
p527
aVROOT-0
p528
aVtimes-8
p529
aa(lp530
Vdet
p531
aVyear-2
p532
aVThis-1
p533
aa(lp534
Vtmod
p535
aVtimes-8
p536
aVyear-2
p537
aa(lp538
Vdet
p539
aVnumber-5
p540
aVthe-4
p541
aa(lp542
Vnsubj
p543
aVtimes-8
p544
aVnumber-5
p545
aa(lp546
Vcop
p547
aVtimes-8
p548
aVwas-6
p549
aa(lp550
Vnumber
p551
aVtimes-8
p552
aV0.55-7
p553
aa(lp554
Vdep
p555
aVtimes-8
p556
aVhigher-9
p557
aasa(dp558
Vparsetree
p559
V(ROOT (SBARQ (WHNP (WHADJP (WRB How) (JJ many)) (NNS songs)) (SQ (VBD did) (NP (PRP they)) (VP (VBP download) (NP (DT this) (NN year)))) (. ?)))
p560
sVtext
p561
VHow many songs did they download this year ?
p562
sVdependencies
p563
(lp564
(lp565
Vroot
p566
aVROOT
p567
aVdownload
p568
aa(lp569
Vadvmod
p570
aVmany
p571
aVHow
p572
aa(lp573
Vamod
p574
aVsongs
p575
aVmany
p576
aa(lp577
Vdep
p578
aVdownload
p579
aVsongs
p580
aa(lp581
Vaux
p582
aVdownload
p583
aVdid
p584
aa(lp585
Vnsubj
p586
aVdownload
p587
aVthey
p588
aa(lp589
Vdet
p590
aVyear
p591
aVthis
p592
aa(lp593
Vtmod
p594
aVdownload
p595
aVyear
p596
aasVwords
p597
(lp598
(lp599
VHow
p600
a(dp601
VNamedEntityTag
p602
g93
sVCharacterOffsetEnd
p603
V145
p604
sVCharacterOffsetBegin
p605
V142
p606
sVPartOfSpeech
p607
VWRB
p608
sVLemma
p609
Vhow
p610
saa(lp611
Vmany
p612
a(dp613
VNamedEntityTag
p614
g93
sVCharacterOffsetEnd
p615
V150
p616
sVCharacterOffsetBegin
p617
V146
p618
sVPartOfSpeech
p619
VJJ
p620
sVLemma
p621
Vmany
p622
saa(lp623
Vsongs
p624
a(dp625
VNamedEntityTag
p626
g93
sVCharacterOffsetEnd
p627
V156
p628
sVCharacterOffsetBegin
p629
V151
p630
sVPartOfSpeech
p631
VNNS
p632
sVLemma
p633
Vsong
p634
saa(lp635
Vdid
p636
a(dp637
VNamedEntityTag
p638
g93
sVCharacterOffsetEnd
p639
V160
p640
sVCharacterOffsetBegin
p641
V157
p642
sVPartOfSpeech
p643
VVBD
p644
sVLemma
p645
Vdo
p646
saa(lp647
Vthey
p648
a(dp649
VNamedEntityTag
p650
g93
sVCharacterOffsetEnd
p651
V165
p652
sVCharacterOffsetBegin
p653
V161
p654
sVPartOfSpeech
p655
VPRP
p656
sVLemma
p657
Vthey
p658
saa(lp659
Vdownload
p660
a(dp661
VNamedEntityTag
p662
g93
sVCharacterOffsetEnd
p663
V174
p664
sVCharacterOffsetBegin
p665
V166
p666
sVPartOfSpeech
p667
VVBP
p668
sVLemma
p669
Vdownload
p670
saa(lp671
Vthis
p672
a(dp673
VNormalizedNamedEntityTag
p674
VTHIS
p675
sVTimex
p676
V<TIMEX3 alt_value="THIS P1Y" anchorTimeID="t0" temporalFunction="true" tid="t3" type="DATE" valueFromFunction="tf1">this year</TIMEX3>
p677
sVLemma
p678
Vthis
p679
sVCharacterOffsetEnd
p680
V179
p681
sVPartOfSpeech
p682
VDT
p683
sVCharacterOffsetBegin
p684
V175
p685
sVNamedEntityTag
p686
VDATE
p687
saa(lp688
Vyear
p689
a(dp690
VNormalizedNamedEntityTag
p691
VTHIS
p692
sVTimex
p693
V<TIMEX3 alt_value="THIS P1Y" anchorTimeID="t0" temporalFunction="true" tid="t3" type="DATE" valueFromFunction="tf1">this year</TIMEX3>
p694
sVLemma
p695
Vyear
p696
sVCharacterOffsetEnd
p697
V184
p698
sVPartOfSpeech
p699
VNN
p700
sVCharacterOffsetBegin
p701
V180
p702
sVNamedEntityTag
p703
VDATE
p704
saa(lp705
V?
p706
a(dp707
VNamedEntityTag
p708
g93
sVCharacterOffsetEnd
p709
V186
p710
sVCharacterOffsetBegin
p711
V185
p712
sVPartOfSpeech
p713
g293
sVLemma
p714
g706
saasVindexeddependencies
p715
(lp716
(lp717
Vroot
p718
aVROOT-0
p719
aVdownload-6
p720
aa(lp721
Vadvmod
p722
aVmany-2
p723
aVHow-1
p724
aa(lp725
Vamod
p726
aVsongs-3
p727
aVmany-2
p728
aa(lp729
Vdep
p730
aVdownload-6
p731
aVsongs-3
p732
aa(lp733
Vaux
p734
aVdownload-6
p735
aVdid-4
p736
aa(lp737
Vnsubj
p738
aVdownload-6
p739
aVthey-5
p740
aa(lp741
Vdet
p742
aVyear-8
p743
aVthis-7
p744
aa(lp745
Vtmod
p746
aVdownload-6
p747
aVyear-8
p748
aasas.