(dp0
Vcoref
p1
(lp2
(lp3
(lp4
(lp5
Vthe tickets
p6
aI1
aI4
aI3
aI5
aa(lp7
V60 tickets
p8
aI0
aI9
aI8
aI10
aaaa(lp9
(lp10
(lp11
Vchild tickets
p12
aI1
aI7
aI6
aI8
aa(lp13
Vchild tickets
p14
aI0
aI13
aI12
aI14
aaaasVsentences
p15
(lp16
(dp17
Vparsetree
p18
V(ROOT (S (PP (IN At) (NP (DT a) (NN water) (NN park))) (, ,) (NP (NP (CD 45)) (VP (ADVP (IN out) (PP (IN of) (NP (CD 60) (NNS tickets)))) (VBN sold))) (VP (VBD were) (NP (NN child) (NNS tickets))) (. .)))
p19
sVtext
p20
VAt a water park , 45 out of 60 tickets sold were child tickets .
p21
sVdependencies
p22
(lp23
(lp24
Vroot
p25
aVROOT
p26
aVtickets
p27
aa(lp28
Vdet
p29
aVpark
p30
aVa
p31
aa(lp32
Vnn
p33
aVpark
p34
aVwater
p35
aa(lp36
Vprep_at
p37
aVtickets
p38
aVpark
p39
aa(lp40
Vnsubj
p41
aVtickets
p42
aV45
p43
aa(lp44
Vnum
p45
aVtickets
p46
aV60
p47
aa(lp48
Vprep_out_of
p49
aVsold
p50
aVtickets
p51
aa(lp52
Vvmod
p53
aV45
p54
aVsold
p55
aa(lp56
Vcop
p57
aVtickets
p58
aVwere
p59
aa(lp60
Vnn
p61
aVtickets
p62
aVchild
p63
aasVwords
p64
(lp65
(lp66
VAt
p67
a(dp68
VNamedEntityTag
p69
VO
p70
sVCharacterOffsetEnd
p71
V3
p72
sVCharacterOffsetBegin
p73
V1
p74
sVPartOfSpeech
p75
VIN
p76
sVLemma
p77
Vat
p78
saa(lp79
g31
a(dp80
VNamedEntityTag
p81
g70
sVCharacterOffsetEnd
p82
V5
p83
sVCharacterOffsetBegin
p84
V4
p85
sVPartOfSpeech
p86
VDT
p87
sVLemma
p88
g31
saa(lp89
Vwater
p90
a(dp91
VNamedEntityTag
p92
g70
sVCharacterOffsetEnd
p93
V11
p94
sVCharacterOffsetBegin
p95
V6
p96
sVPartOfSpeech
p97
VNN
p98
sVLemma
p99
Vwater
p100
saa(lp101
Vpark
p102
a(dp103
VNamedEntityTag
p104
g70
sVCharacterOffsetEnd
p105
V16
p106
sVCharacterOffsetBegin
p107
V12
p108
sVPartOfSpeech
p109
VNN
p110
sVLemma
p111
Vpark
p112
saa(lp113
V,
p114
a(dp115
VNamedEntityTag
p116
g70
sVCharacterOffsetEnd
p117
V18
p118
sVCharacterOffsetBegin
p119
V17
p120
sVPartOfSpeech
p121
g114
sVLemma
p122
g114
saa(lp123
V45
p124
a(dp125
VNormalizedNamedEntityTag
p126
V45.0
p127
sVLemma
p128
V45
p129
sVCharacterOffsetEnd
p130
V21
p131
sVPartOfSpeech
p132
VCD
p133
sVCharacterOffsetBegin
p134
V19
p135
sVNamedEntityTag
p136
VNUMBER
p137
saa(lp138
Vout
p139
a(dp140
VNamedEntityTag
p141
g70
sVCharacterOffsetEnd
p142
V25
p143
sVCharacterOffsetBegin
p144
V22
p145
sVPartOfSpeech
p146
VIN
p147
sVLemma
p148
Vout
p149
saa(lp150
Vof
p151
a(dp152
VNamedEntityTag
p153
g70
sVCharacterOffsetEnd
p154
V28
p155
sVCharacterOffsetBegin
p156
V26
p157
sVPartOfSpeech
p158
VIN
p159
sVLemma
p160
Vof
p161
saa(lp162
V60
p163
a(dp164
VNormalizedNamedEntityTag
p165
V60.0
p166
sVLemma
p167
V60
p168
sVCharacterOffsetEnd
p169
V31
p170
sVPartOfSpeech
p171
VCD
p172
sVCharacterOffsetBegin
p173
V29
p174
sVNamedEntityTag
p175
VNUMBER
p176
saa(lp177
Vtickets
p178
a(dp179
VNamedEntityTag
p180
g70
sVCharacterOffsetEnd
p181
V39
p182
sVCharacterOffsetBegin
p183
V32
p184
sVPartOfSpeech
p185
VNNS
p186
sVLemma
p187
Vticket
p188
saa(lp189
Vsold
p190
a(dp191
VNamedEntityTag
p192
g70
sVCharacterOffsetEnd
p193
V44
p194
sVCharacterOffsetBegin
p195
V40
p196
sVPartOfSpeech
p197
VVBN
p198
sVLemma
p199
Vsell
p200
saa(lp201
Vwere
p202
a(dp203
VNamedEntityTag
p204
g70
sVCharacterOffsetEnd
p205
V49
p206
sVCharacterOffsetBegin
p207
V45
p208
sVPartOfSpeech
p209
VVBD
p210
sVLemma
p211
Vbe
p212
saa(lp213
Vchild
p214
a(dp215
VNamedEntityTag
p216
g70
sVCharacterOffsetEnd
p217
V55
p218
sVCharacterOffsetBegin
p219
V50
p220
sVPartOfSpeech
p221
VNN
p222
sVLemma
p223
Vchild
p224
saa(lp225
Vtickets
p226
a(dp227
VNamedEntityTag
p228
g70
sVCharacterOffsetEnd
p229
V63
p230
sVCharacterOffsetBegin
p231
V56
p232
sVPartOfSpeech
p233
VNNS
p234
sVLemma
p235
Vticket
p236
saa(lp237
V.
p238
a(dp239
VNamedEntityTag
p240
g70
sVCharacterOffsetEnd
p241
V65
p242
sVCharacterOffsetBegin
p243
V64
p244
sVPartOfSpeech
p245
g238
sVLemma
p246
g238
saasVindexeddependencies
p247
(lp248
(lp249
Vroot
p250
aVROOT-0
p251
aVtickets-14
p252
aa(lp253
Vdet
p254
aVpark-4
p255
aVa-2
p256
aa(lp257
Vnn
p258
aVpark-4
p259
aVwater-3
p260
aa(lp261
Vprep_at
p262
aVtickets-14
p263
aVpark-4
p264
aa(lp265
Vnsubj
p266
aVtickets-14
p267
aV45-6
p268
aa(lp269
Vnum
p270
aVtickets-10
p271
aV60-9
p272
aa(lp273
Vprep_out_of
p274
aVsold-11
p275
aVtickets-10
p276
aa(lp277
Vvmod
p278
aV45-6
p279
aVsold-11
p280
aa(lp281
Vcop
p282
aVtickets-14
p283
aVwere-12
p284
aa(lp285
Vnn
p286
aVtickets-14
p287
aVchild-13
p288
aasa(dp289
Vparsetree
p290
V(ROOT (SBARQ (WHNP (WHNP (WDT What) (NN percentage)) (PP (IN of) (NP (DT the) (NNS tickets)))) (SQ (VBD were) (NP (NN child) (NNS tickets))) (. ?)))
p291
sVtext
p292
VWhat percentage of the tickets were child tickets ?
p293
sVdependencies
p294
(lp295
(lp296
Vroot
p297
aVROOT
p298
aVwere
p299
aa(lp300
Vdet
p301
aVpercentage
p302
aVWhat
p303
aa(lp304
Vdep
p305
aVwere
p306
aVpercentage
p307
aa(lp308
Vdet
p309
aVtickets
p310
aVthe
p311
aa(lp312
Vprep_of
p313
aVpercentage
p314
aVtickets
p315
aa(lp316
Vnn
p317
aVtickets
p318
aVchild
p319
aa(lp320
Vnsubj
p321
aVwere
p322
aVtickets
p323
aasVwords
p324
(lp325
(lp326
VWhat
p327
a(dp328
VNamedEntityTag
p329
g70
sVCharacterOffsetEnd
p330
V70
p331
sVCharacterOffsetBegin
p332
V66
p333
sVPartOfSpeech
p334
VWDT
p335
sVLemma
p336
Vwhat
p337
saa(lp338
Vpercentage
p339
a(dp340
VNamedEntityTag
p341
g70
sVCharacterOffsetEnd
p342
V81
p343
sVCharacterOffsetBegin
p344
V71
p345
sVPartOfSpeech
p346
VNN
p347
sVLemma
p348
Vpercentage
p349
saa(lp350
Vof
p351
a(dp352
VNamedEntityTag
p353
g70
sVCharacterOffsetEnd
p354
V84
p355
sVCharacterOffsetBegin
p356
V82
p357
sVPartOfSpeech
p358
VIN
p359
sVLemma
p360
Vof
p361
saa(lp362
Vthe
p363
a(dp364
VNamedEntityTag
p365
g70
sVCharacterOffsetEnd
p366
V88
p367
sVCharacterOffsetBegin
p368
V85
p369
sVPartOfSpeech
p370
VDT
p371
sVLemma
p372
Vthe
p373
saa(lp374
Vtickets
p375
a(dp376
VNamedEntityTag
p377
g70
sVCharacterOffsetEnd
p378
V96
p379
sVCharacterOffsetBegin
p380
V89
p381
sVPartOfSpeech
p382
VNNS
p383
sVLemma
p384
Vticket
p385
saa(lp386
Vwere
p387
a(dp388
VNamedEntityTag
p389
g70
sVCharacterOffsetEnd
p390
V101
p391
sVCharacterOffsetBegin
p392
V97
p393
sVPartOfSpeech
p394
VVBD
p395
sVLemma
p396
Vbe
p397
saa(lp398
Vchild
p399
a(dp400
VNamedEntityTag
p401
g70
sVCharacterOffsetEnd
p402
V107
p403
sVCharacterOffsetBegin
p404
V102
p405
sVPartOfSpeech
p406
VNN
p407
sVLemma
p408
Vchild
p409
saa(lp410
Vtickets
p411
a(dp412
VNamedEntityTag
p413
g70
sVCharacterOffsetEnd
p414
V115
p415
sVCharacterOffsetBegin
p416
V108
p417
sVPartOfSpeech
p418
VNNS
p419
sVLemma
p420
Vticket
p421
saa(lp422
V?
p423
a(dp424
VNamedEntityTag
p425
g70
sVCharacterOffsetEnd
p426
V117
p427
sVCharacterOffsetBegin
p428
V116
p429
sVPartOfSpeech
p430
g238
sVLemma
p431
g423
saasVindexeddependencies
p432
(lp433
(lp434
Vroot
p435
aVROOT-0
p436
aVwere-6
p437
aa(lp438
Vdet
p439
aVpercentage-2
p440
aVWhat-1
p441
aa(lp442
Vdep
p443
aVwere-6
p444
aVpercentage-2
p445
aa(lp446
Vdet
p447
aVtickets-5
p448
aVthe-4
p449
aa(lp450
Vprep_of
p451
aVpercentage-2
p452
aVtickets-5
p453
aa(lp454
Vnn
p455
aVtickets-8
p456
aVchild-7
p457
aa(lp458
Vnsubj
p459
aVwere-6
p460
aVtickets-8
p461
aasas.