(dp0
Vcoref
p1
(lp2
(lp3
(lp4
(lp5
Vmanagers
p6
aI1
aI9
aI9
aI10
aa(lp7
V18 managers
p8
aI0
aI1
aI0
aI2
aaaa(lp9
(lp10
(lp11
Vthe meeting
p12
aI1
aI7
aI6
aI8
aa(lp13
Va company meeting
p14
aI0
aI8
aI6
aI9
aaaasVsentences
p15
(lp16
(dp17
Vparsetree
p18
V(ROOT (S (NP (NP (CD 18) (NNS managers)) (CC and) (NP (CD 2) (NNS non-managers))) (VP (VBD attended) (NP (DT a) (NN company) (NN meeting))) (. .)))
p19
sVtext
p20
V18 managers and 2 non-managers attended a company meeting .
p21
sVdependencies
p22
(lp23
(lp24
Vroot
p25
aVROOT
p26
aVattended
p27
aa(lp28
Vnum
p29
aVmanagers
p30
aV18
p31
aa(lp32
Vnsubj
p33
aVattended
p34
aVmanagers
p35
aa(lp36
Vnum
p37
aVnon-managers
p38
aV2
p39
aa(lp40
Vconj_and
p41
aVmanagers
p42
aVnon-managers
p43
aa(lp44
Vdet
p45
aVmeeting
p46
aVa
p47
aa(lp48
Vnn
p49
aVmeeting
p50
aVcompany
p51
aa(lp52
Vdobj
p53
aVattended
p54
aVmeeting
p55
aasVwords
p56
(lp57
(lp58
V18
p59
a(dp60
VNormalizedNamedEntityTag
p61
V18.0
p62
sVLemma
p63
V18
p64
sVCharacterOffsetEnd
p65
V3
p66
sVPartOfSpeech
p67
VCD
p68
sVCharacterOffsetBegin
p69
V1
p70
sVNamedEntityTag
p71
VNUMBER
p72
saa(lp73
Vmanagers
p74
a(dp75
VNamedEntityTag
p76
VO
p77
sVCharacterOffsetEnd
p78
V12
p79
sVCharacterOffsetBegin
p80
V4
p81
sVPartOfSpeech
p82
VNNS
p83
sVLemma
p84
Vmanager
p85
saa(lp86
Vand
p87
a(dp88
VNamedEntityTag
p89
g77
sVCharacterOffsetEnd
p90
V16
p91
sVCharacterOffsetBegin
p92
V13
p93
sVPartOfSpeech
p94
VCC
p95
sVLemma
p96
Vand
p97
saa(lp98
g39
a(dp99
VNormalizedNamedEntityTag
p100
V2.0
p101
sVLemma
p102
g39
sVCharacterOffsetEnd
p103
V18
p104
sVPartOfSpeech
p105
VCD
p106
sVCharacterOffsetBegin
p107
V17
p108
sVNamedEntityTag
p109
VNUMBER
p110
saa(lp111
Vnon-managers
p112
a(dp113
VNamedEntityTag
p114
g77
sVCharacterOffsetEnd
p115
V31
p116
sVCharacterOffsetBegin
p117
V19
p118
sVPartOfSpeech
p119
VNNS
p120
sVLemma
p121
Vnon-manager
p122
saa(lp123
Vattended
p124
a(dp125
VNamedEntityTag
p126
g77
sVCharacterOffsetEnd
p127
V40
p128
sVCharacterOffsetBegin
p129
V32
p130
sVPartOfSpeech
p131
VVBD
p132
sVLemma
p133
Vattend
p134
saa(lp135
g47
a(dp136
VNamedEntityTag
p137
g77
sVCharacterOffsetEnd
p138
V42
p139
sVCharacterOffsetBegin
p140
V41
p141
sVPartOfSpeech
p142
VDT
p143
sVLemma
p144
g47
saa(lp145
Vcompany
p146
a(dp147
VNamedEntityTag
p148
g77
sVCharacterOffsetEnd
p149
V50
p150
sVCharacterOffsetBegin
p151
V43
p152
sVPartOfSpeech
p153
VNN
p154
sVLemma
p155
Vcompany
p156
saa(lp157
Vmeeting
p158
a(dp159
VNamedEntityTag
p160
g77
sVCharacterOffsetEnd
p161
V58
p162
sVCharacterOffsetBegin
p163
V51
p164
sVPartOfSpeech
p165
VNN
p166
sVLemma
p167
Vmeeting
p168
saa(lp169
V.
p170
a(dp171
VNamedEntityTag
p172
g77
sVCharacterOffsetEnd
p173
V60
p174
sVCharacterOffsetBegin
p175
V59
p176
sVPartOfSpeech
p177
g170
sVLemma
p178
g170
saasVindexeddependencies
p179
(lp180
(lp181
Vroot
p182
aVROOT-0
p183
aVattended-6
p184
aa(lp185
Vnum
p186
aVmanagers-2
p187
aV18-1
p188
aa(lp189
Vnsubj
p190
aVattended-6
p191
aVmanagers-2
p192
aa(lp193
Vnum
p194
aVnon-managers-5
p195
aV2-4
p196
aa(lp197
Vconj_and
p198
aVmanagers-2
p199
aVnon-managers-5
p200
aa(lp201
Vdet
p202
aVmeeting-9
p203
aVa-7
p204
aa(lp205
Vnn
p206
aVmeeting-9
p207
aVcompany-8
p208
aa(lp209
Vdobj
p210
aVattended-6
p211
aVmeeting-9
p212
aasa(dp213
Vparsetree
p214
V(ROOT (SBARQ (WHNP (WHNP (WDT What) (NN percentage)) (PP (IN of) (NP (NP (DT the) (NNS people)) (PP (IN in) (NP (DT the) (NN meeting)))))) (SQ (VBD were) (NP (NNS managers))) (. ?)))
p215
sVtext
p216
VWhat percentage of the people in the meeting were managers ?
p217
sVdependencies
p218
(lp219
(lp220
Vroot
p221
aVROOT
p222
aVwere
p223
aa(lp224
Vdet
p225
aVpercentage
p226
aVWhat
p227
aa(lp228
Vdep
p229
aVwere
p230
aVpercentage
p231
aa(lp232
Vdet
p233
aVpeople
p234
aVthe
p235
aa(lp236
Vprep_of
p237
aVpercentage
p238
aVpeople
p239
aa(lp240
Vdet
p241
aVmeeting
p242
aVthe
p243
aa(lp244
Vprep_in
p245
aVpeople
p246
aVmeeting
p247
aa(lp248
Vnsubj
p249
aVwere
p250
aVmanagers
p251
aasVwords
p252
(lp253
(lp254
VWhat
p255
a(dp256
VNamedEntityTag
p257
g77
sVCharacterOffsetEnd
p258
V65
p259
sVCharacterOffsetBegin
p260
V61
p261
sVPartOfSpeech
p262
VWDT
p263
sVLemma
p264
Vwhat
p265
saa(lp266
Vpercentage
p267
a(dp268
VNamedEntityTag
p269
g77
sVCharacterOffsetEnd
p270
V76
p271
sVCharacterOffsetBegin
p272
V66
p273
sVPartOfSpeech
p274
VNN
p275
sVLemma
p276
Vpercentage
p277
saa(lp278
Vof
p279
a(dp280
VNamedEntityTag
p281
g77
sVCharacterOffsetEnd
p282
V79
p283
sVCharacterOffsetBegin
p284
V77
p285
sVPartOfSpeech
p286
VIN
p287
sVLemma
p288
Vof
p289
saa(lp290
Vthe
p291
a(dp292
VNamedEntityTag
p293
g77
sVCharacterOffsetEnd
p294
V83
p295
sVCharacterOffsetBegin
p296
V80
p297
sVPartOfSpeech
p298
VDT
p299
sVLemma
p300
Vthe
p301
saa(lp302
Vpeople
p303
a(dp304
VNamedEntityTag
p305
g77
sVCharacterOffsetEnd
p306
V90
p307
sVCharacterOffsetBegin
p308
V84
p309
sVPartOfSpeech
p310
VNNS
p311
sVLemma
p312
Vpeople
p313
saa(lp314
Vin
p315
a(dp316
VNamedEntityTag
p317
g77
sVCharacterOffsetEnd
p318
V93
p319
sVCharacterOffsetBegin
p320
V91
p321
sVPartOfSpeech
p322
VIN
p323
sVLemma
p324
Vin
p325
saa(lp326
Vthe
p327
a(dp328
VNamedEntityTag
p329
g77
sVCharacterOffsetEnd
p330
V97
p331
sVCharacterOffsetBegin
p332
V94
p333
sVPartOfSpeech
p334
VDT
p335
sVLemma
p336
Vthe
p337
saa(lp338
Vmeeting
p339
a(dp340
VNamedEntityTag
p341
g77
sVCharacterOffsetEnd
p342
V105
p343
sVCharacterOffsetBegin
p344
V98
p345
sVPartOfSpeech
p346
VNN
p347
sVLemma
p348
Vmeeting
p349
saa(lp350
Vwere
p351
a(dp352
VNamedEntityTag
p353
g77
sVCharacterOffsetEnd
p354
V110
p355
sVCharacterOffsetBegin
p356
V106
p357
sVPartOfSpeech
p358
VVBD
p359
sVLemma
p360
Vbe
p361
saa(lp362
Vmanagers
p363
a(dp364
VNamedEntityTag
p365
g77
sVCharacterOffsetEnd
p366
V119
p367
sVCharacterOffsetBegin
p368
V111
p369
sVPartOfSpeech
p370
VNNS
p371
sVLemma
p372
Vmanager
p373
saa(lp374
V?
p375
a(dp376
VNamedEntityTag
p377
g77
sVCharacterOffsetEnd
p378
V121
p379
sVCharacterOffsetBegin
p380
V120
p381
sVPartOfSpeech
p382
g170
sVLemma
p383
g375
saasVindexeddependencies
p384
(lp385
(lp386
Vroot
p387
aVROOT-0
p388
aVwere-9
p389
aa(lp390
Vdet
p391
aVpercentage-2
p392
aVWhat-1
p393
aa(lp394
Vdep
p395
aVwere-9
p396
aVpercentage-2
p397
aa(lp398
Vdet
p399
aVpeople-5
p400
aVthe-4
p401
aa(lp402
Vprep_of
p403
aVpercentage-2
p404
aVpeople-5
p405
aa(lp406
Vdet
p407
aVmeeting-8
p408
aVthe-7
p409
aa(lp410
Vprep_in
p411
aVpeople-5
p412
aVmeeting-8
p413
aa(lp414
Vnsubj
p415
aVwere-9
p416
aVmanagers-10
p417
aasas.