(dp0
Vcoref
p1
(lp2
(lp3
(lp4
(lp5
Vher
p6
aI0
aI5
aI5
aI6
aa(lp7
VBianca
p8
aI0
aI0
aI0
aI1
aaa(lp9
(lp10
Vshe
p11
aI1
aI1
aI1
aI2
aa(lp12
VBianca
p13
aI0
aI0
aI0
aI1
aaa(lp14
(lp15
Vshe
p16
aI1
aI19
aI19
aI20
aa(lp17
VBianca
p18
aI0
aI0
aI0
aI1
aaa(lp19
(lp20
Vher
p21
aI1
aI22
aI22
aI23
aa(lp22
VBianca
p23
aI0
aI0
aI0
aI1
aaaa(lp24
(lp25
(lp26
Vher mp3 player
p27
aI1
aI24
aI22
aI25
aa(lp28
Vher mp3 player
p29
aI0
aI7
aI5
aI8
aaaa(lp30
(lp31
(lp32
Vit
p33
aI1
aI7
aI7
aI8
aa(lp34
V14
p35
aI1
aI3
aI3
aI4
aaaasVsentences
p36
(lp37
(dp38
Vparsetree
p39
V(ROOT (S (NP (NNP Bianca)) (VP (VBD had) (NP (NP (CD 34) (NNS songs)) (PP (IN on) (NP (PRP$ her) (NN mp3) (NN player))))) (. .)))
p40
sVtext
p41
VBianca had 34 songs on her mp3 player .
p42
sVdependencies
p43
(lp44
(lp45
Vroot
p46
aVROOT
p47
aVhad
p48
aa(lp49
Vnsubj
p50
aVhad
p51
aVBianca
p52
aa(lp53
Vnum
p54
aVsongs
p55
aV34
p56
aa(lp57
Vdobj
p58
aVhad
p59
aVsongs
p60
aa(lp61
Vposs
p62
aVplayer
p63
aVher
p64
aa(lp65
Vnn
p66
aVplayer
p67
aVmp3
p68
aa(lp69
Vprep_on
p70
aVsongs
p71
aVplayer
p72
aasVwords
p73
(lp74
(lp75
VBianca
p76
a(dp77
VNamedEntityTag
p78
VPERSON
p79
sVCharacterOffsetEnd
p80
V7
p81
sVCharacterOffsetBegin
p82
V1
p83
sVPartOfSpeech
p84
VNNP
p85
sVLemma
p86
VBianca
p87
saa(lp88
Vhad
p89
a(dp90
VNamedEntityTag
p91
VO
p92
sVCharacterOffsetEnd
p93
V11
p94
sVCharacterOffsetBegin
p95
V8
p96
sVPartOfSpeech
p97
VVBD
p98
sVLemma
p99
Vhave
p100
saa(lp101
V34
p102
a(dp103
VNormalizedNamedEntityTag
p104
V34.0
p105
sVLemma
p106
V34
p107
sVCharacterOffsetEnd
p108
V14
p109
sVPartOfSpeech
p110
VCD
p111
sVCharacterOffsetBegin
p112
V12
p113
sVNamedEntityTag
p114
VNUMBER
p115
saa(lp116
Vsongs
p117
a(dp118
VNamedEntityTag
p119
g92
sVCharacterOffsetEnd
p120
V20
p121
sVCharacterOffsetBegin
p122
V15
p123
sVPartOfSpeech
p124
VNNS
p125
sVLemma
p126
Vsong
p127
saa(lp128
Von
p129
a(dp130
VNamedEntityTag
p131
g92
sVCharacterOffsetEnd
p132
V23
p133
sVCharacterOffsetBegin
p134
V21
p135
sVPartOfSpeech
p136
VIN
p137
sVLemma
p138
Von
p139
saa(lp140
Vher
p141
a(dp142
VNamedEntityTag
p143
g92
sVCharacterOffsetEnd
p144
V27
p145
sVCharacterOffsetBegin
p146
V24
p147
sVPartOfSpeech
p148
VPRP$
p149
sVLemma
p150
Vshe
p151
saa(lp152
Vmp3
p153
a(dp154
VNamedEntityTag
p155
g92
sVCharacterOffsetEnd
p156
V31
p157
sVCharacterOffsetBegin
p158
V28
p159
sVPartOfSpeech
p160
VNN
p161
sVLemma
p162
Vmp3
p163
saa(lp164
Vplayer
p165
a(dp166
VNamedEntityTag
p167
g92
sVCharacterOffsetEnd
p168
V38
p169
sVCharacterOffsetBegin
p170
V32
p171
sVPartOfSpeech
p172
VNN
p173
sVLemma
p174
Vplayer
p175
saa(lp176
V.
p177
a(dp178
VNamedEntityTag
p179
g92
sVCharacterOffsetEnd
p180
V40
p181
sVCharacterOffsetBegin
p182
V39
p183
sVPartOfSpeech
p184
g177
sVLemma
p185
g177
saasVindexeddependencies
p186
(lp187
(lp188
Vroot
p189
aVROOT-0
p190
aVhad-2
p191
aa(lp192
Vnsubj
p193
aVhad-2
p194
aVBianca-1
p195
aa(lp196
Vnum
p197
aVsongs-4
p198
aV34-3
p199
aa(lp200
Vdobj
p201
aVhad-2
p202
aVsongs-4
p203
aa(lp204
Vposs
p205
aVplayer-8
p206
aVher-6
p207
aa(lp208
Vnn
p209
aVplayer-8
p210
aVmp3-7
p211
aa(lp212
Vprep_on
p213
aVsongs-4
p214
aVplayer-8
p215
aasa(dp216
Vparsetree
p217
V(ROOT (SBARQ (SBAR (IN If) (S (NP (PRP she)) (VP (VP (VBD deleted) (NP (CD 14) (JJ old) (NNS songs)) (PP (IN from) (NP (PRP it)))) (CC and) (VP (ADVP (RB then)) (VBD added) (NP (CD 44) (JJ new) (NNS songs)))))) (, ,) (WHNP (WHADJP (WRB how) (JJ many)) (NNS songs)) (SQ (VBZ does) (NP (PRP she)) (VP (VB have) (PP (IN on) (NP (PRP$ her) (NN mp3) (NN player))))) (. ?)))
p218
sVtext
p219
VIf she deleted 14 old songs from it and then added 44 new songs , how many songs does she have on her mp3 player ?
p220
sVdependencies
p221
(lp222
(lp223
Vroot
p224
aVROOT
p225
aVhave
p226
aa(lp227
Vmark
p228
aVdeleted
p229
aVIf
p230
aa(lp231
Vnsubj
p232
aVdeleted
p233
aVshe
p234
aa(lp235
Vadvcl
p236
aVhave
p237
aVdeleted
p238
aa(lp239
Vnum
p240
aVsongs
p241
aV14
p242
aa(lp243
Vamod
p244
aVsongs
p245
aVold
p246
aa(lp247
Vdobj
p248
aVdeleted
p249
aVsongs
p250
aa(lp251
Vprep_from
p252
aVdeleted
p253
aVit
p254
aa(lp255
Vadvmod
p256
aVadded
p257
aVthen
p258
aa(lp259
Vconj_and
p260
aVdeleted
p261
aVadded
p262
aa(lp263
Vnum
p264
aVsongs
p265
aV44
p266
aa(lp267
Vamod
p268
aVsongs
p269
aVnew
p270
aa(lp271
Vdobj
p272
aVadded
p273
aVsongs
p274
aa(lp275
Vadvmod
p276
aVmany
p277
aVhow
p278
aa(lp279
Vamod
p280
aVsongs
p281
aVmany
p282
aa(lp283
Vdobj
p284
aVhave
p285
aVsongs
p286
aa(lp287
Vaux
p288
aVhave
p289
aVdoes
p290
aa(lp291
Vnsubj
p292
aVhave
p293
aVshe
p294
aa(lp295
Vposs
p296
aVplayer
p297
aVher
p298
aa(lp299
Vnn
p300
aVplayer
p301
aVmp3
p302
aa(lp303
Vprep_on
p304
aVhave
p305
aVplayer
p306
aasVwords
p307
(lp308
(lp309
VIf
p310
a(dp311
VNamedEntityTag
p312
g92
sVCharacterOffsetEnd
p313
V43
p314
sVCharacterOffsetBegin
p315
V41
p316
sVPartOfSpeech
p317
VIN
p318
sVLemma
p319
Vif
p320
saa(lp321
Vshe
p322
a(dp323
VNamedEntityTag
p324
g92
sVCharacterOffsetEnd
p325
V47
p326
sVCharacterOffsetBegin
p327
V44
p328
sVPartOfSpeech
p329
VPRP
p330
sVLemma
p331
Vshe
p332
saa(lp333
Vdeleted
p334
a(dp335
VNamedEntityTag
p336
g92
sVCharacterOffsetEnd
p337
V55
p338
sVCharacterOffsetBegin
p339
V48
p340
sVPartOfSpeech
p341
VVBD
p342
sVLemma
p343
Vdelete
p344
saa(lp345
V14
p346
a(dp347
VNormalizedNamedEntityTag
p348
V14.0
p349
sVLemma
p350
V14
p351
sVCharacterOffsetEnd
p352
V58
p353
sVPartOfSpeech
p354
VCD
p355
sVCharacterOffsetBegin
p356
V56
p357
sVNamedEntityTag
p358
VNUMBER
p359
saa(lp360
Vold
p361
a(dp362
VNamedEntityTag
p363
g92
sVCharacterOffsetEnd
p364
V62
p365
sVCharacterOffsetBegin
p366
V59
p367
sVPartOfSpeech
p368
VJJ
p369
sVLemma
p370
Vold
p371
saa(lp372
Vsongs
p373
a(dp374
VNamedEntityTag
p375
g92
sVCharacterOffsetEnd
p376
V68
p377
sVCharacterOffsetBegin
p378
V63
p379
sVPartOfSpeech
p380
VNNS
p381
sVLemma
p382
Vsong
p383
saa(lp384
Vfrom
p385
a(dp386
VNamedEntityTag
p387
g92
sVCharacterOffsetEnd
p388
V73
p389
sVCharacterOffsetBegin
p390
V69
p391
sVPartOfSpeech
p392
VIN
p393
sVLemma
p394
Vfrom
p395
saa(lp396
Vit
p397
a(dp398
VNamedEntityTag
p399
g92
sVCharacterOffsetEnd
p400
V76
p401
sVCharacterOffsetBegin
p402
V74
p403
sVPartOfSpeech
p404
VPRP
p405
sVLemma
p406
Vit
p407
saa(lp408
Vand
p409
a(dp410
VNamedEntityTag
p411
g92
sVCharacterOffsetEnd
p412
V80
p413
sVCharacterOffsetBegin
p414
V77
p415
sVPartOfSpeech
p416
VCC
p417
sVLemma
p418
Vand
p419
saa(lp420
Vthen
p421
a(dp422
VNamedEntityTag
p423
g92
sVCharacterOffsetEnd
p424
V85
p425
sVCharacterOffsetBegin
p426
V81
p427
sVPartOfSpeech
p428
VRB
p429
sVLemma
p430
Vthen
p431
saa(lp432
Vadded
p433
a(dp434
VNamedEntityTag
p435
g92
sVCharacterOffsetEnd
p436
V91
p437
sVCharacterOffsetBegin
p438
V86
p439
sVPartOfSpeech
p440
VVBD
p441
sVLemma
p442
Vadd
p443
saa(lp444
V44
p445
a(dp446
VNormalizedNamedEntityTag
p447
V44.0
p448
sVLemma
p449
V44
p450
sVCharacterOffsetEnd
p451
V94
p452
sVPartOfSpeech
p453
VCD
p454
sVCharacterOffsetBegin
p455
V92
p456
sVNamedEntityTag
p457
VNUMBER
p458
saa(lp459
Vnew
p460
a(dp461
VNamedEntityTag
p462
g92
sVCharacterOffsetEnd
p463
V98
p464
sVCharacterOffsetBegin
p465
V95
p466
sVPartOfSpeech
p467
VJJ
p468
sVLemma
p469
Vnew
p470
saa(lp471
Vsongs
p472
a(dp473
VNamedEntityTag
p474
g92
sVCharacterOffsetEnd
p475
V104
p476
sVCharacterOffsetBegin
p477
V99
p478
sVPartOfSpeech
p479
VNNS
p480
sVLemma
p481
Vsong
p482
saa(lp483
V,
p484
a(dp485
VNamedEntityTag
p486
g92
sVCharacterOffsetEnd
p487
V106
p488
sVCharacterOffsetBegin
p489
V105
p490
sVPartOfSpeech
p491
g484
sVLemma
p492
g484
saa(lp493
Vhow
p494
a(dp495
VNamedEntityTag
p496
g92
sVCharacterOffsetEnd
p497
V110
p498
sVCharacterOffsetBegin
p499
V107
p500
sVPartOfSpeech
p501
VWRB
p502
sVLemma
p503
Vhow
p504
saa(lp505
Vmany
p506
a(dp507
VNamedEntityTag
p508
g92
sVCharacterOffsetEnd
p509
V115
p510
sVCharacterOffsetBegin
p511
V111
p512
sVPartOfSpeech
p513
VJJ
p514
sVLemma
p515
Vmany
p516
saa(lp517
Vsongs
p518
a(dp519
VNamedEntityTag
p520
g92
sVCharacterOffsetEnd
p521
V121
p522
sVCharacterOffsetBegin
p523
V116
p524
sVPartOfSpeech
p525
VNNS
p526
sVLemma
p527
Vsong
p528
saa(lp529
Vdoes
p530
a(dp531
VNamedEntityTag
p532
g92
sVCharacterOffsetEnd
p533
V126
p534
sVCharacterOffsetBegin
p535
V122
p536
sVPartOfSpeech
p537
VVBZ
p538
sVLemma
p539
Vdo
p540
saa(lp541
Vshe
p542
a(dp543
VNamedEntityTag
p544
g92
sVCharacterOffsetEnd
p545
V130
p546
sVCharacterOffsetBegin
p547
V127
p548
sVPartOfSpeech
p549
VPRP
p550
sVLemma
p551
Vshe
p552
saa(lp553
Vhave
p554
a(dp555
VNamedEntityTag
p556
g92
sVCharacterOffsetEnd
p557
V135
p558
sVCharacterOffsetBegin
p559
V131
p560
sVPartOfSpeech
p561
VVB
p562
sVLemma
p563
Vhave
p564
saa(lp565
Von
p566
a(dp567
VNamedEntityTag
p568
g92
sVCharacterOffsetEnd
p569
V138
p570
sVCharacterOffsetBegin
p571
V136
p572
sVPartOfSpeech
p573
VIN
p574
sVLemma
p575
Von
p576
saa(lp577
Vher
p578
a(dp579
VNamedEntityTag
p580
g92
sVCharacterOffsetEnd
p581
V142
p582
sVCharacterOffsetBegin
p583
V139
p584
sVPartOfSpeech
p585
VPRP$
p586
sVLemma
p587
Vshe
p588
saa(lp589
Vmp3
p590
a(dp591
VNamedEntityTag
p592
g92
sVCharacterOffsetEnd
p593
V146
p594
sVCharacterOffsetBegin
p595
V143
p596
sVPartOfSpeech
p597
VNN
p598
sVLemma
p599
Vmp3
p600
saa(lp601
Vplayer
p602
a(dp603
VNamedEntityTag
p604
g92
sVCharacterOffsetEnd
p605
V153
p606
sVCharacterOffsetBegin
p607
V147
p608
sVPartOfSpeech
p609
VNN
p610
sVLemma
p611
Vplayer
p612
saa(lp613
V?
p614
a(dp615
VNamedEntityTag
p616
g92
sVCharacterOffsetEnd
p617
V155
p618
sVCharacterOffsetBegin
p619
V154
p620
sVPartOfSpeech
p621
g177
sVLemma
p622
g614
saasVindexeddependencies
p623
(lp624
(lp625
Vroot
p626
aVROOT-0
p627
aVhave-21
p628
aa(lp629
Vmark
p630
aVdeleted-3
p631
aVIf-1
p632
aa(lp633
Vnsubj
p634
aVdeleted-3
p635
aVshe-2
p636
aa(lp637
Vadvcl
p638
aVhave-21
p639
aVdeleted-3
p640
aa(lp641
Vnum
p642
aVsongs-6
p643
aV14-4
p644
aa(lp645
Vamod
p646
aVsongs-6
p647
aVold-5
p648
aa(lp649
Vdobj
p650
aVdeleted-3
p651
aVsongs-6
p652
aa(lp653
Vprep_from
p654
aVdeleted-3
p655
aVit-8
p656
aa(lp657
Vadvmod
p658
aVadded-11
p659
aVthen-10
p660
aa(lp661
Vconj_and
p662
aVdeleted-3
p663
aVadded-11
p664
aa(lp665
Vnum
p666
aVsongs-14
p667
aV44-12
p668
aa(lp669
Vamod
p670
aVsongs-14
p671
aVnew-13
p672
aa(lp673
Vdobj
p674
aVadded-11
p675
aVsongs-14
p676
aa(lp677
Vadvmod
p678
aVmany-17
p679
aVhow-16
p680
aa(lp681
Vamod
p682
aVsongs-18
p683
aVmany-17
p684
aa(lp685
Vdobj
p686
aVhave-21
p687
aVsongs-18
p688
aa(lp689
Vaux
p690
aVhave-21
p691
aVdoes-19
p692
aa(lp693
Vnsubj
p694
aVhave-21
p695
aVshe-20
p696
aa(lp697
Vposs
p698
aVplayer-25
p699
aVher-23
p700
aa(lp701
Vnn
p702
aVplayer-25
p703
aVmp3-24
p704
aa(lp705
Vprep_on
p706
aVhave-21
p707
aVplayer-25
p708
aasas.