(dp0
Vcoref
p1
(lp2
(lp3
(lp4
(lp5
Vhe
p6
aI1
aI1
aI1
aI2
aa(lp7
VTom
p8
aI0
aI0
aI0
aI1
aaa(lp9
(lp10
Vhe
p11
aI1
aI10
aI10
aI11
aa(lp12
VTom
p13
aI0
aI0
aI0
aI1
aaa(lp14
(lp15
VTom
p16
aI1
aI22
aI22
aI23
aa(lp17
VTom
p18
aI0
aI0
aI0
aI1
aaaasVsentences
p19
(lp20
(dp21
Vparsetree
p22
V(ROOT (S (NP (NNP Tom)) (VP (VBD had) (NP (CD 5) (NNS books))) (. .)))
p23
sVtext
p24
VTom had 5 books .
p25
sVdependencies
p26
(lp27
(lp28
Vroot
p29
aVROOT
p30
aVhad
p31
aa(lp32
Vnsubj
p33
aVhad
p34
aVTom
p35
aa(lp36
Vnum
p37
aVbooks
p38
aV5
p39
aa(lp40
Vdobj
p41
aVhad
p42
aVbooks
p43
aasVwords
p44
(lp45
(lp46
VTom
p47
a(dp48
VNamedEntityTag
p49
VPERSON
p50
sVCharacterOffsetEnd
p51
V4
p52
sVCharacterOffsetBegin
p53
V1
p54
sVPartOfSpeech
p55
VNNP
p56
sVLemma
p57
VTom
p58
saa(lp59
Vhad
p60
a(dp61
VNamedEntityTag
p62
VO
p63
sVCharacterOffsetEnd
p64
V8
p65
sVCharacterOffsetBegin
p66
g39
sVPartOfSpeech
p67
VVBD
p68
sVLemma
p69
Vhave
p70
saa(lp71
g39
a(dp72
VNormalizedNamedEntityTag
p73
V5.0
p74
sVLemma
p75
g39
sVCharacterOffsetEnd
p76
V10
p77
sVPartOfSpeech
p78
VCD
p79
sVCharacterOffsetBegin
p80
V9
p81
sVNamedEntityTag
p82
VNUMBER
p83
saa(lp84
Vbooks
p85
a(dp86
VNamedEntityTag
p87
g63
sVCharacterOffsetEnd
p88
V16
p89
sVCharacterOffsetBegin
p90
V11
p91
sVPartOfSpeech
p92
VNNS
p93
sVLemma
p94
Vbook
p95
saa(lp96
V.
p97
a(dp98
VNamedEntityTag
p99
g63
sVCharacterOffsetEnd
p100
V18
p101
sVCharacterOffsetBegin
p102
V17
p103
sVPartOfSpeech
p104
g97
sVLemma
p105
g97
saasVindexeddependencies
p106
(lp107
(lp108
Vroot
p109
aVROOT-0
p110
aVhad-2
p111
aa(lp112
Vnsubj
p113
aVhad-2
p114
aVTom-1
p115
aa(lp116
Vnum
p117
aVbooks-4
p118
aV5-3
p119
aa(lp120
Vdobj
p121
aVhad-2
p122
aVbooks-4
p123
aasa(dp124
Vparsetree
p125
V(ROOT (SBARQ (SBAR (IN If) (S (NP (PRP he)) (VP (VP (VBD sold) (NP (NP (CD 4)) (PP (IN of) (NP (PRP them))))) (CC and) (VP (VBD used) (NP (DT the) (NN money)) (SBAR (S (NP (PRP he)) (VP (VBD earned) (S (VP (TO to) (VP (VB buy) (NP (CD 38) (JJ new) (NNS books)))))))))))) (, ,) (WHNP (WHADJP (WRB how) (JJ many)) (NNS books)) (SQ (MD would) (NP (NNP Tom)) (VP (VB have))) (. ?)))
p126
sVtext
p127
VIf he sold 4 of them and used the money he earned to buy 38 new books , how many books would Tom have ?
p128
sVdependencies
p129
(lp130
(lp131
Vroot
p132
aVROOT
p133
aVhave
p134
aa(lp135
Vmark
p136
aVsold
p137
aVIf
p138
aa(lp139
Vnsubj
p140
aVsold
p141
aVhe
p142
aa(lp143
Vadvcl
p144
aVhave
p145
aVsold
p146
aa(lp147
Vdobj
p148
aVsold
p149
ag52
aa(lp150
Vprep_of
p151
ag52
aVthem
p152
aa(lp153
Vconj_and
p154
aVsold
p155
aVused
p156
aa(lp157
Vdet
p158
aVmoney
p159
aVthe
p160
aa(lp161
Vdobj
p162
aVused
p163
aVmoney
p164
aa(lp165
Vnsubj
p166
aVearned
p167
aVhe
p168
aa(lp169
Vdep
p170
aVused
p171
aVearned
p172
aa(lp173
Vaux
p174
aVbuy
p175
aVto
p176
aa(lp177
Vxcomp
p178
aVearned
p179
aVbuy
p180
aa(lp181
Vnum
p182
aVbooks
p183
aV38
p184
aa(lp185
Vamod
p186
aVbooks
p187
aVnew
p188
aa(lp189
Vdobj
p190
aVbuy
p191
aVbooks
p192
aa(lp193
Vadvmod
p194
aVmany
p195
aVhow
p196
aa(lp197
Vamod
p198
aVbooks
p199
aVmany
p200
aa(lp201
Vdobj
p202
aVhave
p203
aVbooks
p204
aa(lp205
Vaux
p206
aVhave
p207
aVwould
p208
aa(lp209
Vnsubj
p210
aVhave
p211
aVTom
p212
aasVwords
p213
(lp214
(lp215
VIf
p216
a(dp217
VNamedEntityTag
p218
g63
sVCharacterOffsetEnd
p219
V21
p220
sVCharacterOffsetBegin
p221
V19
p222
sVPartOfSpeech
p223
VIN
p224
sVLemma
p225
Vif
p226
saa(lp227
Vhe
p228
a(dp229
VNamedEntityTag
p230
g63
sVCharacterOffsetEnd
p231
V24
p232
sVCharacterOffsetBegin
p233
V22
p234
sVPartOfSpeech
p235
VPRP
p236
sVLemma
p237
Vhe
p238
saa(lp239
Vsold
p240
a(dp241
VNamedEntityTag
p242
g63
sVCharacterOffsetEnd
p243
V29
p244
sVCharacterOffsetBegin
p245
V25
p246
sVPartOfSpeech
p247
VVBD
p248
sVLemma
p249
Vsell
p250
saa(lp251
g52
a(dp252
VNormalizedNamedEntityTag
p253
V4.0
p254
sVLemma
p255
g52
sVCharacterOffsetEnd
p256
V31
p257
sVPartOfSpeech
p258
VCD
p259
sVCharacterOffsetBegin
p260
V30
p261
sVNamedEntityTag
p262
VNUMBER
p263
saa(lp264
Vof
p265
a(dp266
VNamedEntityTag
p267
g63
sVCharacterOffsetEnd
p268
V34
p269
sVCharacterOffsetBegin
p270
V32
p271
sVPartOfSpeech
p272
VIN
p273
sVLemma
p274
Vof
p275
saa(lp276
Vthem
p277
a(dp278
VNamedEntityTag
p279
g63
sVCharacterOffsetEnd
p280
V39
p281
sVCharacterOffsetBegin
p282
V35
p283
sVPartOfSpeech
p284
VPRP
p285
sVLemma
p286
Vthey
p287
saa(lp288
Vand
p289
a(dp290
VNamedEntityTag
p291
g63
sVCharacterOffsetEnd
p292
V43
p293
sVCharacterOffsetBegin
p294
V40
p295
sVPartOfSpeech
p296
VCC
p297
sVLemma
p298
Vand
p299
saa(lp300
Vused
p301
a(dp302
VNamedEntityTag
p303
g63
sVCharacterOffsetEnd
p304
V48
p305
sVCharacterOffsetBegin
p306
V44
p307
sVPartOfSpeech
p308
VVBD
p309
sVLemma
p310
Vuse
p311
saa(lp312
Vthe
p313
a(dp314
VNamedEntityTag
p315
g63
sVCharacterOffsetEnd
p316
V52
p317
sVCharacterOffsetBegin
p318
V49
p319
sVPartOfSpeech
p320
VDT
p321
sVLemma
p322
Vthe
p323
saa(lp324
Vmoney
p325
a(dp326
VNamedEntityTag
p327
g63
sVCharacterOffsetEnd
p328
V58
p329
sVCharacterOffsetBegin
p330
V53
p331
sVPartOfSpeech
p332
VNN
p333
sVLemma
p334
Vmoney
p335
saa(lp336
Vhe
p337
a(dp338
VNamedEntityTag
p339
g63
sVCharacterOffsetEnd
p340
V61
p341
sVCharacterOffsetBegin
p342
V59
p343
sVPartOfSpeech
p344
VPRP
p345
sVLemma
p346
Vhe
p347
saa(lp348
Vearned
p349
a(dp350
VNamedEntityTag
p351
g63
sVCharacterOffsetEnd
p352
V68
p353
sVCharacterOffsetBegin
p354
V62
p355
sVPartOfSpeech
p356
VVBD
p357
sVLemma
p358
Vearn
p359
saa(lp360
Vto
p361
a(dp362
VNamedEntityTag
p363
g63
sVCharacterOffsetEnd
p364
V71
p365
sVCharacterOffsetBegin
p366
V69
p367
sVPartOfSpeech
p368
VTO
p369
sVLemma
p370
Vto
p371
saa(lp372
Vbuy
p373
a(dp374
VNamedEntityTag
p375
g63
sVCharacterOffsetEnd
p376
V75
p377
sVCharacterOffsetBegin
p378
V72
p379
sVPartOfSpeech
p380
VVB
p381
sVLemma
p382
Vbuy
p383
saa(lp384
V38
p385
a(dp386
VNormalizedNamedEntityTag
p387
V38.0
p388
sVLemma
p389
V38
p390
sVCharacterOffsetEnd
p391
V78
p392
sVPartOfSpeech
p393
VCD
p394
sVCharacterOffsetBegin
p395
V76
p396
sVNamedEntityTag
p397
VNUMBER
p398
saa(lp399
Vnew
p400
a(dp401
VNamedEntityTag
p402
g63
sVCharacterOffsetEnd
p403
V82
p404
sVCharacterOffsetBegin
p405
V79
p406
sVPartOfSpeech
p407
VJJ
p408
sVLemma
p409
Vnew
p410
saa(lp411
Vbooks
p412
a(dp413
VNamedEntityTag
p414
g63
sVCharacterOffsetEnd
p415
V88
p416
sVCharacterOffsetBegin
p417
V83
p418
sVPartOfSpeech
p419
VNNS
p420
sVLemma
p421
Vbook
p422
saa(lp423
V,
p424
a(dp425
VNamedEntityTag
p426
g63
sVCharacterOffsetEnd
p427
V90
p428
sVCharacterOffsetBegin
p429
V89
p430
sVPartOfSpeech
p431
g424
sVLemma
p432
g424
saa(lp433
Vhow
p434
a(dp435
VNamedEntityTag
p436
g63
sVCharacterOffsetEnd
p437
V94
p438
sVCharacterOffsetBegin
p439
V91
p440
sVPartOfSpeech
p441
VWRB
p442
sVLemma
p443
Vhow
p444
saa(lp445
Vmany
p446
a(dp447
VNamedEntityTag
p448
g63
sVCharacterOffsetEnd
p449
V99
p450
sVCharacterOffsetBegin
p451
V95
p452
sVPartOfSpeech
p453
VJJ
p454
sVLemma
p455
Vmany
p456
saa(lp457
Vbooks
p458
a(dp459
VNamedEntityTag
p460
g63
sVCharacterOffsetEnd
p461
V105
p462
sVCharacterOffsetBegin
p463
V100
p464
sVPartOfSpeech
p465
VNNS
p466
sVLemma
p467
Vbook
p468
saa(lp469
Vwould
p470
a(dp471
VNamedEntityTag
p472
g63
sVCharacterOffsetEnd
p473
V111
p474
sVCharacterOffsetBegin
p475
V106
p476
sVPartOfSpeech
p477
VMD
p478
sVLemma
p479
Vwould
p480
saa(lp481
VTom
p482
a(dp483
VNamedEntityTag
p484
VPERSON
p485
sVCharacterOffsetEnd
p486
V115
p487
sVCharacterOffsetBegin
p488
V112
p489
sVPartOfSpeech
p490
VNNP
p491
sVLemma
p492
VTom
p493
saa(lp494
Vhave
p495
a(dp496
VNamedEntityTag
p497
g63
sVCharacterOffsetEnd
p498
V120
p499
sVCharacterOffsetBegin
p500
V116
p501
sVPartOfSpeech
p502
VVB
p503
sVLemma
p504
Vhave
p505
saa(lp506
V?
p507
a(dp508
VNamedEntityTag
p509
g63
sVCharacterOffsetEnd
p510
V122
p511
sVCharacterOffsetBegin
p512
V121
p513
sVPartOfSpeech
p514
g97
sVLemma
p515
g507
saasVindexeddependencies
p516
(lp517
(lp518
Vroot
p519
aVROOT-0
p520
aVhave-24
p521
aa(lp522
Vmark
p523
aVsold-3
p524
aVIf-1
p525
aa(lp526
Vnsubj
p527
aVsold-3
p528
aVhe-2
p529
aa(lp530
Vadvcl
p531
aVhave-24
p532
aVsold-3
p533
aa(lp534
Vdobj
p535
aVsold-3
p536
aV4-4
p537
aa(lp538
Vprep_of
p539
aV4-4
p540
aVthem-6
p541
aa(lp542
Vconj_and
p543
aVsold-3
p544
aVused-8
p545
aa(lp546
Vdet
p547
aVmoney-10
p548
aVthe-9
p549
aa(lp550
Vdobj
p551
aVused-8
p552
aVmoney-10
p553
aa(lp554
Vnsubj
p555
aVearned-12
p556
aVhe-11
p557
aa(lp558
Vdep
p559
aVused-8
p560
aVearned-12
p561
aa(lp562
Vaux
p563
aVbuy-14
p564
aVto-13
p565
aa(lp566
Vxcomp
p567
aVearned-12
p568
aVbuy-14
p569
aa(lp570
Vnum
p571
aVbooks-17
p572
aV38-15
p573
aa(lp574
Vamod
p575
aVbooks-17
p576
aVnew-16
p577
aa(lp578
Vdobj
p579
aVbuy-14
p580
aVbooks-17
p581
aa(lp582
Vadvmod
p583
aVmany-20
p584
aVhow-19
p585
aa(lp586
Vamod
p587
aVbooks-21
p588
aVmany-20
p589
aa(lp590
Vdobj
p591
aVhave-24
p592
aVbooks-21
p593
aa(lp594
Vaux
p595
aVhave-24
p596
aVwould-22
p597
aa(lp598
Vnsubj
p599
aVhave-24
p600
aVTom-23
p601
aasas.