(dp0
Vcoref
p1
(lp2
(lp3
(lp4
(lp5
Vgroups
p6
aI1
aI12
aI12
aI13
aa(lp7
Vgroups
p8
aI0
aI14
aI14
aI15
aaa(lp9
(lp10
Vgroups
p11
aI2
aI11
aI11
aI12
aa(lp12
Vgroups
p13
aI0
aI14
aI14
aI15
aaaa(lp14
(lp15
(lp16
Vthe votes
p17
aI2
aI4
aI3
aI5
aa(lp18
V10 votes
p19
aI1
aI3
aI2
aI4
aaaasVsentences
p20
(lp21
(dp22
Vparsetree
p23
V(ROOT (S (NP (NP (NNP Tracy) (POS 's)) (NN class)) (VP (VBD voted) (PP (IN on) (NP (NP (IN whether)) (CC or) (S (RB not) (VP (TO to) (VP (VB do) (NP (NN science) (JJ fair) (NNS projects)) (PP (IN in) (NP (NNS groups))))))))) (. .)))
p24
sVtext
p25
VTracy's class voted on whether or not to do science fair projects in groups .
p26
sVdependencies
p27
(lp28
(lp29
Vroot
p30
aVROOT
p31
aVvoted
p32
aa(lp33
Vposs
p34
aVclass
p35
aVTracy
p36
aa(lp37
Vnsubj
p38
aVvoted
p39
aVclass
p40
aa(lp41
Vprep
p42
aVvoted
p43
aVon
p44
aa(lp45
Vpobj
p46
aVon
p47
aVwhether
p48
aa(lp49
Vneg
p50
aVdo
p51
aVnot
p52
aa(lp53
Vaux
p54
aVdo
p55
aVto
p56
aa(lp57
Vconj_or
p58
aVwhether
p59
aVdo
p60
aa(lp61
Vnn
p62
aVprojects
p63
aVscience
p64
aa(lp65
Vamod
p66
aVprojects
p67
aVfair
p68
aa(lp69
Vdobj
p70
aVdo
p71
aVprojects
p72
aa(lp73
Vprep_in
p74
aVdo
p75
aVgroups
p76
aasVwords
p77
(lp78
(lp79
VTracy
p80
a(dp81
VNamedEntityTag
p82
VPERSON
p83
sVCharacterOffsetEnd
p84
V6
p85
sVCharacterOffsetBegin
p86
V1
p87
sVPartOfSpeech
p88
VNNP
p89
sVLemma
p90
VTracy
p91
saa(lp92
V's
p93
a(dp94
VNamedEntityTag
p95
VO
p96
sVCharacterOffsetEnd
p97
V8
p98
sVCharacterOffsetBegin
p99
g85
sVPartOfSpeech
p100
VPOS
p101
sVLemma
p102
V's
p103
saa(lp104
Vclass
p105
a(dp106
VNamedEntityTag
p107
g96
sVCharacterOffsetEnd
p108
V14
p109
sVCharacterOffsetBegin
p110
V9
p111
sVPartOfSpeech
p112
VNN
p113
sVLemma
p114
Vclass
p115
saa(lp116
Vvoted
p117
a(dp118
VNamedEntityTag
p119
g96
sVCharacterOffsetEnd
p120
V20
p121
sVCharacterOffsetBegin
p122
V15
p123
sVPartOfSpeech
p124
VVBD
p125
sVLemma
p126
Vvote
p127
saa(lp128
Von
p129
a(dp130
VNamedEntityTag
p131
g96
sVCharacterOffsetEnd
p132
V23
p133
sVCharacterOffsetBegin
p134
V21
p135
sVPartOfSpeech
p136
VIN
p137
sVLemma
p138
Von
p139
saa(lp140
Vwhether
p141
a(dp142
VNamedEntityTag
p143
g96
sVCharacterOffsetEnd
p144
V31
p145
sVCharacterOffsetBegin
p146
V24
p147
sVPartOfSpeech
p148
VIN
p149
sVLemma
p150
Vwhether
p151
saa(lp152
Vor
p153
a(dp154
VNamedEntityTag
p155
g96
sVCharacterOffsetEnd
p156
V34
p157
sVCharacterOffsetBegin
p158
V32
p159
sVPartOfSpeech
p160
VCC
p161
sVLemma
p162
Vor
p163
saa(lp164
Vnot
p165
a(dp166
VNamedEntityTag
p167
g96
sVCharacterOffsetEnd
p168
V38
p169
sVCharacterOffsetBegin
p170
V35
p171
sVPartOfSpeech
p172
VRB
p173
sVLemma
p174
Vnot
p175
saa(lp176
Vto
p177
a(dp178
VNamedEntityTag
p179
g96
sVCharacterOffsetEnd
p180
V41
p181
sVCharacterOffsetBegin
p182
V39
p183
sVPartOfSpeech
p184
VTO
p185
sVLemma
p186
Vto
p187
saa(lp188
Vdo
p189
a(dp190
VNamedEntityTag
p191
g96
sVCharacterOffsetEnd
p192
V44
p193
sVCharacterOffsetBegin
p194
V42
p195
sVPartOfSpeech
p196
VVB
p197
sVLemma
p198
Vdo
p199
saa(lp200
Vscience
p201
a(dp202
VNamedEntityTag
p203
g96
sVCharacterOffsetEnd
p204
V52
p205
sVCharacterOffsetBegin
p206
V45
p207
sVPartOfSpeech
p208
VNN
p209
sVLemma
p210
Vscience
p211
saa(lp212
Vfair
p213
a(dp214
VNamedEntityTag
p215
g96
sVCharacterOffsetEnd
p216
V57
p217
sVCharacterOffsetBegin
p218
V53
p219
sVPartOfSpeech
p220
VJJ
p221
sVLemma
p222
Vfair
p223
saa(lp224
Vprojects
p225
a(dp226
VNamedEntityTag
p227
g96
sVCharacterOffsetEnd
p228
V66
p229
sVCharacterOffsetBegin
p230
V58
p231
sVPartOfSpeech
p232
VNNS
p233
sVLemma
p234
Vproject
p235
saa(lp236
Vin
p237
a(dp238
VNamedEntityTag
p239
g96
sVCharacterOffsetEnd
p240
V69
p241
sVCharacterOffsetBegin
p242
V67
p243
sVPartOfSpeech
p244
VIN
p245
sVLemma
p246
Vin
p247
saa(lp248
Vgroups
p249
a(dp250
VNamedEntityTag
p251
g96
sVCharacterOffsetEnd
p252
V76
p253
sVCharacterOffsetBegin
p254
V70
p255
sVPartOfSpeech
p256
VNNS
p257
sVLemma
p258
Vgroup
p259
saa(lp260
V.
p261
a(dp262
VNamedEntityTag
p263
g96
sVCharacterOffsetEnd
p264
V78
p265
sVCharacterOffsetBegin
p266
V77
p267
sVPartOfSpeech
p268
g261
sVLemma
p269
g261
saasVindexeddependencies
p270
(lp271
(lp272
Vroot
p273
aVROOT-0
p274
aVvoted-4
p275
aa(lp276
Vposs
p277
aVclass-3
p278
aVTracy-1
p279
aa(lp280
Vnsubj
p281
aVvoted-4
p282
aVclass-3
p283
aa(lp284
Vprep
p285
aVvoted-4
p286
aVon-5
p287
aa(lp288
Vpobj
p289
aVon-5
p290
aVwhether-6
p291
aa(lp292
Vneg
p293
aVdo-10
p294
aVnot-8
p295
aa(lp296
Vaux
p297
aVdo-10
p298
aVto-9
p299
aa(lp300
Vconj_or
p301
aVwhether-6
p302
aVdo-10
p303
aa(lp304
Vnn
p305
aVprojects-13
p306
aVscience-11
p307
aa(lp308
Vamod
p309
aVprojects-13
p310
aVfair-12
p311
aa(lp312
Vdobj
p313
aVdo-10
p314
aVprojects-13
p315
aa(lp316
Vprep_in
p317
aVdo-10
p318
aVgroups-15
p319
aasa(dp320
Vparsetree
p321
V(ROOT (S (PP (IN Out) (PP (IN of) (NP (CD 10) (NNS votes)))) (, ,) (NP (CD 2)) (VP (VBD were) (PP (IN in) (NP (NP (NN favor)) (PP (IN of) (S (VP (VBG working) (PP (IN in) (NP (NNS groups))))))))) (. .)))
p322
sVtext
p323
VOut of 10 votes , 2 were in favor of working in groups .
p324
sVdependencies
p325
(lp326
(lp327
Vroot
p328
aVROOT
p329
aVwere
p330
aa(lp331
Vprepc_out_of
p332
aVwere
p333
aVof
p334
aa(lp335
Vnum
p336
aVvotes
p337
aV10
p338
aa(lp339
Vpobj
p340
aVwere
p341
aVvotes
p342
aa(lp343
Vnsubj
p344
aVwere
p345
aV2
p346
aa(lp347
Vprep_in
p348
aVwere
p349
aVfavor
p350
aa(lp351
Vprepc_of
p352
aVfavor
p353
aVworking
p354
aa(lp355
Vprep_in
p356
aVworking
p357
aVgroups
p358
aasVwords
p359
(lp360
(lp361
VOut
p362
a(dp363
VNamedEntityTag
p364
g96
sVCharacterOffsetEnd
p365
V82
p366
sVCharacterOffsetBegin
p367
V79
p368
sVPartOfSpeech
p369
VIN
p370
sVLemma
p371
Vout
p372
saa(lp373
Vof
p374
a(dp375
VNamedEntityTag
p376
g96
sVCharacterOffsetEnd
p377
V85
p378
sVCharacterOffsetBegin
p379
V83
p380
sVPartOfSpeech
p381
VIN
p382
sVLemma
p383
Vof
p384
saa(lp385
V10
p386
a(dp387
VNormalizedNamedEntityTag
p388
V10.0
p389
sVLemma
p390
V10
p391
sVCharacterOffsetEnd
p392
V88
p393
sVPartOfSpeech
p394
VCD
p395
sVCharacterOffsetBegin
p396
V86
p397
sVNamedEntityTag
p398
VNUMBER
p399
saa(lp400
Vvotes
p401
a(dp402
VNamedEntityTag
p403
g96
sVCharacterOffsetEnd
p404
V94
p405
sVCharacterOffsetBegin
p406
V89
p407
sVPartOfSpeech
p408
VNNS
p409
sVLemma
p410
Vvote
p411
saa(lp412
V,
p413
a(dp414
VNamedEntityTag
p415
g96
sVCharacterOffsetEnd
p416
V96
p417
sVCharacterOffsetBegin
p418
V95
p419
sVPartOfSpeech
p420
g413
sVLemma
p421
g413
saa(lp422
g346
a(dp423
VNormalizedNamedEntityTag
p424
V2.0
p425
sVLemma
p426
g346
sVCharacterOffsetEnd
p427
V98
p428
sVPartOfSpeech
p429
VCD
p430
sVCharacterOffsetBegin
p431
V97
p432
sVNamedEntityTag
p433
VNUMBER
p434
saa(lp435
Vwere
p436
a(dp437
VNamedEntityTag
p438
g96
sVCharacterOffsetEnd
p439
V103
p440
sVCharacterOffsetBegin
p441
V99
p442
sVPartOfSpeech
p443
VVBD
p444
sVLemma
p445
Vbe
p446
saa(lp447
Vin
p448
a(dp449
VNamedEntityTag
p450
g96
sVCharacterOffsetEnd
p451
V106
p452
sVCharacterOffsetBegin
p453
V104
p454
sVPartOfSpeech
p455
VIN
p456
sVLemma
p457
Vin
p458
saa(lp459
Vfavor
p460
a(dp461
VNamedEntityTag
p462
g96
sVCharacterOffsetEnd
p463
V112
p464
sVCharacterOffsetBegin
p465
V107
p466
sVPartOfSpeech
p467
VNN
p468
sVLemma
p469
Vfavor
p470
saa(lp471
Vof
p472
a(dp473
VNamedEntityTag
p474
g96
sVCharacterOffsetEnd
p475
V115
p476
sVCharacterOffsetBegin
p477
V113
p478
sVPartOfSpeech
p479
VIN
p480
sVLemma
p481
Vof
p482
saa(lp483
Vworking
p484
a(dp485
VNamedEntityTag
p486
g96
sVCharacterOffsetEnd
p487
V123
p488
sVCharacterOffsetBegin
p489
V116
p490
sVPartOfSpeech
p491
VVBG
p492
sVLemma
p493
Vwork
p494
saa(lp495
Vin
p496
a(dp497
VNamedEntityTag
p498
g96
sVCharacterOffsetEnd
p499
V126
p500
sVCharacterOffsetBegin
p501
V124
p502
sVPartOfSpeech
p503
VIN
p504
sVLemma
p505
Vin
p506
saa(lp507
Vgroups
p508
a(dp509
VNamedEntityTag
p510
g96
sVCharacterOffsetEnd
p511
V133
p512
sVCharacterOffsetBegin
p513
V127
p514
sVPartOfSpeech
p515
VNNS
p516
sVLemma
p517
Vgroup
p518
saa(lp519
g261
a(dp520
VNamedEntityTag
p521
g96
sVCharacterOffsetEnd
p522
V135
p523
sVCharacterOffsetBegin
p524
V134
p525
sVPartOfSpeech
p526
g261
sVLemma
p527
g261
saasVindexeddependencies
p528
(lp529
(lp530
Vroot
p531
aVROOT-0
p532
aVwere-7
p533
aa(lp534
Vprepc_out_of
p535
aVwere-7
p536
aVof-2
p537
aa(lp538
Vnum
p539
aVvotes-4
p540
aV10-3
p541
aa(lp542
Vpobj
p543
aVwere-7
p544
aVvotes-4
p545
aa(lp546
Vnsubj
p547
aVwere-7
p548
aV2-6
p549
aa(lp550
Vprep_in
p551
aVwere-7
p552
aVfavor-9
p553
aa(lp554
Vprepc_of
p555
aVfavor-9
p556
aVworking-11
p557
aa(lp558
Vprep_in
p559
aVworking-11
p560
aVgroups-13
p561
aasa(dp562
Vparsetree
p563
V(ROOT (SBARQ (WHNP (WHNP (WDT What) (NN percentage)) (PP (IN of) (NP (DT the) (NNS votes)))) (SQ (VP (VBD were) (PP (IN in) (NP (NN favor))) (PP (IN of) (S (VP (VBG working) (PP (IN in) (NP (NNS groups)))))))) (. ?)))
p564
sVtext
p565
VWhat percentage of the votes were in favor of working in groups ?
p566
sVdependencies
p567
(lp568
(lp569
Vroot
p570
aVROOT
p571
aVwere
p572
aa(lp573
Vdet
p574
aVpercentage
p575
aVWhat
p576
aa(lp577
Vnsubj
p578
aVwere
p579
aVpercentage
p580
aa(lp581
Vdet
p582
aVvotes
p583
aVthe
p584
aa(lp585
Vprep_of
p586
aVpercentage
p587
aVvotes
p588
aa(lp589
Vprep_in
p590
aVwere
p591
aVfavor
p592
aa(lp593
Vprepc_of
p594
aVwere
p595
aVworking
p596
aa(lp597
Vprep_in
p598
aVworking
p599
aVgroups
p600
aasVwords
p601
(lp602
(lp603
VWhat
p604
a(dp605
VNamedEntityTag
p606
g96
sVCharacterOffsetEnd
p607
V140
p608
sVCharacterOffsetBegin
p609
V136
p610
sVPartOfSpeech
p611
VWDT
p612
sVLemma
p613
Vwhat
p614
saa(lp615
Vpercentage
p616
a(dp617
VNamedEntityTag
p618
g96
sVCharacterOffsetEnd
p619
V151
p620
sVCharacterOffsetBegin
p621
V141
p622
sVPartOfSpeech
p623
VNN
p624
sVLemma
p625
Vpercentage
p626
saa(lp627
Vof
p628
a(dp629
VNamedEntityTag
p630
g96
sVCharacterOffsetEnd
p631
V154
p632
sVCharacterOffsetBegin
p633
V152
p634
sVPartOfSpeech
p635
VIN
p636
sVLemma
p637
Vof
p638
saa(lp639
Vthe
p640
a(dp641
VNamedEntityTag
p642
g96
sVCharacterOffsetEnd
p643
V158
p644
sVCharacterOffsetBegin
p645
V155
p646
sVPartOfSpeech
p647
VDT
p648
sVLemma
p649
Vthe
p650
saa(lp651
Vvotes
p652
a(dp653
VNamedEntityTag
p654
g96
sVCharacterOffsetEnd
p655
V164
p656
sVCharacterOffsetBegin
p657
V159
p658
sVPartOfSpeech
p659
VNNS
p660
sVLemma
p661
Vvote
p662
saa(lp663
Vwere
p664
a(dp665
VNamedEntityTag
p666
g96
sVCharacterOffsetEnd
p667
V169
p668
sVCharacterOffsetBegin
p669
V165
p670
sVPartOfSpeech
p671
VVBD
p672
sVLemma
p673
Vbe
p674
saa(lp675
Vin
p676
a(dp677
VNamedEntityTag
p678
g96
sVCharacterOffsetEnd
p679
V172
p680
sVCharacterOffsetBegin
p681
V170
p682
sVPartOfSpeech
p683
VIN
p684
sVLemma
p685
Vin
p686
saa(lp687
Vfavor
p688
a(dp689
VNamedEntityTag
p690
g96
sVCharacterOffsetEnd
p691
V178
p692
sVCharacterOffsetBegin
p693
V173
p694
sVPartOfSpeech
p695
VNN
p696
sVLemma
p697
Vfavor
p698
saa(lp699
Vof
p700
a(dp701
VNamedEntityTag
p702
g96
sVCharacterOffsetEnd
p703
V181
p704
sVCharacterOffsetBegin
p705
V179
p706
sVPartOfSpeech
p707
VIN
p708
sVLemma
p709
Vof
p710
saa(lp711
Vworking
p712
a(dp713
VNamedEntityTag
p714
g96
sVCharacterOffsetEnd
p715
V189
p716
sVCharacterOffsetBegin
p717
V182
p718
sVPartOfSpeech
p719
VVBG
p720
sVLemma
p721
Vwork
p722
saa(lp723
Vin
p724
a(dp725
VNamedEntityTag
p726
g96
sVCharacterOffsetEnd
p727
V192
p728
sVCharacterOffsetBegin
p729
V190
p730
sVPartOfSpeech
p731
VIN
p732
sVLemma
p733
Vin
p734
saa(lp735
Vgroups
p736
a(dp737
VNamedEntityTag
p738
g96
sVCharacterOffsetEnd
p739
V199
p740
sVCharacterOffsetBegin
p741
V193
p742
sVPartOfSpeech
p743
VNNS
p744
sVLemma
p745
Vgroup
p746
saa(lp747
V?
p748
a(dp749
VNamedEntityTag
p750
g96
sVCharacterOffsetEnd
p751
V201
p752
sVCharacterOffsetBegin
p753
V200
p754
sVPartOfSpeech
p755
g261
sVLemma
p756
g748
saasVindexeddependencies
p757
(lp758
(lp759
Vroot
p760
aVROOT-0
p761
aVwere-6
p762
aa(lp763
Vdet
p764
aVpercentage-2
p765
aVWhat-1
p766
aa(lp767
Vnsubj
p768
aVwere-6
p769
aVpercentage-2
p770
aa(lp771
Vdet
p772
aVvotes-5
p773
aVthe-4
p774
aa(lp775
Vprep_of
p776
aVpercentage-2
p777
aVvotes-5
p778
aa(lp779
Vprep_in
p780
aVwere-6
p781
aVfavor-8
p782
aa(lp783
Vprepc_of
p784
aVwere-6
p785
aVworking-10
p786
aa(lp787
Vprep_in
p788
aVworking-10
p789
aVgroups-12
p790
aasas.