(dp0
Vcoref
p1
(lp2
(lp3
(lp4
(lp5
Vshe
p6
aI1
aI1
aI1
aI2
aa(lp7
VMaria
p8
aI0
aI5
aI5
aI6
aaa(lp9
(lp10
Vshe
p11
aI1
aI16
aI16
aI17
aa(lp12
VMaria
p13
aI0
aI5
aI5
aI6
aaaasVsentences
p14
(lp15
(dp16
Vparsetree
p17
V(ROOT (S (PP (IN For) (NP (DT the) (NN school) (S (VP (VB bake) (NP (NN sale)))))) (NP (NNP Maria)) (VP (VBD made) (NP (CD 19) (NNS cupcakes))) (. .)))
p18
sVtext
p19
VFor the school bake sale Maria made 19 cupcakes .
p20
sVdependencies
p21
(lp22
(lp23
Vroot
p24
aVROOT
p25
aVmade
p26
aa(lp27
Vdet
p28
aVschool
p29
aVthe
p30
aa(lp31
Vprep_for
p32
aVmade
p33
aVschool
p34
aa(lp35
Vdep
p36
aVschool
p37
aVbake
p38
aa(lp39
Vdobj
p40
aVbake
p41
aVsale
p42
aa(lp43
Vnsubj
p44
aVmade
p45
aVMaria
p46
aa(lp47
Vnum
p48
aVcupcakes
p49
aV19
p50
aa(lp51
Vdobj
p52
aVmade
p53
aVcupcakes
p54
aasVwords
p55
(lp56
(lp57
VFor
p58
a(dp59
VNamedEntityTag
p60
VO
p61
sVCharacterOffsetEnd
p62
V4
p63
sVCharacterOffsetBegin
p64
V1
p65
sVPartOfSpeech
p66
VIN
p67
sVLemma
p68
Vfor
p69
saa(lp70
Vthe
p71
a(dp72
VNamedEntityTag
p73
g61
sVCharacterOffsetEnd
p74
V8
p75
sVCharacterOffsetBegin
p76
V5
p77
sVPartOfSpeech
p78
VDT
p79
sVLemma
p80
Vthe
p81
saa(lp82
Vschool
p83
a(dp84
VNamedEntityTag
p85
g61
sVCharacterOffsetEnd
p86
V15
p87
sVCharacterOffsetBegin
p88
V9
p89
sVPartOfSpeech
p90
VNN
p91
sVLemma
p92
Vschool
p93
saa(lp94
Vbake
p95
a(dp96
VNamedEntityTag
p97
g61
sVCharacterOffsetEnd
p98
V20
p99
sVCharacterOffsetBegin
p100
V16
p101
sVPartOfSpeech
p102
VVB
p103
sVLemma
p104
Vbake
p105
saa(lp106
Vsale
p107
a(dp108
VNamedEntityTag
p109
g61
sVCharacterOffsetEnd
p110
V25
p111
sVCharacterOffsetBegin
p112
V21
p113
sVPartOfSpeech
p114
VNN
p115
sVLemma
p116
Vsale
p117
saa(lp118
VMaria
p119
a(dp120
VNamedEntityTag
p121
VPERSON
p122
sVCharacterOffsetEnd
p123
V31
p124
sVCharacterOffsetBegin
p125
V26
p126
sVPartOfSpeech
p127
VNNP
p128
sVLemma
p129
VMaria
p130
saa(lp131
Vmade
p132
a(dp133
VNamedEntityTag
p134
g61
sVCharacterOffsetEnd
p135
V36
p136
sVCharacterOffsetBegin
p137
V32
p138
sVPartOfSpeech
p139
VVBD
p140
sVLemma
p141
Vmake
p142
saa(lp143
V19
p144
a(dp145
VNormalizedNamedEntityTag
p146
V19.0
p147
sVLemma
p148
V19
p149
sVCharacterOffsetEnd
p150
V39
p151
sVPartOfSpeech
p152
VCD
p153
sVCharacterOffsetBegin
p154
V37
p155
sVNamedEntityTag
p156
VNUMBER
p157
saa(lp158
Vcupcakes
p159
a(dp160
VNamedEntityTag
p161
g61
sVCharacterOffsetEnd
p162
V48
p163
sVCharacterOffsetBegin
p164
V40
p165
sVPartOfSpeech
p166
VNNS
p167
sVLemma
p168
Vcupcake
p169
saa(lp170
V.
p171
a(dp172
VNamedEntityTag
p173
g61
sVCharacterOffsetEnd
p174
V50
p175
sVCharacterOffsetBegin
p176
V49
p177
sVPartOfSpeech
p178
g171
sVLemma
p179
g171
saasVindexeddependencies
p180
(lp181
(lp182
Vroot
p183
aVROOT-0
p184
aVmade-7
p185
aa(lp186
Vdet
p187
aVschool-3
p188
aVthe-2
p189
aa(lp190
Vprep_for
p191
aVmade-7
p192
aVschool-3
p193
aa(lp194
Vdep
p195
aVschool-3
p196
aVbake-4
p197
aa(lp198
Vdobj
p199
aVbake-4
p200
aVsale-5
p201
aa(lp202
Vnsubj
p203
aVmade-7
p204
aVMaria-6
p205
aa(lp206
Vnum
p207
aVcupcakes-9
p208
aV19-8
p209
aa(lp210
Vdobj
p211
aVmade-7
p212
aVcupcakes-9
p213
aasa(dp214
Vparsetree
p215
V(ROOT (SBARQ (SBAR (IN If) (S (NP (PRP she)) (VP (VP (VBD sold) (NP (NP (CD 5)) (PP (IN of) (NP (PRP them))))) (CC and) (VP (ADVP (RB then)) (VBD made) (NP (CD 10) (JJR more)))))) (, ,) (WHADVP (WRB how) (NP (JJ many) (NNS cupcakes))) (SQ (MD would) (NP (PRP she)) (VP (VB have))) (. ?)))
p216
sVtext
p217
VIf she sold 5 of them and then made 10 more , how many cupcakes would she have ?
p218
sVdependencies
p219
(lp220
(lp221
Vroot
p222
aVROOT
p223
aVhave
p224
aa(lp225
Vmark
p226
aVsold
p227
aVIf
p228
aa(lp229
Vnsubj
p230
aVsold
p231
aVshe
p232
aa(lp233
Vadvcl
p234
aVhave
p235
aVsold
p236
aa(lp237
Vdobj
p238
aVsold
p239
ag77
aa(lp240
Vprep_of
p241
ag77
aVthem
p242
aa(lp243
Vadvmod
p244
aVmade
p245
aVthen
p246
aa(lp247
Vconj_and
p248
aVsold
p249
aVmade
p250
aa(lp251
Vnum
p252
aVmore
p253
aV10
p254
aa(lp255
Vdobj
p256
aVmade
p257
aVmore
p258
aa(lp259
Vadvmod
p260
aVhave
p261
aVhow
p262
aa(lp263
Vamod
p264
aVcupcakes
p265
aVmany
p266
aa(lp267
Vdep
p268
aVhow
p269
aVcupcakes
p270
aa(lp271
Vaux
p272
aVhave
p273
aVwould
p274
aa(lp275
Vnsubj
p276
aVhave
p277
aVshe
p278
aasVwords
p279
(lp280
(lp281
VIf
p282
a(dp283
VNamedEntityTag
p284
g61
sVCharacterOffsetEnd
p285
V53
p286
sVCharacterOffsetBegin
p287
V51
p288
sVPartOfSpeech
p289
VIN
p290
sVLemma
p291
Vif
p292
saa(lp293
Vshe
p294
a(dp295
VNamedEntityTag
p296
g61
sVCharacterOffsetEnd
p297
V57
p298
sVCharacterOffsetBegin
p299
V54
p300
sVPartOfSpeech
p301
VPRP
p302
sVLemma
p303
Vshe
p304
saa(lp305
Vsold
p306
a(dp307
VNamedEntityTag
p308
g61
sVCharacterOffsetEnd
p309
V62
p310
sVCharacterOffsetBegin
p311
V58
p312
sVPartOfSpeech
p313
VVBD
p314
sVLemma
p315
Vsell
p316
saa(lp317
g77
a(dp318
VNormalizedNamedEntityTag
p319
V5.0
p320
sVLemma
p321
g77
sVCharacterOffsetEnd
p322
V64
p323
sVPartOfSpeech
p324
VCD
p325
sVCharacterOffsetBegin
p326
V63
p327
sVNamedEntityTag
p328
VNUMBER
p329
saa(lp330
Vof
p331
a(dp332
VNamedEntityTag
p333
g61
sVCharacterOffsetEnd
p334
V67
p335
sVCharacterOffsetBegin
p336
V65
p337
sVPartOfSpeech
p338
VIN
p339
sVLemma
p340
Vof
p341
saa(lp342
Vthem
p343
a(dp344
VNamedEntityTag
p345
g61
sVCharacterOffsetEnd
p346
V72
p347
sVCharacterOffsetBegin
p348
V68
p349
sVPartOfSpeech
p350
VPRP
p351
sVLemma
p352
Vthey
p353
saa(lp354
Vand
p355
a(dp356
VNamedEntityTag
p357
g61
sVCharacterOffsetEnd
p358
V76
p359
sVCharacterOffsetBegin
p360
V73
p361
sVPartOfSpeech
p362
VCC
p363
sVLemma
p364
Vand
p365
saa(lp366
Vthen
p367
a(dp368
VNamedEntityTag
p369
g61
sVCharacterOffsetEnd
p370
V81
p371
sVCharacterOffsetBegin
p372
V77
p373
sVPartOfSpeech
p374
VRB
p375
sVLemma
p376
Vthen
p377
saa(lp378
Vmade
p379
a(dp380
VNamedEntityTag
p381
g61
sVCharacterOffsetEnd
p382
V86
p383
sVCharacterOffsetBegin
p384
V82
p385
sVPartOfSpeech
p386
VVBD
p387
sVLemma
p388
Vmake
p389
saa(lp390
V10
p391
a(dp392
VNormalizedNamedEntityTag
p393
V10.0
p394
sVLemma
p395
V10
p396
sVCharacterOffsetEnd
p397
V89
p398
sVPartOfSpeech
p399
VCD
p400
sVCharacterOffsetBegin
p401
V87
p402
sVNamedEntityTag
p403
VNUMBER
p404
saa(lp405
Vmore
p406
a(dp407
VNamedEntityTag
p408
g61
sVCharacterOffsetEnd
p409
V94
p410
sVCharacterOffsetBegin
p411
V90
p412
sVPartOfSpeech
p413
VJJR
p414
sVLemma
p415
Vmore
p416
saa(lp417
V,
p418
a(dp419
VNamedEntityTag
p420
g61
sVCharacterOffsetEnd
p421
V96
p422
sVCharacterOffsetBegin
p423
V95
p424
sVPartOfSpeech
p425
g418
sVLemma
p426
g418
saa(lp427
Vhow
p428
a(dp429
VNamedEntityTag
p430
g61
sVCharacterOffsetEnd
p431
V100
p432
sVCharacterOffsetBegin
p433
V97
p434
sVPartOfSpeech
p435
VWRB
p436
sVLemma
p437
Vhow
p438
saa(lp439
Vmany
p440
a(dp441
VNamedEntityTag
p442
g61
sVCharacterOffsetEnd
p443
V105
p444
sVCharacterOffsetBegin
p445
V101
p446
sVPartOfSpeech
p447
VJJ
p448
sVLemma
p449
Vmany
p450
saa(lp451
Vcupcakes
p452
a(dp453
VNamedEntityTag
p454
g61
sVCharacterOffsetEnd
p455
V114
p456
sVCharacterOffsetBegin
p457
V106
p458
sVPartOfSpeech
p459
VNNS
p460
sVLemma
p461
Vcupcake
p462
saa(lp463
Vwould
p464
a(dp465
VNamedEntityTag
p466
g61
sVCharacterOffsetEnd
p467
V120
p468
sVCharacterOffsetBegin
p469
V115
p470
sVPartOfSpeech
p471
VMD
p472
sVLemma
p473
Vwould
p474
saa(lp475
Vshe
p476
a(dp477
VNamedEntityTag
p478
g61
sVCharacterOffsetEnd
p479
V124
p480
sVCharacterOffsetBegin
p481
V121
p482
sVPartOfSpeech
p483
VPRP
p484
sVLemma
p485
Vshe
p486
saa(lp487
Vhave
p488
a(dp489
VNamedEntityTag
p490
g61
sVCharacterOffsetEnd
p491
V129
p492
sVCharacterOffsetBegin
p493
V125
p494
sVPartOfSpeech
p495
VVB
p496
sVLemma
p497
Vhave
p498
saa(lp499
V?
p500
a(dp501
VNamedEntityTag
p502
g61
sVCharacterOffsetEnd
p503
V131
p504
sVCharacterOffsetBegin
p505
V130
p506
sVPartOfSpeech
p507
g171
sVLemma
p508
g500
saasVindexeddependencies
p509
(lp510
(lp511
Vroot
p512
aVROOT-0
p513
aVhave-18
p514
aa(lp515
Vmark
p516
aVsold-3
p517
aVIf-1
p518
aa(lp519
Vnsubj
p520
aVsold-3
p521
aVshe-2
p522
aa(lp523
Vadvcl
p524
aVhave-18
p525
aVsold-3
p526
aa(lp527
Vdobj
p528
aVsold-3
p529
aV5-4
p530
aa(lp531
Vprep_of
p532
aV5-4
p533
aVthem-6
p534
aa(lp535
Vadvmod
p536
aVmade-9
p537
aVthen-8
p538
aa(lp539
Vconj_and
p540
aVsold-3
p541
aVmade-9
p542
aa(lp543
Vnum
p544
aVmore-11
p545
aV10-10
p546
aa(lp547
Vdobj
p548
aVmade-9
p549
aVmore-11
p550
aa(lp551
Vadvmod
p552
aVhave-18
p553
aVhow-13
p554
aa(lp555
Vamod
p556
aVcupcakes-15
p557
aVmany-14
p558
aa(lp559
Vdep
p560
aVhow-13
p561
aVcupcakes-15
p562
aa(lp563
Vaux
p564
aVhave-18
p565
aVwould-16
p566
aa(lp567
Vnsubj
p568
aVhave-18
p569
aVshe-17
p570
aasas.