(dp0
Vcoref
p1
(lp2
(lp3
(lp4
(lp5
Vthe election
p6
aI1
aI5
aI4
aI6
aa(lp7
Van election to select a president
p8
aI0
aI5
aI4
aI10
aaaa(lp9
(lp10
(lp11
Vthe members
p12
aI2
aI4
aI3
aI5
aa(lp13
V36 members voted in the election and 12
p14
aI1
aI1
aI0
aI8
aaaasVsentences
p15
(lp16
(dp17
Vparsetree
p18
V(ROOT (S (NP (DT The) (NN art) (NN club)) (VP (VBD had) (NP (DT an) (NN election) (S (VP (TO to) (VP (VB select) (NP (DT a) (NN president))))))) (. .)))
p19
sVtext
p20
VThe art club had an election to select a president .
p21
sVdependencies
p22
(lp23
(lp24
Vroot
p25
aVROOT
p26
aVhad
p27
aa(lp28
Vdet
p29
aVclub
p30
aVThe
p31
aa(lp32
Vnn
p33
aVclub
p34
aVart
p35
aa(lp36
Vnsubj
p37
aVhad
p38
aVclub
p39
aa(lp40
Vdet
p41
aVelection
p42
aVan
p43
aa(lp44
Vdobj
p45
aVhad
p46
aVelection
p47
aa(lp48
Vaux
p49
aVselect
p50
aVto
p51
aa(lp52
Vvmod
p53
aVelection
p54
aVselect
p55
aa(lp56
Vdet
p57
aVpresident
p58
aVa
p59
aa(lp60
Vdobj
p61
aVselect
p62
aVpresident
p63
aasVwords
p64
(lp65
(lp66
VThe
p67
a(dp68
VNamedEntityTag
p69
VO
p70
sVCharacterOffsetEnd
p71
V4
p72
sVCharacterOffsetBegin
p73
V1
p74
sVPartOfSpeech
p75
VDT
p76
sVLemma
p77
Vthe
p78
saa(lp79
Vart
p80
a(dp81
VNamedEntityTag
p82
g70
sVCharacterOffsetEnd
p83
V8
p84
sVCharacterOffsetBegin
p85
V5
p86
sVPartOfSpeech
p87
VNN
p88
sVLemma
p89
Vart
p90
saa(lp91
Vclub
p92
a(dp93
VNamedEntityTag
p94
g70
sVCharacterOffsetEnd
p95
V13
p96
sVCharacterOffsetBegin
p97
V9
p98
sVPartOfSpeech
p99
VNN
p100
sVLemma
p101
Vclub
p102
saa(lp103
Vhad
p104
a(dp105
VNamedEntityTag
p106
g70
sVCharacterOffsetEnd
p107
V17
p108
sVCharacterOffsetBegin
p109
V14
p110
sVPartOfSpeech
p111
VVBD
p112
sVLemma
p113
Vhave
p114
saa(lp115
Van
p116
a(dp117
VNamedEntityTag
p118
g70
sVCharacterOffsetEnd
p119
V20
p120
sVCharacterOffsetBegin
p121
V18
p122
sVPartOfSpeech
p123
VDT
p124
sVLemma
p125
g59
saa(lp126
Velection
p127
a(dp128
VNamedEntityTag
p129
g70
sVCharacterOffsetEnd
p130
V29
p131
sVCharacterOffsetBegin
p132
V21
p133
sVPartOfSpeech
p134
VNN
p135
sVLemma
p136
Velection
p137
saa(lp138
Vto
p139
a(dp140
VNamedEntityTag
p141
g70
sVCharacterOffsetEnd
p142
V32
p143
sVCharacterOffsetBegin
p144
V30
p145
sVPartOfSpeech
p146
VTO
p147
sVLemma
p148
Vto
p149
saa(lp150
Vselect
p151
a(dp152
VNamedEntityTag
p153
g70
sVCharacterOffsetEnd
p154
V39
p155
sVCharacterOffsetBegin
p156
V33
p157
sVPartOfSpeech
p158
VVB
p159
sVLemma
p160
Vselect
p161
saa(lp162
g59
a(dp163
VNamedEntityTag
p164
g70
sVCharacterOffsetEnd
p165
V41
p166
sVCharacterOffsetBegin
p167
V40
p168
sVPartOfSpeech
p169
VDT
p170
sVLemma
p171
g59
saa(lp172
Vpresident
p173
a(dp174
VNamedEntityTag
p175
g70
sVCharacterOffsetEnd
p176
V51
p177
sVCharacterOffsetBegin
p178
V42
p179
sVPartOfSpeech
p180
VNN
p181
sVLemma
p182
Vpresident
p183
saa(lp184
V.
p185
a(dp186
VNamedEntityTag
p187
g70
sVCharacterOffsetEnd
p188
V53
p189
sVCharacterOffsetBegin
p190
V52
p191
sVPartOfSpeech
p192
g185
sVLemma
p193
g185
saasVindexeddependencies
p194
(lp195
(lp196
Vroot
p197
aVROOT-0
p198
aVhad-4
p199
aa(lp200
Vdet
p201
aVclub-3
p202
aVThe-1
p203
aa(lp204
Vnn
p205
aVclub-3
p206
aVart-2
p207
aa(lp208
Vnsubj
p209
aVhad-4
p210
aVclub-3
p211
aa(lp212
Vdet
p213
aVelection-6
p214
aVan-5
p215
aa(lp216
Vdobj
p217
aVhad-4
p218
aVelection-6
p219
aa(lp220
Vaux
p221
aVselect-8
p222
aVto-7
p223
aa(lp224
Vvmod
p225
aVelection-6
p226
aVselect-8
p227
aa(lp228
Vdet
p229
aVpresident-10
p230
aVa-9
p231
aa(lp232
Vdobj
p233
aVselect-8
p234
aVpresident-10
p235
aasa(dp236
Vparsetree
p237
V(ROOT (S (NP (NP (CD 36) (NNS members)) (SBAR (S (VP (VBD voted) (PP (IN in) (NP (NP (DT the) (NN election)) (CC and) (NP (CD 12)))))))) (VP (VBD did) (RB not) (VP (VB vote))) (. .)))
p238
sVtext
p239
V36 members voted in the election and 12 did not vote .
p240
sVdependencies
p241
(lp242
(lp243
Vroot
p244
aVROOT
p245
aVvote
p246
aa(lp247
Vnum
p248
aVmembers
p249
aV36
p250
aa(lp251
Vnsubj
p252
aVvote
p253
aVmembers
p254
aa(lp255
Vrcmod
p256
aVmembers
p257
aVvoted
p258
aa(lp259
Vdet
p260
aVelection
p261
aVthe
p262
aa(lp263
Vprep_in
p264
aVvoted
p265
aVelection
p266
aa(lp267
Vconj_and
p268
aVelection
p269
aV12
p270
aa(lp271
Vaux
p272
aVvote
p273
aVdid
p274
aa(lp275
Vneg
p276
aVvote
p277
aVnot
p278
aasVwords
p279
(lp280
(lp281
V36
p282
a(dp283
VNormalizedNamedEntityTag
p284
V36.0
p285
sVLemma
p286
V36
p287
sVCharacterOffsetEnd
p288
V56
p289
sVPartOfSpeech
p290
VCD
p291
sVCharacterOffsetBegin
p292
V54
p293
sVNamedEntityTag
p294
VNUMBER
p295
saa(lp296
Vmembers
p297
a(dp298
VNamedEntityTag
p299
g70
sVCharacterOffsetEnd
p300
V64
p301
sVCharacterOffsetBegin
p302
V57
p303
sVPartOfSpeech
p304
VNNS
p305
sVLemma
p306
Vmember
p307
saa(lp308
Vvoted
p309
a(dp310
VNamedEntityTag
p311
g70
sVCharacterOffsetEnd
p312
V70
p313
sVCharacterOffsetBegin
p314
V65
p315
sVPartOfSpeech
p316
VVBD
p317
sVLemma
p318
Vvote
p319
saa(lp320
Vin
p321
a(dp322
VNamedEntityTag
p323
g70
sVCharacterOffsetEnd
p324
V73
p325
sVCharacterOffsetBegin
p326
V71
p327
sVPartOfSpeech
p328
VIN
p329
sVLemma
p330
Vin
p331
saa(lp332
Vthe
p333
a(dp334
VNamedEntityTag
p335
g70
sVCharacterOffsetEnd
p336
V77
p337
sVCharacterOffsetBegin
p338
V74
p339
sVPartOfSpeech
p340
VDT
p341
sVLemma
p342
Vthe
p343
saa(lp344
Velection
p345
a(dp346
VNamedEntityTag
p347
g70
sVCharacterOffsetEnd
p348
V86
p349
sVCharacterOffsetBegin
p350
V78
p351
sVPartOfSpeech
p352
VNN
p353
sVLemma
p354
Velection
p355
saa(lp356
Vand
p357
a(dp358
VNamedEntityTag
p359
g70
sVCharacterOffsetEnd
p360
V90
p361
sVCharacterOffsetBegin
p362
V87
p363
sVPartOfSpeech
p364
VCC
p365
sVLemma
p366
Vand
p367
saa(lp368
V12
p369
a(dp370
VNormalizedNamedEntityTag
p371
V12.0
p372
sVLemma
p373
V12
p374
sVCharacterOffsetEnd
p375
V93
p376
sVPartOfSpeech
p377
VCD
p378
sVCharacterOffsetBegin
p379
V91
p380
sVNamedEntityTag
p381
VNUMBER
p382
saa(lp383
Vdid
p384
a(dp385
VNamedEntityTag
p386
g70
sVCharacterOffsetEnd
p387
V97
p388
sVCharacterOffsetBegin
p389
V94
p390
sVPartOfSpeech
p391
VVBD
p392
sVLemma
p393
Vdo
p394
saa(lp395
Vnot
p396
a(dp397
VNamedEntityTag
p398
g70
sVCharacterOffsetEnd
p399
V101
p400
sVCharacterOffsetBegin
p401
V98
p402
sVPartOfSpeech
p403
VRB
p404
sVLemma
p405
Vnot
p406
saa(lp407
Vvote
p408
a(dp409
VNamedEntityTag
p410
g70
sVCharacterOffsetEnd
p411
V106
p412
sVCharacterOffsetBegin
p413
V102
p414
sVPartOfSpeech
p415
VVB
p416
sVLemma
p417
Vvote
p418
saa(lp419
g185
a(dp420
VNamedEntityTag
p421
g70
sVCharacterOffsetEnd
p422
V108
p423
sVCharacterOffsetBegin
p424
V107
p425
sVPartOfSpeech
p426
g185
sVLemma
p427
g185
saasVindexeddependencies
p428
(lp429
(lp430
Vroot
p431
aVROOT-0
p432
aVvote-11
p433
aa(lp434
Vnum
p435
aVmembers-2
p436
aV36-1
p437
aa(lp438
Vnsubj
p439
aVvote-11
p440
aVmembers-2
p441
aa(lp442
Vrcmod
p443
aVmembers-2
p444
aVvoted-3
p445
aa(lp446
Vdet
p447
aVelection-6
p448
aVthe-5
p449
aa(lp450
Vprep_in
p451
aVvoted-3
p452
aVelection-6
p453
aa(lp454
Vconj_and
p455
aVelection-6
p456
aV12-8
p457
aa(lp458
Vaux
p459
aVvote-11
p460
aVdid-9
p461
aa(lp462
Vneg
p463
aVvote-11
p464
aVnot-10
p465
aasa(dp466
Vparsetree
p467
V(ROOT (SBARQ (WHNP (WHNP (WDT What) (NN percentage)) (PP (IN of) (NP (DT the) (NNS members)))) (SQ (VP (VBD voted))) (. ?)))
p468
sVtext
p469
VWhat percentage of the members voted ?
p470
sVdependencies
p471
(lp472
(lp473
Vroot
p474
aVROOT
p475
aVvoted
p476
aa(lp477
Vdet
p478
aVpercentage
p479
aVWhat
p480
aa(lp481
Vnsubj
p482
aVvoted
p483
aVpercentage
p484
aa(lp485
Vdet
p486
aVmembers
p487
aVthe
p488
aa(lp489
Vprep_of
p490
aVpercentage
p491
aVmembers
p492
aasVwords
p493
(lp494
(lp495
VWhat
p496
a(dp497
VNamedEntityTag
p498
g70
sVCharacterOffsetEnd
p499
V113
p500
sVCharacterOffsetBegin
p501
V109
p502
sVPartOfSpeech
p503
VWDT
p504
sVLemma
p505
Vwhat
p506
saa(lp507
Vpercentage
p508
a(dp509
VNamedEntityTag
p510
g70
sVCharacterOffsetEnd
p511
V124
p512
sVCharacterOffsetBegin
p513
V114
p514
sVPartOfSpeech
p515
VNN
p516
sVLemma
p517
Vpercentage
p518
saa(lp519
Vof
p520
a(dp521
VNamedEntityTag
p522
g70
sVCharacterOffsetEnd
p523
V127
p524
sVCharacterOffsetBegin
p525
V125
p526
sVPartOfSpeech
p527
VIN
p528
sVLemma
p529
Vof
p530
saa(lp531
Vthe
p532
a(dp533
VNamedEntityTag
p534
g70
sVCharacterOffsetEnd
p535
V131
p536
sVCharacterOffsetBegin
p537
V128
p538
sVPartOfSpeech
p539
VDT
p540
sVLemma
p541
Vthe
p542
saa(lp543
Vmembers
p544
a(dp545
VNamedEntityTag
p546
g70
sVCharacterOffsetEnd
p547
V139
p548
sVCharacterOffsetBegin
p549
V132
p550
sVPartOfSpeech
p551
VNNS
p552
sVLemma
p553
Vmember
p554
saa(lp555
Vvoted
p556
a(dp557
VNamedEntityTag
p558
g70
sVCharacterOffsetEnd
p559
V145
p560
sVCharacterOffsetBegin
p561
V140
p562
sVPartOfSpeech
p563
VVBD
p564
sVLemma
p565
Vvote
p566
saa(lp567
V?
p568
a(dp569
VNamedEntityTag
p570
g70
sVCharacterOffsetEnd
p571
V147
p572
sVCharacterOffsetBegin
p573
V146
p574
sVPartOfSpeech
p575
g185
sVLemma
p576
g568
saasVindexeddependencies
p577
(lp578
(lp579
Vroot
p580
aVROOT-0
p581
aVvoted-6
p582
aa(lp583
Vdet
p584
aVpercentage-2
p585
aVWhat-1
p586
aa(lp587
Vnsubj
p588
aVvoted-6
p589
aVpercentage-2
p590
aa(lp591
Vdet
p592
aVmembers-5
p593
aVthe-4
p594
aa(lp595
Vprep_of
p596
aVpercentage-2
p597
aVmembers-5
p598
aasas.