(dp0
Vcoref
p1
(lp2
(lp3
(lp4
(lp5
Vthis test
p6
aI1
aI5
aI4
aI6
aa(lp7
Va math test that had 20 problems
p8
aI0
aI11
aI9
aI16
aaaasVsentences
p9
(lp10
(dp11
Vparsetree
p12
V(ROOT (S (NP (DT A) (NN student)) (VP (VBD earned) (NP (NP (DT a) (NN grade)) (PP (IN of) (NP (QP (CD 0.8) (NNS times))))) (PP (IN on) (NP (NP (DT a) (NN math) (NN test)) (SBAR (WHNP (WDT that)) (S (VP (VBD had) (NP (CD 20) (NNS problems)))))))) (. .)))
p13
sVtext
p14
VA student earned a grade of 0.8 times on a math test that had 20 problems .
p15
sVdependencies
p16
(lp17
(lp18
Vroot
p19
aVROOT
p20
aVearned
p21
aa(lp22
Vdet
p23
aVstudent
p24
aVA
p25
aa(lp26
Vnsubj
p27
aVearned
p28
aVstudent
p29
aa(lp30
Vdet
p31
aVgrade
p32
aVa
p33
aa(lp34
Vdobj
p35
aVearned
p36
aVgrade
p37
aa(lp38
Vnumber
p39
aVtimes
p40
aV0.8
p41
aa(lp42
Vprep_of
p43
aVgrade
p44
aVtimes
p45
aa(lp46
Vdet
p47
aVtest
p48
ag33
aa(lp49
Vnn
p50
aVtest
p51
aVmath
p52
aa(lp53
Vprep_on
p54
aVearned
p55
aVtest
p56
aa(lp57
Vnsubj
p58
aVhad
p59
aVthat
p60
aa(lp61
Vrcmod
p62
aVtest
p63
aVhad
p64
aa(lp65
Vnum
p66
aVproblems
p67
aV20
p68
aa(lp69
Vdobj
p70
aVhad
p71
aVproblems
p72
aasVwords
p73
(lp74
(lp75
g25
a(dp76
VNamedEntityTag
p77
VO
p78
sVCharacterOffsetEnd
p79
V2
p80
sVCharacterOffsetBegin
p81
V1
p82
sVPartOfSpeech
p83
VDT
p84
sVLemma
p85
g33
saa(lp86
Vstudent
p87
a(dp88
VNamedEntityTag
p89
g78
sVCharacterOffsetEnd
p90
V10
p91
sVCharacterOffsetBegin
p92
V3
p93
sVPartOfSpeech
p94
VNN
p95
sVLemma
p96
Vstudent
p97
saa(lp98
Vearned
p99
a(dp100
VNamedEntityTag
p101
g78
sVCharacterOffsetEnd
p102
V17
p103
sVCharacterOffsetBegin
p104
V11
p105
sVPartOfSpeech
p106
VVBD
p107
sVLemma
p108
Vearn
p109
saa(lp110
g33
a(dp111
VNamedEntityTag
p112
g78
sVCharacterOffsetEnd
p113
V19
p114
sVCharacterOffsetBegin
p115
V18
p116
sVPartOfSpeech
p117
VDT
p118
sVLemma
p119
g33
saa(lp120
Vgrade
p121
a(dp122
VNamedEntityTag
p123
g78
sVCharacterOffsetEnd
p124
V25
p125
sVCharacterOffsetBegin
p126
V20
p127
sVPartOfSpeech
p128
VNN
p129
sVLemma
p130
Vgrade
p131
saa(lp132
Vof
p133
a(dp134
VNamedEntityTag
p135
g78
sVCharacterOffsetEnd
p136
V28
p137
sVCharacterOffsetBegin
p138
V26
p139
sVPartOfSpeech
p140
VIN
p141
sVLemma
p142
Vof
p143
saa(lp144
V0.8
p145
a(dp146
VNormalizedNamedEntityTag
p147
V0.8
p148
sVLemma
p149
V0.8
p150
sVCharacterOffsetEnd
p151
V32
p152
sVPartOfSpeech
p153
VCD
p154
sVCharacterOffsetBegin
p155
V29
p156
sVNamedEntityTag
p157
VNUMBER
p158
saa(lp159
Vtimes
p160
a(dp161
VNamedEntityTag
p162
g78
sVCharacterOffsetEnd
p163
V38
p164
sVCharacterOffsetBegin
p165
V33
p166
sVPartOfSpeech
p167
VNNS
p168
sVLemma
p169
Vtime
p170
saa(lp171
Von
p172
a(dp173
VNamedEntityTag
p174
g78
sVCharacterOffsetEnd
p175
V41
p176
sVCharacterOffsetBegin
p177
V39
p178
sVPartOfSpeech
p179
VIN
p180
sVLemma
p181
Von
p182
saa(lp183
g33
a(dp184
VNamedEntityTag
p185
g78
sVCharacterOffsetEnd
p186
V43
p187
sVCharacterOffsetBegin
p188
V42
p189
sVPartOfSpeech
p190
VDT
p191
sVLemma
p192
g33
saa(lp193
Vmath
p194
a(dp195
VNamedEntityTag
p196
g78
sVCharacterOffsetEnd
p197
V48
p198
sVCharacterOffsetBegin
p199
V44
p200
sVPartOfSpeech
p201
VNN
p202
sVLemma
p203
Vmath
p204
saa(lp205
Vtest
p206
a(dp207
VNamedEntityTag
p208
g78
sVCharacterOffsetEnd
p209
V53
p210
sVCharacterOffsetBegin
p211
V49
p212
sVPartOfSpeech
p213
VNN
p214
sVLemma
p215
Vtest
p216
saa(lp217
Vthat
p218
a(dp219
VNamedEntityTag
p220
g78
sVCharacterOffsetEnd
p221
V58
p222
sVCharacterOffsetBegin
p223
V54
p224
sVPartOfSpeech
p225
VWDT
p226
sVLemma
p227
Vthat
p228
saa(lp229
Vhad
p230
a(dp231
VNamedEntityTag
p232
g78
sVCharacterOffsetEnd
p233
V62
p234
sVCharacterOffsetBegin
p235
V59
p236
sVPartOfSpeech
p237
VVBD
p238
sVLemma
p239
Vhave
p240
saa(lp241
V20
p242
a(dp243
VNormalizedNamedEntityTag
p244
V20.0
p245
sVLemma
p246
V20
p247
sVCharacterOffsetEnd
p248
V65
p249
sVPartOfSpeech
p250
VCD
p251
sVCharacterOffsetBegin
p252
V63
p253
sVNamedEntityTag
p254
VNUMBER
p255
saa(lp256
Vproblems
p257
a(dp258
VNamedEntityTag
p259
g78
sVCharacterOffsetEnd
p260
V74
p261
sVCharacterOffsetBegin
p262
V66
p263
sVPartOfSpeech
p264
VNNS
p265
sVLemma
p266
Vproblem
p267
saa(lp268
V.
p269
a(dp270
VNamedEntityTag
p271
g78
sVCharacterOffsetEnd
p272
V76
p273
sVCharacterOffsetBegin
p274
V75
p275
sVPartOfSpeech
p276
g269
sVLemma
p277
g269
saasVindexeddependencies
p278
(lp279
(lp280
Vroot
p281
aVROOT-0
p282
aVearned-3
p283
aa(lp284
Vdet
p285
aVstudent-2
p286
aVA-1
p287
aa(lp288
Vnsubj
p289
aVearned-3
p290
aVstudent-2
p291
aa(lp292
Vdet
p293
aVgrade-5
p294
aVa-4
p295
aa(lp296
Vdobj
p297
aVearned-3
p298
aVgrade-5
p299
aa(lp300
Vnumber
p301
aVtimes-8
p302
aV0.8-7
p303
aa(lp304
Vprep_of
p305
aVgrade-5
p306
aVtimes-8
p307
aa(lp308
Vdet
p309
aVtest-12
p310
aVa-10
p311
aa(lp312
Vnn
p313
aVtest-12
p314
aVmath-11
p315
aa(lp316
Vprep_on
p317
aVearned-3
p318
aVtest-12
p319
aa(lp320
Vnsubj
p321
aVhad-14
p322
aVthat-13
p323
aa(lp324
Vrcmod
p325
aVtest-12
p326
aVhad-14
p327
aa(lp328
Vnum
p329
aVproblems-16
p330
aV20-15
p331
aa(lp332
Vdobj
p333
aVhad-14
p334
aVproblems-16
p335
aasa(dp336
Vparsetree
p337
V(ROOT (SBARQ (WHNP (WHADJP (WRB How) (JJ many)) (NP (NP (NNS problems)) (PP (IN on) (NP (DT this) (NN test))))) (SQ (VP (VBD did) (NP (DT the) (NN student) (NN answer)) (ADVP (RB correctly)))) (. ?)))
p338
sVtext
p339
VHow many problems on this test did the student answer correctly ?
p340
sVdependencies
p341
(lp342
(lp343
Vroot
p344
aVROOT
p345
aVdid
p346
aa(lp347
Vadvmod
p348
aVmany
p349
aVHow
p350
aa(lp351
Vamod
p352
aVproblems
p353
aVmany
p354
aa(lp355
Vnsubj
p356
aVdid
p357
aVproblems
p358
aa(lp359
Vdet
p360
aVtest
p361
aVthis
p362
aa(lp363
Vprep_on
p364
aVproblems
p365
aVtest
p366
aa(lp367
Vdet
p368
aVanswer
p369
aVthe
p370
aa(lp371
Vnn
p372
aVanswer
p373
aVstudent
p374
aa(lp375
Vdobj
p376
aVdid
p377
aVanswer
p378
aa(lp379
Vadvmod
p380
aVdid
p381
aVcorrectly
p382
aasVwords
p383
(lp384
(lp385
VHow
p386
a(dp387
VNamedEntityTag
p388
g78
sVCharacterOffsetEnd
p389
V80
p390
sVCharacterOffsetBegin
p391
V77
p392
sVPartOfSpeech
p393
VWRB
p394
sVLemma
p395
Vhow
p396
saa(lp397
Vmany
p398
a(dp399
VNamedEntityTag
p400
g78
sVCharacterOffsetEnd
p401
V85
p402
sVCharacterOffsetBegin
p403
V81
p404
sVPartOfSpeech
p405
VJJ
p406
sVLemma
p407
Vmany
p408
saa(lp409
Vproblems
p410
a(dp411
VNamedEntityTag
p412
g78
sVCharacterOffsetEnd
p413
V94
p414
sVCharacterOffsetBegin
p415
V86
p416
sVPartOfSpeech
p417
VNNS
p418
sVLemma
p419
Vproblem
p420
saa(lp421
Von
p422
a(dp423
VNamedEntityTag
p424
g78
sVCharacterOffsetEnd
p425
V97
p426
sVCharacterOffsetBegin
p427
V95
p428
sVPartOfSpeech
p429
VIN
p430
sVLemma
p431
Von
p432
saa(lp433
Vthis
p434
a(dp435
VNamedEntityTag
p436
g78
sVCharacterOffsetEnd
p437
V102
p438
sVCharacterOffsetBegin
p439
V98
p440
sVPartOfSpeech
p441
VDT
p442
sVLemma
p443
Vthis
p444
saa(lp445
Vtest
p446
a(dp447
VNamedEntityTag
p448
g78
sVCharacterOffsetEnd
p449
V107
p450
sVCharacterOffsetBegin
p451
V103
p452
sVPartOfSpeech
p453
VNN
p454
sVLemma
p455
Vtest
p456
saa(lp457
Vdid
p458
a(dp459
VNamedEntityTag
p460
g78
sVCharacterOffsetEnd
p461
V111
p462
sVCharacterOffsetBegin
p463
V108
p464
sVPartOfSpeech
p465
VVBD
p466
sVLemma
p467
Vdo
p468
saa(lp469
Vthe
p470
a(dp471
VNamedEntityTag
p472
g78
sVCharacterOffsetEnd
p473
V115
p474
sVCharacterOffsetBegin
p475
V112
p476
sVPartOfSpeech
p477
VDT
p478
sVLemma
p479
Vthe
p480
saa(lp481
Vstudent
p482
a(dp483
VNamedEntityTag
p484
g78
sVCharacterOffsetEnd
p485
V123
p486
sVCharacterOffsetBegin
p487
V116
p488
sVPartOfSpeech
p489
VNN
p490
sVLemma
p491
Vstudent
p492
saa(lp493
Vanswer
p494
a(dp495
VNamedEntityTag
p496
g78
sVCharacterOffsetEnd
p497
V130
p498
sVCharacterOffsetBegin
p499
V124
p500
sVPartOfSpeech
p501
VNN
p502
sVLemma
p503
Vanswer
p504
saa(lp505
Vcorrectly
p506
a(dp507
VNamedEntityTag
p508
g78
sVCharacterOffsetEnd
p509
V140
p510
sVCharacterOffsetBegin
p511
V131
p512
sVPartOfSpeech
p513
VRB
p514
sVLemma
p515
Vcorrectly
p516
saa(lp517
V?
p518
a(dp519
VNamedEntityTag
p520
g78
sVCharacterOffsetEnd
p521
V142
p522
sVCharacterOffsetBegin
p523
V141
p524
sVPartOfSpeech
p525
g269
sVLemma
p526
g518
saasVindexeddependencies
p527
(lp528
(lp529
Vroot
p530
aVROOT-0
p531
aVdid-7
p532
aa(lp533
Vadvmod
p534
aVmany-2
p535
aVHow-1
p536
aa(lp537
Vamod
p538
aVproblems-3
p539
aVmany-2
p540
aa(lp541
Vnsubj
p542
aVdid-7
p543
aVproblems-3
p544
aa(lp545
Vdet
p546
aVtest-6
p547
aVthis-5
p548
aa(lp549
Vprep_on
p550
aVproblems-3
p551
aVtest-6
p552
aa(lp553
Vdet
p554
aVanswer-10
p555
aVthe-8
p556
aa(lp557
Vnn
p558
aVanswer-10
p559
aVstudent-9
p560
aa(lp561
Vdobj
p562
aVdid-7
p563
aVanswer-10
p564
aa(lp565
Vadvmod
p566
aVdid-7
p567
aVcorrectly-11
p568
aasas.