(dp0
Vcoref
p1
(lp2
(lp3
(lp4
(lp5
Van electrician
p6
aI0
aI3
aI2
aI4
aa(lp7
VJerry
p8
aI0
aI0
aI0
aI1
aaa(lp9
(lp10
Vhe
p11
aI1
aI6
aI6
aI7
aa(lp12
VJerry
p13
aI0
aI0
aI0
aI1
aaaa(lp14
(lp15
(lp16
Vthe year
p17
aI1
aI4
aI3
aI5
aa(lp18
Vthe year
p19
aI0
aI11
aI10
aI12
aaaasVsentences
p20
(lp21
(dp22
Vparsetree
p23
V(ROOT (S (NP (NP (NNP Jerry)) (, ,) (NP (DT an) (NN electrician)) (, ,)) (VP (VBD worked) (ADVP (NP (CD 7) (NNS months)) (IN out)) (PP (IN of) (NP (DT the) (NN year)))) (. .)))
p24
sVtext
p25
VJerry , an electrician , worked 7 months out of the year .
p26
sVdependencies
p27
(lp28
(lp29
Vroot
p30
aVROOT
p31
aVworked
p32
aa(lp33
Vnsubj
p34
aVworked
p35
aVJerry
p36
aa(lp37
Vdet
p38
aVelectrician
p39
aVan
p40
aa(lp41
Vappos
p42
aVJerry
p43
aVelectrician
p44
aa(lp45
Vnum
p46
aVmonths
p47
aV7
p48
aa(lp49
Vnpadvmod
p50
aVworked
p51
aVmonths
p52
aa(lp53
Vdet
p54
aVyear
p55
aVthe
p56
aa(lp57
Vprep_out_of
p58
aVworked
p59
aVyear
p60
aasVwords
p61
(lp62
(lp63
VJerry
p64
a(dp65
VNamedEntityTag
p66
VPERSON
p67
sVCharacterOffsetEnd
p68
V6
p69
sVCharacterOffsetBegin
p70
V1
p71
sVPartOfSpeech
p72
VNNP
p73
sVLemma
p74
VJerry
p75
saa(lp76
V,
p77
a(dp78
VNamedEntityTag
p79
VO
p80
sVCharacterOffsetEnd
p81
V8
p82
sVCharacterOffsetBegin
p83
g48
sVPartOfSpeech
p84
g77
sVLemma
p85
g77
saa(lp86
Van
p87
a(dp88
VNamedEntityTag
p89
g80
sVCharacterOffsetEnd
p90
V11
p91
sVCharacterOffsetBegin
p92
V9
p93
sVPartOfSpeech
p94
VDT
p95
sVLemma
p96
Va
p97
saa(lp98
Velectrician
p99
a(dp100
VNamedEntityTag
p101
g80
sVCharacterOffsetEnd
p102
V23
p103
sVCharacterOffsetBegin
p104
V12
p105
sVPartOfSpeech
p106
VNN
p107
sVLemma
p108
Velectrician
p109
saa(lp110
g77
a(dp111
VNamedEntityTag
p112
g80
sVCharacterOffsetEnd
p113
V25
p114
sVCharacterOffsetBegin
p115
V24
p116
sVPartOfSpeech
p117
g77
sVLemma
p118
g77
saa(lp119
Vworked
p120
a(dp121
VNamedEntityTag
p122
g80
sVCharacterOffsetEnd
p123
V32
p124
sVCharacterOffsetBegin
p125
V26
p126
sVPartOfSpeech
p127
VVBD
p128
sVLemma
p129
Vwork
p130
saa(lp131
g48
a(dp132
VNormalizedNamedEntityTag
p133
VP7M
p134
sVTimex
p135
V<TIMEX3 tid="t1" type="DURATION" value="P7M">7 months</TIMEX3>
p136
sVLemma
p137
g48
sVCharacterOffsetEnd
p138
V34
p139
sVPartOfSpeech
p140
VCD
p141
sVCharacterOffsetBegin
p142
V33
p143
sVNamedEntityTag
p144
VDURATION
p145
saa(lp146
Vmonths
p147
a(dp148
VNormalizedNamedEntityTag
p149
VP7M
p150
sVTimex
p151
V<TIMEX3 tid="t1" type="DURATION" value="P7M">7 months</TIMEX3>
p152
sVLemma
p153
Vmonth
p154
sVCharacterOffsetEnd
p155
V41
p156
sVPartOfSpeech
p157
VNNS
p158
sVCharacterOffsetBegin
p159
V35
p160
sVNamedEntityTag
p161
VDURATION
p162
saa(lp163
Vout
p164
a(dp165
VNamedEntityTag
p166
g80
sVCharacterOffsetEnd
p167
V45
p168
sVCharacterOffsetBegin
p169
V42
p170
sVPartOfSpeech
p171
VIN
p172
sVLemma
p173
Vout
p174
saa(lp175
Vof
p176
a(dp177
VNamedEntityTag
p178
g80
sVCharacterOffsetEnd
p179
V48
p180
sVCharacterOffsetBegin
p181
V46
p182
sVPartOfSpeech
p183
VIN
p184
sVLemma
p185
Vof
p186
saa(lp187
Vthe
p188
a(dp189
VNormalizedNamedEntityTag
p190
VTHIS
p191
sVTimex
p192
V<TIMEX3 alt_value="THIS P1Y" anchorTimeID="t0" temporalFunction="true" tid="t2" type="DATE" valueFromFunction="tf0">the year</TIMEX3>
p193
sVLemma
p194
Vthe
p195
sVCharacterOffsetEnd
p196
V52
p197
sVPartOfSpeech
p198
VDT
p199
sVCharacterOffsetBegin
p200
V49
p201
sVNamedEntityTag
p202
VDATE
p203
saa(lp204
Vyear
p205
a(dp206
VNormalizedNamedEntityTag
p207
VTHIS
p208
sVTimex
p209
V<TIMEX3 alt_value="THIS P1Y" anchorTimeID="t0" temporalFunction="true" tid="t2" type="DATE" valueFromFunction="tf0">the year</TIMEX3>
p210
sVLemma
p211
Vyear
p212
sVCharacterOffsetEnd
p213
V57
p214
sVPartOfSpeech
p215
VNN
p216
sVCharacterOffsetBegin
p217
V53
p218
sVNamedEntityTag
p219
VDATE
p220
saa(lp221
V.
p222
a(dp223
VNamedEntityTag
p224
g80
sVCharacterOffsetEnd
p225
V59
p226
sVCharacterOffsetBegin
p227
V58
p228
sVPartOfSpeech
p229
g222
sVLemma
p230
g222
saasVindexeddependencies
p231
(lp232
(lp233
Vroot
p234
aVROOT-0
p235
aVworked-6
p236
aa(lp237
Vnsubj
p238
aVworked-6
p239
aVJerry-1
p240
aa(lp241
Vdet
p242
aVelectrician-4
p243
aVan-3
p244
aa(lp245
Vappos
p246
aVJerry-1
p247
aVelectrician-4
p248
aa(lp249
Vnum
p250
aVmonths-8
p251
aV7-7
p252
aa(lp253
Vnpadvmod
p254
aVworked-6
p255
aVmonths-8
p256
aa(lp257
Vdet
p258
aVyear-12
p259
aVthe-11
p260
aa(lp261
Vprep_out_of
p262
aVworked-6
p263
aVyear-12
p264
aasa(dp265
Vparsetree
p266
V(ROOT (SBARQ (WHNP (WHNP (WDT What) (NNS times)) (PP (IN of) (NP (DT the) (NN year)))) (SQ (VBD did) (NP (PRP he)) (VP (VB work))) (. ?)))
p267
sVtext
p268
VWhat times of the year did he work ?
p269
sVdependencies
p270
(lp271
(lp272
Vroot
p273
aVROOT
p274
aVwork
p275
aa(lp276
Vdet
p277
aVtimes
p278
aVWhat
p279
aa(lp280
Vdobj
p281
aVwork
p282
aVtimes
p283
aa(lp284
Vdet
p285
aVyear
p286
aVthe
p287
aa(lp288
Vprep_of
p289
aVtimes
p290
aVyear
p291
aa(lp292
Vaux
p293
aVwork
p294
aVdid
p295
aa(lp296
Vnsubj
p297
aVwork
p298
aVhe
p299
aasVwords
p300
(lp301
(lp302
VWhat
p303
a(dp304
VNamedEntityTag
p305
g80
sVCharacterOffsetEnd
p306
V64
p307
sVCharacterOffsetBegin
p308
V60
p309
sVPartOfSpeech
p310
VWDT
p311
sVLemma
p312
Vwhat
p313
saa(lp314
Vtimes
p315
a(dp316
VNamedEntityTag
p317
g80
sVCharacterOffsetEnd
p318
V70
p319
sVCharacterOffsetBegin
p320
V65
p321
sVPartOfSpeech
p322
VNNS
p323
sVLemma
p324
Vtime
p325
saa(lp326
Vof
p327
a(dp328
VNamedEntityTag
p329
g80
sVCharacterOffsetEnd
p330
V73
p331
sVCharacterOffsetBegin
p332
V71
p333
sVPartOfSpeech
p334
VIN
p335
sVLemma
p336
Vof
p337
saa(lp338
Vthe
p339
a(dp340
VNormalizedNamedEntityTag
p341
VTHIS
p342
sVTimex
p343
V<TIMEX3 alt_value="THIS P1Y" anchorTimeID="t0" temporalFunction="true" tid="t2" type="DATE" valueFromFunction="tf0">the year</TIMEX3>
p344
sVLemma
p345
Vthe
p346
sVCharacterOffsetEnd
p347
V77
p348
sVPartOfSpeech
p349
VDT
p350
sVCharacterOffsetBegin
p351
V74
p352
sVNamedEntityTag
p353
VDATE
p354
saa(lp355
Vyear
p356
a(dp357
VNormalizedNamedEntityTag
p358
VTHIS
p359
sVTimex
p360
V<TIMEX3 alt_value="THIS P1Y" anchorTimeID="t0" temporalFunction="true" tid="t2" type="DATE" valueFromFunction="tf0">the year</TIMEX3>
p361
sVLemma
p362
Vyear
p363
sVCharacterOffsetEnd
p364
V82
p365
sVPartOfSpeech
p366
VNN
p367
sVCharacterOffsetBegin
p368
V78
p369
sVNamedEntityTag
p370
VDATE
p371
saa(lp372
Vdid
p373
a(dp374
VNamedEntityTag
p375
g80
sVCharacterOffsetEnd
p376
V86
p377
sVCharacterOffsetBegin
p378
V83
p379
sVPartOfSpeech
p380
VVBD
p381
sVLemma
p382
Vdo
p383
saa(lp384
Vhe
p385
a(dp386
VNamedEntityTag
p387
g80
sVCharacterOffsetEnd
p388
V89
p389
sVCharacterOffsetBegin
p390
V87
p391
sVPartOfSpeech
p392
VPRP
p393
sVLemma
p394
Vhe
p395
saa(lp396
Vwork
p397
a(dp398
VNamedEntityTag
p399
g80
sVCharacterOffsetEnd
p400
V94
p401
sVCharacterOffsetBegin
p402
V90
p403
sVPartOfSpeech
p404
VVB
p405
sVLemma
p406
Vwork
p407
saa(lp408
V?
p409
a(dp410
VNamedEntityTag
p411
g80
sVCharacterOffsetEnd
p412
V96
p413
sVCharacterOffsetBegin
p414
V95
p415
sVPartOfSpeech
p416
g222
sVLemma
p417
g409
saasVindexeddependencies
p418
(lp419
(lp420
Vroot
p421
aVROOT-0
p422
aVwork-8
p423
aa(lp424
Vdet
p425
aVtimes-2
p426
aVWhat-1
p427
aa(lp428
Vdobj
p429
aVwork-8
p430
aVtimes-2
p431
aa(lp432
Vdet
p433
aVyear-5
p434
aVthe-4
p435
aa(lp436
Vprep_of
p437
aVtimes-2
p438
aVyear-5
p439
aa(lp440
Vaux
p441
aVwork-8
p442
aVdid-6
p443
aa(lp444
Vnsubj
p445
aVwork-8
p446
aVhe-7
p447
aasas.