(dp0
Vcoref
p1
(lp2
(lp3
(lp4
(lp5
VShe
p6
aI1
aI0
aI0
aI1
aa(lp7
VDanielle
p8
aI0
aI0
aI0
aI1
aaa(lp9
(lp10
VDanielle
p11
aI2
aI3
aI3
aI4
aa(lp12
VDanielle
p13
aI0
aI0
aI0
aI1
aaaasVsentences
p14
(lp15
(dp16
Vparsetree
p17
V(ROOT (S (NP (NNP Danielle)) (VP (VBD took) (NP (DT a) (NN math) (NN quiz)) (NP-TMP (JJ last) (NN week))) (. .)))
p18
sVtext
p19
VDanielle took a math quiz last week .
p20
sVdependencies
p21
(lp22
(lp23
Vroot
p24
aVROOT
p25
aVtook
p26
aa(lp27
Vnsubj
p28
aVtook
p29
aVDanielle
p30
aa(lp31
Vdet
p32
aVquiz
p33
aVa
p34
aa(lp35
Vnn
p36
aVquiz
p37
aVmath
p38
aa(lp39
Vdobj
p40
aVtook
p41
aVquiz
p42
aa(lp43
Vamod
p44
aVweek
p45
aVlast
p46
aa(lp47
Vtmod
p48
aVtook
p49
aVweek
p50
aasVwords
p51
(lp52
(lp53
VDanielle
p54
a(dp55
VNamedEntityTag
p56
VPERSON
p57
sVCharacterOffsetEnd
p58
V9
p59
sVCharacterOffsetBegin
p60
V1
p61
sVPartOfSpeech
p62
VNNP
p63
sVLemma
p64
VDanielle
p65
saa(lp66
Vtook
p67
a(dp68
VNamedEntityTag
p69
VO
p70
sVCharacterOffsetEnd
p71
V14
p72
sVCharacterOffsetBegin
p73
V10
p74
sVPartOfSpeech
p75
VVBD
p76
sVLemma
p77
Vtake
p78
saa(lp79
g34
a(dp80
VNamedEntityTag
p81
g70
sVCharacterOffsetEnd
p82
V16
p83
sVCharacterOffsetBegin
p84
V15
p85
sVPartOfSpeech
p86
VDT
p87
sVLemma
p88
g34
saa(lp89
Vmath
p90
a(dp91
VNamedEntityTag
p92
g70
sVCharacterOffsetEnd
p93
V21
p94
sVCharacterOffsetBegin
p95
V17
p96
sVPartOfSpeech
p97
VNN
p98
sVLemma
p99
Vmath
p100
saa(lp101
Vquiz
p102
a(dp103
VNamedEntityTag
p104
g70
sVCharacterOffsetEnd
p105
V26
p106
sVCharacterOffsetBegin
p107
V22
p108
sVPartOfSpeech
p109
VNN
p110
sVLemma
p111
Vquiz
p112
saa(lp113
Vlast
p114
a(dp115
VNormalizedNamedEntityTag
p116
VTHIS
p117
sVTimex
p118
V<TIMEX3 alt_value="THIS P1W OFFSET P-1W" anchorTimeID="t2" temporalFunction="true" tid="t1" type="DATE" valueFromFunction="tf0">last week</TIMEX3>
p119
sVLemma
p120
Vlast
p121
sVCharacterOffsetEnd
p122
V31
p123
sVPartOfSpeech
p124
VJJ
p125
sVCharacterOffsetBegin
p126
V27
p127
sVNamedEntityTag
p128
VDATE
p129
saa(lp130
Vweek
p131
a(dp132
VNormalizedNamedEntityTag
p133
VTHIS
p134
sVTimex
p135
V<TIMEX3 alt_value="THIS P1W OFFSET P-1W" anchorTimeID="t2" temporalFunction="true" tid="t1" type="DATE" valueFromFunction="tf0">last week</TIMEX3>
p136
sVLemma
p137
Vweek
p138
sVCharacterOffsetEnd
p139
V36
p140
sVPartOfSpeech
p141
VNN
p142
sVCharacterOffsetBegin
p143
V32
p144
sVNamedEntityTag
p145
VDATE
p146
saa(lp147
V.
p148
a(dp149
VNamedEntityTag
p150
g70
sVCharacterOffsetEnd
p151
V38
p152
sVCharacterOffsetBegin
p153
V37
p154
sVPartOfSpeech
p155
g148
sVLemma
p156
g148
saasVindexeddependencies
p157
(lp158
(lp159
Vroot
p160
aVROOT-0
p161
aVtook-2
p162
aa(lp163
Vnsubj
p164
aVtook-2
p165
aVDanielle-1
p166
aa(lp167
Vdet
p168
aVquiz-5
p169
aVa-3
p170
aa(lp171
Vnn
p172
aVquiz-5
p173
aVmath-4
p174
aa(lp175
Vdobj
p176
aVtook-2
p177
aVquiz-5
p178
aa(lp179
Vamod
p180
aVweek-7
p181
aVlast-6
p182
aa(lp183
Vtmod
p184
aVtook-2
p185
aVweek-7
p186
aasa(dp187
Vparsetree
p188
V(ROOT (S (NP (PRP She)) (VP (VBD got) (PP (ADVP (NP (CD 18)) (IN out)) (IN of) (NP (NP (CD 45) (NNS problems)) (ADJP (JJ correct))))) (. .)))
p189
sVtext
p190
VShe got 18 out of 45 problems correct .
p191
sVdependencies
p192
(lp193
(lp194
Vroot
p195
aVROOT
p196
aVgot
p197
aa(lp198
Vnsubj
p199
aVgot
p200
aVShe
p201
aa(lp202
Vnpadvmod
p203
aVgot
p204
aV18
p205
aa(lp206
Vnum
p207
aVproblems
p208
aV45
p209
aa(lp210
Vprep_out_of
p211
aVgot
p212
aVproblems
p213
aa(lp214
Vamod
p215
aVproblems
p216
aVcorrect
p217
aasVwords
p218
(lp219
(lp220
VShe
p221
a(dp222
VNamedEntityTag
p223
g70
sVCharacterOffsetEnd
p224
V42
p225
sVCharacterOffsetBegin
p226
V39
p227
sVPartOfSpeech
p228
VPRP
p229
sVLemma
p230
Vshe
p231
saa(lp232
Vgot
p233
a(dp234
VNamedEntityTag
p235
g70
sVCharacterOffsetEnd
p236
V46
p237
sVCharacterOffsetBegin
p238
V43
p239
sVPartOfSpeech
p240
VVBD
p241
sVLemma
p242
Vget
p243
saa(lp244
V18
p245
a(dp246
VNormalizedNamedEntityTag
p247
V18.0
p248
sVLemma
p249
V18
p250
sVCharacterOffsetEnd
p251
V49
p252
sVPartOfSpeech
p253
VCD
p254
sVCharacterOffsetBegin
p255
V47
p256
sVNamedEntityTag
p257
VNUMBER
p258
saa(lp259
Vout
p260
a(dp261
VNamedEntityTag
p262
g70
sVCharacterOffsetEnd
p263
V53
p264
sVCharacterOffsetBegin
p265
V50
p266
sVPartOfSpeech
p267
VIN
p268
sVLemma
p269
Vout
p270
saa(lp271
Vof
p272
a(dp273
VNamedEntityTag
p274
g70
sVCharacterOffsetEnd
p275
V56
p276
sVCharacterOffsetBegin
p277
V54
p278
sVPartOfSpeech
p279
VIN
p280
sVLemma
p281
Vof
p282
saa(lp283
V45
p284
a(dp285
VNormalizedNamedEntityTag
p286
V45.0
p287
sVLemma
p288
V45
p289
sVCharacterOffsetEnd
p290
V59
p291
sVPartOfSpeech
p292
VCD
p293
sVCharacterOffsetBegin
p294
V57
p295
sVNamedEntityTag
p296
VNUMBER
p297
saa(lp298
Vproblems
p299
a(dp300
VNamedEntityTag
p301
g70
sVCharacterOffsetEnd
p302
V68
p303
sVCharacterOffsetBegin
p304
V60
p305
sVPartOfSpeech
p306
VNNS
p307
sVLemma
p308
Vproblem
p309
saa(lp310
Vcorrect
p311
a(dp312
VNamedEntityTag
p313
g70
sVCharacterOffsetEnd
p314
V76
p315
sVCharacterOffsetBegin
p316
V69
p317
sVPartOfSpeech
p318
VJJ
p319
sVLemma
p320
Vcorrect
p321
saa(lp322
g148
a(dp323
VNamedEntityTag
p324
g70
sVCharacterOffsetEnd
p325
V78
p326
sVCharacterOffsetBegin
p327
V77
p328
sVPartOfSpeech
p329
g148
sVLemma
p330
g148
saasVindexeddependencies
p331
(lp332
(lp333
Vroot
p334
aVROOT-0
p335
aVgot-2
p336
aa(lp337
Vnsubj
p338
aVgot-2
p339
aVShe-1
p340
aa(lp341
Vnpadvmod
p342
aVgot-2
p343
aV18-3
p344
aa(lp345
Vnum
p346
aVproblems-7
p347
aV45-6
p348
aa(lp349
Vprep_out_of
p350
aVgot-2
p351
aVproblems-7
p352
aa(lp353
Vamod
p354
aVproblems-7
p355
aVcorrect-8
p356
aasa(dp357
Vparsetree
p358
V(ROOT (SBARQ (WHNP (WDT What) (NN percentage)) (SQ (VBD did) (NP (NNP Danielle)) (VP (VB get) (VP (VB correct)))) (. ?)))
p359
sVtext
p360
VWhat percentage did Danielle get correct ?
p361
sVdependencies
p362
(lp363
(lp364
Vroot
p365
aVROOT
p366
aVcorrect
p367
aa(lp368
Vdet
p369
aVpercentage
p370
aVWhat
p371
aa(lp372
Vdobj
p373
aVcorrect
p374
aVpercentage
p375
aa(lp376
Vaux
p377
aVcorrect
p378
aVdid
p379
aa(lp380
Vnsubj
p381
aVcorrect
p382
aVDanielle
p383
aa(lp384
Vaux
p385
aVcorrect
p386
aVget
p387
aasVwords
p388
(lp389
(lp390
VWhat
p391
a(dp392
VNamedEntityTag
p393
g70
sVCharacterOffsetEnd
p394
V83
p395
sVCharacterOffsetBegin
p396
V79
p397
sVPartOfSpeech
p398
VWDT
p399
sVLemma
p400
Vwhat
p401
saa(lp402
Vpercentage
p403
a(dp404
VNamedEntityTag
p405
g70
sVCharacterOffsetEnd
p406
V94
p407
sVCharacterOffsetBegin
p408
V84
p409
sVPartOfSpeech
p410
VNN
p411
sVLemma
p412
Vpercentage
p413
saa(lp414
Vdid
p415
a(dp416
VNamedEntityTag
p417
g70
sVCharacterOffsetEnd
p418
V98
p419
sVCharacterOffsetBegin
p420
V95
p421
sVPartOfSpeech
p422
VVBD
p423
sVLemma
p424
Vdo
p425
saa(lp426
VDanielle
p427
a(dp428
VNamedEntityTag
p429
VPERSON
p430
sVCharacterOffsetEnd
p431
V107
p432
sVCharacterOffsetBegin
p433
V99
p434
sVPartOfSpeech
p435
VNNP
p436
sVLemma
p437
VDanielle
p438
saa(lp439
Vget
p440
a(dp441
VNamedEntityTag
p442
g70
sVCharacterOffsetEnd
p443
V111
p444
sVCharacterOffsetBegin
p445
V108
p446
sVPartOfSpeech
p447
VVB
p448
sVLemma
p449
Vget
p450
saa(lp451
Vcorrect
p452
a(dp453
VNamedEntityTag
p454
g70
sVCharacterOffsetEnd
p455
V119
p456
sVCharacterOffsetBegin
p457
V112
p458
sVPartOfSpeech
p459
VVB
p460
sVLemma
p461
Vcorrect
p462
saa(lp463
V?
p464
a(dp465
VNamedEntityTag
p466
g70
sVCharacterOffsetEnd
p467
V121
p468
sVCharacterOffsetBegin
p469
V120
p470
sVPartOfSpeech
p471
g148
sVLemma
p472
g464
saasVindexeddependencies
p473
(lp474
(lp475
Vroot
p476
aVROOT-0
p477
aVcorrect-6
p478
aa(lp479
Vdet
p480
aVpercentage-2
p481
aVWhat-1
p482
aa(lp483
Vdobj
p484
aVcorrect-6
p485
aVpercentage-2
p486
aa(lp487
Vaux
p488
aVcorrect-6
p489
aVdid-3
p490
aa(lp491
Vnsubj
p492
aVcorrect-6
p493
aVDanielle-4
p494
aa(lp495
Vaux
p496
aVcorrect-6
p497
aVget-5
p498
aasas.