(dp0
Vcoref
p1
(lp2
(lp3
(lp4
(lp5
Vher
p6
aI0
aI7
aI7
aI8
aa(lp7
VZoe
p8
aI0
aI0
aI0
aI1
aaa(lp9
(lp10
Vshe
p11
aI1
aI1
aI1
aI2
aa(lp12
VZoe
p13
aI0
aI0
aI0
aI1
aaa(lp14
(lp15
Vshe
p16
aI1
aI16
aI16
aI17
aa(lp17
VZoe
p18
aI0
aI0
aI0
aI1
aaaasVsentences
p19
(lp20
(dp21
Vparsetree
p22
V(ROOT (S (NP (NNP Zoe)) (VP (VBD had) (NP (NP (CD 42) (NNS bottles)) (PP (IN of) (NP (NN water)))) (PP (IN in) (NP (PRP$ her) (NN fridge)))) (. .)))
p23
sVtext
p24
VZoe had 42 bottles of water in her fridge .
p25
sVdependencies
p26
(lp27
(lp28
Vroot
p29
aVROOT
p30
aVhad
p31
aa(lp32
Vnsubj
p33
aVhad
p34
aVZoe
p35
aa(lp36
Vnum
p37
aVbottles
p38
aV42
p39
aa(lp40
Vdobj
p41
aVhad
p42
aVbottles
p43
aa(lp44
Vprep_of
p45
aVbottles
p46
aVwater
p47
aa(lp48
Vposs
p49
aVfridge
p50
aVher
p51
aa(lp52
Vprep_in
p53
aVhad
p54
aVfridge
p55
aasVwords
p56
(lp57
(lp58
VZoe
p59
a(dp60
VNamedEntityTag
p61
VPERSON
p62
sVCharacterOffsetEnd
p63
V4
p64
sVCharacterOffsetBegin
p65
V1
p66
sVPartOfSpeech
p67
VNNP
p68
sVLemma
p69
VZoe
p70
saa(lp71
Vhad
p72
a(dp73
VNamedEntityTag
p74
VO
p75
sVCharacterOffsetEnd
p76
V8
p77
sVCharacterOffsetBegin
p78
V5
p79
sVPartOfSpeech
p80
VVBD
p81
sVLemma
p82
Vhave
p83
saa(lp84
V42
p85
a(dp86
VNormalizedNamedEntityTag
p87
V42.0
p88
sVLemma
p89
V42
p90
sVCharacterOffsetEnd
p91
V11
p92
sVPartOfSpeech
p93
VCD
p94
sVCharacterOffsetBegin
p95
V9
p96
sVNamedEntityTag
p97
VNUMBER
p98
saa(lp99
Vbottles
p100
a(dp101
VNamedEntityTag
p102
g75
sVCharacterOffsetEnd
p103
V19
p104
sVCharacterOffsetBegin
p105
V12
p106
sVPartOfSpeech
p107
VNNS
p108
sVLemma
p109
Vbottle
p110
saa(lp111
Vof
p112
a(dp113
VNamedEntityTag
p114
g75
sVCharacterOffsetEnd
p115
V22
p116
sVCharacterOffsetBegin
p117
V20
p118
sVPartOfSpeech
p119
VIN
p120
sVLemma
p121
Vof
p122
saa(lp123
Vwater
p124
a(dp125
VNamedEntityTag
p126
g75
sVCharacterOffsetEnd
p127
V28
p128
sVCharacterOffsetBegin
p129
V23
p130
sVPartOfSpeech
p131
VNN
p132
sVLemma
p133
Vwater
p134
saa(lp135
Vin
p136
a(dp137
VNamedEntityTag
p138
g75
sVCharacterOffsetEnd
p139
V31
p140
sVCharacterOffsetBegin
p141
V29
p142
sVPartOfSpeech
p143
VIN
p144
sVLemma
p145
Vin
p146
saa(lp147
Vher
p148
a(dp149
VNamedEntityTag
p150
g75
sVCharacterOffsetEnd
p151
V35
p152
sVCharacterOffsetBegin
p153
V32
p154
sVPartOfSpeech
p155
VPRP$
p156
sVLemma
p157
Vshe
p158
saa(lp159
Vfridge
p160
a(dp161
VNamedEntityTag
p162
g75
sVCharacterOffsetEnd
p163
V42
p164
sVCharacterOffsetBegin
p165
V36
p166
sVPartOfSpeech
p167
VNN
p168
sVLemma
p169
Vfridge
p170
saa(lp171
V.
p172
a(dp173
VNamedEntityTag
p174
g75
sVCharacterOffsetEnd
p175
V44
p176
sVCharacterOffsetBegin
p177
V43
p178
sVPartOfSpeech
p179
g172
sVLemma
p180
g172
saasVindexeddependencies
p181
(lp182
(lp183
Vroot
p184
aVROOT-0
p185
aVhad-2
p186
aa(lp187
Vnsubj
p188
aVhad-2
p189
aVZoe-1
p190
aa(lp191
Vnum
p192
aVbottles-4
p193
aV42-3
p194
aa(lp195
Vdobj
p196
aVhad-2
p197
aVbottles-4
p198
aa(lp199
Vprep_of
p200
aVbottles-4
p201
aVwater-6
p202
aa(lp203
Vposs
p204
aVfridge-9
p205
aVher-8
p206
aa(lp207
Vprep_in
p208
aVhad-2
p209
aVfridge-9
p210
aasa(dp211
Vparsetree
p212
V(ROOT (SBARQ (SBAR (IN If) (S (NP (PRP she)) (VP (VP (VBD drank) (NP (NP (CD 25)) (PP (IN of) (NP (PRP them))))) (CC and) (VP (ADVP (RB then)) (VBD bought) (NP (CD 30) (JJR more)))))) (, ,) (WHNP (WHADJP (WRB how) (JJ many)) (NNS bottles)) (SQ (MD would) (NP (PRP she)) (VP (VB have))) (. ?)))
p213
sVtext
p214
VIf she drank 25 of them and then bought 30 more , how many bottles would she have ?
p215
sVdependencies
p216
(lp217
(lp218
Vroot
p219
aVROOT
p220
aVhave
p221
aa(lp222
Vmark
p223
aVdrank
p224
aVIf
p225
aa(lp226
Vnsubj
p227
aVdrank
p228
aVshe
p229
aa(lp230
Vadvcl
p231
aVhave
p232
aVdrank
p233
aa(lp234
Vdobj
p235
aVdrank
p236
aV25
p237
aa(lp238
Vprep_of
p239
aV25
p240
aVthem
p241
aa(lp242
Vadvmod
p243
aVbought
p244
aVthen
p245
aa(lp246
Vconj_and
p247
aVdrank
p248
aVbought
p249
aa(lp250
Vnum
p251
aVmore
p252
aV30
p253
aa(lp254
Vdobj
p255
aVbought
p256
aVmore
p257
aa(lp258
Vadvmod
p259
aVmany
p260
aVhow
p261
aa(lp262
Vamod
p263
aVbottles
p264
aVmany
p265
aa(lp266
Vdobj
p267
aVhave
p268
aVbottles
p269
aa(lp270
Vaux
p271
aVhave
p272
aVwould
p273
aa(lp274
Vnsubj
p275
aVhave
p276
aVshe
p277
aasVwords
p278
(lp279
(lp280
VIf
p281
a(dp282
VNamedEntityTag
p283
g75
sVCharacterOffsetEnd
p284
V47
p285
sVCharacterOffsetBegin
p286
V45
p287
sVPartOfSpeech
p288
VIN
p289
sVLemma
p290
Vif
p291
saa(lp292
Vshe
p293
a(dp294
VNamedEntityTag
p295
g75
sVCharacterOffsetEnd
p296
V51
p297
sVCharacterOffsetBegin
p298
V48
p299
sVPartOfSpeech
p300
VPRP
p301
sVLemma
p302
Vshe
p303
saa(lp304
Vdrank
p305
a(dp306
VNamedEntityTag
p307
g75
sVCharacterOffsetEnd
p308
V57
p309
sVCharacterOffsetBegin
p310
V52
p311
sVPartOfSpeech
p312
VVBD
p313
sVLemma
p314
Vdrink
p315
saa(lp316
V25
p317
a(dp318
VNormalizedNamedEntityTag
p319
V25.0
p320
sVLemma
p321
V25
p322
sVCharacterOffsetEnd
p323
V60
p324
sVPartOfSpeech
p325
VCD
p326
sVCharacterOffsetBegin
p327
V58
p328
sVNamedEntityTag
p329
VNUMBER
p330
saa(lp331
Vof
p332
a(dp333
VNamedEntityTag
p334
g75
sVCharacterOffsetEnd
p335
V63
p336
sVCharacterOffsetBegin
p337
V61
p338
sVPartOfSpeech
p339
VIN
p340
sVLemma
p341
Vof
p342
saa(lp343
Vthem
p344
a(dp345
VNamedEntityTag
p346
g75
sVCharacterOffsetEnd
p347
V68
p348
sVCharacterOffsetBegin
p349
V64
p350
sVPartOfSpeech
p351
VPRP
p352
sVLemma
p353
Vthey
p354
saa(lp355
Vand
p356
a(dp357
VNamedEntityTag
p358
g75
sVCharacterOffsetEnd
p359
V72
p360
sVCharacterOffsetBegin
p361
V69
p362
sVPartOfSpeech
p363
VCC
p364
sVLemma
p365
Vand
p366
saa(lp367
Vthen
p368
a(dp369
VNamedEntityTag
p370
g75
sVCharacterOffsetEnd
p371
V77
p372
sVCharacterOffsetBegin
p373
V73
p374
sVPartOfSpeech
p375
VRB
p376
sVLemma
p377
Vthen
p378
saa(lp379
Vbought
p380
a(dp381
VNamedEntityTag
p382
g75
sVCharacterOffsetEnd
p383
V84
p384
sVCharacterOffsetBegin
p385
V78
p386
sVPartOfSpeech
p387
VVBD
p388
sVLemma
p389
Vbuy
p390
saa(lp391
V30
p392
a(dp393
VNormalizedNamedEntityTag
p394
V30.0
p395
sVLemma
p396
V30
p397
sVCharacterOffsetEnd
p398
V87
p399
sVPartOfSpeech
p400
VCD
p401
sVCharacterOffsetBegin
p402
V85
p403
sVNamedEntityTag
p404
VNUMBER
p405
saa(lp406
Vmore
p407
a(dp408
VNamedEntityTag
p409
g75
sVCharacterOffsetEnd
p410
V92
p411
sVCharacterOffsetBegin
p412
V88
p413
sVPartOfSpeech
p414
VJJR
p415
sVLemma
p416
Vmore
p417
saa(lp418
V,
p419
a(dp420
VNamedEntityTag
p421
g75
sVCharacterOffsetEnd
p422
V94
p423
sVCharacterOffsetBegin
p424
V93
p425
sVPartOfSpeech
p426
g419
sVLemma
p427
g419
saa(lp428
Vhow
p429
a(dp430
VNamedEntityTag
p431
g75
sVCharacterOffsetEnd
p432
V98
p433
sVCharacterOffsetBegin
p434
V95
p435
sVPartOfSpeech
p436
VWRB
p437
sVLemma
p438
Vhow
p439
saa(lp440
Vmany
p441
a(dp442
VNamedEntityTag
p443
g75
sVCharacterOffsetEnd
p444
V103
p445
sVCharacterOffsetBegin
p446
V99
p447
sVPartOfSpeech
p448
VJJ
p449
sVLemma
p450
Vmany
p451
saa(lp452
Vbottles
p453
a(dp454
VNamedEntityTag
p455
g75
sVCharacterOffsetEnd
p456
V111
p457
sVCharacterOffsetBegin
p458
V104
p459
sVPartOfSpeech
p460
VNNS
p461
sVLemma
p462
Vbottle
p463
saa(lp464
Vwould
p465
a(dp466
VNamedEntityTag
p467
g75
sVCharacterOffsetEnd
p468
V117
p469
sVCharacterOffsetBegin
p470
V112
p471
sVPartOfSpeech
p472
VMD
p473
sVLemma
p474
Vwould
p475
saa(lp476
Vshe
p477
a(dp478
VNamedEntityTag
p479
g75
sVCharacterOffsetEnd
p480
V121
p481
sVCharacterOffsetBegin
p482
V118
p483
sVPartOfSpeech
p484
VPRP
p485
sVLemma
p486
Vshe
p487
saa(lp488
Vhave
p489
a(dp490
VNamedEntityTag
p491
g75
sVCharacterOffsetEnd
p492
V126
p493
sVCharacterOffsetBegin
p494
V122
p495
sVPartOfSpeech
p496
VVB
p497
sVLemma
p498
Vhave
p499
saa(lp500
V?
p501
a(dp502
VNamedEntityTag
p503
g75
sVCharacterOffsetEnd
p504
V128
p505
sVCharacterOffsetBegin
p506
V127
p507
sVPartOfSpeech
p508
g172
sVLemma
p509
g501
saasVindexeddependencies
p510
(lp511
(lp512
Vroot
p513
aVROOT-0
p514
aVhave-18
p515
aa(lp516
Vmark
p517
aVdrank-3
p518
aVIf-1
p519
aa(lp520
Vnsubj
p521
aVdrank-3
p522
aVshe-2
p523
aa(lp524
Vadvcl
p525
aVhave-18
p526
aVdrank-3
p527
aa(lp528
Vdobj
p529
aVdrank-3
p530
aV25-4
p531
aa(lp532
Vprep_of
p533
aV25-4
p534
aVthem-6
p535
aa(lp536
Vadvmod
p537
aVbought-9
p538
aVthen-8
p539
aa(lp540
Vconj_and
p541
aVdrank-3
p542
aVbought-9
p543
aa(lp544
Vnum
p545
aVmore-11
p546
aV30-10
p547
aa(lp548
Vdobj
p549
aVbought-9
p550
aVmore-11
p551
aa(lp552
Vadvmod
p553
aVmany-14
p554
aVhow-13
p555
aa(lp556
Vamod
p557
aVbottles-15
p558
aVmany-14
p559
aa(lp560
Vdobj
p561
aVhave-18
p562
aVbottles-15
p563
aa(lp564
Vaux
p565
aVhave-18
p566
aVwould-16
p567
aa(lp568
Vnsubj
p569
aVhave-18
p570
aVshe-17
p571
aasas.