(dp0
Vcoref
p1
(lp2
(lp3
(lp4
(lp5
VAnne 's
p6
aI2
aI5
aI5
aI7
aa(lp7
VAnne 's
p8
aI0
aI3
aI3
aI5
aaaa(lp9
(lp10
(lp11
VAnne 's grade
p12
aI2
aI7
aI5
aI8
aa(lp13
VAnne 's grade
p14
aI0
aI5
aI3
aI6
aaaa(lp15
(lp16
(lp17
Vthe athlete
p18
aI3
aI8
aI7
aI9
aa(lp19
Va famous athlete
p20
aI1
aI6
aI4
aI7
aaaa(lp21
(lp22
(lp23
Vthe students
p24
aI3
aI4
aI3
aI5
aa(lp25
VThe other 48 students in Anne 's grade
p26
aI2
aI3
aI0
aI8
aaaasVsentences
p27
(lp28
(dp29
Vparsetree
p30
V(ROOT (S (NP (NP (DT The) (NNS students)) (PP (IN in) (NP (NP (NNP Anne) (POS 's)) (NN grade)))) (VP (VBD voted) (S (VP (TO to) (VP (VB select) (NP (DT a) (NN guest) (NN speaker)))))) (. .)))
p31
sVtext
p32
VThe students in Anne's grade voted to select a guest speaker .
p33
sVdependencies
p34
(lp35
(lp36
Vroot
p37
aVROOT
p38
aVvoted
p39
aa(lp40
Vdet
p41
aVstudents
p42
aVThe
p43
aa(lp44
Vnsubj
p45
aVvoted
p46
aVstudents
p47
aa(lp48
Vposs
p49
aVgrade
p50
aVAnne
p51
aa(lp52
Vprep_in
p53
aVstudents
p54
aVgrade
p55
aa(lp56
Vaux
p57
aVselect
p58
aVto
p59
aa(lp60
Vxcomp
p61
aVvoted
p62
aVselect
p63
aa(lp64
Vdet
p65
aVspeaker
p66
aVa
p67
aa(lp68
Vnn
p69
aVspeaker
p70
aVguest
p71
aa(lp72
Vdobj
p73
aVselect
p74
aVspeaker
p75
aasVwords
p76
(lp77
(lp78
VThe
p79
a(dp80
VNamedEntityTag
p81
VO
p82
sVCharacterOffsetEnd
p83
V4
p84
sVCharacterOffsetBegin
p85
V1
p86
sVPartOfSpeech
p87
VDT
p88
sVLemma
p89
Vthe
p90
saa(lp91
Vstudents
p92
a(dp93
VNamedEntityTag
p94
g82
sVCharacterOffsetEnd
p95
V13
p96
sVCharacterOffsetBegin
p97
V5
p98
sVPartOfSpeech
p99
VNNS
p100
sVLemma
p101
Vstudent
p102
saa(lp103
Vin
p104
a(dp105
VNamedEntityTag
p106
g82
sVCharacterOffsetEnd
p107
V16
p108
sVCharacterOffsetBegin
p109
V14
p110
sVPartOfSpeech
p111
VIN
p112
sVLemma
p113
Vin
p114
saa(lp115
VAnne
p116
a(dp117
VNamedEntityTag
p118
VPERSON
p119
sVCharacterOffsetEnd
p120
V21
p121
sVCharacterOffsetBegin
p122
V17
p123
sVPartOfSpeech
p124
VNNP
p125
sVLemma
p126
VAnne
p127
saa(lp128
V's
p129
a(dp130
VNamedEntityTag
p131
g82
sVCharacterOffsetEnd
p132
V23
p133
sVCharacterOffsetBegin
p134
V21
p135
sVPartOfSpeech
p136
VPOS
p137
sVLemma
p138
V's
p139
saa(lp140
Vgrade
p141
a(dp142
VNamedEntityTag
p143
g82
sVCharacterOffsetEnd
p144
V29
p145
sVCharacterOffsetBegin
p146
V24
p147
sVPartOfSpeech
p148
VNN
p149
sVLemma
p150
Vgrade
p151
saa(lp152
Vvoted
p153
a(dp154
VNamedEntityTag
p155
g82
sVCharacterOffsetEnd
p156
V35
p157
sVCharacterOffsetBegin
p158
V30
p159
sVPartOfSpeech
p160
VVBD
p161
sVLemma
p162
Vvote
p163
saa(lp164
Vto
p165
a(dp166
VNamedEntityTag
p167
g82
sVCharacterOffsetEnd
p168
V38
p169
sVCharacterOffsetBegin
p170
V36
p171
sVPartOfSpeech
p172
VTO
p173
sVLemma
p174
Vto
p175
saa(lp176
Vselect
p177
a(dp178
VNamedEntityTag
p179
g82
sVCharacterOffsetEnd
p180
V45
p181
sVCharacterOffsetBegin
p182
V39
p183
sVPartOfSpeech
p184
VVB
p185
sVLemma
p186
Vselect
p187
saa(lp188
g67
a(dp189
VNamedEntityTag
p190
g82
sVCharacterOffsetEnd
p191
V47
p192
sVCharacterOffsetBegin
p193
V46
p194
sVPartOfSpeech
p195
VDT
p196
sVLemma
p197
g67
saa(lp198
Vguest
p199
a(dp200
VNamedEntityTag
p201
g82
sVCharacterOffsetEnd
p202
V53
p203
sVCharacterOffsetBegin
p204
V48
p205
sVPartOfSpeech
p206
VNN
p207
sVLemma
p208
Vguest
p209
saa(lp210
Vspeaker
p211
a(dp212
VNamedEntityTag
p213
g82
sVCharacterOffsetEnd
p214
V61
p215
sVCharacterOffsetBegin
p216
V54
p217
sVPartOfSpeech
p218
VNN
p219
sVLemma
p220
Vspeaker
p221
saa(lp222
V.
p223
a(dp224
VNamedEntityTag
p225
g82
sVCharacterOffsetEnd
p226
V63
p227
sVCharacterOffsetBegin
p228
V62
p229
sVPartOfSpeech
p230
g223
sVLemma
p231
g223
saasVindexeddependencies
p232
(lp233
(lp234
Vroot
p235
aVROOT-0
p236
aVvoted-7
p237
aa(lp238
Vdet
p239
aVstudents-2
p240
aVThe-1
p241
aa(lp242
Vnsubj
p243
aVvoted-7
p244
aVstudents-2
p245
aa(lp246
Vposs
p247
aVgrade-6
p248
aVAnne-4
p249
aa(lp250
Vprep_in
p251
aVstudents-2
p252
aVgrade-6
p253
aa(lp254
Vaux
p255
aVselect-9
p256
aVto-8
p257
aa(lp258
Vxcomp
p259
aVvoted-7
p260
aVselect-9
p261
aa(lp262
Vdet
p263
aVspeaker-12
p264
aVa-10
p265
aa(lp266
Vnn
p267
aVspeaker-12
p268
aVguest-11
p269
aa(lp270
Vdobj
p271
aVselect-9
p272
aVspeaker-12
p273
aasa(dp274
Vparsetree
p275
V(ROOT (S (NP (CD 16) (NNS students)) (VP (VBD voted) (PP (IN for) (NP (DT a) (JJ famous) (NN athlete)))) (. .)))
p276
sVtext
p277
V16 students voted for a famous athlete .
p278
sVdependencies
p279
(lp280
(lp281
Vroot
p282
aVROOT
p283
aVvoted
p284
aa(lp285
Vnum
p286
aVstudents
p287
aV16
p288
aa(lp289
Vnsubj
p290
aVvoted
p291
aVstudents
p292
aa(lp293
Vdet
p294
aVathlete
p295
ag67
aa(lp296
Vamod
p297
aVathlete
p298
aVfamous
p299
aa(lp300
Vprep_for
p301
aVvoted
p302
aVathlete
p303
aasVwords
p304
(lp305
(lp306
V16
p307
a(dp308
VNormalizedNamedEntityTag
p309
V16.0
p310
sVLemma
p311
V16
p312
sVCharacterOffsetEnd
p313
V66
p314
sVPartOfSpeech
p315
VCD
p316
sVCharacterOffsetBegin
p317
V64
p318
sVNamedEntityTag
p319
VNUMBER
p320
saa(lp321
Vstudents
p322
a(dp323
VNamedEntityTag
p324
g82
sVCharacterOffsetEnd
p325
V75
p326
sVCharacterOffsetBegin
p327
V67
p328
sVPartOfSpeech
p329
VNNS
p330
sVLemma
p331
Vstudent
p332
saa(lp333
Vvoted
p334
a(dp335
VNamedEntityTag
p336
g82
sVCharacterOffsetEnd
p337
V81
p338
sVCharacterOffsetBegin
p339
V76
p340
sVPartOfSpeech
p341
VVBD
p342
sVLemma
p343
Vvote
p344
saa(lp345
Vfor
p346
a(dp347
VNamedEntityTag
p348
g82
sVCharacterOffsetEnd
p349
V85
p350
sVCharacterOffsetBegin
p351
V82
p352
sVPartOfSpeech
p353
VIN
p354
sVLemma
p355
Vfor
p356
saa(lp357
g67
a(dp358
VNamedEntityTag
p359
g82
sVCharacterOffsetEnd
p360
V87
p361
sVCharacterOffsetBegin
p362
V86
p363
sVPartOfSpeech
p364
VDT
p365
sVLemma
p366
g67
saa(lp367
Vfamous
p368
a(dp369
VNamedEntityTag
p370
g82
sVCharacterOffsetEnd
p371
V94
p372
sVCharacterOffsetBegin
p373
V88
p374
sVPartOfSpeech
p375
VJJ
p376
sVLemma
p377
Vfamous
p378
saa(lp379
Vathlete
p380
a(dp381
VNamedEntityTag
p382
g82
sVCharacterOffsetEnd
p383
V102
p384
sVCharacterOffsetBegin
p385
V95
p386
sVPartOfSpeech
p387
VNN
p388
sVLemma
p389
Vathlete
p390
saa(lp391
g223
a(dp392
VNamedEntityTag
p393
g82
sVCharacterOffsetEnd
p394
V104
p395
sVCharacterOffsetBegin
p396
V103
p397
sVPartOfSpeech
p398
g223
sVLemma
p399
g223
saasVindexeddependencies
p400
(lp401
(lp402
Vroot
p403
aVROOT-0
p404
aVvoted-3
p405
aa(lp406
Vnum
p407
aVstudents-2
p408
aV16-1
p409
aa(lp410
Vnsubj
p411
aVvoted-3
p412
aVstudents-2
p413
aa(lp414
Vdet
p415
aVathlete-7
p416
aVa-5
p417
aa(lp418
Vamod
p419
aVathlete-7
p420
aVfamous-6
p421
aa(lp422
Vprep_for
p423
aVvoted-3
p424
aVathlete-7
p425
aasa(dp426
Vparsetree
p427
V(ROOT (S (NP (NP (DT The) (JJ other) (CD 48) (NNS students)) (PP (IN in) (NP (NP (NNP Anne) (POS 's)) (NN grade)))) (VP (VBD voted) (PP (IN for) (NP (DT a) (JJ famous) (NN actor)))) (. .)))
p428
sVtext
p429
VThe other 48 students in Anne's grade voted for a famous actor .
p430
sVdependencies
p431
(lp432
(lp433
Vroot
p434
aVROOT
p435
aVvoted
p436
aa(lp437
Vdet
p438
aVstudents
p439
aVThe
p440
aa(lp441
Vamod
p442
aVstudents
p443
aVother
p444
aa(lp445
Vnum
p446
aVstudents
p447
aV48
p448
aa(lp449
Vnsubj
p450
aVvoted
p451
aVstudents
p452
aa(lp453
Vposs
p454
aVgrade
p455
aVAnne
p456
aa(lp457
Vprep_in
p458
aVstudents
p459
aVgrade
p460
aa(lp461
Vdet
p462
aVactor
p463
ag67
aa(lp464
Vamod
p465
aVactor
p466
aVfamous
p467
aa(lp468
Vprep_for
p469
aVvoted
p470
aVactor
p471
aasVwords
p472
(lp473
(lp474
VThe
p475
a(dp476
VNamedEntityTag
p477
g82
sVCharacterOffsetEnd
p478
V108
p479
sVCharacterOffsetBegin
p480
V105
p481
sVPartOfSpeech
p482
VDT
p483
sVLemma
p484
Vthe
p485
saa(lp486
Vother
p487
a(dp488
VNamedEntityTag
p489
g82
sVCharacterOffsetEnd
p490
V114
p491
sVCharacterOffsetBegin
p492
V109
p493
sVPartOfSpeech
p494
VJJ
p495
sVLemma
p496
Vother
p497
saa(lp498
V48
p499
a(dp500
VNormalizedNamedEntityTag
p501
V48.0
p502
sVLemma
p503
V48
p504
sVCharacterOffsetEnd
p505
V117
p506
sVPartOfSpeech
p507
VCD
p508
sVCharacterOffsetBegin
p509
V115
p510
sVNamedEntityTag
p511
VNUMBER
p512
saa(lp513
Vstudents
p514
a(dp515
VNamedEntityTag
p516
g82
sVCharacterOffsetEnd
p517
V126
p518
sVCharacterOffsetBegin
p519
V118
p520
sVPartOfSpeech
p521
VNNS
p522
sVLemma
p523
Vstudent
p524
saa(lp525
Vin
p526
a(dp527
VNamedEntityTag
p528
g82
sVCharacterOffsetEnd
p529
V129
p530
sVCharacterOffsetBegin
p531
V127
p532
sVPartOfSpeech
p533
VIN
p534
sVLemma
p535
Vin
p536
saa(lp537
VAnne
p538
a(dp539
VNamedEntityTag
p540
VPERSON
p541
sVCharacterOffsetEnd
p542
V134
p543
sVCharacterOffsetBegin
p544
V130
p545
sVPartOfSpeech
p546
VNNP
p547
sVLemma
p548
VAnne
p549
saa(lp550
V's
p551
a(dp552
VNamedEntityTag
p553
g82
sVCharacterOffsetEnd
p554
V136
p555
sVCharacterOffsetBegin
p556
V134
p557
sVPartOfSpeech
p558
VPOS
p559
sVLemma
p560
V's
p561
saa(lp562
Vgrade
p563
a(dp564
VNamedEntityTag
p565
g82
sVCharacterOffsetEnd
p566
V142
p567
sVCharacterOffsetBegin
p568
V137
p569
sVPartOfSpeech
p570
VNN
p571
sVLemma
p572
Vgrade
p573
saa(lp574
Vvoted
p575
a(dp576
VNamedEntityTag
p577
g82
sVCharacterOffsetEnd
p578
V148
p579
sVCharacterOffsetBegin
p580
V143
p581
sVPartOfSpeech
p582
VVBD
p583
sVLemma
p584
Vvote
p585
saa(lp586
Vfor
p587
a(dp588
VNamedEntityTag
p589
g82
sVCharacterOffsetEnd
p590
V152
p591
sVCharacterOffsetBegin
p592
V149
p593
sVPartOfSpeech
p594
VIN
p595
sVLemma
p596
Vfor
p597
saa(lp598
g67
a(dp599
VNamedEntityTag
p600
g82
sVCharacterOffsetEnd
p601
V154
p602
sVCharacterOffsetBegin
p603
V153
p604
sVPartOfSpeech
p605
VDT
p606
sVLemma
p607
g67
saa(lp608
Vfamous
p609
a(dp610
VNamedEntityTag
p611
g82
sVCharacterOffsetEnd
p612
V161
p613
sVCharacterOffsetBegin
p614
V155
p615
sVPartOfSpeech
p616
VJJ
p617
sVLemma
p618
Vfamous
p619
saa(lp620
Vactor
p621
a(dp622
VNamedEntityTag
p623
g82
sVCharacterOffsetEnd
p624
V167
p625
sVCharacterOffsetBegin
p626
V162
p627
sVPartOfSpeech
p628
VNN
p629
sVLemma
p630
Vactor
p631
saa(lp632
g223
a(dp633
VNamedEntityTag
p634
g82
sVCharacterOffsetEnd
p635
V169
p636
sVCharacterOffsetBegin
p637
V168
p638
sVPartOfSpeech
p639
g223
sVLemma
p640
g223
saasVindexeddependencies
p641
(lp642
(lp643
Vroot
p644
aVROOT-0
p645
aVvoted-9
p646
aa(lp647
Vdet
p648
aVstudents-4
p649
aVThe-1
p650
aa(lp651
Vamod
p652
aVstudents-4
p653
aVother-2
p654
aa(lp655
Vnum
p656
aVstudents-4
p657
aV48-3
p658
aa(lp659
Vnsubj
p660
aVvoted-9
p661
aVstudents-4
p662
aa(lp663
Vposs
p664
aVgrade-8
p665
aVAnne-6
p666
aa(lp667
Vprep_in
p668
aVstudents-4
p669
aVgrade-8
p670
aa(lp671
Vdet
p672
aVactor-13
p673
aVa-11
p674
aa(lp675
Vamod
p676
aVactor-13
p677
aVfamous-12
p678
aa(lp679
Vprep_for
p680
aVvoted-9
p681
aVactor-13
p682
aasa(dp683
Vparsetree
p684
V(ROOT (SBARQ (WHNP (WHNP (WDT What) (NN percentage)) (PP (IN of) (NP (DT the) (NNS students)))) (SQ (VP (VBD voted) (PP (IN for) (NP (DT the) (NN athlete))))) (. ?)))
p685
sVtext
p686
VWhat percentage of the students voted for the athlete ?
p687
sVdependencies
p688
(lp689
(lp690
Vroot
p691
aVROOT
p692
aVvoted
p693
aa(lp694
Vdet
p695
aVpercentage
p696
aVWhat
p697
aa(lp698
Vnsubj
p699
aVvoted
p700
aVpercentage
p701
aa(lp702
Vdet
p703
aVstudents
p704
aVthe
p705
aa(lp706
Vprep_of
p707
aVpercentage
p708
aVstudents
p709
aa(lp710
Vdet
p711
aVathlete
p712
aVthe
p713
aa(lp714
Vprep_for
p715
aVvoted
p716
aVathlete
p717
aasVwords
p718
(lp719
(lp720
VWhat
p721
a(dp722
VNamedEntityTag
p723
g82
sVCharacterOffsetEnd
p724
V174
p725
sVCharacterOffsetBegin
p726
V170
p727
sVPartOfSpeech
p728
VWDT
p729
sVLemma
p730
Vwhat
p731
saa(lp732
Vpercentage
p733
a(dp734
VNamedEntityTag
p735
g82
sVCharacterOffsetEnd
p736
V185
p737
sVCharacterOffsetBegin
p738
V175
p739
sVPartOfSpeech
p740
VNN
p741
sVLemma
p742
Vpercentage
p743
saa(lp744
Vof
p745
a(dp746
VNamedEntityTag
p747
g82
sVCharacterOffsetEnd
p748
V188
p749
sVCharacterOffsetBegin
p750
V186
p751
sVPartOfSpeech
p752
VIN
p753
sVLemma
p754
Vof
p755
saa(lp756
Vthe
p757
a(dp758
VNamedEntityTag
p759
g82
sVCharacterOffsetEnd
p760
V192
p761
sVCharacterOffsetBegin
p762
V189
p763
sVPartOfSpeech
p764
VDT
p765
sVLemma
p766
Vthe
p767
saa(lp768
Vstudents
p769
a(dp770
VNamedEntityTag
p771
g82
sVCharacterOffsetEnd
p772
V201
p773
sVCharacterOffsetBegin
p774
V193
p775
sVPartOfSpeech
p776
VNNS
p777
sVLemma
p778
Vstudent
p779
saa(lp780
Vvoted
p781
a(dp782
VNamedEntityTag
p783
g82
sVCharacterOffsetEnd
p784
V207
p785
sVCharacterOffsetBegin
p786
V202
p787
sVPartOfSpeech
p788
VVBD
p789
sVLemma
p790
Vvote
p791
saa(lp792
Vfor
p793
a(dp794
VNamedEntityTag
p795
g82
sVCharacterOffsetEnd
p796
V211
p797
sVCharacterOffsetBegin
p798
V208
p799
sVPartOfSpeech
p800
VIN
p801
sVLemma
p802
Vfor
p803
saa(lp804
Vthe
p805
a(dp806
VNamedEntityTag
p807
g82
sVCharacterOffsetEnd
p808
V215
p809
sVCharacterOffsetBegin
p810
V212
p811
sVPartOfSpeech
p812
VDT
p813
sVLemma
p814
Vthe
p815
saa(lp816
Vathlete
p817
a(dp818
VNamedEntityTag
p819
g82
sVCharacterOffsetEnd
p820
V223
p821
sVCharacterOffsetBegin
p822
V216
p823
sVPartOfSpeech
p824
VNN
p825
sVLemma
p826
Vathlete
p827
saa(lp828
V?
p829
a(dp830
VNamedEntityTag
p831
g82
sVCharacterOffsetEnd
p832
V225
p833
sVCharacterOffsetBegin
p834
V224
p835
sVPartOfSpeech
p836
g223
sVLemma
p837
g829
saasVindexeddependencies
p838
(lp839
(lp840
Vroot
p841
aVROOT-0
p842
aVvoted-6
p843
aa(lp844
Vdet
p845
aVpercentage-2
p846
aVWhat-1
p847
aa(lp848
Vnsubj
p849
aVvoted-6
p850
aVpercentage-2
p851
aa(lp852
Vdet
p853
aVstudents-5
p854
aVthe-4
p855
aa(lp856
Vprep_of
p857
aVpercentage-2
p858
aVstudents-5
p859
aa(lp860
Vdet
p861
aVathlete-9
p862
aVthe-8
p863
aa(lp864
Vprep_for
p865
aVvoted-6
p866
aVathlete-9
p867
aasas.