(dp0
Vcoref
p1
(lp2
(lp3
(lp4
(lp5
Vthe French club
p6
aI1
aI9
aI7
aI10
aa(lp7
Vthe French club
p8
aI0
aI10
aI8
aI11
aaaa(lp9
(lp10
(lp11
Vthe election
p12
aI1
aI13
aI12
aI14
aa(lp13
Van election
p14
aI0
aI13
aI12
aI14
aaaa(lp15
(lp16
(lp17
Vthe members
p18
aI2
aI4
aI3
aI5
aa(lp19
Vthe 54 members of the French club
p20
aI1
aI5
aI3
aI10
aaaasVsentences
p21
(lp22
(dp23
Vparsetree
p24
V(ROOT (S (SBAR (IN In) (NN order) (S (VP (TO to) (VP (VB select) (NP (JJ new) (NN board) (NNS members)))))) (, ,) (NP (DT the) (JJ French) (NN club)) (VP (VBD held) (NP (DT an) (NN election))) (. .)))
p25
sVtext
p26
VIn order to select new board members , the French club held an election .
p27
sVdependencies
p28
(lp29
(lp30
Vroot
p31
aVROOT
p32
aVheld
p33
aa(lp34
Vmark
p35
aVselect
p36
aVIn
p37
aa(lp38
Vdep
p39
aVselect
p40
aVorder
p41
aa(lp42
Vaux
p43
aVselect
p44
aVto
p45
aa(lp46
Vadvcl
p47
aVheld
p48
aVselect
p49
aa(lp50
Vamod
p51
aVmembers
p52
aVnew
p53
aa(lp54
Vnn
p55
aVmembers
p56
aVboard
p57
aa(lp58
Vdobj
p59
aVselect
p60
aVmembers
p61
aa(lp62
Vdet
p63
aVclub
p64
aVthe
p65
aa(lp66
Vamod
p67
aVclub
p68
aVFrench
p69
aa(lp70
Vnsubj
p71
aVheld
p72
aVclub
p73
aa(lp74
Vdet
p75
aVelection
p76
aVan
p77
aa(lp78
Vdobj
p79
aVheld
p80
aVelection
p81
aasVwords
p82
(lp83
(lp84
VIn
p85
a(dp86
VNamedEntityTag
p87
VO
p88
sVCharacterOffsetEnd
p89
V3
p90
sVCharacterOffsetBegin
p91
V1
p92
sVPartOfSpeech
p93
VIN
p94
sVLemma
p95
Vin
p96
saa(lp97
Vorder
p98
a(dp99
VNamedEntityTag
p100
g88
sVCharacterOffsetEnd
p101
V9
p102
sVCharacterOffsetBegin
p103
V4
p104
sVPartOfSpeech
p105
VNN
p106
sVLemma
p107
Vorder
p108
saa(lp109
Vto
p110
a(dp111
VNamedEntityTag
p112
g88
sVCharacterOffsetEnd
p113
V12
p114
sVCharacterOffsetBegin
p115
V10
p116
sVPartOfSpeech
p117
VTO
p118
sVLemma
p119
Vto
p120
saa(lp121
Vselect
p122
a(dp123
VNamedEntityTag
p124
g88
sVCharacterOffsetEnd
p125
V19
p126
sVCharacterOffsetBegin
p127
V13
p128
sVPartOfSpeech
p129
VVB
p130
sVLemma
p131
Vselect
p132
saa(lp133
Vnew
p134
a(dp135
VNamedEntityTag
p136
g88
sVCharacterOffsetEnd
p137
V23
p138
sVCharacterOffsetBegin
p139
V20
p140
sVPartOfSpeech
p141
VJJ
p142
sVLemma
p143
Vnew
p144
saa(lp145
Vboard
p146
a(dp147
VNamedEntityTag
p148
g88
sVCharacterOffsetEnd
p149
V29
p150
sVCharacterOffsetBegin
p151
V24
p152
sVPartOfSpeech
p153
VNN
p154
sVLemma
p155
Vboard
p156
saa(lp157
Vmembers
p158
a(dp159
VNamedEntityTag
p160
g88
sVCharacterOffsetEnd
p161
V37
p162
sVCharacterOffsetBegin
p163
V30
p164
sVPartOfSpeech
p165
VNNS
p166
sVLemma
p167
Vmember
p168
saa(lp169
V,
p170
a(dp171
VNamedEntityTag
p172
g88
sVCharacterOffsetEnd
p173
V39
p174
sVCharacterOffsetBegin
p175
V38
p176
sVPartOfSpeech
p177
g170
sVLemma
p178
g170
saa(lp179
Vthe
p180
a(dp181
VNamedEntityTag
p182
g88
sVCharacterOffsetEnd
p183
V43
p184
sVCharacterOffsetBegin
p185
V40
p186
sVPartOfSpeech
p187
VDT
p188
sVLemma
p189
Vthe
p190
saa(lp191
VFrench
p192
a(dp193
VNamedEntityTag
p194
VMISC
p195
sVCharacterOffsetEnd
p196
V50
p197
sVCharacterOffsetBegin
p198
V44
p199
sVPartOfSpeech
p200
VJJ
p201
sVLemma
p202
Vfrench
p203
saa(lp204
Vclub
p205
a(dp206
VNamedEntityTag
p207
g88
sVCharacterOffsetEnd
p208
V55
p209
sVCharacterOffsetBegin
p210
V51
p211
sVPartOfSpeech
p212
VNN
p213
sVLemma
p214
Vclub
p215
saa(lp216
Vheld
p217
a(dp218
VNamedEntityTag
p219
g88
sVCharacterOffsetEnd
p220
V60
p221
sVCharacterOffsetBegin
p222
V56
p223
sVPartOfSpeech
p224
VVBD
p225
sVLemma
p226
Vhold
p227
saa(lp228
Van
p229
a(dp230
VNamedEntityTag
p231
g88
sVCharacterOffsetEnd
p232
V63
p233
sVCharacterOffsetBegin
p234
V61
p235
sVPartOfSpeech
p236
VDT
p237
sVLemma
p238
Va
p239
saa(lp240
Velection
p241
a(dp242
VNamedEntityTag
p243
g88
sVCharacterOffsetEnd
p244
V72
p245
sVCharacterOffsetBegin
p246
V64
p247
sVPartOfSpeech
p248
VNN
p249
sVLemma
p250
Velection
p251
saa(lp252
V.
p253
a(dp254
VNamedEntityTag
p255
g88
sVCharacterOffsetEnd
p256
V74
p257
sVCharacterOffsetBegin
p258
V73
p259
sVPartOfSpeech
p260
g253
sVLemma
p261
g253
saasVindexeddependencies
p262
(lp263
(lp264
Vroot
p265
aVROOT-0
p266
aVheld-12
p267
aa(lp268
Vmark
p269
aVselect-4
p270
aVIn-1
p271
aa(lp272
Vdep
p273
aVselect-4
p274
aVorder-2
p275
aa(lp276
Vaux
p277
aVselect-4
p278
aVto-3
p279
aa(lp280
Vadvcl
p281
aVheld-12
p282
aVselect-4
p283
aa(lp284
Vamod
p285
aVmembers-7
p286
aVnew-5
p287
aa(lp288
Vnn
p289
aVmembers-7
p290
aVboard-6
p291
aa(lp292
Vdobj
p293
aVselect-4
p294
aVmembers-7
p295
aa(lp296
Vdet
p297
aVclub-11
p298
aVthe-9
p299
aa(lp300
Vamod
p301
aVclub-11
p302
aVFrench-10
p303
aa(lp304
Vnsubj
p305
aVheld-12
p306
aVclub-11
p307
aa(lp308
Vdet
p309
aVelection-14
p310
aVan-13
p311
aa(lp312
Vdobj
p313
aVheld-12
p314
aVelection-14
p315
aasa(dp316
Vparsetree
p317
V(ROOT (S (NP (NP (CD 27)) (PP (ADVP (IN out)) (IN of) (NP (NP (DT the) (CD 54) (NNS members)) (PP (IN of) (NP (DT the) (JJ French) (NN club)))))) (VP (VBD voted) (PP (IN in) (NP (DT the) (NN election)))) (. .)))
p318
sVtext
p319
V27 out of the 54 members of the French club voted in the election .
p320
sVdependencies
p321
(lp322
(lp323
Vroot
p324
aVROOT
p325
aVvoted
p326
aa(lp327
Vnsubj
p328
aVvoted
p329
aV27
p330
aa(lp331
Vdet
p332
aVmembers
p333
aVthe
p334
aa(lp335
Vnum
p336
aVmembers
p337
aV54
p338
aa(lp339
Vprep_out_of
p340
aV27
p341
aVmembers
p342
aa(lp343
Vdet
p344
aVclub
p345
aVthe
p346
aa(lp347
Vamod
p348
aVclub
p349
aVFrench
p350
aa(lp351
Vprep_of
p352
aVmembers
p353
aVclub
p354
aa(lp355
Vdet
p356
aVelection
p357
aVthe
p358
aa(lp359
Vprep_in
p360
aVvoted
p361
aVelection
p362
aasVwords
p363
(lp364
(lp365
V27
p366
a(dp367
VNormalizedNamedEntityTag
p368
V27.0
p369
sVLemma
p370
V27
p371
sVCharacterOffsetEnd
p372
V77
p373
sVPartOfSpeech
p374
VCD
p375
sVCharacterOffsetBegin
p376
V75
p377
sVNamedEntityTag
p378
VNUMBER
p379
saa(lp380
Vout
p381
a(dp382
VNamedEntityTag
p383
g88
sVCharacterOffsetEnd
p384
V81
p385
sVCharacterOffsetBegin
p386
V78
p387
sVPartOfSpeech
p388
VIN
p389
sVLemma
p390
Vout
p391
saa(lp392
Vof
p393
a(dp394
VNamedEntityTag
p395
g88
sVCharacterOffsetEnd
p396
V84
p397
sVCharacterOffsetBegin
p398
V82
p399
sVPartOfSpeech
p400
VIN
p401
sVLemma
p402
Vof
p403
saa(lp404
Vthe
p405
a(dp406
VNamedEntityTag
p407
g88
sVCharacterOffsetEnd
p408
V88
p409
sVCharacterOffsetBegin
p410
V85
p411
sVPartOfSpeech
p412
VDT
p413
sVLemma
p414
Vthe
p415
saa(lp416
V54
p417
a(dp418
VNormalizedNamedEntityTag
p419
V54.0
p420
sVLemma
p421
V54
p422
sVCharacterOffsetEnd
p423
V91
p424
sVPartOfSpeech
p425
VCD
p426
sVCharacterOffsetBegin
p427
V89
p428
sVNamedEntityTag
p429
VNUMBER
p430
saa(lp431
Vmembers
p432
a(dp433
VNamedEntityTag
p434
g88
sVCharacterOffsetEnd
p435
V99
p436
sVCharacterOffsetBegin
p437
V92
p438
sVPartOfSpeech
p439
VNNS
p440
sVLemma
p441
Vmember
p442
saa(lp443
Vof
p444
a(dp445
VNamedEntityTag
p446
g88
sVCharacterOffsetEnd
p447
V102
p448
sVCharacterOffsetBegin
p449
V100
p450
sVPartOfSpeech
p451
VIN
p452
sVLemma
p453
Vof
p454
saa(lp455
Vthe
p456
a(dp457
VNamedEntityTag
p458
g88
sVCharacterOffsetEnd
p459
V106
p460
sVCharacterOffsetBegin
p461
V103
p462
sVPartOfSpeech
p463
VDT
p464
sVLemma
p465
Vthe
p466
saa(lp467
VFrench
p468
a(dp469
VNamedEntityTag
p470
VMISC
p471
sVCharacterOffsetEnd
p472
V113
p473
sVCharacterOffsetBegin
p474
V107
p475
sVPartOfSpeech
p476
VJJ
p477
sVLemma
p478
Vfrench
p479
saa(lp480
Vclub
p481
a(dp482
VNamedEntityTag
p483
g88
sVCharacterOffsetEnd
p484
V118
p485
sVCharacterOffsetBegin
p486
V114
p487
sVPartOfSpeech
p488
VNN
p489
sVLemma
p490
Vclub
p491
saa(lp492
Vvoted
p493
a(dp494
VNamedEntityTag
p495
g88
sVCharacterOffsetEnd
p496
V124
p497
sVCharacterOffsetBegin
p498
V119
p499
sVPartOfSpeech
p500
VVBD
p501
sVLemma
p502
Vvote
p503
saa(lp504
Vin
p505
a(dp506
VNamedEntityTag
p507
g88
sVCharacterOffsetEnd
p508
V127
p509
sVCharacterOffsetBegin
p510
V125
p511
sVPartOfSpeech
p512
VIN
p513
sVLemma
p514
Vin
p515
saa(lp516
Vthe
p517
a(dp518
VNamedEntityTag
p519
g88
sVCharacterOffsetEnd
p520
V131
p521
sVCharacterOffsetBegin
p522
V128
p523
sVPartOfSpeech
p524
VDT
p525
sVLemma
p526
Vthe
p527
saa(lp528
Velection
p529
a(dp530
VNamedEntityTag
p531
g88
sVCharacterOffsetEnd
p532
V140
p533
sVCharacterOffsetBegin
p534
V132
p535
sVPartOfSpeech
p536
VNN
p537
sVLemma
p538
Velection
p539
saa(lp540
g253
a(dp541
VNamedEntityTag
p542
g88
sVCharacterOffsetEnd
p543
V142
p544
sVCharacterOffsetBegin
p545
V141
p546
sVPartOfSpeech
p547
g253
sVLemma
p548
g253
saasVindexeddependencies
p549
(lp550
(lp551
Vroot
p552
aVROOT-0
p553
aVvoted-11
p554
aa(lp555
Vnsubj
p556
aVvoted-11
p557
aV27-1
p558
aa(lp559
Vdet
p560
aVmembers-6
p561
aVthe-4
p562
aa(lp563
Vnum
p564
aVmembers-6
p565
aV54-5
p566
aa(lp567
Vprep_out_of
p568
aV27-1
p569
aVmembers-6
p570
aa(lp571
Vdet
p572
aVclub-10
p573
aVthe-8
p574
aa(lp575
Vamod
p576
aVclub-10
p577
aVFrench-9
p578
aa(lp579
Vprep_of
p580
aVmembers-6
p581
aVclub-10
p582
aa(lp583
Vdet
p584
aVelection-14
p585
aVthe-13
p586
aa(lp587
Vprep_in
p588
aVvoted-11
p589
aVelection-14
p590
aasa(dp591
Vparsetree
p592
V(ROOT (SBARQ (WHNP (WHNP (WDT What) (NN percentage)) (PP (IN of) (NP (DT the) (NNS members)))) (SQ (VP (VBD voted))) (. ?)))
p593
sVtext
p594
VWhat percentage of the members voted ?
p595
sVdependencies
p596
(lp597
(lp598
Vroot
p599
aVROOT
p600
aVvoted
p601
aa(lp602
Vdet
p603
aVpercentage
p604
aVWhat
p605
aa(lp606
Vnsubj
p607
aVvoted
p608
aVpercentage
p609
aa(lp610
Vdet
p611
aVmembers
p612
aVthe
p613
aa(lp614
Vprep_of
p615
aVpercentage
p616
aVmembers
p617
aasVwords
p618
(lp619
(lp620
VWhat
p621
a(dp622
VNamedEntityTag
p623
g88
sVCharacterOffsetEnd
p624
V147
p625
sVCharacterOffsetBegin
p626
V143
p627
sVPartOfSpeech
p628
VWDT
p629
sVLemma
p630
Vwhat
p631
saa(lp632
Vpercentage
p633
a(dp634
VNamedEntityTag
p635
g88
sVCharacterOffsetEnd
p636
V158
p637
sVCharacterOffsetBegin
p638
V148
p639
sVPartOfSpeech
p640
VNN
p641
sVLemma
p642
Vpercentage
p643
saa(lp644
Vof
p645
a(dp646
VNamedEntityTag
p647
g88
sVCharacterOffsetEnd
p648
V161
p649
sVCharacterOffsetBegin
p650
V159
p651
sVPartOfSpeech
p652
VIN
p653
sVLemma
p654
Vof
p655
saa(lp656
Vthe
p657
a(dp658
VNamedEntityTag
p659
g88
sVCharacterOffsetEnd
p660
V165
p661
sVCharacterOffsetBegin
p662
V162
p663
sVPartOfSpeech
p664
VDT
p665
sVLemma
p666
Vthe
p667
saa(lp668
Vmembers
p669
a(dp670
VNamedEntityTag
p671
g88
sVCharacterOffsetEnd
p672
V173
p673
sVCharacterOffsetBegin
p674
V166
p675
sVPartOfSpeech
p676
VNNS
p677
sVLemma
p678
Vmember
p679
saa(lp680
Vvoted
p681
a(dp682
VNamedEntityTag
p683
g88
sVCharacterOffsetEnd
p684
V179
p685
sVCharacterOffsetBegin
p686
V174
p687
sVPartOfSpeech
p688
VVBD
p689
sVLemma
p690
Vvote
p691
saa(lp692
V?
p693
a(dp694
VNamedEntityTag
p695
g88
sVCharacterOffsetEnd
p696
V181
p697
sVCharacterOffsetBegin
p698
V180
p699
sVPartOfSpeech
p700
g253
sVLemma
p701
g693
saasVindexeddependencies
p702
(lp703
(lp704
Vroot
p705
aVROOT-0
p706
aVvoted-6
p707
aa(lp708
Vdet
p709
aVpercentage-2
p710
aVWhat-1
p711
aa(lp712
Vnsubj
p713
aVvoted-6
p714
aVpercentage-2
p715
aa(lp716
Vdet
p717
aVmembers-5
p718
aVthe-4
p719
aa(lp720
Vprep_of
p721
aVpercentage-2
p722
aVmembers-5
p723
aasas.