(dp0
Vcoref
p1
(lp2
(lp3
(lp4
(lp5
Vthe burgers
p6
aI2
aI4
aI3
aI5
aa(lp7
V18 well-done burgers
p8
aI1
aI8
aI6
aI9
aaaasVsentences
p9
(lp10
(dp11
Vparsetree
p12
V(ROOT (NP (NP (NP (NNP Beth) (POS 's)) (NNPS Burgers)) (NP (NP (NNS cooks)) (UCP (VP (ADVP (NP (NP (PRP$ its) (NNS burgers)) (ADVP (RB either))) (RB well)) (VBN done)) (CC or) (ADJP (NN medium)))) (. .)))
p13
sVtext
p14
VBeth's Burgers cooks its burgers either well done or medium .
p15
sVdependencies
p16
(lp17
(lp18
Vroot
p19
aVROOT
p20
aVBurgers
p21
aa(lp22
Vposs
p23
aVBurgers
p24
aVBeth
p25
aa(lp26
Vdep
p27
aVBurgers
p28
aVcooks
p29
aa(lp30
Vposs
p31
aVburgers
p32
aVits
p33
aa(lp34
Vnpadvmod
p35
aVwell
p36
aVburgers
p37
aa(lp38
Vadvmod
p39
aVburgers
p40
aVeither
p41
aa(lp42
Vadvmod
p43
aVdone
p44
aVwell
p45
aa(lp46
Vdep
p47
aVcooks
p48
aVdone
p49
aa(lp50
Vconj_or
p51
aVdone
p52
aVmedium
p53
aasVwords
p54
(lp55
(lp56
VBeth
p57
a(dp58
VNamedEntityTag
p59
VPERSON
p60
sVCharacterOffsetEnd
p61
V5
p62
sVCharacterOffsetBegin
p63
V1
p64
sVPartOfSpeech
p65
VNNP
p66
sVLemma
p67
VBeth
p68
saa(lp69
V's
p70
a(dp71
VNamedEntityTag
p72
VO
p73
sVCharacterOffsetEnd
p74
V7
p75
sVCharacterOffsetBegin
p76
g62
sVPartOfSpeech
p77
VPOS
p78
sVLemma
p79
V's
p80
saa(lp81
VBurgers
p82
a(dp83
VNamedEntityTag
p84
g73
sVCharacterOffsetEnd
p85
V15
p86
sVCharacterOffsetBegin
p87
V8
p88
sVPartOfSpeech
p89
VNNPS
p90
sVLemma
p91
VBurgers
p92
saa(lp93
Vcooks
p94
a(dp95
VNamedEntityTag
p96
g73
sVCharacterOffsetEnd
p97
V21
p98
sVCharacterOffsetBegin
p99
V16
p100
sVPartOfSpeech
p101
VNNS
p102
sVLemma
p103
Vcook
p104
saa(lp105
Vits
p106
a(dp107
VNamedEntityTag
p108
g73
sVCharacterOffsetEnd
p109
V25
p110
sVCharacterOffsetBegin
p111
V22
p112
sVPartOfSpeech
p113
VPRP$
p114
sVLemma
p115
Vits
p116
saa(lp117
Vburgers
p118
a(dp119
VNamedEntityTag
p120
g73
sVCharacterOffsetEnd
p121
V33
p122
sVCharacterOffsetBegin
p123
V26
p124
sVPartOfSpeech
p125
VNNS
p126
sVLemma
p127
Vburger
p128
saa(lp129
Veither
p130
a(dp131
VNamedEntityTag
p132
g73
sVCharacterOffsetEnd
p133
V40
p134
sVCharacterOffsetBegin
p135
V34
p136
sVPartOfSpeech
p137
VRB
p138
sVLemma
p139
Veither
p140
saa(lp141
Vwell
p142
a(dp143
VNamedEntityTag
p144
g73
sVCharacterOffsetEnd
p145
V45
p146
sVCharacterOffsetBegin
p147
V41
p148
sVPartOfSpeech
p149
VRB
p150
sVLemma
p151
Vwell
p152
saa(lp153
Vdone
p154
a(dp155
VNamedEntityTag
p156
g73
sVCharacterOffsetEnd
p157
V50
p158
sVCharacterOffsetBegin
p159
V46
p160
sVPartOfSpeech
p161
VVBN
p162
sVLemma
p163
Vdo
p164
saa(lp165
Vor
p166
a(dp167
VNamedEntityTag
p168
g73
sVCharacterOffsetEnd
p169
V53
p170
sVCharacterOffsetBegin
p171
V51
p172
sVPartOfSpeech
p173
VCC
p174
sVLemma
p175
Vor
p176
saa(lp177
Vmedium
p178
a(dp179
VNamedEntityTag
p180
g73
sVCharacterOffsetEnd
p181
V60
p182
sVCharacterOffsetBegin
p183
V54
p184
sVPartOfSpeech
p185
VNN
p186
sVLemma
p187
Vmedium
p188
saa(lp189
V.
p190
a(dp191
VNamedEntityTag
p192
g73
sVCharacterOffsetEnd
p193
V62
p194
sVCharacterOffsetBegin
p195
V61
p196
sVPartOfSpeech
p197
g190
sVLemma
p198
g190
saasVindexeddependencies
p199
(lp200
(lp201
Vroot
p202
aVROOT-0
p203
aVBurgers-3
p204
aa(lp205
Vposs
p206
aVBurgers-3
p207
aVBeth-1
p208
aa(lp209
Vdep
p210
aVBurgers-3
p211
aVcooks-4
p212
aa(lp213
Vposs
p214
aVburgers-6
p215
aVits-5
p216
aa(lp217
Vnpadvmod
p218
aVwell-8
p219
aVburgers-6
p220
aa(lp221
Vadvmod
p222
aVburgers-6
p223
aVeither-7
p224
aa(lp225
Vadvmod
p226
aVdone-9
p227
aVwell-8
p228
aa(lp229
Vdep
p230
aVcooks-4
p231
aVdone-9
p232
aa(lp233
Vconj_or
p234
aVdone-9
p235
aVmedium-11
p236
aasa(dp237
Vparsetree
p238
V(ROOT (S (NP-TMP (JJ Last) (NN night)) (, ,) (NP (DT the) (NN restaurant)) (VP (VBD served) (NP (NP (CD 18) (JJ well-done) (NNS burgers)) (CC and) (NP (CD 72) (NN medium) (NNS burgers)))) (. .)))
p239
sVtext
p240
VLast night , the restaurant served 18 well-done burgers and 72 medium burgers .
p241
sVdependencies
p242
(lp243
(lp244
Vroot
p245
aVROOT
p246
aVserved
p247
aa(lp248
Vamod
p249
aVnight
p250
aVLast
p251
aa(lp252
Vtmod
p253
aVserved
p254
aVnight
p255
aa(lp256
Vdet
p257
aVrestaurant
p258
aVthe
p259
aa(lp260
Vnsubj
p261
aVserved
p262
aVrestaurant
p263
aa(lp264
Vnum
p265
aVburgers
p266
aV18
p267
aa(lp268
Vamod
p269
aVburgers
p270
aVwell-done
p271
aa(lp272
Vdobj
p273
aVserved
p274
aVburgers
p275
aa(lp276
Vnum
p277
aVburgers
p278
aV72
p279
aa(lp280
Vnn
p281
aVburgers
p282
aVmedium
p283
aa(lp284
Vconj_and
p285
aVburgers
p286
aVburgers
p287
aasVwords
p288
(lp289
(lp290
VLast
p291
a(dp292
VNormalizedNamedEntityTag
p293
VTNI
p294
sVTimex
p295
V<TIMEX3 alt_value="TNI OFFSET P-1D" anchorTimeID="t2" temporalFunction="true" tid="t1" type="DATE" valueFromFunction="tf0">Last night</TIMEX3>
p296
sVLemma
p297
Vlast
p298
sVCharacterOffsetEnd
p299
V67
p300
sVPartOfSpeech
p301
VJJ
p302
sVCharacterOffsetBegin
p303
V63
p304
sVNamedEntityTag
p305
VDATE
p306
saa(lp307
Vnight
p308
a(dp309
VNormalizedNamedEntityTag
p310
VTNI
p311
sVTimex
p312
V<TIMEX3 alt_value="TNI OFFSET P-1D" anchorTimeID="t2" temporalFunction="true" tid="t1" type="DATE" valueFromFunction="tf0">Last night</TIMEX3>
p313
sVLemma
p314
Vnight
p315
sVCharacterOffsetEnd
p316
V73
p317
sVPartOfSpeech
p318
VNN
p319
sVCharacterOffsetBegin
p320
V68
p321
sVNamedEntityTag
p322
VDATE
p323
saa(lp324
V,
p325
a(dp326
VNamedEntityTag
p327
g73
sVCharacterOffsetEnd
p328
V75
p329
sVCharacterOffsetBegin
p330
V74
p331
sVPartOfSpeech
p332
g325
sVLemma
p333
g325
saa(lp334
Vthe
p335
a(dp336
VNamedEntityTag
p337
g73
sVCharacterOffsetEnd
p338
V79
p339
sVCharacterOffsetBegin
p340
V76
p341
sVPartOfSpeech
p342
VDT
p343
sVLemma
p344
Vthe
p345
saa(lp346
Vrestaurant
p347
a(dp348
VNamedEntityTag
p349
g73
sVCharacterOffsetEnd
p350
V90
p351
sVCharacterOffsetBegin
p352
V80
p353
sVPartOfSpeech
p354
VNN
p355
sVLemma
p356
Vrestaurant
p357
saa(lp358
Vserved
p359
a(dp360
VNamedEntityTag
p361
g73
sVCharacterOffsetEnd
p362
V97
p363
sVCharacterOffsetBegin
p364
V91
p365
sVPartOfSpeech
p366
VVBD
p367
sVLemma
p368
Vserve
p369
saa(lp370
V18
p371
a(dp372
VNormalizedNamedEntityTag
p373
V18.0
p374
sVLemma
p375
V18
p376
sVCharacterOffsetEnd
p377
V100
p378
sVPartOfSpeech
p379
VCD
p380
sVCharacterOffsetBegin
p381
V98
p382
sVNamedEntityTag
p383
VNUMBER
p384
saa(lp385
Vwell-done
p386
a(dp387
VNamedEntityTag
p388
g73
sVCharacterOffsetEnd
p389
V110
p390
sVCharacterOffsetBegin
p391
V101
p392
sVPartOfSpeech
p393
VJJ
p394
sVLemma
p395
Vwell-done
p396
saa(lp397
Vburgers
p398
a(dp399
VNamedEntityTag
p400
g73
sVCharacterOffsetEnd
p401
V118
p402
sVCharacterOffsetBegin
p403
V111
p404
sVPartOfSpeech
p405
VNNS
p406
sVLemma
p407
Vburger
p408
saa(lp409
Vand
p410
a(dp411
VNamedEntityTag
p412
g73
sVCharacterOffsetEnd
p413
V122
p414
sVCharacterOffsetBegin
p415
V119
p416
sVPartOfSpeech
p417
VCC
p418
sVLemma
p419
Vand
p420
saa(lp421
V72
p422
a(dp423
VNormalizedNamedEntityTag
p424
V72.0
p425
sVLemma
p426
V72
p427
sVCharacterOffsetEnd
p428
V125
p429
sVPartOfSpeech
p430
VCD
p431
sVCharacterOffsetBegin
p432
V123
p433
sVNamedEntityTag
p434
VNUMBER
p435
saa(lp436
Vmedium
p437
a(dp438
VNamedEntityTag
p439
g73
sVCharacterOffsetEnd
p440
V132
p441
sVCharacterOffsetBegin
p442
V126
p443
sVPartOfSpeech
p444
VNN
p445
sVLemma
p446
Vmedium
p447
saa(lp448
Vburgers
p449
a(dp450
VNamedEntityTag
p451
g73
sVCharacterOffsetEnd
p452
V140
p453
sVCharacterOffsetBegin
p454
V133
p455
sVPartOfSpeech
p456
VNNS
p457
sVLemma
p458
Vburger
p459
saa(lp460
g190
a(dp461
VNamedEntityTag
p462
g73
sVCharacterOffsetEnd
p463
V142
p464
sVCharacterOffsetBegin
p465
V141
p466
sVPartOfSpeech
p467
g190
sVLemma
p468
g190
saasVindexeddependencies
p469
(lp470
(lp471
Vroot
p472
aVROOT-0
p473
aVserved-6
p474
aa(lp475
Vamod
p476
aVnight-2
p477
aVLast-1
p478
aa(lp479
Vtmod
p480
aVserved-6
p481
aVnight-2
p482
aa(lp483
Vdet
p484
aVrestaurant-5
p485
aVthe-4
p486
aa(lp487
Vnsubj
p488
aVserved-6
p489
aVrestaurant-5
p490
aa(lp491
Vnum
p492
aVburgers-9
p493
aV18-7
p494
aa(lp495
Vamod
p496
aVburgers-9
p497
aVwell-done-8
p498
aa(lp499
Vdobj
p500
aVserved-6
p501
aVburgers-9
p502
aa(lp503
Vnum
p504
aVburgers-13
p505
aV72-11
p506
aa(lp507
Vnn
p508
aVburgers-13
p509
aVmedium-12
p510
aa(lp511
Vconj_and
p512
aVburgers-9
p513
aVburgers-13
p514
aasa(dp515
Vparsetree
p516
V(ROOT (SBARQ (WHNP (WHNP (WDT What) (NN percentage)) (PP (IN of) (NP (DT the) (NNS burgers)))) (SQ (VP (VBD served) (SBAR (S (VP (VBD were) (VP (ADVP (RB well)) (VBN done))))))) (. ?)))
p517
sVtext
p518
VWhat percentage of the burgers served were well done ?
p519
sVdependencies
p520
(lp521
(lp522
Vroot
p523
aVROOT
p524
aVserved
p525
aa(lp526
Vdet
p527
aVpercentage
p528
aVWhat
p529
aa(lp530
Vnsubj
p531
aVserved
p532
aVpercentage
p533
aa(lp534
Vdet
p535
aVburgers
p536
aVthe
p537
aa(lp538
Vprep_of
p539
aVpercentage
p540
aVburgers
p541
aa(lp542
Vauxpass
p543
aVdone
p544
aVwere
p545
aa(lp546
Vadvmod
p547
aVdone
p548
aVwell
p549
aa(lp550
Vccomp
p551
aVserved
p552
aVdone
p553
aasVwords
p554
(lp555
(lp556
VWhat
p557
a(dp558
VNamedEntityTag
p559
g73
sVCharacterOffsetEnd
p560
V147
p561
sVCharacterOffsetBegin
p562
V143
p563
sVPartOfSpeech
p564
VWDT
p565
sVLemma
p566
Vwhat
p567
saa(lp568
Vpercentage
p569
a(dp570
VNamedEntityTag
p571
g73
sVCharacterOffsetEnd
p572
V158
p573
sVCharacterOffsetBegin
p574
V148
p575
sVPartOfSpeech
p576
VNN
p577
sVLemma
p578
Vpercentage
p579
saa(lp580
Vof
p581
a(dp582
VNamedEntityTag
p583
g73
sVCharacterOffsetEnd
p584
V161
p585
sVCharacterOffsetBegin
p586
V159
p587
sVPartOfSpeech
p588
VIN
p589
sVLemma
p590
Vof
p591
saa(lp592
Vthe
p593
a(dp594
VNamedEntityTag
p595
g73
sVCharacterOffsetEnd
p596
V165
p597
sVCharacterOffsetBegin
p598
V162
p599
sVPartOfSpeech
p600
VDT
p601
sVLemma
p602
Vthe
p603
saa(lp604
Vburgers
p605
a(dp606
VNamedEntityTag
p607
g73
sVCharacterOffsetEnd
p608
V173
p609
sVCharacterOffsetBegin
p610
V166
p611
sVPartOfSpeech
p612
VNNS
p613
sVLemma
p614
Vburger
p615
saa(lp616
Vserved
p617
a(dp618
VNamedEntityTag
p619
g73
sVCharacterOffsetEnd
p620
V180
p621
sVCharacterOffsetBegin
p622
V174
p623
sVPartOfSpeech
p624
VVBD
p625
sVLemma
p626
Vserve
p627
saa(lp628
Vwere
p629
a(dp630
VNamedEntityTag
p631
g73
sVCharacterOffsetEnd
p632
V185
p633
sVCharacterOffsetBegin
p634
V181
p635
sVPartOfSpeech
p636
VVBD
p637
sVLemma
p638
Vbe
p639
saa(lp640
Vwell
p641
a(dp642
VNamedEntityTag
p643
g73
sVCharacterOffsetEnd
p644
V190
p645
sVCharacterOffsetBegin
p646
V186
p647
sVPartOfSpeech
p648
VRB
p649
sVLemma
p650
Vwell
p651
saa(lp652
Vdone
p653
a(dp654
VNamedEntityTag
p655
g73
sVCharacterOffsetEnd
p656
V195
p657
sVCharacterOffsetBegin
p658
V191
p659
sVPartOfSpeech
p660
VVBN
p661
sVLemma
p662
Vdo
p663
saa(lp664
V?
p665
a(dp666
VNamedEntityTag
p667
g73
sVCharacterOffsetEnd
p668
V197
p669
sVCharacterOffsetBegin
p670
V196
p671
sVPartOfSpeech
p672
g190
sVLemma
p673
g665
saasVindexeddependencies
p674
(lp675
(lp676
Vroot
p677
aVROOT-0
p678
aVserved-6
p679
aa(lp680
Vdet
p681
aVpercentage-2
p682
aVWhat-1
p683
aa(lp684
Vnsubj
p685
aVserved-6
p686
aVpercentage-2
p687
aa(lp688
Vdet
p689
aVburgers-5
p690
aVthe-4
p691
aa(lp692
Vprep_of
p693
aVpercentage-2
p694
aVburgers-5
p695
aa(lp696
Vauxpass
p697
aVdone-9
p698
aVwere-7
p699
aa(lp700
Vadvmod
p701
aVdone-9
p702
aVwell-8
p703
aa(lp704
Vccomp
p705
aVserved-6
p706
aVdone-9
p707
aasas.