(dp0
Vcoref
p1
(lp2
(lp3
(lp4
(lp5
Vits
p6
aI0
aI4
aI4
aI5
aa(lp7
VYuan 's Diner
p8
aI0
aI2
aI0
aI3
aaa(lp9
(lp10
Vthe diner
p11
aI1
aI4
aI3
aI5
aa(lp12
VYuan 's Diner
p13
aI0
aI2
aI0
aI3
aaaa(lp14
(lp15
(lp16
Vthe sodas
p17
aI2
aI4
aI3
aI5
aa(lp18
V13 regular sodas
p19
aI1
aI8
aI6
aI9
aaaasVsentences
p20
(lp21
(dp22
Vparsetree
p23
V(ROOT (S (NP (NP (NNP Yuan) (POS 's)) (NNP Diner)) (VP (VBZ offers) (NP (PRP$ its) (NNS clients)) (NP (NP (DT a) (NN choice)) (PP (IN of) (NP (NP (JJ regular)) (CC and) (NP (NN diet) (NN soda)))))) (. .)))
p24
sVtext
p25
VYuan's Diner offers its clients a choice of regular and diet soda .
p26
sVdependencies
p27
(lp28
(lp29
Vroot
p30
aVROOT
p31
aVoffers
p32
aa(lp33
Vposs
p34
aVDiner
p35
aVYuan
p36
aa(lp37
Vnsubj
p38
aVoffers
p39
aVDiner
p40
aa(lp41
Vposs
p42
aVclients
p43
aVits
p44
aa(lp45
Vdep
p46
aVoffers
p47
aVclients
p48
aa(lp49
Vdet
p50
aVchoice
p51
aVa
p52
aa(lp53
Vdobj
p54
aVoffers
p55
aVchoice
p56
aa(lp57
Vprep_of
p58
aVchoice
p59
aVregular
p60
aa(lp61
Vnn
p62
aVsoda
p63
aVdiet
p64
aa(lp65
Vconj_and
p66
aVregular
p67
aVsoda
p68
aasVwords
p69
(lp70
(lp71
VYuan
p72
a(dp73
VNamedEntityTag
p74
VO
p75
sVCharacterOffsetEnd
p76
V5
p77
sVCharacterOffsetBegin
p78
V1
p79
sVPartOfSpeech
p80
VNNP
p81
sVLemma
p82
VYuan
p83
saa(lp84
V's
p85
a(dp86
VNamedEntityTag
p87
g75
sVCharacterOffsetEnd
p88
V7
p89
sVCharacterOffsetBegin
p90
g77
sVPartOfSpeech
p91
VPOS
p92
sVLemma
p93
V's
p94
saa(lp95
VDiner
p96
a(dp97
VNamedEntityTag
p98
g75
sVCharacterOffsetEnd
p99
V13
p100
sVCharacterOffsetBegin
p101
V8
p102
sVPartOfSpeech
p103
VNNP
p104
sVLemma
p105
VDiner
p106
saa(lp107
Voffers
p108
a(dp109
VNamedEntityTag
p110
g75
sVCharacterOffsetEnd
p111
V20
p112
sVCharacterOffsetBegin
p113
V14
p114
sVPartOfSpeech
p115
VVBZ
p116
sVLemma
p117
Voffer
p118
saa(lp119
Vits
p120
a(dp121
VNamedEntityTag
p122
g75
sVCharacterOffsetEnd
p123
V24
p124
sVCharacterOffsetBegin
p125
V21
p126
sVPartOfSpeech
p127
VPRP$
p128
sVLemma
p129
Vits
p130
saa(lp131
Vclients
p132
a(dp133
VNamedEntityTag
p134
g75
sVCharacterOffsetEnd
p135
V32
p136
sVCharacterOffsetBegin
p137
V25
p138
sVPartOfSpeech
p139
VNNS
p140
sVLemma
p141
Vclient
p142
saa(lp143
g52
a(dp144
VNamedEntityTag
p145
g75
sVCharacterOffsetEnd
p146
V34
p147
sVCharacterOffsetBegin
p148
V33
p149
sVPartOfSpeech
p150
VDT
p151
sVLemma
p152
g52
saa(lp153
Vchoice
p154
a(dp155
VNamedEntityTag
p156
g75
sVCharacterOffsetEnd
p157
V41
p158
sVCharacterOffsetBegin
p159
V35
p160
sVPartOfSpeech
p161
VNN
p162
sVLemma
p163
Vchoice
p164
saa(lp165
Vof
p166
a(dp167
VNamedEntityTag
p168
g75
sVCharacterOffsetEnd
p169
V44
p170
sVCharacterOffsetBegin
p171
V42
p172
sVPartOfSpeech
p173
VIN
p174
sVLemma
p175
Vof
p176
saa(lp177
Vregular
p178
a(dp179
VNamedEntityTag
p180
g75
sVCharacterOffsetEnd
p181
V52
p182
sVCharacterOffsetBegin
p183
V45
p184
sVPartOfSpeech
p185
VJJ
p186
sVLemma
p187
Vregular
p188
saa(lp189
Vand
p190
a(dp191
VNamedEntityTag
p192
g75
sVCharacterOffsetEnd
p193
V56
p194
sVCharacterOffsetBegin
p195
V53
p196
sVPartOfSpeech
p197
VCC
p198
sVLemma
p199
Vand
p200
saa(lp201
Vdiet
p202
a(dp203
VNamedEntityTag
p204
g75
sVCharacterOffsetEnd
p205
V61
p206
sVCharacterOffsetBegin
p207
V57
p208
sVPartOfSpeech
p209
VNN
p210
sVLemma
p211
Vdiet
p212
saa(lp213
Vsoda
p214
a(dp215
VNamedEntityTag
p216
g75
sVCharacterOffsetEnd
p217
V66
p218
sVCharacterOffsetBegin
p219
V62
p220
sVPartOfSpeech
p221
VNN
p222
sVLemma
p223
Vsoda
p224
saa(lp225
V.
p226
a(dp227
VNamedEntityTag
p228
g75
sVCharacterOffsetEnd
p229
V68
p230
sVCharacterOffsetBegin
p231
V67
p232
sVPartOfSpeech
p233
g226
sVLemma
p234
g226
saasVindexeddependencies
p235
(lp236
(lp237
Vroot
p238
aVROOT-0
p239
aVoffers-4
p240
aa(lp241
Vposs
p242
aVDiner-3
p243
aVYuan-1
p244
aa(lp245
Vnsubj
p246
aVoffers-4
p247
aVDiner-3
p248
aa(lp249
Vposs
p250
aVclients-6
p251
aVits-5
p252
aa(lp253
Vdep
p254
aVoffers-4
p255
aVclients-6
p256
aa(lp257
Vdet
p258
aVchoice-8
p259
aVa-7
p260
aa(lp261
Vdobj
p262
aVoffers-4
p263
aVchoice-8
p264
aa(lp265
Vprep_of
p266
aVchoice-8
p267
aVregular-10
p268
aa(lp269
Vnn
p270
aVsoda-13
p271
aVdiet-12
p272
aa(lp273
Vconj_and
p274
aVregular-10
p275
aVsoda-13
p276
aasa(dp277
Vparsetree
p278
V(ROOT (S (NP-TMP (JJ Last) (NN night)) (, ,) (NP (DT the) (NN diner)) (VP (VBD served) (NP (NP (CD 13) (JJ regular) (NNS sodas)) (CC and) (NP (CD 39) (NN diet) (NNS sodas)))) (. .)))
p279
sVtext
p280
VLast night , the diner served 13 regular sodas and 39 diet sodas .
p281
sVdependencies
p282
(lp283
(lp284
Vroot
p285
aVROOT
p286
aVserved
p287
aa(lp288
Vamod
p289
aVnight
p290
aVLast
p291
aa(lp292
Vtmod
p293
aVserved
p294
aVnight
p295
aa(lp296
Vdet
p297
aVdiner
p298
aVthe
p299
aa(lp300
Vnsubj
p301
aVserved
p302
aVdiner
p303
aa(lp304
Vnum
p305
aVsodas
p306
aV13
p307
aa(lp308
Vamod
p309
aVsodas
p310
aVregular
p311
aa(lp312
Vdobj
p313
aVserved
p314
aVsodas
p315
aa(lp316
Vnum
p317
aVsodas
p318
aV39
p319
aa(lp320
Vnn
p321
aVsodas
p322
aVdiet
p323
aa(lp324
Vconj_and
p325
aVsodas
p326
aVsodas
p327
aasVwords
p328
(lp329
(lp330
VLast
p331
a(dp332
VNormalizedNamedEntityTag
p333
VTNI
p334
sVTimex
p335
V<TIMEX3 alt_value="TNI OFFSET P-1D" anchorTimeID="t2" temporalFunction="true" tid="t1" type="DATE" valueFromFunction="tf0">Last night</TIMEX3>
p336
sVLemma
p337
Vlast
p338
sVCharacterOffsetEnd
p339
V73
p340
sVPartOfSpeech
p341
VJJ
p342
sVCharacterOffsetBegin
p343
V69
p344
sVNamedEntityTag
p345
VDATE
p346
saa(lp347
Vnight
p348
a(dp349
VNormalizedNamedEntityTag
p350
VTNI
p351
sVTimex
p352
V<TIMEX3 alt_value="TNI OFFSET P-1D" anchorTimeID="t2" temporalFunction="true" tid="t1" type="DATE" valueFromFunction="tf0">Last night</TIMEX3>
p353
sVLemma
p354
Vnight
p355
sVCharacterOffsetEnd
p356
V79
p357
sVPartOfSpeech
p358
VNN
p359
sVCharacterOffsetBegin
p360
V74
p361
sVNamedEntityTag
p362
VDATE
p363
saa(lp364
V,
p365
a(dp366
VNamedEntityTag
p367
g75
sVCharacterOffsetEnd
p368
V81
p369
sVCharacterOffsetBegin
p370
V80
p371
sVPartOfSpeech
p372
g365
sVLemma
p373
g365
saa(lp374
Vthe
p375
a(dp376
VNamedEntityTag
p377
g75
sVCharacterOffsetEnd
p378
V85
p379
sVCharacterOffsetBegin
p380
V82
p381
sVPartOfSpeech
p382
VDT
p383
sVLemma
p384
Vthe
p385
saa(lp386
Vdiner
p387
a(dp388
VNamedEntityTag
p389
g75
sVCharacterOffsetEnd
p390
V91
p391
sVCharacterOffsetBegin
p392
V86
p393
sVPartOfSpeech
p394
VNN
p395
sVLemma
p396
Vdiner
p397
saa(lp398
Vserved
p399
a(dp400
VNamedEntityTag
p401
g75
sVCharacterOffsetEnd
p402
V98
p403
sVCharacterOffsetBegin
p404
V92
p405
sVPartOfSpeech
p406
VVBD
p407
sVLemma
p408
Vserve
p409
saa(lp410
V13
p411
a(dp412
VNormalizedNamedEntityTag
p413
V13.0
p414
sVLemma
p415
V13
p416
sVCharacterOffsetEnd
p417
V101
p418
sVPartOfSpeech
p419
VCD
p420
sVCharacterOffsetBegin
p421
V99
p422
sVNamedEntityTag
p423
VNUMBER
p424
saa(lp425
Vregular
p426
a(dp427
VNamedEntityTag
p428
g75
sVCharacterOffsetEnd
p429
V109
p430
sVCharacterOffsetBegin
p431
V102
p432
sVPartOfSpeech
p433
VJJ
p434
sVLemma
p435
Vregular
p436
saa(lp437
Vsodas
p438
a(dp439
VNamedEntityTag
p440
g75
sVCharacterOffsetEnd
p441
V115
p442
sVCharacterOffsetBegin
p443
V110
p444
sVPartOfSpeech
p445
VNNS
p446
sVLemma
p447
Vsoda
p448
saa(lp449
Vand
p450
a(dp451
VNamedEntityTag
p452
g75
sVCharacterOffsetEnd
p453
V119
p454
sVCharacterOffsetBegin
p455
V116
p456
sVPartOfSpeech
p457
VCC
p458
sVLemma
p459
Vand
p460
saa(lp461
V39
p462
a(dp463
VNormalizedNamedEntityTag
p464
V39.0
p465
sVLemma
p466
V39
p467
sVCharacterOffsetEnd
p468
V122
p469
sVPartOfSpeech
p470
VCD
p471
sVCharacterOffsetBegin
p472
V120
p473
sVNamedEntityTag
p474
VNUMBER
p475
saa(lp476
Vdiet
p477
a(dp478
VNamedEntityTag
p479
g75
sVCharacterOffsetEnd
p480
V127
p481
sVCharacterOffsetBegin
p482
V123
p483
sVPartOfSpeech
p484
VNN
p485
sVLemma
p486
Vdiet
p487
saa(lp488
Vsodas
p489
a(dp490
VNamedEntityTag
p491
g75
sVCharacterOffsetEnd
p492
V133
p493
sVCharacterOffsetBegin
p494
V128
p495
sVPartOfSpeech
p496
VNNS
p497
sVLemma
p498
Vsoda
p499
saa(lp500
g226
a(dp501
VNamedEntityTag
p502
g75
sVCharacterOffsetEnd
p503
V135
p504
sVCharacterOffsetBegin
p505
V134
p506
sVPartOfSpeech
p507
g226
sVLemma
p508
g226
saasVindexeddependencies
p509
(lp510
(lp511
Vroot
p512
aVROOT-0
p513
aVserved-6
p514
aa(lp515
Vamod
p516
aVnight-2
p517
aVLast-1
p518
aa(lp519
Vtmod
p520
aVserved-6
p521
aVnight-2
p522
aa(lp523
Vdet
p524
aVdiner-5
p525
aVthe-4
p526
aa(lp527
Vnsubj
p528
aVserved-6
p529
aVdiner-5
p530
aa(lp531
Vnum
p532
aVsodas-9
p533
aV13-7
p534
aa(lp535
Vamod
p536
aVsodas-9
p537
aVregular-8
p538
aa(lp539
Vdobj
p540
aVserved-6
p541
aVsodas-9
p542
aa(lp543
Vnum
p544
aVsodas-13
p545
aV39-11
p546
aa(lp547
Vnn
p548
aVsodas-13
p549
aVdiet-12
p550
aa(lp551
Vconj_and
p552
aVsodas-9
p553
aVsodas-13
p554
aasa(dp555
Vparsetree
p556
V(ROOT (SBARQ (WHNP (WHNP (WDT What) (NN percentage)) (PP (IN of) (NP (DT the) (NNS sodas)))) (SQ (VP (VBD served) (SBAR (S (VP (VBD were) (ADJP (JJ regular))))))) (. ?)))
p557
sVtext
p558
VWhat percentage of the sodas served were regular ?
p559
sVdependencies
p560
(lp561
(lp562
Vroot
p563
aVROOT
p564
aVserved
p565
aa(lp566
Vdet
p567
aVpercentage
p568
aVWhat
p569
aa(lp570
Vnsubj
p571
aVserved
p572
aVpercentage
p573
aa(lp574
Vdet
p575
aVsodas
p576
aVthe
p577
aa(lp578
Vprep_of
p579
aVpercentage
p580
aVsodas
p581
aa(lp582
Vcop
p583
aVregular
p584
aVwere
p585
aa(lp586
Vccomp
p587
aVserved
p588
aVregular
p589
aasVwords
p590
(lp591
(lp592
VWhat
p593
a(dp594
VNamedEntityTag
p595
g75
sVCharacterOffsetEnd
p596
V140
p597
sVCharacterOffsetBegin
p598
V136
p599
sVPartOfSpeech
p600
VWDT
p601
sVLemma
p602
Vwhat
p603
saa(lp604
Vpercentage
p605
a(dp606
VNamedEntityTag
p607
g75
sVCharacterOffsetEnd
p608
V151
p609
sVCharacterOffsetBegin
p610
V141
p611
sVPartOfSpeech
p612
VNN
p613
sVLemma
p614
Vpercentage
p615
saa(lp616
Vof
p617
a(dp618
VNamedEntityTag
p619
g75
sVCharacterOffsetEnd
p620
V154
p621
sVCharacterOffsetBegin
p622
V152
p623
sVPartOfSpeech
p624
VIN
p625
sVLemma
p626
Vof
p627
saa(lp628
Vthe
p629
a(dp630
VNamedEntityTag
p631
g75
sVCharacterOffsetEnd
p632
V158
p633
sVCharacterOffsetBegin
p634
V155
p635
sVPartOfSpeech
p636
VDT
p637
sVLemma
p638
Vthe
p639
saa(lp640
Vsodas
p641
a(dp642
VNamedEntityTag
p643
g75
sVCharacterOffsetEnd
p644
V164
p645
sVCharacterOffsetBegin
p646
V159
p647
sVPartOfSpeech
p648
VNNS
p649
sVLemma
p650
Vsoda
p651
saa(lp652
Vserved
p653
a(dp654
VNamedEntityTag
p655
g75
sVCharacterOffsetEnd
p656
V171
p657
sVCharacterOffsetBegin
p658
V165
p659
sVPartOfSpeech
p660
VVBD
p661
sVLemma
p662
Vserve
p663
saa(lp664
Vwere
p665
a(dp666
VNamedEntityTag
p667
g75
sVCharacterOffsetEnd
p668
V176
p669
sVCharacterOffsetBegin
p670
V172
p671
sVPartOfSpeech
p672
VVBD
p673
sVLemma
p674
Vbe
p675
saa(lp676
Vregular
p677
a(dp678
VNamedEntityTag
p679
g75
sVCharacterOffsetEnd
p680
V184
p681
sVCharacterOffsetBegin
p682
V177
p683
sVPartOfSpeech
p684
VJJ
p685
sVLemma
p686
Vregular
p687
saa(lp688
V?
p689
a(dp690
VNamedEntityTag
p691
g75
sVCharacterOffsetEnd
p692
V186
p693
sVCharacterOffsetBegin
p694
V185
p695
sVPartOfSpeech
p696
g226
sVLemma
p697
g689
saasVindexeddependencies
p698
(lp699
(lp700
Vroot
p701
aVROOT-0
p702
aVserved-6
p703
aa(lp704
Vdet
p705
aVpercentage-2
p706
aVWhat-1
p707
aa(lp708
Vnsubj
p709
aVserved-6
p710
aVpercentage-2
p711
aa(lp712
Vdet
p713
aVsodas-5
p714
aVthe-4
p715
aa(lp716
Vprep_of
p717
aVpercentage-2
p718
aVsodas-5
p719
aa(lp720
Vcop
p721
aVregular-8
p722
aVwere-7
p723
aa(lp724
Vccomp
p725
aVserved-6
p726
aVregular-8
p727
aasas.