(dp0
Vcoref
p1
(lp2
(lp3
(lp4
(lp5
Vshe
p6
aI1
aI1
aI1
aI2
aa(lp7
VRobin
p8
aI0
aI5
aI5
aI6
aaa(lp9
(lp10
Vshe
p11
aI1
aI16
aI16
aI17
aa(lp12
VRobin
p13
aI0
aI5
aI5
aI6
aaaasVsentences
p14
(lp15
(dp16
Vparsetree
p17
V(ROOT (S (PP (IN For) (NP (DT the) (NN school) (S (VP (VB bake) (NP (NN sale)))))) (NP (NNP Robin)) (VP (VBD made) (NP (CD 42) (NNS cupcakes))) (. .)))
p18
sVtext
p19
VFor the school bake sale Robin made 42 cupcakes .
p20
sVdependencies
p21
(lp22
(lp23
Vroot
p24
aVROOT
p25
aVmade
p26
aa(lp27
Vdet
p28
aVschool
p29
aVthe
p30
aa(lp31
Vprep_for
p32
aVmade
p33
aVschool
p34
aa(lp35
Vdep
p36
aVschool
p37
aVbake
p38
aa(lp39
Vdobj
p40
aVbake
p41
aVsale
p42
aa(lp43
Vnsubj
p44
aVmade
p45
aVRobin
p46
aa(lp47
Vnum
p48
aVcupcakes
p49
aV42
p50
aa(lp51
Vdobj
p52
aVmade
p53
aVcupcakes
p54
aasVwords
p55
(lp56
(lp57
VFor
p58
a(dp59
VNamedEntityTag
p60
VO
p61
sVCharacterOffsetEnd
p62
V4
p63
sVCharacterOffsetBegin
p64
V1
p65
sVPartOfSpeech
p66
VIN
p67
sVLemma
p68
Vfor
p69
saa(lp70
Vthe
p71
a(dp72
VNamedEntityTag
p73
g61
sVCharacterOffsetEnd
p74
V8
p75
sVCharacterOffsetBegin
p76
V5
p77
sVPartOfSpeech
p78
VDT
p79
sVLemma
p80
Vthe
p81
saa(lp82
Vschool
p83
a(dp84
VNamedEntityTag
p85
g61
sVCharacterOffsetEnd
p86
V15
p87
sVCharacterOffsetBegin
p88
V9
p89
sVPartOfSpeech
p90
VNN
p91
sVLemma
p92
Vschool
p93
saa(lp94
Vbake
p95
a(dp96
VNamedEntityTag
p97
g61
sVCharacterOffsetEnd
p98
V20
p99
sVCharacterOffsetBegin
p100
V16
p101
sVPartOfSpeech
p102
VVB
p103
sVLemma
p104
Vbake
p105
saa(lp106
Vsale
p107
a(dp108
VNamedEntityTag
p109
g61
sVCharacterOffsetEnd
p110
V25
p111
sVCharacterOffsetBegin
p112
V21
p113
sVPartOfSpeech
p114
VNN
p115
sVLemma
p116
Vsale
p117
saa(lp118
VRobin
p119
a(dp120
VNamedEntityTag
p121
VPERSON
p122
sVCharacterOffsetEnd
p123
V31
p124
sVCharacterOffsetBegin
p125
V26
p126
sVPartOfSpeech
p127
VNNP
p128
sVLemma
p129
VRobin
p130
saa(lp131
Vmade
p132
a(dp133
VNamedEntityTag
p134
g61
sVCharacterOffsetEnd
p135
V36
p136
sVCharacterOffsetBegin
p137
V32
p138
sVPartOfSpeech
p139
VVBD
p140
sVLemma
p141
Vmake
p142
saa(lp143
V42
p144
a(dp145
VNormalizedNamedEntityTag
p146
V42.0
p147
sVLemma
p148
V42
p149
sVCharacterOffsetEnd
p150
V39
p151
sVPartOfSpeech
p152
VCD
p153
sVCharacterOffsetBegin
p154
V37
p155
sVNamedEntityTag
p156
VNUMBER
p157
saa(lp158
Vcupcakes
p159
a(dp160
VNamedEntityTag
p161
g61
sVCharacterOffsetEnd
p162
V48
p163
sVCharacterOffsetBegin
p164
V40
p165
sVPartOfSpeech
p166
VNNS
p167
sVLemma
p168
Vcupcake
p169
saa(lp170
V.
p171
a(dp172
VNamedEntityTag
p173
g61
sVCharacterOffsetEnd
p174
V50
p175
sVCharacterOffsetBegin
p176
V49
p177
sVPartOfSpeech
p178
g171
sVLemma
p179
g171
saasVindexeddependencies
p180
(lp181
(lp182
Vroot
p183
aVROOT-0
p184
aVmade-7
p185
aa(lp186
Vdet
p187
aVschool-3
p188
aVthe-2
p189
aa(lp190
Vprep_for
p191
aVmade-7
p192
aVschool-3
p193
aa(lp194
Vdep
p195
aVschool-3
p196
aVbake-4
p197
aa(lp198
Vdobj
p199
aVbake-4
p200
aVsale-5
p201
aa(lp202
Vnsubj
p203
aVmade-7
p204
aVRobin-6
p205
aa(lp206
Vnum
p207
aVcupcakes-9
p208
aV42-8
p209
aa(lp210
Vdobj
p211
aVmade-7
p212
aVcupcakes-9
p213
aasa(dp214
Vparsetree
p215
V(ROOT (SBARQ (SBAR (IN If) (S (NP (PRP she)) (VP (VP (VBD sold) (NP (NP (CD 22)) (PP (IN of) (NP (PRP them))))) (CC and) (VP (ADVP (RB then)) (VBD made) (NP (CD 39) (JJR more)))))) (, ,) (WHADVP (WRB how) (NP (JJ many) (NNS cupcakes))) (SQ (MD would) (NP (PRP she)) (VP (VB have))) (. ?)))
p216
sVtext
p217
VIf she sold 22 of them and then made 39 more , how many cupcakes would she have ?
p218
sVdependencies
p219
(lp220
(lp221
Vroot
p222
aVROOT
p223
aVhave
p224
aa(lp225
Vmark
p226
aVsold
p227
aVIf
p228
aa(lp229
Vnsubj
p230
aVsold
p231
aVshe
p232
aa(lp233
Vadvcl
p234
aVhave
p235
aVsold
p236
aa(lp237
Vdobj
p238
aVsold
p239
aV22
p240
aa(lp241
Vprep_of
p242
aV22
p243
aVthem
p244
aa(lp245
Vadvmod
p246
aVmade
p247
aVthen
p248
aa(lp249
Vconj_and
p250
aVsold
p251
aVmade
p252
aa(lp253
Vnum
p254
aVmore
p255
aV39
p256
aa(lp257
Vdobj
p258
aVmade
p259
aVmore
p260
aa(lp261
Vadvmod
p262
aVhave
p263
aVhow
p264
aa(lp265
Vamod
p266
aVcupcakes
p267
aVmany
p268
aa(lp269
Vdep
p270
aVhow
p271
aVcupcakes
p272
aa(lp273
Vaux
p274
aVhave
p275
aVwould
p276
aa(lp277
Vnsubj
p278
aVhave
p279
aVshe
p280
aasVwords
p281
(lp282
(lp283
VIf
p284
a(dp285
VNamedEntityTag
p286
g61
sVCharacterOffsetEnd
p287
V53
p288
sVCharacterOffsetBegin
p289
V51
p290
sVPartOfSpeech
p291
VIN
p292
sVLemma
p293
Vif
p294
saa(lp295
Vshe
p296
a(dp297
VNamedEntityTag
p298
g61
sVCharacterOffsetEnd
p299
V57
p300
sVCharacterOffsetBegin
p301
V54
p302
sVPartOfSpeech
p303
VPRP
p304
sVLemma
p305
Vshe
p306
saa(lp307
Vsold
p308
a(dp309
VNamedEntityTag
p310
g61
sVCharacterOffsetEnd
p311
V62
p312
sVCharacterOffsetBegin
p313
V58
p314
sVPartOfSpeech
p315
VVBD
p316
sVLemma
p317
Vsell
p318
saa(lp319
V22
p320
a(dp321
VNormalizedNamedEntityTag
p322
V22.0
p323
sVLemma
p324
V22
p325
sVCharacterOffsetEnd
p326
V65
p327
sVPartOfSpeech
p328
VCD
p329
sVCharacterOffsetBegin
p330
V63
p331
sVNamedEntityTag
p332
VNUMBER
p333
saa(lp334
Vof
p335
a(dp336
VNamedEntityTag
p337
g61
sVCharacterOffsetEnd
p338
V68
p339
sVCharacterOffsetBegin
p340
V66
p341
sVPartOfSpeech
p342
VIN
p343
sVLemma
p344
Vof
p345
saa(lp346
Vthem
p347
a(dp348
VNamedEntityTag
p349
g61
sVCharacterOffsetEnd
p350
V73
p351
sVCharacterOffsetBegin
p352
V69
p353
sVPartOfSpeech
p354
VPRP
p355
sVLemma
p356
Vthey
p357
saa(lp358
Vand
p359
a(dp360
VNamedEntityTag
p361
g61
sVCharacterOffsetEnd
p362
V77
p363
sVCharacterOffsetBegin
p364
V74
p365
sVPartOfSpeech
p366
VCC
p367
sVLemma
p368
Vand
p369
saa(lp370
Vthen
p371
a(dp372
VNamedEntityTag
p373
g61
sVCharacterOffsetEnd
p374
V82
p375
sVCharacterOffsetBegin
p376
V78
p377
sVPartOfSpeech
p378
VRB
p379
sVLemma
p380
Vthen
p381
saa(lp382
Vmade
p383
a(dp384
VNamedEntityTag
p385
g61
sVCharacterOffsetEnd
p386
V87
p387
sVCharacterOffsetBegin
p388
V83
p389
sVPartOfSpeech
p390
VVBD
p391
sVLemma
p392
Vmake
p393
saa(lp394
V39
p395
a(dp396
VNormalizedNamedEntityTag
p397
V39.0
p398
sVLemma
p399
V39
p400
sVCharacterOffsetEnd
p401
V90
p402
sVPartOfSpeech
p403
VCD
p404
sVCharacterOffsetBegin
p405
V88
p406
sVNamedEntityTag
p407
VNUMBER
p408
saa(lp409
Vmore
p410
a(dp411
VNamedEntityTag
p412
g61
sVCharacterOffsetEnd
p413
V95
p414
sVCharacterOffsetBegin
p415
V91
p416
sVPartOfSpeech
p417
VJJR
p418
sVLemma
p419
Vmore
p420
saa(lp421
V,
p422
a(dp423
VNamedEntityTag
p424
g61
sVCharacterOffsetEnd
p425
V97
p426
sVCharacterOffsetBegin
p427
V96
p428
sVPartOfSpeech
p429
g422
sVLemma
p430
g422
saa(lp431
Vhow
p432
a(dp433
VNamedEntityTag
p434
g61
sVCharacterOffsetEnd
p435
V101
p436
sVCharacterOffsetBegin
p437
V98
p438
sVPartOfSpeech
p439
VWRB
p440
sVLemma
p441
Vhow
p442
saa(lp443
Vmany
p444
a(dp445
VNamedEntityTag
p446
g61
sVCharacterOffsetEnd
p447
V106
p448
sVCharacterOffsetBegin
p449
V102
p450
sVPartOfSpeech
p451
VJJ
p452
sVLemma
p453
Vmany
p454
saa(lp455
Vcupcakes
p456
a(dp457
VNamedEntityTag
p458
g61
sVCharacterOffsetEnd
p459
V115
p460
sVCharacterOffsetBegin
p461
V107
p462
sVPartOfSpeech
p463
VNNS
p464
sVLemma
p465
Vcupcake
p466
saa(lp467
Vwould
p468
a(dp469
VNamedEntityTag
p470
g61
sVCharacterOffsetEnd
p471
V121
p472
sVCharacterOffsetBegin
p473
V116
p474
sVPartOfSpeech
p475
VMD
p476
sVLemma
p477
Vwould
p478
saa(lp479
Vshe
p480
a(dp481
VNamedEntityTag
p482
g61
sVCharacterOffsetEnd
p483
V125
p484
sVCharacterOffsetBegin
p485
V122
p486
sVPartOfSpeech
p487
VPRP
p488
sVLemma
p489
Vshe
p490
saa(lp491
Vhave
p492
a(dp493
VNamedEntityTag
p494
g61
sVCharacterOffsetEnd
p495
V130
p496
sVCharacterOffsetBegin
p497
V126
p498
sVPartOfSpeech
p499
VVB
p500
sVLemma
p501
Vhave
p502
saa(lp503
V?
p504
a(dp505
VNamedEntityTag
p506
g61
sVCharacterOffsetEnd
p507
V132
p508
sVCharacterOffsetBegin
p509
V131
p510
sVPartOfSpeech
p511
g171
sVLemma
p512
g504
saasVindexeddependencies
p513
(lp514
(lp515
Vroot
p516
aVROOT-0
p517
aVhave-18
p518
aa(lp519
Vmark
p520
aVsold-3
p521
aVIf-1
p522
aa(lp523
Vnsubj
p524
aVsold-3
p525
aVshe-2
p526
aa(lp527
Vadvcl
p528
aVhave-18
p529
aVsold-3
p530
aa(lp531
Vdobj
p532
aVsold-3
p533
aV22-4
p534
aa(lp535
Vprep_of
p536
aV22-4
p537
aVthem-6
p538
aa(lp539
Vadvmod
p540
aVmade-9
p541
aVthen-8
p542
aa(lp543
Vconj_and
p544
aVsold-3
p545
aVmade-9
p546
aa(lp547
Vnum
p548
aVmore-11
p549
aV39-10
p550
aa(lp551
Vdobj
p552
aVmade-9
p553
aVmore-11
p554
aa(lp555
Vadvmod
p556
aVhave-18
p557
aVhow-13
p558
aa(lp559
Vamod
p560
aVcupcakes-15
p561
aVmany-14
p562
aa(lp563
Vdep
p564
aVhow-13
p565
aVcupcakes-15
p566
aa(lp567
Vaux
p568
aVhave-18
p569
aVwould-16
p570
aa(lp571
Vnsubj
p572
aVhave-18
p573
aVshe-17
p574
aasas.