(dp0
Vcoref
p1
(lp2
(lp3
(lp4
(lp5
VArjun
p6
aI0
aI3
aI3
aI4
aa(lp7
VArjun 's
p8
aI2
aI5
aI5
aI7
aaa(lp9
(lp10
Vhis
p11
aI1
aI5
aI5
aI6
aa(lp12
VArjun 's
p13
aI2
aI5
aI5
aI7
aaaa(lp14
(lp15
(lp16
Vthis semester
p17
aI1
aI3
aI2
aI4
aa(lp18
VLast semester
p19
aI0
aI1
aI0
aI2
aaa(lp20
(lp21
Vthis semester
p22
aI2
aI9
aI8
aI10
aa(lp23
VLast semester
p24
aI0
aI1
aI0
aI2
aaaa(lp25
(lp26
(lp27
Vhis average score
p28
aI1
aI7
aI5
aI8
aa(lp29
Van average score of 80 points
p30
aI0
aI7
aI5
aI11
aaaasVsentences
p31
(lp32
(dp33
Vparsetree
p34
V(ROOT (S (NP-TMP (JJ Last) (NN semester)) (, ,) (NP (NNP Arjun)) (VP (VBD earned) (NP (NP (DT an) (JJ average) (NN score)) (PP (IN of) (NP (CD 80) (NNS points)))) (PP (IN on) (NP (NN math) (NNS tests)))) (. .)))
p35
sVtext
p36
VLast semester , Arjun earned an average score of 80 points on math tests .
p37
sVdependencies
p38
(lp39
(lp40
Vroot
p41
aVROOT
p42
aVearned
p43
aa(lp44
Vamod
p45
aVsemester
p46
aVLast
p47
aa(lp48
Vtmod
p49
aVearned
p50
aVsemester
p51
aa(lp52
Vnsubj
p53
aVearned
p54
aVArjun
p55
aa(lp56
Vdet
p57
aVscore
p58
aVan
p59
aa(lp60
Vamod
p61
aVscore
p62
aVaverage
p63
aa(lp64
Vdobj
p65
aVearned
p66
aVscore
p67
aa(lp68
Vnum
p69
aVpoints
p70
aV80
p71
aa(lp72
Vprep_of
p73
aVscore
p74
aVpoints
p75
aa(lp76
Vnn
p77
aVtests
p78
aVmath
p79
aa(lp80
Vprep_on
p81
aVearned
p82
aVtests
p83
aasVwords
p84
(lp85
(lp86
VLast
p87
a(dp88
VNamedEntityTag
p89
VO
p90
sVCharacterOffsetEnd
p91
V5
p92
sVCharacterOffsetBegin
p93
V1
p94
sVPartOfSpeech
p95
VJJ
p96
sVLemma
p97
Vlast
p98
saa(lp99
Vsemester
p100
a(dp101
VNamedEntityTag
p102
g90
sVCharacterOffsetEnd
p103
V14
p104
sVCharacterOffsetBegin
p105
V6
p106
sVPartOfSpeech
p107
VNN
p108
sVLemma
p109
Vsemester
p110
saa(lp111
V,
p112
a(dp113
VNamedEntityTag
p114
g90
sVCharacterOffsetEnd
p115
V16
p116
sVCharacterOffsetBegin
p117
V15
p118
sVPartOfSpeech
p119
g112
sVLemma
p120
g112
saa(lp121
VArjun
p122
a(dp123
VNamedEntityTag
p124
VPERSON
p125
sVCharacterOffsetEnd
p126
V22
p127
sVCharacterOffsetBegin
p128
V17
p129
sVPartOfSpeech
p130
VNNP
p131
sVLemma
p132
VArjun
p133
saa(lp134
Vearned
p135
a(dp136
VNamedEntityTag
p137
g90
sVCharacterOffsetEnd
p138
V29
p139
sVCharacterOffsetBegin
p140
V23
p141
sVPartOfSpeech
p142
VVBD
p143
sVLemma
p144
Vearn
p145
saa(lp146
Van
p147
a(dp148
VNamedEntityTag
p149
g90
sVCharacterOffsetEnd
p150
V32
p151
sVCharacterOffsetBegin
p152
V30
p153
sVPartOfSpeech
p154
VDT
p155
sVLemma
p156
Va
p157
saa(lp158
Vaverage
p159
a(dp160
VNamedEntityTag
p161
g90
sVCharacterOffsetEnd
p162
V40
p163
sVCharacterOffsetBegin
p164
V33
p165
sVPartOfSpeech
p166
VJJ
p167
sVLemma
p168
Vaverage
p169
saa(lp170
Vscore
p171
a(dp172
VNormalizedNamedEntityTag
p173
V20.0
p174
sVLemma
p175
Vscore
p176
sVCharacterOffsetEnd
p177
V46
p178
sVPartOfSpeech
p179
VNN
p180
sVCharacterOffsetBegin
p181
V41
p182
sVNamedEntityTag
p183
VNUMBER
p184
saa(lp185
Vof
p186
a(dp187
VNamedEntityTag
p188
g90
sVCharacterOffsetEnd
p189
V49
p190
sVCharacterOffsetBegin
p191
V47
p192
sVPartOfSpeech
p193
VIN
p194
sVLemma
p195
Vof
p196
saa(lp197
V80
p198
a(dp199
VNormalizedNamedEntityTag
p200
V80.0
p201
sVLemma
p202
V80
p203
sVCharacterOffsetEnd
p204
V52
p205
sVPartOfSpeech
p206
VCD
p207
sVCharacterOffsetBegin
p208
V50
p209
sVNamedEntityTag
p210
VNUMBER
p211
saa(lp212
Vpoints
p213
a(dp214
VNamedEntityTag
p215
g90
sVCharacterOffsetEnd
p216
V59
p217
sVCharacterOffsetBegin
p218
V53
p219
sVPartOfSpeech
p220
VNNS
p221
sVLemma
p222
Vpoint
p223
saa(lp224
Von
p225
a(dp226
VNamedEntityTag
p227
g90
sVCharacterOffsetEnd
p228
V62
p229
sVCharacterOffsetBegin
p230
V60
p231
sVPartOfSpeech
p232
VIN
p233
sVLemma
p234
Von
p235
saa(lp236
Vmath
p237
a(dp238
VNamedEntityTag
p239
g90
sVCharacterOffsetEnd
p240
V67
p241
sVCharacterOffsetBegin
p242
V63
p243
sVPartOfSpeech
p244
VNN
p245
sVLemma
p246
Vmath
p247
saa(lp248
Vtests
p249
a(dp250
VNamedEntityTag
p251
g90
sVCharacterOffsetEnd
p252
V73
p253
sVCharacterOffsetBegin
p254
V68
p255
sVPartOfSpeech
p256
VNNS
p257
sVLemma
p258
Vtest
p259
saa(lp260
V.
p261
a(dp262
VNamedEntityTag
p263
g90
sVCharacterOffsetEnd
p264
V75
p265
sVCharacterOffsetBegin
p266
V74
p267
sVPartOfSpeech
p268
g261
sVLemma
p269
g261
saasVindexeddependencies
p270
(lp271
(lp272
Vroot
p273
aVROOT-0
p274
aVearned-5
p275
aa(lp276
Vamod
p277
aVsemester-2
p278
aVLast-1
p279
aa(lp280
Vtmod
p281
aVearned-5
p282
aVsemester-2
p283
aa(lp284
Vnsubj
p285
aVearned-5
p286
aVArjun-4
p287
aa(lp288
Vdet
p289
aVscore-8
p290
aVan-6
p291
aa(lp292
Vamod
p293
aVscore-8
p294
aVaverage-7
p295
aa(lp296
Vdobj
p297
aVearned-5
p298
aVscore-8
p299
aa(lp300
Vnum
p301
aVpoints-11
p302
aV80-10
p303
aa(lp304
Vprep_of
p305
aVscore-8
p306
aVpoints-11
p307
aa(lp308
Vnn
p309
aVtests-14
p310
aVmath-13
p311
aa(lp312
Vprep_on
p313
aVearned-5
p314
aVtests-14
p315
aasa(dp316
Vparsetree
p317
V(ROOT (S (ADVP (RB So) (RB far)) (NP-TMP (DT this) (NN semester)) (, ,) (NP (PRP$ his) (JJ average) (NN score)) (VP (VBZ is) (ADJP (NP (CD 0.05) (NNS times)) (JJR higher))) (. .)))
p318
sVtext
p319
VSo far this semester , his average score is 0.05 times higher .
p320
sVdependencies
p321
(lp322
(lp323
Vroot
p324
aVROOT
p325
aVhigher
p326
aa(lp327
Vadvmod
p328
aVfar
p329
aVSo
p330
aa(lp331
Vadvmod
p332
aVhigher
p333
aVfar
p334
aa(lp335
Vdet
p336
aVsemester
p337
aVthis
p338
aa(lp339
Vtmod
p340
aVhigher
p341
aVsemester
p342
aa(lp343
Vposs
p344
aVscore
p345
aVhis
p346
aa(lp347
Vamod
p348
aVscore
p349
aVaverage
p350
aa(lp351
Vnsubj
p352
aVhigher
p353
aVscore
p354
aa(lp355
Vcop
p356
aVhigher
p357
aVis
p358
aa(lp359
Vnum
p360
aVtimes
p361
aV0.05
p362
aa(lp363
Vnpadvmod
p364
aVhigher
p365
aVtimes
p366
aasVwords
p367
(lp368
(lp369
VSo
p370
a(dp371
VNamedEntityTag
p372
g90
sVCharacterOffsetEnd
p373
V78
p374
sVCharacterOffsetBegin
p375
V76
p376
sVPartOfSpeech
p377
VRB
p378
sVLemma
p379
Vso
p380
saa(lp381
Vfar
p382
a(dp383
VNamedEntityTag
p384
g90
sVCharacterOffsetEnd
p385
V82
p386
sVCharacterOffsetBegin
p387
V79
p388
sVPartOfSpeech
p389
VRB
p390
sVLemma
p391
Vfar
p392
saa(lp393
Vthis
p394
a(dp395
VNamedEntityTag
p396
g90
sVCharacterOffsetEnd
p397
V87
p398
sVCharacterOffsetBegin
p399
V83
p400
sVPartOfSpeech
p401
VDT
p402
sVLemma
p403
Vthis
p404
saa(lp405
Vsemester
p406
a(dp407
VNamedEntityTag
p408
g90
sVCharacterOffsetEnd
p409
V96
p410
sVCharacterOffsetBegin
p411
V88
p412
sVPartOfSpeech
p413
VNN
p414
sVLemma
p415
Vsemester
p416
saa(lp417
g112
a(dp418
VNamedEntityTag
p419
g90
sVCharacterOffsetEnd
p420
V98
p421
sVCharacterOffsetBegin
p422
V97
p423
sVPartOfSpeech
p424
g112
sVLemma
p425
g112
saa(lp426
Vhis
p427
a(dp428
VNamedEntityTag
p429
g90
sVCharacterOffsetEnd
p430
V102
p431
sVCharacterOffsetBegin
p432
V99
p433
sVPartOfSpeech
p434
VPRP$
p435
sVLemma
p436
Vhe
p437
saa(lp438
Vaverage
p439
a(dp440
VNamedEntityTag
p441
g90
sVCharacterOffsetEnd
p442
V110
p443
sVCharacterOffsetBegin
p444
V103
p445
sVPartOfSpeech
p446
VJJ
p447
sVLemma
p448
Vaverage
p449
saa(lp450
Vscore
p451
a(dp452
VNormalizedNamedEntityTag
p453
V20.0
p454
sVLemma
p455
Vscore
p456
sVCharacterOffsetEnd
p457
V116
p458
sVPartOfSpeech
p459
VNN
p460
sVCharacterOffsetBegin
p461
V111
p462
sVNamedEntityTag
p463
VNUMBER
p464
saa(lp465
Vis
p466
a(dp467
VNamedEntityTag
p468
g90
sVCharacterOffsetEnd
p469
V119
p470
sVCharacterOffsetBegin
p471
V117
p472
sVPartOfSpeech
p473
VVBZ
p474
sVLemma
p475
Vbe
p476
saa(lp477
V0.05
p478
a(dp479
VNormalizedNamedEntityTag
p480
V0.05
p481
sVLemma
p482
V0.05
p483
sVCharacterOffsetEnd
p484
V124
p485
sVPartOfSpeech
p486
VCD
p487
sVCharacterOffsetBegin
p488
V120
p489
sVNamedEntityTag
p490
VNUMBER
p491
saa(lp492
Vtimes
p493
a(dp494
VNamedEntityTag
p495
g90
sVCharacterOffsetEnd
p496
V130
p497
sVCharacterOffsetBegin
p498
V125
p499
sVPartOfSpeech
p500
VNNS
p501
sVLemma
p502
Vtime
p503
saa(lp504
Vhigher
p505
a(dp506
VNamedEntityTag
p507
g90
sVCharacterOffsetEnd
p508
V137
p509
sVCharacterOffsetBegin
p510
V131
p511
sVPartOfSpeech
p512
VJJR
p513
sVLemma
p514
Vhigher
p515
saa(lp516
g261
a(dp517
VNamedEntityTag
p518
g90
sVCharacterOffsetEnd
p519
V139
p520
sVCharacterOffsetBegin
p521
V138
p522
sVPartOfSpeech
p523
g261
sVLemma
p524
g261
saasVindexeddependencies
p525
(lp526
(lp527
Vroot
p528
aVROOT-0
p529
aVhigher-12
p530
aa(lp531
Vadvmod
p532
aVfar-2
p533
aVSo-1
p534
aa(lp535
Vadvmod
p536
aVhigher-12
p537
aVfar-2
p538
aa(lp539
Vdet
p540
aVsemester-4
p541
aVthis-3
p542
aa(lp543
Vtmod
p544
aVhigher-12
p545
aVsemester-4
p546
aa(lp547
Vposs
p548
aVscore-8
p549
aVhis-6
p550
aa(lp551
Vamod
p552
aVscore-8
p553
aVaverage-7
p554
aa(lp555
Vnsubj
p556
aVhigher-12
p557
aVscore-8
p558
aa(lp559
Vcop
p560
aVhigher-12
p561
aVis-9
p562
aa(lp563
Vnum
p564
aVtimes-11
p565
aV0.05-10
p566
aa(lp567
Vnpadvmod
p568
aVhigher-12
p569
aVtimes-11
p570
aasa(dp571
Vparsetree
p572
V(ROOT (SBARQ (WHNP (WP What)) (SQ (VBZ is) (NP (NP (DT the) (NN average)) (PP (IN of) (NP (NP (NP (NNP Arjun) (POS 's)) (NNS scores)) (NP-TMP (DT this) (NN semester)))))) (. ?)))
p573
sVtext
p574
VWhat is the average of Arjun's scores this semester ?
p575
sVdependencies
p576
(lp577
(lp578
Vroot
p579
aVROOT
p580
aVWhat
p581
aa(lp582
Vcop
p583
aVWhat
p584
aVis
p585
aa(lp586
Vdet
p587
aVaverage
p588
aVthe
p589
aa(lp590
Vnsubj
p591
aVWhat
p592
aVaverage
p593
aa(lp594
Vposs
p595
aVscores
p596
aVArjun
p597
aa(lp598
Vprep_of
p599
aVaverage
p600
aVscores
p601
aa(lp602
Vdet
p603
aVsemester
p604
aVthis
p605
aa(lp606
Vtmod
p607
aVscores
p608
aVsemester
p609
aasVwords
p610
(lp611
(lp612
VWhat
p613
a(dp614
VNamedEntityTag
p615
g90
sVCharacterOffsetEnd
p616
V144
p617
sVCharacterOffsetBegin
p618
V140
p619
sVPartOfSpeech
p620
VWP
p621
sVLemma
p622
Vwhat
p623
saa(lp624
Vis
p625
a(dp626
VNamedEntityTag
p627
g90
sVCharacterOffsetEnd
p628
V147
p629
sVCharacterOffsetBegin
p630
V145
p631
sVPartOfSpeech
p632
VVBZ
p633
sVLemma
p634
Vbe
p635
saa(lp636
Vthe
p637
a(dp638
VNamedEntityTag
p639
g90
sVCharacterOffsetEnd
p640
V151
p641
sVCharacterOffsetBegin
p642
V148
p643
sVPartOfSpeech
p644
VDT
p645
sVLemma
p646
Vthe
p647
saa(lp648
Vaverage
p649
a(dp650
VNamedEntityTag
p651
g90
sVCharacterOffsetEnd
p652
V159
p653
sVCharacterOffsetBegin
p654
V152
p655
sVPartOfSpeech
p656
VNN
p657
sVLemma
p658
Vaverage
p659
saa(lp660
Vof
p661
a(dp662
VNamedEntityTag
p663
g90
sVCharacterOffsetEnd
p664
V162
p665
sVCharacterOffsetBegin
p666
V160
p667
sVPartOfSpeech
p668
VIN
p669
sVLemma
p670
Vof
p671
saa(lp672
VArjun
p673
a(dp674
VNamedEntityTag
p675
VPERSON
p676
sVCharacterOffsetEnd
p677
V168
p678
sVCharacterOffsetBegin
p679
V163
p680
sVPartOfSpeech
p681
VNNP
p682
sVLemma
p683
VArjun
p684
saa(lp685
V's
p686
a(dp687
VNamedEntityTag
p688
g90
sVCharacterOffsetEnd
p689
V170
p690
sVCharacterOffsetBegin
p691
V168
p692
sVPartOfSpeech
p693
VPOS
p694
sVLemma
p695
V's
p696
saa(lp697
Vscores
p698
a(dp699
VNamedEntityTag
p700
g90
sVCharacterOffsetEnd
p701
V177
p702
sVCharacterOffsetBegin
p703
V171
p704
sVPartOfSpeech
p705
VNNS
p706
sVLemma
p707
Vscore
p708
saa(lp709
Vthis
p710
a(dp711
VNamedEntityTag
p712
g90
sVCharacterOffsetEnd
p713
V182
p714
sVCharacterOffsetBegin
p715
V178
p716
sVPartOfSpeech
p717
VDT
p718
sVLemma
p719
Vthis
p720
saa(lp721
Vsemester
p722
a(dp723
VNamedEntityTag
p724
g90
sVCharacterOffsetEnd
p725
V191
p726
sVCharacterOffsetBegin
p727
V183
p728
sVPartOfSpeech
p729
VNN
p730
sVLemma
p731
Vsemester
p732
saa(lp733
V?
p734
a(dp735
VNamedEntityTag
p736
g90
sVCharacterOffsetEnd
p737
V193
p738
sVCharacterOffsetBegin
p739
V192
p740
sVPartOfSpeech
p741
g261
sVLemma
p742
g734
saasVindexeddependencies
p743
(lp744
(lp745
Vroot
p746
aVROOT-0
p747
aVWhat-1
p748
aa(lp749
Vcop
p750
aVWhat-1
p751
aVis-2
p752
aa(lp753
Vdet
p754
aVaverage-4
p755
aVthe-3
p756
aa(lp757
Vnsubj
p758
aVWhat-1
p759
aVaverage-4
p760
aa(lp761
Vposs
p762
aVscores-8
p763
aVArjun-6
p764
aa(lp765
Vprep_of
p766
aVaverage-4
p767
aVscores-8
p768
aa(lp769
Vdet
p770
aVsemester-10
p771
aVthis-9
p772
aa(lp773
Vtmod
p774
aVscores-8
p775
aVsemester-10
p776
aasas.