(dp0
Vcoref
p1
(lp2
(lp3
(lp4
(lp5
Vhe
p6
aI1
aI3
aI3
aI4
aa(lp7
VFrank
p8
aI0
aI0
aI0
aI1
aaa(lp9
(lp10
Vhe
p11
aI2
aI1
aI1
aI2
aa(lp12
VFrank
p13
aI0
aI0
aI0
aI1
aaa(lp14
(lp15
Vhis
p16
aI2
aI7
aI7
aI8
aa(lp17
VFrank
p18
aI0
aI0
aI0
aI1
aaa(lp19
(lp20
Vhe
p21
aI2
aI14
aI14
aI15
aa(lp22
VFrank
p23
aI0
aI0
aI0
aI1
aaaasVsentences
p24
(lp25
(dp26
Vparsetree
p27
V(ROOT (S (NP (NNP Frank)) (VP (VBD had) (NP (CD 11) (NNS dollars))) (. .)))
p28
sVtext
p29
VFrank had 11 dollars .
p30
sVdependencies
p31
(lp32
(lp33
Vroot
p34
aVROOT
p35
aVhad
p36
aa(lp37
Vnsubj
p38
aVhad
p39
aVFrank
p40
aa(lp41
Vnum
p42
aVdollars
p43
aV11
p44
aa(lp45
Vdobj
p46
aVhad
p47
aVdollars
p48
aasVwords
p49
(lp50
(lp51
VFrank
p52
a(dp53
VNamedEntityTag
p54
VPERSON
p55
sVCharacterOffsetEnd
p56
V6
p57
sVCharacterOffsetBegin
p58
V1
p59
sVPartOfSpeech
p60
VNNP
p61
sVLemma
p62
VFrank
p63
saa(lp64
Vhad
p65
a(dp66
VNamedEntityTag
p67
VO
p68
sVCharacterOffsetEnd
p69
V10
p70
sVCharacterOffsetBegin
p71
V7
p72
sVPartOfSpeech
p73
VVBD
p74
sVLemma
p75
Vhave
p76
saa(lp77
V11
p78
a(dp79
VNormalizedNamedEntityTag
p80
V$11.0
p81
sVLemma
p82
V11
p83
sVCharacterOffsetEnd
p84
V13
p85
sVPartOfSpeech
p86
VCD
p87
sVCharacterOffsetBegin
p88
V11
p89
sVNamedEntityTag
p90
VMONEY
p91
saa(lp92
Vdollars
p93
a(dp94
VNormalizedNamedEntityTag
p95
V$11.0
p96
sVLemma
p97
Vdollar
p98
sVCharacterOffsetEnd
p99
V21
p100
sVPartOfSpeech
p101
VNNS
p102
sVCharacterOffsetBegin
p103
V14
p104
sVNamedEntityTag
p105
VMONEY
p106
saa(lp107
V.
p108
a(dp109
VNamedEntityTag
p110
g68
sVCharacterOffsetEnd
p111
V23
p112
sVCharacterOffsetBegin
p113
V22
p114
sVPartOfSpeech
p115
g108
sVLemma
p116
g108
saasVindexeddependencies
p117
(lp118
(lp119
Vroot
p120
aVROOT-0
p121
aVhad-2
p122
aa(lp123
Vnsubj
p124
aVhad-2
p125
aVFrank-1
p126
aa(lp127
Vnum
p128
aVdollars-4
p129
aV11-3
p130
aa(lp131
Vdobj
p132
aVhad-2
p133
aVdollars-4
p134
aasa(dp135
Vparsetree
p136
V(ROOT (S (PP (IN At) (NP (DT the) (NN store))) (NP (PRP he)) (VP (VBD spent) (NP ($ $) (CD 3)) (PP (IN on) (NP (DT a) (JJ new) (NN game)))) (. .)))
p137
sVtext
p138
VAt the store he spent $3 on a new game .
p139
sVdependencies
p140
(lp141
(lp142
Vroot
p143
aVROOT
p144
aVspent
p145
aa(lp146
Vdet
p147
aVstore
p148
aVthe
p149
aa(lp150
Vprep_at
p151
aVspent
p152
aVstore
p153
aa(lp154
Vnsubj
p155
aVspent
p156
aVhe
p157
aa(lp158
Vdobj
p159
aVspent
p160
aV$
p161
aa(lp162
Vnum
p163
ag161
aV3
p164
aa(lp165
Vdet
p166
aVgame
p167
aVa
p168
aa(lp169
Vamod
p170
aVgame
p171
aVnew
p172
aa(lp173
Vprep_on
p174
aVspent
p175
aVgame
p176
aasVwords
p177
(lp178
(lp179
VAt
p180
a(dp181
VNamedEntityTag
p182
g68
sVCharacterOffsetEnd
p183
V26
p184
sVCharacterOffsetBegin
p185
V24
p186
sVPartOfSpeech
p187
VIN
p188
sVLemma
p189
Vat
p190
saa(lp191
Vthe
p192
a(dp193
VNamedEntityTag
p194
g68
sVCharacterOffsetEnd
p195
V30
p196
sVCharacterOffsetBegin
p197
V27
p198
sVPartOfSpeech
p199
VDT
p200
sVLemma
p201
Vthe
p202
saa(lp203
Vstore
p204
a(dp205
VNamedEntityTag
p206
g68
sVCharacterOffsetEnd
p207
V36
p208
sVCharacterOffsetBegin
p209
V31
p210
sVPartOfSpeech
p211
VNN
p212
sVLemma
p213
Vstore
p214
saa(lp215
Vhe
p216
a(dp217
VNamedEntityTag
p218
g68
sVCharacterOffsetEnd
p219
V39
p220
sVCharacterOffsetBegin
p221
V37
p222
sVPartOfSpeech
p223
VPRP
p224
sVLemma
p225
Vhe
p226
saa(lp227
Vspent
p228
a(dp229
VNamedEntityTag
p230
g68
sVCharacterOffsetEnd
p231
V45
p232
sVCharacterOffsetBegin
p233
V40
p234
sVPartOfSpeech
p235
VVBD
p236
sVLemma
p237
Vspend
p238
saa(lp239
g161
a(dp240
VNormalizedNamedEntityTag
p241
V$3.0
p242
sVLemma
p243
g161
sVCharacterOffsetEnd
p244
V47
p245
sVPartOfSpeech
p246
g161
sVCharacterOffsetBegin
p247
V46
p248
sVNamedEntityTag
p249
VMONEY
p250
saa(lp251
g164
a(dp252
VNormalizedNamedEntityTag
p253
V$3.0
p254
sVLemma
p255
g164
sVCharacterOffsetEnd
p256
V48
p257
sVPartOfSpeech
p258
VCD
p259
sVCharacterOffsetBegin
p260
V47
p261
sVNamedEntityTag
p262
VMONEY
p263
saa(lp264
Von
p265
a(dp266
VNamedEntityTag
p267
g68
sVCharacterOffsetEnd
p268
V51
p269
sVCharacterOffsetBegin
p270
V49
p271
sVPartOfSpeech
p272
VIN
p273
sVLemma
p274
Von
p275
saa(lp276
g168
a(dp277
VNamedEntityTag
p278
g68
sVCharacterOffsetEnd
p279
V53
p280
sVCharacterOffsetBegin
p281
V52
p282
sVPartOfSpeech
p283
VDT
p284
sVLemma
p285
g168
saa(lp286
Vnew
p287
a(dp288
VNamedEntityTag
p289
g68
sVCharacterOffsetEnd
p290
V57
p291
sVCharacterOffsetBegin
p292
V54
p293
sVPartOfSpeech
p294
VJJ
p295
sVLemma
p296
Vnew
p297
saa(lp298
Vgame
p299
a(dp300
VNamedEntityTag
p301
g68
sVCharacterOffsetEnd
p302
V62
p303
sVCharacterOffsetBegin
p304
V58
p305
sVPartOfSpeech
p306
VNN
p307
sVLemma
p308
Vgame
p309
saa(lp310
g108
a(dp311
VNamedEntityTag
p312
g68
sVCharacterOffsetEnd
p313
V64
p314
sVCharacterOffsetBegin
p315
V63
p316
sVPartOfSpeech
p317
g108
sVLemma
p318
g108
saasVindexeddependencies
p319
(lp320
(lp321
Vroot
p322
aVROOT-0
p323
aVspent-5
p324
aa(lp325
Vdet
p326
aVstore-3
p327
aVthe-2
p328
aa(lp329
Vprep_at
p330
aVspent-5
p331
aVstore-3
p332
aa(lp333
Vnsubj
p334
aVspent-5
p335
aVhe-4
p336
aa(lp337
Vdobj
p338
aVspent-5
p339
aV$-6
p340
aa(lp341
Vnum
p342
aV$-6
p343
aV3-7
p344
aa(lp345
Vdet
p346
aVgame-11
p347
aVa-9
p348
aa(lp349
Vamod
p350
aVgame-11
p351
aVnew-10
p352
aa(lp353
Vprep_on
p354
aVspent-5
p355
aVgame-11
p356
aasa(dp357
Vparsetree
p358
V(ROOT (SBARQ (SBAR (IN If) (S (NP (PRP he)) (VP (VBD got) (NP (NP (DT another) (CD 14) (NNS dollars)) (PP (IN for) (NP (PRP$ his) (NN allowance))))))) (, ,) (WHNP (WHADJP (WRB how) (JJ much)) (NN money)) (SQ (VBZ does) (NP (PRP he)) (VP (VB have) (NP (RB now)))) (. ?)))
p359
sVtext
p360
VIf he got another 14 dollars for his allowance , how much money does he have now ?
p361
sVdependencies
p362
(lp363
(lp364
Vroot
p365
aVROOT
p366
aVhave
p367
aa(lp368
Vmark
p369
aVgot
p370
aVIf
p371
aa(lp372
Vnsubj
p373
aVgot
p374
aVhe
p375
aa(lp376
Vadvcl
p377
aVhave
p378
aVgot
p379
aa(lp380
Vdet
p381
aVdollars
p382
aVanother
p383
aa(lp384
Vnum
p385
aVdollars
p386
aV14
p387
aa(lp388
Vdobj
p389
aVgot
p390
aVdollars
p391
aa(lp392
Vposs
p393
aVallowance
p394
aVhis
p395
aa(lp396
Vprep_for
p397
aVdollars
p398
aVallowance
p399
aa(lp400
Vadvmod
p401
aVmuch
p402
aVhow
p403
aa(lp404
Vamod
p405
aVmoney
p406
aVmuch
p407
aa(lp408
Vdep
p409
aVhave
p410
aVmoney
p411
aa(lp412
Vaux
p413
aVhave
p414
aVdoes
p415
aa(lp416
Vnsubj
p417
aVhave
p418
aVhe
p419
aa(lp420
Vdobj
p421
aVhave
p422
aVnow
p423
aasVwords
p424
(lp425
(lp426
VIf
p427
a(dp428
VNamedEntityTag
p429
g68
sVCharacterOffsetEnd
p430
V67
p431
sVCharacterOffsetBegin
p432
V65
p433
sVPartOfSpeech
p434
VIN
p435
sVLemma
p436
Vif
p437
saa(lp438
Vhe
p439
a(dp440
VNamedEntityTag
p441
g68
sVCharacterOffsetEnd
p442
V70
p443
sVCharacterOffsetBegin
p444
V68
p445
sVPartOfSpeech
p446
VPRP
p447
sVLemma
p448
Vhe
p449
saa(lp450
Vgot
p451
a(dp452
VNamedEntityTag
p453
g68
sVCharacterOffsetEnd
p454
V74
p455
sVCharacterOffsetBegin
p456
V71
p457
sVPartOfSpeech
p458
VVBD
p459
sVLemma
p460
Vget
p461
saa(lp462
Vanother
p463
a(dp464
VNamedEntityTag
p465
g68
sVCharacterOffsetEnd
p466
V82
p467
sVCharacterOffsetBegin
p468
V75
p469
sVPartOfSpeech
p470
VDT
p471
sVLemma
p472
Vanother
p473
saa(lp474
V14
p475
a(dp476
VNormalizedNamedEntityTag
p477
V$14.0
p478
sVLemma
p479
V14
p480
sVCharacterOffsetEnd
p481
V85
p482
sVPartOfSpeech
p483
VCD
p484
sVCharacterOffsetBegin
p485
V83
p486
sVNamedEntityTag
p487
VMONEY
p488
saa(lp489
Vdollars
p490
a(dp491
VNormalizedNamedEntityTag
p492
V$14.0
p493
sVLemma
p494
Vdollar
p495
sVCharacterOffsetEnd
p496
V93
p497
sVPartOfSpeech
p498
VNNS
p499
sVCharacterOffsetBegin
p500
V86
p501
sVNamedEntityTag
p502
VMONEY
p503
saa(lp504
Vfor
p505
a(dp506
VNamedEntityTag
p507
g68
sVCharacterOffsetEnd
p508
V97
p509
sVCharacterOffsetBegin
p510
V94
p511
sVPartOfSpeech
p512
VIN
p513
sVLemma
p514
Vfor
p515
saa(lp516
Vhis
p517
a(dp518
VNamedEntityTag
p519
g68
sVCharacterOffsetEnd
p520
V101
p521
sVCharacterOffsetBegin
p522
V98
p523
sVPartOfSpeech
p524
VPRP$
p525
sVLemma
p526
Vhe
p527
saa(lp528
Vallowance
p529
a(dp530
VNamedEntityTag
p531
g68
sVCharacterOffsetEnd
p532
V111
p533
sVCharacterOffsetBegin
p534
V102
p535
sVPartOfSpeech
p536
VNN
p537
sVLemma
p538
Vallowance
p539
saa(lp540
V,
p541
a(dp542
VNamedEntityTag
p543
g68
sVCharacterOffsetEnd
p544
V113
p545
sVCharacterOffsetBegin
p546
V112
p547
sVPartOfSpeech
p548
g541
sVLemma
p549
g541
saa(lp550
Vhow
p551
a(dp552
VNamedEntityTag
p553
g68
sVCharacterOffsetEnd
p554
V117
p555
sVCharacterOffsetBegin
p556
V114
p557
sVPartOfSpeech
p558
VWRB
p559
sVLemma
p560
Vhow
p561
saa(lp562
Vmuch
p563
a(dp564
VNamedEntityTag
p565
g68
sVCharacterOffsetEnd
p566
V122
p567
sVCharacterOffsetBegin
p568
V118
p569
sVPartOfSpeech
p570
VJJ
p571
sVLemma
p572
Vmuch
p573
saa(lp574
Vmoney
p575
a(dp576
VNamedEntityTag
p577
g68
sVCharacterOffsetEnd
p578
V128
p579
sVCharacterOffsetBegin
p580
V123
p581
sVPartOfSpeech
p582
VNN
p583
sVLemma
p584
Vmoney
p585
saa(lp586
Vdoes
p587
a(dp588
VNamedEntityTag
p589
g68
sVCharacterOffsetEnd
p590
V133
p591
sVCharacterOffsetBegin
p592
V129
p593
sVPartOfSpeech
p594
VVBZ
p595
sVLemma
p596
Vdo
p597
saa(lp598
Vhe
p599
a(dp600
VNamedEntityTag
p601
g68
sVCharacterOffsetEnd
p602
V136
p603
sVCharacterOffsetBegin
p604
V134
p605
sVPartOfSpeech
p606
VPRP
p607
sVLemma
p608
Vhe
p609
saa(lp610
Vhave
p611
a(dp612
VNamedEntityTag
p613
g68
sVCharacterOffsetEnd
p614
V141
p615
sVCharacterOffsetBegin
p616
V137
p617
sVPartOfSpeech
p618
VVB
p619
sVLemma
p620
Vhave
p621
saa(lp622
Vnow
p623
a(dp624
VNormalizedNamedEntityTag
p625
VPRESENT_REF
p626
sVTimex
p627
V<TIMEX3 tid="t1" type="DATE" value="PRESENT_REF">now</TIMEX3>
p628
sVLemma
p629
Vnow
p630
sVCharacterOffsetEnd
p631
V145
p632
sVPartOfSpeech
p633
VRB
p634
sVCharacterOffsetBegin
p635
V142
p636
sVNamedEntityTag
p637
VDATE
p638
saa(lp639
V?
p640
a(dp641
VNamedEntityTag
p642
g68
sVCharacterOffsetEnd
p643
V147
p644
sVCharacterOffsetBegin
p645
V146
p646
sVPartOfSpeech
p647
g108
sVLemma
p648
g640
saasVindexeddependencies
p649
(lp650
(lp651
Vroot
p652
aVROOT-0
p653
aVhave-16
p654
aa(lp655
Vmark
p656
aVgot-3
p657
aVIf-1
p658
aa(lp659
Vnsubj
p660
aVgot-3
p661
aVhe-2
p662
aa(lp663
Vadvcl
p664
aVhave-16
p665
aVgot-3
p666
aa(lp667
Vdet
p668
aVdollars-6
p669
aVanother-4
p670
aa(lp671
Vnum
p672
aVdollars-6
p673
aV14-5
p674
aa(lp675
Vdobj
p676
aVgot-3
p677
aVdollars-6
p678
aa(lp679
Vposs
p680
aVallowance-9
p681
aVhis-8
p682
aa(lp683
Vprep_for
p684
aVdollars-6
p685
aVallowance-9
p686
aa(lp687
Vadvmod
p688
aVmuch-12
p689
aVhow-11
p690
aa(lp691
Vamod
p692
aVmoney-13
p693
aVmuch-12
p694
aa(lp695
Vdep
p696
aVhave-16
p697
aVmoney-13
p698
aa(lp699
Vaux
p700
aVhave-16
p701
aVdoes-14
p702
aa(lp703
Vnsubj
p704
aVhave-16
p705
aVhe-15
p706
aa(lp707
Vdobj
p708
aVhave-16
p709
aVnow-17
p710
aasas.