(dp0
Vcoref
p1
(lp2
(lp3
(lp4
(lp5
Vthe school
p6
aI1
aI15
aI14
aI16
aa(lp7
Va school
p8
aI0
aI2
aI1
aI3
aaaasVsentences
p9
(lp10
(dp11
Vparsetree
p12
V(ROOT (S (PP (IN In) (NP (DT a) (NN school))) (, ,) (NP (NP (CD 0.25) (NNS times)) (PP (IN of) (NP (DT the) (NNS teachers)))) (VP (VBP teach) (NP (JJ basic) (NN math))) (. .)))
p13
sVtext
p14
VIn a school , 0.25 times of the teachers teach basic math .
p15
sVdependencies
p16
(lp17
(lp18
Vroot
p19
aVROOT
p20
aVteach
p21
aa(lp22
Vdet
p23
aVschool
p24
aVa
p25
aa(lp26
Vprep_in
p27
aVteach
p28
aVschool
p29
aa(lp30
Vnum
p31
aVtimes
p32
aV0.25
p33
aa(lp34
Vnsubj
p35
aVteach
p36
aVtimes
p37
aa(lp38
Vdet
p39
aVteachers
p40
aVthe
p41
aa(lp42
Vprep_of
p43
aVtimes
p44
aVteachers
p45
aa(lp46
Vamod
p47
aVmath
p48
aVbasic
p49
aa(lp50
Vdobj
p51
aVteach
p52
aVmath
p53
aasVwords
p54
(lp55
(lp56
VIn
p57
a(dp58
VNamedEntityTag
p59
VO
p60
sVCharacterOffsetEnd
p61
V3
p62
sVCharacterOffsetBegin
p63
V1
p64
sVPartOfSpeech
p65
VIN
p66
sVLemma
p67
Vin
p68
saa(lp69
g25
a(dp70
VNamedEntityTag
p71
g60
sVCharacterOffsetEnd
p72
V5
p73
sVCharacterOffsetBegin
p74
V4
p75
sVPartOfSpeech
p76
VDT
p77
sVLemma
p78
g25
saa(lp79
Vschool
p80
a(dp81
VNamedEntityTag
p82
g60
sVCharacterOffsetEnd
p83
V12
p84
sVCharacterOffsetBegin
p85
V6
p86
sVPartOfSpeech
p87
VNN
p88
sVLemma
p89
Vschool
p90
saa(lp91
V,
p92
a(dp93
VNamedEntityTag
p94
g60
sVCharacterOffsetEnd
p95
V14
p96
sVCharacterOffsetBegin
p97
V13
p98
sVPartOfSpeech
p99
g92
sVLemma
p100
g92
saa(lp101
V0.25
p102
a(dp103
VNormalizedNamedEntityTag
p104
V0.25
p105
sVLemma
p106
V0.25
p107
sVCharacterOffsetEnd
p108
V19
p109
sVPartOfSpeech
p110
VCD
p111
sVCharacterOffsetBegin
p112
V15
p113
sVNamedEntityTag
p114
VNUMBER
p115
saa(lp116
Vtimes
p117
a(dp118
VNamedEntityTag
p119
g60
sVCharacterOffsetEnd
p120
V25
p121
sVCharacterOffsetBegin
p122
V20
p123
sVPartOfSpeech
p124
VNNS
p125
sVLemma
p126
Vtime
p127
saa(lp128
Vof
p129
a(dp130
VNamedEntityTag
p131
g60
sVCharacterOffsetEnd
p132
V28
p133
sVCharacterOffsetBegin
p134
V26
p135
sVPartOfSpeech
p136
VIN
p137
sVLemma
p138
Vof
p139
saa(lp140
Vthe
p141
a(dp142
VNamedEntityTag
p143
g60
sVCharacterOffsetEnd
p144
V32
p145
sVCharacterOffsetBegin
p146
V29
p147
sVPartOfSpeech
p148
VDT
p149
sVLemma
p150
Vthe
p151
saa(lp152
Vteachers
p153
a(dp154
VNamedEntityTag
p155
g60
sVCharacterOffsetEnd
p156
V41
p157
sVCharacterOffsetBegin
p158
V33
p159
sVPartOfSpeech
p160
VNNS
p161
sVLemma
p162
Vteacher
p163
saa(lp164
Vteach
p165
a(dp166
VNamedEntityTag
p167
g60
sVCharacterOffsetEnd
p168
V47
p169
sVCharacterOffsetBegin
p170
V42
p171
sVPartOfSpeech
p172
VVBP
p173
sVLemma
p174
Vteach
p175
saa(lp176
Vbasic
p177
a(dp178
VNamedEntityTag
p179
g60
sVCharacterOffsetEnd
p180
V53
p181
sVCharacterOffsetBegin
p182
V48
p183
sVPartOfSpeech
p184
VJJ
p185
sVLemma
p186
Vbasic
p187
saa(lp188
Vmath
p189
a(dp190
VNamedEntityTag
p191
g60
sVCharacterOffsetEnd
p192
V58
p193
sVCharacterOffsetBegin
p194
V54
p195
sVPartOfSpeech
p196
VNN
p197
sVLemma
p198
Vmath
p199
saa(lp200
V.
p201
a(dp202
VNamedEntityTag
p203
g60
sVCharacterOffsetEnd
p204
V60
p205
sVCharacterOffsetBegin
p206
V59
p207
sVPartOfSpeech
p208
g201
sVLemma
p209
g201
saasVindexeddependencies
p210
(lp211
(lp212
Vroot
p213
aVROOT-0
p214
aVteach-10
p215
aa(lp216
Vdet
p217
aVschool-3
p218
aVa-2
p219
aa(lp220
Vprep_in
p221
aVteach-10
p222
aVschool-3
p223
aa(lp224
Vnum
p225
aVtimes-6
p226
aV0.25-5
p227
aa(lp228
Vnsubj
p229
aVteach-10
p230
aVtimes-6
p231
aa(lp232
Vdet
p233
aVteachers-9
p234
aVthe-8
p235
aa(lp236
Vprep_of
p237
aVtimes-6
p238
aVteachers-9
p239
aa(lp240
Vamod
p241
aVmath-12
p242
aVbasic-11
p243
aa(lp244
Vdobj
p245
aVteach-10
p246
aVmath-12
p247
aasa(dp248
Vparsetree
p249
V(ROOT (SBARQ (SBAR (IN If) (S (NP (EX there)) (VP (VBP are) (NP (CD 50) (JJ basic) (NN math) (NNS teachers))))) (, ,) (WHNP (WHADJP (WRB how) (JJ many)) (NNS teachers)) (SQ (VBP are) (NP (EX there)) (PP (IN in) (NP (DT the) (NN school)))) (. ?)))
p250
sVtext
p251
VIf there are 50 basic math teachers , how many teachers are there in the school ?
p252
sVdependencies
p253
(lp254
(lp255
Vroot
p256
aVROOT
p257
aVare
p258
aa(lp259
Vmark
p260
aVare
p261
aVIf
p262
aa(lp263
Vexpl
p264
aVare
p265
aVthere
p266
aa(lp267
Vadvcl
p268
aVare
p269
aVare
p270
aa(lp271
Vnum
p272
aVteachers
p273
aV50
p274
aa(lp275
Vamod
p276
aVteachers
p277
aVbasic
p278
aa(lp279
Vnn
p280
aVteachers
p281
aVmath
p282
aa(lp283
Vnsubj
p284
aVare
p285
aVteachers
p286
aa(lp287
Vadvmod
p288
aVmany
p289
aVhow
p290
aa(lp291
Vamod
p292
aVteachers
p293
aVmany
p294
aa(lp295
Vdep
p296
aVare
p297
aVteachers
p298
aa(lp299
Vexpl
p300
aVare
p301
aVthere
p302
aa(lp303
Vdet
p304
aVschool
p305
aVthe
p306
aa(lp307
Vprep_in
p308
aVare
p309
aVschool
p310
aasVwords
p311
(lp312
(lp313
VIf
p314
a(dp315
VNamedEntityTag
p316
g60
sVCharacterOffsetEnd
p317
V63
p318
sVCharacterOffsetBegin
p319
V61
p320
sVPartOfSpeech
p321
VIN
p322
sVLemma
p323
Vif
p324
saa(lp325
Vthere
p326
a(dp327
VNamedEntityTag
p328
g60
sVCharacterOffsetEnd
p329
V69
p330
sVCharacterOffsetBegin
p331
V64
p332
sVPartOfSpeech
p333
VEX
p334
sVLemma
p335
Vthere
p336
saa(lp337
Vare
p338
a(dp339
VNamedEntityTag
p340
g60
sVCharacterOffsetEnd
p341
V73
p342
sVCharacterOffsetBegin
p343
V70
p344
sVPartOfSpeech
p345
VVBP
p346
sVLemma
p347
Vbe
p348
saa(lp349
V50
p350
a(dp351
VNormalizedNamedEntityTag
p352
V50.0
p353
sVLemma
p354
V50
p355
sVCharacterOffsetEnd
p356
V76
p357
sVPartOfSpeech
p358
VCD
p359
sVCharacterOffsetBegin
p360
V74
p361
sVNamedEntityTag
p362
VNUMBER
p363
saa(lp364
Vbasic
p365
a(dp366
VNamedEntityTag
p367
g60
sVCharacterOffsetEnd
p368
V82
p369
sVCharacterOffsetBegin
p370
V77
p371
sVPartOfSpeech
p372
VJJ
p373
sVLemma
p374
Vbasic
p375
saa(lp376
Vmath
p377
a(dp378
VNamedEntityTag
p379
g60
sVCharacterOffsetEnd
p380
V87
p381
sVCharacterOffsetBegin
p382
V83
p383
sVPartOfSpeech
p384
VNN
p385
sVLemma
p386
Vmath
p387
saa(lp388
Vteachers
p389
a(dp390
VNamedEntityTag
p391
g60
sVCharacterOffsetEnd
p392
V96
p393
sVCharacterOffsetBegin
p394
V88
p395
sVPartOfSpeech
p396
VNNS
p397
sVLemma
p398
Vteacher
p399
saa(lp400
g92
a(dp401
VNamedEntityTag
p402
g60
sVCharacterOffsetEnd
p403
V98
p404
sVCharacterOffsetBegin
p405
V97
p406
sVPartOfSpeech
p407
g92
sVLemma
p408
g92
saa(lp409
Vhow
p410
a(dp411
VNamedEntityTag
p412
g60
sVCharacterOffsetEnd
p413
V102
p414
sVCharacterOffsetBegin
p415
V99
p416
sVPartOfSpeech
p417
VWRB
p418
sVLemma
p419
Vhow
p420
saa(lp421
Vmany
p422
a(dp423
VNamedEntityTag
p424
g60
sVCharacterOffsetEnd
p425
V107
p426
sVCharacterOffsetBegin
p427
V103
p428
sVPartOfSpeech
p429
VJJ
p430
sVLemma
p431
Vmany
p432
saa(lp433
Vteachers
p434
a(dp435
VNamedEntityTag
p436
g60
sVCharacterOffsetEnd
p437
V116
p438
sVCharacterOffsetBegin
p439
V108
p440
sVPartOfSpeech
p441
VNNS
p442
sVLemma
p443
Vteacher
p444
saa(lp445
Vare
p446
a(dp447
VNamedEntityTag
p448
g60
sVCharacterOffsetEnd
p449
V120
p450
sVCharacterOffsetBegin
p451
V117
p452
sVPartOfSpeech
p453
VVBP
p454
sVLemma
p455
Vbe
p456
saa(lp457
Vthere
p458
a(dp459
VNamedEntityTag
p460
g60
sVCharacterOffsetEnd
p461
V126
p462
sVCharacterOffsetBegin
p463
V121
p464
sVPartOfSpeech
p465
VEX
p466
sVLemma
p467
Vthere
p468
saa(lp469
Vin
p470
a(dp471
VNamedEntityTag
p472
g60
sVCharacterOffsetEnd
p473
V129
p474
sVCharacterOffsetBegin
p475
V127
p476
sVPartOfSpeech
p477
VIN
p478
sVLemma
p479
Vin
p480
saa(lp481
Vthe
p482
a(dp483
VNamedEntityTag
p484
g60
sVCharacterOffsetEnd
p485
V133
p486
sVCharacterOffsetBegin
p487
V130
p488
sVPartOfSpeech
p489
VDT
p490
sVLemma
p491
Vthe
p492
saa(lp493
Vschool
p494
a(dp495
VNamedEntityTag
p496
g60
sVCharacterOffsetEnd
p497
V140
p498
sVCharacterOffsetBegin
p499
V134
p500
sVPartOfSpeech
p501
VNN
p502
sVLemma
p503
Vschool
p504
saa(lp505
V?
p506
a(dp507
VNamedEntityTag
p508
g60
sVCharacterOffsetEnd
p509
V142
p510
sVCharacterOffsetBegin
p511
V141
p512
sVPartOfSpeech
p513
g201
sVLemma
p514
g506
saasVindexeddependencies
p515
(lp516
(lp517
Vroot
p518
aVROOT-0
p519
aVare-12
p520
aa(lp521
Vmark
p522
aVare-3
p523
aVIf-1
p524
aa(lp525
Vexpl
p526
aVare-3
p527
aVthere-2
p528
aa(lp529
Vadvcl
p530
aVare-12
p531
aVare-3
p532
aa(lp533
Vnum
p534
aVteachers-7
p535
aV50-4
p536
aa(lp537
Vamod
p538
aVteachers-7
p539
aVbasic-5
p540
aa(lp541
Vnn
p542
aVteachers-7
p543
aVmath-6
p544
aa(lp545
Vnsubj
p546
aVare-3
p547
aVteachers-7
p548
aa(lp549
Vadvmod
p550
aVmany-10
p551
aVhow-9
p552
aa(lp553
Vamod
p554
aVteachers-11
p555
aVmany-10
p556
aa(lp557
Vdep
p558
aVare-12
p559
aVteachers-11
p560
aa(lp561
Vexpl
p562
aVare-12
p563
aVthere-13
p564
aa(lp565
Vdet
p566
aVschool-16
p567
aVthe-15
p568
aa(lp569
Vprep_in
p570
aVare-12
p571
aVschool-16
p572
aasas.