(dp0
Vcoref
p1
(lp2
(lp3
(lp4
(lp5
Vthey
p6
aI1
aI5
aI5
aI6
aa(lp7
Vscientists
p8
aI0
aI3
aI3
aI4
aaaa(lp9
(lp10
(lp11
Vthe trees
p12
aI2
aI4
aI3
aI5
aa(lp13
Vthe 100 trees
p14
aI1
aI4
aI2
aI5
aaaasVsentences
p15
(lp16
(dp17
Vparsetree
p18
V(ROOT (S (NP (NP (DT A) (NN team)) (PP (IN of) (NP (NNS scientists)))) (VP (VBN surveyed) (NP (NP (DT the) (NNS trees)) (PP (IN in) (NP (DT a) (JJ national) (NN forest))))) (. .)))
p19
sVtext
p20
VA team of scientists surveyed the trees in a national forest .
p21
sVdependencies
p22
(lp23
(lp24
Vroot
p25
aVROOT
p26
aVsurveyed
p27
aa(lp28
Vdet
p29
aVteam
p30
aVA
p31
aa(lp32
Vnsubj
p33
aVsurveyed
p34
aVteam
p35
aa(lp36
Vprep_of
p37
aVteam
p38
aVscientists
p39
aa(lp40
Vdet
p41
aVtrees
p42
aVthe
p43
aa(lp44
Vdobj
p45
aVsurveyed
p46
aVtrees
p47
aa(lp48
Vdet
p49
aVforest
p50
aVa
p51
aa(lp52
Vamod
p53
aVforest
p54
aVnational
p55
aa(lp56
Vprep_in
p57
aVtrees
p58
aVforest
p59
aasVwords
p60
(lp61
(lp62
g31
a(dp63
VNamedEntityTag
p64
VO
p65
sVCharacterOffsetEnd
p66
V2
p67
sVCharacterOffsetBegin
p68
V1
p69
sVPartOfSpeech
p70
VDT
p71
sVLemma
p72
g51
saa(lp73
Vteam
p74
a(dp75
VNamedEntityTag
p76
g65
sVCharacterOffsetEnd
p77
V7
p78
sVCharacterOffsetBegin
p79
V3
p80
sVPartOfSpeech
p81
VNN
p82
sVLemma
p83
Vteam
p84
saa(lp85
Vof
p86
a(dp87
VNamedEntityTag
p88
g65
sVCharacterOffsetEnd
p89
V10
p90
sVCharacterOffsetBegin
p91
V8
p92
sVPartOfSpeech
p93
VIN
p94
sVLemma
p95
Vof
p96
saa(lp97
Vscientists
p98
a(dp99
VNamedEntityTag
p100
g65
sVCharacterOffsetEnd
p101
V21
p102
sVCharacterOffsetBegin
p103
V11
p104
sVPartOfSpeech
p105
VNNS
p106
sVLemma
p107
Vscientist
p108
saa(lp109
Vsurveyed
p110
a(dp111
VNamedEntityTag
p112
g65
sVCharacterOffsetEnd
p113
V30
p114
sVCharacterOffsetBegin
p115
V22
p116
sVPartOfSpeech
p117
VVBN
p118
sVLemma
p119
Vsurvey
p120
saa(lp121
Vthe
p122
a(dp123
VNamedEntityTag
p124
g65
sVCharacterOffsetEnd
p125
V34
p126
sVCharacterOffsetBegin
p127
V31
p128
sVPartOfSpeech
p129
VDT
p130
sVLemma
p131
Vthe
p132
saa(lp133
Vtrees
p134
a(dp135
VNamedEntityTag
p136
g65
sVCharacterOffsetEnd
p137
V40
p138
sVCharacterOffsetBegin
p139
V35
p140
sVPartOfSpeech
p141
VNNS
p142
sVLemma
p143
Vtree
p144
saa(lp145
Vin
p146
a(dp147
VNamedEntityTag
p148
g65
sVCharacterOffsetEnd
p149
V43
p150
sVCharacterOffsetBegin
p151
V41
p152
sVPartOfSpeech
p153
VIN
p154
sVLemma
p155
Vin
p156
saa(lp157
g51
a(dp158
VNamedEntityTag
p159
g65
sVCharacterOffsetEnd
p160
V45
p161
sVCharacterOffsetBegin
p162
V44
p163
sVPartOfSpeech
p164
VDT
p165
sVLemma
p166
g51
saa(lp167
Vnational
p168
a(dp169
VNamedEntityTag
p170
g65
sVCharacterOffsetEnd
p171
V54
p172
sVCharacterOffsetBegin
p173
V46
p174
sVPartOfSpeech
p175
VJJ
p176
sVLemma
p177
Vnational
p178
saa(lp179
Vforest
p180
a(dp181
VNamedEntityTag
p182
g65
sVCharacterOffsetEnd
p183
V61
p184
sVCharacterOffsetBegin
p185
V55
p186
sVPartOfSpeech
p187
VNN
p188
sVLemma
p189
Vforest
p190
saa(lp191
V.
p192
a(dp193
VNamedEntityTag
p194
g65
sVCharacterOffsetEnd
p195
V63
p196
sVCharacterOffsetBegin
p197
V62
p198
sVPartOfSpeech
p199
g192
sVLemma
p200
g192
saasVindexeddependencies
p201
(lp202
(lp203
Vroot
p204
aVROOT-0
p205
aVsurveyed-5
p206
aa(lp207
Vdet
p208
aVteam-2
p209
aVA-1
p210
aa(lp211
Vnsubj
p212
aVsurveyed-5
p213
aVteam-2
p214
aa(lp215
Vprep_of
p216
aVteam-2
p217
aVscientists-4
p218
aa(lp219
Vdet
p220
aVtrees-7
p221
aVthe-6
p222
aa(lp223
Vdobj
p224
aVsurveyed-5
p225
aVtrees-7
p226
aa(lp227
Vdet
p228
aVforest-11
p229
aVa-9
p230
aa(lp231
Vamod
p232
aVforest-11
p233
aVnational-10
p234
aa(lp235
Vprep_in
p236
aVtrees-7
p237
aVforest-11
p238
aasa(dp239
Vparsetree
p240
V(ROOT (S (S (PP (IN Out) (PP (IN of) (NP (DT the) (CD 100) (NNS trees)))) (NP (PRP they)) (VP (VBD counted))) (, ,) (NP (CD 70)) (VP (VBD were) (NP (NN evergreen))) (. .)))
p241
sVtext
p242
VOut of the 100 trees they counted , 70 were evergreen .
p243
sVdependencies
p244
(lp245
(lp246
Vroot
p247
aVROOT
p248
aVevergreen
p249
aa(lp250
Vprepc_out_of
p251
aVcounted
p252
aVof
p253
aa(lp254
Vdet
p255
aVtrees
p256
aVthe
p257
aa(lp258
Vnum
p259
aVtrees
p260
aV100
p261
aa(lp262
Vpobj
p263
aVcounted
p264
aVtrees
p265
aa(lp266
Vnsubj
p267
aVcounted
p268
aVthey
p269
aa(lp270
Vccomp
p271
aVevergreen
p272
aVcounted
p273
aa(lp274
Vnsubj
p275
aVevergreen
p276
aV70
p277
aa(lp278
Vcop
p279
aVevergreen
p280
aVwere
p281
aasVwords
p282
(lp283
(lp284
VOut
p285
a(dp286
VNamedEntityTag
p287
g65
sVCharacterOffsetEnd
p288
V67
p289
sVCharacterOffsetBegin
p290
V64
p291
sVPartOfSpeech
p292
VIN
p293
sVLemma
p294
Vout
p295
saa(lp296
Vof
p297
a(dp298
VNamedEntityTag
p299
g65
sVCharacterOffsetEnd
p300
V70
p301
sVCharacterOffsetBegin
p302
V68
p303
sVPartOfSpeech
p304
VIN
p305
sVLemma
p306
Vof
p307
saa(lp308
Vthe
p309
a(dp310
VNamedEntityTag
p311
g65
sVCharacterOffsetEnd
p312
V74
p313
sVCharacterOffsetBegin
p314
V71
p315
sVPartOfSpeech
p316
VDT
p317
sVLemma
p318
Vthe
p319
saa(lp320
V100
p321
a(dp322
VNormalizedNamedEntityTag
p323
V100.0
p324
sVLemma
p325
V100
p326
sVCharacterOffsetEnd
p327
V78
p328
sVPartOfSpeech
p329
VCD
p330
sVCharacterOffsetBegin
p331
V75
p332
sVNamedEntityTag
p333
VNUMBER
p334
saa(lp335
Vtrees
p336
a(dp337
VNamedEntityTag
p338
g65
sVCharacterOffsetEnd
p339
V84
p340
sVCharacterOffsetBegin
p341
V79
p342
sVPartOfSpeech
p343
VNNS
p344
sVLemma
p345
Vtree
p346
saa(lp347
Vthey
p348
a(dp349
VNamedEntityTag
p350
g65
sVCharacterOffsetEnd
p351
V89
p352
sVCharacterOffsetBegin
p353
V85
p354
sVPartOfSpeech
p355
VPRP
p356
sVLemma
p357
Vthey
p358
saa(lp359
Vcounted
p360
a(dp361
VNamedEntityTag
p362
g65
sVCharacterOffsetEnd
p363
V97
p364
sVCharacterOffsetBegin
p365
V90
p366
sVPartOfSpeech
p367
VVBD
p368
sVLemma
p369
Vcount
p370
saa(lp371
V,
p372
a(dp373
VNamedEntityTag
p374
g65
sVCharacterOffsetEnd
p375
V99
p376
sVCharacterOffsetBegin
p377
V98
p378
sVPartOfSpeech
p379
g372
sVLemma
p380
g372
saa(lp381
V70
p382
a(dp383
VNormalizedNamedEntityTag
p384
V70.0
p385
sVLemma
p386
V70
p387
sVCharacterOffsetEnd
p388
V102
p389
sVPartOfSpeech
p390
VCD
p391
sVCharacterOffsetBegin
p392
V100
p393
sVNamedEntityTag
p394
VNUMBER
p395
saa(lp396
Vwere
p397
a(dp398
VNamedEntityTag
p399
g65
sVCharacterOffsetEnd
p400
V107
p401
sVCharacterOffsetBegin
p402
V103
p403
sVPartOfSpeech
p404
VVBD
p405
sVLemma
p406
Vbe
p407
saa(lp408
Vevergreen
p409
a(dp410
VNamedEntityTag
p411
g65
sVCharacterOffsetEnd
p412
V117
p413
sVCharacterOffsetBegin
p414
V108
p415
sVPartOfSpeech
p416
VNN
p417
sVLemma
p418
Vevergreen
p419
saa(lp420
g192
a(dp421
VNamedEntityTag
p422
g65
sVCharacterOffsetEnd
p423
V119
p424
sVCharacterOffsetBegin
p425
V118
p426
sVPartOfSpeech
p427
g192
sVLemma
p428
g192
saasVindexeddependencies
p429
(lp430
(lp431
Vroot
p432
aVROOT-0
p433
aVevergreen-11
p434
aa(lp435
Vprepc_out_of
p436
aVcounted-7
p437
aVof-2
p438
aa(lp439
Vdet
p440
aVtrees-5
p441
aVthe-3
p442
aa(lp443
Vnum
p444
aVtrees-5
p445
aV100-4
p446
aa(lp447
Vpobj
p448
aVcounted-7
p449
aVtrees-5
p450
aa(lp451
Vnsubj
p452
aVcounted-7
p453
aVthey-6
p454
aa(lp455
Vccomp
p456
aVevergreen-11
p457
aVcounted-7
p458
aa(lp459
Vnsubj
p460
aVevergreen-11
p461
aV70-9
p462
aa(lp463
Vcop
p464
aVevergreen-11
p465
aVwere-10
p466
aasa(dp467
Vparsetree
p468
V(ROOT (SBARQ (WHNP (WHNP (WDT What) (NN percentage)) (PP (IN of) (NP (DT the) (NNS trees)))) (SQ (VBD were) (NP (NN evergreen))) (. ?)))
p469
sVtext
p470
VWhat percentage of the trees were evergreen ?
p471
sVdependencies
p472
(lp473
(lp474
Vroot
p475
aVROOT
p476
aVwere
p477
aa(lp478
Vdet
p479
aVpercentage
p480
aVWhat
p481
aa(lp482
Vdep
p483
aVwere
p484
aVpercentage
p485
aa(lp486
Vdet
p487
aVtrees
p488
aVthe
p489
aa(lp490
Vprep_of
p491
aVpercentage
p492
aVtrees
p493
aa(lp494
Vnsubj
p495
aVwere
p496
aVevergreen
p497
aasVwords
p498
(lp499
(lp500
VWhat
p501
a(dp502
VNamedEntityTag
p503
g65
sVCharacterOffsetEnd
p504
V124
p505
sVCharacterOffsetBegin
p506
V120
p507
sVPartOfSpeech
p508
VWDT
p509
sVLemma
p510
Vwhat
p511
saa(lp512
Vpercentage
p513
a(dp514
VNamedEntityTag
p515
g65
sVCharacterOffsetEnd
p516
V135
p517
sVCharacterOffsetBegin
p518
V125
p519
sVPartOfSpeech
p520
VNN
p521
sVLemma
p522
Vpercentage
p523
saa(lp524
Vof
p525
a(dp526
VNamedEntityTag
p527
g65
sVCharacterOffsetEnd
p528
V138
p529
sVCharacterOffsetBegin
p530
V136
p531
sVPartOfSpeech
p532
VIN
p533
sVLemma
p534
Vof
p535
saa(lp536
Vthe
p537
a(dp538
VNamedEntityTag
p539
g65
sVCharacterOffsetEnd
p540
V142
p541
sVCharacterOffsetBegin
p542
V139
p543
sVPartOfSpeech
p544
VDT
p545
sVLemma
p546
Vthe
p547
saa(lp548
Vtrees
p549
a(dp550
VNamedEntityTag
p551
g65
sVCharacterOffsetEnd
p552
V148
p553
sVCharacterOffsetBegin
p554
V143
p555
sVPartOfSpeech
p556
VNNS
p557
sVLemma
p558
Vtree
p559
saa(lp560
Vwere
p561
a(dp562
VNamedEntityTag
p563
g65
sVCharacterOffsetEnd
p564
V153
p565
sVCharacterOffsetBegin
p566
V149
p567
sVPartOfSpeech
p568
VVBD
p569
sVLemma
p570
Vbe
p571
saa(lp572
Vevergreen
p573
a(dp574
VNamedEntityTag
p575
g65
sVCharacterOffsetEnd
p576
V163
p577
sVCharacterOffsetBegin
p578
V154
p579
sVPartOfSpeech
p580
VNN
p581
sVLemma
p582
Vevergreen
p583
saa(lp584
V?
p585
a(dp586
VNamedEntityTag
p587
g65
sVCharacterOffsetEnd
p588
V165
p589
sVCharacterOffsetBegin
p590
V164
p591
sVPartOfSpeech
p592
g192
sVLemma
p593
g585
saasVindexeddependencies
p594
(lp595
(lp596
Vroot
p597
aVROOT-0
p598
aVwere-6
p599
aa(lp600
Vdet
p601
aVpercentage-2
p602
aVWhat-1
p603
aa(lp604
Vdep
p605
aVwere-6
p606
aVpercentage-2
p607
aa(lp608
Vdet
p609
aVtrees-5
p610
aVthe-4
p611
aa(lp612
Vprep_of
p613
aVpercentage-2
p614
aVtrees-5
p615
aa(lp616
Vnsubj
p617
aVwere-6
p618
aVevergreen-7
p619
aasas.