(dp0
Vcoref
p1
(lp2
(lp3
(lp4
(lp5
VSandy
p6
aI1
aI0
aI0
aI1
aa(lp7
VSandy
p8
aI0
aI3
aI3
aI4
aaaa(lp9
(lp10
(lp11
Vthe bar
p12
aI1
aI5
aI4
aI6
aa(lp13
Va large metal bar that contained 9 ounces of zinc
p14
aI0
aI8
aI5
aI15
aaaa(lp15
(lp16
(lp17
Vounces
p18
aI2
aI10
aI10
aI11
aa(lp19
V9 ounces of zinc
p20
aI0
aI12
aI11
aI15
aaaasVsentences
p21
(lp22
(dp23
Vparsetree
p24
V(ROOT (S (SBAR (IN While) (FRAG (NP (NN mining)))) (, ,) (NP (NNP Sandy)) (VP (VBD found) (NP (NP (DT a) (JJ large) (NN metal) (NN bar)) (SBAR (WHNP (WDT that)) (S (VP (VBD contained) (NP (NP (CD 9) (NNS ounces)) (PP (IN of) (NP (NN zinc))))))))) (. .)))
p25
sVtext
p26
VWhile mining , Sandy found a large metal bar that contained 9 ounces of zinc .
p27
sVdependencies
p28
(lp29
(lp30
Vroot
p31
aVROOT
p32
aVfound
p33
aa(lp34
Vmark
p35
aVmining
p36
aVWhile
p37
aa(lp38
Vadvcl
p39
aVfound
p40
aVmining
p41
aa(lp42
Vnsubj
p43
aVfound
p44
aVSandy
p45
aa(lp46
Vdet
p47
aVbar
p48
aVa
p49
aa(lp50
Vamod
p51
aVbar
p52
aVlarge
p53
aa(lp54
Vnn
p55
aVbar
p56
aVmetal
p57
aa(lp58
Vdobj
p59
aVfound
p60
aVbar
p61
aa(lp62
Vnsubj
p63
aVcontained
p64
aVthat
p65
aa(lp66
Vrcmod
p67
aVbar
p68
aVcontained
p69
aa(lp70
Vnum
p71
aVounces
p72
aV9
p73
aa(lp74
Vdobj
p75
aVcontained
p76
aVounces
p77
aa(lp78
Vprep_of
p79
aVounces
p80
aVzinc
p81
aasVwords
p82
(lp83
(lp84
VWhile
p85
a(dp86
VNamedEntityTag
p87
VO
p88
sVCharacterOffsetEnd
p89
V6
p90
sVCharacterOffsetBegin
p91
V1
p92
sVPartOfSpeech
p93
VIN
p94
sVLemma
p95
Vwhile
p96
saa(lp97
Vmining
p98
a(dp99
VNamedEntityTag
p100
g88
sVCharacterOffsetEnd
p101
V13
p102
sVCharacterOffsetBegin
p103
V7
p104
sVPartOfSpeech
p105
VNN
p106
sVLemma
p107
Vmining
p108
saa(lp109
V,
p110
a(dp111
VNamedEntityTag
p112
g88
sVCharacterOffsetEnd
p113
V15
p114
sVCharacterOffsetBegin
p115
V14
p116
sVPartOfSpeech
p117
g110
sVLemma
p118
g110
saa(lp119
VSandy
p120
a(dp121
VNamedEntityTag
p122
VPERSON
p123
sVCharacterOffsetEnd
p124
V21
p125
sVCharacterOffsetBegin
p126
V16
p127
sVPartOfSpeech
p128
VNNP
p129
sVLemma
p130
VSandy
p131
saa(lp132
Vfound
p133
a(dp134
VNamedEntityTag
p135
g88
sVCharacterOffsetEnd
p136
V27
p137
sVCharacterOffsetBegin
p138
V22
p139
sVPartOfSpeech
p140
VVBD
p141
sVLemma
p142
Vfind
p143
saa(lp144
g49
a(dp145
VNamedEntityTag
p146
g88
sVCharacterOffsetEnd
p147
V29
p148
sVCharacterOffsetBegin
p149
V28
p150
sVPartOfSpeech
p151
VDT
p152
sVLemma
p153
g49
saa(lp154
Vlarge
p155
a(dp156
VNamedEntityTag
p157
g88
sVCharacterOffsetEnd
p158
V35
p159
sVCharacterOffsetBegin
p160
V30
p161
sVPartOfSpeech
p162
VJJ
p163
sVLemma
p164
Vlarge
p165
saa(lp166
Vmetal
p167
a(dp168
VNamedEntityTag
p169
g88
sVCharacterOffsetEnd
p170
V41
p171
sVCharacterOffsetBegin
p172
V36
p173
sVPartOfSpeech
p174
VNN
p175
sVLemma
p176
Vmetal
p177
saa(lp178
Vbar
p179
a(dp180
VNamedEntityTag
p181
g88
sVCharacterOffsetEnd
p182
V45
p183
sVCharacterOffsetBegin
p184
V42
p185
sVPartOfSpeech
p186
VNN
p187
sVLemma
p188
Vbar
p189
saa(lp190
Vthat
p191
a(dp192
VNamedEntityTag
p193
g88
sVCharacterOffsetEnd
p194
V50
p195
sVCharacterOffsetBegin
p196
V46
p197
sVPartOfSpeech
p198
VWDT
p199
sVLemma
p200
Vthat
p201
saa(lp202
Vcontained
p203
a(dp204
VNamedEntityTag
p205
g88
sVCharacterOffsetEnd
p206
V60
p207
sVCharacterOffsetBegin
p208
V51
p209
sVPartOfSpeech
p210
VVBD
p211
sVLemma
p212
Vcontain
p213
saa(lp214
g73
a(dp215
VNormalizedNamedEntityTag
p216
V9.0
p217
sVLemma
p218
g73
sVCharacterOffsetEnd
p219
V62
p220
sVPartOfSpeech
p221
VCD
p222
sVCharacterOffsetBegin
p223
V61
p224
sVNamedEntityTag
p225
VNUMBER
p226
saa(lp227
Vounces
p228
a(dp229
VNamedEntityTag
p230
g88
sVCharacterOffsetEnd
p231
V69
p232
sVCharacterOffsetBegin
p233
V63
p234
sVPartOfSpeech
p235
VNNS
p236
sVLemma
p237
Vounce
p238
saa(lp239
Vof
p240
a(dp241
VNamedEntityTag
p242
g88
sVCharacterOffsetEnd
p243
V72
p244
sVCharacterOffsetBegin
p245
V70
p246
sVPartOfSpeech
p247
VIN
p248
sVLemma
p249
Vof
p250
saa(lp251
Vzinc
p252
a(dp253
VNamedEntityTag
p254
g88
sVCharacterOffsetEnd
p255
V77
p256
sVCharacterOffsetBegin
p257
V73
p258
sVPartOfSpeech
p259
VNN
p260
sVLemma
p261
Vzinc
p262
saa(lp263
V.
p264
a(dp265
VNamedEntityTag
p266
g88
sVCharacterOffsetEnd
p267
V79
p268
sVCharacterOffsetBegin
p269
V78
p270
sVPartOfSpeech
p271
g264
sVLemma
p272
g264
saasVindexeddependencies
p273
(lp274
(lp275
Vroot
p276
aVROOT-0
p277
aVfound-5
p278
aa(lp279
Vmark
p280
aVmining-2
p281
aVWhile-1
p282
aa(lp283
Vadvcl
p284
aVfound-5
p285
aVmining-2
p286
aa(lp287
Vnsubj
p288
aVfound-5
p289
aVSandy-4
p290
aa(lp291
Vdet
p292
aVbar-9
p293
aVa-6
p294
aa(lp295
Vamod
p296
aVbar-9
p297
aVlarge-7
p298
aa(lp299
Vnn
p300
aVbar-9
p301
aVmetal-8
p302
aa(lp303
Vdobj
p304
aVfound-5
p305
aVbar-9
p306
aa(lp307
Vnsubj
p308
aVcontained-11
p309
aVthat-10
p310
aa(lp311
Vrcmod
p312
aVbar-9
p313
aVcontained-11
p314
aa(lp315
Vnum
p316
aVounces-13
p317
aV9-12
p318
aa(lp319
Vdobj
p320
aVcontained-11
p321
aVounces-13
p322
aa(lp323
Vprep_of
p324
aVounces-13
p325
aVzinc-15
p326
aasa(dp327
Vparsetree
p328
V(ROOT (S (NP (NNP Sandy)) (ADVP (RB also)) (VP (VBD determined) (SBAR (IN that) (S (NP (DT the) (NN bar)) (VP (VBD was) (ADJP (NP (CD 0.6) (NNS times)) (NN zinc)))))) (. .)))
p329
sVtext
p330
VSandy also determined that the bar was 0.6 times zinc .
p331
sVdependencies
p332
(lp333
(lp334
Vroot
p335
aVROOT
p336
aVdetermined
p337
aa(lp338
Vnsubj
p339
aVdetermined
p340
aVSandy
p341
aa(lp342
Vadvmod
p343
aVdetermined
p344
aValso
p345
aa(lp346
Vmark
p347
aVzinc
p348
aVthat
p349
aa(lp350
Vdet
p351
aVbar
p352
aVthe
p353
aa(lp354
Vnsubj
p355
aVzinc
p356
aVbar
p357
aa(lp358
Vcop
p359
aVzinc
p360
aVwas
p361
aa(lp362
Vnum
p363
aVtimes
p364
aV0.6
p365
aa(lp366
Vdep
p367
aVzinc
p368
aVtimes
p369
aa(lp370
Vccomp
p371
aVdetermined
p372
aVzinc
p373
aasVwords
p374
(lp375
(lp376
VSandy
p377
a(dp378
VNamedEntityTag
p379
VPERSON
p380
sVCharacterOffsetEnd
p381
V85
p382
sVCharacterOffsetBegin
p383
V80
p384
sVPartOfSpeech
p385
VNNP
p386
sVLemma
p387
VSandy
p388
saa(lp389
Valso
p390
a(dp391
VNamedEntityTag
p392
g88
sVCharacterOffsetEnd
p393
V90
p394
sVCharacterOffsetBegin
p395
V86
p396
sVPartOfSpeech
p397
VRB
p398
sVLemma
p399
Valso
p400
saa(lp401
Vdetermined
p402
a(dp403
VNamedEntityTag
p404
g88
sVCharacterOffsetEnd
p405
V101
p406
sVCharacterOffsetBegin
p407
V91
p408
sVPartOfSpeech
p409
VVBD
p410
sVLemma
p411
Vdetermine
p412
saa(lp413
Vthat
p414
a(dp415
VNamedEntityTag
p416
g88
sVCharacterOffsetEnd
p417
V106
p418
sVCharacterOffsetBegin
p419
V102
p420
sVPartOfSpeech
p421
VIN
p422
sVLemma
p423
Vthat
p424
saa(lp425
Vthe
p426
a(dp427
VNamedEntityTag
p428
g88
sVCharacterOffsetEnd
p429
V110
p430
sVCharacterOffsetBegin
p431
V107
p432
sVPartOfSpeech
p433
VDT
p434
sVLemma
p435
Vthe
p436
saa(lp437
Vbar
p438
a(dp439
VNamedEntityTag
p440
g88
sVCharacterOffsetEnd
p441
V114
p442
sVCharacterOffsetBegin
p443
V111
p444
sVPartOfSpeech
p445
VNN
p446
sVLemma
p447
Vbar
p448
saa(lp449
Vwas
p450
a(dp451
VNamedEntityTag
p452
g88
sVCharacterOffsetEnd
p453
V118
p454
sVCharacterOffsetBegin
p455
V115
p456
sVPartOfSpeech
p457
VVBD
p458
sVLemma
p459
Vbe
p460
saa(lp461
V0.6
p462
a(dp463
VNormalizedNamedEntityTag
p464
V0.6
p465
sVLemma
p466
V0.6
p467
sVCharacterOffsetEnd
p468
V122
p469
sVPartOfSpeech
p470
VCD
p471
sVCharacterOffsetBegin
p472
V119
p473
sVNamedEntityTag
p474
VNUMBER
p475
saa(lp476
Vtimes
p477
a(dp478
VNamedEntityTag
p479
g88
sVCharacterOffsetEnd
p480
V128
p481
sVCharacterOffsetBegin
p482
V123
p483
sVPartOfSpeech
p484
VNNS
p485
sVLemma
p486
Vtime
p487
saa(lp488
Vzinc
p489
a(dp490
VNamedEntityTag
p491
g88
sVCharacterOffsetEnd
p492
V133
p493
sVCharacterOffsetBegin
p494
V129
p495
sVPartOfSpeech
p496
VNN
p497
sVLemma
p498
Vzinc
p499
saa(lp500
g264
a(dp501
VNamedEntityTag
p502
g88
sVCharacterOffsetEnd
p503
V135
p504
sVCharacterOffsetBegin
p505
V134
p506
sVPartOfSpeech
p507
g264
sVLemma
p508
g264
saasVindexeddependencies
p509
(lp510
(lp511
Vroot
p512
aVROOT-0
p513
aVdetermined-3
p514
aa(lp515
Vnsubj
p516
aVdetermined-3
p517
aVSandy-1
p518
aa(lp519
Vadvmod
p520
aVdetermined-3
p521
aValso-2
p522
aa(lp523
Vmark
p524
aVzinc-10
p525
aVthat-4
p526
aa(lp527
Vdet
p528
aVbar-6
p529
aVthe-5
p530
aa(lp531
Vnsubj
p532
aVzinc-10
p533
aVbar-6
p534
aa(lp535
Vcop
p536
aVzinc-10
p537
aVwas-7
p538
aa(lp539
Vnum
p540
aVtimes-9
p541
aV0.6-8
p542
aa(lp543
Vdep
p544
aVzinc-10
p545
aVtimes-9
p546
aa(lp547
Vccomp
p548
aVdetermined-3
p549
aVzinc-10
p550
aasa(dp551
Vparsetree
p552
V(ROOT (SBARQ (WHNP (WP What)) (SQ (VBD was) (NP (NP (DT the) (JJ total) (NN weight)) (PP (IN of) (NP (NP (DT the) (NN metal) (NN bar)) (PP (IN in) (NP (NNS ounces))))))) (. ?)))
p553
sVtext
p554
VWhat was the total weight of the metal bar in ounces ?
p555
sVdependencies
p556
(lp557
(lp558
Vroot
p559
aVROOT
p560
aVWhat
p561
aa(lp562
Vcop
p563
aVWhat
p564
aVwas
p565
aa(lp566
Vdet
p567
aVweight
p568
aVthe
p569
aa(lp570
Vamod
p571
aVweight
p572
aVtotal
p573
aa(lp574
Vnsubj
p575
aVWhat
p576
aVweight
p577
aa(lp578
Vdet
p579
aVbar
p580
aVthe
p581
aa(lp582
Vnn
p583
aVbar
p584
aVmetal
p585
aa(lp586
Vprep_of
p587
aVweight
p588
aVbar
p589
aa(lp590
Vprep_in
p591
aVbar
p592
aVounces
p593
aasVwords
p594
(lp595
(lp596
VWhat
p597
a(dp598
VNamedEntityTag
p599
g88
sVCharacterOffsetEnd
p600
V140
p601
sVCharacterOffsetBegin
p602
V136
p603
sVPartOfSpeech
p604
VWP
p605
sVLemma
p606
Vwhat
p607
saa(lp608
Vwas
p609
a(dp610
VNamedEntityTag
p611
g88
sVCharacterOffsetEnd
p612
V144
p613
sVCharacterOffsetBegin
p614
V141
p615
sVPartOfSpeech
p616
VVBD
p617
sVLemma
p618
Vbe
p619
saa(lp620
Vthe
p621
a(dp622
VNamedEntityTag
p623
g88
sVCharacterOffsetEnd
p624
V148
p625
sVCharacterOffsetBegin
p626
V145
p627
sVPartOfSpeech
p628
VDT
p629
sVLemma
p630
Vthe
p631
saa(lp632
Vtotal
p633
a(dp634
VNamedEntityTag
p635
g88
sVCharacterOffsetEnd
p636
V154
p637
sVCharacterOffsetBegin
p638
V149
p639
sVPartOfSpeech
p640
VJJ
p641
sVLemma
p642
Vtotal
p643
saa(lp644
Vweight
p645
a(dp646
VNamedEntityTag
p647
g88
sVCharacterOffsetEnd
p648
V161
p649
sVCharacterOffsetBegin
p650
V155
p651
sVPartOfSpeech
p652
VNN
p653
sVLemma
p654
Vweight
p655
saa(lp656
Vof
p657
a(dp658
VNamedEntityTag
p659
g88
sVCharacterOffsetEnd
p660
V164
p661
sVCharacterOffsetBegin
p662
V162
p663
sVPartOfSpeech
p664
VIN
p665
sVLemma
p666
Vof
p667
saa(lp668
Vthe
p669
a(dp670
VNamedEntityTag
p671
g88
sVCharacterOffsetEnd
p672
V168
p673
sVCharacterOffsetBegin
p674
V165
p675
sVPartOfSpeech
p676
VDT
p677
sVLemma
p678
Vthe
p679
saa(lp680
Vmetal
p681
a(dp682
VNamedEntityTag
p683
g88
sVCharacterOffsetEnd
p684
V174
p685
sVCharacterOffsetBegin
p686
V169
p687
sVPartOfSpeech
p688
VNN
p689
sVLemma
p690
Vmetal
p691
saa(lp692
Vbar
p693
a(dp694
VNamedEntityTag
p695
g88
sVCharacterOffsetEnd
p696
V178
p697
sVCharacterOffsetBegin
p698
V175
p699
sVPartOfSpeech
p700
VNN
p701
sVLemma
p702
Vbar
p703
saa(lp704
Vin
p705
a(dp706
VNamedEntityTag
p707
g88
sVCharacterOffsetEnd
p708
V181
p709
sVCharacterOffsetBegin
p710
V179
p711
sVPartOfSpeech
p712
VIN
p713
sVLemma
p714
Vin
p715
saa(lp716
Vounces
p717
a(dp718
VNamedEntityTag
p719
g88
sVCharacterOffsetEnd
p720
V188
p721
sVCharacterOffsetBegin
p722
V182
p723
sVPartOfSpeech
p724
VNNS
p725
sVLemma
p726
Vounce
p727
saa(lp728
V?
p729
a(dp730
VNamedEntityTag
p731
g88
sVCharacterOffsetEnd
p732
V190
p733
sVCharacterOffsetBegin
p734
V189
p735
sVPartOfSpeech
p736
g264
sVLemma
p737
g729
saasVindexeddependencies
p738
(lp739
(lp740
Vroot
p741
aVROOT-0
p742
aVWhat-1
p743
aa(lp744
Vcop
p745
aVWhat-1
p746
aVwas-2
p747
aa(lp748
Vdet
p749
aVweight-5
p750
aVthe-3
p751
aa(lp752
Vamod
p753
aVweight-5
p754
aVtotal-4
p755
aa(lp756
Vnsubj
p757
aVWhat-1
p758
aVweight-5
p759
aa(lp760
Vdet
p761
aVbar-9
p762
aVthe-7
p763
aa(lp764
Vnn
p765
aVbar-9
p766
aVmetal-8
p767
aa(lp768
Vprep_of
p769
aVweight-5
p770
aVbar-9
p771
aa(lp772
Vprep_in
p773
aVbar-9
p774
aVounces-11
p775
aasas.