(dp0
Vcoref
p1
(lp2
(lp3
(lp4
(lp5
Vthe tax
p6
aI1
aI9
aI8
aI10
aa(lp7
Va new tax
p8
aI0
aI7
aI5
aI8
aaa(lp9
(lp10
Vthe tax
p11
aI1
aI15
aI14
aI16
aa(lp12
Va new tax
p13
aI0
aI7
aI5
aI8
aaa(lp14
(lp15
Vthe tax
p16
aI2
aI12
aI11
aI13
aa(lp17
Va new tax
p18
aI0
aI7
aI5
aI8
aaaa(lp19
(lp20
(lp21
Vthe city council members
p22
aI2
aI6
aI3
aI7
aa(lp23
V22 city council members
p24
aI1
aI3
aI0
aI4
aaaa(lp25
(lp26
(lp27
Vfavor of the tax
p28
aI2
aI9
aI9
aI13
aa(lp29
Vfavor of the tax
p30
aI1
aI6
aI6
aI10
aaaasVsentences
p31
(lp32
(dp33
Vparsetree
p34
V(ROOT (S (NP (DT The) (NN city) (NN council)) (VP (VBD voted) (PP (IN on) (NP (DT a) (JJ new) (NN tax)))) (. .)))
p35
sVtext
p36
VThe city council voted on a new tax .
p37
sVdependencies
p38
(lp39
(lp40
Vroot
p41
aVROOT
p42
aVvoted
p43
aa(lp44
Vdet
p45
aVcouncil
p46
aVThe
p47
aa(lp48
Vnn
p49
aVcouncil
p50
aVcity
p51
aa(lp52
Vnsubj
p53
aVvoted
p54
aVcouncil
p55
aa(lp56
Vdet
p57
aVtax
p58
aVa
p59
aa(lp60
Vamod
p61
aVtax
p62
aVnew
p63
aa(lp64
Vprep_on
p65
aVvoted
p66
aVtax
p67
aasVwords
p68
(lp69
(lp70
VThe
p71
a(dp72
VNamedEntityTag
p73
VO
p74
sVCharacterOffsetEnd
p75
V4
p76
sVCharacterOffsetBegin
p77
V1
p78
sVPartOfSpeech
p79
VDT
p80
sVLemma
p81
Vthe
p82
saa(lp83
Vcity
p84
a(dp85
VNamedEntityTag
p86
g74
sVCharacterOffsetEnd
p87
V9
p88
sVCharacterOffsetBegin
p89
V5
p90
sVPartOfSpeech
p91
VNN
p92
sVLemma
p93
Vcity
p94
saa(lp95
Vcouncil
p96
a(dp97
VNamedEntityTag
p98
g74
sVCharacterOffsetEnd
p99
V17
p100
sVCharacterOffsetBegin
p101
V10
p102
sVPartOfSpeech
p103
VNN
p104
sVLemma
p105
Vcouncil
p106
saa(lp107
Vvoted
p108
a(dp109
VNamedEntityTag
p110
g74
sVCharacterOffsetEnd
p111
V23
p112
sVCharacterOffsetBegin
p113
V18
p114
sVPartOfSpeech
p115
VVBD
p116
sVLemma
p117
Vvote
p118
saa(lp119
Von
p120
a(dp121
VNamedEntityTag
p122
g74
sVCharacterOffsetEnd
p123
V26
p124
sVCharacterOffsetBegin
p125
V24
p126
sVPartOfSpeech
p127
VIN
p128
sVLemma
p129
Von
p130
saa(lp131
g59
a(dp132
VNamedEntityTag
p133
g74
sVCharacterOffsetEnd
p134
V28
p135
sVCharacterOffsetBegin
p136
V27
p137
sVPartOfSpeech
p138
VDT
p139
sVLemma
p140
g59
saa(lp141
Vnew
p142
a(dp143
VNamedEntityTag
p144
g74
sVCharacterOffsetEnd
p145
V32
p146
sVCharacterOffsetBegin
p147
V29
p148
sVPartOfSpeech
p149
VJJ
p150
sVLemma
p151
Vnew
p152
saa(lp153
Vtax
p154
a(dp155
VNamedEntityTag
p156
g74
sVCharacterOffsetEnd
p157
V36
p158
sVCharacterOffsetBegin
p159
V33
p160
sVPartOfSpeech
p161
VNN
p162
sVLemma
p163
Vtax
p164
saa(lp165
V.
p166
a(dp167
VNamedEntityTag
p168
g74
sVCharacterOffsetEnd
p169
V38
p170
sVCharacterOffsetBegin
p171
V37
p172
sVPartOfSpeech
p173
g166
sVLemma
p174
g166
saasVindexeddependencies
p175
(lp176
(lp177
Vroot
p178
aVROOT-0
p179
aVvoted-4
p180
aa(lp181
Vdet
p182
aVcouncil-3
p183
aVThe-1
p184
aa(lp185
Vnn
p186
aVcouncil-3
p187
aVcity-2
p188
aa(lp189
Vnsubj
p190
aVvoted-4
p191
aVcouncil-3
p192
aa(lp193
Vdet
p194
aVtax-8
p195
aVa-6
p196
aa(lp197
Vamod
p198
aVtax-8
p199
aVnew-7
p200
aa(lp201
Vprep_on
p202
aVvoted-4
p203
aVtax-8
p204
aasa(dp205
Vparsetree
p206
V(ROOT (S (S (NP (CD 22) (NN city) (NN council) (NNS members)) (VP (VBD voted) (PP (IN in) (NP (NP (NN favor)) (PP (IN of) (NP (DT the) (NN tax))))))) (CC and) (S (NP (CD 66)) (VP (VBD voted) (PP (IN against) (NP (DT the) (NN tax))))) (. .)))
p207
sVtext
p208
V22 city council members voted in favor of the tax and 66 voted against the tax .
p209
sVdependencies
p210
(lp211
(lp212
Vroot
p213
aVROOT
p214
aVvoted
p215
aa(lp216
Vnum
p217
aVmembers
p218
aV22
p219
aa(lp220
Vnn
p221
aVmembers
p222
aVcity
p223
aa(lp224
Vnn
p225
aVmembers
p226
aVcouncil
p227
aa(lp228
Vnsubj
p229
aVvoted
p230
aVmembers
p231
aa(lp232
Vprep_in
p233
aVvoted
p234
aVfavor
p235
aa(lp236
Vdet
p237
aVtax
p238
aVthe
p239
aa(lp240
Vprep_of
p241
aVfavor
p242
aVtax
p243
aa(lp244
Vnsubj
p245
aVvoted
p246
aV66
p247
aa(lp248
Vconj_and
p249
aVvoted
p250
aVvoted
p251
aa(lp252
Vdet
p253
aVtax
p254
aVthe
p255
aa(lp256
Vprep_against
p257
aVvoted
p258
aVtax
p259
aasVwords
p260
(lp261
(lp262
V22
p263
a(dp264
VNormalizedNamedEntityTag
p265
V22.0
p266
sVLemma
p267
V22
p268
sVCharacterOffsetEnd
p269
V41
p270
sVPartOfSpeech
p271
VCD
p272
sVCharacterOffsetBegin
p273
V39
p274
sVNamedEntityTag
p275
VNUMBER
p276
saa(lp277
Vcity
p278
a(dp279
VNamedEntityTag
p280
g74
sVCharacterOffsetEnd
p281
V46
p282
sVCharacterOffsetBegin
p283
V42
p284
sVPartOfSpeech
p285
VNN
p286
sVLemma
p287
Vcity
p288
saa(lp289
Vcouncil
p290
a(dp291
VNamedEntityTag
p292
g74
sVCharacterOffsetEnd
p293
V54
p294
sVCharacterOffsetBegin
p295
V47
p296
sVPartOfSpeech
p297
VNN
p298
sVLemma
p299
Vcouncil
p300
saa(lp301
Vmembers
p302
a(dp303
VNamedEntityTag
p304
g74
sVCharacterOffsetEnd
p305
V62
p306
sVCharacterOffsetBegin
p307
V55
p308
sVPartOfSpeech
p309
VNNS
p310
sVLemma
p311
Vmember
p312
saa(lp313
Vvoted
p314
a(dp315
VNamedEntityTag
p316
g74
sVCharacterOffsetEnd
p317
V68
p318
sVCharacterOffsetBegin
p319
V63
p320
sVPartOfSpeech
p321
VVBD
p322
sVLemma
p323
Vvote
p324
saa(lp325
Vin
p326
a(dp327
VNamedEntityTag
p328
g74
sVCharacterOffsetEnd
p329
V71
p330
sVCharacterOffsetBegin
p331
V69
p332
sVPartOfSpeech
p333
VIN
p334
sVLemma
p335
Vin
p336
saa(lp337
Vfavor
p338
a(dp339
VNamedEntityTag
p340
g74
sVCharacterOffsetEnd
p341
V77
p342
sVCharacterOffsetBegin
p343
V72
p344
sVPartOfSpeech
p345
VNN
p346
sVLemma
p347
Vfavor
p348
saa(lp349
Vof
p350
a(dp351
VNamedEntityTag
p352
g74
sVCharacterOffsetEnd
p353
V80
p354
sVCharacterOffsetBegin
p355
V78
p356
sVPartOfSpeech
p357
VIN
p358
sVLemma
p359
Vof
p360
saa(lp361
Vthe
p362
a(dp363
VNamedEntityTag
p364
g74
sVCharacterOffsetEnd
p365
V84
p366
sVCharacterOffsetBegin
p367
V81
p368
sVPartOfSpeech
p369
VDT
p370
sVLemma
p371
Vthe
p372
saa(lp373
Vtax
p374
a(dp375
VNamedEntityTag
p376
g74
sVCharacterOffsetEnd
p377
V88
p378
sVCharacterOffsetBegin
p379
V85
p380
sVPartOfSpeech
p381
VNN
p382
sVLemma
p383
Vtax
p384
saa(lp385
Vand
p386
a(dp387
VNamedEntityTag
p388
g74
sVCharacterOffsetEnd
p389
V92
p390
sVCharacterOffsetBegin
p391
V89
p392
sVPartOfSpeech
p393
VCC
p394
sVLemma
p395
Vand
p396
saa(lp397
V66
p398
a(dp399
VNormalizedNamedEntityTag
p400
V66.0
p401
sVLemma
p402
V66
p403
sVCharacterOffsetEnd
p404
V95
p405
sVPartOfSpeech
p406
VCD
p407
sVCharacterOffsetBegin
p408
V93
p409
sVNamedEntityTag
p410
VNUMBER
p411
saa(lp412
Vvoted
p413
a(dp414
VNamedEntityTag
p415
g74
sVCharacterOffsetEnd
p416
V101
p417
sVCharacterOffsetBegin
p418
V96
p419
sVPartOfSpeech
p420
VVBD
p421
sVLemma
p422
Vvote
p423
saa(lp424
Vagainst
p425
a(dp426
VNamedEntityTag
p427
g74
sVCharacterOffsetEnd
p428
V109
p429
sVCharacterOffsetBegin
p430
V102
p431
sVPartOfSpeech
p432
VIN
p433
sVLemma
p434
Vagainst
p435
saa(lp436
Vthe
p437
a(dp438
VNamedEntityTag
p439
g74
sVCharacterOffsetEnd
p440
V113
p441
sVCharacterOffsetBegin
p442
V110
p443
sVPartOfSpeech
p444
VDT
p445
sVLemma
p446
Vthe
p447
saa(lp448
Vtax
p449
a(dp450
VNamedEntityTag
p451
g74
sVCharacterOffsetEnd
p452
V117
p453
sVCharacterOffsetBegin
p454
V114
p455
sVPartOfSpeech
p456
VNN
p457
sVLemma
p458
Vtax
p459
saa(lp460
g166
a(dp461
VNamedEntityTag
p462
g74
sVCharacterOffsetEnd
p463
V119
p464
sVCharacterOffsetBegin
p465
V118
p466
sVPartOfSpeech
p467
g166
sVLemma
p468
g166
saasVindexeddependencies
p469
(lp470
(lp471
Vroot
p472
aVROOT-0
p473
aVvoted-5
p474
aa(lp475
Vnum
p476
aVmembers-4
p477
aV22-1
p478
aa(lp479
Vnn
p480
aVmembers-4
p481
aVcity-2
p482
aa(lp483
Vnn
p484
aVmembers-4
p485
aVcouncil-3
p486
aa(lp487
Vnsubj
p488
aVvoted-5
p489
aVmembers-4
p490
aa(lp491
Vprep_in
p492
aVvoted-5
p493
aVfavor-7
p494
aa(lp495
Vdet
p496
aVtax-10
p497
aVthe-9
p498
aa(lp499
Vprep_of
p500
aVfavor-7
p501
aVtax-10
p502
aa(lp503
Vnsubj
p504
aVvoted-13
p505
aV66-12
p506
aa(lp507
Vconj_and
p508
aVvoted-5
p509
aVvoted-13
p510
aa(lp511
Vdet
p512
aVtax-16
p513
aVthe-15
p514
aa(lp515
Vprep_against
p516
aVvoted-13
p517
aVtax-16
p518
aasa(dp519
Vparsetree
p520
V(ROOT (SBARQ (WHNP (WHNP (WDT What) (NN percentage)) (PP (IN of) (NP (DT the) (NN city) (NN council) (NNS members)))) (SQ (VP (VBD voted) (PP (IN in) (NP (NP (NN favor)) (PP (IN of) (NP (DT the) (NN tax))))))) (. ?)))
p521
sVtext
p522
VWhat percentage of the city council members voted in favor of the tax ?
p523
sVdependencies
p524
(lp525
(lp526
Vroot
p527
aVROOT
p528
aVvoted
p529
aa(lp530
Vdet
p531
aVpercentage
p532
aVWhat
p533
aa(lp534
Vnsubj
p535
aVvoted
p536
aVpercentage
p537
aa(lp538
Vdet
p539
aVmembers
p540
aVthe
p541
aa(lp542
Vnn
p543
aVmembers
p544
aVcity
p545
aa(lp546
Vnn
p547
aVmembers
p548
aVcouncil
p549
aa(lp550
Vprep_of
p551
aVpercentage
p552
aVmembers
p553
aa(lp554
Vprep_in
p555
aVvoted
p556
aVfavor
p557
aa(lp558
Vdet
p559
aVtax
p560
aVthe
p561
aa(lp562
Vprep_of
p563
aVfavor
p564
aVtax
p565
aasVwords
p566
(lp567
(lp568
VWhat
p569
a(dp570
VNamedEntityTag
p571
g74
sVCharacterOffsetEnd
p572
V124
p573
sVCharacterOffsetBegin
p574
V120
p575
sVPartOfSpeech
p576
VWDT
p577
sVLemma
p578
Vwhat
p579
saa(lp580
Vpercentage
p581
a(dp582
VNamedEntityTag
p583
g74
sVCharacterOffsetEnd
p584
V135
p585
sVCharacterOffsetBegin
p586
V125
p587
sVPartOfSpeech
p588
VNN
p589
sVLemma
p590
Vpercentage
p591
saa(lp592
Vof
p593
a(dp594
VNamedEntityTag
p595
g74
sVCharacterOffsetEnd
p596
V138
p597
sVCharacterOffsetBegin
p598
V136
p599
sVPartOfSpeech
p600
VIN
p601
sVLemma
p602
Vof
p603
saa(lp604
Vthe
p605
a(dp606
VNamedEntityTag
p607
g74
sVCharacterOffsetEnd
p608
V142
p609
sVCharacterOffsetBegin
p610
V139
p611
sVPartOfSpeech
p612
VDT
p613
sVLemma
p614
Vthe
p615
saa(lp616
Vcity
p617
a(dp618
VNamedEntityTag
p619
g74
sVCharacterOffsetEnd
p620
V147
p621
sVCharacterOffsetBegin
p622
V143
p623
sVPartOfSpeech
p624
VNN
p625
sVLemma
p626
Vcity
p627
saa(lp628
Vcouncil
p629
a(dp630
VNamedEntityTag
p631
g74
sVCharacterOffsetEnd
p632
V155
p633
sVCharacterOffsetBegin
p634
V148
p635
sVPartOfSpeech
p636
VNN
p637
sVLemma
p638
Vcouncil
p639
saa(lp640
Vmembers
p641
a(dp642
VNamedEntityTag
p643
g74
sVCharacterOffsetEnd
p644
V163
p645
sVCharacterOffsetBegin
p646
V156
p647
sVPartOfSpeech
p648
VNNS
p649
sVLemma
p650
Vmember
p651
saa(lp652
Vvoted
p653
a(dp654
VNamedEntityTag
p655
g74
sVCharacterOffsetEnd
p656
V169
p657
sVCharacterOffsetBegin
p658
V164
p659
sVPartOfSpeech
p660
VVBD
p661
sVLemma
p662
Vvote
p663
saa(lp664
Vin
p665
a(dp666
VNamedEntityTag
p667
g74
sVCharacterOffsetEnd
p668
V172
p669
sVCharacterOffsetBegin
p670
V170
p671
sVPartOfSpeech
p672
VIN
p673
sVLemma
p674
Vin
p675
saa(lp676
Vfavor
p677
a(dp678
VNamedEntityTag
p679
g74
sVCharacterOffsetEnd
p680
V178
p681
sVCharacterOffsetBegin
p682
V173
p683
sVPartOfSpeech
p684
VNN
p685
sVLemma
p686
Vfavor
p687
saa(lp688
Vof
p689
a(dp690
VNamedEntityTag
p691
g74
sVCharacterOffsetEnd
p692
V181
p693
sVCharacterOffsetBegin
p694
V179
p695
sVPartOfSpeech
p696
VIN
p697
sVLemma
p698
Vof
p699
saa(lp700
Vthe
p701
a(dp702
VNamedEntityTag
p703
g74
sVCharacterOffsetEnd
p704
V185
p705
sVCharacterOffsetBegin
p706
V182
p707
sVPartOfSpeech
p708
VDT
p709
sVLemma
p710
Vthe
p711
saa(lp712
Vtax
p713
a(dp714
VNamedEntityTag
p715
g74
sVCharacterOffsetEnd
p716
V189
p717
sVCharacterOffsetBegin
p718
V186
p719
sVPartOfSpeech
p720
VNN
p721
sVLemma
p722
Vtax
p723
saa(lp724
V?
p725
a(dp726
VNamedEntityTag
p727
g74
sVCharacterOffsetEnd
p728
V191
p729
sVCharacterOffsetBegin
p730
V190
p731
sVPartOfSpeech
p732
g166
sVLemma
p733
g725
saasVindexeddependencies
p734
(lp735
(lp736
Vroot
p737
aVROOT-0
p738
aVvoted-8
p739
aa(lp740
Vdet
p741
aVpercentage-2
p742
aVWhat-1
p743
aa(lp744
Vnsubj
p745
aVvoted-8
p746
aVpercentage-2
p747
aa(lp748
Vdet
p749
aVmembers-7
p750
aVthe-4
p751
aa(lp752
Vnn
p753
aVmembers-7
p754
aVcity-5
p755
aa(lp756
Vnn
p757
aVmembers-7
p758
aVcouncil-6
p759
aa(lp760
Vprep_of
p761
aVpercentage-2
p762
aVmembers-7
p763
aa(lp764
Vprep_in
p765
aVvoted-8
p766
aVfavor-10
p767
aa(lp768
Vdet
p769
aVtax-13
p770
aVthe-12
p771
aa(lp772
Vprep_of
p773
aVfavor-10
p774
aVtax-13
p775
aasas.