(dp0
Vcoref
p1
(lp2
(lp3
(lp4
(lp5
Vthem
p6
aI1
aI3
aI3
aI4
aa(lp7
V31 people in line for the bumper cars
p8
aI0
aI6
aI5
aI13
aaaa(lp9
(lp10
(lp11
V25
p12
aI1
aI11
aI11
aI12
aa(lp13
V25 of them
p14
aI1
aI1
aI1
aI4
aaaasVsentences
p15
(lp16
(dp17
Vparsetree
p18
V(ROOT (S (PP (IN At) (NP (DT the) (JJ fair))) (NP (EX there)) (VP (VBD were) (NP (NP (CD 31) (NNS people)) (PP (IN in) (NP (NP (NN line)) (PP (IN for) (NP (DT the) (NN bumper) (NNS cars))))))) (. .)))
p19
sVtext
p20
VAt the fair there were 31 people in line for the bumper cars .
p21
sVdependencies
p22
(lp23
(lp24
Vroot
p25
aVROOT
p26
aVwere
p27
aa(lp28
Vdet
p29
aVfair
p30
aVthe
p31
aa(lp32
Vprep_at
p33
aVwere
p34
aVfair
p35
aa(lp36
Vexpl
p37
aVwere
p38
aVthere
p39
aa(lp40
Vnum
p41
aVpeople
p42
aV31
p43
aa(lp44
Vnsubj
p45
aVwere
p46
aVpeople
p47
aa(lp48
Vprep_in
p49
aVpeople
p50
aVline
p51
aa(lp52
Vdet
p53
aVcars
p54
aVthe
p55
aa(lp56
Vnn
p57
aVcars
p58
aVbumper
p59
aa(lp60
Vprep_for
p61
aVline
p62
aVcars
p63
aasVwords
p64
(lp65
(lp66
VAt
p67
a(dp68
VNamedEntityTag
p69
VO
p70
sVCharacterOffsetEnd
p71
V3
p72
sVCharacterOffsetBegin
p73
V1
p74
sVPartOfSpeech
p75
VIN
p76
sVLemma
p77
Vat
p78
saa(lp79
Vthe
p80
a(dp81
VNamedEntityTag
p82
g70
sVCharacterOffsetEnd
p83
V7
p84
sVCharacterOffsetBegin
p85
V4
p86
sVPartOfSpeech
p87
VDT
p88
sVLemma
p89
Vthe
p90
saa(lp91
Vfair
p92
a(dp93
VNamedEntityTag
p94
g70
sVCharacterOffsetEnd
p95
V12
p96
sVCharacterOffsetBegin
p97
V8
p98
sVPartOfSpeech
p99
VJJ
p100
sVLemma
p101
Vfair
p102
saa(lp103
Vthere
p104
a(dp105
VNamedEntityTag
p106
g70
sVCharacterOffsetEnd
p107
V18
p108
sVCharacterOffsetBegin
p109
V13
p110
sVPartOfSpeech
p111
VEX
p112
sVLemma
p113
Vthere
p114
saa(lp115
Vwere
p116
a(dp117
VNamedEntityTag
p118
g70
sVCharacterOffsetEnd
p119
V23
p120
sVCharacterOffsetBegin
p121
V19
p122
sVPartOfSpeech
p123
VVBD
p124
sVLemma
p125
Vbe
p126
saa(lp127
V31
p128
a(dp129
VNormalizedNamedEntityTag
p130
V31.0
p131
sVLemma
p132
V31
p133
sVCharacterOffsetEnd
p134
V26
p135
sVPartOfSpeech
p136
VCD
p137
sVCharacterOffsetBegin
p138
V24
p139
sVNamedEntityTag
p140
VNUMBER
p141
saa(lp142
Vpeople
p143
a(dp144
VNamedEntityTag
p145
g70
sVCharacterOffsetEnd
p146
V33
p147
sVCharacterOffsetBegin
p148
V27
p149
sVPartOfSpeech
p150
VNNS
p151
sVLemma
p152
Vpeople
p153
saa(lp154
Vin
p155
a(dp156
VNamedEntityTag
p157
g70
sVCharacterOffsetEnd
p158
V36
p159
sVCharacterOffsetBegin
p160
V34
p161
sVPartOfSpeech
p162
VIN
p163
sVLemma
p164
Vin
p165
saa(lp166
Vline
p167
a(dp168
VNamedEntityTag
p169
g70
sVCharacterOffsetEnd
p170
V41
p171
sVCharacterOffsetBegin
p172
V37
p173
sVPartOfSpeech
p174
VNN
p175
sVLemma
p176
Vline
p177
saa(lp178
Vfor
p179
a(dp180
VNamedEntityTag
p181
g70
sVCharacterOffsetEnd
p182
V45
p183
sVCharacterOffsetBegin
p184
V42
p185
sVPartOfSpeech
p186
VIN
p187
sVLemma
p188
Vfor
p189
saa(lp190
Vthe
p191
a(dp192
VNamedEntityTag
p193
g70
sVCharacterOffsetEnd
p194
V49
p195
sVCharacterOffsetBegin
p196
V46
p197
sVPartOfSpeech
p198
VDT
p199
sVLemma
p200
Vthe
p201
saa(lp202
Vbumper
p203
a(dp204
VNamedEntityTag
p205
g70
sVCharacterOffsetEnd
p206
V56
p207
sVCharacterOffsetBegin
p208
V50
p209
sVPartOfSpeech
p210
VNN
p211
sVLemma
p212
Vbumper
p213
saa(lp214
Vcars
p215
a(dp216
VNamedEntityTag
p217
g70
sVCharacterOffsetEnd
p218
V61
p219
sVCharacterOffsetBegin
p220
V57
p221
sVPartOfSpeech
p222
VNNS
p223
sVLemma
p224
Vcar
p225
saa(lp226
V.
p227
a(dp228
VNamedEntityTag
p229
g70
sVCharacterOffsetEnd
p230
V63
p231
sVCharacterOffsetBegin
p232
V62
p233
sVPartOfSpeech
p234
g227
sVLemma
p235
g227
saasVindexeddependencies
p236
(lp237
(lp238
Vroot
p239
aVROOT-0
p240
aVwere-5
p241
aa(lp242
Vdet
p243
aVfair-3
p244
aVthe-2
p245
aa(lp246
Vprep_at
p247
aVwere-5
p248
aVfair-3
p249
aa(lp250
Vexpl
p251
aVwere-5
p252
aVthere-4
p253
aa(lp254
Vnum
p255
aVpeople-7
p256
aV31-6
p257
aa(lp258
Vnsubj
p259
aVwere-5
p260
aVpeople-7
p261
aa(lp262
Vprep_in
p263
aVpeople-7
p264
aVline-9
p265
aa(lp266
Vdet
p267
aVcars-13
p268
aVthe-11
p269
aa(lp270
Vnn
p271
aVcars-13
p272
aVbumper-12
p273
aa(lp274
Vprep_for
p275
aVline-9
p276
aVcars-13
p277
aasa(dp278
Vparsetree
p279
V(ROOT (SBARQ (SBAR (IN If) (S (NP (NP (CD 25)) (PP (IN of) (NP (PRP them)))) (VP (VP (VBD got) (ADJP (ADJP (VBN tired) (PP (IN of) (S (VP (VBG waiting))))) (CC and) (ADJP (VBN left)))) (CC and) (VP (ADVP (NP (CD 25)) (JJR more)) (VBD got) (PP (IN in) (NP (NN line))))))) (, ,) (WHNP (WHADJP (WRB how) (JJ many)) (NNS people)) (SQ (VP (MD would) (VP (VB be) (PP (IN in) (NP (NN line)))))) (. ?)))
p280
sVtext
p281
VIf 25 of them got tired of waiting and left and 25 more got in line , how many people would be in line ?
p282
sVdependencies
p283
(lp284
(lp285
Vroot
p286
aVROOT
p287
aVbe
p288
aa(lp289
Vmark
p290
aVtired
p291
aVIf
p292
aa(lp293
Vnsubjpass
p294
aVtired
p295
aV25
p296
aa(lp297
Vprep_of
p298
aV25
p299
aVthem
p300
aa(lp301
Vauxpass
p302
aVtired
p303
aVgot
p304
aa(lp305
Vadvcl
p306
aVbe
p307
aVtired
p308
aa(lp309
Vprepc_of
p310
aVtired
p311
aVwaiting
p312
aa(lp313
Vconj_and
p314
aVtired
p315
aVleft
p316
aa(lp317
Vnpadvmod
p318
aVmore
p319
aV25
p320
aa(lp321
Vadvmod
p322
aVgot
p323
aVmore
p324
aa(lp325
Vconj_and
p326
aVtired
p327
aVgot
p328
aa(lp329
Vprep_in
p330
aVgot
p331
aVline
p332
aa(lp333
Vadvmod
p334
aVmany
p335
aVhow
p336
aa(lp337
Vamod
p338
aVpeople
p339
aVmany
p340
aa(lp341
Vnsubj
p342
aVbe
p343
aVpeople
p344
aa(lp345
Vaux
p346
aVbe
p347
aVwould
p348
aa(lp349
Vprep_in
p350
aVbe
p351
aVline
p352
aasVwords
p353
(lp354
(lp355
VIf
p356
a(dp357
VNamedEntityTag
p358
g70
sVCharacterOffsetEnd
p359
V66
p360
sVCharacterOffsetBegin
p361
V64
p362
sVPartOfSpeech
p363
VIN
p364
sVLemma
p365
Vif
p366
saa(lp367
V25
p368
a(dp369
VNormalizedNamedEntityTag
p370
V25.0
p371
sVLemma
p372
V25
p373
sVCharacterOffsetEnd
p374
V69
p375
sVPartOfSpeech
p376
VCD
p377
sVCharacterOffsetBegin
p378
V67
p379
sVNamedEntityTag
p380
VNUMBER
p381
saa(lp382
Vof
p383
a(dp384
VNamedEntityTag
p385
g70
sVCharacterOffsetEnd
p386
V72
p387
sVCharacterOffsetBegin
p388
V70
p389
sVPartOfSpeech
p390
VIN
p391
sVLemma
p392
Vof
p393
saa(lp394
Vthem
p395
a(dp396
VNamedEntityTag
p397
g70
sVCharacterOffsetEnd
p398
V77
p399
sVCharacterOffsetBegin
p400
V73
p401
sVPartOfSpeech
p402
VPRP
p403
sVLemma
p404
Vthey
p405
saa(lp406
Vgot
p407
a(dp408
VNamedEntityTag
p409
g70
sVCharacterOffsetEnd
p410
V81
p411
sVCharacterOffsetBegin
p412
V78
p413
sVPartOfSpeech
p414
VVBD
p415
sVLemma
p416
Vget
p417
saa(lp418
Vtired
p419
a(dp420
VNamedEntityTag
p421
g70
sVCharacterOffsetEnd
p422
V87
p423
sVCharacterOffsetBegin
p424
V82
p425
sVPartOfSpeech
p426
VVBN
p427
sVLemma
p428
Vtire
p429
saa(lp430
Vof
p431
a(dp432
VNamedEntityTag
p433
g70
sVCharacterOffsetEnd
p434
V90
p435
sVCharacterOffsetBegin
p436
V88
p437
sVPartOfSpeech
p438
VIN
p439
sVLemma
p440
Vof
p441
saa(lp442
Vwaiting
p443
a(dp444
VNamedEntityTag
p445
g70
sVCharacterOffsetEnd
p446
V98
p447
sVCharacterOffsetBegin
p448
V91
p449
sVPartOfSpeech
p450
VVBG
p451
sVLemma
p452
Vwait
p453
saa(lp454
Vand
p455
a(dp456
VNamedEntityTag
p457
g70
sVCharacterOffsetEnd
p458
V102
p459
sVCharacterOffsetBegin
p460
V99
p461
sVPartOfSpeech
p462
VCC
p463
sVLemma
p464
Vand
p465
saa(lp466
Vleft
p467
a(dp468
VNamedEntityTag
p469
g70
sVCharacterOffsetEnd
p470
V107
p471
sVCharacterOffsetBegin
p472
V103
p473
sVPartOfSpeech
p474
VVBN
p475
sVLemma
p476
Vleave
p477
saa(lp478
Vand
p479
a(dp480
VNamedEntityTag
p481
g70
sVCharacterOffsetEnd
p482
V111
p483
sVCharacterOffsetBegin
p484
V108
p485
sVPartOfSpeech
p486
VCC
p487
sVLemma
p488
Vand
p489
saa(lp490
V25
p491
a(dp492
VNormalizedNamedEntityTag
p493
V25.0
p494
sVLemma
p495
V25
p496
sVCharacterOffsetEnd
p497
V114
p498
sVPartOfSpeech
p499
VCD
p500
sVCharacterOffsetBegin
p501
V112
p502
sVNamedEntityTag
p503
VNUMBER
p504
saa(lp505
Vmore
p506
a(dp507
VNamedEntityTag
p508
g70
sVCharacterOffsetEnd
p509
V119
p510
sVCharacterOffsetBegin
p511
V115
p512
sVPartOfSpeech
p513
VJJR
p514
sVLemma
p515
Vmore
p516
saa(lp517
Vgot
p518
a(dp519
VNamedEntityTag
p520
g70
sVCharacterOffsetEnd
p521
V123
p522
sVCharacterOffsetBegin
p523
V120
p524
sVPartOfSpeech
p525
VVBD
p526
sVLemma
p527
Vget
p528
saa(lp529
Vin
p530
a(dp531
VNamedEntityTag
p532
g70
sVCharacterOffsetEnd
p533
V126
p534
sVCharacterOffsetBegin
p535
V124
p536
sVPartOfSpeech
p537
VIN
p538
sVLemma
p539
Vin
p540
saa(lp541
Vline
p542
a(dp543
VNamedEntityTag
p544
g70
sVCharacterOffsetEnd
p545
V131
p546
sVCharacterOffsetBegin
p547
V127
p548
sVPartOfSpeech
p549
VNN
p550
sVLemma
p551
Vline
p552
saa(lp553
V,
p554
a(dp555
VNamedEntityTag
p556
g70
sVCharacterOffsetEnd
p557
V133
p558
sVCharacterOffsetBegin
p559
V132
p560
sVPartOfSpeech
p561
g554
sVLemma
p562
g554
saa(lp563
Vhow
p564
a(dp565
VNamedEntityTag
p566
g70
sVCharacterOffsetEnd
p567
V137
p568
sVCharacterOffsetBegin
p569
V134
p570
sVPartOfSpeech
p571
VWRB
p572
sVLemma
p573
Vhow
p574
saa(lp575
Vmany
p576
a(dp577
VNamedEntityTag
p578
g70
sVCharacterOffsetEnd
p579
V142
p580
sVCharacterOffsetBegin
p581
V138
p582
sVPartOfSpeech
p583
VJJ
p584
sVLemma
p585
Vmany
p586
saa(lp587
Vpeople
p588
a(dp589
VNamedEntityTag
p590
g70
sVCharacterOffsetEnd
p591
V149
p592
sVCharacterOffsetBegin
p593
V143
p594
sVPartOfSpeech
p595
VNNS
p596
sVLemma
p597
Vpeople
p598
saa(lp599
Vwould
p600
a(dp601
VNamedEntityTag
p602
g70
sVCharacterOffsetEnd
p603
V155
p604
sVCharacterOffsetBegin
p605
V150
p606
sVPartOfSpeech
p607
VMD
p608
sVLemma
p609
Vwould
p610
saa(lp611
Vbe
p612
a(dp613
VNamedEntityTag
p614
g70
sVCharacterOffsetEnd
p615
V158
p616
sVCharacterOffsetBegin
p617
V156
p618
sVPartOfSpeech
p619
VVB
p620
sVLemma
p621
Vbe
p622
saa(lp623
Vin
p624
a(dp625
VNamedEntityTag
p626
g70
sVCharacterOffsetEnd
p627
V161
p628
sVCharacterOffsetBegin
p629
V159
p630
sVPartOfSpeech
p631
VIN
p632
sVLemma
p633
Vin
p634
saa(lp635
Vline
p636
a(dp637
VNamedEntityTag
p638
g70
sVCharacterOffsetEnd
p639
V166
p640
sVCharacterOffsetBegin
p641
V162
p642
sVPartOfSpeech
p643
VNN
p644
sVLemma
p645
Vline
p646
saa(lp647
V?
p648
a(dp649
VNamedEntityTag
p650
g70
sVCharacterOffsetEnd
p651
V168
p652
sVCharacterOffsetBegin
p653
V167
p654
sVPartOfSpeech
p655
g227
sVLemma
p656
g648
saasVindexeddependencies
p657
(lp658
(lp659
Vroot
p660
aVROOT-0
p661
aVbe-22
p662
aa(lp663
Vmark
p664
aVtired-6
p665
aVIf-1
p666
aa(lp667
Vnsubjpass
p668
aVtired-6
p669
aV25-2
p670
aa(lp671
Vprep_of
p672
aV25-2
p673
aVthem-4
p674
aa(lp675
Vauxpass
p676
aVtired-6
p677
aVgot-5
p678
aa(lp679
Vadvcl
p680
aVbe-22
p681
aVtired-6
p682
aa(lp683
Vprepc_of
p684
aVtired-6
p685
aVwaiting-8
p686
aa(lp687
Vconj_and
p688
aVtired-6
p689
aVleft-10
p690
aa(lp691
Vnpadvmod
p692
aVmore-13
p693
aV25-12
p694
aa(lp695
Vadvmod
p696
aVgot-14
p697
aVmore-13
p698
aa(lp699
Vconj_and
p700
aVtired-6
p701
aVgot-14
p702
aa(lp703
Vprep_in
p704
aVgot-14
p705
aVline-16
p706
aa(lp707
Vadvmod
p708
aVmany-19
p709
aVhow-18
p710
aa(lp711
Vamod
p712
aVpeople-20
p713
aVmany-19
p714
aa(lp715
Vnsubj
p716
aVbe-22
p717
aVpeople-20
p718
aa(lp719
Vaux
p720
aVbe-22
p721
aVwould-21
p722
aa(lp723
Vprep_in
p724
aVbe-22
p725
aVline-24
p726
aasas.