(dp0
Vcoref
p1
(lp2
(lp3
(lp4
(lp5
Vthe students at the assembly
p6
aI1
aI4
aI3
aI8
aa(lp7
Vthe 90 students at a school assembly
p8
aI0
aI5
aI3
aI10
aaaa(lp9
(lp10
(lp11
Vthe assembly
p12
aI1
aI7
aI6
aI8
aa(lp13
Va school assembly
p14
aI0
aI9
aI7
aI10
aaaasVsentences
p15
(lp16
(dp17
Vparsetree
p18
V(ROOT (S (NP (NP (CD 27)) (PP (ADVP (IN out)) (IN of) (NP (NP (DT the) (CD 90) (NNS students)) (PP (IN at) (NP (DT a) (NN school) (NN assembly)))))) (VP (VBD were) (NP (JJ first-grade) (NNS students))) (. .)))
p19
sVtext
p20
V27 out of the 90 students at a school assembly were first-grade students .
p21
sVdependencies
p22
(lp23
(lp24
Vroot
p25
aVROOT
p26
aVstudents
p27
aa(lp28
Vnsubj
p29
aVstudents
p30
aV27
p31
aa(lp32
Vdet
p33
aVstudents
p34
aVthe
p35
aa(lp36
Vnum
p37
aVstudents
p38
aV90
p39
aa(lp40
Vprep_out_of
p41
aV27
p42
aVstudents
p43
aa(lp44
Vdet
p45
aVassembly
p46
aVa
p47
aa(lp48
Vnn
p49
aVassembly
p50
aVschool
p51
aa(lp52
Vprep_at
p53
aVstudents
p54
aVassembly
p55
aa(lp56
Vcop
p57
aVstudents
p58
aVwere
p59
aa(lp60
Vamod
p61
aVstudents
p62
aVfirst-grade
p63
aasVwords
p64
(lp65
(lp66
V27
p67
a(dp68
VNormalizedNamedEntityTag
p69
V27.0
p70
sVLemma
p71
V27
p72
sVCharacterOffsetEnd
p73
V3
p74
sVPartOfSpeech
p75
VCD
p76
sVCharacterOffsetBegin
p77
V1
p78
sVNamedEntityTag
p79
VNUMBER
p80
saa(lp81
Vout
p82
a(dp83
VNamedEntityTag
p84
VO
p85
sVCharacterOffsetEnd
p86
V7
p87
sVCharacterOffsetBegin
p88
V4
p89
sVPartOfSpeech
p90
VIN
p91
sVLemma
p92
Vout
p93
saa(lp94
Vof
p95
a(dp96
VNamedEntityTag
p97
g85
sVCharacterOffsetEnd
p98
V10
p99
sVCharacterOffsetBegin
p100
V8
p101
sVPartOfSpeech
p102
VIN
p103
sVLemma
p104
Vof
p105
saa(lp106
Vthe
p107
a(dp108
VNamedEntityTag
p109
g85
sVCharacterOffsetEnd
p110
V14
p111
sVCharacterOffsetBegin
p112
V11
p113
sVPartOfSpeech
p114
VDT
p115
sVLemma
p116
Vthe
p117
saa(lp118
V90
p119
a(dp120
VNormalizedNamedEntityTag
p121
V90.0
p122
sVLemma
p123
V90
p124
sVCharacterOffsetEnd
p125
V17
p126
sVPartOfSpeech
p127
VCD
p128
sVCharacterOffsetBegin
p129
V15
p130
sVNamedEntityTag
p131
VNUMBER
p132
saa(lp133
Vstudents
p134
a(dp135
VNamedEntityTag
p136
g85
sVCharacterOffsetEnd
p137
V26
p138
sVCharacterOffsetBegin
p139
V18
p140
sVPartOfSpeech
p141
VNNS
p142
sVLemma
p143
Vstudent
p144
saa(lp145
Vat
p146
a(dp147
VNamedEntityTag
p148
g85
sVCharacterOffsetEnd
p149
V29
p150
sVCharacterOffsetBegin
p151
V27
p152
sVPartOfSpeech
p153
VIN
p154
sVLemma
p155
Vat
p156
saa(lp157
g47
a(dp158
VNamedEntityTag
p159
g85
sVCharacterOffsetEnd
p160
V31
p161
sVCharacterOffsetBegin
p162
V30
p163
sVPartOfSpeech
p164
VDT
p165
sVLemma
p166
g47
saa(lp167
Vschool
p168
a(dp169
VNamedEntityTag
p170
g85
sVCharacterOffsetEnd
p171
V38
p172
sVCharacterOffsetBegin
p173
V32
p174
sVPartOfSpeech
p175
VNN
p176
sVLemma
p177
Vschool
p178
saa(lp179
Vassembly
p180
a(dp181
VNamedEntityTag
p182
g85
sVCharacterOffsetEnd
p183
V47
p184
sVCharacterOffsetBegin
p185
V39
p186
sVPartOfSpeech
p187
VNN
p188
sVLemma
p189
Vassembly
p190
saa(lp191
Vwere
p192
a(dp193
VNamedEntityTag
p194
g85
sVCharacterOffsetEnd
p195
V52
p196
sVCharacterOffsetBegin
p197
V48
p198
sVPartOfSpeech
p199
VVBD
p200
sVLemma
p201
Vbe
p202
saa(lp203
Vfirst-grade
p204
a(dp205
VNamedEntityTag
p206
g85
sVCharacterOffsetEnd
p207
V64
p208
sVCharacterOffsetBegin
p209
V53
p210
sVPartOfSpeech
p211
VJJ
p212
sVLemma
p213
Vfirst-grade
p214
saa(lp215
Vstudents
p216
a(dp217
VNamedEntityTag
p218
g85
sVCharacterOffsetEnd
p219
V73
p220
sVCharacterOffsetBegin
p221
V65
p222
sVPartOfSpeech
p223
VNNS
p224
sVLemma
p225
Vstudent
p226
saa(lp227
V.
p228
a(dp229
VNamedEntityTag
p230
g85
sVCharacterOffsetEnd
p231
V75
p232
sVCharacterOffsetBegin
p233
V74
p234
sVPartOfSpeech
p235
g228
sVLemma
p236
g228
saasVindexeddependencies
p237
(lp238
(lp239
Vroot
p240
aVROOT-0
p241
aVstudents-13
p242
aa(lp243
Vnsubj
p244
aVstudents-13
p245
aV27-1
p246
aa(lp247
Vdet
p248
aVstudents-6
p249
aVthe-4
p250
aa(lp251
Vnum
p252
aVstudents-6
p253
aV90-5
p254
aa(lp255
Vprep_out_of
p256
aV27-1
p257
aVstudents-6
p258
aa(lp259
Vdet
p260
aVassembly-10
p261
aVa-8
p262
aa(lp263
Vnn
p264
aVassembly-10
p265
aVschool-9
p266
aa(lp267
Vprep_at
p268
aVstudents-6
p269
aVassembly-10
p270
aa(lp271
Vcop
p272
aVstudents-13
p273
aVwere-11
p274
aa(lp275
Vamod
p276
aVstudents-13
p277
aVfirst-grade-12
p278
aasa(dp279
Vparsetree
p280
V(ROOT (SBARQ (WHNP (WHNP (WDT What) (NN percentage)) (PP (IN of) (NP (NP (DT the) (NNS students)) (PP (IN at) (NP (DT the) (NN assembly)))))) (SQ (VBD were) (NP (NNS first-graders))) (. ?)))
p281
sVtext
p282
VWhat percentage of the students at the assembly were first-graders ?
p283
sVdependencies
p284
(lp285
(lp286
Vroot
p287
aVROOT
p288
aVwere
p289
aa(lp290
Vdet
p291
aVpercentage
p292
aVWhat
p293
aa(lp294
Vdep
p295
aVwere
p296
aVpercentage
p297
aa(lp298
Vdet
p299
aVstudents
p300
aVthe
p301
aa(lp302
Vprep_of
p303
aVpercentage
p304
aVstudents
p305
aa(lp306
Vdet
p307
aVassembly
p308
aVthe
p309
aa(lp310
Vprep_at
p311
aVstudents
p312
aVassembly
p313
aa(lp314
Vnsubj
p315
aVwere
p316
aVfirst-graders
p317
aasVwords
p318
(lp319
(lp320
VWhat
p321
a(dp322
VNamedEntityTag
p323
g85
sVCharacterOffsetEnd
p324
V80
p325
sVCharacterOffsetBegin
p326
V76
p327
sVPartOfSpeech
p328
VWDT
p329
sVLemma
p330
Vwhat
p331
saa(lp332
Vpercentage
p333
a(dp334
VNamedEntityTag
p335
g85
sVCharacterOffsetEnd
p336
V91
p337
sVCharacterOffsetBegin
p338
V81
p339
sVPartOfSpeech
p340
VNN
p341
sVLemma
p342
Vpercentage
p343
saa(lp344
Vof
p345
a(dp346
VNamedEntityTag
p347
g85
sVCharacterOffsetEnd
p348
V94
p349
sVCharacterOffsetBegin
p350
V92
p351
sVPartOfSpeech
p352
VIN
p353
sVLemma
p354
Vof
p355
saa(lp356
Vthe
p357
a(dp358
VNamedEntityTag
p359
g85
sVCharacterOffsetEnd
p360
V98
p361
sVCharacterOffsetBegin
p362
V95
p363
sVPartOfSpeech
p364
VDT
p365
sVLemma
p366
Vthe
p367
saa(lp368
Vstudents
p369
a(dp370
VNamedEntityTag
p371
g85
sVCharacterOffsetEnd
p372
V107
p373
sVCharacterOffsetBegin
p374
V99
p375
sVPartOfSpeech
p376
VNNS
p377
sVLemma
p378
Vstudent
p379
saa(lp380
Vat
p381
a(dp382
VNamedEntityTag
p383
g85
sVCharacterOffsetEnd
p384
V110
p385
sVCharacterOffsetBegin
p386
V108
p387
sVPartOfSpeech
p388
VIN
p389
sVLemma
p390
Vat
p391
saa(lp392
Vthe
p393
a(dp394
VNamedEntityTag
p395
g85
sVCharacterOffsetEnd
p396
V114
p397
sVCharacterOffsetBegin
p398
V111
p399
sVPartOfSpeech
p400
VDT
p401
sVLemma
p402
Vthe
p403
saa(lp404
Vassembly
p405
a(dp406
VNamedEntityTag
p407
g85
sVCharacterOffsetEnd
p408
V123
p409
sVCharacterOffsetBegin
p410
V115
p411
sVPartOfSpeech
p412
VNN
p413
sVLemma
p414
Vassembly
p415
saa(lp416
Vwere
p417
a(dp418
VNamedEntityTag
p419
g85
sVCharacterOffsetEnd
p420
V128
p421
sVCharacterOffsetBegin
p422
V124
p423
sVPartOfSpeech
p424
VVBD
p425
sVLemma
p426
Vbe
p427
saa(lp428
Vfirst-graders
p429
a(dp430
VNamedEntityTag
p431
g85
sVCharacterOffsetEnd
p432
V142
p433
sVCharacterOffsetBegin
p434
V129
p435
sVPartOfSpeech
p436
VNNS
p437
sVLemma
p438
Vfirst-grader
p439
saa(lp440
V?
p441
a(dp442
VNamedEntityTag
p443
g85
sVCharacterOffsetEnd
p444
V144
p445
sVCharacterOffsetBegin
p446
V143
p447
sVPartOfSpeech
p448
g228
sVLemma
p449
g441
saasVindexeddependencies
p450
(lp451
(lp452
Vroot
p453
aVROOT-0
p454
aVwere-9
p455
aa(lp456
Vdet
p457
aVpercentage-2
p458
aVWhat-1
p459
aa(lp460
Vdep
p461
aVwere-9
p462
aVpercentage-2
p463
aa(lp464
Vdet
p465
aVstudents-5
p466
aVthe-4
p467
aa(lp468
Vprep_of
p469
aVpercentage-2
p470
aVstudents-5
p471
aa(lp472
Vdet
p473
aVassembly-8
p474
aVthe-7
p475
aa(lp476
Vprep_at
p477
aVstudents-5
p478
aVassembly-8
p479
aa(lp480
Vnsubj
p481
aVwere-9
p482
aVfirst-graders-10
p483
aasas.