(dp0
Vcoref
p1
(lp2
(lp3
(lp4
(lp5
VMaggie
p6
aI2
aI5
aI5
aI6
aa(lp7
VMaggie
p8
aI0
aI0
aI0
aI1
aaaa(lp9
(lp10
(lp11
V4
p12
aI0
aI17
aI17
aI18
aa(lp13
g12
aI0
aI2
aI2
aI3
aaaasVsentences
p14
(lp15
(dp16
Vparsetree
p17
V(ROOT (S (NP (NNP Maggie)) (VP (VBD bought) (NP (NP (NP (CD 4) (NNS packs)) (PP (IN of) (NP (JJ red) (NN bouncy) (NNS balls)))) (, ,) (NP (NP (CD 8) (NNS packs)) (PP (IN of) (NP (JJ yellow) (NN bouncy) (NNS balls)))) (, ,) (CC and) (NP (NP (CD 4) (NNS packs)) (PP (IN of) (NP (JJ green) (NN bouncy) (NNS balls)))))) (. .)))
p18
sVtext
p19
VMaggie bought 4 packs of red bouncy balls , 8 packs of yellow bouncy balls , and 4 packs of green bouncy balls .
p20
sVdependencies
p21
(lp22
(lp23
Vroot
p24
aVROOT
p25
aVbought
p26
aa(lp27
Vnsubj
p28
aVbought
p29
aVMaggie
p30
aa(lp31
Vnum
p32
aVpacks
p33
ag12
aa(lp34
Vdobj
p35
aVbought
p36
aVpacks
p37
aa(lp38
Vamod
p39
aVballs
p40
aVred
p41
aa(lp42
Vnn
p43
aVballs
p44
aVbouncy
p45
aa(lp46
Vprep_of
p47
aVpacks
p48
aVballs
p49
aa(lp50
Vnum
p51
aVpacks
p52
aV8
p53
aa(lp54
Vconj_and
p55
aVpacks
p56
aVpacks
p57
aa(lp58
Vamod
p59
aVballs
p60
aVyellow
p61
aa(lp62
Vnn
p63
aVballs
p64
aVbouncy
p65
aa(lp66
Vprep_of
p67
aVpacks
p68
aVballs
p69
aa(lp70
Vnum
p71
aVpacks
p72
ag12
aa(lp73
Vconj_and
p74
aVpacks
p75
aVpacks
p76
aa(lp77
Vamod
p78
aVballs
p79
aVgreen
p80
aa(lp81
Vnn
p82
aVballs
p83
aVbouncy
p84
aa(lp85
Vprep_of
p86
aVpacks
p87
aVballs
p88
aasVwords
p89
(lp90
(lp91
VMaggie
p92
a(dp93
VNamedEntityTag
p94
VPERSON
p95
sVCharacterOffsetEnd
p96
V7
p97
sVCharacterOffsetBegin
p98
V1
p99
sVPartOfSpeech
p100
VNNP
p101
sVLemma
p102
VMaggie
p103
saa(lp104
Vbought
p105
a(dp106
VNamedEntityTag
p107
VO
p108
sVCharacterOffsetEnd
p109
V14
p110
sVCharacterOffsetBegin
p111
g53
sVPartOfSpeech
p112
VVBD
p113
sVLemma
p114
Vbuy
p115
saa(lp116
g12
a(dp117
VNormalizedNamedEntityTag
p118
V4.0
p119
sVLemma
p120
g12
sVCharacterOffsetEnd
p121
V16
p122
sVPartOfSpeech
p123
VCD
p124
sVCharacterOffsetBegin
p125
V15
p126
sVNamedEntityTag
p127
VNUMBER
p128
saa(lp129
Vpacks
p130
a(dp131
VNamedEntityTag
p132
g108
sVCharacterOffsetEnd
p133
V22
p134
sVCharacterOffsetBegin
p135
V17
p136
sVPartOfSpeech
p137
VNNS
p138
sVLemma
p139
Vpack
p140
saa(lp141
Vof
p142
a(dp143
VNamedEntityTag
p144
g108
sVCharacterOffsetEnd
p145
V25
p146
sVCharacterOffsetBegin
p147
V23
p148
sVPartOfSpeech
p149
VIN
p150
sVLemma
p151
Vof
p152
saa(lp153
Vred
p154
a(dp155
VNamedEntityTag
p156
g108
sVCharacterOffsetEnd
p157
V29
p158
sVCharacterOffsetBegin
p159
V26
p160
sVPartOfSpeech
p161
VJJ
p162
sVLemma
p163
Vred
p164
saa(lp165
Vbouncy
p166
a(dp167
VNamedEntityTag
p168
g108
sVCharacterOffsetEnd
p169
V36
p170
sVCharacterOffsetBegin
p171
V30
p172
sVPartOfSpeech
p173
VNN
p174
sVLemma
p175
Vbouncy
p176
saa(lp177
Vballs
p178
a(dp179
VNamedEntityTag
p180
g108
sVCharacterOffsetEnd
p181
V42
p182
sVCharacterOffsetBegin
p183
V37
p184
sVPartOfSpeech
p185
VNNS
p186
sVLemma
p187
Vball
p188
saa(lp189
V,
p190
a(dp191
VNamedEntityTag
p192
g108
sVCharacterOffsetEnd
p193
V44
p194
sVCharacterOffsetBegin
p195
V43
p196
sVPartOfSpeech
p197
g190
sVLemma
p198
g190
saa(lp199
g53
a(dp200
VNormalizedNamedEntityTag
p201
V8.0
p202
sVLemma
p203
g53
sVCharacterOffsetEnd
p204
V46
p205
sVPartOfSpeech
p206
VCD
p207
sVCharacterOffsetBegin
p208
V45
p209
sVNamedEntityTag
p210
VNUMBER
p211
saa(lp212
Vpacks
p213
a(dp214
VNamedEntityTag
p215
g108
sVCharacterOffsetEnd
p216
V52
p217
sVCharacterOffsetBegin
p218
V47
p219
sVPartOfSpeech
p220
VNNS
p221
sVLemma
p222
Vpack
p223
saa(lp224
Vof
p225
a(dp226
VNamedEntityTag
p227
g108
sVCharacterOffsetEnd
p228
V55
p229
sVCharacterOffsetBegin
p230
V53
p231
sVPartOfSpeech
p232
VIN
p233
sVLemma
p234
Vof
p235
saa(lp236
Vyellow
p237
a(dp238
VNamedEntityTag
p239
g108
sVCharacterOffsetEnd
p240
V62
p241
sVCharacterOffsetBegin
p242
V56
p243
sVPartOfSpeech
p244
VJJ
p245
sVLemma
p246
Vyellow
p247
saa(lp248
Vbouncy
p249
a(dp250
VNamedEntityTag
p251
g108
sVCharacterOffsetEnd
p252
V69
p253
sVCharacterOffsetBegin
p254
V63
p255
sVPartOfSpeech
p256
VNN
p257
sVLemma
p258
Vbouncy
p259
saa(lp260
Vballs
p261
a(dp262
VNamedEntityTag
p263
g108
sVCharacterOffsetEnd
p264
V75
p265
sVCharacterOffsetBegin
p266
V70
p267
sVPartOfSpeech
p268
VNNS
p269
sVLemma
p270
Vball
p271
saa(lp272
g190
a(dp273
VNamedEntityTag
p274
g108
sVCharacterOffsetEnd
p275
V77
p276
sVCharacterOffsetBegin
p277
V76
p278
sVPartOfSpeech
p279
g190
sVLemma
p280
g190
saa(lp281
Vand
p282
a(dp283
VNamedEntityTag
p284
g108
sVCharacterOffsetEnd
p285
V81
p286
sVCharacterOffsetBegin
p287
V78
p288
sVPartOfSpeech
p289
VCC
p290
sVLemma
p291
Vand
p292
saa(lp293
g12
a(dp294
VNormalizedNamedEntityTag
p295
V4.0
p296
sVLemma
p297
g12
sVCharacterOffsetEnd
p298
V83
p299
sVPartOfSpeech
p300
VCD
p301
sVCharacterOffsetBegin
p302
V82
p303
sVNamedEntityTag
p304
VNUMBER
p305
saa(lp306
Vpacks
p307
a(dp308
VNamedEntityTag
p309
g108
sVCharacterOffsetEnd
p310
V89
p311
sVCharacterOffsetBegin
p312
V84
p313
sVPartOfSpeech
p314
VNNS
p315
sVLemma
p316
Vpack
p317
saa(lp318
Vof
p319
a(dp320
VNamedEntityTag
p321
g108
sVCharacterOffsetEnd
p322
V92
p323
sVCharacterOffsetBegin
p324
V90
p325
sVPartOfSpeech
p326
VIN
p327
sVLemma
p328
Vof
p329
saa(lp330
Vgreen
p331
a(dp332
VNamedEntityTag
p333
g108
sVCharacterOffsetEnd
p334
V98
p335
sVCharacterOffsetBegin
p336
V93
p337
sVPartOfSpeech
p338
VJJ
p339
sVLemma
p340
Vgreen
p341
saa(lp342
Vbouncy
p343
a(dp344
VNamedEntityTag
p345
g108
sVCharacterOffsetEnd
p346
V105
p347
sVCharacterOffsetBegin
p348
V99
p349
sVPartOfSpeech
p350
VNN
p351
sVLemma
p352
Vbouncy
p353
saa(lp354
Vballs
p355
a(dp356
VNamedEntityTag
p357
g108
sVCharacterOffsetEnd
p358
V111
p359
sVCharacterOffsetBegin
p360
V106
p361
sVPartOfSpeech
p362
VNNS
p363
sVLemma
p364
Vball
p365
saa(lp366
V.
p367
a(dp368
VNamedEntityTag
p369
g108
sVCharacterOffsetEnd
p370
V113
p371
sVCharacterOffsetBegin
p372
V112
p373
sVPartOfSpeech
p374
g367
sVLemma
p375
g367
saasVindexeddependencies
p376
(lp377
(lp378
Vroot
p379
aVROOT-0
p380
aVbought-2
p381
aa(lp382
Vnsubj
p383
aVbought-2
p384
aVMaggie-1
p385
aa(lp386
Vnum
p387
aVpacks-4
p388
aV4-3
p389
aa(lp390
Vdobj
p391
aVbought-2
p392
aVpacks-4
p393
aa(lp394
Vamod
p395
aVballs-8
p396
aVred-6
p397
aa(lp398
Vnn
p399
aVballs-8
p400
aVbouncy-7
p401
aa(lp402
Vprep_of
p403
aVpacks-4
p404
aVballs-8
p405
aa(lp406
Vnum
p407
aVpacks-11
p408
aV8-10
p409
aa(lp410
Vconj_and
p411
aVpacks-4
p412
aVpacks-11
p413
aa(lp414
Vamod
p415
aVballs-15
p416
aVyellow-13
p417
aa(lp418
Vnn
p419
aVballs-15
p420
aVbouncy-14
p421
aa(lp422
Vprep_of
p423
aVpacks-11
p424
aVballs-15
p425
aa(lp426
Vnum
p427
aVpacks-19
p428
aV4-18
p429
aa(lp430
Vconj_and
p431
aVpacks-4
p432
aVpacks-19
p433
aa(lp434
Vamod
p435
aVballs-23
p436
aVgreen-21
p437
aa(lp438
Vnn
p439
aVballs-23
p440
aVbouncy-22
p441
aa(lp442
Vprep_of
p443
aVpacks-19
p444
aVballs-23
p445
aasa(dp446
Vparsetree
p447
V(ROOT (S (NP (EX There)) (VP (VBD were) (NP (NP (CD 10) (NN bouncy) (NNS balls)) (PP (IN in) (NP (DT each) (NN package))))) (. .)))
p448
sVtext
p449
VThere were 10 bouncy balls in each package .
p450
sVdependencies
p451
(lp452
(lp453
Vroot
p454
aVROOT
p455
aVwere
p456
aa(lp457
Vexpl
p458
aVwere
p459
aVThere
p460
aa(lp461
Vnum
p462
aVballs
p463
aV10
p464
aa(lp465
Vnn
p466
aVballs
p467
aVbouncy
p468
aa(lp469
Vnsubj
p470
aVwere
p471
aVballs
p472
aa(lp473
Vdet
p474
aVpackage
p475
aVeach
p476
aa(lp477
Vprep_in
p478
aVballs
p479
aVpackage
p480
aasVwords
p481
(lp482
(lp483
VThere
p484
a(dp485
VNamedEntityTag
p486
g108
sVCharacterOffsetEnd
p487
V119
p488
sVCharacterOffsetBegin
p489
V114
p490
sVPartOfSpeech
p491
VEX
p492
sVLemma
p493
Vthere
p494
saa(lp495
Vwere
p496
a(dp497
VNamedEntityTag
p498
g108
sVCharacterOffsetEnd
p499
V124
p500
sVCharacterOffsetBegin
p501
V120
p502
sVPartOfSpeech
p503
VVBD
p504
sVLemma
p505
Vbe
p506
saa(lp507
V10
p508
a(dp509
VNormalizedNamedEntityTag
p510
V10.0
p511
sVLemma
p512
V10
p513
sVCharacterOffsetEnd
p514
V127
p515
sVPartOfSpeech
p516
VCD
p517
sVCharacterOffsetBegin
p518
V125
p519
sVNamedEntityTag
p520
VNUMBER
p521
saa(lp522
Vbouncy
p523
a(dp524
VNamedEntityTag
p525
g108
sVCharacterOffsetEnd
p526
V134
p527
sVCharacterOffsetBegin
p528
V128
p529
sVPartOfSpeech
p530
VNN
p531
sVLemma
p532
Vbouncy
p533
saa(lp534
Vballs
p535
a(dp536
VNamedEntityTag
p537
g108
sVCharacterOffsetEnd
p538
V140
p539
sVCharacterOffsetBegin
p540
V135
p541
sVPartOfSpeech
p542
VNNS
p543
sVLemma
p544
Vball
p545
saa(lp546
Vin
p547
a(dp548
VNamedEntityTag
p549
g108
sVCharacterOffsetEnd
p550
V143
p551
sVCharacterOffsetBegin
p552
V141
p553
sVPartOfSpeech
p554
VIN
p555
sVLemma
p556
Vin
p557
saa(lp558
Veach
p559
a(dp560
VNamedEntityTag
p561
g108
sVCharacterOffsetEnd
p562
V148
p563
sVCharacterOffsetBegin
p564
V144
p565
sVPartOfSpeech
p566
VDT
p567
sVLemma
p568
Veach
p569
saa(lp570
Vpackage
p571
a(dp572
VNamedEntityTag
p573
g108
sVCharacterOffsetEnd
p574
V156
p575
sVCharacterOffsetBegin
p576
V149
p577
sVPartOfSpeech
p578
VNN
p579
sVLemma
p580
Vpackage
p581
saa(lp582
g367
a(dp583
VNamedEntityTag
p584
g108
sVCharacterOffsetEnd
p585
V158
p586
sVCharacterOffsetBegin
p587
V157
p588
sVPartOfSpeech
p589
g367
sVLemma
p590
g367
saasVindexeddependencies
p591
(lp592
(lp593
Vroot
p594
aVROOT-0
p595
aVwere-2
p596
aa(lp597
Vexpl
p598
aVwere-2
p599
aVThere-1
p600
aa(lp601
Vnum
p602
aVballs-5
p603
aV10-3
p604
aa(lp605
Vnn
p606
aVballs-5
p607
aVbouncy-4
p608
aa(lp609
Vnsubj
p610
aVwere-2
p611
aVballs-5
p612
aa(lp613
Vdet
p614
aVpackage-8
p615
aVeach-7
p616
aa(lp617
Vprep_in
p618
aVballs-5
p619
aVpackage-8
p620
aasa(dp621
Vparsetree
p622
V(ROOT (SBARQ (WHNP (WHADJP (WRB How) (JJ many)) (ADJP (JJ bouncy)) (NNS balls)) (SQ (VBD did) (NP (NNP Maggie)) (VP (VB buy) (PP (IN in) (NP (DT all))))) (. ?)))
p623
sVtext
p624
VHow many bouncy balls did Maggie buy in all ?
p625
sVdependencies
p626
(lp627
(lp628
Vroot
p629
aVROOT
p630
aVbuy
p631
aa(lp632
Vadvmod
p633
aVmany
p634
aVHow
p635
aa(lp636
Vamod
p637
aVballs
p638
aVmany
p639
aa(lp640
Vamod
p641
aVballs
p642
aVbouncy
p643
aa(lp644
Vdobj
p645
aVbuy
p646
aVballs
p647
aa(lp648
Vaux
p649
aVbuy
p650
aVdid
p651
aa(lp652
Vnsubj
p653
aVbuy
p654
aVMaggie
p655
aa(lp656
Vprep_in
p657
aVbuy
p658
aVall
p659
aasVwords
p660
(lp661
(lp662
VHow
p663
a(dp664
VNamedEntityTag
p665
g108
sVCharacterOffsetEnd
p666
V162
p667
sVCharacterOffsetBegin
p668
V159
p669
sVPartOfSpeech
p670
VWRB
p671
sVLemma
p672
Vhow
p673
saa(lp674
Vmany
p675
a(dp676
VNamedEntityTag
p677
g108
sVCharacterOffsetEnd
p678
V167
p679
sVCharacterOffsetBegin
p680
V163
p681
sVPartOfSpeech
p682
VJJ
p683
sVLemma
p684
Vmany
p685
saa(lp686
Vbouncy
p687
a(dp688
VNamedEntityTag
p689
g108
sVCharacterOffsetEnd
p690
V174
p691
sVCharacterOffsetBegin
p692
V168
p693
sVPartOfSpeech
p694
VJJ
p695
sVLemma
p696
Vbouncy
p697
saa(lp698
Vballs
p699
a(dp700
VNamedEntityTag
p701
g108
sVCharacterOffsetEnd
p702
V180
p703
sVCharacterOffsetBegin
p704
V175
p705
sVPartOfSpeech
p706
VNNS
p707
sVLemma
p708
Vball
p709
saa(lp710
Vdid
p711
a(dp712
VNamedEntityTag
p713
g108
sVCharacterOffsetEnd
p714
V184
p715
sVCharacterOffsetBegin
p716
V181
p717
sVPartOfSpeech
p718
VVBD
p719
sVLemma
p720
Vdo
p721
saa(lp722
VMaggie
p723
a(dp724
VNamedEntityTag
p725
VPERSON
p726
sVCharacterOffsetEnd
p727
V191
p728
sVCharacterOffsetBegin
p729
V185
p730
sVPartOfSpeech
p731
VNNP
p732
sVLemma
p733
VMaggie
p734
saa(lp735
Vbuy
p736
a(dp737
VNamedEntityTag
p738
g108
sVCharacterOffsetEnd
p739
V195
p740
sVCharacterOffsetBegin
p741
V192
p742
sVPartOfSpeech
p743
VVB
p744
sVLemma
p745
Vbuy
p746
saa(lp747
Vin
p748
a(dp749
VNamedEntityTag
p750
g108
sVCharacterOffsetEnd
p751
V198
p752
sVCharacterOffsetBegin
p753
V196
p754
sVPartOfSpeech
p755
VIN
p756
sVLemma
p757
Vin
p758
saa(lp759
Vall
p760
a(dp761
VNamedEntityTag
p762
g108
sVCharacterOffsetEnd
p763
V202
p764
sVCharacterOffsetBegin
p765
V199
p766
sVPartOfSpeech
p767
VDT
p768
sVLemma
p769
Vall
p770
saa(lp771
V?
p772
a(dp773
VNamedEntityTag
p774
g108
sVCharacterOffsetEnd
p775
V204
p776
sVCharacterOffsetBegin
p777
V203
p778
sVPartOfSpeech
p779
g367
sVLemma
p780
g772
saasVindexeddependencies
p781
(lp782
(lp783
Vroot
p784
aVROOT-0
p785
aVbuy-7
p786
aa(lp787
Vadvmod
p788
aVmany-2
p789
aVHow-1
p790
aa(lp791
Vamod
p792
aVballs-4
p793
aVmany-2
p794
aa(lp795
Vamod
p796
aVballs-4
p797
aVbouncy-3
p798
aa(lp799
Vdobj
p800
aVbuy-7
p801
aVballs-4
p802
aa(lp803
Vaux
p804
aVbuy-7
p805
aVdid-5
p806
aa(lp807
Vnsubj
p808
aVbuy-7
p809
aVMaggie-6
p810
aa(lp811
Vprep_in
p812
aVbuy-7
p813
aVall-9
p814
aasas.