(dp0
Vcoref
p1
(lp2
(lp3
(lp4
(lp5
Vher
p6
aI0
aI9
aI9
aI10
aa(lp7
VLisa
p8
aI0
aI0
aI0
aI1
aaaa(lp9
(lp10
(lp11
Vthe students
p12
aI2
aI4
aI3
aI5
aa(lp13
V6 students
p14
aI1
aI1
aI0
aI2
aaaa(lp15
(lp16
(lp17
Va vanilla cupcake
p18
aI2
aI8
aI6
aI9
aa(lp19
Va vanilla cupcake
p20
aI1
aI5
aI3
aI6
aaaasVsentences
p21
(lp22
(dp23
Vparsetree
p24
V(ROOT (S (NP (NNP Lisa)) (VP (VBD brought) (NP (NN chocolate) (CC and) (NN vanilla) (NNS cupcakes)) (PP (TO to) (NP (NN school))) (PP (IN for) (NP (PRP$ her) (NN birthday)))) (. .)))
p25
sVtext
p26
VLisa brought chocolate and vanilla cupcakes to school for her birthday .
p27
sVdependencies
p28
(lp29
(lp30
Vroot
p31
aVROOT
p32
aVbrought
p33
aa(lp34
Vnsubj
p35
aVbrought
p36
aVLisa
p37
aa(lp38
Vnn
p39
aVcupcakes
p40
aVchocolate
p41
aa(lp42
Vconj_and
p43
aVchocolate
p44
aVvanilla
p45
aa(lp46
Vdobj
p47
aVbrought
p48
aVcupcakes
p49
aa(lp50
Vprep_to
p51
aVbrought
p52
aVschool
p53
aa(lp54
Vposs
p55
aVbirthday
p56
aVher
p57
aa(lp58
Vprep_for
p59
aVbrought
p60
aVbirthday
p61
aasVwords
p62
(lp63
(lp64
VLisa
p65
a(dp66
VNamedEntityTag
p67
VPERSON
p68
sVCharacterOffsetEnd
p69
V5
p70
sVCharacterOffsetBegin
p71
V1
p72
sVPartOfSpeech
p73
VNNP
p74
sVLemma
p75
VLisa
p76
saa(lp77
Vbrought
p78
a(dp79
VNamedEntityTag
p80
VO
p81
sVCharacterOffsetEnd
p82
V13
p83
sVCharacterOffsetBegin
p84
V6
p85
sVPartOfSpeech
p86
VVBD
p87
sVLemma
p88
Vbring
p89
saa(lp90
Vchocolate
p91
a(dp92
VNamedEntityTag
p93
g81
sVCharacterOffsetEnd
p94
V23
p95
sVCharacterOffsetBegin
p96
V14
p97
sVPartOfSpeech
p98
VNN
p99
sVLemma
p100
Vchocolate
p101
saa(lp102
Vand
p103
a(dp104
VNamedEntityTag
p105
g81
sVCharacterOffsetEnd
p106
V27
p107
sVCharacterOffsetBegin
p108
V24
p109
sVPartOfSpeech
p110
VCC
p111
sVLemma
p112
Vand
p113
saa(lp114
Vvanilla
p115
a(dp116
VNamedEntityTag
p117
g81
sVCharacterOffsetEnd
p118
V35
p119
sVCharacterOffsetBegin
p120
V28
p121
sVPartOfSpeech
p122
VNN
p123
sVLemma
p124
Vvanilla
p125
saa(lp126
Vcupcakes
p127
a(dp128
VNamedEntityTag
p129
g81
sVCharacterOffsetEnd
p130
V44
p131
sVCharacterOffsetBegin
p132
V36
p133
sVPartOfSpeech
p134
VNNS
p135
sVLemma
p136
Vcupcake
p137
saa(lp138
Vto
p139
a(dp140
VNamedEntityTag
p141
g81
sVCharacterOffsetEnd
p142
V47
p143
sVCharacterOffsetBegin
p144
V45
p145
sVPartOfSpeech
p146
VTO
p147
sVLemma
p148
Vto
p149
saa(lp150
Vschool
p151
a(dp152
VNamedEntityTag
p153
g81
sVCharacterOffsetEnd
p154
V54
p155
sVCharacterOffsetBegin
p156
V48
p157
sVPartOfSpeech
p158
VNN
p159
sVLemma
p160
Vschool
p161
saa(lp162
Vfor
p163
a(dp164
VNamedEntityTag
p165
g81
sVCharacterOffsetEnd
p166
V58
p167
sVCharacterOffsetBegin
p168
V55
p169
sVPartOfSpeech
p170
VIN
p171
sVLemma
p172
Vfor
p173
saa(lp174
Vher
p175
a(dp176
VNamedEntityTag
p177
g81
sVCharacterOffsetEnd
p178
V62
p179
sVCharacterOffsetBegin
p180
V59
p181
sVPartOfSpeech
p182
VPRP$
p183
sVLemma
p184
Vshe
p185
saa(lp186
Vbirthday
p187
a(dp188
VNamedEntityTag
p189
g81
sVCharacterOffsetEnd
p190
V71
p191
sVCharacterOffsetBegin
p192
V63
p193
sVPartOfSpeech
p194
VNN
p195
sVLemma
p196
Vbirthday
p197
saa(lp198
V.
p199
a(dp200
VNamedEntityTag
p201
g81
sVCharacterOffsetEnd
p202
V73
p203
sVCharacterOffsetBegin
p204
V72
p205
sVPartOfSpeech
p206
g199
sVLemma
p207
g199
saasVindexeddependencies
p208
(lp209
(lp210
Vroot
p211
aVROOT-0
p212
aVbrought-2
p213
aa(lp214
Vnsubj
p215
aVbrought-2
p216
aVLisa-1
p217
aa(lp218
Vnn
p219
aVcupcakes-6
p220
aVchocolate-3
p221
aa(lp222
Vconj_and
p223
aVchocolate-3
p224
aVvanilla-5
p225
aa(lp226
Vdobj
p227
aVbrought-2
p228
aVcupcakes-6
p229
aa(lp230
Vprep_to
p231
aVbrought-2
p232
aVschool-8
p233
aa(lp234
Vposs
p235
aVbirthday-11
p236
aVher-10
p237
aa(lp238
Vprep_for
p239
aVbrought-2
p240
aVbirthday-11
p241
aasa(dp242
Vparsetree
p243
V(ROOT (S (NP (CD 6) (NNS students)) (VP (VBD picked) (SBAR (S (NP (NP (DT a) (NN vanilla) (NN cupcake)) (CC and) (NP (CD 18) (NNS students))) (VP (VBD picked) (NP (DT a) (NN chocolate) (NN cupcake)))))) (. .)))
p244
sVtext
p245
V6 students picked a vanilla cupcake and 18 students picked a chocolate cupcake .
p246
sVdependencies
p247
(lp248
(lp249
Vroot
p250
aVROOT
p251
aVpicked
p252
aa(lp253
Vnum
p254
aVstudents
p255
ag85
aa(lp256
Vnsubj
p257
aVpicked
p258
aVstudents
p259
aa(lp260
Vdet
p261
aVcupcake
p262
aVa
p263
aa(lp264
Vnn
p265
aVcupcake
p266
aVvanilla
p267
aa(lp268
Vnsubj
p269
aVpicked
p270
aVcupcake
p271
aa(lp272
Vnum
p273
aVstudents
p274
aV18
p275
aa(lp276
Vconj_and
p277
aVcupcake
p278
aVstudents
p279
aa(lp280
Vccomp
p281
aVpicked
p282
aVpicked
p283
aa(lp284
Vdet
p285
aVcupcake
p286
ag263
aa(lp287
Vnn
p288
aVcupcake
p289
aVchocolate
p290
aa(lp291
Vdobj
p292
aVpicked
p293
aVcupcake
p294
aasVwords
p295
(lp296
(lp297
g85
a(dp298
VNormalizedNamedEntityTag
p299
V6.0
p300
sVLemma
p301
g85
sVCharacterOffsetEnd
p302
V75
p303
sVPartOfSpeech
p304
VCD
p305
sVCharacterOffsetBegin
p306
V74
p307
sVNamedEntityTag
p308
VNUMBER
p309
saa(lp310
Vstudents
p311
a(dp312
VNamedEntityTag
p313
g81
sVCharacterOffsetEnd
p314
V84
p315
sVCharacterOffsetBegin
p316
V76
p317
sVPartOfSpeech
p318
VNNS
p319
sVLemma
p320
Vstudent
p321
saa(lp322
Vpicked
p323
a(dp324
VNamedEntityTag
p325
g81
sVCharacterOffsetEnd
p326
V91
p327
sVCharacterOffsetBegin
p328
V85
p329
sVPartOfSpeech
p330
VVBD
p331
sVLemma
p332
Vpick
p333
saa(lp334
g263
a(dp335
VNamedEntityTag
p336
g81
sVCharacterOffsetEnd
p337
V93
p338
sVCharacterOffsetBegin
p339
V92
p340
sVPartOfSpeech
p341
VDT
p342
sVLemma
p343
g263
saa(lp344
Vvanilla
p345
a(dp346
VNamedEntityTag
p347
g81
sVCharacterOffsetEnd
p348
V101
p349
sVCharacterOffsetBegin
p350
V94
p351
sVPartOfSpeech
p352
VNN
p353
sVLemma
p354
Vvanilla
p355
saa(lp356
Vcupcake
p357
a(dp358
VNamedEntityTag
p359
g81
sVCharacterOffsetEnd
p360
V109
p361
sVCharacterOffsetBegin
p362
V102
p363
sVPartOfSpeech
p364
VNN
p365
sVLemma
p366
Vcupcake
p367
saa(lp368
Vand
p369
a(dp370
VNamedEntityTag
p371
g81
sVCharacterOffsetEnd
p372
V113
p373
sVCharacterOffsetBegin
p374
V110
p375
sVPartOfSpeech
p376
VCC
p377
sVLemma
p378
Vand
p379
saa(lp380
V18
p381
a(dp382
VNormalizedNamedEntityTag
p383
V18.0
p384
sVLemma
p385
V18
p386
sVCharacterOffsetEnd
p387
V116
p388
sVPartOfSpeech
p389
VCD
p390
sVCharacterOffsetBegin
p391
V114
p392
sVNamedEntityTag
p393
VNUMBER
p394
saa(lp395
Vstudents
p396
a(dp397
VNamedEntityTag
p398
g81
sVCharacterOffsetEnd
p399
V125
p400
sVCharacterOffsetBegin
p401
V117
p402
sVPartOfSpeech
p403
VNNS
p404
sVLemma
p405
Vstudent
p406
saa(lp407
Vpicked
p408
a(dp409
VNamedEntityTag
p410
g81
sVCharacterOffsetEnd
p411
V132
p412
sVCharacterOffsetBegin
p413
V126
p414
sVPartOfSpeech
p415
VVBD
p416
sVLemma
p417
Vpick
p418
saa(lp419
g263
a(dp420
VNamedEntityTag
p421
g81
sVCharacterOffsetEnd
p422
V134
p423
sVCharacterOffsetBegin
p424
V133
p425
sVPartOfSpeech
p426
VDT
p427
sVLemma
p428
g263
saa(lp429
Vchocolate
p430
a(dp431
VNamedEntityTag
p432
g81
sVCharacterOffsetEnd
p433
V144
p434
sVCharacterOffsetBegin
p435
V135
p436
sVPartOfSpeech
p437
VNN
p438
sVLemma
p439
Vchocolate
p440
saa(lp441
Vcupcake
p442
a(dp443
VNamedEntityTag
p444
g81
sVCharacterOffsetEnd
p445
V152
p446
sVCharacterOffsetBegin
p447
V145
p448
sVPartOfSpeech
p449
VNN
p450
sVLemma
p451
Vcupcake
p452
saa(lp453
g199
a(dp454
VNamedEntityTag
p455
g81
sVCharacterOffsetEnd
p456
V154
p457
sVCharacterOffsetBegin
p458
V153
p459
sVPartOfSpeech
p460
g199
sVLemma
p461
g199
saasVindexeddependencies
p462
(lp463
(lp464
Vroot
p465
aVROOT-0
p466
aVpicked-3
p467
aa(lp468
Vnum
p469
aVstudents-2
p470
aV6-1
p471
aa(lp472
Vnsubj
p473
aVpicked-3
p474
aVstudents-2
p475
aa(lp476
Vdet
p477
aVcupcake-6
p478
aVa-4
p479
aa(lp480
Vnn
p481
aVcupcake-6
p482
aVvanilla-5
p483
aa(lp484
Vnsubj
p485
aVpicked-10
p486
aVcupcake-6
p487
aa(lp488
Vnum
p489
aVstudents-9
p490
aV18-8
p491
aa(lp492
Vconj_and
p493
aVcupcake-6
p494
aVstudents-9
p495
aa(lp496
Vccomp
p497
aVpicked-3
p498
aVpicked-10
p499
aa(lp500
Vdet
p501
aVcupcake-13
p502
aVa-11
p503
aa(lp504
Vnn
p505
aVcupcake-13
p506
aVchocolate-12
p507
aa(lp508
Vdobj
p509
aVpicked-10
p510
aVcupcake-13
p511
aasa(dp512
Vparsetree
p513
V(ROOT (SBARQ (WHNP (WHNP (WDT What) (NN percentage)) (PP (IN of) (NP (DT the) (NNS students)))) (SQ (VP (VBD picked) (NP (DT a) (NN vanilla) (NN cupcake)))) (. ?)))
p514
sVtext
p515
VWhat percentage of the students picked a vanilla cupcake ?
p516
sVdependencies
p517
(lp518
(lp519
Vroot
p520
aVROOT
p521
aVpicked
p522
aa(lp523
Vdet
p524
aVpercentage
p525
aVWhat
p526
aa(lp527
Vnsubj
p528
aVpicked
p529
aVpercentage
p530
aa(lp531
Vdet
p532
aVstudents
p533
aVthe
p534
aa(lp535
Vprep_of
p536
aVpercentage
p537
aVstudents
p538
aa(lp539
Vdet
p540
aVcupcake
p541
ag263
aa(lp542
Vnn
p543
aVcupcake
p544
aVvanilla
p545
aa(lp546
Vdobj
p547
aVpicked
p548
aVcupcake
p549
aasVwords
p550
(lp551
(lp552
VWhat
p553
a(dp554
VNamedEntityTag
p555
g81
sVCharacterOffsetEnd
p556
V159
p557
sVCharacterOffsetBegin
p558
V155
p559
sVPartOfSpeech
p560
VWDT
p561
sVLemma
p562
Vwhat
p563
saa(lp564
Vpercentage
p565
a(dp566
VNamedEntityTag
p567
g81
sVCharacterOffsetEnd
p568
V170
p569
sVCharacterOffsetBegin
p570
V160
p571
sVPartOfSpeech
p572
VNN
p573
sVLemma
p574
Vpercentage
p575
saa(lp576
Vof
p577
a(dp578
VNamedEntityTag
p579
g81
sVCharacterOffsetEnd
p580
V173
p581
sVCharacterOffsetBegin
p582
V171
p583
sVPartOfSpeech
p584
VIN
p585
sVLemma
p586
Vof
p587
saa(lp588
Vthe
p589
a(dp590
VNamedEntityTag
p591
g81
sVCharacterOffsetEnd
p592
V177
p593
sVCharacterOffsetBegin
p594
V174
p595
sVPartOfSpeech
p596
VDT
p597
sVLemma
p598
Vthe
p599
saa(lp600
Vstudents
p601
a(dp602
VNamedEntityTag
p603
g81
sVCharacterOffsetEnd
p604
V186
p605
sVCharacterOffsetBegin
p606
V178
p607
sVPartOfSpeech
p608
VNNS
p609
sVLemma
p610
Vstudent
p611
saa(lp612
Vpicked
p613
a(dp614
VNamedEntityTag
p615
g81
sVCharacterOffsetEnd
p616
V193
p617
sVCharacterOffsetBegin
p618
V187
p619
sVPartOfSpeech
p620
VVBD
p621
sVLemma
p622
Vpick
p623
saa(lp624
g263
a(dp625
VNamedEntityTag
p626
g81
sVCharacterOffsetEnd
p627
V195
p628
sVCharacterOffsetBegin
p629
V194
p630
sVPartOfSpeech
p631
VDT
p632
sVLemma
p633
g263
saa(lp634
Vvanilla
p635
a(dp636
VNamedEntityTag
p637
g81
sVCharacterOffsetEnd
p638
V203
p639
sVCharacterOffsetBegin
p640
V196
p641
sVPartOfSpeech
p642
VNN
p643
sVLemma
p644
Vvanilla
p645
saa(lp646
Vcupcake
p647
a(dp648
VNamedEntityTag
p649
g81
sVCharacterOffsetEnd
p650
V211
p651
sVCharacterOffsetBegin
p652
V204
p653
sVPartOfSpeech
p654
VNN
p655
sVLemma
p656
Vcupcake
p657
saa(lp658
V?
p659
a(dp660
VNamedEntityTag
p661
g81
sVCharacterOffsetEnd
p662
V213
p663
sVCharacterOffsetBegin
p664
V212
p665
sVPartOfSpeech
p666
g199
sVLemma
p667
g659
saasVindexeddependencies
p668
(lp669
(lp670
Vroot
p671
aVROOT-0
p672
aVpicked-6
p673
aa(lp674
Vdet
p675
aVpercentage-2
p676
aVWhat-1
p677
aa(lp678
Vnsubj
p679
aVpicked-6
p680
aVpercentage-2
p681
aa(lp682
Vdet
p683
aVstudents-5
p684
aVthe-4
p685
aa(lp686
Vprep_of
p687
aVpercentage-2
p688
aVstudents-5
p689
aa(lp690
Vdet
p691
aVcupcake-9
p692
aVa-7
p693
aa(lp694
Vnn
p695
aVcupcake-9
p696
aVvanilla-8
p697
aa(lp698
Vdobj
p699
aVpicked-6
p700
aVcupcake-9
p701
aasas.