(dp0
Vcoref
p1
(lp2
(lp3
(lp4
(lp5
Vhe
p6
aI1
aI1
aI1
aI2
aa(lp7
VDave
p8
aI0
aI3
aI3
aI4
aaa(lp9
(lp10
Vhe
p11
aI1
aI18
aI18
aI19
aa(lp12
VDave
p13
aI0
aI3
aI3
aI4
aaaasVsentences
p14
(lp15
(dp16
Vparsetree
p17
V(ROOT (S (PP (IN At) (NP (DT the) (NN arcade))) (NP (NNP Dave)) (VP (VBD won) (NP (CD 11) (NNS tickets))) (. .)))
p18
sVtext
p19
VAt the arcade Dave won 11 tickets .
p20
sVdependencies
p21
(lp22
(lp23
Vroot
p24
aVROOT
p25
aVwon
p26
aa(lp27
Vdet
p28
aVarcade
p29
aVthe
p30
aa(lp31
Vprep_at
p32
aVwon
p33
aVarcade
p34
aa(lp35
Vnsubj
p36
aVwon
p37
aVDave
p38
aa(lp39
Vnum
p40
aVtickets
p41
aV11
p42
aa(lp43
Vdobj
p44
aVwon
p45
aVtickets
p46
aasVwords
p47
(lp48
(lp49
VAt
p50
a(dp51
VNamedEntityTag
p52
VO
p53
sVCharacterOffsetEnd
p54
V3
p55
sVCharacterOffsetBegin
p56
V1
p57
sVPartOfSpeech
p58
VIN
p59
sVLemma
p60
Vat
p61
saa(lp62
Vthe
p63
a(dp64
VNamedEntityTag
p65
g53
sVCharacterOffsetEnd
p66
V7
p67
sVCharacterOffsetBegin
p68
V4
p69
sVPartOfSpeech
p70
VDT
p71
sVLemma
p72
Vthe
p73
saa(lp74
Varcade
p75
a(dp76
VNamedEntityTag
p77
g53
sVCharacterOffsetEnd
p78
V14
p79
sVCharacterOffsetBegin
p80
V8
p81
sVPartOfSpeech
p82
VNN
p83
sVLemma
p84
Varcade
p85
saa(lp86
VDave
p87
a(dp88
VNamedEntityTag
p89
VPERSON
p90
sVCharacterOffsetEnd
p91
V19
p92
sVCharacterOffsetBegin
p93
V15
p94
sVPartOfSpeech
p95
VNNP
p96
sVLemma
p97
VDave
p98
saa(lp99
Vwon
p100
a(dp101
VNamedEntityTag
p102
g53
sVCharacterOffsetEnd
p103
V23
p104
sVCharacterOffsetBegin
p105
V20
p106
sVPartOfSpeech
p107
VVBD
p108
sVLemma
p109
Vwin
p110
saa(lp111
V11
p112
a(dp113
VNormalizedNamedEntityTag
p114
V11.0
p115
sVLemma
p116
V11
p117
sVCharacterOffsetEnd
p118
V26
p119
sVPartOfSpeech
p120
VCD
p121
sVCharacterOffsetBegin
p122
V24
p123
sVNamedEntityTag
p124
VNUMBER
p125
saa(lp126
Vtickets
p127
a(dp128
VNamedEntityTag
p129
g53
sVCharacterOffsetEnd
p130
V34
p131
sVCharacterOffsetBegin
p132
V27
p133
sVPartOfSpeech
p134
VNNS
p135
sVLemma
p136
Vticket
p137
saa(lp138
V.
p139
a(dp140
VNamedEntityTag
p141
g53
sVCharacterOffsetEnd
p142
V36
p143
sVCharacterOffsetBegin
p144
V35
p145
sVPartOfSpeech
p146
g139
sVLemma
p147
g139
saasVindexeddependencies
p148
(lp149
(lp150
Vroot
p151
aVROOT-0
p152
aVwon-5
p153
aa(lp154
Vdet
p155
aVarcade-3
p156
aVthe-2
p157
aa(lp158
Vprep_at
p159
aVwon-5
p160
aVarcade-3
p161
aa(lp162
Vnsubj
p163
aVwon-5
p164
aVDave-4
p165
aa(lp166
Vnum
p167
aVtickets-7
p168
aV11-6
p169
aa(lp170
Vdobj
p171
aVwon-5
p172
aVtickets-7
p173
aasa(dp174
Vparsetree
p175
V(ROOT (SBARQ (SBAR (IN If) (S (NP (PRP he)) (VP (VP (VBD spent) (NP (CD 5) (NNS tickets)) (PP (IN on) (NP (DT a) (NN beanie)))) (CC and) (VP (ADVP (RB later)) (VBD won) (NP (QP (CD 10) (JJR more)) (NNS tickets)))))) (, ,) (WHNP (WRB how) (JJ many)) (SQ (MD would) (NP (PRP he)) (VP (VB have))) (. ?)))
p176
sVtext
p177
VIf he spent 5 tickets on a beanie and later won 10 more tickets , how many would he have ?
p178
sVdependencies
p179
(lp180
(lp181
Vroot
p182
aVROOT
p183
aVhave
p184
aa(lp185
Vmark
p186
aVspent
p187
aVIf
p188
aa(lp189
Vnsubj
p190
aVspent
p191
aVhe
p192
aa(lp193
Vadvcl
p194
aVhave
p195
aVspent
p196
aa(lp197
Vnum
p198
aVtickets
p199
aV5
p200
aa(lp201
Vdobj
p202
aVspent
p203
aVtickets
p204
aa(lp205
Vdet
p206
aVbeanie
p207
aVa
p208
aa(lp209
Vprep_on
p210
aVspent
p211
aVbeanie
p212
aa(lp213
Vadvmod
p214
aVwon
p215
aVlater
p216
aa(lp217
Vconj_and
p218
aVspent
p219
aVwon
p220
aa(lp221
Vnum
p222
aVtickets
p223
aV10
p224
aa(lp225
Vquantmod
p226
aV10
p227
aVmore
p228
aa(lp229
Vdobj
p230
aVwon
p231
aVtickets
p232
aa(lp233
Vadvmod
p234
aVmany
p235
aVhow
p236
aa(lp237
Vdep
p238
aVhave
p239
aVmany
p240
aa(lp241
Vaux
p242
aVhave
p243
aVwould
p244
aa(lp245
Vnsubj
p246
aVhave
p247
aVhe
p248
aasVwords
p249
(lp250
(lp251
VIf
p252
a(dp253
VNamedEntityTag
p254
g53
sVCharacterOffsetEnd
p255
V39
p256
sVCharacterOffsetBegin
p257
V37
p258
sVPartOfSpeech
p259
VIN
p260
sVLemma
p261
Vif
p262
saa(lp263
Vhe
p264
a(dp265
VNamedEntityTag
p266
g53
sVCharacterOffsetEnd
p267
V42
p268
sVCharacterOffsetBegin
p269
V40
p270
sVPartOfSpeech
p271
VPRP
p272
sVLemma
p273
Vhe
p274
saa(lp275
Vspent
p276
a(dp277
VNamedEntityTag
p278
g53
sVCharacterOffsetEnd
p279
V48
p280
sVCharacterOffsetBegin
p281
V43
p282
sVPartOfSpeech
p283
VVBD
p284
sVLemma
p285
Vspend
p286
saa(lp287
g200
a(dp288
VNormalizedNamedEntityTag
p289
V5.0
p290
sVLemma
p291
g200
sVCharacterOffsetEnd
p292
V50
p293
sVPartOfSpeech
p294
VCD
p295
sVCharacterOffsetBegin
p296
V49
p297
sVNamedEntityTag
p298
VNUMBER
p299
saa(lp300
Vtickets
p301
a(dp302
VNamedEntityTag
p303
g53
sVCharacterOffsetEnd
p304
V58
p305
sVCharacterOffsetBegin
p306
V51
p307
sVPartOfSpeech
p308
VNNS
p309
sVLemma
p310
Vticket
p311
saa(lp312
Von
p313
a(dp314
VNamedEntityTag
p315
g53
sVCharacterOffsetEnd
p316
V61
p317
sVCharacterOffsetBegin
p318
V59
p319
sVPartOfSpeech
p320
VIN
p321
sVLemma
p322
Von
p323
saa(lp324
g208
a(dp325
VNamedEntityTag
p326
g53
sVCharacterOffsetEnd
p327
V63
p328
sVCharacterOffsetBegin
p329
V62
p330
sVPartOfSpeech
p331
VDT
p332
sVLemma
p333
g208
saa(lp334
Vbeanie
p335
a(dp336
VNamedEntityTag
p337
g53
sVCharacterOffsetEnd
p338
V70
p339
sVCharacterOffsetBegin
p340
V64
p341
sVPartOfSpeech
p342
VNN
p343
sVLemma
p344
Vbeanie
p345
saa(lp346
Vand
p347
a(dp348
VNamedEntityTag
p349
g53
sVCharacterOffsetEnd
p350
V74
p351
sVCharacterOffsetBegin
p352
V71
p353
sVPartOfSpeech
p354
VCC
p355
sVLemma
p356
Vand
p357
saa(lp358
Vlater
p359
a(dp360
VNamedEntityTag
p361
g53
sVCharacterOffsetEnd
p362
V80
p363
sVCharacterOffsetBegin
p364
V75
p365
sVPartOfSpeech
p366
VRB
p367
sVLemma
p368
Vlater
p369
saa(lp370
Vwon
p371
a(dp372
VNamedEntityTag
p373
g53
sVCharacterOffsetEnd
p374
V84
p375
sVCharacterOffsetBegin
p376
V81
p377
sVPartOfSpeech
p378
VVBD
p379
sVLemma
p380
Vwin
p381
saa(lp382
V10
p383
a(dp384
VNormalizedNamedEntityTag
p385
V10.0
p386
sVLemma
p387
V10
p388
sVCharacterOffsetEnd
p389
V87
p390
sVPartOfSpeech
p391
VCD
p392
sVCharacterOffsetBegin
p393
V85
p394
sVNamedEntityTag
p395
VNUMBER
p396
saa(lp397
Vmore
p398
a(dp399
VNamedEntityTag
p400
g53
sVCharacterOffsetEnd
p401
V92
p402
sVCharacterOffsetBegin
p403
V88
p404
sVPartOfSpeech
p405
VJJR
p406
sVLemma
p407
Vmore
p408
saa(lp409
Vtickets
p410
a(dp411
VNamedEntityTag
p412
g53
sVCharacterOffsetEnd
p413
V100
p414
sVCharacterOffsetBegin
p415
V93
p416
sVPartOfSpeech
p417
VNNS
p418
sVLemma
p419
Vticket
p420
saa(lp421
V,
p422
a(dp423
VNamedEntityTag
p424
g53
sVCharacterOffsetEnd
p425
V102
p426
sVCharacterOffsetBegin
p427
V101
p428
sVPartOfSpeech
p429
g422
sVLemma
p430
g422
saa(lp431
Vhow
p432
a(dp433
VNamedEntityTag
p434
g53
sVCharacterOffsetEnd
p435
V106
p436
sVCharacterOffsetBegin
p437
V103
p438
sVPartOfSpeech
p439
VWRB
p440
sVLemma
p441
Vhow
p442
saa(lp443
Vmany
p444
a(dp445
VNamedEntityTag
p446
g53
sVCharacterOffsetEnd
p447
V111
p448
sVCharacterOffsetBegin
p449
V107
p450
sVPartOfSpeech
p451
VJJ
p452
sVLemma
p453
Vmany
p454
saa(lp455
Vwould
p456
a(dp457
VNamedEntityTag
p458
g53
sVCharacterOffsetEnd
p459
V117
p460
sVCharacterOffsetBegin
p461
V112
p462
sVPartOfSpeech
p463
VMD
p464
sVLemma
p465
Vwould
p466
saa(lp467
Vhe
p468
a(dp469
VNamedEntityTag
p470
g53
sVCharacterOffsetEnd
p471
V120
p472
sVCharacterOffsetBegin
p473
V118
p474
sVPartOfSpeech
p475
VPRP
p476
sVLemma
p477
Vhe
p478
saa(lp479
Vhave
p480
a(dp481
VNamedEntityTag
p482
g53
sVCharacterOffsetEnd
p483
V125
p484
sVCharacterOffsetBegin
p485
V121
p486
sVPartOfSpeech
p487
VVB
p488
sVLemma
p489
Vhave
p490
saa(lp491
V?
p492
a(dp493
VNamedEntityTag
p494
g53
sVCharacterOffsetEnd
p495
V127
p496
sVCharacterOffsetBegin
p497
V126
p498
sVPartOfSpeech
p499
g139
sVLemma
p500
g492
saasVindexeddependencies
p501
(lp502
(lp503
Vroot
p504
aVROOT-0
p505
aVhave-20
p506
aa(lp507
Vmark
p508
aVspent-3
p509
aVIf-1
p510
aa(lp511
Vnsubj
p512
aVspent-3
p513
aVhe-2
p514
aa(lp515
Vadvcl
p516
aVhave-20
p517
aVspent-3
p518
aa(lp519
Vnum
p520
aVtickets-5
p521
aV5-4
p522
aa(lp523
Vdobj
p524
aVspent-3
p525
aVtickets-5
p526
aa(lp527
Vdet
p528
aVbeanie-8
p529
aVa-7
p530
aa(lp531
Vprep_on
p532
aVspent-3
p533
aVbeanie-8
p534
aa(lp535
Vadvmod
p536
aVwon-11
p537
aVlater-10
p538
aa(lp539
Vconj_and
p540
aVspent-3
p541
aVwon-11
p542
aa(lp543
Vnum
p544
aVtickets-14
p545
aV10-12
p546
aa(lp547
Vquantmod
p548
aV10-12
p549
aVmore-13
p550
aa(lp551
Vdobj
p552
aVwon-11
p553
aVtickets-14
p554
aa(lp555
Vadvmod
p556
aVmany-17
p557
aVhow-16
p558
aa(lp559
Vdep
p560
aVhave-20
p561
aVmany-17
p562
aa(lp563
Vaux
p564
aVhave-20
p565
aVwould-18
p566
aa(lp567
Vnsubj
p568
aVhave-20
p569
aVhe-19
p570
aasas.