(dp0
Vcoref
p1
(lp2
(lp3
(lp4
(lp5
Vfourth
p6
aI2
aI5
aI5
aI6
aa(lp7
Vfourth
p8
aI0
aI1
aI1
aI2
aaaa(lp9
(lp10
(lp11
Vthe year
p12
aI1
aI2
aI1
aI3
aa(lp13
Vthe year
p14
aI0
aI12
aI11
aI13
aaaasVsentences
p15
(lp16
(dp17
Vparsetree
p18
V(ROOT (S (PP (IN In) (NP (JJ fourth) (NN grade))) (NP (EX there)) (VP (VBD were) (NP (NP (CD 11) (NNS students)) (PP (IN at) (NP (NP (DT the) (NN start)) (PP (IN of) (NP (DT the) (NN year))))))) (. .)))
p19
sVtext
p20
VIn fourth grade there were 11 students at the start of the year .
p21
sVdependencies
p22
(lp23
(lp24
Vroot
p25
aVROOT
p26
aVwere
p27
aa(lp28
Vamod
p29
aVgrade
p30
aVfourth
p31
aa(lp32
Vprep_in
p33
aVwere
p34
aVgrade
p35
aa(lp36
Vexpl
p37
aVwere
p38
aVthere
p39
aa(lp40
Vnum
p41
aVstudents
p42
aV11
p43
aa(lp44
Vnsubj
p45
aVwere
p46
aVstudents
p47
aa(lp48
Vdet
p49
aVstart
p50
aVthe
p51
aa(lp52
Vprep_at
p53
aVstudents
p54
aVstart
p55
aa(lp56
Vdet
p57
aVyear
p58
aVthe
p59
aa(lp60
Vprep_of
p61
aVstart
p62
aVyear
p63
aasVwords
p64
(lp65
(lp66
VIn
p67
a(dp68
VNamedEntityTag
p69
VO
p70
sVCharacterOffsetEnd
p71
V3
p72
sVCharacterOffsetBegin
p73
V1
p74
sVPartOfSpeech
p75
VIN
p76
sVLemma
p77
Vin
p78
saa(lp79
Vfourth
p80
a(dp81
VNormalizedNamedEntityTag
p82
V4.0
p83
sVLemma
p84
Vfourth
p85
sVCharacterOffsetEnd
p86
V10
p87
sVPartOfSpeech
p88
VJJ
p89
sVCharacterOffsetBegin
p90
V4
p91
sVNamedEntityTag
p92
VORDINAL
p93
saa(lp94
Vgrade
p95
a(dp96
VNamedEntityTag
p97
g70
sVCharacterOffsetEnd
p98
V16
p99
sVCharacterOffsetBegin
p100
V11
p101
sVPartOfSpeech
p102
VNN
p103
sVLemma
p104
Vgrade
p105
saa(lp106
Vthere
p107
a(dp108
VNamedEntityTag
p109
g70
sVCharacterOffsetEnd
p110
V22
p111
sVCharacterOffsetBegin
p112
V17
p113
sVPartOfSpeech
p114
VEX
p115
sVLemma
p116
Vthere
p117
saa(lp118
Vwere
p119
a(dp120
VNamedEntityTag
p121
g70
sVCharacterOffsetEnd
p122
V27
p123
sVCharacterOffsetBegin
p124
V23
p125
sVPartOfSpeech
p126
VVBD
p127
sVLemma
p128
Vbe
p129
saa(lp130
V11
p131
a(dp132
VNormalizedNamedEntityTag
p133
V11.0
p134
sVLemma
p135
V11
p136
sVCharacterOffsetEnd
p137
V30
p138
sVPartOfSpeech
p139
VCD
p140
sVCharacterOffsetBegin
p141
V28
p142
sVNamedEntityTag
p143
VNUMBER
p144
saa(lp145
Vstudents
p146
a(dp147
VNamedEntityTag
p148
g70
sVCharacterOffsetEnd
p149
V39
p150
sVCharacterOffsetBegin
p151
V31
p152
sVPartOfSpeech
p153
VNNS
p154
sVLemma
p155
Vstudent
p156
saa(lp157
Vat
p158
a(dp159
VNamedEntityTag
p160
g70
sVCharacterOffsetEnd
p161
V42
p162
sVCharacterOffsetBegin
p163
V40
p164
sVPartOfSpeech
p165
VIN
p166
sVLemma
p167
Vat
p168
saa(lp169
Vthe
p170
a(dp171
VNormalizedNamedEntityTag
p172
VTHIS
p173
sVTimex
p174
V<TIMEX3 alt_value="THIS P1Y" anchorTimeID="t0" mod="EARLY" temporalFunction="true" tid="t1" type="DATE" valueFromFunction="tf0">the start of the year</TIMEX3>
p175
sVLemma
p176
Vthe
p177
sVCharacterOffsetEnd
p178
V46
p179
sVPartOfSpeech
p180
VDT
p181
sVCharacterOffsetBegin
p182
V43
p183
sVNamedEntityTag
p184
VDATE
p185
saa(lp186
Vstart
p187
a(dp188
VNormalizedNamedEntityTag
p189
VTHIS
p190
sVTimex
p191
V<TIMEX3 alt_value="THIS P1Y" anchorTimeID="t0" mod="EARLY" temporalFunction="true" tid="t1" type="DATE" valueFromFunction="tf0">the start of the year</TIMEX3>
p192
sVLemma
p193
Vstart
p194
sVCharacterOffsetEnd
p195
V52
p196
sVPartOfSpeech
p197
VNN
p198
sVCharacterOffsetBegin
p199
V47
p200
sVNamedEntityTag
p201
VDATE
p202
saa(lp203
Vof
p204
a(dp205
VNormalizedNamedEntityTag
p206
VTHIS
p207
sVTimex
p208
V<TIMEX3 alt_value="THIS P1Y" anchorTimeID="t0" mod="EARLY" temporalFunction="true" tid="t1" type="DATE" valueFromFunction="tf0">the start of the year</TIMEX3>
p209
sVLemma
p210
Vof
p211
sVCharacterOffsetEnd
p212
V55
p213
sVPartOfSpeech
p214
VIN
p215
sVCharacterOffsetBegin
p216
V53
p217
sVNamedEntityTag
p218
VDATE
p219
saa(lp220
Vthe
p221
a(dp222
VNormalizedNamedEntityTag
p223
VTHIS
p224
sVTimex
p225
V<TIMEX3 alt_value="THIS P1Y" anchorTimeID="t0" mod="EARLY" temporalFunction="true" tid="t1" type="DATE" valueFromFunction="tf0">the start of the year</TIMEX3>
p226
sVLemma
p227
Vthe
p228
sVCharacterOffsetEnd
p229
V59
p230
sVPartOfSpeech
p231
VDT
p232
sVCharacterOffsetBegin
p233
V56
p234
sVNamedEntityTag
p235
VDATE
p236
saa(lp237
Vyear
p238
a(dp239
VNormalizedNamedEntityTag
p240
VTHIS
p241
sVTimex
p242
V<TIMEX3 alt_value="THIS P1Y" anchorTimeID="t0" mod="EARLY" temporalFunction="true" tid="t1" type="DATE" valueFromFunction="tf0">the start of the year</TIMEX3>
p243
sVLemma
p244
Vyear
p245
sVCharacterOffsetEnd
p246
V64
p247
sVPartOfSpeech
p248
VNN
p249
sVCharacterOffsetBegin
p250
V60
p251
sVNamedEntityTag
p252
VDATE
p253
saa(lp254
V.
p255
a(dp256
VNamedEntityTag
p257
g70
sVCharacterOffsetEnd
p258
V66
p259
sVCharacterOffsetBegin
p260
V65
p261
sVPartOfSpeech
p262
g255
sVLemma
p263
g255
saasVindexeddependencies
p264
(lp265
(lp266
Vroot
p267
aVROOT-0
p268
aVwere-5
p269
aa(lp270
Vamod
p271
aVgrade-3
p272
aVfourth-2
p273
aa(lp274
Vprep_in
p275
aVwere-5
p276
aVgrade-3
p277
aa(lp278
Vexpl
p279
aVwere-5
p280
aVthere-4
p281
aa(lp282
Vnum
p283
aVstudents-7
p284
aV11-6
p285
aa(lp286
Vnsubj
p287
aVwere-5
p288
aVstudents-7
p289
aa(lp290
Vdet
p291
aVstart-10
p292
aVthe-9
p293
aa(lp294
Vprep_at
p295
aVstudents-7
p296
aVstart-10
p297
aa(lp298
Vdet
p299
aVyear-13
p300
aVthe-12
p301
aa(lp302
Vprep_of
p303
aVstart-10
p304
aVyear-13
p305
aasa(dp306
Vparsetree
p307
V(ROOT (S (S (PP (IN During) (NP (DT the) (NN year))) (NP (CD 6) (NNS students)) (VP (VBD left))) (CC and) (S (NP (CD 42) (JJ new) (NNS students)) (VP (VBD came) (PP (TO to) (NP (NN school))))) (. .)))
p308
sVtext
p309
VDuring the year 6 students left and 42 new students came to school .
p310
sVdependencies
p311
(lp312
(lp313
Vroot
p314
aVROOT
p315
aVleft
p316
aa(lp317
Vdet
p318
aVyear
p319
aVthe
p320
aa(lp321
Vprep_during
p322
aVleft
p323
aVyear
p324
aa(lp325
Vnum
p326
aVstudents
p327
aV6
p328
aa(lp329
Vnsubj
p330
aVleft
p331
aVstudents
p332
aa(lp333
Vnum
p334
aVstudents
p335
aV42
p336
aa(lp337
Vamod
p338
aVstudents
p339
aVnew
p340
aa(lp341
Vnsubj
p342
aVcame
p343
aVstudents
p344
aa(lp345
Vconj_and
p346
aVleft
p347
aVcame
p348
aa(lp349
Vprep_to
p350
aVcame
p351
aVschool
p352
aasVwords
p353
(lp354
(lp355
VDuring
p356
a(dp357
VNamedEntityTag
p358
g70
sVCharacterOffsetEnd
p359
V73
p360
sVCharacterOffsetBegin
p361
V67
p362
sVPartOfSpeech
p363
VIN
p364
sVLemma
p365
Vduring
p366
saa(lp367
Vthe
p368
a(dp369
VNormalizedNamedEntityTag
p370
VTHIS
p371
sVTimex
p372
V<TIMEX3 alt_value="THIS P1Y" anchorTimeID="t0" temporalFunction="true" tid="t1" type="DATE" valueFromFunction="tf0">the year</TIMEX3>
p373
sVLemma
p374
Vthe
p375
sVCharacterOffsetEnd
p376
V77
p377
sVPartOfSpeech
p378
VDT
p379
sVCharacterOffsetBegin
p380
V74
p381
sVNamedEntityTag
p382
VDATE
p383
saa(lp384
Vyear
p385
a(dp386
VNormalizedNamedEntityTag
p387
VTHIS
p388
sVTimex
p389
V<TIMEX3 alt_value="THIS P1Y" anchorTimeID="t0" temporalFunction="true" tid="t1" type="DATE" valueFromFunction="tf0">the year</TIMEX3>
p390
sVLemma
p391
Vyear
p392
sVCharacterOffsetEnd
p393
V82
p394
sVPartOfSpeech
p395
VNN
p396
sVCharacterOffsetBegin
p397
V78
p398
sVNamedEntityTag
p399
VDATE
p400
saa(lp401
g328
a(dp402
VNormalizedNamedEntityTag
p403
V6.0
p404
sVLemma
p405
g328
sVCharacterOffsetEnd
p406
V84
p407
sVPartOfSpeech
p408
VCD
p409
sVCharacterOffsetBegin
p410
V83
p411
sVNamedEntityTag
p412
VNUMBER
p413
saa(lp414
Vstudents
p415
a(dp416
VNamedEntityTag
p417
g70
sVCharacterOffsetEnd
p418
V93
p419
sVCharacterOffsetBegin
p420
V85
p421
sVPartOfSpeech
p422
VNNS
p423
sVLemma
p424
Vstudent
p425
saa(lp426
Vleft
p427
a(dp428
VNamedEntityTag
p429
g70
sVCharacterOffsetEnd
p430
V98
p431
sVCharacterOffsetBegin
p432
V94
p433
sVPartOfSpeech
p434
VVBD
p435
sVLemma
p436
Vleave
p437
saa(lp438
Vand
p439
a(dp440
VNamedEntityTag
p441
g70
sVCharacterOffsetEnd
p442
V102
p443
sVCharacterOffsetBegin
p444
V99
p445
sVPartOfSpeech
p446
VCC
p447
sVLemma
p448
Vand
p449
saa(lp450
V42
p451
a(dp452
VNormalizedNamedEntityTag
p453
V42.0
p454
sVLemma
p455
V42
p456
sVCharacterOffsetEnd
p457
V105
p458
sVPartOfSpeech
p459
VCD
p460
sVCharacterOffsetBegin
p461
V103
p462
sVNamedEntityTag
p463
VNUMBER
p464
saa(lp465
Vnew
p466
a(dp467
VNamedEntityTag
p468
g70
sVCharacterOffsetEnd
p469
V109
p470
sVCharacterOffsetBegin
p471
V106
p472
sVPartOfSpeech
p473
VJJ
p474
sVLemma
p475
Vnew
p476
saa(lp477
Vstudents
p478
a(dp479
VNamedEntityTag
p480
g70
sVCharacterOffsetEnd
p481
V118
p482
sVCharacterOffsetBegin
p483
V110
p484
sVPartOfSpeech
p485
VNNS
p486
sVLemma
p487
Vstudent
p488
saa(lp489
Vcame
p490
a(dp491
VNamedEntityTag
p492
g70
sVCharacterOffsetEnd
p493
V123
p494
sVCharacterOffsetBegin
p495
V119
p496
sVPartOfSpeech
p497
VVBD
p498
sVLemma
p499
Vcome
p500
saa(lp501
Vto
p502
a(dp503
VNamedEntityTag
p504
g70
sVCharacterOffsetEnd
p505
V126
p506
sVCharacterOffsetBegin
p507
V124
p508
sVPartOfSpeech
p509
VTO
p510
sVLemma
p511
Vto
p512
saa(lp513
Vschool
p514
a(dp515
VNamedEntityTag
p516
g70
sVCharacterOffsetEnd
p517
V133
p518
sVCharacterOffsetBegin
p519
V127
p520
sVPartOfSpeech
p521
VNN
p522
sVLemma
p523
Vschool
p524
saa(lp525
g255
a(dp526
VNamedEntityTag
p527
g70
sVCharacterOffsetEnd
p528
V135
p529
sVCharacterOffsetBegin
p530
V134
p531
sVPartOfSpeech
p532
g255
sVLemma
p533
g255
saasVindexeddependencies
p534
(lp535
(lp536
Vroot
p537
aVROOT-0
p538
aVleft-6
p539
aa(lp540
Vdet
p541
aVyear-3
p542
aVthe-2
p543
aa(lp544
Vprep_during
p545
aVleft-6
p546
aVyear-3
p547
aa(lp548
Vnum
p549
aVstudents-5
p550
aV6-4
p551
aa(lp552
Vnsubj
p553
aVleft-6
p554
aVstudents-5
p555
aa(lp556
Vnum
p557
aVstudents-10
p558
aV42-8
p559
aa(lp560
Vamod
p561
aVstudents-10
p562
aVnew-9
p563
aa(lp564
Vnsubj
p565
aVcame-11
p566
aVstudents-10
p567
aa(lp568
Vconj_and
p569
aVleft-6
p570
aVcame-11
p571
aa(lp572
Vprep_to
p573
aVcame-11
p574
aVschool-13
p575
aasa(dp576
Vparsetree
p577
V(ROOT (SBARQ (WHNP (WHADJP (WRB How) (JJ many)) (NNS students)) (SQ (VP (VBD were) (PP (IN in) (NP (NP (JJ fourth) (NN grade)) (PP (IN at) (NP (DT the) (NN end))))))) (. ?)))
p578
sVtext
p579
VHow many students were in fourth grade at the end ?
p580
sVdependencies
p581
(lp582
(lp583
Vroot
p584
aVROOT
p585
aVwere
p586
aa(lp587
Vadvmod
p588
aVmany
p589
aVHow
p590
aa(lp591
Vamod
p592
aVstudents
p593
aVmany
p594
aa(lp595
Vnsubj
p596
aVwere
p597
aVstudents
p598
aa(lp599
Vamod
p600
aVgrade
p601
aVfourth
p602
aa(lp603
Vprep_in
p604
aVwere
p605
aVgrade
p606
aa(lp607
Vdet
p608
aVend
p609
aVthe
p610
aa(lp611
Vprep_at
p612
aVgrade
p613
aVend
p614
aasVwords
p615
(lp616
(lp617
VHow
p618
a(dp619
VNamedEntityTag
p620
g70
sVCharacterOffsetEnd
p621
V139
p622
sVCharacterOffsetBegin
p623
V136
p624
sVPartOfSpeech
p625
VWRB
p626
sVLemma
p627
Vhow
p628
saa(lp629
Vmany
p630
a(dp631
VNamedEntityTag
p632
g70
sVCharacterOffsetEnd
p633
V144
p634
sVCharacterOffsetBegin
p635
V140
p636
sVPartOfSpeech
p637
VJJ
p638
sVLemma
p639
Vmany
p640
saa(lp641
Vstudents
p642
a(dp643
VNamedEntityTag
p644
g70
sVCharacterOffsetEnd
p645
V153
p646
sVCharacterOffsetBegin
p647
V145
p648
sVPartOfSpeech
p649
VNNS
p650
sVLemma
p651
Vstudent
p652
saa(lp653
Vwere
p654
a(dp655
VNamedEntityTag
p656
g70
sVCharacterOffsetEnd
p657
V158
p658
sVCharacterOffsetBegin
p659
V154
p660
sVPartOfSpeech
p661
VVBD
p662
sVLemma
p663
Vbe
p664
saa(lp665
Vin
p666
a(dp667
VNamedEntityTag
p668
g70
sVCharacterOffsetEnd
p669
V161
p670
sVCharacterOffsetBegin
p671
V159
p672
sVPartOfSpeech
p673
VIN
p674
sVLemma
p675
Vin
p676
saa(lp677
Vfourth
p678
a(dp679
VNormalizedNamedEntityTag
p680
V4.0
p681
sVLemma
p682
Vfourth
p683
sVCharacterOffsetEnd
p684
V168
p685
sVPartOfSpeech
p686
VJJ
p687
sVCharacterOffsetBegin
p688
V162
p689
sVNamedEntityTag
p690
VORDINAL
p691
saa(lp692
Vgrade
p693
a(dp694
VNamedEntityTag
p695
g70
sVCharacterOffsetEnd
p696
V174
p697
sVCharacterOffsetBegin
p698
V169
p699
sVPartOfSpeech
p700
VNN
p701
sVLemma
p702
Vgrade
p703
saa(lp704
Vat
p705
a(dp706
VNamedEntityTag
p707
g70
sVCharacterOffsetEnd
p708
V177
p709
sVCharacterOffsetBegin
p710
V175
p711
sVPartOfSpeech
p712
VIN
p713
sVLemma
p714
Vat
p715
saa(lp716
Vthe
p717
a(dp718
VNamedEntityTag
p719
g70
sVCharacterOffsetEnd
p720
V181
p721
sVCharacterOffsetBegin
p722
V178
p723
sVPartOfSpeech
p724
VDT
p725
sVLemma
p726
Vthe
p727
saa(lp728
Vend
p729
a(dp730
VNamedEntityTag
p731
g70
sVCharacterOffsetEnd
p732
V185
p733
sVCharacterOffsetBegin
p734
V182
p735
sVPartOfSpeech
p736
VNN
p737
sVLemma
p738
Vend
p739
saa(lp740
V?
p741
a(dp742
VNamedEntityTag
p743
g70
sVCharacterOffsetEnd
p744
V187
p745
sVCharacterOffsetBegin
p746
V186
p747
sVPartOfSpeech
p748
g255
sVLemma
p749
g741
saasVindexeddependencies
p750
(lp751
(lp752
Vroot
p753
aVROOT-0
p754
aVwere-4
p755
aa(lp756
Vadvmod
p757
aVmany-2
p758
aVHow-1
p759
aa(lp760
Vamod
p761
aVstudents-3
p762
aVmany-2
p763
aa(lp764
Vnsubj
p765
aVwere-4
p766
aVstudents-3
p767
aa(lp768
Vamod
p769
aVgrade-7
p770
aVfourth-6
p771
aa(lp772
Vprep_in
p773
aVwere-4
p774
aVgrade-7
p775
aa(lp776
Vdet
p777
aVend-10
p778
aVthe-9
p779
aa(lp780
Vprep_at
p781
aVgrade-7
p782
aVend-10
p783
aasas.