(dp0
Vcoref
p1
(lp2
(lp3
(lp4
(lp5
Vher
p6
aI0
aI6
aI6
aI7
aa(lp7
VMarlee
p8
aI0
aI0
aI0
aI1
aaa(lp9
(lp10
VMarlee
p11
aI2
aI4
aI4
aI5
aa(lp12
VMarlee
p13
aI0
aI0
aI0
aI1
aaaasVsentences
p14
(lp15
(dp16
Vparsetree
p17
V(ROOT (S (NP (NNP Marlee)) (VP (VBZ has) (NP (NP (CD 12) (NNS guests)) (VP (VBG coming) (PP (TO to) (NP (PRP$ her) (NNP Halloween) (NN party)))))) (. .)))
p18
sVtext
p19
VMarlee has 12 guests coming to her Halloween party .
p20
sVdependencies
p21
(lp22
(lp23
Vroot
p24
aVROOT
p25
aVhas
p26
aa(lp27
Vnsubj
p28
aVhas
p29
aVMarlee
p30
aa(lp31
Vnum
p32
aVguests
p33
aV12
p34
aa(lp35
Vdobj
p36
aVhas
p37
aVguests
p38
aa(lp39
Vvmod
p40
aVguests
p41
aVcoming
p42
aa(lp43
Vposs
p44
aVparty
p45
aVher
p46
aa(lp47
Vnn
p48
aVparty
p49
aVHalloween
p50
aa(lp51
Vprep_to
p52
aVcoming
p53
aVparty
p54
aasVwords
p55
(lp56
(lp57
VMarlee
p58
a(dp59
VNamedEntityTag
p60
VPERSON
p61
sVCharacterOffsetEnd
p62
V7
p63
sVCharacterOffsetBegin
p64
V1
p65
sVPartOfSpeech
p66
VNNP
p67
sVLemma
p68
VMarlee
p69
saa(lp70
Vhas
p71
a(dp72
VNamedEntityTag
p73
VO
p74
sVCharacterOffsetEnd
p75
V11
p76
sVCharacterOffsetBegin
p77
V8
p78
sVPartOfSpeech
p79
VVBZ
p80
sVLemma
p81
Vhave
p82
saa(lp83
V12
p84
a(dp85
VNormalizedNamedEntityTag
p86
V12.0
p87
sVLemma
p88
V12
p89
sVCharacterOffsetEnd
p90
V14
p91
sVPartOfSpeech
p92
VCD
p93
sVCharacterOffsetBegin
p94
V12
p95
sVNamedEntityTag
p96
VNUMBER
p97
saa(lp98
Vguests
p99
a(dp100
VNamedEntityTag
p101
g74
sVCharacterOffsetEnd
p102
V21
p103
sVCharacterOffsetBegin
p104
V15
p105
sVPartOfSpeech
p106
VNNS
p107
sVLemma
p108
Vguest
p109
saa(lp110
Vcoming
p111
a(dp112
VNamedEntityTag
p113
g74
sVCharacterOffsetEnd
p114
V28
p115
sVCharacterOffsetBegin
p116
V22
p117
sVPartOfSpeech
p118
VVBG
p119
sVLemma
p120
Vcome
p121
saa(lp122
Vto
p123
a(dp124
VNamedEntityTag
p125
g74
sVCharacterOffsetEnd
p126
V31
p127
sVCharacterOffsetBegin
p128
V29
p129
sVPartOfSpeech
p130
VTO
p131
sVLemma
p132
Vto
p133
saa(lp134
Vher
p135
a(dp136
VNamedEntityTag
p137
g74
sVCharacterOffsetEnd
p138
V35
p139
sVCharacterOffsetBegin
p140
V32
p141
sVPartOfSpeech
p142
VPRP$
p143
sVLemma
p144
Vshe
p145
saa(lp146
VHalloween
p147
a(dp148
VNormalizedNamedEntityTag
p149
VXXXX-10-31
p150
sVTimex
p151
V<TIMEX3 tid="t1" type="DATE" value="XXXX-10-31">Halloween</TIMEX3>
p152
sVLemma
p153
VHalloween
p154
sVCharacterOffsetEnd
p155
V45
p156
sVPartOfSpeech
p157
VNNP
p158
sVCharacterOffsetBegin
p159
V36
p160
sVNamedEntityTag
p161
VDATE
p162
saa(lp163
Vparty
p164
a(dp165
VNamedEntityTag
p166
g74
sVCharacterOffsetEnd
p167
V51
p168
sVCharacterOffsetBegin
p169
V46
p170
sVPartOfSpeech
p171
VNN
p172
sVLemma
p173
Vparty
p174
saa(lp175
V.
p176
a(dp177
VNamedEntityTag
p178
g74
sVCharacterOffsetEnd
p179
V53
p180
sVCharacterOffsetBegin
p181
V52
p182
sVPartOfSpeech
p183
g176
sVLemma
p184
g176
saasVindexeddependencies
p185
(lp186
(lp187
Vroot
p188
aVROOT-0
p189
aVhas-2
p190
aa(lp191
Vnsubj
p192
aVhas-2
p193
aVMarlee-1
p194
aa(lp195
Vnum
p196
aVguests-4
p197
aV12-3
p198
aa(lp199
Vdobj
p200
aVhas-2
p201
aVguests-4
p202
aa(lp203
Vvmod
p204
aVguests-4
p205
aVcoming-5
p206
aa(lp207
Vposs
p208
aVparty-9
p209
aVher-7
p210
aa(lp211
Vnn
p212
aVparty-9
p213
aVHalloween-8
p214
aa(lp215
Vprep_to
p216
aVcoming-5
p217
aVparty-9
p218
aasa(dp219
Vparsetree
p220
V(ROOT (S (NP (DT Each) (NN table)) (VP (MD will) (VP (VB hold) (NP (CD 3) (NNS guests)))) (. .)))
p221
sVtext
p222
VEach table will hold 3 guests .
p223
sVdependencies
p224
(lp225
(lp226
Vroot
p227
aVROOT
p228
aVhold
p229
aa(lp230
Vdet
p231
aVtable
p232
aVEach
p233
aa(lp234
Vnsubj
p235
aVhold
p236
aVtable
p237
aa(lp238
Vaux
p239
aVhold
p240
aVwill
p241
aa(lp242
Vnum
p243
aVguests
p244
aV3
p245
aa(lp246
Vdobj
p247
aVhold
p248
aVguests
p249
aasVwords
p250
(lp251
(lp252
VEach
p253
a(dp254
VNamedEntityTag
p255
g74
sVCharacterOffsetEnd
p256
V58
p257
sVCharacterOffsetBegin
p258
V54
p259
sVPartOfSpeech
p260
VDT
p261
sVLemma
p262
Veach
p263
saa(lp264
Vtable
p265
a(dp266
VNamedEntityTag
p267
g74
sVCharacterOffsetEnd
p268
V64
p269
sVCharacterOffsetBegin
p270
V59
p271
sVPartOfSpeech
p272
VNN
p273
sVLemma
p274
Vtable
p275
saa(lp276
Vwill
p277
a(dp278
VNamedEntityTag
p279
g74
sVCharacterOffsetEnd
p280
V69
p281
sVCharacterOffsetBegin
p282
V65
p283
sVPartOfSpeech
p284
VMD
p285
sVLemma
p286
Vwill
p287
saa(lp288
Vhold
p289
a(dp290
VNamedEntityTag
p291
g74
sVCharacterOffsetEnd
p292
V74
p293
sVCharacterOffsetBegin
p294
V70
p295
sVPartOfSpeech
p296
VVB
p297
sVLemma
p298
Vhold
p299
saa(lp300
g245
a(dp301
VNormalizedNamedEntityTag
p302
V3.0
p303
sVLemma
p304
g245
sVCharacterOffsetEnd
p305
V76
p306
sVPartOfSpeech
p307
VCD
p308
sVCharacterOffsetBegin
p309
V75
p310
sVNamedEntityTag
p311
VNUMBER
p312
saa(lp313
Vguests
p314
a(dp315
VNamedEntityTag
p316
g74
sVCharacterOffsetEnd
p317
V83
p318
sVCharacterOffsetBegin
p319
V77
p320
sVPartOfSpeech
p321
VNNS
p322
sVLemma
p323
Vguest
p324
saa(lp325
g176
a(dp326
VNamedEntityTag
p327
g74
sVCharacterOffsetEnd
p328
V85
p329
sVCharacterOffsetBegin
p330
V84
p331
sVPartOfSpeech
p332
g176
sVLemma
p333
g176
saasVindexeddependencies
p334
(lp335
(lp336
Vroot
p337
aVROOT-0
p338
aVhold-4
p339
aa(lp340
Vdet
p341
aVtable-2
p342
aVEach-1
p343
aa(lp344
Vnsubj
p345
aVhold-4
p346
aVtable-2
p347
aa(lp348
Vaux
p349
aVhold-4
p350
aVwill-3
p351
aa(lp352
Vnum
p353
aVguests-6
p354
aV3-5
p355
aa(lp356
Vdobj
p357
aVhold-4
p358
aVguests-6
p359
aasa(dp360
Vparsetree
p361
V(ROOT (SBARQ (WHNP (WHADJP (WRB How) (JJ many)) (NNS tables)) (SQ (MD will) (NP (NNP Marlee)) (VP (VB need))) (. ?)))
p362
sVtext
p363
VHow many tables will Marlee need ?
p364
sVdependencies
p365
(lp366
(lp367
Vroot
p368
aVROOT
p369
aVneed
p370
aa(lp371
Vadvmod
p372
aVmany
p373
aVHow
p374
aa(lp375
Vamod
p376
aVtables
p377
aVmany
p378
aa(lp379
Vdobj
p380
aVneed
p381
aVtables
p382
aa(lp383
Vaux
p384
aVneed
p385
aVwill
p386
aa(lp387
Vnsubj
p388
aVneed
p389
aVMarlee
p390
aasVwords
p391
(lp392
(lp393
VHow
p394
a(dp395
VNamedEntityTag
p396
g74
sVCharacterOffsetEnd
p397
V89
p398
sVCharacterOffsetBegin
p399
V86
p400
sVPartOfSpeech
p401
VWRB
p402
sVLemma
p403
Vhow
p404
saa(lp405
Vmany
p406
a(dp407
VNamedEntityTag
p408
g74
sVCharacterOffsetEnd
p409
V94
p410
sVCharacterOffsetBegin
p411
V90
p412
sVPartOfSpeech
p413
VJJ
p414
sVLemma
p415
Vmany
p416
saa(lp417
Vtables
p418
a(dp419
VNamedEntityTag
p420
g74
sVCharacterOffsetEnd
p421
V101
p422
sVCharacterOffsetBegin
p423
V95
p424
sVPartOfSpeech
p425
VNNS
p426
sVLemma
p427
Vtable
p428
saa(lp429
Vwill
p430
a(dp431
VNamedEntityTag
p432
g74
sVCharacterOffsetEnd
p433
V106
p434
sVCharacterOffsetBegin
p435
V102
p436
sVPartOfSpeech
p437
VMD
p438
sVLemma
p439
Vwill
p440
saa(lp441
VMarlee
p442
a(dp443
VNamedEntityTag
p444
VPERSON
p445
sVCharacterOffsetEnd
p446
V113
p447
sVCharacterOffsetBegin
p448
V107
p449
sVPartOfSpeech
p450
VNNP
p451
sVLemma
p452
VMarlee
p453
saa(lp454
Vneed
p455
a(dp456
VNamedEntityTag
p457
g74
sVCharacterOffsetEnd
p458
V118
p459
sVCharacterOffsetBegin
p460
V114
p461
sVPartOfSpeech
p462
VVB
p463
sVLemma
p464
Vneed
p465
saa(lp466
V?
p467
a(dp468
VNamedEntityTag
p469
g74
sVCharacterOffsetEnd
p470
V120
p471
sVCharacterOffsetBegin
p472
V119
p473
sVPartOfSpeech
p474
g176
sVLemma
p475
g467
saasVindexeddependencies
p476
(lp477
(lp478
Vroot
p479
aVROOT-0
p480
aVneed-6
p481
aa(lp482
Vadvmod
p483
aVmany-2
p484
aVHow-1
p485
aa(lp486
Vamod
p487
aVtables-3
p488
aVmany-2
p489
aa(lp490
Vdobj
p491
aVneed-6
p492
aVtables-3
p493
aa(lp494
Vaux
p495
aVneed-6
p496
aVwill-4
p497
aa(lp498
Vnsubj
p499
aVneed-6
p500
aVMarlee-5
p501
aasas.