(dp0
Vcoref
p1
(lp2
(lp3
(lp4
(lp5
VHe
p6
aI1
aI0
aI0
aI1
aa(lp7
VMike
p8
aI0
aI8
aI8
aI9
aaaa(lp9
(lp10
(lp11
Vthe brownies
p12
aI2
aI4
aI3
aI5
aa(lp13
V14 caramel brownies
p14
aI1
aI4
aI2
aI5
aaaasVsentences
p15
(lp16
(dp17
Vparsetree
p18
V(ROOT (S (S (VP (TO To) (VP (VB celebrate) (NP (NP (DT the) (JJ first) (NN day)) (PP (IN of) (NP (NN school))))))) (, ,) (NP (NNP Mike)) (VP (VBD brought) (PRT (RP in)) (NP (NP (DT a) (NN tray)) (PP (IN of) (NP (NN caramel) (NNS brownies) (CC and) (NN walnut) (NNS brownies))))) (. .)))
p19
sVtext
p20
VTo celebrate the first day of school , Mike brought in a tray of caramel brownies and walnut brownies .
p21
sVdependencies
p22
(lp23
(lp24
Vroot
p25
aVROOT
p26
aVbrought
p27
aa(lp28
Vaux
p29
aVcelebrate
p30
aVTo
p31
aa(lp32
Vadvcl
p33
aVbrought
p34
aVcelebrate
p35
aa(lp36
Vdet
p37
aVday
p38
aVthe
p39
aa(lp40
Vamod
p41
aVday
p42
aVfirst
p43
aa(lp44
Vdobj
p45
aVcelebrate
p46
aVday
p47
aa(lp48
Vprep_of
p49
aVday
p50
aVschool
p51
aa(lp52
Vnsubj
p53
aVbrought
p54
aVMike
p55
aa(lp56
Vprt
p57
aVbrought
p58
aVin
p59
aa(lp60
Vdet
p61
aVtray
p62
aVa
p63
aa(lp64
Vdobj
p65
aVbrought
p66
aVtray
p67
aa(lp68
Vnn
p69
aVbrownies
p70
aVcaramel
p71
aa(lp72
Vprep_of
p73
aVtray
p74
aVbrownies
p75
aa(lp76
Vnn
p77
aVbrownies
p78
aVwalnut
p79
aa(lp80
Vconj_and
p81
aVbrownies
p82
aVbrownies
p83
aasVwords
p84
(lp85
(lp86
VTo
p87
a(dp88
VNamedEntityTag
p89
VO
p90
sVCharacterOffsetEnd
p91
V3
p92
sVCharacterOffsetBegin
p93
V1
p94
sVPartOfSpeech
p95
VTO
p96
sVLemma
p97
Vto
p98
saa(lp99
Vcelebrate
p100
a(dp101
VNamedEntityTag
p102
g90
sVCharacterOffsetEnd
p103
V13
p104
sVCharacterOffsetBegin
p105
V4
p106
sVPartOfSpeech
p107
VVB
p108
sVLemma
p109
Vcelebrate
p110
saa(lp111
Vthe
p112
a(dp113
VNormalizedNamedEntityTag
p114
VPXD
p115
sVTimex
p116
V<TIMEX3 tid="t1" type="DURATION" value="PXD">the first day</TIMEX3>
p117
sVLemma
p118
Vthe
p119
sVCharacterOffsetEnd
p120
V17
p121
sVPartOfSpeech
p122
VDT
p123
sVCharacterOffsetBegin
p124
V14
p125
sVNamedEntityTag
p126
VDURATION
p127
saa(lp128
Vfirst
p129
a(dp130
VNormalizedNamedEntityTag
p131
VPXD
p132
sVTimex
p133
V<TIMEX3 tid="t1" type="DURATION" value="PXD">the first day</TIMEX3>
p134
sVLemma
p135
Vfirst
p136
sVCharacterOffsetEnd
p137
V23
p138
sVPartOfSpeech
p139
VJJ
p140
sVCharacterOffsetBegin
p141
V18
p142
sVNamedEntityTag
p143
VDURATION
p144
saa(lp145
Vday
p146
a(dp147
VNormalizedNamedEntityTag
p148
VPXD
p149
sVTimex
p150
V<TIMEX3 tid="t1" type="DURATION" value="PXD">the first day</TIMEX3>
p151
sVLemma
p152
Vday
p153
sVCharacterOffsetEnd
p154
V27
p155
sVPartOfSpeech
p156
VNN
p157
sVCharacterOffsetBegin
p158
V24
p159
sVNamedEntityTag
p160
VDURATION
p161
saa(lp162
Vof
p163
a(dp164
VNamedEntityTag
p165
g90
sVCharacterOffsetEnd
p166
V30
p167
sVCharacterOffsetBegin
p168
V28
p169
sVPartOfSpeech
p170
VIN
p171
sVLemma
p172
Vof
p173
saa(lp174
Vschool
p175
a(dp176
VNamedEntityTag
p177
g90
sVCharacterOffsetEnd
p178
V37
p179
sVCharacterOffsetBegin
p180
V31
p181
sVPartOfSpeech
p182
VNN
p183
sVLemma
p184
Vschool
p185
saa(lp186
V,
p187
a(dp188
VNamedEntityTag
p189
g90
sVCharacterOffsetEnd
p190
V39
p191
sVCharacterOffsetBegin
p192
V38
p193
sVPartOfSpeech
p194
g187
sVLemma
p195
g187
saa(lp196
VMike
p197
a(dp198
VNamedEntityTag
p199
VPERSON
p200
sVCharacterOffsetEnd
p201
V44
p202
sVCharacterOffsetBegin
p203
V40
p204
sVPartOfSpeech
p205
VNNP
p206
sVLemma
p207
VMike
p208
saa(lp209
Vbrought
p210
a(dp211
VNamedEntityTag
p212
g90
sVCharacterOffsetEnd
p213
V52
p214
sVCharacterOffsetBegin
p215
V45
p216
sVPartOfSpeech
p217
VVBD
p218
sVLemma
p219
Vbring
p220
saa(lp221
Vin
p222
a(dp223
VNamedEntityTag
p224
g90
sVCharacterOffsetEnd
p225
V55
p226
sVCharacterOffsetBegin
p227
V53
p228
sVPartOfSpeech
p229
VRP
p230
sVLemma
p231
Vin
p232
saa(lp233
g63
a(dp234
VNamedEntityTag
p235
g90
sVCharacterOffsetEnd
p236
V57
p237
sVCharacterOffsetBegin
p238
V56
p239
sVPartOfSpeech
p240
VDT
p241
sVLemma
p242
g63
saa(lp243
Vtray
p244
a(dp245
VNamedEntityTag
p246
g90
sVCharacterOffsetEnd
p247
V62
p248
sVCharacterOffsetBegin
p249
V58
p250
sVPartOfSpeech
p251
VNN
p252
sVLemma
p253
Vtray
p254
saa(lp255
Vof
p256
a(dp257
VNamedEntityTag
p258
g90
sVCharacterOffsetEnd
p259
V65
p260
sVCharacterOffsetBegin
p261
V63
p262
sVPartOfSpeech
p263
VIN
p264
sVLemma
p265
Vof
p266
saa(lp267
Vcaramel
p268
a(dp269
VNamedEntityTag
p270
g90
sVCharacterOffsetEnd
p271
V73
p272
sVCharacterOffsetBegin
p273
V66
p274
sVPartOfSpeech
p275
VNN
p276
sVLemma
p277
Vcaramel
p278
saa(lp279
Vbrownies
p280
a(dp281
VNamedEntityTag
p282
g90
sVCharacterOffsetEnd
p283
V82
p284
sVCharacterOffsetBegin
p285
V74
p286
sVPartOfSpeech
p287
VNNS
p288
sVLemma
p289
Vbrownie
p290
saa(lp291
Vand
p292
a(dp293
VNamedEntityTag
p294
g90
sVCharacterOffsetEnd
p295
V86
p296
sVCharacterOffsetBegin
p297
V83
p298
sVPartOfSpeech
p299
VCC
p300
sVLemma
p301
Vand
p302
saa(lp303
Vwalnut
p304
a(dp305
VNamedEntityTag
p306
g90
sVCharacterOffsetEnd
p307
V93
p308
sVCharacterOffsetBegin
p309
V87
p310
sVPartOfSpeech
p311
VNN
p312
sVLemma
p313
Vwalnut
p314
saa(lp315
Vbrownies
p316
a(dp317
VNamedEntityTag
p318
g90
sVCharacterOffsetEnd
p319
V102
p320
sVCharacterOffsetBegin
p321
V94
p322
sVPartOfSpeech
p323
VNNS
p324
sVLemma
p325
Vbrownie
p326
saa(lp327
V.
p328
a(dp329
VNamedEntityTag
p330
g90
sVCharacterOffsetEnd
p331
V104
p332
sVCharacterOffsetBegin
p333
V103
p334
sVPartOfSpeech
p335
g328
sVLemma
p336
g328
saasVindexeddependencies
p337
(lp338
(lp339
Vroot
p340
aVROOT-0
p341
aVbrought-10
p342
aa(lp343
Vaux
p344
aVcelebrate-2
p345
aVTo-1
p346
aa(lp347
Vadvcl
p348
aVbrought-10
p349
aVcelebrate-2
p350
aa(lp351
Vdet
p352
aVday-5
p353
aVthe-3
p354
aa(lp355
Vamod
p356
aVday-5
p357
aVfirst-4
p358
aa(lp359
Vdobj
p360
aVcelebrate-2
p361
aVday-5
p362
aa(lp363
Vprep_of
p364
aVday-5
p365
aVschool-7
p366
aa(lp367
Vnsubj
p368
aVbrought-10
p369
aVMike-9
p370
aa(lp371
Vprt
p372
aVbrought-10
p373
aVin-11
p374
aa(lp375
Vdet
p376
aVtray-13
p377
aVa-12
p378
aa(lp379
Vdobj
p380
aVbrought-10
p381
aVtray-13
p382
aa(lp383
Vnn
p384
aVbrownies-16
p385
aVcaramel-15
p386
aa(lp387
Vprep_of
p388
aVtray-13
p389
aVbrownies-16
p390
aa(lp391
Vnn
p392
aVbrownies-19
p393
aVwalnut-18
p394
aa(lp395
Vconj_and
p396
aVbrownies-16
p397
aVbrownies-19
p398
aasa(dp399
Vparsetree
p400
V(ROOT (S (NP (PRP He)) (VP (VBD brought) (NP (NP (CD 14) (NN caramel) (NNS brownies)) (CC and) (NP (CD 6) (NN walnut) (NNS brownies)))) (. .)))
p401
sVtext
p402
VHe brought 14 caramel brownies and 6 walnut brownies .
p403
sVdependencies
p404
(lp405
(lp406
Vroot
p407
aVROOT
p408
aVbrought
p409
aa(lp410
Vnsubj
p411
aVbrought
p412
aVHe
p413
aa(lp414
Vnum
p415
aVbrownies
p416
aV14
p417
aa(lp418
Vnn
p419
aVbrownies
p420
aVcaramel
p421
aa(lp422
Vdobj
p423
aVbrought
p424
aVbrownies
p425
aa(lp426
Vnum
p427
aVbrownies
p428
aV6
p429
aa(lp430
Vnn
p431
aVbrownies
p432
aVwalnut
p433
aa(lp434
Vconj_and
p435
aVbrownies
p436
aVbrownies
p437
aasVwords
p438
(lp439
(lp440
VHe
p441
a(dp442
VNamedEntityTag
p443
g90
sVCharacterOffsetEnd
p444
V107
p445
sVCharacterOffsetBegin
p446
V105
p447
sVPartOfSpeech
p448
VPRP
p449
sVLemma
p450
Vhe
p451
saa(lp452
Vbrought
p453
a(dp454
VNamedEntityTag
p455
g90
sVCharacterOffsetEnd
p456
V115
p457
sVCharacterOffsetBegin
p458
V108
p459
sVPartOfSpeech
p460
VVBD
p461
sVLemma
p462
Vbring
p463
saa(lp464
V14
p465
a(dp466
VNormalizedNamedEntityTag
p467
V14.0
p468
sVLemma
p469
V14
p470
sVCharacterOffsetEnd
p471
V118
p472
sVPartOfSpeech
p473
VCD
p474
sVCharacterOffsetBegin
p475
V116
p476
sVNamedEntityTag
p477
VNUMBER
p478
saa(lp479
Vcaramel
p480
a(dp481
VNamedEntityTag
p482
g90
sVCharacterOffsetEnd
p483
V126
p484
sVCharacterOffsetBegin
p485
V119
p486
sVPartOfSpeech
p487
VNN
p488
sVLemma
p489
Vcaramel
p490
saa(lp491
Vbrownies
p492
a(dp493
VNamedEntityTag
p494
g90
sVCharacterOffsetEnd
p495
V135
p496
sVCharacterOffsetBegin
p497
V127
p498
sVPartOfSpeech
p499
VNNS
p500
sVLemma
p501
Vbrownie
p502
saa(lp503
Vand
p504
a(dp505
VNamedEntityTag
p506
g90
sVCharacterOffsetEnd
p507
V139
p508
sVCharacterOffsetBegin
p509
V136
p510
sVPartOfSpeech
p511
VCC
p512
sVLemma
p513
Vand
p514
saa(lp515
g429
a(dp516
VNormalizedNamedEntityTag
p517
V6.0
p518
sVLemma
p519
g429
sVCharacterOffsetEnd
p520
V141
p521
sVPartOfSpeech
p522
VCD
p523
sVCharacterOffsetBegin
p524
V140
p525
sVNamedEntityTag
p526
VNUMBER
p527
saa(lp528
Vwalnut
p529
a(dp530
VNamedEntityTag
p531
g90
sVCharacterOffsetEnd
p532
V148
p533
sVCharacterOffsetBegin
p534
V142
p535
sVPartOfSpeech
p536
VNN
p537
sVLemma
p538
Vwalnut
p539
saa(lp540
Vbrownies
p541
a(dp542
VNamedEntityTag
p543
g90
sVCharacterOffsetEnd
p544
V157
p545
sVCharacterOffsetBegin
p546
V149
p547
sVPartOfSpeech
p548
VNNS
p549
sVLemma
p550
Vbrownie
p551
saa(lp552
g328
a(dp553
VNamedEntityTag
p554
g90
sVCharacterOffsetEnd
p555
V159
p556
sVCharacterOffsetBegin
p557
V158
p558
sVPartOfSpeech
p559
g328
sVLemma
p560
g328
saasVindexeddependencies
p561
(lp562
(lp563
Vroot
p564
aVROOT-0
p565
aVbrought-2
p566
aa(lp567
Vnsubj
p568
aVbrought-2
p569
aVHe-1
p570
aa(lp571
Vnum
p572
aVbrownies-5
p573
aV14-3
p574
aa(lp575
Vnn
p576
aVbrownies-5
p577
aVcaramel-4
p578
aa(lp579
Vdobj
p580
aVbrought-2
p581
aVbrownies-5
p582
aa(lp583
Vnum
p584
aVbrownies-9
p585
aV6-7
p586
aa(lp587
Vnn
p588
aVbrownies-9
p589
aVwalnut-8
p590
aa(lp591
Vconj_and
p592
aVbrownies-5
p593
aVbrownies-9
p594
aasa(dp595
Vparsetree
p596
V(ROOT (SBARQ (WHNP (WHNP (WDT What) (NN percentage)) (PP (IN of) (NP (DT the) (NNS brownies)))) (SQ (VBD were) (NP (NN caramel))) (. ?)))
p597
sVtext
p598
VWhat percentage of the brownies were caramel ?
p599
sVdependencies
p600
(lp601
(lp602
Vroot
p603
aVROOT
p604
aVwere
p605
aa(lp606
Vdet
p607
aVpercentage
p608
aVWhat
p609
aa(lp610
Vdep
p611
aVwere
p612
aVpercentage
p613
aa(lp614
Vdet
p615
aVbrownies
p616
aVthe
p617
aa(lp618
Vprep_of
p619
aVpercentage
p620
aVbrownies
p621
aa(lp622
Vnsubj
p623
aVwere
p624
aVcaramel
p625
aasVwords
p626
(lp627
(lp628
VWhat
p629
a(dp630
VNamedEntityTag
p631
g90
sVCharacterOffsetEnd
p632
V164
p633
sVCharacterOffsetBegin
p634
V160
p635
sVPartOfSpeech
p636
VWDT
p637
sVLemma
p638
Vwhat
p639
saa(lp640
Vpercentage
p641
a(dp642
VNamedEntityTag
p643
g90
sVCharacterOffsetEnd
p644
V175
p645
sVCharacterOffsetBegin
p646
V165
p647
sVPartOfSpeech
p648
VNN
p649
sVLemma
p650
Vpercentage
p651
saa(lp652
Vof
p653
a(dp654
VNamedEntityTag
p655
g90
sVCharacterOffsetEnd
p656
V178
p657
sVCharacterOffsetBegin
p658
V176
p659
sVPartOfSpeech
p660
VIN
p661
sVLemma
p662
Vof
p663
saa(lp664
Vthe
p665
a(dp666
VNamedEntityTag
p667
g90
sVCharacterOffsetEnd
p668
V182
p669
sVCharacterOffsetBegin
p670
V179
p671
sVPartOfSpeech
p672
VDT
p673
sVLemma
p674
Vthe
p675
saa(lp676
Vbrownies
p677
a(dp678
VNamedEntityTag
p679
g90
sVCharacterOffsetEnd
p680
V191
p681
sVCharacterOffsetBegin
p682
V183
p683
sVPartOfSpeech
p684
VNNS
p685
sVLemma
p686
Vbrownie
p687
saa(lp688
Vwere
p689
a(dp690
VNamedEntityTag
p691
g90
sVCharacterOffsetEnd
p692
V196
p693
sVCharacterOffsetBegin
p694
V192
p695
sVPartOfSpeech
p696
VVBD
p697
sVLemma
p698
Vbe
p699
saa(lp700
Vcaramel
p701
a(dp702
VNamedEntityTag
p703
g90
sVCharacterOffsetEnd
p704
V204
p705
sVCharacterOffsetBegin
p706
V197
p707
sVPartOfSpeech
p708
VNN
p709
sVLemma
p710
Vcaramel
p711
saa(lp712
V?
p713
a(dp714
VNamedEntityTag
p715
g90
sVCharacterOffsetEnd
p716
V206
p717
sVCharacterOffsetBegin
p718
V205
p719
sVPartOfSpeech
p720
g328
sVLemma
p721
g713
saasVindexeddependencies
p722
(lp723
(lp724
Vroot
p725
aVROOT-0
p726
aVwere-6
p727
aa(lp728
Vdet
p729
aVpercentage-2
p730
aVWhat-1
p731
aa(lp732
Vdep
p733
aVwere-6
p734
aVpercentage-2
p735
aa(lp736
Vdet
p737
aVbrownies-5
p738
aVthe-4
p739
aa(lp740
Vprep_of
p741
aVpercentage-2
p742
aVbrownies-5
p743
aa(lp744
Vnsubj
p745
aVwere-6
p746
aVcaramel-7
p747
aasas.