(dp0
Vcoref
p1
(lp2
(lp3
(lp4
(lp5
Vthe flowers
p6
aI2
aI4
aI3
aI5
aa(lp7
Vthe 95 flowers
p8
aI1
aI4
aI2
aI5
aaaa(lp9
(lp10
(lp11
Vperennials
p12
aI2
aI6
aI6
aI7
aa(lp13
Vperennials
p14
aI1
aI10
aI10
aI11
aaaasVsentences
p15
(lp16
(dp17
Vparsetree
p18
V(ROOT (S (NP (DT A) (NN biology) (NN class)) (VP (VBD examined) (NP (DT some) (NNS flowers)) (PP (IN in) (NP (DT a) (JJ local) (NN meadow)))) (. .)))
p19
sVtext
p20
VA biology class examined some flowers in a local meadow .
p21
sVdependencies
p22
(lp23
(lp24
Vroot
p25
aVROOT
p26
aVexamined
p27
aa(lp28
Vdet
p29
aVclass
p30
aVA
p31
aa(lp32
Vnn
p33
aVclass
p34
aVbiology
p35
aa(lp36
Vnsubj
p37
aVexamined
p38
aVclass
p39
aa(lp40
Vdet
p41
aVflowers
p42
aVsome
p43
aa(lp44
Vdobj
p45
aVexamined
p46
aVflowers
p47
aa(lp48
Vdet
p49
aVmeadow
p50
aVa
p51
aa(lp52
Vamod
p53
aVmeadow
p54
aVlocal
p55
aa(lp56
Vprep_in
p57
aVexamined
p58
aVmeadow
p59
aasVwords
p60
(lp61
(lp62
g31
a(dp63
VNamedEntityTag
p64
VO
p65
sVCharacterOffsetEnd
p66
V2
p67
sVCharacterOffsetBegin
p68
V1
p69
sVPartOfSpeech
p70
VDT
p71
sVLemma
p72
g51
saa(lp73
Vbiology
p74
a(dp75
VNamedEntityTag
p76
g65
sVCharacterOffsetEnd
p77
V10
p78
sVCharacterOffsetBegin
p79
V3
p80
sVPartOfSpeech
p81
VNN
p82
sVLemma
p83
Vbiology
p84
saa(lp85
Vclass
p86
a(dp87
VNamedEntityTag
p88
g65
sVCharacterOffsetEnd
p89
V16
p90
sVCharacterOffsetBegin
p91
V11
p92
sVPartOfSpeech
p93
VNN
p94
sVLemma
p95
Vclass
p96
saa(lp97
Vexamined
p98
a(dp99
VNamedEntityTag
p100
g65
sVCharacterOffsetEnd
p101
V25
p102
sVCharacterOffsetBegin
p103
V17
p104
sVPartOfSpeech
p105
VVBD
p106
sVLemma
p107
Vexamine
p108
saa(lp109
Vsome
p110
a(dp111
VNamedEntityTag
p112
g65
sVCharacterOffsetEnd
p113
V30
p114
sVCharacterOffsetBegin
p115
V26
p116
sVPartOfSpeech
p117
VDT
p118
sVLemma
p119
Vsome
p120
saa(lp121
Vflowers
p122
a(dp123
VNamedEntityTag
p124
g65
sVCharacterOffsetEnd
p125
V38
p126
sVCharacterOffsetBegin
p127
V31
p128
sVPartOfSpeech
p129
VNNS
p130
sVLemma
p131
Vflower
p132
saa(lp133
Vin
p134
a(dp135
VNamedEntityTag
p136
g65
sVCharacterOffsetEnd
p137
V41
p138
sVCharacterOffsetBegin
p139
V39
p140
sVPartOfSpeech
p141
VIN
p142
sVLemma
p143
Vin
p144
saa(lp145
g51
a(dp146
VNamedEntityTag
p147
g65
sVCharacterOffsetEnd
p148
V43
p149
sVCharacterOffsetBegin
p150
V42
p151
sVPartOfSpeech
p152
VDT
p153
sVLemma
p154
g51
saa(lp155
Vlocal
p156
a(dp157
VNamedEntityTag
p158
g65
sVCharacterOffsetEnd
p159
V49
p160
sVCharacterOffsetBegin
p161
V44
p162
sVPartOfSpeech
p163
VJJ
p164
sVLemma
p165
Vlocal
p166
saa(lp167
Vmeadow
p168
a(dp169
VNamedEntityTag
p170
g65
sVCharacterOffsetEnd
p171
V56
p172
sVCharacterOffsetBegin
p173
V50
p174
sVPartOfSpeech
p175
VNN
p176
sVLemma
p177
Vmeadow
p178
saa(lp179
V.
p180
a(dp181
VNamedEntityTag
p182
g65
sVCharacterOffsetEnd
p183
V58
p184
sVCharacterOffsetBegin
p185
V57
p186
sVPartOfSpeech
p187
g180
sVLemma
p188
g180
saasVindexeddependencies
p189
(lp190
(lp191
Vroot
p192
aVROOT-0
p193
aVexamined-4
p194
aa(lp195
Vdet
p196
aVclass-3
p197
aVA-1
p198
aa(lp199
Vnn
p200
aVclass-3
p201
aVbiology-2
p202
aa(lp203
Vnsubj
p204
aVexamined-4
p205
aVclass-3
p206
aa(lp207
Vdet
p208
aVflowers-6
p209
aVsome-5
p210
aa(lp211
Vdobj
p212
aVexamined-4
p213
aVflowers-6
p214
aa(lp215
Vdet
p216
aVmeadow-10
p217
aVa-8
p218
aa(lp219
Vamod
p220
aVmeadow-10
p221
aVlocal-9
p222
aa(lp223
Vprep_in
p224
aVexamined-4
p225
aVmeadow-10
p226
aasa(dp227
Vparsetree
p228
V(ROOT (S (S (PP (IN Out) (PP (IN of) (NP (DT the) (CD 95) (NNS flowers)))) (NP (PRP they)) (VP (VBD saw))) (, ,) (NP (CD 76)) (VP (VBD were) (NP (NNS perennials))) (. .)))
p229
sVtext
p230
VOut of the 95 flowers they saw , 76 were perennials .
p231
sVdependencies
p232
(lp233
(lp234
Vroot
p235
aVROOT
p236
aVperennials
p237
aa(lp238
Vprepc_out_of
p239
aVsaw
p240
aVof
p241
aa(lp242
Vdet
p243
aVflowers
p244
aVthe
p245
aa(lp246
Vnum
p247
aVflowers
p248
aV95
p249
aa(lp250
Vpobj
p251
aVsaw
p252
aVflowers
p253
aa(lp254
Vnsubj
p255
aVsaw
p256
aVthey
p257
aa(lp258
Vccomp
p259
aVperennials
p260
aVsaw
p261
aa(lp262
Vnsubj
p263
aVperennials
p264
aV76
p265
aa(lp266
Vcop
p267
aVperennials
p268
aVwere
p269
aasVwords
p270
(lp271
(lp272
VOut
p273
a(dp274
VNamedEntityTag
p275
g65
sVCharacterOffsetEnd
p276
V62
p277
sVCharacterOffsetBegin
p278
V59
p279
sVPartOfSpeech
p280
VIN
p281
sVLemma
p282
Vout
p283
saa(lp284
Vof
p285
a(dp286
VNamedEntityTag
p287
g65
sVCharacterOffsetEnd
p288
V65
p289
sVCharacterOffsetBegin
p290
V63
p291
sVPartOfSpeech
p292
VIN
p293
sVLemma
p294
Vof
p295
saa(lp296
Vthe
p297
a(dp298
VNamedEntityTag
p299
g65
sVCharacterOffsetEnd
p300
V69
p301
sVCharacterOffsetBegin
p302
V66
p303
sVPartOfSpeech
p304
VDT
p305
sVLemma
p306
Vthe
p307
saa(lp308
V95
p309
a(dp310
VNormalizedNamedEntityTag
p311
V95.0
p312
sVLemma
p313
V95
p314
sVCharacterOffsetEnd
p315
V72
p316
sVPartOfSpeech
p317
VCD
p318
sVCharacterOffsetBegin
p319
V70
p320
sVNamedEntityTag
p321
VNUMBER
p322
saa(lp323
Vflowers
p324
a(dp325
VNamedEntityTag
p326
g65
sVCharacterOffsetEnd
p327
V80
p328
sVCharacterOffsetBegin
p329
V73
p330
sVPartOfSpeech
p331
VNNS
p332
sVLemma
p333
Vflower
p334
saa(lp335
Vthey
p336
a(dp337
VNamedEntityTag
p338
g65
sVCharacterOffsetEnd
p339
V85
p340
sVCharacterOffsetBegin
p341
V81
p342
sVPartOfSpeech
p343
VPRP
p344
sVLemma
p345
Vthey
p346
saa(lp347
Vsaw
p348
a(dp349
VNamedEntityTag
p350
g65
sVCharacterOffsetEnd
p351
V89
p352
sVCharacterOffsetBegin
p353
V86
p354
sVPartOfSpeech
p355
VVBD
p356
sVLemma
p357
Vsee
p358
saa(lp359
V,
p360
a(dp361
VNamedEntityTag
p362
g65
sVCharacterOffsetEnd
p363
V91
p364
sVCharacterOffsetBegin
p365
V90
p366
sVPartOfSpeech
p367
g360
sVLemma
p368
g360
saa(lp369
V76
p370
a(dp371
VNormalizedNamedEntityTag
p372
V76.0
p373
sVLemma
p374
V76
p375
sVCharacterOffsetEnd
p376
V94
p377
sVPartOfSpeech
p378
VCD
p379
sVCharacterOffsetBegin
p380
V92
p381
sVNamedEntityTag
p382
VNUMBER
p383
saa(lp384
Vwere
p385
a(dp386
VNamedEntityTag
p387
g65
sVCharacterOffsetEnd
p388
V99
p389
sVCharacterOffsetBegin
p390
V95
p391
sVPartOfSpeech
p392
VVBD
p393
sVLemma
p394
Vbe
p395
saa(lp396
Vperennials
p397
a(dp398
VNamedEntityTag
p399
g65
sVCharacterOffsetEnd
p400
V110
p401
sVCharacterOffsetBegin
p402
V100
p403
sVPartOfSpeech
p404
VNNS
p405
sVLemma
p406
Vperennial
p407
saa(lp408
g180
a(dp409
VNamedEntityTag
p410
g65
sVCharacterOffsetEnd
p411
V112
p412
sVCharacterOffsetBegin
p413
V111
p414
sVPartOfSpeech
p415
g180
sVLemma
p416
g180
saasVindexeddependencies
p417
(lp418
(lp419
Vroot
p420
aVROOT-0
p421
aVperennials-11
p422
aa(lp423
Vprepc_out_of
p424
aVsaw-7
p425
aVof-2
p426
aa(lp427
Vdet
p428
aVflowers-5
p429
aVthe-3
p430
aa(lp431
Vnum
p432
aVflowers-5
p433
aV95-4
p434
aa(lp435
Vpobj
p436
aVsaw-7
p437
aVflowers-5
p438
aa(lp439
Vnsubj
p440
aVsaw-7
p441
aVthey-6
p442
aa(lp443
Vccomp
p444
aVperennials-11
p445
aVsaw-7
p446
aa(lp447
Vnsubj
p448
aVperennials-11
p449
aV76-9
p450
aa(lp451
Vcop
p452
aVperennials-11
p453
aVwere-10
p454
aasa(dp455
Vparsetree
p456
V(ROOT (SBARQ (WHNP (WHNP (WDT What) (NN percentage)) (PP (IN of) (NP (DT the) (NNS flowers)))) (SQ (VBD were) (NP (NNS perennials))) (. ?)))
p457
sVtext
p458
VWhat percentage of the flowers were perennials ?
p459
sVdependencies
p460
(lp461
(lp462
Vroot
p463
aVROOT
p464
aVwere
p465
aa(lp466
Vdet
p467
aVpercentage
p468
aVWhat
p469
aa(lp470
Vdep
p471
aVwere
p472
aVpercentage
p473
aa(lp474
Vdet
p475
aVflowers
p476
aVthe
p477
aa(lp478
Vprep_of
p479
aVpercentage
p480
aVflowers
p481
aa(lp482
Vnsubj
p483
aVwere
p484
aVperennials
p485
aasVwords
p486
(lp487
(lp488
VWhat
p489
a(dp490
VNamedEntityTag
p491
g65
sVCharacterOffsetEnd
p492
V117
p493
sVCharacterOffsetBegin
p494
V113
p495
sVPartOfSpeech
p496
VWDT
p497
sVLemma
p498
Vwhat
p499
saa(lp500
Vpercentage
p501
a(dp502
VNamedEntityTag
p503
g65
sVCharacterOffsetEnd
p504
V128
p505
sVCharacterOffsetBegin
p506
V118
p507
sVPartOfSpeech
p508
VNN
p509
sVLemma
p510
Vpercentage
p511
saa(lp512
Vof
p513
a(dp514
VNamedEntityTag
p515
g65
sVCharacterOffsetEnd
p516
V131
p517
sVCharacterOffsetBegin
p518
V129
p519
sVPartOfSpeech
p520
VIN
p521
sVLemma
p522
Vof
p523
saa(lp524
Vthe
p525
a(dp526
VNamedEntityTag
p527
g65
sVCharacterOffsetEnd
p528
V135
p529
sVCharacterOffsetBegin
p530
V132
p531
sVPartOfSpeech
p532
VDT
p533
sVLemma
p534
Vthe
p535
saa(lp536
Vflowers
p537
a(dp538
VNamedEntityTag
p539
g65
sVCharacterOffsetEnd
p540
V143
p541
sVCharacterOffsetBegin
p542
V136
p543
sVPartOfSpeech
p544
VNNS
p545
sVLemma
p546
Vflower
p547
saa(lp548
Vwere
p549
a(dp550
VNamedEntityTag
p551
g65
sVCharacterOffsetEnd
p552
V148
p553
sVCharacterOffsetBegin
p554
V144
p555
sVPartOfSpeech
p556
VVBD
p557
sVLemma
p558
Vbe
p559
saa(lp560
Vperennials
p561
a(dp562
VNamedEntityTag
p563
g65
sVCharacterOffsetEnd
p564
V159
p565
sVCharacterOffsetBegin
p566
V149
p567
sVPartOfSpeech
p568
VNNS
p569
sVLemma
p570
Vperennial
p571
saa(lp572
V?
p573
a(dp574
VNamedEntityTag
p575
g65
sVCharacterOffsetEnd
p576
V161
p577
sVCharacterOffsetBegin
p578
V160
p579
sVPartOfSpeech
p580
g180
sVLemma
p581
g573
saasVindexeddependencies
p582
(lp583
(lp584
Vroot
p585
aVROOT-0
p586
aVwere-6
p587
aa(lp588
Vdet
p589
aVpercentage-2
p590
aVWhat-1
p591
aa(lp592
Vdep
p593
aVwere-6
p594
aVpercentage-2
p595
aa(lp596
Vdet
p597
aVflowers-5
p598
aVthe-4
p599
aa(lp600
Vprep_of
p601
aVpercentage-2
p602
aVflowers-5
p603
aa(lp604
Vnsubj
p605
aVwere-6
p606
aVperennials-7
p607
aasas.