(dp0
Vcoref
p1
(lp2
(lp3
(lp4
(lp5
Vhe
p6
aI1
aI1
aI1
aI2
aa(lp7
VEdward
p8
aI0
aI3
aI3
aI4
aaa(lp9
(lp10
Vhe
p11
aI1
aI18
aI18
aI19
aa(lp12
VEdward
p13
aI0
aI3
aI3
aI4
aaaa(lp14
(lp15
(lp16
V4
p17
aI1
aI11
aI11
aI12
aa(lp18
g17
aI1
aI3
aI3
aI4
aaaasVsentences
p19
(lp20
(dp21
Vparsetree
p22
V(ROOT (S (PP (IN At) (NP (DT the) (NN arcade))) (NP (NNP Edward)) (VP (VBD won) (NP (CD 9) (NNS tickets))) (. .)))
p23
sVtext
p24
VAt the arcade Edward won 9 tickets .
p25
sVdependencies
p26
(lp27
(lp28
Vroot
p29
aVROOT
p30
aVwon
p31
aa(lp32
Vdet
p33
aVarcade
p34
aVthe
p35
aa(lp36
Vprep_at
p37
aVwon
p38
aVarcade
p39
aa(lp40
Vnsubj
p41
aVwon
p42
aVEdward
p43
aa(lp44
Vnum
p45
aVtickets
p46
aV9
p47
aa(lp48
Vdobj
p49
aVwon
p50
aVtickets
p51
aasVwords
p52
(lp53
(lp54
VAt
p55
a(dp56
VNamedEntityTag
p57
VO
p58
sVCharacterOffsetEnd
p59
V3
p60
sVCharacterOffsetBegin
p61
V1
p62
sVPartOfSpeech
p63
VIN
p64
sVLemma
p65
Vat
p66
saa(lp67
Vthe
p68
a(dp69
VNamedEntityTag
p70
g58
sVCharacterOffsetEnd
p71
V7
p72
sVCharacterOffsetBegin
p73
g17
sVPartOfSpeech
p74
VDT
p75
sVLemma
p76
Vthe
p77
saa(lp78
Varcade
p79
a(dp80
VNamedEntityTag
p81
g58
sVCharacterOffsetEnd
p82
V14
p83
sVCharacterOffsetBegin
p84
V8
p85
sVPartOfSpeech
p86
VNN
p87
sVLemma
p88
Varcade
p89
saa(lp90
VEdward
p91
a(dp92
VNamedEntityTag
p93
VPERSON
p94
sVCharacterOffsetEnd
p95
V21
p96
sVCharacterOffsetBegin
p97
V15
p98
sVPartOfSpeech
p99
VNNP
p100
sVLemma
p101
VEdward
p102
saa(lp103
Vwon
p104
a(dp105
VNamedEntityTag
p106
g58
sVCharacterOffsetEnd
p107
V25
p108
sVCharacterOffsetBegin
p109
V22
p110
sVPartOfSpeech
p111
VVBD
p112
sVLemma
p113
Vwin
p114
saa(lp115
g47
a(dp116
VNormalizedNamedEntityTag
p117
V9.0
p118
sVLemma
p119
g47
sVCharacterOffsetEnd
p120
V27
p121
sVPartOfSpeech
p122
VCD
p123
sVCharacterOffsetBegin
p124
V26
p125
sVNamedEntityTag
p126
VNUMBER
p127
saa(lp128
Vtickets
p129
a(dp130
VNamedEntityTag
p131
g58
sVCharacterOffsetEnd
p132
V35
p133
sVCharacterOffsetBegin
p134
V28
p135
sVPartOfSpeech
p136
VNNS
p137
sVLemma
p138
Vticket
p139
saa(lp140
V.
p141
a(dp142
VNamedEntityTag
p143
g58
sVCharacterOffsetEnd
p144
V37
p145
sVCharacterOffsetBegin
p146
V36
p147
sVPartOfSpeech
p148
g141
sVLemma
p149
g141
saasVindexeddependencies
p150
(lp151
(lp152
Vroot
p153
aVROOT-0
p154
aVwon-5
p155
aa(lp156
Vdet
p157
aVarcade-3
p158
aVthe-2
p159
aa(lp160
Vprep_at
p161
aVwon-5
p162
aVarcade-3
p163
aa(lp164
Vnsubj
p165
aVwon-5
p166
aVEdward-4
p167
aa(lp168
Vnum
p169
aVtickets-7
p170
aV9-6
p171
aa(lp172
Vdobj
p173
aVwon-5
p174
aVtickets-7
p175
aasa(dp176
Vparsetree
p177
V(ROOT (SBARQ (SBAR (IN If) (S (NP (PRP he)) (VP (VP (VBD spent) (NP (CD 4) (NNS tickets)) (PP (IN on) (NP (DT a) (NN beanie)))) (CC and) (VP (ADVP (RB later)) (VBD won) (NP (QP (CD 4) (JJR more)) (NNS tickets)))))) (, ,) (WHNP (WRB how) (JJ many)) (SQ (MD would) (NP (PRP he)) (VP (VB have))) (. ?)))
p178
sVtext
p179
VIf he spent 4 tickets on a beanie and later won 4 more tickets , how many would he have ?
p180
sVdependencies
p181
(lp182
(lp183
Vroot
p184
aVROOT
p185
aVhave
p186
aa(lp187
Vmark
p188
aVspent
p189
aVIf
p190
aa(lp191
Vnsubj
p192
aVspent
p193
aVhe
p194
aa(lp195
Vadvcl
p196
aVhave
p197
aVspent
p198
aa(lp199
Vnum
p200
aVtickets
p201
ag17
aa(lp202
Vdobj
p203
aVspent
p204
aVtickets
p205
aa(lp206
Vdet
p207
aVbeanie
p208
aVa
p209
aa(lp210
Vprep_on
p211
aVspent
p212
aVbeanie
p213
aa(lp214
Vadvmod
p215
aVwon
p216
aVlater
p217
aa(lp218
Vconj_and
p219
aVspent
p220
aVwon
p221
aa(lp222
Vnum
p223
aVtickets
p224
ag17
aa(lp225
Vquantmod
p226
ag17
aVmore
p227
aa(lp228
Vdobj
p229
aVwon
p230
aVtickets
p231
aa(lp232
Vadvmod
p233
aVmany
p234
aVhow
p235
aa(lp236
Vdep
p237
aVhave
p238
aVmany
p239
aa(lp240
Vaux
p241
aVhave
p242
aVwould
p243
aa(lp244
Vnsubj
p245
aVhave
p246
aVhe
p247
aasVwords
p248
(lp249
(lp250
VIf
p251
a(dp252
VNamedEntityTag
p253
g58
sVCharacterOffsetEnd
p254
V40
p255
sVCharacterOffsetBegin
p256
V38
p257
sVPartOfSpeech
p258
VIN
p259
sVLemma
p260
Vif
p261
saa(lp262
Vhe
p263
a(dp264
VNamedEntityTag
p265
g58
sVCharacterOffsetEnd
p266
V43
p267
sVCharacterOffsetBegin
p268
V41
p269
sVPartOfSpeech
p270
VPRP
p271
sVLemma
p272
Vhe
p273
saa(lp274
Vspent
p275
a(dp276
VNamedEntityTag
p277
g58
sVCharacterOffsetEnd
p278
V49
p279
sVCharacterOffsetBegin
p280
V44
p281
sVPartOfSpeech
p282
VVBD
p283
sVLemma
p284
Vspend
p285
saa(lp286
g17
a(dp287
VNormalizedNamedEntityTag
p288
V4.0
p289
sVLemma
p290
g17
sVCharacterOffsetEnd
p291
V51
p292
sVPartOfSpeech
p293
VCD
p294
sVCharacterOffsetBegin
p295
V50
p296
sVNamedEntityTag
p297
VNUMBER
p298
saa(lp299
Vtickets
p300
a(dp301
VNamedEntityTag
p302
g58
sVCharacterOffsetEnd
p303
V59
p304
sVCharacterOffsetBegin
p305
V52
p306
sVPartOfSpeech
p307
VNNS
p308
sVLemma
p309
Vticket
p310
saa(lp311
Von
p312
a(dp313
VNamedEntityTag
p314
g58
sVCharacterOffsetEnd
p315
V62
p316
sVCharacterOffsetBegin
p317
V60
p318
sVPartOfSpeech
p319
VIN
p320
sVLemma
p321
Von
p322
saa(lp323
g209
a(dp324
VNamedEntityTag
p325
g58
sVCharacterOffsetEnd
p326
V64
p327
sVCharacterOffsetBegin
p328
V63
p329
sVPartOfSpeech
p330
VDT
p331
sVLemma
p332
g209
saa(lp333
Vbeanie
p334
a(dp335
VNamedEntityTag
p336
g58
sVCharacterOffsetEnd
p337
V71
p338
sVCharacterOffsetBegin
p339
V65
p340
sVPartOfSpeech
p341
VNN
p342
sVLemma
p343
Vbeanie
p344
saa(lp345
Vand
p346
a(dp347
VNamedEntityTag
p348
g58
sVCharacterOffsetEnd
p349
V75
p350
sVCharacterOffsetBegin
p351
V72
p352
sVPartOfSpeech
p353
VCC
p354
sVLemma
p355
Vand
p356
saa(lp357
Vlater
p358
a(dp359
VNamedEntityTag
p360
g58
sVCharacterOffsetEnd
p361
V81
p362
sVCharacterOffsetBegin
p363
V76
p364
sVPartOfSpeech
p365
VRB
p366
sVLemma
p367
Vlater
p368
saa(lp369
Vwon
p370
a(dp371
VNamedEntityTag
p372
g58
sVCharacterOffsetEnd
p373
V85
p374
sVCharacterOffsetBegin
p375
V82
p376
sVPartOfSpeech
p377
VVBD
p378
sVLemma
p379
Vwin
p380
saa(lp381
g17
a(dp382
VNormalizedNamedEntityTag
p383
V4.0
p384
sVLemma
p385
g17
sVCharacterOffsetEnd
p386
V87
p387
sVPartOfSpeech
p388
VCD
p389
sVCharacterOffsetBegin
p390
V86
p391
sVNamedEntityTag
p392
VNUMBER
p393
saa(lp394
Vmore
p395
a(dp396
VNamedEntityTag
p397
g58
sVCharacterOffsetEnd
p398
V92
p399
sVCharacterOffsetBegin
p400
V88
p401
sVPartOfSpeech
p402
VJJR
p403
sVLemma
p404
Vmore
p405
saa(lp406
Vtickets
p407
a(dp408
VNamedEntityTag
p409
g58
sVCharacterOffsetEnd
p410
V100
p411
sVCharacterOffsetBegin
p412
V93
p413
sVPartOfSpeech
p414
VNNS
p415
sVLemma
p416
Vticket
p417
saa(lp418
V,
p419
a(dp420
VNamedEntityTag
p421
g58
sVCharacterOffsetEnd
p422
V102
p423
sVCharacterOffsetBegin
p424
V101
p425
sVPartOfSpeech
p426
g419
sVLemma
p427
g419
saa(lp428
Vhow
p429
a(dp430
VNamedEntityTag
p431
g58
sVCharacterOffsetEnd
p432
V106
p433
sVCharacterOffsetBegin
p434
V103
p435
sVPartOfSpeech
p436
VWRB
p437
sVLemma
p438
Vhow
p439
saa(lp440
Vmany
p441
a(dp442
VNamedEntityTag
p443
g58
sVCharacterOffsetEnd
p444
V111
p445
sVCharacterOffsetBegin
p446
V107
p447
sVPartOfSpeech
p448
VJJ
p449
sVLemma
p450
Vmany
p451
saa(lp452
Vwould
p453
a(dp454
VNamedEntityTag
p455
g58
sVCharacterOffsetEnd
p456
V117
p457
sVCharacterOffsetBegin
p458
V112
p459
sVPartOfSpeech
p460
VMD
p461
sVLemma
p462
Vwould
p463
saa(lp464
Vhe
p465
a(dp466
VNamedEntityTag
p467
g58
sVCharacterOffsetEnd
p468
V120
p469
sVCharacterOffsetBegin
p470
V118
p471
sVPartOfSpeech
p472
VPRP
p473
sVLemma
p474
Vhe
p475
saa(lp476
Vhave
p477
a(dp478
VNamedEntityTag
p479
g58
sVCharacterOffsetEnd
p480
V125
p481
sVCharacterOffsetBegin
p482
V121
p483
sVPartOfSpeech
p484
VVB
p485
sVLemma
p486
Vhave
p487
saa(lp488
V?
p489
a(dp490
VNamedEntityTag
p491
g58
sVCharacterOffsetEnd
p492
V127
p493
sVCharacterOffsetBegin
p494
V126
p495
sVPartOfSpeech
p496
g141
sVLemma
p497
g489
saasVindexeddependencies
p498
(lp499
(lp500
Vroot
p501
aVROOT-0
p502
aVhave-20
p503
aa(lp504
Vmark
p505
aVspent-3
p506
aVIf-1
p507
aa(lp508
Vnsubj
p509
aVspent-3
p510
aVhe-2
p511
aa(lp512
Vadvcl
p513
aVhave-20
p514
aVspent-3
p515
aa(lp516
Vnum
p517
aVtickets-5
p518
aV4-4
p519
aa(lp520
Vdobj
p521
aVspent-3
p522
aVtickets-5
p523
aa(lp524
Vdet
p525
aVbeanie-8
p526
aVa-7
p527
aa(lp528
Vprep_on
p529
aVspent-3
p530
aVbeanie-8
p531
aa(lp532
Vadvmod
p533
aVwon-11
p534
aVlater-10
p535
aa(lp536
Vconj_and
p537
aVspent-3
p538
aVwon-11
p539
aa(lp540
Vnum
p541
aVtickets-14
p542
aV4-12
p543
aa(lp544
Vquantmod
p545
aV4-12
p546
aVmore-13
p547
aa(lp548
Vdobj
p549
aVwon-11
p550
aVtickets-14
p551
aa(lp552
Vadvmod
p553
aVmany-17
p554
aVhow-16
p555
aa(lp556
Vdep
p557
aVhave-20
p558
aVmany-17
p559
aa(lp560
Vaux
p561
aVhave-20
p562
aVwould-18
p563
aa(lp564
Vnsubj
p565
aVhave-20
p566
aVhe-19
p567
aasas.