(dp0
Vcoref
p1
(lp2
(lp3
(lp4
(lp5
Vfourth
p6
aI2
aI5
aI5
aI6
aa(lp7
Vfourth
p8
aI0
aI1
aI1
aI2
aaaa(lp9
(lp10
(lp11
Vthe year
p12
aI1
aI2
aI1
aI3
aa(lp13
Vthe year
p14
aI0
aI12
aI11
aI13
aaaasVsentences
p15
(lp16
(dp17
Vparsetree
p18
V(ROOT (S (PP (IN In) (NP (JJ fourth) (NN grade))) (NP (EX there)) (VP (VBD were) (NP (NP (CD 4) (NNS students)) (PP (IN at) (NP (NP (DT the) (NN start)) (PP (IN of) (NP (DT the) (NN year))))))) (. .)))
p19
sVtext
p20
VIn fourth grade there were 4 students at the start of the year .
p21
sVdependencies
p22
(lp23
(lp24
Vroot
p25
aVROOT
p26
aVwere
p27
aa(lp28
Vamod
p29
aVgrade
p30
aVfourth
p31
aa(lp32
Vprep_in
p33
aVwere
p34
aVgrade
p35
aa(lp36
Vexpl
p37
aVwere
p38
aVthere
p39
aa(lp40
Vnum
p41
aVstudents
p42
aV4
p43
aa(lp44
Vnsubj
p45
aVwere
p46
aVstudents
p47
aa(lp48
Vdet
p49
aVstart
p50
aVthe
p51
aa(lp52
Vprep_at
p53
aVstudents
p54
aVstart
p55
aa(lp56
Vdet
p57
aVyear
p58
aVthe
p59
aa(lp60
Vprep_of
p61
aVstart
p62
aVyear
p63
aasVwords
p64
(lp65
(lp66
VIn
p67
a(dp68
VNamedEntityTag
p69
VO
p70
sVCharacterOffsetEnd
p71
V3
p72
sVCharacterOffsetBegin
p73
V1
p74
sVPartOfSpeech
p75
VIN
p76
sVLemma
p77
Vin
p78
saa(lp79
Vfourth
p80
a(dp81
VNormalizedNamedEntityTag
p82
V4.0
p83
sVLemma
p84
Vfourth
p85
sVCharacterOffsetEnd
p86
V10
p87
sVPartOfSpeech
p88
VJJ
p89
sVCharacterOffsetBegin
p90
g43
sVNamedEntityTag
p91
VORDINAL
p92
saa(lp93
Vgrade
p94
a(dp95
VNamedEntityTag
p96
g70
sVCharacterOffsetEnd
p97
V16
p98
sVCharacterOffsetBegin
p99
V11
p100
sVPartOfSpeech
p101
VNN
p102
sVLemma
p103
Vgrade
p104
saa(lp105
Vthere
p106
a(dp107
VNamedEntityTag
p108
g70
sVCharacterOffsetEnd
p109
V22
p110
sVCharacterOffsetBegin
p111
V17
p112
sVPartOfSpeech
p113
VEX
p114
sVLemma
p115
Vthere
p116
saa(lp117
Vwere
p118
a(dp119
VNamedEntityTag
p120
g70
sVCharacterOffsetEnd
p121
V27
p122
sVCharacterOffsetBegin
p123
V23
p124
sVPartOfSpeech
p125
VVBD
p126
sVLemma
p127
Vbe
p128
saa(lp129
g43
a(dp130
VNormalizedNamedEntityTag
p131
V4.0
p132
sVLemma
p133
g43
sVCharacterOffsetEnd
p134
V29
p135
sVPartOfSpeech
p136
VCD
p137
sVCharacterOffsetBegin
p138
V28
p139
sVNamedEntityTag
p140
VNUMBER
p141
saa(lp142
Vstudents
p143
a(dp144
VNamedEntityTag
p145
g70
sVCharacterOffsetEnd
p146
V38
p147
sVCharacterOffsetBegin
p148
V30
p149
sVPartOfSpeech
p150
VNNS
p151
sVLemma
p152
Vstudent
p153
saa(lp154
Vat
p155
a(dp156
VNamedEntityTag
p157
g70
sVCharacterOffsetEnd
p158
V41
p159
sVCharacterOffsetBegin
p160
V39
p161
sVPartOfSpeech
p162
VIN
p163
sVLemma
p164
Vat
p165
saa(lp166
Vthe
p167
a(dp168
VNormalizedNamedEntityTag
p169
VTHIS
p170
sVTimex
p171
V<TIMEX3 alt_value="THIS P1Y" anchorTimeID="t0" mod="EARLY" temporalFunction="true" tid="t1" type="DATE" valueFromFunction="tf0">the start of the year</TIMEX3>
p172
sVLemma
p173
Vthe
p174
sVCharacterOffsetEnd
p175
V45
p176
sVPartOfSpeech
p177
VDT
p178
sVCharacterOffsetBegin
p179
V42
p180
sVNamedEntityTag
p181
VDATE
p182
saa(lp183
Vstart
p184
a(dp185
VNormalizedNamedEntityTag
p186
VTHIS
p187
sVTimex
p188
V<TIMEX3 alt_value="THIS P1Y" anchorTimeID="t0" mod="EARLY" temporalFunction="true" tid="t1" type="DATE" valueFromFunction="tf0">the start of the year</TIMEX3>
p189
sVLemma
p190
Vstart
p191
sVCharacterOffsetEnd
p192
V51
p193
sVPartOfSpeech
p194
VNN
p195
sVCharacterOffsetBegin
p196
V46
p197
sVNamedEntityTag
p198
VDATE
p199
saa(lp200
Vof
p201
a(dp202
VNormalizedNamedEntityTag
p203
VTHIS
p204
sVTimex
p205
V<TIMEX3 alt_value="THIS P1Y" anchorTimeID="t0" mod="EARLY" temporalFunction="true" tid="t1" type="DATE" valueFromFunction="tf0">the start of the year</TIMEX3>
p206
sVLemma
p207
Vof
p208
sVCharacterOffsetEnd
p209
V54
p210
sVPartOfSpeech
p211
VIN
p212
sVCharacterOffsetBegin
p213
V52
p214
sVNamedEntityTag
p215
VDATE
p216
saa(lp217
Vthe
p218
a(dp219
VNormalizedNamedEntityTag
p220
VTHIS
p221
sVTimex
p222
V<TIMEX3 alt_value="THIS P1Y" anchorTimeID="t0" mod="EARLY" temporalFunction="true" tid="t1" type="DATE" valueFromFunction="tf0">the start of the year</TIMEX3>
p223
sVLemma
p224
Vthe
p225
sVCharacterOffsetEnd
p226
V58
p227
sVPartOfSpeech
p228
VDT
p229
sVCharacterOffsetBegin
p230
V55
p231
sVNamedEntityTag
p232
VDATE
p233
saa(lp234
Vyear
p235
a(dp236
VNormalizedNamedEntityTag
p237
VTHIS
p238
sVTimex
p239
V<TIMEX3 alt_value="THIS P1Y" anchorTimeID="t0" mod="EARLY" temporalFunction="true" tid="t1" type="DATE" valueFromFunction="tf0">the start of the year</TIMEX3>
p240
sVLemma
p241
Vyear
p242
sVCharacterOffsetEnd
p243
V63
p244
sVPartOfSpeech
p245
VNN
p246
sVCharacterOffsetBegin
p247
V59
p248
sVNamedEntityTag
p249
VDATE
p250
saa(lp251
V.
p252
a(dp253
VNamedEntityTag
p254
g70
sVCharacterOffsetEnd
p255
V65
p256
sVCharacterOffsetBegin
p257
V64
p258
sVPartOfSpeech
p259
g252
sVLemma
p260
g252
saasVindexeddependencies
p261
(lp262
(lp263
Vroot
p264
aVROOT-0
p265
aVwere-5
p266
aa(lp267
Vamod
p268
aVgrade-3
p269
aVfourth-2
p270
aa(lp271
Vprep_in
p272
aVwere-5
p273
aVgrade-3
p274
aa(lp275
Vexpl
p276
aVwere-5
p277
aVthere-4
p278
aa(lp279
Vnum
p280
aVstudents-7
p281
aV4-6
p282
aa(lp283
Vnsubj
p284
aVwere-5
p285
aVstudents-7
p286
aa(lp287
Vdet
p288
aVstart-10
p289
aVthe-9
p290
aa(lp291
Vprep_at
p292
aVstudents-7
p293
aVstart-10
p294
aa(lp295
Vdet
p296
aVyear-13
p297
aVthe-12
p298
aa(lp299
Vprep_of
p300
aVstart-10
p301
aVyear-13
p302
aasa(dp303
Vparsetree
p304
V(ROOT (S (S (PP (IN During) (NP (DT the) (NN year))) (NP (CD 3) (NNS students)) (VP (VBD left))) (CC and) (S (NP (CD 42) (JJ new) (NNS students)) (VP (VBD came) (PP (TO to) (NP (NN school))))) (. .)))
p305
sVtext
p306
VDuring the year 3 students left and 42 new students came to school .
p307
sVdependencies
p308
(lp309
(lp310
Vroot
p311
aVROOT
p312
aVleft
p313
aa(lp314
Vdet
p315
aVyear
p316
aVthe
p317
aa(lp318
Vprep_during
p319
aVleft
p320
aVyear
p321
aa(lp322
Vnum
p323
aVstudents
p324
ag72
aa(lp325
Vnsubj
p326
aVleft
p327
aVstudents
p328
aa(lp329
Vnum
p330
aVstudents
p331
aV42
p332
aa(lp333
Vamod
p334
aVstudents
p335
aVnew
p336
aa(lp337
Vnsubj
p338
aVcame
p339
aVstudents
p340
aa(lp341
Vconj_and
p342
aVleft
p343
aVcame
p344
aa(lp345
Vprep_to
p346
aVcame
p347
aVschool
p348
aasVwords
p349
(lp350
(lp351
VDuring
p352
a(dp353
VNamedEntityTag
p354
g70
sVCharacterOffsetEnd
p355
V72
p356
sVCharacterOffsetBegin
p357
V66
p358
sVPartOfSpeech
p359
VIN
p360
sVLemma
p361
Vduring
p362
saa(lp363
Vthe
p364
a(dp365
VNormalizedNamedEntityTag
p366
VTHIS
p367
sVTimex
p368
V<TIMEX3 alt_value="THIS P1Y" anchorTimeID="t0" temporalFunction="true" tid="t1" type="DATE" valueFromFunction="tf0">the year</TIMEX3>
p369
sVLemma
p370
Vthe
p371
sVCharacterOffsetEnd
p372
V76
p373
sVPartOfSpeech
p374
VDT
p375
sVCharacterOffsetBegin
p376
V73
p377
sVNamedEntityTag
p378
VDATE
p379
saa(lp380
Vyear
p381
a(dp382
VNormalizedNamedEntityTag
p383
VTHIS
p384
sVTimex
p385
V<TIMEX3 alt_value="THIS P1Y" anchorTimeID="t0" temporalFunction="true" tid="t1" type="DATE" valueFromFunction="tf0">the year</TIMEX3>
p386
sVLemma
p387
Vyear
p388
sVCharacterOffsetEnd
p389
V81
p390
sVPartOfSpeech
p391
VNN
p392
sVCharacterOffsetBegin
p393
V77
p394
sVNamedEntityTag
p395
VDATE
p396
saa(lp397
g72
a(dp398
VNormalizedNamedEntityTag
p399
V3.0
p400
sVLemma
p401
g72
sVCharacterOffsetEnd
p402
V83
p403
sVPartOfSpeech
p404
VCD
p405
sVCharacterOffsetBegin
p406
V82
p407
sVNamedEntityTag
p408
VNUMBER
p409
saa(lp410
Vstudents
p411
a(dp412
VNamedEntityTag
p413
g70
sVCharacterOffsetEnd
p414
V92
p415
sVCharacterOffsetBegin
p416
V84
p417
sVPartOfSpeech
p418
VNNS
p419
sVLemma
p420
Vstudent
p421
saa(lp422
Vleft
p423
a(dp424
VNamedEntityTag
p425
g70
sVCharacterOffsetEnd
p426
V97
p427
sVCharacterOffsetBegin
p428
V93
p429
sVPartOfSpeech
p430
VVBD
p431
sVLemma
p432
Vleave
p433
saa(lp434
Vand
p435
a(dp436
VNamedEntityTag
p437
g70
sVCharacterOffsetEnd
p438
V101
p439
sVCharacterOffsetBegin
p440
V98
p441
sVPartOfSpeech
p442
VCC
p443
sVLemma
p444
Vand
p445
saa(lp446
V42
p447
a(dp448
VNormalizedNamedEntityTag
p449
V42.0
p450
sVLemma
p451
V42
p452
sVCharacterOffsetEnd
p453
V104
p454
sVPartOfSpeech
p455
VCD
p456
sVCharacterOffsetBegin
p457
V102
p458
sVNamedEntityTag
p459
VNUMBER
p460
saa(lp461
Vnew
p462
a(dp463
VNamedEntityTag
p464
g70
sVCharacterOffsetEnd
p465
V108
p466
sVCharacterOffsetBegin
p467
V105
p468
sVPartOfSpeech
p469
VJJ
p470
sVLemma
p471
Vnew
p472
saa(lp473
Vstudents
p474
a(dp475
VNamedEntityTag
p476
g70
sVCharacterOffsetEnd
p477
V117
p478
sVCharacterOffsetBegin
p479
V109
p480
sVPartOfSpeech
p481
VNNS
p482
sVLemma
p483
Vstudent
p484
saa(lp485
Vcame
p486
a(dp487
VNamedEntityTag
p488
g70
sVCharacterOffsetEnd
p489
V122
p490
sVCharacterOffsetBegin
p491
V118
p492
sVPartOfSpeech
p493
VVBD
p494
sVLemma
p495
Vcome
p496
saa(lp497
Vto
p498
a(dp499
VNamedEntityTag
p500
g70
sVCharacterOffsetEnd
p501
V125
p502
sVCharacterOffsetBegin
p503
V123
p504
sVPartOfSpeech
p505
VTO
p506
sVLemma
p507
Vto
p508
saa(lp509
Vschool
p510
a(dp511
VNamedEntityTag
p512
g70
sVCharacterOffsetEnd
p513
V132
p514
sVCharacterOffsetBegin
p515
V126
p516
sVPartOfSpeech
p517
VNN
p518
sVLemma
p519
Vschool
p520
saa(lp521
g252
a(dp522
VNamedEntityTag
p523
g70
sVCharacterOffsetEnd
p524
V134
p525
sVCharacterOffsetBegin
p526
V133
p527
sVPartOfSpeech
p528
g252
sVLemma
p529
g252
saasVindexeddependencies
p530
(lp531
(lp532
Vroot
p533
aVROOT-0
p534
aVleft-6
p535
aa(lp536
Vdet
p537
aVyear-3
p538
aVthe-2
p539
aa(lp540
Vprep_during
p541
aVleft-6
p542
aVyear-3
p543
aa(lp544
Vnum
p545
aVstudents-5
p546
aV3-4
p547
aa(lp548
Vnsubj
p549
aVleft-6
p550
aVstudents-5
p551
aa(lp552
Vnum
p553
aVstudents-10
p554
aV42-8
p555
aa(lp556
Vamod
p557
aVstudents-10
p558
aVnew-9
p559
aa(lp560
Vnsubj
p561
aVcame-11
p562
aVstudents-10
p563
aa(lp564
Vconj_and
p565
aVleft-6
p566
aVcame-11
p567
aa(lp568
Vprep_to
p569
aVcame-11
p570
aVschool-13
p571
aasa(dp572
Vparsetree
p573
V(ROOT (SBARQ (WHNP (WHADJP (WRB How) (JJ many)) (NNS students)) (SQ (VP (VBD were) (PP (IN in) (NP (NP (JJ fourth) (NN grade)) (PP (IN at) (NP (DT the) (NN end))))))) (. ?)))
p574
sVtext
p575
VHow many students were in fourth grade at the end ?
p576
sVdependencies
p577
(lp578
(lp579
Vroot
p580
aVROOT
p581
aVwere
p582
aa(lp583
Vadvmod
p584
aVmany
p585
aVHow
p586
aa(lp587
Vamod
p588
aVstudents
p589
aVmany
p590
aa(lp591
Vnsubj
p592
aVwere
p593
aVstudents
p594
aa(lp595
Vamod
p596
aVgrade
p597
aVfourth
p598
aa(lp599
Vprep_in
p600
aVwere
p601
aVgrade
p602
aa(lp603
Vdet
p604
aVend
p605
aVthe
p606
aa(lp607
Vprep_at
p608
aVgrade
p609
aVend
p610
aasVwords
p611
(lp612
(lp613
VHow
p614
a(dp615
VNamedEntityTag
p616
g70
sVCharacterOffsetEnd
p617
V138
p618
sVCharacterOffsetBegin
p619
V135
p620
sVPartOfSpeech
p621
VWRB
p622
sVLemma
p623
Vhow
p624
saa(lp625
Vmany
p626
a(dp627
VNamedEntityTag
p628
g70
sVCharacterOffsetEnd
p629
V143
p630
sVCharacterOffsetBegin
p631
V139
p632
sVPartOfSpeech
p633
VJJ
p634
sVLemma
p635
Vmany
p636
saa(lp637
Vstudents
p638
a(dp639
VNamedEntityTag
p640
g70
sVCharacterOffsetEnd
p641
V152
p642
sVCharacterOffsetBegin
p643
V144
p644
sVPartOfSpeech
p645
VNNS
p646
sVLemma
p647
Vstudent
p648
saa(lp649
Vwere
p650
a(dp651
VNamedEntityTag
p652
g70
sVCharacterOffsetEnd
p653
V157
p654
sVCharacterOffsetBegin
p655
V153
p656
sVPartOfSpeech
p657
VVBD
p658
sVLemma
p659
Vbe
p660
saa(lp661
Vin
p662
a(dp663
VNamedEntityTag
p664
g70
sVCharacterOffsetEnd
p665
V160
p666
sVCharacterOffsetBegin
p667
V158
p668
sVPartOfSpeech
p669
VIN
p670
sVLemma
p671
Vin
p672
saa(lp673
Vfourth
p674
a(dp675
VNormalizedNamedEntityTag
p676
V4.0
p677
sVLemma
p678
Vfourth
p679
sVCharacterOffsetEnd
p680
V167
p681
sVPartOfSpeech
p682
VJJ
p683
sVCharacterOffsetBegin
p684
V161
p685
sVNamedEntityTag
p686
VORDINAL
p687
saa(lp688
Vgrade
p689
a(dp690
VNamedEntityTag
p691
g70
sVCharacterOffsetEnd
p692
V173
p693
sVCharacterOffsetBegin
p694
V168
p695
sVPartOfSpeech
p696
VNN
p697
sVLemma
p698
Vgrade
p699
saa(lp700
Vat
p701
a(dp702
VNamedEntityTag
p703
g70
sVCharacterOffsetEnd
p704
V176
p705
sVCharacterOffsetBegin
p706
V174
p707
sVPartOfSpeech
p708
VIN
p709
sVLemma
p710
Vat
p711
saa(lp712
Vthe
p713
a(dp714
VNamedEntityTag
p715
g70
sVCharacterOffsetEnd
p716
V180
p717
sVCharacterOffsetBegin
p718
V177
p719
sVPartOfSpeech
p720
VDT
p721
sVLemma
p722
Vthe
p723
saa(lp724
Vend
p725
a(dp726
VNamedEntityTag
p727
g70
sVCharacterOffsetEnd
p728
V184
p729
sVCharacterOffsetBegin
p730
V181
p731
sVPartOfSpeech
p732
VNN
p733
sVLemma
p734
Vend
p735
saa(lp736
V?
p737
a(dp738
VNamedEntityTag
p739
g70
sVCharacterOffsetEnd
p740
V186
p741
sVCharacterOffsetBegin
p742
V185
p743
sVPartOfSpeech
p744
g252
sVLemma
p745
g737
saasVindexeddependencies
p746
(lp747
(lp748
Vroot
p749
aVROOT-0
p750
aVwere-4
p751
aa(lp752
Vadvmod
p753
aVmany-2
p754
aVHow-1
p755
aa(lp756
Vamod
p757
aVstudents-3
p758
aVmany-2
p759
aa(lp760
Vnsubj
p761
aVwere-4
p762
aVstudents-3
p763
aa(lp764
Vamod
p765
aVgrade-7
p766
aVfourth-6
p767
aa(lp768
Vprep_in
p769
aVwere-4
p770
aVgrade-7
p771
aa(lp772
Vdet
p773
aVend-10
p774
aVthe-9
p775
aa(lp776
Vprep_at
p777
aVgrade-7
p778
aVend-10
p779
aasas.