(dp0
Vcoref
p1
(lp2
(lp3
(lp4
(lp5
VFredda
p6
aI0
aI0
aI0
aI1
aa(lp7
VFredda 's
p8
aI1
aI7
aI7
aI9
aaa(lp9
(lp10
VFredda 's
p11
aI2
aI7
aI7
aI9
aa(lp12
VFredda 's
p13
aI1
aI7
aI7
aI9
aaaa(lp14
(lp15
(lp16
Vbeads
p17
aI2
aI3
aI3
aI4
aa(lp18
Vthe 5 beads on Fredda 's necklace
p19
aI1
aI5
aI3
aI10
aaaa(lp20
(lp21
(lp22
VFredda 's necklace
p23
aI2
aI9
aI7
aI10
aa(lp24
VFredda 's necklace
p25
aI1
aI9
aI7
aI10
aaaasVsentences
p26
(lp27
(dp28
Vparsetree
p29
V(ROOT (S (NP (NNP Fredda)) (VP (VBZ has) (NP (DT a) (JJ new) (JJ beaded) (NN necklace))) (. .)))
p30
sVtext
p31
VFredda has a new beaded necklace .
p32
sVdependencies
p33
(lp34
(lp35
Vroot
p36
aVROOT
p37
aVhas
p38
aa(lp39
Vnsubj
p40
aVhas
p41
aVFredda
p42
aa(lp43
Vdet
p44
aVnecklace
p45
aVa
p46
aa(lp47
Vamod
p48
aVnecklace
p49
aVnew
p50
aa(lp51
Vamod
p52
aVnecklace
p53
aVbeaded
p54
aa(lp55
Vdobj
p56
aVhas
p57
aVnecklace
p58
aasVwords
p59
(lp60
(lp61
VFredda
p62
a(dp63
VNamedEntityTag
p64
VPERSON
p65
sVCharacterOffsetEnd
p66
V7
p67
sVCharacterOffsetBegin
p68
V1
p69
sVPartOfSpeech
p70
VNNP
p71
sVLemma
p72
VFredda
p73
saa(lp74
Vhas
p75
a(dp76
VNamedEntityTag
p77
VO
p78
sVCharacterOffsetEnd
p79
V11
p80
sVCharacterOffsetBegin
p81
V8
p82
sVPartOfSpeech
p83
VVBZ
p84
sVLemma
p85
Vhave
p86
saa(lp87
g46
a(dp88
VNamedEntityTag
p89
g78
sVCharacterOffsetEnd
p90
V13
p91
sVCharacterOffsetBegin
p92
V12
p93
sVPartOfSpeech
p94
VDT
p95
sVLemma
p96
g46
saa(lp97
Vnew
p98
a(dp99
VNamedEntityTag
p100
g78
sVCharacterOffsetEnd
p101
V17
p102
sVCharacterOffsetBegin
p103
V14
p104
sVPartOfSpeech
p105
VJJ
p106
sVLemma
p107
Vnew
p108
saa(lp109
Vbeaded
p110
a(dp111
VNamedEntityTag
p112
g78
sVCharacterOffsetEnd
p113
V24
p114
sVCharacterOffsetBegin
p115
V18
p116
sVPartOfSpeech
p117
VJJ
p118
sVLemma
p119
Vbeaded
p120
saa(lp121
Vnecklace
p122
a(dp123
VNamedEntityTag
p124
g78
sVCharacterOffsetEnd
p125
V33
p126
sVCharacterOffsetBegin
p127
V25
p128
sVPartOfSpeech
p129
VNN
p130
sVLemma
p131
Vnecklace
p132
saa(lp133
V.
p134
a(dp135
VNamedEntityTag
p136
g78
sVCharacterOffsetEnd
p137
V35
p138
sVCharacterOffsetBegin
p139
V34
p140
sVPartOfSpeech
p141
g134
sVLemma
p142
g134
saasVindexeddependencies
p143
(lp144
(lp145
Vroot
p146
aVROOT-0
p147
aVhas-2
p148
aa(lp149
Vnsubj
p150
aVhas-2
p151
aVFredda-1
p152
aa(lp153
Vdet
p154
aVnecklace-6
p155
aVa-3
p156
aa(lp157
Vamod
p158
aVnecklace-6
p159
aVnew-4
p160
aa(lp161
Vamod
p162
aVnecklace-6
p163
aVbeaded-5
p164
aa(lp165
Vdobj
p166
aVhas-2
p167
aVnecklace-6
p168
aasa(dp169
Vparsetree
p170
V(ROOT (S (NP (NP (CD 0.8) (NNS times)) (PP (IN of) (NP (NP (DT the) (CD 5) (NNS beads)) (PP (IN on) (NP (NP (NNP Fredda) (POS 's)) (NN necklace)))))) (VP (VBP are) (ADJP (JJ blue))) (. .)))
p171
sVtext
p172
V0.8 times of the 5 beads on Fredda's necklace are blue .
p173
sVdependencies
p174
(lp175
(lp176
Vroot
p177
aVROOT
p178
aVblue
p179
aa(lp180
Vnum
p181
aVtimes
p182
aV0.8
p183
aa(lp184
Vnsubj
p185
aVblue
p186
aVtimes
p187
aa(lp188
Vdet
p189
aVbeads
p190
aVthe
p191
aa(lp192
Vnum
p193
aVbeads
p194
aV5
p195
aa(lp196
Vprep_of
p197
aVtimes
p198
aVbeads
p199
aa(lp200
Vposs
p201
aVnecklace
p202
aVFredda
p203
aa(lp204
Vprep_on
p205
aVbeads
p206
aVnecklace
p207
aa(lp208
Vcop
p209
aVblue
p210
aVare
p211
aasVwords
p212
(lp213
(lp214
V0.8
p215
a(dp216
VNormalizedNamedEntityTag
p217
V0.8
p218
sVLemma
p219
V0.8
p220
sVCharacterOffsetEnd
p221
V39
p222
sVPartOfSpeech
p223
VCD
p224
sVCharacterOffsetBegin
p225
V36
p226
sVNamedEntityTag
p227
VNUMBER
p228
saa(lp229
Vtimes
p230
a(dp231
VNamedEntityTag
p232
g78
sVCharacterOffsetEnd
p233
V45
p234
sVCharacterOffsetBegin
p235
V40
p236
sVPartOfSpeech
p237
VNNS
p238
sVLemma
p239
Vtime
p240
saa(lp241
Vof
p242
a(dp243
VNamedEntityTag
p244
g78
sVCharacterOffsetEnd
p245
V48
p246
sVCharacterOffsetBegin
p247
V46
p248
sVPartOfSpeech
p249
VIN
p250
sVLemma
p251
Vof
p252
saa(lp253
Vthe
p254
a(dp255
VNamedEntityTag
p256
g78
sVCharacterOffsetEnd
p257
V52
p258
sVCharacterOffsetBegin
p259
V49
p260
sVPartOfSpeech
p261
VDT
p262
sVLemma
p263
Vthe
p264
saa(lp265
g195
a(dp266
VNormalizedNamedEntityTag
p267
V5.0
p268
sVLemma
p269
g195
sVCharacterOffsetEnd
p270
V54
p271
sVPartOfSpeech
p272
VCD
p273
sVCharacterOffsetBegin
p274
V53
p275
sVNamedEntityTag
p276
VNUMBER
p277
saa(lp278
Vbeads
p279
a(dp280
VNamedEntityTag
p281
g78
sVCharacterOffsetEnd
p282
V60
p283
sVCharacterOffsetBegin
p284
V55
p285
sVPartOfSpeech
p286
VNNS
p287
sVLemma
p288
Vbead
p289
saa(lp290
Von
p291
a(dp292
VNamedEntityTag
p293
g78
sVCharacterOffsetEnd
p294
V63
p295
sVCharacterOffsetBegin
p296
V61
p297
sVPartOfSpeech
p298
VIN
p299
sVLemma
p300
Von
p301
saa(lp302
VFredda
p303
a(dp304
VNamedEntityTag
p305
VPERSON
p306
sVCharacterOffsetEnd
p307
V70
p308
sVCharacterOffsetBegin
p309
V64
p310
sVPartOfSpeech
p311
VNNP
p312
sVLemma
p313
VFredda
p314
saa(lp315
V's
p316
a(dp317
VNamedEntityTag
p318
g78
sVCharacterOffsetEnd
p319
V72
p320
sVCharacterOffsetBegin
p321
V70
p322
sVPartOfSpeech
p323
VPOS
p324
sVLemma
p325
V's
p326
saa(lp327
Vnecklace
p328
a(dp329
VNamedEntityTag
p330
g78
sVCharacterOffsetEnd
p331
V81
p332
sVCharacterOffsetBegin
p333
V73
p334
sVPartOfSpeech
p335
VNN
p336
sVLemma
p337
Vnecklace
p338
saa(lp339
Vare
p340
a(dp341
VNamedEntityTag
p342
g78
sVCharacterOffsetEnd
p343
V85
p344
sVCharacterOffsetBegin
p345
V82
p346
sVPartOfSpeech
p347
VVBP
p348
sVLemma
p349
Vbe
p350
saa(lp351
Vblue
p352
a(dp353
VNamedEntityTag
p354
g78
sVCharacterOffsetEnd
p355
V90
p356
sVCharacterOffsetBegin
p357
V86
p358
sVPartOfSpeech
p359
VJJ
p360
sVLemma
p361
Vblue
p362
saa(lp363
g134
a(dp364
VNamedEntityTag
p365
g78
sVCharacterOffsetEnd
p366
V92
p367
sVCharacterOffsetBegin
p368
V91
p369
sVPartOfSpeech
p370
g134
sVLemma
p371
g134
saasVindexeddependencies
p372
(lp373
(lp374
Vroot
p375
aVROOT-0
p376
aVblue-12
p377
aa(lp378
Vnum
p379
aVtimes-2
p380
aV0.8-1
p381
aa(lp382
Vnsubj
p383
aVblue-12
p384
aVtimes-2
p385
aa(lp386
Vdet
p387
aVbeads-6
p388
aVthe-4
p389
aa(lp390
Vnum
p391
aVbeads-6
p392
aV5-5
p393
aa(lp394
Vprep_of
p395
aVtimes-2
p396
aVbeads-6
p397
aa(lp398
Vposs
p399
aVnecklace-10
p400
aVFredda-8
p401
aa(lp402
Vprep_on
p403
aVbeads-6
p404
aVnecklace-10
p405
aa(lp406
Vcop
p407
aVblue-12
p408
aVare-11
p409
aasa(dp410
Vparsetree
p411
V(ROOT (SBARQ (WHNP (WHADJP (WRB How) (JJ many)) (NP (NP (JJ blue)) (NP (NNS beads)))) (SQ (VBP are) (NP (EX there)) (PP (IN on) (NP (NP (NNP Fredda) (POS 's)) (NN necklace)))) (. ?)))
p412
sVtext
p413
VHow many blue beads are there on Fredda's necklace ?
p414
sVdependencies
p415
(lp416
(lp417
Vroot
p418
aVROOT
p419
aVare
p420
aa(lp421
Vadvmod
p422
aVmany
p423
aVHow
p424
aa(lp425
Vamod
p426
aVblue
p427
aVmany
p428
aa(lp429
Vnsubj
p430
aVare
p431
aVblue
p432
aa(lp433
Vdep
p434
aVblue
p435
aVbeads
p436
aa(lp437
Vexpl
p438
aVare
p439
aVthere
p440
aa(lp441
Vposs
p442
aVnecklace
p443
aVFredda
p444
aa(lp445
Vprep_on
p446
aVare
p447
aVnecklace
p448
aasVwords
p449
(lp450
(lp451
VHow
p452
a(dp453
VNamedEntityTag
p454
g78
sVCharacterOffsetEnd
p455
V96
p456
sVCharacterOffsetBegin
p457
V93
p458
sVPartOfSpeech
p459
VWRB
p460
sVLemma
p461
Vhow
p462
saa(lp463
Vmany
p464
a(dp465
VNamedEntityTag
p466
g78
sVCharacterOffsetEnd
p467
V101
p468
sVCharacterOffsetBegin
p469
V97
p470
sVPartOfSpeech
p471
VJJ
p472
sVLemma
p473
Vmany
p474
saa(lp475
Vblue
p476
a(dp477
VNamedEntityTag
p478
g78
sVCharacterOffsetEnd
p479
V106
p480
sVCharacterOffsetBegin
p481
V102
p482
sVPartOfSpeech
p483
VJJ
p484
sVLemma
p485
Vblue
p486
saa(lp487
Vbeads
p488
a(dp489
VNamedEntityTag
p490
g78
sVCharacterOffsetEnd
p491
V112
p492
sVCharacterOffsetBegin
p493
V107
p494
sVPartOfSpeech
p495
VNNS
p496
sVLemma
p497
Vbead
p498
saa(lp499
Vare
p500
a(dp501
VNamedEntityTag
p502
g78
sVCharacterOffsetEnd
p503
V116
p504
sVCharacterOffsetBegin
p505
V113
p506
sVPartOfSpeech
p507
VVBP
p508
sVLemma
p509
Vbe
p510
saa(lp511
Vthere
p512
a(dp513
VNamedEntityTag
p514
g78
sVCharacterOffsetEnd
p515
V122
p516
sVCharacterOffsetBegin
p517
V117
p518
sVPartOfSpeech
p519
VEX
p520
sVLemma
p521
Vthere
p522
saa(lp523
Von
p524
a(dp525
VNamedEntityTag
p526
g78
sVCharacterOffsetEnd
p527
V125
p528
sVCharacterOffsetBegin
p529
V123
p530
sVPartOfSpeech
p531
VIN
p532
sVLemma
p533
Von
p534
saa(lp535
VFredda
p536
a(dp537
VNamedEntityTag
p538
VPERSON
p539
sVCharacterOffsetEnd
p540
V132
p541
sVCharacterOffsetBegin
p542
V126
p543
sVPartOfSpeech
p544
VNNP
p545
sVLemma
p546
VFredda
p547
saa(lp548
V's
p549
a(dp550
VNamedEntityTag
p551
g78
sVCharacterOffsetEnd
p552
V134
p553
sVCharacterOffsetBegin
p554
V132
p555
sVPartOfSpeech
p556
VPOS
p557
sVLemma
p558
V's
p559
saa(lp560
Vnecklace
p561
a(dp562
VNamedEntityTag
p563
g78
sVCharacterOffsetEnd
p564
V143
p565
sVCharacterOffsetBegin
p566
V135
p567
sVPartOfSpeech
p568
VNN
p569
sVLemma
p570
Vnecklace
p571
saa(lp572
V?
p573
a(dp574
VNamedEntityTag
p575
g78
sVCharacterOffsetEnd
p576
V145
p577
sVCharacterOffsetBegin
p578
V144
p579
sVPartOfSpeech
p580
g134
sVLemma
p581
g573
saasVindexeddependencies
p582
(lp583
(lp584
Vroot
p585
aVROOT-0
p586
aVare-5
p587
aa(lp588
Vadvmod
p589
aVmany-2
p590
aVHow-1
p591
aa(lp592
Vamod
p593
aVblue-3
p594
aVmany-2
p595
aa(lp596
Vnsubj
p597
aVare-5
p598
aVblue-3
p599
aa(lp600
Vdep
p601
aVblue-3
p602
aVbeads-4
p603
aa(lp604
Vexpl
p605
aVare-5
p606
aVthere-6
p607
aa(lp608
Vposs
p609
aVnecklace-10
p610
aVFredda-8
p611
aa(lp612
Vprep_on
p613
aVare-5
p614
aVnecklace-10
p615
aasas.