(dp0
Vcoref
p1
(lp2
(lp3
(lp4
(lp5
Vher
p6
aI0
aI5
aI5
aI6
aa(lp7
VHaley
p8
aI0
aI0
aI0
aI1
aaa(lp9
(lp10
Vshe
p11
aI1
aI1
aI1
aI2
aa(lp12
VHaley
p13
aI0
aI0
aI0
aI1
aaa(lp14
(lp15
Vshe
p16
aI1
aI20
aI20
aI21
aa(lp17
VHaley
p18
aI0
aI0
aI0
aI1
aaaasVsentences
p19
(lp20
(dp21
Vparsetree
p22
V(ROOT (S (NP (NNP Haley)) (VP (VBD picked) (NP (CD 28) (NNS carrots)) (PP (IN from) (NP (PRP$ her) (NN garden)))) (. .)))
p23
sVtext
p24
VHaley picked 28 carrots from her garden .
p25
sVdependencies
p26
(lp27
(lp28
Vroot
p29
aVROOT
p30
aVpicked
p31
aa(lp32
Vnsubj
p33
aVpicked
p34
aVHaley
p35
aa(lp36
Vnum
p37
aVcarrots
p38
aV28
p39
aa(lp40
Vdobj
p41
aVpicked
p42
aVcarrots
p43
aa(lp44
Vposs
p45
aVgarden
p46
aVher
p47
aa(lp48
Vprep_from
p49
aVpicked
p50
aVgarden
p51
aasVwords
p52
(lp53
(lp54
VHaley
p55
a(dp56
VNamedEntityTag
p57
VPERSON
p58
sVCharacterOffsetEnd
p59
V6
p60
sVCharacterOffsetBegin
p61
V1
p62
sVPartOfSpeech
p63
VNNP
p64
sVLemma
p65
VHaley
p66
saa(lp67
Vpicked
p68
a(dp69
VNamedEntityTag
p70
VO
p71
sVCharacterOffsetEnd
p72
V13
p73
sVCharacterOffsetBegin
p74
V7
p75
sVPartOfSpeech
p76
VVBD
p77
sVLemma
p78
Vpick
p79
saa(lp80
V28
p81
a(dp82
VNormalizedNamedEntityTag
p83
V28.0
p84
sVLemma
p85
V28
p86
sVCharacterOffsetEnd
p87
V16
p88
sVPartOfSpeech
p89
VCD
p90
sVCharacterOffsetBegin
p91
V14
p92
sVNamedEntityTag
p93
VNUMBER
p94
saa(lp95
Vcarrots
p96
a(dp97
VNamedEntityTag
p98
g71
sVCharacterOffsetEnd
p99
V24
p100
sVCharacterOffsetBegin
p101
V17
p102
sVPartOfSpeech
p103
VNNS
p104
sVLemma
p105
Vcarrot
p106
saa(lp107
Vfrom
p108
a(dp109
VNamedEntityTag
p110
g71
sVCharacterOffsetEnd
p111
V29
p112
sVCharacterOffsetBegin
p113
V25
p114
sVPartOfSpeech
p115
VIN
p116
sVLemma
p117
Vfrom
p118
saa(lp119
Vher
p120
a(dp121
VNamedEntityTag
p122
g71
sVCharacterOffsetEnd
p123
V33
p124
sVCharacterOffsetBegin
p125
V30
p126
sVPartOfSpeech
p127
VPRP$
p128
sVLemma
p129
Vshe
p130
saa(lp131
Vgarden
p132
a(dp133
VNamedEntityTag
p134
g71
sVCharacterOffsetEnd
p135
V40
p136
sVCharacterOffsetBegin
p137
V34
p138
sVPartOfSpeech
p139
VNN
p140
sVLemma
p141
Vgarden
p142
saa(lp143
V.
p144
a(dp145
VNamedEntityTag
p146
g71
sVCharacterOffsetEnd
p147
V42
p148
sVCharacterOffsetBegin
p149
V41
p150
sVPartOfSpeech
p151
g144
sVLemma
p152
g144
saasVindexeddependencies
p153
(lp154
(lp155
Vroot
p156
aVROOT-0
p157
aVpicked-2
p158
aa(lp159
Vnsubj
p160
aVpicked-2
p161
aVHaley-1
p162
aa(lp163
Vnum
p164
aVcarrots-4
p165
aV28-3
p166
aa(lp167
Vdobj
p168
aVpicked-2
p169
aVcarrots-4
p170
aa(lp171
Vposs
p172
aVgarden-7
p173
aVher-6
p174
aa(lp175
Vprep_from
p176
aVpicked-2
p177
aVgarden-7
p178
aasa(dp179
Vparsetree
p180
V(ROOT (SBARQ (SBAR (IN If) (S (NP (PRP she)) (VP (VP (VBD threw) (PRT (RP out)) (NP (NP (CD 11)) (PP (IN of) (NP (PRP them))))) (CC and) (VP (ADVP (RB then)) (VBD picked) (NP (NP (QP (CD 9) (JJR more))) (NP (DT the) (JJ next) (NN day))))))) (, ,) (WHADVP (WRB how) (NP (JJ many) (NNS carrots))) (SQ (MD would) (NP (PRP she)) (VP (VB have) (NP (NN total)))) (. ?)))
p181
sVtext
p182
VIf she threw out 11 of them and then picked 9 more the next day , how many carrots would she have total ?
p183
sVdependencies
p184
(lp185
(lp186
Vroot
p187
aVROOT
p188
aVhave
p189
aa(lp190
Vmark
p191
aVthrew
p192
aVIf
p193
aa(lp194
Vnsubj
p195
aVthrew
p196
aVshe
p197
aa(lp198
Vadvcl
p199
aVhave
p200
aVthrew
p201
aa(lp202
Vprt
p203
aVthrew
p204
aVout
p205
aa(lp206
Vdobj
p207
aVthrew
p208
aV11
p209
aa(lp210
Vprep_of
p211
aV11
p212
aVthem
p213
aa(lp214
Vadvmod
p215
aVpicked
p216
aVthen
p217
aa(lp218
Vconj_and
p219
aVthrew
p220
aVpicked
p221
aa(lp222
Vdobj
p223
aVpicked
p224
aV9
p225
aa(lp226
Vquantmod
p227
ag225
aVmore
p228
aa(lp229
Vdet
p230
aVday
p231
aVthe
p232
aa(lp233
Vamod
p234
aVday
p235
aVnext
p236
aa(lp237
Vdep
p238
ag225
aVday
p239
aa(lp240
Vadvmod
p241
aVhave
p242
aVhow
p243
aa(lp244
Vamod
p245
aVcarrots
p246
aVmany
p247
aa(lp248
Vdep
p249
aVhow
p250
aVcarrots
p251
aa(lp252
Vaux
p253
aVhave
p254
aVwould
p255
aa(lp256
Vnsubj
p257
aVhave
p258
aVshe
p259
aa(lp260
Vdobj
p261
aVhave
p262
aVtotal
p263
aasVwords
p264
(lp265
(lp266
VIf
p267
a(dp268
VNamedEntityTag
p269
g71
sVCharacterOffsetEnd
p270
V45
p271
sVCharacterOffsetBegin
p272
V43
p273
sVPartOfSpeech
p274
VIN
p275
sVLemma
p276
Vif
p277
saa(lp278
Vshe
p279
a(dp280
VNamedEntityTag
p281
g71
sVCharacterOffsetEnd
p282
V49
p283
sVCharacterOffsetBegin
p284
V46
p285
sVPartOfSpeech
p286
VPRP
p287
sVLemma
p288
Vshe
p289
saa(lp290
Vthrew
p291
a(dp292
VNamedEntityTag
p293
g71
sVCharacterOffsetEnd
p294
V55
p295
sVCharacterOffsetBegin
p296
V50
p297
sVPartOfSpeech
p298
VVBD
p299
sVLemma
p300
Vthrow
p301
saa(lp302
Vout
p303
a(dp304
VNamedEntityTag
p305
g71
sVCharacterOffsetEnd
p306
V59
p307
sVCharacterOffsetBegin
p308
V56
p309
sVPartOfSpeech
p310
VRP
p311
sVLemma
p312
Vout
p313
saa(lp314
V11
p315
a(dp316
VNormalizedNamedEntityTag
p317
V11.0
p318
sVLemma
p319
V11
p320
sVCharacterOffsetEnd
p321
V62
p322
sVPartOfSpeech
p323
VCD
p324
sVCharacterOffsetBegin
p325
V60
p326
sVNamedEntityTag
p327
VNUMBER
p328
saa(lp329
Vof
p330
a(dp331
VNamedEntityTag
p332
g71
sVCharacterOffsetEnd
p333
V65
p334
sVCharacterOffsetBegin
p335
V63
p336
sVPartOfSpeech
p337
VIN
p338
sVLemma
p339
Vof
p340
saa(lp341
Vthem
p342
a(dp343
VNamedEntityTag
p344
g71
sVCharacterOffsetEnd
p345
V70
p346
sVCharacterOffsetBegin
p347
V66
p348
sVPartOfSpeech
p349
VPRP
p350
sVLemma
p351
Vthey
p352
saa(lp353
Vand
p354
a(dp355
VNamedEntityTag
p356
g71
sVCharacterOffsetEnd
p357
V74
p358
sVCharacterOffsetBegin
p359
V71
p360
sVPartOfSpeech
p361
VCC
p362
sVLemma
p363
Vand
p364
saa(lp365
Vthen
p366
a(dp367
VNamedEntityTag
p368
g71
sVCharacterOffsetEnd
p369
V79
p370
sVCharacterOffsetBegin
p371
V75
p372
sVPartOfSpeech
p373
VRB
p374
sVLemma
p375
Vthen
p376
saa(lp377
Vpicked
p378
a(dp379
VNamedEntityTag
p380
g71
sVCharacterOffsetEnd
p381
V86
p382
sVCharacterOffsetBegin
p383
V80
p384
sVPartOfSpeech
p385
VVBD
p386
sVLemma
p387
Vpick
p388
saa(lp389
g225
a(dp390
VNormalizedNamedEntityTag
p391
V9.0
p392
sVLemma
p393
g225
sVCharacterOffsetEnd
p394
V88
p395
sVPartOfSpeech
p396
VCD
p397
sVCharacterOffsetBegin
p398
V87
p399
sVNamedEntityTag
p400
VNUMBER
p401
saa(lp402
Vmore
p403
a(dp404
VNamedEntityTag
p405
g71
sVCharacterOffsetEnd
p406
V93
p407
sVCharacterOffsetBegin
p408
V89
p409
sVPartOfSpeech
p410
VJJR
p411
sVLemma
p412
Vmore
p413
saa(lp414
Vthe
p415
a(dp416
VNormalizedNamedEntityTag
p417
VNEXT_IMMEDIATE
p418
sVTimex
p419
V<TIMEX3 alt_value="NEXT_IMMEDIATE P1D" anchorTimeID="t0" temporalFunction="true" tid="t1" type="DATE" valueFromFunction="tf0">the next day</TIMEX3>
p420
sVLemma
p421
Vthe
p422
sVCharacterOffsetEnd
p423
V97
p424
sVPartOfSpeech
p425
VDT
p426
sVCharacterOffsetBegin
p427
V94
p428
sVNamedEntityTag
p429
VDATE
p430
saa(lp431
Vnext
p432
a(dp433
VNormalizedNamedEntityTag
p434
VNEXT_IMMEDIATE
p435
sVTimex
p436
V<TIMEX3 alt_value="NEXT_IMMEDIATE P1D" anchorTimeID="t0" temporalFunction="true" tid="t1" type="DATE" valueFromFunction="tf0">the next day</TIMEX3>
p437
sVLemma
p438
Vnext
p439
sVCharacterOffsetEnd
p440
V102
p441
sVPartOfSpeech
p442
VJJ
p443
sVCharacterOffsetBegin
p444
V98
p445
sVNamedEntityTag
p446
VDATE
p447
saa(lp448
Vday
p449
a(dp450
VNormalizedNamedEntityTag
p451
VNEXT_IMMEDIATE
p452
sVTimex
p453
V<TIMEX3 alt_value="NEXT_IMMEDIATE P1D" anchorTimeID="t0" temporalFunction="true" tid="t1" type="DATE" valueFromFunction="tf0">the next day</TIMEX3>
p454
sVLemma
p455
Vday
p456
sVCharacterOffsetEnd
p457
V106
p458
sVPartOfSpeech
p459
VNN
p460
sVCharacterOffsetBegin
p461
V103
p462
sVNamedEntityTag
p463
VDATE
p464
saa(lp465
V,
p466
a(dp467
VNamedEntityTag
p468
g71
sVCharacterOffsetEnd
p469
V108
p470
sVCharacterOffsetBegin
p471
V107
p472
sVPartOfSpeech
p473
g466
sVLemma
p474
g466
saa(lp475
Vhow
p476
a(dp477
VNamedEntityTag
p478
g71
sVCharacterOffsetEnd
p479
V112
p480
sVCharacterOffsetBegin
p481
V109
p482
sVPartOfSpeech
p483
VWRB
p484
sVLemma
p485
Vhow
p486
saa(lp487
Vmany
p488
a(dp489
VNamedEntityTag
p490
g71
sVCharacterOffsetEnd
p491
V117
p492
sVCharacterOffsetBegin
p493
V113
p494
sVPartOfSpeech
p495
VJJ
p496
sVLemma
p497
Vmany
p498
saa(lp499
Vcarrots
p500
a(dp501
VNamedEntityTag
p502
g71
sVCharacterOffsetEnd
p503
V125
p504
sVCharacterOffsetBegin
p505
V118
p506
sVPartOfSpeech
p507
VNNS
p508
sVLemma
p509
Vcarrot
p510
saa(lp511
Vwould
p512
a(dp513
VNamedEntityTag
p514
g71
sVCharacterOffsetEnd
p515
V131
p516
sVCharacterOffsetBegin
p517
V126
p518
sVPartOfSpeech
p519
VMD
p520
sVLemma
p521
Vwould
p522
saa(lp523
Vshe
p524
a(dp525
VNamedEntityTag
p526
g71
sVCharacterOffsetEnd
p527
V135
p528
sVCharacterOffsetBegin
p529
V132
p530
sVPartOfSpeech
p531
VPRP
p532
sVLemma
p533
Vshe
p534
saa(lp535
Vhave
p536
a(dp537
VNamedEntityTag
p538
g71
sVCharacterOffsetEnd
p539
V140
p540
sVCharacterOffsetBegin
p541
V136
p542
sVPartOfSpeech
p543
VVB
p544
sVLemma
p545
Vhave
p546
saa(lp547
Vtotal
p548
a(dp549
VNamedEntityTag
p550
g71
sVCharacterOffsetEnd
p551
V146
p552
sVCharacterOffsetBegin
p553
V141
p554
sVPartOfSpeech
p555
VNN
p556
sVLemma
p557
Vtotal
p558
saa(lp559
V?
p560
a(dp561
VNamedEntityTag
p562
g71
sVCharacterOffsetEnd
p563
V148
p564
sVCharacterOffsetBegin
p565
V147
p566
sVPartOfSpeech
p567
g144
sVLemma
p568
g560
saasVindexeddependencies
p569
(lp570
(lp571
Vroot
p572
aVROOT-0
p573
aVhave-22
p574
aa(lp575
Vmark
p576
aVthrew-3
p577
aVIf-1
p578
aa(lp579
Vnsubj
p580
aVthrew-3
p581
aVshe-2
p582
aa(lp583
Vadvcl
p584
aVhave-22
p585
aVthrew-3
p586
aa(lp587
Vprt
p588
aVthrew-3
p589
aVout-4
p590
aa(lp591
Vdobj
p592
aVthrew-3
p593
aV11-5
p594
aa(lp595
Vprep_of
p596
aV11-5
p597
aVthem-7
p598
aa(lp599
Vadvmod
p600
aVpicked-10
p601
aVthen-9
p602
aa(lp603
Vconj_and
p604
aVthrew-3
p605
aVpicked-10
p606
aa(lp607
Vdobj
p608
aVpicked-10
p609
aV9-11
p610
aa(lp611
Vquantmod
p612
aV9-11
p613
aVmore-12
p614
aa(lp615
Vdet
p616
aVday-15
p617
aVthe-13
p618
aa(lp619
Vamod
p620
aVday-15
p621
aVnext-14
p622
aa(lp623
Vdep
p624
aV9-11
p625
aVday-15
p626
aa(lp627
Vadvmod
p628
aVhave-22
p629
aVhow-17
p630
aa(lp631
Vamod
p632
aVcarrots-19
p633
aVmany-18
p634
aa(lp635
Vdep
p636
aVhow-17
p637
aVcarrots-19
p638
aa(lp639
Vaux
p640
aVhave-22
p641
aVwould-20
p642
aa(lp643
Vnsubj
p644
aVhave-22
p645
aVshe-21
p646
aa(lp647
Vdobj
p648
aVhave-22
p649
aVtotal-23
p650
aasas.