(dp0
Vcoref
p1
(lp2
(lp3
(lp4
(lp5
Vthe school
p6
aI1
aI6
aI5
aI7
aa(lp7
VVicky 's school
p8
aI0
aI9
aI7
aI10
aaaa(lp9
(lp10
(lp11
Va silly hat
p12
aI2
aI6
aI4
aI7
aa(lp13
Va silly hat
p14
aI1
aI13
aI11
aI14
aaaasVsentences
p15
(lp16
(dp17
Vparsetree
p18
V(ROOT (S (NP (JJ Last) (NNP Tuesday)) (VP (VBD was) (NP (NP (JJ silly) (NN hat) (NN day)) (PP (IN at) (NP (NP (NNP Vicky) (POS 's)) (NN school))))) (. .)))
p19
sVtext
p20
VLast Tuesday was silly hat day at Vicky's school .
p21
sVdependencies
p22
(lp23
(lp24
Vroot
p25
aVROOT
p26
aVday
p27
aa(lp28
Vamod
p29
aVTuesday
p30
aVLast
p31
aa(lp32
Vnsubj
p33
aVday
p34
aVTuesday
p35
aa(lp36
Vcop
p37
aVday
p38
aVwas
p39
aa(lp40
Vamod
p41
aVday
p42
aVsilly
p43
aa(lp44
Vnn
p45
aVday
p46
aVhat
p47
aa(lp48
Vposs
p49
aVschool
p50
aVVicky
p51
aa(lp52
Vprep_at
p53
aVday
p54
aVschool
p55
aasVwords
p56
(lp57
(lp58
VLast
p59
a(dp60
VNormalizedNamedEntityTag
p61
VXXXX-WXX-2
p62
sVTimex
p63
V<TIMEX3 alt_value="XXXX-WXX-2 OFFSET P-1W" anchorTimeID="t2" temporalFunction="true" tid="t1" type="DATE" valueFromFunction="tf0">Last Tuesday</TIMEX3>
p64
sVLemma
p65
Vlast
p66
sVCharacterOffsetEnd
p67
V5
p68
sVPartOfSpeech
p69
VJJ
p70
sVCharacterOffsetBegin
p71
V1
p72
sVNamedEntityTag
p73
VDATE
p74
saa(lp75
VTuesday
p76
a(dp77
VNormalizedNamedEntityTag
p78
VXXXX-WXX-2
p79
sVTimex
p80
V<TIMEX3 alt_value="XXXX-WXX-2 OFFSET P-1W" anchorTimeID="t2" temporalFunction="true" tid="t1" type="DATE" valueFromFunction="tf0">Last Tuesday</TIMEX3>
p81
sVLemma
p82
VTuesday
p83
sVCharacterOffsetEnd
p84
V13
p85
sVPartOfSpeech
p86
VNNP
p87
sVCharacterOffsetBegin
p88
V6
p89
sVNamedEntityTag
p90
VDATE
p91
saa(lp92
Vwas
p93
a(dp94
VNamedEntityTag
p95
VO
p96
sVCharacterOffsetEnd
p97
V17
p98
sVCharacterOffsetBegin
p99
V14
p100
sVPartOfSpeech
p101
VVBD
p102
sVLemma
p103
Vbe
p104
saa(lp105
Vsilly
p106
a(dp107
VNamedEntityTag
p108
g96
sVCharacterOffsetEnd
p109
V23
p110
sVCharacterOffsetBegin
p111
V18
p112
sVPartOfSpeech
p113
VJJ
p114
sVLemma
p115
Vsilly
p116
saa(lp117
Vhat
p118
a(dp119
VNamedEntityTag
p120
g96
sVCharacterOffsetEnd
p121
V27
p122
sVCharacterOffsetBegin
p123
V24
p124
sVPartOfSpeech
p125
VNN
p126
sVLemma
p127
Vhat
p128
saa(lp129
Vday
p130
a(dp131
VNormalizedNamedEntityTag
p132
VP1D
p133
sVTimex
p134
V<TIMEX3 tid="t3" type="DURATION" value="P1D">day</TIMEX3>
p135
sVLemma
p136
Vday
p137
sVCharacterOffsetEnd
p138
V31
p139
sVPartOfSpeech
p140
VNN
p141
sVCharacterOffsetBegin
p142
V28
p143
sVNamedEntityTag
p144
VDURATION
p145
saa(lp146
Vat
p147
a(dp148
VNamedEntityTag
p149
g96
sVCharacterOffsetEnd
p150
V34
p151
sVCharacterOffsetBegin
p152
V32
p153
sVPartOfSpeech
p154
VIN
p155
sVLemma
p156
Vat
p157
saa(lp158
VVicky
p159
a(dp160
VNamedEntityTag
p161
VPERSON
p162
sVCharacterOffsetEnd
p163
V40
p164
sVCharacterOffsetBegin
p165
V35
p166
sVPartOfSpeech
p167
VNNP
p168
sVLemma
p169
VVicky
p170
saa(lp171
V's
p172
a(dp173
VNamedEntityTag
p174
g96
sVCharacterOffsetEnd
p175
V42
p176
sVCharacterOffsetBegin
p177
V40
p178
sVPartOfSpeech
p179
VPOS
p180
sVLemma
p181
V's
p182
saa(lp183
Vschool
p184
a(dp185
VNamedEntityTag
p186
g96
sVCharacterOffsetEnd
p187
V49
p188
sVCharacterOffsetBegin
p189
V43
p190
sVPartOfSpeech
p191
VNN
p192
sVLemma
p193
Vschool
p194
saa(lp195
V.
p196
a(dp197
VNamedEntityTag
p198
g96
sVCharacterOffsetEnd
p199
V51
p200
sVCharacterOffsetBegin
p201
V50
p202
sVPartOfSpeech
p203
g196
sVLemma
p204
g196
saasVindexeddependencies
p205
(lp206
(lp207
Vroot
p208
aVROOT-0
p209
aVday-6
p210
aa(lp211
Vamod
p212
aVTuesday-2
p213
aVLast-1
p214
aa(lp215
Vnsubj
p216
aVday-6
p217
aVTuesday-2
p218
aa(lp219
Vcop
p220
aVday-6
p221
aVwas-3
p222
aa(lp223
Vamod
p224
aVday-6
p225
aVsilly-4
p226
aa(lp227
Vnn
p228
aVday-6
p229
aVhat-5
p230
aa(lp231
Vposs
p232
aVschool-10
p233
aVVicky-8
p234
aa(lp235
Vprep_at
p236
aVday-6
p237
aVschool-10
p238
aasa(dp239
Vparsetree
p240
V(ROOT (S (PP (IN Of) (NP (NP (DT the) (CD 100) (NNS students)) (PP (IN at) (NP (DT the) (NN school))))) (, ,) (NP (CD 0.1) (NNS times)) (VP (VBD wore) (NP (DT a) (JJ silly) (NN hat))) (. .)))
p241
sVtext
p242
VOf the 100 students at the school , 0.1 times wore a silly hat .
p243
sVdependencies
p244
(lp245
(lp246
Vroot
p247
aVROOT
p248
aVwore
p249
aa(lp250
Vdet
p251
aVstudents
p252
aVthe
p253
aa(lp254
Vnum
p255
aVstudents
p256
aV100
p257
aa(lp258
Vprep_of
p259
aVwore
p260
aVstudents
p261
aa(lp262
Vdet
p263
aVschool
p264
aVthe
p265
aa(lp266
Vprep_at
p267
aVstudents
p268
aVschool
p269
aa(lp270
Vnum
p271
aVtimes
p272
aV0.1
p273
aa(lp274
Vnsubj
p275
aVwore
p276
aVtimes
p277
aa(lp278
Vdet
p279
aVhat
p280
aVa
p281
aa(lp282
Vamod
p283
aVhat
p284
aVsilly
p285
aa(lp286
Vdobj
p287
aVwore
p288
aVhat
p289
aasVwords
p290
(lp291
(lp292
VOf
p293
a(dp294
VNamedEntityTag
p295
g96
sVCharacterOffsetEnd
p296
V54
p297
sVCharacterOffsetBegin
p298
V52
p299
sVPartOfSpeech
p300
VIN
p301
sVLemma
p302
Vof
p303
saa(lp304
Vthe
p305
a(dp306
VNamedEntityTag
p307
g96
sVCharacterOffsetEnd
p308
V58
p309
sVCharacterOffsetBegin
p310
V55
p311
sVPartOfSpeech
p312
VDT
p313
sVLemma
p314
Vthe
p315
saa(lp316
V100
p317
a(dp318
VNormalizedNamedEntityTag
p319
V100.0
p320
sVLemma
p321
V100
p322
sVCharacterOffsetEnd
p323
V62
p324
sVPartOfSpeech
p325
VCD
p326
sVCharacterOffsetBegin
p327
V59
p328
sVNamedEntityTag
p329
VNUMBER
p330
saa(lp331
Vstudents
p332
a(dp333
VNamedEntityTag
p334
g96
sVCharacterOffsetEnd
p335
V71
p336
sVCharacterOffsetBegin
p337
V63
p338
sVPartOfSpeech
p339
VNNS
p340
sVLemma
p341
Vstudent
p342
saa(lp343
Vat
p344
a(dp345
VNamedEntityTag
p346
g96
sVCharacterOffsetEnd
p347
V74
p348
sVCharacterOffsetBegin
p349
V72
p350
sVPartOfSpeech
p351
VIN
p352
sVLemma
p353
Vat
p354
saa(lp355
Vthe
p356
a(dp357
VNamedEntityTag
p358
g96
sVCharacterOffsetEnd
p359
V78
p360
sVCharacterOffsetBegin
p361
V75
p362
sVPartOfSpeech
p363
VDT
p364
sVLemma
p365
Vthe
p366
saa(lp367
Vschool
p368
a(dp369
VNamedEntityTag
p370
g96
sVCharacterOffsetEnd
p371
V85
p372
sVCharacterOffsetBegin
p373
V79
p374
sVPartOfSpeech
p375
VNN
p376
sVLemma
p377
Vschool
p378
saa(lp379
V,
p380
a(dp381
VNamedEntityTag
p382
g96
sVCharacterOffsetEnd
p383
V87
p384
sVCharacterOffsetBegin
p385
V86
p386
sVPartOfSpeech
p387
g380
sVLemma
p388
g380
saa(lp389
V0.1
p390
a(dp391
VNormalizedNamedEntityTag
p392
V0.1
p393
sVLemma
p394
V0.1
p395
sVCharacterOffsetEnd
p396
V91
p397
sVPartOfSpeech
p398
VCD
p399
sVCharacterOffsetBegin
p400
V88
p401
sVNamedEntityTag
p402
VNUMBER
p403
saa(lp404
Vtimes
p405
a(dp406
VNamedEntityTag
p407
g96
sVCharacterOffsetEnd
p408
V97
p409
sVCharacterOffsetBegin
p410
V92
p411
sVPartOfSpeech
p412
VNNS
p413
sVLemma
p414
Vtime
p415
saa(lp416
Vwore
p417
a(dp418
VNamedEntityTag
p419
g96
sVCharacterOffsetEnd
p420
V102
p421
sVCharacterOffsetBegin
p422
V98
p423
sVPartOfSpeech
p424
VVBD
p425
sVLemma
p426
Vwear
p427
saa(lp428
g281
a(dp429
VNamedEntityTag
p430
g96
sVCharacterOffsetEnd
p431
V104
p432
sVCharacterOffsetBegin
p433
V103
p434
sVPartOfSpeech
p435
VDT
p436
sVLemma
p437
g281
saa(lp438
Vsilly
p439
a(dp440
VNamedEntityTag
p441
g96
sVCharacterOffsetEnd
p442
V110
p443
sVCharacterOffsetBegin
p444
V105
p445
sVPartOfSpeech
p446
VJJ
p447
sVLemma
p448
Vsilly
p449
saa(lp450
Vhat
p451
a(dp452
VNamedEntityTag
p453
g96
sVCharacterOffsetEnd
p454
V114
p455
sVCharacterOffsetBegin
p456
V111
p457
sVPartOfSpeech
p458
VNN
p459
sVLemma
p460
Vhat
p461
saa(lp462
g196
a(dp463
VNamedEntityTag
p464
g96
sVCharacterOffsetEnd
p465
V116
p466
sVCharacterOffsetBegin
p467
V115
p468
sVPartOfSpeech
p469
g196
sVLemma
p470
g196
saasVindexeddependencies
p471
(lp472
(lp473
Vroot
p474
aVROOT-0
p475
aVwore-11
p476
aa(lp477
Vdet
p478
aVstudents-4
p479
aVthe-2
p480
aa(lp481
Vnum
p482
aVstudents-4
p483
aV100-3
p484
aa(lp485
Vprep_of
p486
aVwore-11
p487
aVstudents-4
p488
aa(lp489
Vdet
p490
aVschool-7
p491
aVthe-6
p492
aa(lp493
Vprep_at
p494
aVstudents-4
p495
aVschool-7
p496
aa(lp497
Vnum
p498
aVtimes-10
p499
aV0.1-9
p500
aa(lp501
Vnsubj
p502
aVwore-11
p503
aVtimes-10
p504
aa(lp505
Vdet
p506
aVhat-14
p507
aVa-12
p508
aa(lp509
Vamod
p510
aVhat-14
p511
aVsilly-13
p512
aa(lp513
Vdobj
p514
aVwore-11
p515
aVhat-14
p516
aasa(dp517
Vparsetree
p518
V(ROOT (SBARQ (WHNP (WHADJP (WRB How) (JJ many)) (NNS students)) (SQ (VP (VBD wore) (NP (DT a) (JJ silly) (NN hat)))) (. ?)))
p519
sVtext
p520
VHow many students wore a silly hat ?
p521
sVdependencies
p522
(lp523
(lp524
Vroot
p525
aVROOT
p526
aVwore
p527
aa(lp528
Vadvmod
p529
aVmany
p530
aVHow
p531
aa(lp532
Vamod
p533
aVstudents
p534
aVmany
p535
aa(lp536
Vnsubj
p537
aVwore
p538
aVstudents
p539
aa(lp540
Vdet
p541
aVhat
p542
ag281
aa(lp543
Vamod
p544
aVhat
p545
aVsilly
p546
aa(lp547
Vdobj
p548
aVwore
p549
aVhat
p550
aasVwords
p551
(lp552
(lp553
VHow
p554
a(dp555
VNamedEntityTag
p556
g96
sVCharacterOffsetEnd
p557
V120
p558
sVCharacterOffsetBegin
p559
V117
p560
sVPartOfSpeech
p561
VWRB
p562
sVLemma
p563
Vhow
p564
saa(lp565
Vmany
p566
a(dp567
VNamedEntityTag
p568
g96
sVCharacterOffsetEnd
p569
V125
p570
sVCharacterOffsetBegin
p571
V121
p572
sVPartOfSpeech
p573
VJJ
p574
sVLemma
p575
Vmany
p576
saa(lp577
Vstudents
p578
a(dp579
VNamedEntityTag
p580
g96
sVCharacterOffsetEnd
p581
V134
p582
sVCharacterOffsetBegin
p583
V126
p584
sVPartOfSpeech
p585
VNNS
p586
sVLemma
p587
Vstudent
p588
saa(lp589
Vwore
p590
a(dp591
VNamedEntityTag
p592
g96
sVCharacterOffsetEnd
p593
V139
p594
sVCharacterOffsetBegin
p595
V135
p596
sVPartOfSpeech
p597
VVBD
p598
sVLemma
p599
Vwear
p600
saa(lp601
g281
a(dp602
VNamedEntityTag
p603
g96
sVCharacterOffsetEnd
p604
V141
p605
sVCharacterOffsetBegin
p606
V140
p607
sVPartOfSpeech
p608
VDT
p609
sVLemma
p610
g281
saa(lp611
Vsilly
p612
a(dp613
VNamedEntityTag
p614
g96
sVCharacterOffsetEnd
p615
V147
p616
sVCharacterOffsetBegin
p617
V142
p618
sVPartOfSpeech
p619
VJJ
p620
sVLemma
p621
Vsilly
p622
saa(lp623
Vhat
p624
a(dp625
VNamedEntityTag
p626
g96
sVCharacterOffsetEnd
p627
V151
p628
sVCharacterOffsetBegin
p629
V148
p630
sVPartOfSpeech
p631
VNN
p632
sVLemma
p633
Vhat
p634
saa(lp635
V?
p636
a(dp637
VNamedEntityTag
p638
g96
sVCharacterOffsetEnd
p639
V153
p640
sVCharacterOffsetBegin
p641
V152
p642
sVPartOfSpeech
p643
g196
sVLemma
p644
g636
saasVindexeddependencies
p645
(lp646
(lp647
Vroot
p648
aVROOT-0
p649
aVwore-4
p650
aa(lp651
Vadvmod
p652
aVmany-2
p653
aVHow-1
p654
aa(lp655
Vamod
p656
aVstudents-3
p657
aVmany-2
p658
aa(lp659
Vnsubj
p660
aVwore-4
p661
aVstudents-3
p662
aa(lp663
Vdet
p664
aVhat-7
p665
aVa-5
p666
aa(lp667
Vamod
p668
aVhat-7
p669
aVsilly-6
p670
aa(lp671
Vdobj
p672
aVwore-4
p673
aVhat-7
p674
aasas.