(dp0
Vcoref
p1
(lp2
(lp3
(lp4
(lp5
Vthe game
p6
aI1
aI6
aI5
aI7
aa(lp7
Va video game
p8
aI0
aI5
aI3
aI6
aaaa(lp9
(lp10
(lp11
Vshe
p12
aI2
aI1
aI1
aI2
aa(lp13
Vshe
p14
aI1
aI7
aI7
aI8
aaa(lp15
(lp16
Vshe
p17
aI2
aI15
aI15
aI16
aa(lp18
Vshe
p19
aI1
aI7
aI7
aI8
aaaasVsentences
p20
(lp21
(dp22
Vparsetree
p23
V(ROOT (S (NP (NN Wendy)) (VP (VP (VBD was) (VP (VBG playing) (NP (DT a) (NN video) (NN game)))) (CC and) (VP (VBD had) (NP (CD 10) (NNS lives)))) (. .)))
p24
sVtext
p25
VWendy was playing a video game and had 10 lives .
p26
sVdependencies
p27
(lp28
(lp29
Vroot
p30
aVROOT
p31
aVplaying
p32
aa(lp33
Vnsubj
p34
aVplaying
p35
aVWendy
p36
aa(lp37
Vaux
p38
aVplaying
p39
aVwas
p40
aa(lp41
Vdet
p42
aVgame
p43
aVa
p44
aa(lp45
Vnn
p46
aVgame
p47
aVvideo
p48
aa(lp49
Vdobj
p50
aVplaying
p51
aVgame
p52
aa(lp53
Vconj_and
p54
aVplaying
p55
aVhad
p56
aa(lp57
Vnum
p58
aVlives
p59
aV10
p60
aa(lp61
Vdobj
p62
aVhad
p63
aVlives
p64
aasVwords
p65
(lp66
(lp67
VWendy
p68
a(dp69
VNamedEntityTag
p70
VPERSON
p71
sVCharacterOffsetEnd
p72
V6
p73
sVCharacterOffsetBegin
p74
V1
p75
sVPartOfSpeech
p76
VNN
p77
sVLemma
p78
Vwendy
p79
saa(lp80
Vwas
p81
a(dp82
VNamedEntityTag
p83
VO
p84
sVCharacterOffsetEnd
p85
V10
p86
sVCharacterOffsetBegin
p87
V7
p88
sVPartOfSpeech
p89
VVBD
p90
sVLemma
p91
Vbe
p92
saa(lp93
Vplaying
p94
a(dp95
VNamedEntityTag
p96
g84
sVCharacterOffsetEnd
p97
V18
p98
sVCharacterOffsetBegin
p99
V11
p100
sVPartOfSpeech
p101
VVBG
p102
sVLemma
p103
Vplay
p104
saa(lp105
g44
a(dp106
VNamedEntityTag
p107
g84
sVCharacterOffsetEnd
p108
V20
p109
sVCharacterOffsetBegin
p110
V19
p111
sVPartOfSpeech
p112
VDT
p113
sVLemma
p114
g44
saa(lp115
Vvideo
p116
a(dp117
VNamedEntityTag
p118
g84
sVCharacterOffsetEnd
p119
V26
p120
sVCharacterOffsetBegin
p121
V21
p122
sVPartOfSpeech
p123
VNN
p124
sVLemma
p125
Vvideo
p126
saa(lp127
Vgame
p128
a(dp129
VNamedEntityTag
p130
g84
sVCharacterOffsetEnd
p131
V31
p132
sVCharacterOffsetBegin
p133
V27
p134
sVPartOfSpeech
p135
VNN
p136
sVLemma
p137
Vgame
p138
saa(lp139
Vand
p140
a(dp141
VNamedEntityTag
p142
g84
sVCharacterOffsetEnd
p143
V35
p144
sVCharacterOffsetBegin
p145
V32
p146
sVPartOfSpeech
p147
VCC
p148
sVLemma
p149
Vand
p150
saa(lp151
Vhad
p152
a(dp153
VNamedEntityTag
p154
g84
sVCharacterOffsetEnd
p155
V39
p156
sVCharacterOffsetBegin
p157
V36
p158
sVPartOfSpeech
p159
VVBD
p160
sVLemma
p161
Vhave
p162
saa(lp163
V10
p164
a(dp165
VNormalizedNamedEntityTag
p166
V10.0
p167
sVLemma
p168
V10
p169
sVCharacterOffsetEnd
p170
V42
p171
sVPartOfSpeech
p172
VCD
p173
sVCharacterOffsetBegin
p174
V40
p175
sVNamedEntityTag
p176
VNUMBER
p177
saa(lp178
Vlives
p179
a(dp180
VNamedEntityTag
p181
g84
sVCharacterOffsetEnd
p182
V48
p183
sVCharacterOffsetBegin
p184
V43
p185
sVPartOfSpeech
p186
VNNS
p187
sVLemma
p188
Vlife
p189
saa(lp190
V.
p191
a(dp192
VNamedEntityTag
p193
g84
sVCharacterOffsetEnd
p194
V50
p195
sVCharacterOffsetBegin
p196
V49
p197
sVPartOfSpeech
p198
g191
sVLemma
p199
g191
saasVindexeddependencies
p200
(lp201
(lp202
Vroot
p203
aVROOT-0
p204
aVplaying-3
p205
aa(lp206
Vnsubj
p207
aVplaying-3
p208
aVWendy-1
p209
aa(lp210
Vaux
p211
aVplaying-3
p212
aVwas-2
p213
aa(lp214
Vdet
p215
aVgame-6
p216
aVa-4
p217
aa(lp218
Vnn
p219
aVgame-6
p220
aVvideo-5
p221
aa(lp222
Vdobj
p223
aVplaying-3
p224
aVgame-6
p225
aa(lp226
Vconj_and
p227
aVplaying-3
p228
aVhad-8
p229
aa(lp230
Vnum
p231
aVlives-10
p232
aV10-9
p233
aa(lp234
Vdobj
p235
aVhad-8
p236
aVlives-10
p237
aasa(dp238
Vparsetree
p239
V(ROOT (S (PP (IN In) (NP (NP (DT a) (JJ hard) (NN part)) (PP (IN of) (NP (DT the) (NN game))))) (NP (PRP she)) (VP (VBD lost) (NP (CD 6) (NNS lives))) (. .)))
p240
sVtext
p241
VIn a hard part of the game she lost 6 lives .
p242
sVdependencies
p243
(lp244
(lp245
Vroot
p246
aVROOT
p247
aVlost
p248
aa(lp249
Vdet
p250
aVpart
p251
ag44
aa(lp252
Vamod
p253
aVpart
p254
aVhard
p255
aa(lp256
Vprep_in
p257
aVlost
p258
aVpart
p259
aa(lp260
Vdet
p261
aVgame
p262
aVthe
p263
aa(lp264
Vprep_of
p265
aVpart
p266
aVgame
p267
aa(lp268
Vnsubj
p269
aVlost
p270
aVshe
p271
aa(lp272
Vnum
p273
aVlives
p274
ag73
aa(lp275
Vdobj
p276
aVlost
p277
aVlives
p278
aasVwords
p279
(lp280
(lp281
VIn
p282
a(dp283
VNamedEntityTag
p284
g84
sVCharacterOffsetEnd
p285
V53
p286
sVCharacterOffsetBegin
p287
V51
p288
sVPartOfSpeech
p289
VIN
p290
sVLemma
p291
Vin
p292
saa(lp293
g44
a(dp294
VNamedEntityTag
p295
g84
sVCharacterOffsetEnd
p296
V55
p297
sVCharacterOffsetBegin
p298
V54
p299
sVPartOfSpeech
p300
VDT
p301
sVLemma
p302
g44
saa(lp303
Vhard
p304
a(dp305
VNamedEntityTag
p306
g84
sVCharacterOffsetEnd
p307
V60
p308
sVCharacterOffsetBegin
p309
V56
p310
sVPartOfSpeech
p311
VJJ
p312
sVLemma
p313
Vhard
p314
saa(lp315
Vpart
p316
a(dp317
VNamedEntityTag
p318
g84
sVCharacterOffsetEnd
p319
V65
p320
sVCharacterOffsetBegin
p321
V61
p322
sVPartOfSpeech
p323
VNN
p324
sVLemma
p325
Vpart
p326
saa(lp327
Vof
p328
a(dp329
VNamedEntityTag
p330
g84
sVCharacterOffsetEnd
p331
V68
p332
sVCharacterOffsetBegin
p333
V66
p334
sVPartOfSpeech
p335
VIN
p336
sVLemma
p337
Vof
p338
saa(lp339
Vthe
p340
a(dp341
VNamedEntityTag
p342
g84
sVCharacterOffsetEnd
p343
V72
p344
sVCharacterOffsetBegin
p345
V69
p346
sVPartOfSpeech
p347
VDT
p348
sVLemma
p349
Vthe
p350
saa(lp351
Vgame
p352
a(dp353
VNamedEntityTag
p354
g84
sVCharacterOffsetEnd
p355
V77
p356
sVCharacterOffsetBegin
p357
V73
p358
sVPartOfSpeech
p359
VNN
p360
sVLemma
p361
Vgame
p362
saa(lp363
Vshe
p364
a(dp365
VNamedEntityTag
p366
g84
sVCharacterOffsetEnd
p367
V81
p368
sVCharacterOffsetBegin
p369
V78
p370
sVPartOfSpeech
p371
VPRP
p372
sVLemma
p373
Vshe
p374
saa(lp375
Vlost
p376
a(dp377
VNamedEntityTag
p378
g84
sVCharacterOffsetEnd
p379
V86
p380
sVCharacterOffsetBegin
p381
V82
p382
sVPartOfSpeech
p383
VVBD
p384
sVLemma
p385
Vlose
p386
saa(lp387
g73
a(dp388
VNormalizedNamedEntityTag
p389
V6.0
p390
sVLemma
p391
g73
sVCharacterOffsetEnd
p392
V88
p393
sVPartOfSpeech
p394
VCD
p395
sVCharacterOffsetBegin
p396
V87
p397
sVNamedEntityTag
p398
VNUMBER
p399
saa(lp400
Vlives
p401
a(dp402
VNamedEntityTag
p403
g84
sVCharacterOffsetEnd
p404
V94
p405
sVCharacterOffsetBegin
p406
V89
p407
sVPartOfSpeech
p408
VNNS
p409
sVLemma
p410
Vlife
p411
saa(lp412
g191
a(dp413
VNamedEntityTag
p414
g84
sVCharacterOffsetEnd
p415
V96
p416
sVCharacterOffsetBegin
p417
V95
p418
sVPartOfSpeech
p419
g191
sVLemma
p420
g191
saasVindexeddependencies
p421
(lp422
(lp423
Vroot
p424
aVROOT-0
p425
aVlost-9
p426
aa(lp427
Vdet
p428
aVpart-4
p429
aVa-2
p430
aa(lp431
Vamod
p432
aVpart-4
p433
aVhard-3
p434
aa(lp435
Vprep_in
p436
aVlost-9
p437
aVpart-4
p438
aa(lp439
Vdet
p440
aVgame-7
p441
aVthe-6
p442
aa(lp443
Vprep_of
p444
aVpart-4
p445
aVgame-7
p446
aa(lp447
Vnsubj
p448
aVlost-9
p449
aVshe-8
p450
aa(lp451
Vnum
p452
aVlives-11
p453
aV6-10
p454
aa(lp455
Vdobj
p456
aVlost-9
p457
aVlives-11
p458
aasa(dp459
Vparsetree
p460
V(ROOT (SBARQ (SBAR (IN If) (S (NP (PRP she)) (VP (VBD got) (NP (CD 37) (JJR more) (NNS lives)) (PP (IN in) (NP (DT the) (JJ next) (NN level)))))) (, ,) (WHNP (WHADJP (WRB how) (JJ many)) (NNS lives)) (SQ (MD would) (NP (PRP she)) (VP (VB have))) (. ?)))
p461
sVtext
p462
VIf she got 37 more lives in the next level , how many lives would she have ?
p463
sVdependencies
p464
(lp465
(lp466
Vroot
p467
aVROOT
p468
aVhave
p469
aa(lp470
Vmark
p471
aVgot
p472
aVIf
p473
aa(lp474
Vnsubj
p475
aVgot
p476
aVshe
p477
aa(lp478
Vadvcl
p479
aVhave
p480
aVgot
p481
aa(lp482
Vnum
p483
aVlives
p484
aV37
p485
aa(lp486
Vamod
p487
aVlives
p488
aVmore
p489
aa(lp490
Vdobj
p491
aVgot
p492
aVlives
p493
aa(lp494
Vdet
p495
aVlevel
p496
aVthe
p497
aa(lp498
Vamod
p499
aVlevel
p500
aVnext
p501
aa(lp502
Vprep_in
p503
aVgot
p504
aVlevel
p505
aa(lp506
Vadvmod
p507
aVmany
p508
aVhow
p509
aa(lp510
Vamod
p511
aVlives
p512
aVmany
p513
aa(lp514
Vdobj
p515
aVhave
p516
aVlives
p517
aa(lp518
Vaux
p519
aVhave
p520
aVwould
p521
aa(lp522
Vnsubj
p523
aVhave
p524
aVshe
p525
aasVwords
p526
(lp527
(lp528
VIf
p529
a(dp530
VNamedEntityTag
p531
g84
sVCharacterOffsetEnd
p532
V99
p533
sVCharacterOffsetBegin
p534
V97
p535
sVPartOfSpeech
p536
VIN
p537
sVLemma
p538
Vif
p539
saa(lp540
Vshe
p541
a(dp542
VNamedEntityTag
p543
g84
sVCharacterOffsetEnd
p544
V103
p545
sVCharacterOffsetBegin
p546
V100
p547
sVPartOfSpeech
p548
VPRP
p549
sVLemma
p550
Vshe
p551
saa(lp552
Vgot
p553
a(dp554
VNamedEntityTag
p555
g84
sVCharacterOffsetEnd
p556
V107
p557
sVCharacterOffsetBegin
p558
V104
p559
sVPartOfSpeech
p560
VVBD
p561
sVLemma
p562
Vget
p563
saa(lp564
V37
p565
a(dp566
VNormalizedNamedEntityTag
p567
V37.0
p568
sVLemma
p569
V37
p570
sVCharacterOffsetEnd
p571
V110
p572
sVPartOfSpeech
p573
VCD
p574
sVCharacterOffsetBegin
p575
V108
p576
sVNamedEntityTag
p577
VNUMBER
p578
saa(lp579
Vmore
p580
a(dp581
VNamedEntityTag
p582
g84
sVCharacterOffsetEnd
p583
V115
p584
sVCharacterOffsetBegin
p585
V111
p586
sVPartOfSpeech
p587
VJJR
p588
sVLemma
p589
Vmore
p590
saa(lp591
Vlives
p592
a(dp593
VNamedEntityTag
p594
g84
sVCharacterOffsetEnd
p595
V121
p596
sVCharacterOffsetBegin
p597
V116
p598
sVPartOfSpeech
p599
VNNS
p600
sVLemma
p601
Vlife
p602
saa(lp603
Vin
p604
a(dp605
VNamedEntityTag
p606
g84
sVCharacterOffsetEnd
p607
V124
p608
sVCharacterOffsetBegin
p609
V122
p610
sVPartOfSpeech
p611
VIN
p612
sVLemma
p613
Vin
p614
saa(lp615
Vthe
p616
a(dp617
VNamedEntityTag
p618
g84
sVCharacterOffsetEnd
p619
V128
p620
sVCharacterOffsetBegin
p621
V125
p622
sVPartOfSpeech
p623
VDT
p624
sVLemma
p625
Vthe
p626
saa(lp627
Vnext
p628
a(dp629
VNamedEntityTag
p630
g84
sVCharacterOffsetEnd
p631
V133
p632
sVCharacterOffsetBegin
p633
V129
p634
sVPartOfSpeech
p635
VJJ
p636
sVLemma
p637
Vnext
p638
saa(lp639
Vlevel
p640
a(dp641
VNamedEntityTag
p642
g84
sVCharacterOffsetEnd
p643
V139
p644
sVCharacterOffsetBegin
p645
V134
p646
sVPartOfSpeech
p647
VNN
p648
sVLemma
p649
Vlevel
p650
saa(lp651
V,
p652
a(dp653
VNamedEntityTag
p654
g84
sVCharacterOffsetEnd
p655
V141
p656
sVCharacterOffsetBegin
p657
V140
p658
sVPartOfSpeech
p659
g652
sVLemma
p660
g652
saa(lp661
Vhow
p662
a(dp663
VNamedEntityTag
p664
g84
sVCharacterOffsetEnd
p665
V145
p666
sVCharacterOffsetBegin
p667
V142
p668
sVPartOfSpeech
p669
VWRB
p670
sVLemma
p671
Vhow
p672
saa(lp673
Vmany
p674
a(dp675
VNamedEntityTag
p676
g84
sVCharacterOffsetEnd
p677
V150
p678
sVCharacterOffsetBegin
p679
V146
p680
sVPartOfSpeech
p681
VJJ
p682
sVLemma
p683
Vmany
p684
saa(lp685
Vlives
p686
a(dp687
VNamedEntityTag
p688
g84
sVCharacterOffsetEnd
p689
V156
p690
sVCharacterOffsetBegin
p691
V151
p692
sVPartOfSpeech
p693
VNNS
p694
sVLemma
p695
Vlife
p696
saa(lp697
Vwould
p698
a(dp699
VNamedEntityTag
p700
g84
sVCharacterOffsetEnd
p701
V162
p702
sVCharacterOffsetBegin
p703
V157
p704
sVPartOfSpeech
p705
VMD
p706
sVLemma
p707
Vwould
p708
saa(lp709
Vshe
p710
a(dp711
VNamedEntityTag
p712
g84
sVCharacterOffsetEnd
p713
V166
p714
sVCharacterOffsetBegin
p715
V163
p716
sVPartOfSpeech
p717
VPRP
p718
sVLemma
p719
Vshe
p720
saa(lp721
Vhave
p722
a(dp723
VNamedEntityTag
p724
g84
sVCharacterOffsetEnd
p725
V171
p726
sVCharacterOffsetBegin
p727
V167
p728
sVPartOfSpeech
p729
VVB
p730
sVLemma
p731
Vhave
p732
saa(lp733
V?
p734
a(dp735
VNamedEntityTag
p736
g84
sVCharacterOffsetEnd
p737
V173
p738
sVCharacterOffsetBegin
p739
V172
p740
sVPartOfSpeech
p741
g191
sVLemma
p742
g734
saasVindexeddependencies
p743
(lp744
(lp745
Vroot
p746
aVROOT-0
p747
aVhave-17
p748
aa(lp749
Vmark
p750
aVgot-3
p751
aVIf-1
p752
aa(lp753
Vnsubj
p754
aVgot-3
p755
aVshe-2
p756
aa(lp757
Vadvcl
p758
aVhave-17
p759
aVgot-3
p760
aa(lp761
Vnum
p762
aVlives-6
p763
aV37-4
p764
aa(lp765
Vamod
p766
aVlives-6
p767
aVmore-5
p768
aa(lp769
Vdobj
p770
aVgot-3
p771
aVlives-6
p772
aa(lp773
Vdet
p774
aVlevel-10
p775
aVthe-8
p776
aa(lp777
Vamod
p778
aVlevel-10
p779
aVnext-9
p780
aa(lp781
Vprep_in
p782
aVgot-3
p783
aVlevel-10
p784
aa(lp785
Vadvmod
p786
aVmany-13
p787
aVhow-12
p788
aa(lp789
Vamod
p790
aVlives-14
p791
aVmany-13
p792
aa(lp793
Vdobj
p794
aVhave-17
p795
aVlives-14
p796
aa(lp797
Vaux
p798
aVhave-17
p799
aVwould-15
p800
aa(lp801
Vnsubj
p802
aVhave-17
p803
aVshe-16
p804
aasas.