(dp0
Vcoref
p1
(lp2
(lp3
(lp4
(lp5
VThis spring
p6
aI1
aI1
aI0
aI2
aa(lp7
VLast spring
p8
aI0
aI1
aI0
aI2
aaa(lp9
(lp10
Vit
p11
aI1
aI3
aI3
aI4
aa(lp12
VLast spring
p13
aI0
aI1
aI0
aI2
aaaasVsentences
p14
(lp15
(dp16
Vparsetree
p17
V(ROOT (S (NP-TMP (JJ Last) (NN spring)) (, ,) (NP (NP (DT the) (JJ average) (NN amount)) (PP (IN of) (NP (NP (NN rent)) (VP (VBN paid) (PP (IN for) (NP (NP (NNS apartments)) (PP (IN in) (NP (NNP Belleville))))))))) (VP (VBD was) (NP ($ $) (CD 1570))) (. .)))
p18
sVtext
p19
VLast spring , the average amount of rent paid for apartments in Belleville was $1570 .
p20
sVdependencies
p21
(lp22
(lp23
Vroot
p24
aVROOT
p25
aV$
p26
aa(lp27
Vamod
p28
aVspring
p29
aVLast
p30
aa(lp31
Vtmod
p32
ag26
aVspring
p33
aa(lp34
Vdet
p35
aVamount
p36
aVthe
p37
aa(lp38
Vamod
p39
aVamount
p40
aVaverage
p41
aa(lp42
Vnsubj
p43
ag26
aVamount
p44
aa(lp45
Vprep_of
p46
aVamount
p47
aVrent
p48
aa(lp49
Vvmod
p50
aVrent
p51
aVpaid
p52
aa(lp53
Vprep_for
p54
aVpaid
p55
aVapartments
p56
aa(lp57
Vprep_in
p58
aVapartments
p59
aVBelleville
p60
aa(lp61
Vcop
p62
ag26
aVwas
p63
aa(lp64
Vnum
p65
ag26
aV1570
p66
aasVwords
p67
(lp68
(lp69
VLast
p70
a(dp71
VNormalizedNamedEntityTag
p72
VXXXX-SP
p73
sVTimex
p74
V<TIMEX3 alt_value="XXXX-SP OFFSET P-1Y" anchorTimeID="t2" temporalFunction="true" tid="t1" type="DATE" valueFromFunction="tf0">Last spring</TIMEX3>
p75
sVLemma
p76
Vlast
p77
sVCharacterOffsetEnd
p78
V5
p79
sVPartOfSpeech
p80
VJJ
p81
sVCharacterOffsetBegin
p82
V1
p83
sVNamedEntityTag
p84
VDATE
p85
saa(lp86
Vspring
p87
a(dp88
VNormalizedNamedEntityTag
p89
VXXXX-SP
p90
sVTimex
p91
V<TIMEX3 alt_value="XXXX-SP OFFSET P-1Y" anchorTimeID="t2" temporalFunction="true" tid="t1" type="DATE" valueFromFunction="tf0">Last spring</TIMEX3>
p92
sVLemma
p93
Vspring
p94
sVCharacterOffsetEnd
p95
V12
p96
sVPartOfSpeech
p97
VNN
p98
sVCharacterOffsetBegin
p99
V6
p100
sVNamedEntityTag
p101
VDATE
p102
saa(lp103
V,
p104
a(dp105
VNamedEntityTag
p106
VO
p107
sVCharacterOffsetEnd
p108
V14
p109
sVCharacterOffsetBegin
p110
V13
p111
sVPartOfSpeech
p112
g104
sVLemma
p113
g104
saa(lp114
Vthe
p115
a(dp116
VNamedEntityTag
p117
g107
sVCharacterOffsetEnd
p118
V18
p119
sVCharacterOffsetBegin
p120
V15
p121
sVPartOfSpeech
p122
VDT
p123
sVLemma
p124
Vthe
p125
saa(lp126
Vaverage
p127
a(dp128
VNamedEntityTag
p129
g107
sVCharacterOffsetEnd
p130
V26
p131
sVCharacterOffsetBegin
p132
V19
p133
sVPartOfSpeech
p134
VJJ
p135
sVLemma
p136
Vaverage
p137
saa(lp138
Vamount
p139
a(dp140
VNamedEntityTag
p141
g107
sVCharacterOffsetEnd
p142
V33
p143
sVCharacterOffsetBegin
p144
V27
p145
sVPartOfSpeech
p146
VNN
p147
sVLemma
p148
Vamount
p149
saa(lp150
Vof
p151
a(dp152
VNamedEntityTag
p153
g107
sVCharacterOffsetEnd
p154
V36
p155
sVCharacterOffsetBegin
p156
V34
p157
sVPartOfSpeech
p158
VIN
p159
sVLemma
p160
Vof
p161
saa(lp162
Vrent
p163
a(dp164
VNamedEntityTag
p165
g107
sVCharacterOffsetEnd
p166
V41
p167
sVCharacterOffsetBegin
p168
V37
p169
sVPartOfSpeech
p170
VNN
p171
sVLemma
p172
Vrent
p173
saa(lp174
Vpaid
p175
a(dp176
VNamedEntityTag
p177
g107
sVCharacterOffsetEnd
p178
V46
p179
sVCharacterOffsetBegin
p180
V42
p181
sVPartOfSpeech
p182
VVBN
p183
sVLemma
p184
Vpay
p185
saa(lp186
Vfor
p187
a(dp188
VNamedEntityTag
p189
g107
sVCharacterOffsetEnd
p190
V50
p191
sVCharacterOffsetBegin
p192
V47
p193
sVPartOfSpeech
p194
VIN
p195
sVLemma
p196
Vfor
p197
saa(lp198
Vapartments
p199
a(dp200
VNamedEntityTag
p201
g107
sVCharacterOffsetEnd
p202
V61
p203
sVCharacterOffsetBegin
p204
V51
p205
sVPartOfSpeech
p206
VNNS
p207
sVLemma
p208
Vapartment
p209
saa(lp210
Vin
p211
a(dp212
VNamedEntityTag
p213
g107
sVCharacterOffsetEnd
p214
V64
p215
sVCharacterOffsetBegin
p216
V62
p217
sVPartOfSpeech
p218
VIN
p219
sVLemma
p220
Vin
p221
saa(lp222
VBelleville
p223
a(dp224
VNamedEntityTag
p225
VLOCATION
p226
sVCharacterOffsetEnd
p227
V75
p228
sVCharacterOffsetBegin
p229
V65
p230
sVPartOfSpeech
p231
VNNP
p232
sVLemma
p233
VBelleville
p234
saa(lp235
Vwas
p236
a(dp237
VNamedEntityTag
p238
g107
sVCharacterOffsetEnd
p239
V79
p240
sVCharacterOffsetBegin
p241
V76
p242
sVPartOfSpeech
p243
VVBD
p244
sVLemma
p245
Vbe
p246
saa(lp247
g26
a(dp248
VNormalizedNamedEntityTag
p249
V$1570.0
p250
sVLemma
p251
g26
sVCharacterOffsetEnd
p252
V81
p253
sVPartOfSpeech
p254
g26
sVCharacterOffsetBegin
p255
V80
p256
sVNamedEntityTag
p257
VMONEY
p258
saa(lp259
V1570
p260
a(dp261
VNormalizedNamedEntityTag
p262
V$1570.0
p263
sVTimex
p264
V<TIMEX3 tid="t3" type="DATE" value="1570">1570</TIMEX3>
p265
sVLemma
p266
V1570
p267
sVCharacterOffsetEnd
p268
V85
p269
sVPartOfSpeech
p270
VCD
p271
sVCharacterOffsetBegin
p272
V81
p273
sVNamedEntityTag
p274
VMONEY
p275
saa(lp276
V.
p277
a(dp278
VNamedEntityTag
p279
g107
sVCharacterOffsetEnd
p280
V87
p281
sVCharacterOffsetBegin
p282
V86
p283
sVPartOfSpeech
p284
g277
sVLemma
p285
g277
saasVindexeddependencies
p286
(lp287
(lp288
Vroot
p289
aVROOT-0
p290
aV$-15
p291
aa(lp292
Vamod
p293
aVspring-2
p294
aVLast-1
p295
aa(lp296
Vtmod
p297
aV$-15
p298
aVspring-2
p299
aa(lp300
Vdet
p301
aVamount-6
p302
aVthe-4
p303
aa(lp304
Vamod
p305
aVamount-6
p306
aVaverage-5
p307
aa(lp308
Vnsubj
p309
aV$-15
p310
aVamount-6
p311
aa(lp312
Vprep_of
p313
aVamount-6
p314
aVrent-8
p315
aa(lp316
Vvmod
p317
aVrent-8
p318
aVpaid-9
p319
aa(lp320
Vprep_for
p321
aVpaid-9
p322
aVapartments-11
p323
aa(lp324
Vprep_in
p325
aVapartments-11
p326
aVBelleville-13
p327
aa(lp328
Vcop
p329
aV$-15
p330
aVwas-14
p331
aa(lp332
Vnum
p333
aV$-15
p334
aV1570-16
p335
aasa(dp336
Vparsetree
p337
V(ROOT (S (NP-TMP (DT This) (NN spring)) (, ,) (NP (PRP it)) (VP (VBZ is) (NP ($ $) (CD 2041))) (. .)))
p338
sVtext
p339
VThis spring , it is $2041 .
p340
sVdependencies
p341
(lp342
(lp343
Vroot
p344
aVROOT
p345
ag26
aa(lp346
Vdet
p347
aVspring
p348
aVThis
p349
aa(lp350
Vtmod
p351
ag26
aVspring
p352
aa(lp353
Vnsubj
p354
ag26
aVit
p355
aa(lp356
Vcop
p357
ag26
aVis
p358
aa(lp359
Vnum
p360
ag26
aV2041
p361
aasVwords
p362
(lp363
(lp364
VThis
p365
a(dp366
VNormalizedNamedEntityTag
p367
VTHIS
p368
sVTimex
p369
V<TIMEX3 alt_value="THIS SP" anchorTimeID="t0" temporalFunction="true" tid="t4" type="DATE" valueFromFunction="tf1">This spring</TIMEX3>
p370
sVLemma
p371
Vthis
p372
sVCharacterOffsetEnd
p373
V92
p374
sVPartOfSpeech
p375
VDT
p376
sVCharacterOffsetBegin
p377
V88
p378
sVNamedEntityTag
p379
VDATE
p380
saa(lp381
Vspring
p382
a(dp383
VNormalizedNamedEntityTag
p384
VTHIS
p385
sVTimex
p386
V<TIMEX3 alt_value="THIS SP" anchorTimeID="t0" temporalFunction="true" tid="t4" type="DATE" valueFromFunction="tf1">This spring</TIMEX3>
p387
sVLemma
p388
Vspring
p389
sVCharacterOffsetEnd
p390
V99
p391
sVPartOfSpeech
p392
VNN
p393
sVCharacterOffsetBegin
p394
V93
p395
sVNamedEntityTag
p396
VDATE
p397
saa(lp398
g104
a(dp399
VNamedEntityTag
p400
g107
sVCharacterOffsetEnd
p401
V101
p402
sVCharacterOffsetBegin
p403
V100
p404
sVPartOfSpeech
p405
g104
sVLemma
p406
g104
saa(lp407
Vit
p408
a(dp409
VNamedEntityTag
p410
g107
sVCharacterOffsetEnd
p411
V104
p412
sVCharacterOffsetBegin
p413
V102
p414
sVPartOfSpeech
p415
VPRP
p416
sVLemma
p417
Vit
p418
saa(lp419
Vis
p420
a(dp421
VNamedEntityTag
p422
g107
sVCharacterOffsetEnd
p423
V107
p424
sVCharacterOffsetBegin
p425
V105
p426
sVPartOfSpeech
p427
VVBZ
p428
sVLemma
p429
Vbe
p430
saa(lp431
g26
a(dp432
VNormalizedNamedEntityTag
p433
V$2041.0
p434
sVLemma
p435
g26
sVCharacterOffsetEnd
p436
V109
p437
sVPartOfSpeech
p438
g26
sVCharacterOffsetBegin
p439
V108
p440
sVNamedEntityTag
p441
VMONEY
p442
saa(lp443
V2041
p444
a(dp445
VNormalizedNamedEntityTag
p446
V$2041.0
p447
sVTimex
p448
V<TIMEX3 tid="t5" type="DATE" value="2041">2041</TIMEX3>
p449
sVLemma
p450
V2041
p451
sVCharacterOffsetEnd
p452
V113
p453
sVPartOfSpeech
p454
VCD
p455
sVCharacterOffsetBegin
p456
V109
p457
sVNamedEntityTag
p458
VMONEY
p459
saa(lp460
g277
a(dp461
VNamedEntityTag
p462
g107
sVCharacterOffsetEnd
p463
V115
p464
sVCharacterOffsetBegin
p465
V114
p466
sVPartOfSpeech
p467
g277
sVLemma
p468
g277
saasVindexeddependencies
p469
(lp470
(lp471
Vroot
p472
aVROOT-0
p473
aV$-6
p474
aa(lp475
Vdet
p476
aVspring-2
p477
aVThis-1
p478
aa(lp479
Vtmod
p480
aV$-6
p481
aVspring-2
p482
aa(lp483
Vnsubj
p484
aV$-6
p485
aVit-4
p486
aa(lp487
Vcop
p488
aV$-6
p489
aVis-5
p490
aa(lp491
Vnum
p492
aV$-6
p493
aV2041-7
p494
aasa(dp495
Vparsetree
p496
V(ROOT (SBARQ (WHNP (WP What)) (SQ (VBZ is) (NP (NP (DT the) (NNS times)) (PP (IN of) (NP (NP (NN increase)) (PP (IN in) (NP (DT the) (JJ average) (NN apartment) (S (VP (VB rent))))))))) (. ?)))
p497
sVtext
p498
VWhat is the times of increase in the average apartment rent ?
p499
sVdependencies
p500
(lp501
(lp502
Vroot
p503
aVROOT
p504
aVWhat
p505
aa(lp506
Vcop
p507
aVWhat
p508
aVis
p509
aa(lp510
Vdet
p511
aVtimes
p512
aVthe
p513
aa(lp514
Vnsubj
p515
aVWhat
p516
aVtimes
p517
aa(lp518
Vprep_of
p519
aVtimes
p520
aVincrease
p521
aa(lp522
Vdet
p523
aVapartment
p524
aVthe
p525
aa(lp526
Vamod
p527
aVapartment
p528
aVaverage
p529
aa(lp530
Vprep_in
p531
aVincrease
p532
aVapartment
p533
aa(lp534
Vdep
p535
aVapartment
p536
aVrent
p537
aasVwords
p538
(lp539
(lp540
VWhat
p541
a(dp542
VNamedEntityTag
p543
g107
sVCharacterOffsetEnd
p544
V120
p545
sVCharacterOffsetBegin
p546
V116
p547
sVPartOfSpeech
p548
VWP
p549
sVLemma
p550
Vwhat
p551
saa(lp552
Vis
p553
a(dp554
VNamedEntityTag
p555
g107
sVCharacterOffsetEnd
p556
V123
p557
sVCharacterOffsetBegin
p558
V121
p559
sVPartOfSpeech
p560
VVBZ
p561
sVLemma
p562
Vbe
p563
saa(lp564
Vthe
p565
a(dp566
VNamedEntityTag
p567
g107
sVCharacterOffsetEnd
p568
V127
p569
sVCharacterOffsetBegin
p570
V124
p571
sVPartOfSpeech
p572
VDT
p573
sVLemma
p574
Vthe
p575
saa(lp576
Vtimes
p577
a(dp578
VNamedEntityTag
p579
g107
sVCharacterOffsetEnd
p580
V133
p581
sVCharacterOffsetBegin
p582
V128
p583
sVPartOfSpeech
p584
VNNS
p585
sVLemma
p586
Vtime
p587
saa(lp588
Vof
p589
a(dp590
VNamedEntityTag
p591
g107
sVCharacterOffsetEnd
p592
V136
p593
sVCharacterOffsetBegin
p594
V134
p595
sVPartOfSpeech
p596
VIN
p597
sVLemma
p598
Vof
p599
saa(lp600
Vincrease
p601
a(dp602
VNamedEntityTag
p603
g107
sVCharacterOffsetEnd
p604
V145
p605
sVCharacterOffsetBegin
p606
V137
p607
sVPartOfSpeech
p608
VNN
p609
sVLemma
p610
Vincrease
p611
saa(lp612
Vin
p613
a(dp614
VNamedEntityTag
p615
g107
sVCharacterOffsetEnd
p616
V148
p617
sVCharacterOffsetBegin
p618
V146
p619
sVPartOfSpeech
p620
VIN
p621
sVLemma
p622
Vin
p623
saa(lp624
Vthe
p625
a(dp626
VNamedEntityTag
p627
g107
sVCharacterOffsetEnd
p628
V152
p629
sVCharacterOffsetBegin
p630
V149
p631
sVPartOfSpeech
p632
VDT
p633
sVLemma
p634
Vthe
p635
saa(lp636
Vaverage
p637
a(dp638
VNamedEntityTag
p639
g107
sVCharacterOffsetEnd
p640
V160
p641
sVCharacterOffsetBegin
p642
V153
p643
sVPartOfSpeech
p644
VJJ
p645
sVLemma
p646
Vaverage
p647
saa(lp648
Vapartment
p649
a(dp650
VNamedEntityTag
p651
g107
sVCharacterOffsetEnd
p652
V170
p653
sVCharacterOffsetBegin
p654
V161
p655
sVPartOfSpeech
p656
VNN
p657
sVLemma
p658
Vapartment
p659
saa(lp660
Vrent
p661
a(dp662
VNamedEntityTag
p663
g107
sVCharacterOffsetEnd
p664
V175
p665
sVCharacterOffsetBegin
p666
V171
p667
sVPartOfSpeech
p668
VVB
p669
sVLemma
p670
Vrent
p671
saa(lp672
V?
p673
a(dp674
VNamedEntityTag
p675
g107
sVCharacterOffsetEnd
p676
V177
p677
sVCharacterOffsetBegin
p678
V176
p679
sVPartOfSpeech
p680
g277
sVLemma
p681
g673
saasVindexeddependencies
p682
(lp683
(lp684
Vroot
p685
aVROOT-0
p686
aVWhat-1
p687
aa(lp688
Vcop
p689
aVWhat-1
p690
aVis-2
p691
aa(lp692
Vdet
p693
aVtimes-4
p694
aVthe-3
p695
aa(lp696
Vnsubj
p697
aVWhat-1
p698
aVtimes-4
p699
aa(lp700
Vprep_of
p701
aVtimes-4
p702
aVincrease-6
p703
aa(lp704
Vdet
p705
aVapartment-10
p706
aVthe-8
p707
aa(lp708
Vamod
p709
aVapartment-10
p710
aVaverage-9
p711
aa(lp712
Vprep_in
p713
aVincrease-6
p714
aVapartment-10
p715
aa(lp716
Vdep
p717
aVapartment-10
p718
aVrent-11
p719
aasas.