(dp0
Vcoref
p1
(lp2
(lp3
(lp4
(lp5
VDarnel
p6
aI1
aI4
aI4
aI5
aa(lp7
VDarnel
p8
aI0
aI0
aI0
aI1
aaaa(lp9
(lp10
(lp11
Va lap
p12
aI0
aI16
aI15
aI17
aa(lp13
Va lap
p14
aI0
aI5
aI4
aI6
aaaasVsentences
p15
(lp16
(dp17
Vparsetree
p18
V(ROOT (S (NP (NNP Darnel)) (VP (VP (VBD sprinted) (NP (NP (CD 0.875)) (PP (IN of) (NP (DT a) (NN lap))))) (CC and) (VP (ADVP (RB then)) (VBD took) (NP (DT a) (NN break)) (PP (IN by) (NP (NP (NN jogging) (CD 0.75)) (PP (IN of) (NP (DT a) (NN lap))))))) (. .)))
p19
sVtext
p20
VDarnel sprinted 0.875 of a lap and then took a break by jogging 0.75 of a lap .
p21
sVdependencies
p22
(lp23
(lp24
Vroot
p25
aVROOT
p26
aVsprinted
p27
aa(lp28
Vnsubj
p29
aVsprinted
p30
aVDarnel
p31
aa(lp32
Vdobj
p33
aVsprinted
p34
aV0.875
p35
aa(lp36
Vdet
p37
aVlap
p38
aVa
p39
aa(lp40
Vprep_of
p41
aV0.875
p42
aVlap
p43
aa(lp44
Vadvmod
p45
aVtook
p46
aVthen
p47
aa(lp48
Vconj_and
p49
aVsprinted
p50
aVtook
p51
aa(lp52
Vdet
p53
aVbreak
p54
ag39
aa(lp55
Vdobj
p56
aVtook
p57
aVbreak
p58
aa(lp59
Vprep_by
p60
aVtook
p61
aVjogging
p62
aa(lp63
Vnum
p64
aVjogging
p65
aV0.75
p66
aa(lp67
Vdet
p68
aVlap
p69
ag39
aa(lp70
Vprep_of
p71
aVjogging
p72
aVlap
p73
aasVwords
p74
(lp75
(lp76
VDarnel
p77
a(dp78
VNamedEntityTag
p79
VPERSON
p80
sVCharacterOffsetEnd
p81
V7
p82
sVCharacterOffsetBegin
p83
V1
p84
sVPartOfSpeech
p85
VNNP
p86
sVLemma
p87
VDarnel
p88
saa(lp89
Vsprinted
p90
a(dp91
VNamedEntityTag
p92
VO
p93
sVCharacterOffsetEnd
p94
V16
p95
sVCharacterOffsetBegin
p96
V8
p97
sVPartOfSpeech
p98
VVBD
p99
sVLemma
p100
Vsprint
p101
saa(lp102
V0.875
p103
a(dp104
VNormalizedNamedEntityTag
p105
V0.875
p106
sVLemma
p107
V0.875
p108
sVCharacterOffsetEnd
p109
V22
p110
sVPartOfSpeech
p111
VCD
p112
sVCharacterOffsetBegin
p113
V17
p114
sVNamedEntityTag
p115
VNUMBER
p116
saa(lp117
Vof
p118
a(dp119
VNamedEntityTag
p120
g93
sVCharacterOffsetEnd
p121
V25
p122
sVCharacterOffsetBegin
p123
V23
p124
sVPartOfSpeech
p125
VIN
p126
sVLemma
p127
Vof
p128
saa(lp129
g39
a(dp130
VNamedEntityTag
p131
g93
sVCharacterOffsetEnd
p132
V27
p133
sVCharacterOffsetBegin
p134
V26
p135
sVPartOfSpeech
p136
VDT
p137
sVLemma
p138
g39
saa(lp139
Vlap
p140
a(dp141
VNamedEntityTag
p142
g93
sVCharacterOffsetEnd
p143
V31
p144
sVCharacterOffsetBegin
p145
V28
p146
sVPartOfSpeech
p147
VNN
p148
sVLemma
p149
Vlap
p150
saa(lp151
Vand
p152
a(dp153
VNamedEntityTag
p154
g93
sVCharacterOffsetEnd
p155
V35
p156
sVCharacterOffsetBegin
p157
V32
p158
sVPartOfSpeech
p159
VCC
p160
sVLemma
p161
Vand
p162
saa(lp163
Vthen
p164
a(dp165
VNamedEntityTag
p166
g93
sVCharacterOffsetEnd
p167
V40
p168
sVCharacterOffsetBegin
p169
V36
p170
sVPartOfSpeech
p171
VRB
p172
sVLemma
p173
Vthen
p174
saa(lp175
Vtook
p176
a(dp177
VNamedEntityTag
p178
g93
sVCharacterOffsetEnd
p179
V45
p180
sVCharacterOffsetBegin
p181
V41
p182
sVPartOfSpeech
p183
VVBD
p184
sVLemma
p185
Vtake
p186
saa(lp187
g39
a(dp188
VNamedEntityTag
p189
g93
sVCharacterOffsetEnd
p190
V47
p191
sVCharacterOffsetBegin
p192
V46
p193
sVPartOfSpeech
p194
VDT
p195
sVLemma
p196
g39
saa(lp197
Vbreak
p198
a(dp199
VNamedEntityTag
p200
g93
sVCharacterOffsetEnd
p201
V53
p202
sVCharacterOffsetBegin
p203
V48
p204
sVPartOfSpeech
p205
VNN
p206
sVLemma
p207
Vbreak
p208
saa(lp209
Vby
p210
a(dp211
VNamedEntityTag
p212
g93
sVCharacterOffsetEnd
p213
V56
p214
sVCharacterOffsetBegin
p215
V54
p216
sVPartOfSpeech
p217
VIN
p218
sVLemma
p219
Vby
p220
saa(lp221
Vjogging
p222
a(dp223
VNamedEntityTag
p224
g93
sVCharacterOffsetEnd
p225
V64
p226
sVCharacterOffsetBegin
p227
V57
p228
sVPartOfSpeech
p229
VNN
p230
sVLemma
p231
Vjogging
p232
saa(lp233
V0.75
p234
a(dp235
VNormalizedNamedEntityTag
p236
V0.75
p237
sVLemma
p238
V0.75
p239
sVCharacterOffsetEnd
p240
V69
p241
sVPartOfSpeech
p242
VCD
p243
sVCharacterOffsetBegin
p244
V65
p245
sVNamedEntityTag
p246
VNUMBER
p247
saa(lp248
Vof
p249
a(dp250
VNamedEntityTag
p251
g93
sVCharacterOffsetEnd
p252
V72
p253
sVCharacterOffsetBegin
p254
V70
p255
sVPartOfSpeech
p256
VIN
p257
sVLemma
p258
Vof
p259
saa(lp260
g39
a(dp261
VNamedEntityTag
p262
g93
sVCharacterOffsetEnd
p263
V74
p264
sVCharacterOffsetBegin
p265
V73
p266
sVPartOfSpeech
p267
VDT
p268
sVLemma
p269
g39
saa(lp270
Vlap
p271
a(dp272
VNamedEntityTag
p273
g93
sVCharacterOffsetEnd
p274
V78
p275
sVCharacterOffsetBegin
p276
V75
p277
sVPartOfSpeech
p278
VNN
p279
sVLemma
p280
Vlap
p281
saa(lp282
V.
p283
a(dp284
VNamedEntityTag
p285
g93
sVCharacterOffsetEnd
p286
V80
p287
sVCharacterOffsetBegin
p288
V79
p289
sVPartOfSpeech
p290
g283
sVLemma
p291
g283
saasVindexeddependencies
p292
(lp293
(lp294
Vroot
p295
aVROOT-0
p296
aVsprinted-2
p297
aa(lp298
Vnsubj
p299
aVsprinted-2
p300
aVDarnel-1
p301
aa(lp302
Vdobj
p303
aVsprinted-2
p304
aV0.875-3
p305
aa(lp306
Vdet
p307
aVlap-6
p308
aVa-5
p309
aa(lp310
Vprep_of
p311
aV0.875-3
p312
aVlap-6
p313
aa(lp314
Vadvmod
p315
aVtook-9
p316
aVthen-8
p317
aa(lp318
Vconj_and
p319
aVsprinted-2
p320
aVtook-9
p321
aa(lp322
Vdet
p323
aVbreak-11
p324
aVa-10
p325
aa(lp326
Vdobj
p327
aVtook-9
p328
aVbreak-11
p329
aa(lp330
Vprep_by
p331
aVtook-9
p332
aVjogging-13
p333
aa(lp334
Vnum
p335
aVjogging-13
p336
aV0.75-14
p337
aa(lp338
Vdet
p339
aVlap-17
p340
aVa-16
p341
aa(lp342
Vprep_of
p343
aVjogging-13
p344
aVlap-17
p345
aasa(dp346
Vparsetree
p347
V(ROOT (SBARQ (WHNP (WHNP (WRB How) (JJ much)) (ADJP (RBR farther))) (SQ (VP (VBD did) (NP (NNP Darnel) (NN sprint)) (PP (IN than) (NP (NN jog))))) (. ?)))
p348
sVtext
p349
VHow much farther did Darnel sprint than jog ?
p350
sVdependencies
p351
(lp352
(lp353
Vroot
p354
aVROOT
p355
aVdid
p356
aa(lp357
Vadvmod
p358
aVmuch
p359
aVHow
p360
aa(lp361
Vnsubj
p362
aVdid
p363
aVmuch
p364
aa(lp365
Vamod
p366
aVmuch
p367
aVfarther
p368
aa(lp369
Vnn
p370
aVsprint
p371
aVDarnel
p372
aa(lp373
Vdobj
p374
aVdid
p375
aVsprint
p376
aa(lp377
Vprep_than
p378
aVdid
p379
aVjog
p380
aasVwords
p381
(lp382
(lp383
VHow
p384
a(dp385
VNamedEntityTag
p386
g93
sVCharacterOffsetEnd
p387
V84
p388
sVCharacterOffsetBegin
p389
V81
p390
sVPartOfSpeech
p391
VWRB
p392
sVLemma
p393
Vhow
p394
saa(lp395
Vmuch
p396
a(dp397
VNamedEntityTag
p398
g93
sVCharacterOffsetEnd
p399
V89
p400
sVCharacterOffsetBegin
p401
V85
p402
sVPartOfSpeech
p403
VJJ
p404
sVLemma
p405
Vmuch
p406
saa(lp407
Vfarther
p408
a(dp409
VNamedEntityTag
p410
g93
sVCharacterOffsetEnd
p411
V97
p412
sVCharacterOffsetBegin
p413
V90
p414
sVPartOfSpeech
p415
VRBR
p416
sVLemma
p417
Vfarther
p418
saa(lp419
Vdid
p420
a(dp421
VNamedEntityTag
p422
g93
sVCharacterOffsetEnd
p423
V101
p424
sVCharacterOffsetBegin
p425
V98
p426
sVPartOfSpeech
p427
VVBD
p428
sVLemma
p429
Vdo
p430
saa(lp431
VDarnel
p432
a(dp433
VNamedEntityTag
p434
VPERSON
p435
sVCharacterOffsetEnd
p436
V108
p437
sVCharacterOffsetBegin
p438
V102
p439
sVPartOfSpeech
p440
VNNP
p441
sVLemma
p442
VDarnel
p443
saa(lp444
Vsprint
p445
a(dp446
VNamedEntityTag
p447
g93
sVCharacterOffsetEnd
p448
V115
p449
sVCharacterOffsetBegin
p450
V109
p451
sVPartOfSpeech
p452
VNN
p453
sVLemma
p454
Vsprint
p455
saa(lp456
Vthan
p457
a(dp458
VNamedEntityTag
p459
g93
sVCharacterOffsetEnd
p460
V120
p461
sVCharacterOffsetBegin
p462
V116
p463
sVPartOfSpeech
p464
VIN
p465
sVLemma
p466
Vthan
p467
saa(lp468
Vjog
p469
a(dp470
VNamedEntityTag
p471
g93
sVCharacterOffsetEnd
p472
V124
p473
sVCharacterOffsetBegin
p474
V121
p475
sVPartOfSpeech
p476
VNN
p477
sVLemma
p478
Vjog
p479
saa(lp480
V?
p481
a(dp482
VNamedEntityTag
p483
g93
sVCharacterOffsetEnd
p484
V126
p485
sVCharacterOffsetBegin
p486
V125
p487
sVPartOfSpeech
p488
g283
sVLemma
p489
g481
saasVindexeddependencies
p490
(lp491
(lp492
Vroot
p493
aVROOT-0
p494
aVdid-4
p495
aa(lp496
Vadvmod
p497
aVmuch-2
p498
aVHow-1
p499
aa(lp500
Vnsubj
p501
aVdid-4
p502
aVmuch-2
p503
aa(lp504
Vamod
p505
aVmuch-2
p506
aVfarther-3
p507
aa(lp508
Vnn
p509
aVsprint-6
p510
aVDarnel-5
p511
aa(lp512
Vdobj
p513
aVdid-4
p514
aVsprint-6
p515
aa(lp516
Vprep_than
p517
aVdid-4
p518
aVjog-8
p519
aasas.