(dp0
Vcoref
p1
(lp2
(lp3
(lp4
(lp5
VErik
p6
aI0
aI0
aI0
aI1
aa(lp7
VErik 's
p8
aI3
aI7
aI7
aI9
aaa(lp9
(lp10
Vhe
p11
aI1
aI6
aI6
aI7
aa(lp12
VErik 's
p13
aI3
aI7
aI7
aI9
aaa(lp14
(lp15
Vhe
p16
aI2
aI4
aI4
aI5
aa(lp17
VErik 's
p18
aI3
aI7
aI7
aI9
aaaasVsentences
p19
(lp20
(dp21
Vparsetree
p22
V(ROOT (S (NP (NNP Erik)) (VP (VP (VBZ has) (VP (VBN run) (NP (JJ many) (NNS marathons)))) (CC and) (VP (VBZ keeps) (NP (NP (NN track)) (PP (IN of) (NP (NP (DT all)) (PP (IN of) (NP (PRP$ his) (VBG finishing) (NNS times)))))))) (. .)))
p23
sVtext
p24
VErik has run many marathons and keeps track of all of his finishing times .
p25
sVdependencies
p26
(lp27
(lp28
Vroot
p29
aVROOT
p30
aVrun
p31
aa(lp32
Vnsubj
p33
aVrun
p34
aVErik
p35
aa(lp36
Vaux
p37
aVrun
p38
aVhas
p39
aa(lp40
Vamod
p41
aVmarathons
p42
aVmany
p43
aa(lp44
Vdobj
p45
aVrun
p46
aVmarathons
p47
aa(lp48
Vconj_and
p49
aVrun
p50
aVkeeps
p51
aa(lp52
Vdobj
p53
aVkeeps
p54
aVtrack
p55
aa(lp56
Vprep_of
p57
aVtrack
p58
aVall
p59
aa(lp60
Vposs
p61
aVtimes
p62
aVhis
p63
aa(lp64
Vamod
p65
aVtimes
p66
aVfinishing
p67
aa(lp68
Vprep_of
p69
aVall
p70
aVtimes
p71
aasVwords
p72
(lp73
(lp74
VErik
p75
a(dp76
VNamedEntityTag
p77
VPERSON
p78
sVCharacterOffsetEnd
p79
V5
p80
sVCharacterOffsetBegin
p81
V1
p82
sVPartOfSpeech
p83
VNNP
p84
sVLemma
p85
VErik
p86
saa(lp87
Vhas
p88
a(dp89
VNamedEntityTag
p90
VO
p91
sVCharacterOffsetEnd
p92
V9
p93
sVCharacterOffsetBegin
p94
V6
p95
sVPartOfSpeech
p96
VVBZ
p97
sVLemma
p98
Vhave
p99
saa(lp100
Vrun
p101
a(dp102
VNamedEntityTag
p103
g91
sVCharacterOffsetEnd
p104
V13
p105
sVCharacterOffsetBegin
p106
V10
p107
sVPartOfSpeech
p108
VVBN
p109
sVLemma
p110
Vrun
p111
saa(lp112
Vmany
p113
a(dp114
VNamedEntityTag
p115
g91
sVCharacterOffsetEnd
p116
V18
p117
sVCharacterOffsetBegin
p118
V14
p119
sVPartOfSpeech
p120
VJJ
p121
sVLemma
p122
Vmany
p123
saa(lp124
Vmarathons
p125
a(dp126
VNamedEntityTag
p127
g91
sVCharacterOffsetEnd
p128
V28
p129
sVCharacterOffsetBegin
p130
V19
p131
sVPartOfSpeech
p132
VNNS
p133
sVLemma
p134
Vmarathon
p135
saa(lp136
Vand
p137
a(dp138
VNamedEntityTag
p139
g91
sVCharacterOffsetEnd
p140
V32
p141
sVCharacterOffsetBegin
p142
V29
p143
sVPartOfSpeech
p144
VCC
p145
sVLemma
p146
Vand
p147
saa(lp148
Vkeeps
p149
a(dp150
VNamedEntityTag
p151
g91
sVCharacterOffsetEnd
p152
V38
p153
sVCharacterOffsetBegin
p154
V33
p155
sVPartOfSpeech
p156
VVBZ
p157
sVLemma
p158
Vkeep
p159
saa(lp160
Vtrack
p161
a(dp162
VNamedEntityTag
p163
g91
sVCharacterOffsetEnd
p164
V44
p165
sVCharacterOffsetBegin
p166
V39
p167
sVPartOfSpeech
p168
VNN
p169
sVLemma
p170
Vtrack
p171
saa(lp172
Vof
p173
a(dp174
VNamedEntityTag
p175
g91
sVCharacterOffsetEnd
p176
V47
p177
sVCharacterOffsetBegin
p178
V45
p179
sVPartOfSpeech
p180
VIN
p181
sVLemma
p182
Vof
p183
saa(lp184
Vall
p185
a(dp186
VNamedEntityTag
p187
g91
sVCharacterOffsetEnd
p188
V51
p189
sVCharacterOffsetBegin
p190
V48
p191
sVPartOfSpeech
p192
VDT
p193
sVLemma
p194
Vall
p195
saa(lp196
Vof
p197
a(dp198
VNamedEntityTag
p199
g91
sVCharacterOffsetEnd
p200
V54
p201
sVCharacterOffsetBegin
p202
V52
p203
sVPartOfSpeech
p204
VIN
p205
sVLemma
p206
Vof
p207
saa(lp208
Vhis
p209
a(dp210
VNamedEntityTag
p211
g91
sVCharacterOffsetEnd
p212
V58
p213
sVCharacterOffsetBegin
p214
V55
p215
sVPartOfSpeech
p216
VPRP$
p217
sVLemma
p218
Vhe
p219
saa(lp220
Vfinishing
p221
a(dp222
VNamedEntityTag
p223
g91
sVCharacterOffsetEnd
p224
V68
p225
sVCharacterOffsetBegin
p226
V59
p227
sVPartOfSpeech
p228
VVBG
p229
sVLemma
p230
Vfinish
p231
saa(lp232
Vtimes
p233
a(dp234
VNamedEntityTag
p235
g91
sVCharacterOffsetEnd
p236
V74
p237
sVCharacterOffsetBegin
p238
V69
p239
sVPartOfSpeech
p240
VNNS
p241
sVLemma
p242
Vtime
p243
saa(lp244
V.
p245
a(dp246
VNamedEntityTag
p247
g91
sVCharacterOffsetEnd
p248
V76
p249
sVCharacterOffsetBegin
p250
V75
p251
sVPartOfSpeech
p252
g245
sVLemma
p253
g245
saasVindexeddependencies
p254
(lp255
(lp256
Vroot
p257
aVROOT-0
p258
aVrun-3
p259
aa(lp260
Vnsubj
p261
aVrun-3
p262
aVErik-1
p263
aa(lp264
Vaux
p265
aVrun-3
p266
aVhas-2
p267
aa(lp268
Vamod
p269
aVmarathons-5
p270
aVmany-4
p271
aa(lp272
Vdobj
p273
aVrun-3
p274
aVmarathons-5
p275
aa(lp276
Vconj_and
p277
aVrun-3
p278
aVkeeps-7
p279
aa(lp280
Vdobj
p281
aVkeeps-7
p282
aVtrack-8
p283
aa(lp284
Vprep_of
p285
aVtrack-8
p286
aVall-10
p287
aa(lp288
Vposs
p289
aVtimes-14
p290
aVhis-12
p291
aa(lp292
Vamod
p293
aVtimes-14
p294
aVfinishing-13
p295
aa(lp296
Vprep_of
p297
aVall-10
p298
aVtimes-14
p299
aasa(dp300
Vparsetree
p301
V(ROOT (S (PP (IN At) (NP (DT a) (NN marathon))) (NP-TMP (JJ last) (NN month)) (, ,) (NP (PRP he)) (VP (VBD finished) (PP (IN in) (NP (CD 230) (NNS minutes)))) (. .)))
p302
sVtext
p303
VAt a marathon last month , he finished in 230 minutes .
p304
sVdependencies
p305
(lp306
(lp307
Vroot
p308
aVROOT
p309
aVfinished
p310
aa(lp311
Vdet
p312
aVmarathon
p313
aVa
p314
aa(lp315
Vprep_at
p316
aVfinished
p317
aVmarathon
p318
aa(lp319
Vamod
p320
aVmonth
p321
aVlast
p322
aa(lp323
Vtmod
p324
aVfinished
p325
aVmonth
p326
aa(lp327
Vnsubj
p328
aVfinished
p329
aVhe
p330
aa(lp331
Vnum
p332
aVminutes
p333
aV230
p334
aa(lp335
Vprep_in
p336
aVfinished
p337
aVminutes
p338
aasVwords
p339
(lp340
(lp341
VAt
p342
a(dp343
VNamedEntityTag
p344
g91
sVCharacterOffsetEnd
p345
V79
p346
sVCharacterOffsetBegin
p347
V77
p348
sVPartOfSpeech
p349
VIN
p350
sVLemma
p351
Vat
p352
saa(lp353
g314
a(dp354
VNamedEntityTag
p355
g91
sVCharacterOffsetEnd
p356
V81
p357
sVCharacterOffsetBegin
p358
V80
p359
sVPartOfSpeech
p360
VDT
p361
sVLemma
p362
g314
saa(lp363
Vmarathon
p364
a(dp365
VNamedEntityTag
p366
g91
sVCharacterOffsetEnd
p367
V90
p368
sVCharacterOffsetBegin
p369
V82
p370
sVPartOfSpeech
p371
VNN
p372
sVLemma
p373
Vmarathon
p374
saa(lp375
Vlast
p376
a(dp377
VNormalizedNamedEntityTag
p378
VTHIS
p379
sVTimex
p380
V<TIMEX3 alt_value="THIS P1M OFFSET P-1M" anchorTimeID="t2" temporalFunction="true" tid="t1" type="DATE" valueFromFunction="tf0">last month</TIMEX3>
p381
sVLemma
p382
Vlast
p383
sVCharacterOffsetEnd
p384
V95
p385
sVPartOfSpeech
p386
VJJ
p387
sVCharacterOffsetBegin
p388
V91
p389
sVNamedEntityTag
p390
VDATE
p391
saa(lp392
Vmonth
p393
a(dp394
VNormalizedNamedEntityTag
p395
VTHIS
p396
sVTimex
p397
V<TIMEX3 alt_value="THIS P1M OFFSET P-1M" anchorTimeID="t2" temporalFunction="true" tid="t1" type="DATE" valueFromFunction="tf0">last month</TIMEX3>
p398
sVLemma
p399
Vmonth
p400
sVCharacterOffsetEnd
p401
V101
p402
sVPartOfSpeech
p403
VNN
p404
sVCharacterOffsetBegin
p405
V96
p406
sVNamedEntityTag
p407
VDATE
p408
saa(lp409
V,
p410
a(dp411
VNamedEntityTag
p412
g91
sVCharacterOffsetEnd
p413
V103
p414
sVCharacterOffsetBegin
p415
V102
p416
sVPartOfSpeech
p417
g410
sVLemma
p418
g410
saa(lp419
Vhe
p420
a(dp421
VNamedEntityTag
p422
g91
sVCharacterOffsetEnd
p423
V106
p424
sVCharacterOffsetBegin
p425
V104
p426
sVPartOfSpeech
p427
VPRP
p428
sVLemma
p429
Vhe
p430
saa(lp431
Vfinished
p432
a(dp433
VNamedEntityTag
p434
g91
sVCharacterOffsetEnd
p435
V115
p436
sVCharacterOffsetBegin
p437
V107
p438
sVPartOfSpeech
p439
VVBD
p440
sVLemma
p441
Vfinish
p442
saa(lp443
Vin
p444
a(dp445
VNamedEntityTag
p446
g91
sVCharacterOffsetEnd
p447
V118
p448
sVCharacterOffsetBegin
p449
V116
p450
sVPartOfSpeech
p451
VIN
p452
sVLemma
p453
Vin
p454
saa(lp455
V230
p456
a(dp457
VNormalizedNamedEntityTag
p458
VPT230M
p459
sVTimex
p460
V<TIMEX3 tid="t3" type="DURATION" value="PT230M">230 minutes</TIMEX3>
p461
sVLemma
p462
V230
p463
sVCharacterOffsetEnd
p464
V122
p465
sVPartOfSpeech
p466
VCD
p467
sVCharacterOffsetBegin
p468
V119
p469
sVNamedEntityTag
p470
VDURATION
p471
saa(lp472
Vminutes
p473
a(dp474
VNormalizedNamedEntityTag
p475
VPT230M
p476
sVTimex
p477
V<TIMEX3 tid="t3" type="DURATION" value="PT230M">230 minutes</TIMEX3>
p478
sVLemma
p479
Vminute
p480
sVCharacterOffsetEnd
p481
V130
p482
sVPartOfSpeech
p483
VNNS
p484
sVCharacterOffsetBegin
p485
V123
p486
sVNamedEntityTag
p487
VDURATION
p488
saa(lp489
g245
a(dp490
VNamedEntityTag
p491
g91
sVCharacterOffsetEnd
p492
V132
p493
sVCharacterOffsetBegin
p494
V131
p495
sVPartOfSpeech
p496
g245
sVLemma
p497
g245
saasVindexeddependencies
p498
(lp499
(lp500
Vroot
p501
aVROOT-0
p502
aVfinished-8
p503
aa(lp504
Vdet
p505
aVmarathon-3
p506
aVa-2
p507
aa(lp508
Vprep_at
p509
aVfinished-8
p510
aVmarathon-3
p511
aa(lp512
Vamod
p513
aVmonth-5
p514
aVlast-4
p515
aa(lp516
Vtmod
p517
aVfinished-8
p518
aVmonth-5
p519
aa(lp520
Vnsubj
p521
aVfinished-8
p522
aVhe-7
p523
aa(lp524
Vnum
p525
aVminutes-11
p526
aV230-10
p527
aa(lp528
Vprep_in
p529
aVfinished-8
p530
aVminutes-11
p531
aasa(dp532
Vparsetree
p533
V(ROOT (S (NP-TMP (DT The) (JJ other) (NN day)) (, ,) (NP (PRP he)) (VP (VP (VBD ran) (NP (DT another) (NN marathon))) (CC and) (VP (VBD finished) (PP (IN with) (NP (NP (DT a) (NN time)) (PP (IN of) (NP (CD 276) (NNS minutes))))))) (. .)))
p534
sVtext
p535
VThe other day , he ran another marathon and finished with a time of 276 minutes .
p536
sVdependencies
p537
(lp538
(lp539
Vroot
p540
aVROOT
p541
aVran
p542
aa(lp543
Vdet
p544
aVday
p545
aVThe
p546
aa(lp547
Vamod
p548
aVday
p549
aVother
p550
aa(lp551
Vtmod
p552
aVran
p553
aVday
p554
aa(lp555
Vnsubj
p556
aVran
p557
aVhe
p558
aa(lp559
Vdet
p560
aVmarathon
p561
aVanother
p562
aa(lp563
Vdobj
p564
aVran
p565
aVmarathon
p566
aa(lp567
Vconj_and
p568
aVran
p569
aVfinished
p570
aa(lp571
Vdet
p572
aVtime
p573
ag314
aa(lp574
Vprep_with
p575
aVfinished
p576
aVtime
p577
aa(lp578
Vnum
p579
aVminutes
p580
aV276
p581
aa(lp582
Vprep_of
p583
aVtime
p584
aVminutes
p585
aasVwords
p586
(lp587
(lp588
VThe
p589
a(dp590
VNormalizedNamedEntityTag
p591
VTHIS
p592
sVTimex
p593
V<TIMEX3 alt_value="THIS P1D" anchorTimeID="t0" temporalFunction="true" tid="t4" type="DATE" valueFromFunction="tf1">The other day</TIMEX3>
p594
sVLemma
p595
Vthe
p596
sVCharacterOffsetEnd
p597
V136
p598
sVPartOfSpeech
p599
VDT
p600
sVCharacterOffsetBegin
p601
V133
p602
sVNamedEntityTag
p603
VDATE
p604
saa(lp605
Vother
p606
a(dp607
VNormalizedNamedEntityTag
p608
VTHIS
p609
sVTimex
p610
V<TIMEX3 alt_value="THIS P1D" anchorTimeID="t0" temporalFunction="true" tid="t4" type="DATE" valueFromFunction="tf1">The other day</TIMEX3>
p611
sVLemma
p612
Vother
p613
sVCharacterOffsetEnd
p614
V142
p615
sVPartOfSpeech
p616
VJJ
p617
sVCharacterOffsetBegin
p618
V137
p619
sVNamedEntityTag
p620
VDATE
p621
saa(lp622
Vday
p623
a(dp624
VNormalizedNamedEntityTag
p625
VTHIS
p626
sVTimex
p627
V<TIMEX3 alt_value="THIS P1D" anchorTimeID="t0" temporalFunction="true" tid="t4" type="DATE" valueFromFunction="tf1">The other day</TIMEX3>
p628
sVLemma
p629
Vday
p630
sVCharacterOffsetEnd
p631
V146
p632
sVPartOfSpeech
p633
VNN
p634
sVCharacterOffsetBegin
p635
V143
p636
sVNamedEntityTag
p637
VDATE
p638
saa(lp639
g410
a(dp640
VNamedEntityTag
p641
g91
sVCharacterOffsetEnd
p642
V148
p643
sVCharacterOffsetBegin
p644
V147
p645
sVPartOfSpeech
p646
g410
sVLemma
p647
g410
saa(lp648
Vhe
p649
a(dp650
VNamedEntityTag
p651
g91
sVCharacterOffsetEnd
p652
V151
p653
sVCharacterOffsetBegin
p654
V149
p655
sVPartOfSpeech
p656
VPRP
p657
sVLemma
p658
Vhe
p659
saa(lp660
Vran
p661
a(dp662
VNamedEntityTag
p663
g91
sVCharacterOffsetEnd
p664
V155
p665
sVCharacterOffsetBegin
p666
V152
p667
sVPartOfSpeech
p668
VVBD
p669
sVLemma
p670
Vrun
p671
saa(lp672
Vanother
p673
a(dp674
VNamedEntityTag
p675
g91
sVCharacterOffsetEnd
p676
V163
p677
sVCharacterOffsetBegin
p678
V156
p679
sVPartOfSpeech
p680
VDT
p681
sVLemma
p682
Vanother
p683
saa(lp684
Vmarathon
p685
a(dp686
VNamedEntityTag
p687
g91
sVCharacterOffsetEnd
p688
V172
p689
sVCharacterOffsetBegin
p690
V164
p691
sVPartOfSpeech
p692
VNN
p693
sVLemma
p694
Vmarathon
p695
saa(lp696
Vand
p697
a(dp698
VNamedEntityTag
p699
g91
sVCharacterOffsetEnd
p700
V176
p701
sVCharacterOffsetBegin
p702
V173
p703
sVPartOfSpeech
p704
VCC
p705
sVLemma
p706
Vand
p707
saa(lp708
Vfinished
p709
a(dp710
VNamedEntityTag
p711
g91
sVCharacterOffsetEnd
p712
V185
p713
sVCharacterOffsetBegin
p714
V177
p715
sVPartOfSpeech
p716
VVBD
p717
sVLemma
p718
Vfinish
p719
saa(lp720
Vwith
p721
a(dp722
VNamedEntityTag
p723
g91
sVCharacterOffsetEnd
p724
V190
p725
sVCharacterOffsetBegin
p726
V186
p727
sVPartOfSpeech
p728
VIN
p729
sVLemma
p730
Vwith
p731
saa(lp732
g314
a(dp733
VNamedEntityTag
p734
g91
sVCharacterOffsetEnd
p735
V192
p736
sVCharacterOffsetBegin
p737
V191
p738
sVPartOfSpeech
p739
VDT
p740
sVLemma
p741
g314
saa(lp742
Vtime
p743
a(dp744
VNamedEntityTag
p745
g91
sVCharacterOffsetEnd
p746
V197
p747
sVCharacterOffsetBegin
p748
V193
p749
sVPartOfSpeech
p750
VNN
p751
sVLemma
p752
Vtime
p753
saa(lp754
Vof
p755
a(dp756
VNamedEntityTag
p757
g91
sVCharacterOffsetEnd
p758
V200
p759
sVCharacterOffsetBegin
p760
V198
p761
sVPartOfSpeech
p762
VIN
p763
sVLemma
p764
Vof
p765
saa(lp766
V276
p767
a(dp768
VNormalizedNamedEntityTag
p769
VPT276M
p770
sVTimex
p771
V<TIMEX3 tid="t5" type="DURATION" value="PT276M">276 minutes</TIMEX3>
p772
sVLemma
p773
V276
p774
sVCharacterOffsetEnd
p775
V204
p776
sVPartOfSpeech
p777
VCD
p778
sVCharacterOffsetBegin
p779
V201
p780
sVNamedEntityTag
p781
VDURATION
p782
saa(lp783
Vminutes
p784
a(dp785
VNormalizedNamedEntityTag
p786
VPT276M
p787
sVTimex
p788
V<TIMEX3 tid="t5" type="DURATION" value="PT276M">276 minutes</TIMEX3>
p789
sVLemma
p790
Vminute
p791
sVCharacterOffsetEnd
p792
V212
p793
sVPartOfSpeech
p794
VNNS
p795
sVCharacterOffsetBegin
p796
V205
p797
sVNamedEntityTag
p798
VDURATION
p799
saa(lp800
g245
a(dp801
VNamedEntityTag
p802
g91
sVCharacterOffsetEnd
p803
V214
p804
sVCharacterOffsetBegin
p805
V213
p806
sVPartOfSpeech
p807
g245
sVLemma
p808
g245
saasVindexeddependencies
p809
(lp810
(lp811
Vroot
p812
aVROOT-0
p813
aVran-6
p814
aa(lp815
Vdet
p816
aVday-3
p817
aVThe-1
p818
aa(lp819
Vamod
p820
aVday-3
p821
aVother-2
p822
aa(lp823
Vtmod
p824
aVran-6
p825
aVday-3
p826
aa(lp827
Vnsubj
p828
aVran-6
p829
aVhe-5
p830
aa(lp831
Vdet
p832
aVmarathon-8
p833
aVanother-7
p834
aa(lp835
Vdobj
p836
aVran-6
p837
aVmarathon-8
p838
aa(lp839
Vconj_and
p840
aVran-6
p841
aVfinished-10
p842
aa(lp843
Vdet
p844
aVtime-13
p845
aVa-12
p846
aa(lp847
Vprep_with
p848
aVfinished-10
p849
aVtime-13
p850
aa(lp851
Vnum
p852
aVminutes-16
p853
aV276-15
p854
aa(lp855
Vprep_of
p856
aVtime-13
p857
aVminutes-16
p858
aasa(dp859
Vparsetree
p860
V(ROOT (SBARQ (WHNP (WP What)) (SQ (VBZ is) (NP (NP (DT the) (NNS times)) (PP (IN of) (NP (NP (NN increase)) (PP (IN in) (NP (NP (NNP Erik) (POS 's)) (NN marathon) (NN time))))))) (. ?)))
p861
sVtext
p862
VWhat is the times of increase in Erik's marathon time ?
p863
sVdependencies
p864
(lp865
(lp866
Vroot
p867
aVROOT
p868
aVWhat
p869
aa(lp870
Vcop
p871
aVWhat
p872
aVis
p873
aa(lp874
Vdet
p875
aVtimes
p876
aVthe
p877
aa(lp878
Vnsubj
p879
aVWhat
p880
aVtimes
p881
aa(lp882
Vprep_of
p883
aVtimes
p884
aVincrease
p885
aa(lp886
Vposs
p887
aVtime
p888
aVErik
p889
aa(lp890
Vnn
p891
aVtime
p892
aVmarathon
p893
aa(lp894
Vprep_in
p895
aVincrease
p896
aVtime
p897
aasVwords
p898
(lp899
(lp900
VWhat
p901
a(dp902
VNamedEntityTag
p903
g91
sVCharacterOffsetEnd
p904
V219
p905
sVCharacterOffsetBegin
p906
V215
p907
sVPartOfSpeech
p908
VWP
p909
sVLemma
p910
Vwhat
p911
saa(lp912
Vis
p913
a(dp914
VNamedEntityTag
p915
g91
sVCharacterOffsetEnd
p916
V222
p917
sVCharacterOffsetBegin
p918
V220
p919
sVPartOfSpeech
p920
VVBZ
p921
sVLemma
p922
Vbe
p923
saa(lp924
Vthe
p925
a(dp926
VNamedEntityTag
p927
g91
sVCharacterOffsetEnd
p928
V226
p929
sVCharacterOffsetBegin
p930
V223
p931
sVPartOfSpeech
p932
VDT
p933
sVLemma
p934
Vthe
p935
saa(lp936
Vtimes
p937
a(dp938
VNamedEntityTag
p939
g91
sVCharacterOffsetEnd
p940
V232
p941
sVCharacterOffsetBegin
p942
V227
p943
sVPartOfSpeech
p944
VNNS
p945
sVLemma
p946
Vtime
p947
saa(lp948
Vof
p949
a(dp950
VNamedEntityTag
p951
g91
sVCharacterOffsetEnd
p952
V235
p953
sVCharacterOffsetBegin
p954
V233
p955
sVPartOfSpeech
p956
VIN
p957
sVLemma
p958
Vof
p959
saa(lp960
Vincrease
p961
a(dp962
VNamedEntityTag
p963
g91
sVCharacterOffsetEnd
p964
V244
p965
sVCharacterOffsetBegin
p966
V236
p967
sVPartOfSpeech
p968
VNN
p969
sVLemma
p970
Vincrease
p971
saa(lp972
Vin
p973
a(dp974
VNamedEntityTag
p975
g91
sVCharacterOffsetEnd
p976
V247
p977
sVCharacterOffsetBegin
p978
V245
p979
sVPartOfSpeech
p980
VIN
p981
sVLemma
p982
Vin
p983
saa(lp984
VErik
p985
a(dp986
VNamedEntityTag
p987
VPERSON
p988
sVCharacterOffsetEnd
p989
V252
p990
sVCharacterOffsetBegin
p991
V248
p992
sVPartOfSpeech
p993
VNNP
p994
sVLemma
p995
VErik
p996
saa(lp997
V's
p998
a(dp999
VNamedEntityTag
p1000
g91
sVCharacterOffsetEnd
p1001
V254
p1002
sVCharacterOffsetBegin
p1003
V252
p1004
sVPartOfSpeech
p1005
VPOS
p1006
sVLemma
p1007
V's
p1008
saa(lp1009
Vmarathon
p1010
a(dp1011
VNamedEntityTag
p1012
g91
sVCharacterOffsetEnd
p1013
V263
p1014
sVCharacterOffsetBegin
p1015
V255
p1016
sVPartOfSpeech
p1017
VNN
p1018
sVLemma
p1019
Vmarathon
p1020
saa(lp1021
Vtime
p1022
a(dp1023
VNamedEntityTag
p1024
g91
sVCharacterOffsetEnd
p1025
V268
p1026
sVCharacterOffsetBegin
p1027
V264
p1028
sVPartOfSpeech
p1029
VNN
p1030
sVLemma
p1031
Vtime
p1032
saa(lp1033
V?
p1034
a(dp1035
VNamedEntityTag
p1036
g91
sVCharacterOffsetEnd
p1037
V270
p1038
sVCharacterOffsetBegin
p1039
V269
p1040
sVPartOfSpeech
p1041
g245
sVLemma
p1042
g1034
saasVindexeddependencies
p1043
(lp1044
(lp1045
Vroot
p1046
aVROOT-0
p1047
aVWhat-1
p1048
aa(lp1049
Vcop
p1050
aVWhat-1
p1051
aVis-2
p1052
aa(lp1053
Vdet
p1054
aVtimes-4
p1055
aVthe-3
p1056
aa(lp1057
Vnsubj
p1058
aVWhat-1
p1059
aVtimes-4
p1060
aa(lp1061
Vprep_of
p1062
aVtimes-4
p1063
aVincrease-6
p1064
aa(lp1065
Vposs
p1066
aVtime-11
p1067
aVErik-8
p1068
aa(lp1069
Vnn
p1070
aVtime-11
p1071
aVmarathon-10
p1072
aa(lp1073
Vprep_in
p1074
aVincrease-6
p1075
aVtime-11
p1076
aasas.