(dp0
Vcoref
p1
(lp2
(lp3
(lp4
(lp5
Vher
p6
aI0
aI10
aI10
aI11
aa(lp7
VTiffany
p8
aI0
aI0
aI0
aI1
aaa(lp9
(lp10
Vshe
p11
aI1
aI5
aI5
aI6
aa(lp12
VTiffany
p13
aI0
aI0
aI0
aI1
aaa(lp14
(lp15
Vher
p16
aI2
aI2
aI2
aI3
aa(lp17
VTiffany
p18
aI0
aI0
aI0
aI1
aaaasVsentences
p19
(lp20
(dp21
Vparsetree
p22
V(ROOT (S (S (NP (NNP Tiffany)) (VP (VBZ has) (NP (NP (NN breakfast)) (PP (IN at) (NP (DT a) (NN restaurant)))))) (CC and) (S (NP (NP (DT the) (NN cost)) (PP (IN of) (NP (PRP$ her) (NN meal)))) (VP (VBZ is) (NP ($ $) (CD 27.00)))) (. .)))
p23
sVtext
p24
VTiffany has breakfast at a restaurant and the cost of her meal is $27.00 .
p25
sVdependencies
p26
(lp27
(lp28
Vroot
p29
aVROOT
p30
aVhas
p31
aa(lp32
Vnsubj
p33
aVhas
p34
aVTiffany
p35
aa(lp36
Vdobj
p37
aVhas
p38
aVbreakfast
p39
aa(lp40
Vdet
p41
aVrestaurant
p42
aVa
p43
aa(lp44
Vprep_at
p45
aVbreakfast
p46
aVrestaurant
p47
aa(lp48
Vdet
p49
aVcost
p50
aVthe
p51
aa(lp52
Vnsubj
p53
aV$
p54
aVcost
p55
aa(lp56
Vposs
p57
aVmeal
p58
aVher
p59
aa(lp60
Vprep_of
p61
aVcost
p62
aVmeal
p63
aa(lp64
Vcop
p65
ag54
aVis
p66
aa(lp67
Vconj_and
p68
aVhas
p69
ag54
aa(lp70
Vnum
p71
ag54
aV27.00
p72
aasVwords
p73
(lp74
(lp75
VTiffany
p76
a(dp77
VNamedEntityTag
p78
VPERSON
p79
sVCharacterOffsetEnd
p80
V8
p81
sVCharacterOffsetBegin
p82
V1
p83
sVPartOfSpeech
p84
VNNP
p85
sVLemma
p86
VTiffany
p87
saa(lp88
Vhas
p89
a(dp90
VNamedEntityTag
p91
VO
p92
sVCharacterOffsetEnd
p93
V12
p94
sVCharacterOffsetBegin
p95
V9
p96
sVPartOfSpeech
p97
VVBZ
p98
sVLemma
p99
Vhave
p100
saa(lp101
Vbreakfast
p102
a(dp103
VNamedEntityTag
p104
g92
sVCharacterOffsetEnd
p105
V22
p106
sVCharacterOffsetBegin
p107
V13
p108
sVPartOfSpeech
p109
VNN
p110
sVLemma
p111
Vbreakfast
p112
saa(lp113
Vat
p114
a(dp115
VNamedEntityTag
p116
g92
sVCharacterOffsetEnd
p117
V25
p118
sVCharacterOffsetBegin
p119
V23
p120
sVPartOfSpeech
p121
VIN
p122
sVLemma
p123
Vat
p124
saa(lp125
g43
a(dp126
VNamedEntityTag
p127
g92
sVCharacterOffsetEnd
p128
V27
p129
sVCharacterOffsetBegin
p130
V26
p131
sVPartOfSpeech
p132
VDT
p133
sVLemma
p134
g43
saa(lp135
Vrestaurant
p136
a(dp137
VNamedEntityTag
p138
g92
sVCharacterOffsetEnd
p139
V38
p140
sVCharacterOffsetBegin
p141
V28
p142
sVPartOfSpeech
p143
VNN
p144
sVLemma
p145
Vrestaurant
p146
saa(lp147
Vand
p148
a(dp149
VNamedEntityTag
p150
g92
sVCharacterOffsetEnd
p151
V42
p152
sVCharacterOffsetBegin
p153
V39
p154
sVPartOfSpeech
p155
VCC
p156
sVLemma
p157
Vand
p158
saa(lp159
Vthe
p160
a(dp161
VNamedEntityTag
p162
g92
sVCharacterOffsetEnd
p163
V46
p164
sVCharacterOffsetBegin
p165
V43
p166
sVPartOfSpeech
p167
VDT
p168
sVLemma
p169
Vthe
p170
saa(lp171
Vcost
p172
a(dp173
VNamedEntityTag
p174
g92
sVCharacterOffsetEnd
p175
V51
p176
sVCharacterOffsetBegin
p177
V47
p178
sVPartOfSpeech
p179
VNN
p180
sVLemma
p181
Vcost
p182
saa(lp183
Vof
p184
a(dp185
VNamedEntityTag
p186
g92
sVCharacterOffsetEnd
p187
V54
p188
sVCharacterOffsetBegin
p189
V52
p190
sVPartOfSpeech
p191
VIN
p192
sVLemma
p193
Vof
p194
saa(lp195
Vher
p196
a(dp197
VNamedEntityTag
p198
g92
sVCharacterOffsetEnd
p199
V58
p200
sVCharacterOffsetBegin
p201
V55
p202
sVPartOfSpeech
p203
VPRP$
p204
sVLemma
p205
Vshe
p206
saa(lp207
Vmeal
p208
a(dp209
VNamedEntityTag
p210
g92
sVCharacterOffsetEnd
p211
V63
p212
sVCharacterOffsetBegin
p213
V59
p214
sVPartOfSpeech
p215
VNN
p216
sVLemma
p217
Vmeal
p218
saa(lp219
Vis
p220
a(dp221
VNamedEntityTag
p222
g92
sVCharacterOffsetEnd
p223
V66
p224
sVCharacterOffsetBegin
p225
V64
p226
sVPartOfSpeech
p227
VVBZ
p228
sVLemma
p229
Vbe
p230
saa(lp231
g54
a(dp232
VNormalizedNamedEntityTag
p233
V$27.0
p234
sVLemma
p235
g54
sVCharacterOffsetEnd
p236
V68
p237
sVPartOfSpeech
p238
g54
sVCharacterOffsetBegin
p239
V67
p240
sVNamedEntityTag
p241
VMONEY
p242
saa(lp243
V27.00
p244
a(dp245
VNormalizedNamedEntityTag
p246
V$27.0
p247
sVLemma
p248
V27.00
p249
sVCharacterOffsetEnd
p250
V73
p251
sVPartOfSpeech
p252
VCD
p253
sVCharacterOffsetBegin
p254
V68
p255
sVNamedEntityTag
p256
VMONEY
p257
saa(lp258
V.
p259
a(dp260
VNamedEntityTag
p261
g92
sVCharacterOffsetEnd
p262
V75
p263
sVCharacterOffsetBegin
p264
V74
p265
sVPartOfSpeech
p266
g259
sVLemma
p267
g259
saasVindexeddependencies
p268
(lp269
(lp270
Vroot
p271
aVROOT-0
p272
aVhas-2
p273
aa(lp274
Vnsubj
p275
aVhas-2
p276
aVTiffany-1
p277
aa(lp278
Vdobj
p279
aVhas-2
p280
aVbreakfast-3
p281
aa(lp282
Vdet
p283
aVrestaurant-6
p284
aVa-5
p285
aa(lp286
Vprep_at
p287
aVbreakfast-3
p288
aVrestaurant-6
p289
aa(lp290
Vdet
p291
aVcost-9
p292
aVthe-8
p293
aa(lp294
Vnsubj
p295
aV$-14
p296
aVcost-9
p297
aa(lp298
Vposs
p299
aVmeal-12
p300
aVher-11
p301
aa(lp302
Vprep_of
p303
aVcost-9
p304
aVmeal-12
p305
aa(lp306
Vcop
p307
aV$-14
p308
aVis-13
p309
aa(lp310
Vconj_and
p311
aVhas-2
p312
aV$-14
p313
aa(lp314
Vnum
p315
aV$-14
p316
aV27.00-15
p317
aasa(dp318
Vparsetree
p319
V(ROOT (S (PP (IN Because) (PP (IN of) (NP (DT the) (NN service)))) (, ,) (NP (PRP she)) (VP (VBZ wants) (S (VP (TO to) (VP (VB leave) (NP (DT a) (ADJP (QP (CD 0.1) (NNS times))) (NN tip)))))) (. .)))
p320
sVtext
p321
VBecause of the service , she wants to leave a 0.1 times tip .
p322
sVdependencies
p323
(lp324
(lp325
Vroot
p326
aVROOT
p327
aVwants
p328
aa(lp329
Vprepc_because_of
p330
aVwants
p331
aVof
p332
aa(lp333
Vdet
p334
aVservice
p335
aVthe
p336
aa(lp337
Vpobj
p338
aVwants
p339
aVservice
p340
aa(lp341
Vnsubj
p342
aVwants
p343
aVshe
p344
aa(lp345
Vaux
p346
aVleave
p347
aVto
p348
aa(lp349
Vxcomp
p350
aVwants
p351
aVleave
p352
aa(lp353
Vdet
p354
aVtip
p355
ag43
aa(lp356
Vnumber
p357
aVtimes
p358
aV0.1
p359
aa(lp360
Vnum
p361
aVtip
p362
aVtimes
p363
aa(lp364
Vdobj
p365
aVleave
p366
aVtip
p367
aasVwords
p368
(lp369
(lp370
VBecause
p371
a(dp372
VNamedEntityTag
p373
g92
sVCharacterOffsetEnd
p374
V83
p375
sVCharacterOffsetBegin
p376
V76
p377
sVPartOfSpeech
p378
VIN
p379
sVLemma
p380
Vbecause
p381
saa(lp382
Vof
p383
a(dp384
VNamedEntityTag
p385
g92
sVCharacterOffsetEnd
p386
V86
p387
sVCharacterOffsetBegin
p388
V84
p389
sVPartOfSpeech
p390
VIN
p391
sVLemma
p392
Vof
p393
saa(lp394
Vthe
p395
a(dp396
VNamedEntityTag
p397
g92
sVCharacterOffsetEnd
p398
V90
p399
sVCharacterOffsetBegin
p400
V87
p401
sVPartOfSpeech
p402
VDT
p403
sVLemma
p404
Vthe
p405
saa(lp406
Vservice
p407
a(dp408
VNamedEntityTag
p409
g92
sVCharacterOffsetEnd
p410
V98
p411
sVCharacterOffsetBegin
p412
V91
p413
sVPartOfSpeech
p414
VNN
p415
sVLemma
p416
Vservice
p417
saa(lp418
V,
p419
a(dp420
VNamedEntityTag
p421
g92
sVCharacterOffsetEnd
p422
V100
p423
sVCharacterOffsetBegin
p424
V99
p425
sVPartOfSpeech
p426
g419
sVLemma
p427
g419
saa(lp428
Vshe
p429
a(dp430
VNamedEntityTag
p431
g92
sVCharacterOffsetEnd
p432
V104
p433
sVCharacterOffsetBegin
p434
V101
p435
sVPartOfSpeech
p436
VPRP
p437
sVLemma
p438
Vshe
p439
saa(lp440
Vwants
p441
a(dp442
VNamedEntityTag
p443
g92
sVCharacterOffsetEnd
p444
V110
p445
sVCharacterOffsetBegin
p446
V105
p447
sVPartOfSpeech
p448
VVBZ
p449
sVLemma
p450
Vwant
p451
saa(lp452
Vto
p453
a(dp454
VNamedEntityTag
p455
g92
sVCharacterOffsetEnd
p456
V113
p457
sVCharacterOffsetBegin
p458
V111
p459
sVPartOfSpeech
p460
VTO
p461
sVLemma
p462
Vto
p463
saa(lp464
Vleave
p465
a(dp466
VNamedEntityTag
p467
g92
sVCharacterOffsetEnd
p468
V119
p469
sVCharacterOffsetBegin
p470
V114
p471
sVPartOfSpeech
p472
VVB
p473
sVLemma
p474
Vleave
p475
saa(lp476
g43
a(dp477
VNamedEntityTag
p478
g92
sVCharacterOffsetEnd
p479
V121
p480
sVCharacterOffsetBegin
p481
V120
p482
sVPartOfSpeech
p483
VDT
p484
sVLemma
p485
g43
saa(lp486
V0.1
p487
a(dp488
VNormalizedNamedEntityTag
p489
V0.1
p490
sVLemma
p491
V0.1
p492
sVCharacterOffsetEnd
p493
V125
p494
sVPartOfSpeech
p495
VCD
p496
sVCharacterOffsetBegin
p497
V122
p498
sVNamedEntityTag
p499
VNUMBER
p500
saa(lp501
Vtimes
p502
a(dp503
VNamedEntityTag
p504
g92
sVCharacterOffsetEnd
p505
V131
p506
sVCharacterOffsetBegin
p507
V126
p508
sVPartOfSpeech
p509
VNNS
p510
sVLemma
p511
Vtime
p512
saa(lp513
Vtip
p514
a(dp515
VNamedEntityTag
p516
g92
sVCharacterOffsetEnd
p517
V135
p518
sVCharacterOffsetBegin
p519
V132
p520
sVPartOfSpeech
p521
VNN
p522
sVLemma
p523
Vtip
p524
saa(lp525
g259
a(dp526
VNamedEntityTag
p527
g92
sVCharacterOffsetEnd
p528
V137
p529
sVCharacterOffsetBegin
p530
V136
p531
sVPartOfSpeech
p532
g259
sVLemma
p533
g259
saasVindexeddependencies
p534
(lp535
(lp536
Vroot
p537
aVROOT-0
p538
aVwants-7
p539
aa(lp540
Vprepc_because_of
p541
aVwants-7
p542
aVof-2
p543
aa(lp544
Vdet
p545
aVservice-4
p546
aVthe-3
p547
aa(lp548
Vpobj
p549
aVwants-7
p550
aVservice-4
p551
aa(lp552
Vnsubj
p553
aVwants-7
p554
aVshe-6
p555
aa(lp556
Vaux
p557
aVleave-9
p558
aVto-8
p559
aa(lp560
Vxcomp
p561
aVwants-7
p562
aVleave-9
p563
aa(lp564
Vdet
p565
aVtip-13
p566
aVa-10
p567
aa(lp568
Vnumber
p569
aVtimes-12
p570
aV0.1-11
p571
aa(lp572
Vnum
p573
aVtip-13
p574
aVtimes-12
p575
aa(lp576
Vdobj
p577
aVleave-9
p578
aVtip-13
p579
aasa(dp580
Vparsetree
p581
V(ROOT (SBARQ (WHNP (WP What)) (SQ (VBZ is) (NP (NP (PRP$ her) (JJ total) (NN bill)) (PP (VBG including) (NP (NN tip))))) (. ?)))
p582
sVtext
p583
VWhat is her total bill including tip ?
p584
sVdependencies
p585
(lp586
(lp587
Vroot
p588
aVROOT
p589
aVWhat
p590
aa(lp591
Vcop
p592
aVWhat
p593
aVis
p594
aa(lp595
Vposs
p596
aVbill
p597
aVher
p598
aa(lp599
Vamod
p600
aVbill
p601
aVtotal
p602
aa(lp603
Vnsubj
p604
aVWhat
p605
aVbill
p606
aa(lp607
Vprep_including
p608
aVbill
p609
aVtip
p610
aasVwords
p611
(lp612
(lp613
VWhat
p614
a(dp615
VNamedEntityTag
p616
g92
sVCharacterOffsetEnd
p617
V142
p618
sVCharacterOffsetBegin
p619
V138
p620
sVPartOfSpeech
p621
VWP
p622
sVLemma
p623
Vwhat
p624
saa(lp625
Vis
p626
a(dp627
VNamedEntityTag
p628
g92
sVCharacterOffsetEnd
p629
V145
p630
sVCharacterOffsetBegin
p631
V143
p632
sVPartOfSpeech
p633
VVBZ
p634
sVLemma
p635
Vbe
p636
saa(lp637
Vher
p638
a(dp639
VNamedEntityTag
p640
g92
sVCharacterOffsetEnd
p641
V149
p642
sVCharacterOffsetBegin
p643
V146
p644
sVPartOfSpeech
p645
VPRP$
p646
sVLemma
p647
Vshe
p648
saa(lp649
Vtotal
p650
a(dp651
VNamedEntityTag
p652
g92
sVCharacterOffsetEnd
p653
V155
p654
sVCharacterOffsetBegin
p655
V150
p656
sVPartOfSpeech
p657
VJJ
p658
sVLemma
p659
Vtotal
p660
saa(lp661
Vbill
p662
a(dp663
VNamedEntityTag
p664
g92
sVCharacterOffsetEnd
p665
V160
p666
sVCharacterOffsetBegin
p667
V156
p668
sVPartOfSpeech
p669
VNN
p670
sVLemma
p671
Vbill
p672
saa(lp673
Vincluding
p674
a(dp675
VNamedEntityTag
p676
g92
sVCharacterOffsetEnd
p677
V170
p678
sVCharacterOffsetBegin
p679
V161
p680
sVPartOfSpeech
p681
VVBG
p682
sVLemma
p683
Vinclude
p684
saa(lp685
Vtip
p686
a(dp687
VNamedEntityTag
p688
g92
sVCharacterOffsetEnd
p689
V174
p690
sVCharacterOffsetBegin
p691
V171
p692
sVPartOfSpeech
p693
VNN
p694
sVLemma
p695
Vtip
p696
saa(lp697
V?
p698
a(dp699
VNamedEntityTag
p700
g92
sVCharacterOffsetEnd
p701
V176
p702
sVCharacterOffsetBegin
p703
V175
p704
sVPartOfSpeech
p705
g259
sVLemma
p706
g698
saasVindexeddependencies
p707
(lp708
(lp709
Vroot
p710
aVROOT-0
p711
aVWhat-1
p712
aa(lp713
Vcop
p714
aVWhat-1
p715
aVis-2
p716
aa(lp717
Vposs
p718
aVbill-5
p719
aVher-3
p720
aa(lp721
Vamod
p722
aVbill-5
p723
aVtotal-4
p724
aa(lp725
Vnsubj
p726
aVWhat-1
p727
aVbill-5
p728
aa(lp729
Vprep_including
p730
aVbill-5
p731
aVtip-7
p732
aasas.