(dp0
Vcoref
p1
(lp2
(lp3
(lp4
(lp5
VShe
p6
aI1
aI0
aI0
aI1
aa(lp7
VKatie
p8
aI0
aI5
aI5
aI6
aaa(lp9
(lp10
Vshe
p11
aI2
aI3
aI3
aI4
aa(lp12
VKatie
p13
aI0
aI5
aI5
aI6
aaa(lp14
(lp15
Vshe
p16
aI3
aI4
aI4
aI5
aa(lp17
VKatie
p18
aI0
aI5
aI5
aI6
aaaasVsentences
p19
(lp20
(dp21
Vparsetree
p22
V(ROOT (S (PP (IN For) (NP (DT the) (NN school) (S (VP (VB bake) (NP (NN sale)))))) (NP (NNP Katie)) (VP (VBD made) (NP (NNS pastries))) (. .)))
p23
sVtext
p24
VFor the school bake sale Katie made pastries .
p25
sVdependencies
p26
(lp27
(lp28
Vroot
p29
aVROOT
p30
aVmade
p31
aa(lp32
Vdet
p33
aVschool
p34
aVthe
p35
aa(lp36
Vprep_for
p37
aVmade
p38
aVschool
p39
aa(lp40
Vdep
p41
aVschool
p42
aVbake
p43
aa(lp44
Vdobj
p45
aVbake
p46
aVsale
p47
aa(lp48
Vnsubj
p49
aVmade
p50
aVKatie
p51
aa(lp52
Vdobj
p53
aVmade
p54
aVpastries
p55
aasVwords
p56
(lp57
(lp58
VFor
p59
a(dp60
VNamedEntityTag
p61
VO
p62
sVCharacterOffsetEnd
p63
V4
p64
sVCharacterOffsetBegin
p65
V1
p66
sVPartOfSpeech
p67
VIN
p68
sVLemma
p69
Vfor
p70
saa(lp71
Vthe
p72
a(dp73
VNamedEntityTag
p74
g62
sVCharacterOffsetEnd
p75
V8
p76
sVCharacterOffsetBegin
p77
V5
p78
sVPartOfSpeech
p79
VDT
p80
sVLemma
p81
Vthe
p82
saa(lp83
Vschool
p84
a(dp85
VNamedEntityTag
p86
g62
sVCharacterOffsetEnd
p87
V15
p88
sVCharacterOffsetBegin
p89
V9
p90
sVPartOfSpeech
p91
VNN
p92
sVLemma
p93
Vschool
p94
saa(lp95
Vbake
p96
a(dp97
VNamedEntityTag
p98
g62
sVCharacterOffsetEnd
p99
V20
p100
sVCharacterOffsetBegin
p101
V16
p102
sVPartOfSpeech
p103
VVB
p104
sVLemma
p105
Vbake
p106
saa(lp107
Vsale
p108
a(dp109
VNamedEntityTag
p110
g62
sVCharacterOffsetEnd
p111
V25
p112
sVCharacterOffsetBegin
p113
V21
p114
sVPartOfSpeech
p115
VNN
p116
sVLemma
p117
Vsale
p118
saa(lp119
VKatie
p120
a(dp121
VNamedEntityTag
p122
VPERSON
p123
sVCharacterOffsetEnd
p124
V31
p125
sVCharacterOffsetBegin
p126
V26
p127
sVPartOfSpeech
p128
VNNP
p129
sVLemma
p130
VKatie
p131
saa(lp132
Vmade
p133
a(dp134
VNamedEntityTag
p135
g62
sVCharacterOffsetEnd
p136
V36
p137
sVCharacterOffsetBegin
p138
V32
p139
sVPartOfSpeech
p140
VVBD
p141
sVLemma
p142
Vmake
p143
saa(lp144
Vpastries
p145
a(dp146
VNamedEntityTag
p147
g62
sVCharacterOffsetEnd
p148
V45
p149
sVCharacterOffsetBegin
p150
V37
p151
sVPartOfSpeech
p152
VNNS
p153
sVLemma
p154
Vpastry
p155
saa(lp156
V.
p157
a(dp158
VNamedEntityTag
p159
g62
sVCharacterOffsetEnd
p160
V47
p161
sVCharacterOffsetBegin
p162
V46
p163
sVPartOfSpeech
p164
g157
sVLemma
p165
g157
saasVindexeddependencies
p166
(lp167
(lp168
Vroot
p169
aVROOT-0
p170
aVmade-7
p171
aa(lp172
Vdet
p173
aVschool-3
p174
aVthe-2
p175
aa(lp176
Vprep_for
p177
aVmade-7
p178
aVschool-3
p179
aa(lp180
Vdep
p181
aVschool-3
p182
aVbake-4
p183
aa(lp184
Vdobj
p185
aVbake-4
p186
aVsale-5
p187
aa(lp188
Vnsubj
p189
aVmade-7
p190
aVKatie-6
p191
aa(lp192
Vdobj
p193
aVmade-7
p194
aVpastries-8
p195
aasa(dp196
Vparsetree
p197
V(ROOT (S (NP (PRP She)) (VP (JJ baked) (NP (NP (CD 7) (NNS cupcakes)) (CC and) (NP (CD 5) (NNS cookies)))) (. .)))
p198
sVtext
p199
VShe baked 7 cupcakes and 5 cookies .
p200
sVdependencies
p201
(lp202
(lp203
Vroot
p204
aVROOT
p205
aVbaked
p206
aa(lp207
Vnsubj
p208
aVbaked
p209
aVShe
p210
aa(lp211
Vnum
p212
aVcupcakes
p213
aV7
p214
aa(lp215
Vdobj
p216
aVbaked
p217
aVcupcakes
p218
aa(lp219
Vnum
p220
aVcookies
p221
ag78
aa(lp222
Vconj_and
p223
aVcupcakes
p224
aVcookies
p225
aasVwords
p226
(lp227
(lp228
VShe
p229
a(dp230
VNamedEntityTag
p231
g62
sVCharacterOffsetEnd
p232
V51
p233
sVCharacterOffsetBegin
p234
V48
p235
sVPartOfSpeech
p236
VPRP
p237
sVLemma
p238
Vshe
p239
saa(lp240
Vbaked
p241
a(dp242
VNamedEntityTag
p243
g62
sVCharacterOffsetEnd
p244
V57
p245
sVCharacterOffsetBegin
p246
V52
p247
sVPartOfSpeech
p248
VJJ
p249
sVLemma
p250
Vbaked
p251
saa(lp252
g214
a(dp253
VNormalizedNamedEntityTag
p254
V7.0
p255
sVLemma
p256
g214
sVCharacterOffsetEnd
p257
V59
p258
sVPartOfSpeech
p259
VCD
p260
sVCharacterOffsetBegin
p261
V58
p262
sVNamedEntityTag
p263
VNUMBER
p264
saa(lp265
Vcupcakes
p266
a(dp267
VNamedEntityTag
p268
g62
sVCharacterOffsetEnd
p269
V68
p270
sVCharacterOffsetBegin
p271
V60
p272
sVPartOfSpeech
p273
VNNS
p274
sVLemma
p275
Vcupcake
p276
saa(lp277
Vand
p278
a(dp279
VNamedEntityTag
p280
g62
sVCharacterOffsetEnd
p281
V72
p282
sVCharacterOffsetBegin
p283
V69
p284
sVPartOfSpeech
p285
VCC
p286
sVLemma
p287
Vand
p288
saa(lp289
g78
a(dp290
VNormalizedNamedEntityTag
p291
V5.0
p292
sVLemma
p293
g78
sVCharacterOffsetEnd
p294
V74
p295
sVPartOfSpeech
p296
VCD
p297
sVCharacterOffsetBegin
p298
V73
p299
sVNamedEntityTag
p300
VNUMBER
p301
saa(lp302
Vcookies
p303
a(dp304
VNamedEntityTag
p305
g62
sVCharacterOffsetEnd
p306
V82
p307
sVCharacterOffsetBegin
p308
V75
p309
sVPartOfSpeech
p310
VNNS
p311
sVLemma
p312
Vcookie
p313
saa(lp314
g157
a(dp315
VNamedEntityTag
p316
g62
sVCharacterOffsetEnd
p317
V84
p318
sVCharacterOffsetBegin
p319
V83
p320
sVPartOfSpeech
p321
g157
sVLemma
p322
g157
saasVindexeddependencies
p323
(lp324
(lp325
Vroot
p326
aVROOT-0
p327
aVbaked-2
p328
aa(lp329
Vnsubj
p330
aVbaked-2
p331
aVShe-1
p332
aa(lp333
Vnum
p334
aVcupcakes-4
p335
aV7-3
p336
aa(lp337
Vdobj
p338
aVbaked-2
p339
aVcupcakes-4
p340
aa(lp341
Vnum
p342
aVcookies-7
p343
aV5-6
p344
aa(lp345
Vconj_and
p346
aVcupcakes-4
p347
aVcookies-7
p348
aasa(dp349
Vparsetree
p350
V(ROOT (S (PP (IN After) (NP (DT the) (NN sale))) (NP (PRP she)) (VP (VBD had) (NP (CD 8)) (S (VP (TO to) (VP (VB take) (PRT (RP back)) (NP (NN home)))))) (. .)))
p351
sVtext
p352
VAfter the sale she had 8 to take back home .
p353
sVdependencies
p354
(lp355
(lp356
Vroot
p357
aVROOT
p358
aVhad
p359
aa(lp360
Vdet
p361
aVsale
p362
aVthe
p363
aa(lp364
Vprep_after
p365
aVhad
p366
aVsale
p367
aa(lp368
Vnsubj
p369
aVhad
p370
aVshe
p371
aa(lp372
Vdobj
p373
aVhad
p374
ag76
aa(lp375
Vaux
p376
aVtake
p377
aVto
p378
aa(lp379
Vvmod
p380
aVhad
p381
aVtake
p382
aa(lp383
Vprt
p384
aVtake
p385
aVback
p386
aa(lp387
Vdobj
p388
aVtake
p389
aVhome
p390
aasVwords
p391
(lp392
(lp393
VAfter
p394
a(dp395
VNamedEntityTag
p396
g62
sVCharacterOffsetEnd
p397
V90
p398
sVCharacterOffsetBegin
p399
V85
p400
sVPartOfSpeech
p401
VIN
p402
sVLemma
p403
Vafter
p404
saa(lp405
Vthe
p406
a(dp407
VNamedEntityTag
p408
g62
sVCharacterOffsetEnd
p409
V94
p410
sVCharacterOffsetBegin
p411
V91
p412
sVPartOfSpeech
p413
VDT
p414
sVLemma
p415
Vthe
p416
saa(lp417
Vsale
p418
a(dp419
VNamedEntityTag
p420
g62
sVCharacterOffsetEnd
p421
V99
p422
sVCharacterOffsetBegin
p423
V95
p424
sVPartOfSpeech
p425
VNN
p426
sVLemma
p427
Vsale
p428
saa(lp429
Vshe
p430
a(dp431
VNamedEntityTag
p432
g62
sVCharacterOffsetEnd
p433
V103
p434
sVCharacterOffsetBegin
p435
V100
p436
sVPartOfSpeech
p437
VPRP
p438
sVLemma
p439
Vshe
p440
saa(lp441
Vhad
p442
a(dp443
VNamedEntityTag
p444
g62
sVCharacterOffsetEnd
p445
V107
p446
sVCharacterOffsetBegin
p447
V104
p448
sVPartOfSpeech
p449
VVBD
p450
sVLemma
p451
Vhave
p452
saa(lp453
g76
a(dp454
VNormalizedNamedEntityTag
p455
V8.0
p456
sVLemma
p457
g76
sVCharacterOffsetEnd
p458
V109
p459
sVPartOfSpeech
p460
VCD
p461
sVCharacterOffsetBegin
p462
V108
p463
sVNamedEntityTag
p464
VNUMBER
p465
saa(lp466
Vto
p467
a(dp468
VNamedEntityTag
p469
g62
sVCharacterOffsetEnd
p470
V112
p471
sVCharacterOffsetBegin
p472
V110
p473
sVPartOfSpeech
p474
VTO
p475
sVLemma
p476
Vto
p477
saa(lp478
Vtake
p479
a(dp480
VNamedEntityTag
p481
g62
sVCharacterOffsetEnd
p482
V117
p483
sVCharacterOffsetBegin
p484
V113
p485
sVPartOfSpeech
p486
VVB
p487
sVLemma
p488
Vtake
p489
saa(lp490
Vback
p491
a(dp492
VNamedEntityTag
p493
g62
sVCharacterOffsetEnd
p494
V122
p495
sVCharacterOffsetBegin
p496
V118
p497
sVPartOfSpeech
p498
VRP
p499
sVLemma
p500
Vback
p501
saa(lp502
Vhome
p503
a(dp504
VNamedEntityTag
p505
g62
sVCharacterOffsetEnd
p506
V127
p507
sVCharacterOffsetBegin
p508
V123
p509
sVPartOfSpeech
p510
VNN
p511
sVLemma
p512
Vhome
p513
saa(lp514
g157
a(dp515
VNamedEntityTag
p516
g62
sVCharacterOffsetEnd
p517
V129
p518
sVCharacterOffsetBegin
p519
V128
p520
sVPartOfSpeech
p521
g157
sVLemma
p522
g157
saasVindexeddependencies
p523
(lp524
(lp525
Vroot
p526
aVROOT-0
p527
aVhad-5
p528
aa(lp529
Vdet
p530
aVsale-3
p531
aVthe-2
p532
aa(lp533
Vprep_after
p534
aVhad-5
p535
aVsale-3
p536
aa(lp537
Vnsubj
p538
aVhad-5
p539
aVshe-4
p540
aa(lp541
Vdobj
p542
aVhad-5
p543
aV8-6
p544
aa(lp545
Vaux
p546
aVtake-8
p547
aVto-7
p548
aa(lp549
Vvmod
p550
aVhad-5
p551
aVtake-8
p552
aa(lp553
Vprt
p554
aVtake-8
p555
aVback-9
p556
aa(lp557
Vdobj
p558
aVtake-8
p559
aVhome-10
p560
aasa(dp561
Vparsetree
p562
V(ROOT (SBARQ (WHADVP (WRB How) (NP (JJ many) (NNS pastries))) (SQ (VBD did) (NP (PRP she)) (VP (VB sell))) (. ?)))
p563
sVtext
p564
VHow many pastries did she sell ?
p565
sVdependencies
p566
(lp567
(lp568
Vroot
p569
aVROOT
p570
aVsell
p571
aa(lp572
Vadvmod
p573
aVsell
p574
aVHow
p575
aa(lp576
Vamod
p577
aVpastries
p578
aVmany
p579
aa(lp580
Vdep
p581
aVHow
p582
aVpastries
p583
aa(lp584
Vaux
p585
aVsell
p586
aVdid
p587
aa(lp588
Vnsubj
p589
aVsell
p590
aVshe
p591
aasVwords
p592
(lp593
(lp594
VHow
p595
a(dp596
VNamedEntityTag
p597
g62
sVCharacterOffsetEnd
p598
V133
p599
sVCharacterOffsetBegin
p600
V130
p601
sVPartOfSpeech
p602
VWRB
p603
sVLemma
p604
Vhow
p605
saa(lp606
Vmany
p607
a(dp608
VNamedEntityTag
p609
g62
sVCharacterOffsetEnd
p610
V138
p611
sVCharacterOffsetBegin
p612
V134
p613
sVPartOfSpeech
p614
VJJ
p615
sVLemma
p616
Vmany
p617
saa(lp618
Vpastries
p619
a(dp620
VNamedEntityTag
p621
g62
sVCharacterOffsetEnd
p622
V147
p623
sVCharacterOffsetBegin
p624
V139
p625
sVPartOfSpeech
p626
VNNS
p627
sVLemma
p628
Vpastry
p629
saa(lp630
Vdid
p631
a(dp632
VNamedEntityTag
p633
g62
sVCharacterOffsetEnd
p634
V151
p635
sVCharacterOffsetBegin
p636
V148
p637
sVPartOfSpeech
p638
VVBD
p639
sVLemma
p640
Vdo
p641
saa(lp642
Vshe
p643
a(dp644
VNamedEntityTag
p645
g62
sVCharacterOffsetEnd
p646
V155
p647
sVCharacterOffsetBegin
p648
V152
p649
sVPartOfSpeech
p650
VPRP
p651
sVLemma
p652
Vshe
p653
saa(lp654
Vsell
p655
a(dp656
VNamedEntityTag
p657
g62
sVCharacterOffsetEnd
p658
V160
p659
sVCharacterOffsetBegin
p660
V156
p661
sVPartOfSpeech
p662
VVB
p663
sVLemma
p664
Vsell
p665
saa(lp666
V?
p667
a(dp668
VNamedEntityTag
p669
g62
sVCharacterOffsetEnd
p670
V162
p671
sVCharacterOffsetBegin
p672
V161
p673
sVPartOfSpeech
p674
g157
sVLemma
p675
g667
saasVindexeddependencies
p676
(lp677
(lp678
Vroot
p679
aVROOT-0
p680
aVsell-6
p681
aa(lp682
Vadvmod
p683
aVsell-6
p684
aVHow-1
p685
aa(lp686
Vamod
p687
aVpastries-3
p688
aVmany-2
p689
aa(lp690
Vdep
p691
aVHow-1
p692
aVpastries-3
p693
aa(lp694
Vaux
p695
aVsell-6
p696
aVdid-4
p697
aa(lp698
Vnsubj
p699
aVsell-6
p700
aVshe-5
p701
aasas.