(dp0
Vcoref
p1
(lp2
(lp3
(lp4
(lp5
Vhe
p6
aI1
aI11
aI11
aI12
aa(lp7
VBilly
p8
aI0
aI4
aI4
aI5
aaaasVsentences
p9
(lp10
(dp11
Vparsetree
p12
V(ROOT (S (PP (IN At) (NP (DT the) (NN town) (NN carnival))) (NP (NNP Billy)) (VP (VBD rode) (NP (NP (NP (DT the) (ADJP (JJ ferris)) (NN wheel)) (NP-TMP (CD 7) (NNS times))) (CC and) (NP (NP (DT the) (NN bumper) (NNS cars)) (NP-TMP (CD 3) (NNS times))))) (. .)))
p13
sVtext
p14
VAt the town carnival Billy rode the ferris wheel 7 times and the bumper cars 3 times .
p15
sVdependencies
p16
(lp17
(lp18
Vroot
p19
aVROOT
p20
aVrode
p21
aa(lp22
Vdet
p23
aVcarnival
p24
aVthe
p25
aa(lp26
Vnn
p27
aVcarnival
p28
aVtown
p29
aa(lp30
Vprep_at
p31
aVrode
p32
aVcarnival
p33
aa(lp34
Vnsubj
p35
aVrode
p36
aVBilly
p37
aa(lp38
Vdet
p39
aVwheel
p40
aVthe
p41
aa(lp42
Vamod
p43
aVwheel
p44
aVferris
p45
aa(lp46
Vdobj
p47
aVrode
p48
aVwheel
p49
aa(lp50
Vnum
p51
aVtimes
p52
aV7
p53
aa(lp54
Vtmod
p55
aVwheel
p56
aVtimes
p57
aa(lp58
Vdet
p59
aVcars
p60
aVthe
p61
aa(lp62
Vnn
p63
aVcars
p64
aVbumper
p65
aa(lp66
Vconj_and
p67
aVwheel
p68
aVcars
p69
aa(lp70
Vnum
p71
aVtimes
p72
aV3
p73
aa(lp74
Vtmod
p75
aVcars
p76
aVtimes
p77
aasVwords
p78
(lp79
(lp80
VAt
p81
a(dp82
VNamedEntityTag
p83
VO
p84
sVCharacterOffsetEnd
p85
g73
sVCharacterOffsetBegin
p86
V1
p87
sVPartOfSpeech
p88
VIN
p89
sVLemma
p90
Vat
p91
saa(lp92
Vthe
p93
a(dp94
VNamedEntityTag
p95
g84
sVCharacterOffsetEnd
p96
g53
sVCharacterOffsetBegin
p97
V4
p98
sVPartOfSpeech
p99
VDT
p100
sVLemma
p101
Vthe
p102
saa(lp103
Vtown
p104
a(dp105
VNamedEntityTag
p106
g84
sVCharacterOffsetEnd
p107
V12
p108
sVCharacterOffsetBegin
p109
V8
p110
sVPartOfSpeech
p111
VNN
p112
sVLemma
p113
Vtown
p114
saa(lp115
Vcarnival
p116
a(dp117
VNamedEntityTag
p118
g84
sVCharacterOffsetEnd
p119
V21
p120
sVCharacterOffsetBegin
p121
V13
p122
sVPartOfSpeech
p123
VNN
p124
sVLemma
p125
Vcarnival
p126
saa(lp127
VBilly
p128
a(dp129
VNamedEntityTag
p130
VPERSON
p131
sVCharacterOffsetEnd
p132
V27
p133
sVCharacterOffsetBegin
p134
V22
p135
sVPartOfSpeech
p136
VNNP
p137
sVLemma
p138
VBilly
p139
saa(lp140
Vrode
p141
a(dp142
VNamedEntityTag
p143
g84
sVCharacterOffsetEnd
p144
V32
p145
sVCharacterOffsetBegin
p146
V28
p147
sVPartOfSpeech
p148
VVBD
p149
sVLemma
p150
Vride
p151
saa(lp152
Vthe
p153
a(dp154
VNamedEntityTag
p155
g84
sVCharacterOffsetEnd
p156
V36
p157
sVCharacterOffsetBegin
p158
V33
p159
sVPartOfSpeech
p160
VDT
p161
sVLemma
p162
Vthe
p163
saa(lp164
Vferris
p165
a(dp166
VNamedEntityTag
p167
g84
sVCharacterOffsetEnd
p168
V43
p169
sVCharacterOffsetBegin
p170
V37
p171
sVPartOfSpeech
p172
VJJ
p173
sVLemma
p174
Vferris
p175
saa(lp176
Vwheel
p177
a(dp178
VNamedEntityTag
p179
g84
sVCharacterOffsetEnd
p180
V49
p181
sVCharacterOffsetBegin
p182
V44
p183
sVPartOfSpeech
p184
VNN
p185
sVLemma
p186
Vwheel
p187
saa(lp188
g53
a(dp189
VNormalizedNamedEntityTag
p190
V7.0
p191
sVLemma
p192
g53
sVCharacterOffsetEnd
p193
V51
p194
sVPartOfSpeech
p195
VCD
p196
sVCharacterOffsetBegin
p197
V50
p198
sVNamedEntityTag
p199
VNUMBER
p200
saa(lp201
Vtimes
p202
a(dp203
VNamedEntityTag
p204
g84
sVCharacterOffsetEnd
p205
V57
p206
sVCharacterOffsetBegin
p207
V52
p208
sVPartOfSpeech
p209
VNNS
p210
sVLemma
p211
Vtime
p212
saa(lp213
Vand
p214
a(dp215
VNamedEntityTag
p216
g84
sVCharacterOffsetEnd
p217
V61
p218
sVCharacterOffsetBegin
p219
V58
p220
sVPartOfSpeech
p221
VCC
p222
sVLemma
p223
Vand
p224
saa(lp225
Vthe
p226
a(dp227
VNamedEntityTag
p228
g84
sVCharacterOffsetEnd
p229
V65
p230
sVCharacterOffsetBegin
p231
V62
p232
sVPartOfSpeech
p233
VDT
p234
sVLemma
p235
Vthe
p236
saa(lp237
Vbumper
p238
a(dp239
VNamedEntityTag
p240
g84
sVCharacterOffsetEnd
p241
V72
p242
sVCharacterOffsetBegin
p243
V66
p244
sVPartOfSpeech
p245
VNN
p246
sVLemma
p247
Vbumper
p248
saa(lp249
Vcars
p250
a(dp251
VNamedEntityTag
p252
g84
sVCharacterOffsetEnd
p253
V77
p254
sVCharacterOffsetBegin
p255
V73
p256
sVPartOfSpeech
p257
VNNS
p258
sVLemma
p259
Vcar
p260
saa(lp261
g73
a(dp262
VNormalizedNamedEntityTag
p263
V3.0
p264
sVLemma
p265
g73
sVCharacterOffsetEnd
p266
V79
p267
sVPartOfSpeech
p268
VCD
p269
sVCharacterOffsetBegin
p270
V78
p271
sVNamedEntityTag
p272
VNUMBER
p273
saa(lp274
Vtimes
p275
a(dp276
VNamedEntityTag
p277
g84
sVCharacterOffsetEnd
p278
V85
p279
sVCharacterOffsetBegin
p280
V80
p281
sVPartOfSpeech
p282
VNNS
p283
sVLemma
p284
Vtime
p285
saa(lp286
V.
p287
a(dp288
VNamedEntityTag
p289
g84
sVCharacterOffsetEnd
p290
V87
p291
sVCharacterOffsetBegin
p292
V86
p293
sVPartOfSpeech
p294
g287
sVLemma
p295
g287
saasVindexeddependencies
p296
(lp297
(lp298
Vroot
p299
aVROOT-0
p300
aVrode-6
p301
aa(lp302
Vdet
p303
aVcarnival-4
p304
aVthe-2
p305
aa(lp306
Vnn
p307
aVcarnival-4
p308
aVtown-3
p309
aa(lp310
Vprep_at
p311
aVrode-6
p312
aVcarnival-4
p313
aa(lp314
Vnsubj
p315
aVrode-6
p316
aVBilly-5
p317
aa(lp318
Vdet
p319
aVwheel-9
p320
aVthe-7
p321
aa(lp322
Vamod
p323
aVwheel-9
p324
aVferris-8
p325
aa(lp326
Vdobj
p327
aVrode-6
p328
aVwheel-9
p329
aa(lp330
Vnum
p331
aVtimes-11
p332
aV7-10
p333
aa(lp334
Vtmod
p335
aVwheel-9
p336
aVtimes-11
p337
aa(lp338
Vdet
p339
aVcars-15
p340
aVthe-13
p341
aa(lp342
Vnn
p343
aVcars-15
p344
aVbumper-14
p345
aa(lp346
Vconj_and
p347
aVwheel-9
p348
aVcars-15
p349
aa(lp350
Vnum
p351
aVtimes-17
p352
aV3-16
p353
aa(lp354
Vtmod
p355
aVcars-15
p356
aVtimes-17
p357
aasa(dp358
Vparsetree
p359
V(ROOT (SBARQ (PP (IN If) (NP (NP (DT each) (NN ride) (NN cost)) (NP (CD 5) (NNS tickets)))) (, ,) (WHNP (WHADJP (WRB how) (JJ many)) (NNS tickets)) (SQ (VBD did) (NP (PRP he)) (VP (VB use))) (. ?)))
p360
sVtext
p361
VIf each ride cost 5 tickets , how many tickets did he use ?
p362
sVdependencies
p363
(lp364
(lp365
Vroot
p366
aVROOT
p367
aVuse
p368
aa(lp369
Vdet
p370
aVcost
p371
aVeach
p372
aa(lp373
Vnn
p374
aVcost
p375
aVride
p376
aa(lp377
Vprep_if
p378
aVuse
p379
aVcost
p380
aa(lp381
Vnum
p382
aVtickets
p383
aV5
p384
aa(lp385
Vdep
p386
aVcost
p387
aVtickets
p388
aa(lp389
Vadvmod
p390
aVmany
p391
aVhow
p392
aa(lp393
Vamod
p394
aVtickets
p395
aVmany
p396
aa(lp397
Vdobj
p398
aVuse
p399
aVtickets
p400
aa(lp401
Vaux
p402
aVuse
p403
aVdid
p404
aa(lp405
Vnsubj
p406
aVuse
p407
aVhe
p408
aasVwords
p409
(lp410
(lp411
VIf
p412
a(dp413
VNamedEntityTag
p414
g84
sVCharacterOffsetEnd
p415
V90
p416
sVCharacterOffsetBegin
p417
V88
p418
sVPartOfSpeech
p419
VIN
p420
sVLemma
p421
Vif
p422
saa(lp423
Veach
p424
a(dp425
VNamedEntityTag
p426
g84
sVCharacterOffsetEnd
p427
V95
p428
sVCharacterOffsetBegin
p429
V91
p430
sVPartOfSpeech
p431
VDT
p432
sVLemma
p433
Veach
p434
saa(lp435
Vride
p436
a(dp437
VNamedEntityTag
p438
g84
sVCharacterOffsetEnd
p439
V100
p440
sVCharacterOffsetBegin
p441
V96
p442
sVPartOfSpeech
p443
VNN
p444
sVLemma
p445
Vride
p446
saa(lp447
Vcost
p448
a(dp449
VNamedEntityTag
p450
g84
sVCharacterOffsetEnd
p451
V105
p452
sVCharacterOffsetBegin
p453
V101
p454
sVPartOfSpeech
p455
VNN
p456
sVLemma
p457
Vcost
p458
saa(lp459
g384
a(dp460
VNormalizedNamedEntityTag
p461
V5.0
p462
sVLemma
p463
g384
sVCharacterOffsetEnd
p464
V107
p465
sVPartOfSpeech
p466
VCD
p467
sVCharacterOffsetBegin
p468
V106
p469
sVNamedEntityTag
p470
VNUMBER
p471
saa(lp472
Vtickets
p473
a(dp474
VNamedEntityTag
p475
g84
sVCharacterOffsetEnd
p476
V115
p477
sVCharacterOffsetBegin
p478
V108
p479
sVPartOfSpeech
p480
VNNS
p481
sVLemma
p482
Vticket
p483
saa(lp484
V,
p485
a(dp486
VNamedEntityTag
p487
g84
sVCharacterOffsetEnd
p488
V117
p489
sVCharacterOffsetBegin
p490
V116
p491
sVPartOfSpeech
p492
g485
sVLemma
p493
g485
saa(lp494
Vhow
p495
a(dp496
VNamedEntityTag
p497
g84
sVCharacterOffsetEnd
p498
V121
p499
sVCharacterOffsetBegin
p500
V118
p501
sVPartOfSpeech
p502
VWRB
p503
sVLemma
p504
Vhow
p505
saa(lp506
Vmany
p507
a(dp508
VNamedEntityTag
p509
g84
sVCharacterOffsetEnd
p510
V126
p511
sVCharacterOffsetBegin
p512
V122
p513
sVPartOfSpeech
p514
VJJ
p515
sVLemma
p516
Vmany
p517
saa(lp518
Vtickets
p519
a(dp520
VNamedEntityTag
p521
g84
sVCharacterOffsetEnd
p522
V134
p523
sVCharacterOffsetBegin
p524
V127
p525
sVPartOfSpeech
p526
VNNS
p527
sVLemma
p528
Vticket
p529
saa(lp530
Vdid
p531
a(dp532
VNamedEntityTag
p533
g84
sVCharacterOffsetEnd
p534
V138
p535
sVCharacterOffsetBegin
p536
V135
p537
sVPartOfSpeech
p538
VVBD
p539
sVLemma
p540
Vdo
p541
saa(lp542
Vhe
p543
a(dp544
VNamedEntityTag
p545
g84
sVCharacterOffsetEnd
p546
V141
p547
sVCharacterOffsetBegin
p548
V139
p549
sVPartOfSpeech
p550
VPRP
p551
sVLemma
p552
Vhe
p553
saa(lp554
Vuse
p555
a(dp556
VNamedEntityTag
p557
g84
sVCharacterOffsetEnd
p558
V145
p559
sVCharacterOffsetBegin
p560
V142
p561
sVPartOfSpeech
p562
VVB
p563
sVLemma
p564
Vuse
p565
saa(lp566
V?
p567
a(dp568
VNamedEntityTag
p569
g84
sVCharacterOffsetEnd
p570
V147
p571
sVCharacterOffsetBegin
p572
V146
p573
sVPartOfSpeech
p574
g287
sVLemma
p575
g567
saasVindexeddependencies
p576
(lp577
(lp578
Vroot
p579
aVROOT-0
p580
aVuse-13
p581
aa(lp582
Vdet
p583
aVcost-4
p584
aVeach-2
p585
aa(lp586
Vnn
p587
aVcost-4
p588
aVride-3
p589
aa(lp590
Vprep_if
p591
aVuse-13
p592
aVcost-4
p593
aa(lp594
Vnum
p595
aVtickets-6
p596
aV5-5
p597
aa(lp598
Vdep
p599
aVcost-4
p600
aVtickets-6
p601
aa(lp602
Vadvmod
p603
aVmany-9
p604
aVhow-8
p605
aa(lp606
Vamod
p607
aVtickets-10
p608
aVmany-9
p609
aa(lp610
Vdobj
p611
aVuse-13
p612
aVtickets-10
p613
aa(lp614
Vaux
p615
aVuse-13
p616
aVdid-11
p617
aa(lp618
Vnsubj
p619
aVuse-13
p620
aVhe-12
p621
aasas.