(dp0
Vcoref
p1
(lp2
(lp3
(lp4
(lp5
Vtwo
p6
aI2
aI8
aI8
aI9
aa(lp7
Vtwo
p8
aI0
aI2
aI2
aI3
aaaa(lp9
(lp10
(lp11
Vtwo dogs
p12
aI0
aI3
aI2
aI4
aa(lp13
Vthe two dogs
p14
aI2
aI9
aI7
aI10
aaaa(lp15
(lp16
(lp17
V0.125 of a scoop
p18
aI1
aI18
aI18
aI22
aa(lp19
V0.125 of a scoop of dog food and the other dog
p20
aI1
aI6
aI6
aI17
aaaa(lp21
(lp22
(lp23
Vdog food
p24
aI2
aI5
aI4
aI6
aa(lp25
Vdog food
p26
aI1
aI12
aI11
aI13
aaaasVsentences
p27
(lp28
(dp29
Vparsetree
p30
V(ROOT (S (NP (NNP Ella)) (VP (VBZ owns) (NP (CD two) (NNS dogs))) (. .)))
p31
sVtext
p32
VElla owns two dogs .
p33
sVdependencies
p34
(lp35
(lp36
Vroot
p37
aVROOT
p38
aVowns
p39
aa(lp40
Vnsubj
p41
aVowns
p42
aVElla
p43
aa(lp44
Vnum
p45
aVdogs
p46
aVtwo
p47
aa(lp48
Vdobj
p49
aVowns
p50
aVdogs
p51
aasVwords
p52
(lp53
(lp54
VElla
p55
a(dp56
VNamedEntityTag
p57
VPERSON
p58
sVCharacterOffsetEnd
p59
V5
p60
sVCharacterOffsetBegin
p61
V1
p62
sVPartOfSpeech
p63
VNNP
p64
sVLemma
p65
VElla
p66
saa(lp67
Vowns
p68
a(dp69
VNamedEntityTag
p70
VO
p71
sVCharacterOffsetEnd
p72
V10
p73
sVCharacterOffsetBegin
p74
V6
p75
sVPartOfSpeech
p76
VVBZ
p77
sVLemma
p78
Vown
p79
saa(lp80
Vtwo
p81
a(dp82
VNormalizedNamedEntityTag
p83
V2.0
p84
sVLemma
p85
Vtwo
p86
sVCharacterOffsetEnd
p87
V14
p88
sVPartOfSpeech
p89
VCD
p90
sVCharacterOffsetBegin
p91
V11
p92
sVNamedEntityTag
p93
VNUMBER
p94
saa(lp95
Vdogs
p96
a(dp97
VNamedEntityTag
p98
g71
sVCharacterOffsetEnd
p99
V19
p100
sVCharacterOffsetBegin
p101
V15
p102
sVPartOfSpeech
p103
VNNS
p104
sVLemma
p105
Vdog
p106
saa(lp107
V.
p108
a(dp109
VNamedEntityTag
p110
g71
sVCharacterOffsetEnd
p111
V21
p112
sVCharacterOffsetBegin
p113
V20
p114
sVPartOfSpeech
p115
g108
sVLemma
p116
g108
saasVindexeddependencies
p117
(lp118
(lp119
Vroot
p120
aVROOT-0
p121
aVowns-2
p122
aa(lp123
Vnsubj
p124
aVowns-2
p125
aVElla-1
p126
aa(lp127
Vnum
p128
aVdogs-4
p129
aVtwo-3
p130
aa(lp131
Vdobj
p132
aVowns-2
p133
aVdogs-4
p134
aasa(dp135
Vparsetree
p136
V(ROOT (S (NP-TMP (DT Each) (NN day)) (, ,) (NP (CD one) (NN dog)) (VP (VBZ eats) (SBAR (S (NP (NP (CD 0.125)) (PP (IN of) (NP (NP (DT a) (NN scoop)) (PP (IN of) (NP (NP (NN dog) (NN food)) (CC and) (NP (DT the) (JJ other) (NN dog))))))) (VP (VBZ eats) (NP (NP (CD 0.125)) (PP (IN of) (NP (DT a) (NN scoop)))))))) (. .)))
p137
sVtext
p138
VEach day , one dog eats 0.125 of a scoop of dog food and the other dog eats 0.125 of a scoop .
p139
sVdependencies
p140
(lp141
(lp142
Vroot
p143
aVROOT
p144
aVeats
p145
aa(lp146
Vdet
p147
aVday
p148
aVEach
p149
aa(lp150
Vtmod
p151
aVeats
p152
aVday
p153
aa(lp154
Vnum
p155
aVdog
p156
aVone
p157
aa(lp158
Vnsubj
p159
aVeats
p160
aVdog
p161
aa(lp162
Vnsubj
p163
aVeats
p164
aV0.125
p165
aa(lp166
Vdet
p167
aVscoop
p168
aVa
p169
aa(lp170
Vprep_of
p171
aV0.125
p172
aVscoop
p173
aa(lp174
Vnn
p175
aVfood
p176
aVdog
p177
aa(lp178
Vprep_of
p179
aVscoop
p180
aVfood
p181
aa(lp182
Vdet
p183
aVdog
p184
aVthe
p185
aa(lp186
Vamod
p187
aVdog
p188
aVother
p189
aa(lp190
Vconj_and
p191
aVfood
p192
aVdog
p193
aa(lp194
Vccomp
p195
aVeats
p196
aVeats
p197
aa(lp198
Vdobj
p199
aVeats
p200
aV0.125
p201
aa(lp202
Vdet
p203
aVscoop
p204
ag169
aa(lp205
Vprep_of
p206
aV0.125
p207
aVscoop
p208
aasVwords
p209
(lp210
(lp211
VEach
p212
a(dp213
VTimex
p214
V<TIMEX3 periodicity="P1D" quant="each" tid="t1" type="SET" value="P1D">Each day</TIMEX3>
p215
sVCharacterOffsetEnd
p216
V26
p217
sVLemma
p218
Veach
p219
sVPartOfSpeech
p220
VDT
p221
sVCharacterOffsetBegin
p222
V22
p223
sVNamedEntityTag
p224
VSET
p225
saa(lp226
Vday
p227
a(dp228
VTimex
p229
V<TIMEX3 periodicity="P1D" quant="each" tid="t1" type="SET" value="P1D">Each day</TIMEX3>
p230
sVCharacterOffsetEnd
p231
V30
p232
sVLemma
p233
Vday
p234
sVPartOfSpeech
p235
VNN
p236
sVCharacterOffsetBegin
p237
V27
p238
sVNamedEntityTag
p239
VSET
p240
saa(lp241
V,
p242
a(dp243
VNamedEntityTag
p244
g71
sVCharacterOffsetEnd
p245
V32
p246
sVCharacterOffsetBegin
p247
V31
p248
sVPartOfSpeech
p249
g242
sVLemma
p250
g242
saa(lp251
Vone
p252
a(dp253
VNormalizedNamedEntityTag
p254
V1.0
p255
sVLemma
p256
Vone
p257
sVCharacterOffsetEnd
p258
V36
p259
sVPartOfSpeech
p260
VCD
p261
sVCharacterOffsetBegin
p262
V33
p263
sVNamedEntityTag
p264
VNUMBER
p265
saa(lp266
Vdog
p267
a(dp268
VNamedEntityTag
p269
g71
sVCharacterOffsetEnd
p270
V40
p271
sVCharacterOffsetBegin
p272
V37
p273
sVPartOfSpeech
p274
VNN
p275
sVLemma
p276
Vdog
p277
saa(lp278
Veats
p279
a(dp280
VNamedEntityTag
p281
g71
sVCharacterOffsetEnd
p282
V45
p283
sVCharacterOffsetBegin
p284
V41
p285
sVPartOfSpeech
p286
VVBZ
p287
sVLemma
p288
Veat
p289
saa(lp290
V0.125
p291
a(dp292
VNormalizedNamedEntityTag
p293
V0.125
p294
sVLemma
p295
V0.125
p296
sVCharacterOffsetEnd
p297
V51
p298
sVPartOfSpeech
p299
VCD
p300
sVCharacterOffsetBegin
p301
V46
p302
sVNamedEntityTag
p303
VNUMBER
p304
saa(lp305
Vof
p306
a(dp307
VNamedEntityTag
p308
g71
sVCharacterOffsetEnd
p309
V54
p310
sVCharacterOffsetBegin
p311
V52
p312
sVPartOfSpeech
p313
VIN
p314
sVLemma
p315
Vof
p316
saa(lp317
g169
a(dp318
VNamedEntityTag
p319
g71
sVCharacterOffsetEnd
p320
V56
p321
sVCharacterOffsetBegin
p322
V55
p323
sVPartOfSpeech
p324
VDT
p325
sVLemma
p326
g169
saa(lp327
Vscoop
p328
a(dp329
VNamedEntityTag
p330
g71
sVCharacterOffsetEnd
p331
V62
p332
sVCharacterOffsetBegin
p333
V57
p334
sVPartOfSpeech
p335
VNN
p336
sVLemma
p337
Vscoop
p338
saa(lp339
Vof
p340
a(dp341
VNamedEntityTag
p342
g71
sVCharacterOffsetEnd
p343
V65
p344
sVCharacterOffsetBegin
p345
V63
p346
sVPartOfSpeech
p347
VIN
p348
sVLemma
p349
Vof
p350
saa(lp351
Vdog
p352
a(dp353
VNamedEntityTag
p354
g71
sVCharacterOffsetEnd
p355
V69
p356
sVCharacterOffsetBegin
p357
V66
p358
sVPartOfSpeech
p359
VNN
p360
sVLemma
p361
Vdog
p362
saa(lp363
Vfood
p364
a(dp365
VNamedEntityTag
p366
g71
sVCharacterOffsetEnd
p367
V74
p368
sVCharacterOffsetBegin
p369
V70
p370
sVPartOfSpeech
p371
VNN
p372
sVLemma
p373
Vfood
p374
saa(lp375
Vand
p376
a(dp377
VNamedEntityTag
p378
g71
sVCharacterOffsetEnd
p379
V78
p380
sVCharacterOffsetBegin
p381
V75
p382
sVPartOfSpeech
p383
VCC
p384
sVLemma
p385
Vand
p386
saa(lp387
Vthe
p388
a(dp389
VNamedEntityTag
p390
g71
sVCharacterOffsetEnd
p391
V82
p392
sVCharacterOffsetBegin
p393
V79
p394
sVPartOfSpeech
p395
VDT
p396
sVLemma
p397
Vthe
p398
saa(lp399
Vother
p400
a(dp401
VNamedEntityTag
p402
g71
sVCharacterOffsetEnd
p403
V88
p404
sVCharacterOffsetBegin
p405
V83
p406
sVPartOfSpeech
p407
VJJ
p408
sVLemma
p409
Vother
p410
saa(lp411
Vdog
p412
a(dp413
VNamedEntityTag
p414
g71
sVCharacterOffsetEnd
p415
V92
p416
sVCharacterOffsetBegin
p417
V89
p418
sVPartOfSpeech
p419
VNN
p420
sVLemma
p421
Vdog
p422
saa(lp423
Veats
p424
a(dp425
VNamedEntityTag
p426
g71
sVCharacterOffsetEnd
p427
V97
p428
sVCharacterOffsetBegin
p429
V93
p430
sVPartOfSpeech
p431
VVBZ
p432
sVLemma
p433
Veat
p434
saa(lp435
V0.125
p436
a(dp437
VNormalizedNamedEntityTag
p438
V0.125
p439
sVLemma
p440
V0.125
p441
sVCharacterOffsetEnd
p442
V103
p443
sVPartOfSpeech
p444
VCD
p445
sVCharacterOffsetBegin
p446
V98
p447
sVNamedEntityTag
p448
VNUMBER
p449
saa(lp450
Vof
p451
a(dp452
VNamedEntityTag
p453
g71
sVCharacterOffsetEnd
p454
V106
p455
sVCharacterOffsetBegin
p456
V104
p457
sVPartOfSpeech
p458
VIN
p459
sVLemma
p460
Vof
p461
saa(lp462
g169
a(dp463
VNamedEntityTag
p464
g71
sVCharacterOffsetEnd
p465
V108
p466
sVCharacterOffsetBegin
p467
V107
p468
sVPartOfSpeech
p469
VDT
p470
sVLemma
p471
g169
saa(lp472
Vscoop
p473
a(dp474
VNamedEntityTag
p475
g71
sVCharacterOffsetEnd
p476
V114
p477
sVCharacterOffsetBegin
p478
V109
p479
sVPartOfSpeech
p480
VNN
p481
sVLemma
p482
Vscoop
p483
saa(lp484
g108
a(dp485
VNamedEntityTag
p486
g71
sVCharacterOffsetEnd
p487
V116
p488
sVCharacterOffsetBegin
p489
V115
p490
sVPartOfSpeech
p491
g108
sVLemma
p492
g108
saasVindexeddependencies
p493
(lp494
(lp495
Vroot
p496
aVROOT-0
p497
aVeats-6
p498
aa(lp499
Vdet
p500
aVday-2
p501
aVEach-1
p502
aa(lp503
Vtmod
p504
aVeats-6
p505
aVday-2
p506
aa(lp507
Vnum
p508
aVdog-5
p509
aVone-4
p510
aa(lp511
Vnsubj
p512
aVeats-6
p513
aVdog-5
p514
aa(lp515
Vnsubj
p516
aVeats-18
p517
aV0.125-7
p518
aa(lp519
Vdet
p520
aVscoop-10
p521
aVa-9
p522
aa(lp523
Vprep_of
p524
aV0.125-7
p525
aVscoop-10
p526
aa(lp527
Vnn
p528
aVfood-13
p529
aVdog-12
p530
aa(lp531
Vprep_of
p532
aVscoop-10
p533
aVfood-13
p534
aa(lp535
Vdet
p536
aVdog-17
p537
aVthe-15
p538
aa(lp539
Vamod
p540
aVdog-17
p541
aVother-16
p542
aa(lp543
Vconj_and
p544
aVfood-13
p545
aVdog-17
p546
aa(lp547
Vccomp
p548
aVeats-6
p549
aVeats-18
p550
aa(lp551
Vdobj
p552
aVeats-18
p553
aV0.125-19
p554
aa(lp555
Vdet
p556
aVscoop-22
p557
aVa-21
p558
aa(lp559
Vprep_of
p560
aV0.125-19
p561
aVscoop-22
p562
aasa(dp563
Vparsetree
p564
V(ROOT (S (ADVP (RB Together)) (, ,) (SBAR (WHADVP (WRB how) (JJ much)) (S (NP (NN dog) (NN food)) (VP (VBP do)))) (NP (DT the) (CD two) (NNS dogs)) (VP (VBP eat) (NP (DT each) (NN day))) (. ?)))
p565
sVtext
p566
VTogether , how much dog food do the two dogs eat each day ?
p567
sVdependencies
p568
(lp569
(lp570
Vroot
p571
aVROOT
p572
aVeat
p573
aa(lp574
Vadvmod
p575
aVeat
p576
aVTogether
p577
aa(lp578
Vadvmod
p579
aVmuch
p580
aVhow
p581
aa(lp582
Vadvmod
p583
aVdo
p584
aVmuch
p585
aa(lp586
Vnn
p587
aVfood
p588
aVdog
p589
aa(lp590
Vnsubj
p591
aVdo
p592
aVfood
p593
aa(lp594
Vadvcl
p595
aVeat
p596
aVdo
p597
aa(lp598
Vdet
p599
aVdogs
p600
aVthe
p601
aa(lp602
Vnum
p603
aVdogs
p604
aVtwo
p605
aa(lp606
Vnsubj
p607
aVeat
p608
aVdogs
p609
aa(lp610
Vdet
p611
aVday
p612
aVeach
p613
aa(lp614
Vtmod
p615
aVeat
p616
aVday
p617
aasVwords
p618
(lp619
(lp620
VTogether
p621
a(dp622
VNamedEntityTag
p623
g71
sVCharacterOffsetEnd
p624
V125
p625
sVCharacterOffsetBegin
p626
V117
p627
sVPartOfSpeech
p628
VRB
p629
sVLemma
p630
Vtogether
p631
saa(lp632
g242
a(dp633
VNamedEntityTag
p634
g71
sVCharacterOffsetEnd
p635
V127
p636
sVCharacterOffsetBegin
p637
V126
p638
sVPartOfSpeech
p639
g242
sVLemma
p640
g242
saa(lp641
Vhow
p642
a(dp643
VNamedEntityTag
p644
g71
sVCharacterOffsetEnd
p645
V131
p646
sVCharacterOffsetBegin
p647
V128
p648
sVPartOfSpeech
p649
VWRB
p650
sVLemma
p651
Vhow
p652
saa(lp653
Vmuch
p654
a(dp655
VNamedEntityTag
p656
g71
sVCharacterOffsetEnd
p657
V136
p658
sVCharacterOffsetBegin
p659
V132
p660
sVPartOfSpeech
p661
VJJ
p662
sVLemma
p663
Vmuch
p664
saa(lp665
Vdog
p666
a(dp667
VNamedEntityTag
p668
g71
sVCharacterOffsetEnd
p669
V140
p670
sVCharacterOffsetBegin
p671
V137
p672
sVPartOfSpeech
p673
VNN
p674
sVLemma
p675
Vdog
p676
saa(lp677
Vfood
p678
a(dp679
VNamedEntityTag
p680
g71
sVCharacterOffsetEnd
p681
V145
p682
sVCharacterOffsetBegin
p683
V141
p684
sVPartOfSpeech
p685
VNN
p686
sVLemma
p687
Vfood
p688
saa(lp689
Vdo
p690
a(dp691
VNamedEntityTag
p692
g71
sVCharacterOffsetEnd
p693
V148
p694
sVCharacterOffsetBegin
p695
V146
p696
sVPartOfSpeech
p697
VVBP
p698
sVLemma
p699
Vdo
p700
saa(lp701
Vthe
p702
a(dp703
VNamedEntityTag
p704
g71
sVCharacterOffsetEnd
p705
V152
p706
sVCharacterOffsetBegin
p707
V149
p708
sVPartOfSpeech
p709
VDT
p710
sVLemma
p711
Vthe
p712
saa(lp713
Vtwo
p714
a(dp715
VNormalizedNamedEntityTag
p716
V2.0
p717
sVLemma
p718
Vtwo
p719
sVCharacterOffsetEnd
p720
V156
p721
sVPartOfSpeech
p722
VCD
p723
sVCharacterOffsetBegin
p724
V153
p725
sVNamedEntityTag
p726
VNUMBER
p727
saa(lp728
Vdogs
p729
a(dp730
VNamedEntityTag
p731
g71
sVCharacterOffsetEnd
p732
V161
p733
sVCharacterOffsetBegin
p734
V157
p735
sVPartOfSpeech
p736
VNNS
p737
sVLemma
p738
Vdog
p739
saa(lp740
Veat
p741
a(dp742
VNamedEntityTag
p743
g71
sVCharacterOffsetEnd
p744
V165
p745
sVCharacterOffsetBegin
p746
V162
p747
sVPartOfSpeech
p748
VVBP
p749
sVLemma
p750
Veat
p751
saa(lp752
Veach
p753
a(dp754
VTimex
p755
V<TIMEX3 periodicity="P1D" quant="each" tid="t2" type="SET" value="P1D">each day</TIMEX3>
p756
sVCharacterOffsetEnd
p757
V170
p758
sVLemma
p759
Veach
p760
sVPartOfSpeech
p761
VDT
p762
sVCharacterOffsetBegin
p763
V166
p764
sVNamedEntityTag
p765
VSET
p766
saa(lp767
Vday
p768
a(dp769
VTimex
p770
V<TIMEX3 periodicity="P1D" quant="each" tid="t2" type="SET" value="P1D">each day</TIMEX3>
p771
sVCharacterOffsetEnd
p772
V174
p773
sVLemma
p774
Vday
p775
sVPartOfSpeech
p776
VNN
p777
sVCharacterOffsetBegin
p778
V171
p779
sVNamedEntityTag
p780
VSET
p781
saa(lp782
V?
p783
a(dp784
VNamedEntityTag
p785
g71
sVCharacterOffsetEnd
p786
V176
p787
sVCharacterOffsetBegin
p788
V175
p789
sVPartOfSpeech
p790
g108
sVLemma
p791
g783
saasVindexeddependencies
p792
(lp793
(lp794
Vroot
p795
aVROOT-0
p796
aVeat-11
p797
aa(lp798
Vadvmod
p799
aVeat-11
p800
aVTogether-1
p801
aa(lp802
Vadvmod
p803
aVmuch-4
p804
aVhow-3
p805
aa(lp806
Vadvmod
p807
aVdo-7
p808
aVmuch-4
p809
aa(lp810
Vnn
p811
aVfood-6
p812
aVdog-5
p813
aa(lp814
Vnsubj
p815
aVdo-7
p816
aVfood-6
p817
aa(lp818
Vadvcl
p819
aVeat-11
p820
aVdo-7
p821
aa(lp822
Vdet
p823
aVdogs-10
p824
aVthe-8
p825
aa(lp826
Vnum
p827
aVdogs-10
p828
aVtwo-9
p829
aa(lp830
Vnsubj
p831
aVeat-11
p832
aVdogs-10
p833
aa(lp834
Vdet
p835
aVday-13
p836
aVeach-12
p837
aa(lp838
Vtmod
p839
aVeat-11
p840
aVday-13
p841
aasas.