(dp0
Vcoref
p1
(lp2
(lp3
(lp4
(lp5
Vthe squad
p6
aI1
aI13
aI12
aI14
aa(lp7
VThe cheerleading squad at Lakeside High School
p8
aI0
aI2
aI0
aI7
aaa(lp9
(lp10
Vthe squad 's
p11
aI2
aI8
aI7
aI10
aa(lp12
VThe cheerleading squad at Lakeside High School
p13
aI0
aI2
aI0
aI7
aaaasVsentences
p14
(lp15
(dp16
Vparsetree
p17
V(ROOT (S (NP (NP (DT The) (NN cheerleading) (NN squad)) (PP (IN at) (NP (NNP Lakeside) (NNP High) (NNP School)))) (VP (VBD had) (NP (NP (CD 10) (NNS members)) (PP (IN with) (NP (DT the) (JJ old) (NN coach))))) (. .)))
p18
sVtext
p19
VThe cheerleading squad at Lakeside High School had 10 members with the old coach .
p20
sVdependencies
p21
(lp22
(lp23
Vroot
p24
aVROOT
p25
aVhad
p26
aa(lp27
Vdet
p28
aVsquad
p29
aVThe
p30
aa(lp31
Vnn
p32
aVsquad
p33
aVcheerleading
p34
aa(lp35
Vnsubj
p36
aVhad
p37
aVsquad
p38
aa(lp39
Vnn
p40
aVSchool
p41
aVLakeside
p42
aa(lp43
Vnn
p44
aVSchool
p45
aVHigh
p46
aa(lp47
Vprep_at
p48
aVsquad
p49
aVSchool
p50
aa(lp51
Vnum
p52
aVmembers
p53
aV10
p54
aa(lp55
Vdobj
p56
aVhad
p57
aVmembers
p58
aa(lp59
Vdet
p60
aVcoach
p61
aVthe
p62
aa(lp63
Vamod
p64
aVcoach
p65
aVold
p66
aa(lp67
Vprep_with
p68
aVmembers
p69
aVcoach
p70
aasVwords
p71
(lp72
(lp73
VThe
p74
a(dp75
VNamedEntityTag
p76
VO
p77
sVCharacterOffsetEnd
p78
V4
p79
sVCharacterOffsetBegin
p80
V1
p81
sVPartOfSpeech
p82
VDT
p83
sVLemma
p84
Vthe
p85
saa(lp86
Vcheerleading
p87
a(dp88
VNamedEntityTag
p89
g77
sVCharacterOffsetEnd
p90
V17
p91
sVCharacterOffsetBegin
p92
V5
p93
sVPartOfSpeech
p94
VNN
p95
sVLemma
p96
Vcheerleading
p97
saa(lp98
Vsquad
p99
a(dp100
VNamedEntityTag
p101
g77
sVCharacterOffsetEnd
p102
V23
p103
sVCharacterOffsetBegin
p104
V18
p105
sVPartOfSpeech
p106
VNN
p107
sVLemma
p108
Vsquad
p109
saa(lp110
Vat
p111
a(dp112
VNamedEntityTag
p113
g77
sVCharacterOffsetEnd
p114
V26
p115
sVCharacterOffsetBegin
p116
V24
p117
sVPartOfSpeech
p118
VIN
p119
sVLemma
p120
Vat
p121
saa(lp122
VLakeside
p123
a(dp124
VNamedEntityTag
p125
VORGANIZATION
p126
sVCharacterOffsetEnd
p127
V35
p128
sVCharacterOffsetBegin
p129
V27
p130
sVPartOfSpeech
p131
VNNP
p132
sVLemma
p133
VLakeside
p134
saa(lp135
VHigh
p136
a(dp137
VNamedEntityTag
p138
VORGANIZATION
p139
sVCharacterOffsetEnd
p140
V40
p141
sVCharacterOffsetBegin
p142
V36
p143
sVPartOfSpeech
p144
VNNP
p145
sVLemma
p146
VHigh
p147
saa(lp148
VSchool
p149
a(dp150
VNamedEntityTag
p151
VORGANIZATION
p152
sVCharacterOffsetEnd
p153
V47
p154
sVCharacterOffsetBegin
p155
V41
p156
sVPartOfSpeech
p157
VNNP
p158
sVLemma
p159
VSchool
p160
saa(lp161
Vhad
p162
a(dp163
VNamedEntityTag
p164
g77
sVCharacterOffsetEnd
p165
V51
p166
sVCharacterOffsetBegin
p167
V48
p168
sVPartOfSpeech
p169
VVBD
p170
sVLemma
p171
Vhave
p172
saa(lp173
V10
p174
a(dp175
VNormalizedNamedEntityTag
p176
V10.0
p177
sVLemma
p178
V10
p179
sVCharacterOffsetEnd
p180
V54
p181
sVPartOfSpeech
p182
VCD
p183
sVCharacterOffsetBegin
p184
V52
p185
sVNamedEntityTag
p186
VNUMBER
p187
saa(lp188
Vmembers
p189
a(dp190
VNamedEntityTag
p191
g77
sVCharacterOffsetEnd
p192
V62
p193
sVCharacterOffsetBegin
p194
V55
p195
sVPartOfSpeech
p196
VNNS
p197
sVLemma
p198
Vmember
p199
saa(lp200
Vwith
p201
a(dp202
VNamedEntityTag
p203
g77
sVCharacterOffsetEnd
p204
V67
p205
sVCharacterOffsetBegin
p206
V63
p207
sVPartOfSpeech
p208
VIN
p209
sVLemma
p210
Vwith
p211
saa(lp212
Vthe
p213
a(dp214
VNamedEntityTag
p215
g77
sVCharacterOffsetEnd
p216
V71
p217
sVCharacterOffsetBegin
p218
V68
p219
sVPartOfSpeech
p220
VDT
p221
sVLemma
p222
Vthe
p223
saa(lp224
Vold
p225
a(dp226
VNamedEntityTag
p227
g77
sVCharacterOffsetEnd
p228
V75
p229
sVCharacterOffsetBegin
p230
V72
p231
sVPartOfSpeech
p232
VJJ
p233
sVLemma
p234
Vold
p235
saa(lp236
Vcoach
p237
a(dp238
VNamedEntityTag
p239
g77
sVCharacterOffsetEnd
p240
V81
p241
sVCharacterOffsetBegin
p242
V76
p243
sVPartOfSpeech
p244
VNN
p245
sVLemma
p246
Vcoach
p247
saa(lp248
V.
p249
a(dp250
VNamedEntityTag
p251
g77
sVCharacterOffsetEnd
p252
V83
p253
sVCharacterOffsetBegin
p254
V82
p255
sVPartOfSpeech
p256
g249
sVLemma
p257
g249
saasVindexeddependencies
p258
(lp259
(lp260
Vroot
p261
aVROOT-0
p262
aVhad-8
p263
aa(lp264
Vdet
p265
aVsquad-3
p266
aVThe-1
p267
aa(lp268
Vnn
p269
aVsquad-3
p270
aVcheerleading-2
p271
aa(lp272
Vnsubj
p273
aVhad-8
p274
aVsquad-3
p275
aa(lp276
Vnn
p277
aVSchool-7
p278
aVLakeside-5
p279
aa(lp280
Vnn
p281
aVSchool-7
p282
aVHigh-6
p283
aa(lp284
Vprep_at
p285
aVsquad-3
p286
aVSchool-7
p287
aa(lp288
Vnum
p289
aVmembers-10
p290
aV10-9
p291
aa(lp292
Vdobj
p293
aVhad-8
p294
aVmembers-10
p295
aa(lp296
Vdet
p297
aVcoach-14
p298
aVthe-12
p299
aa(lp300
Vamod
p301
aVcoach-14
p302
aVold-13
p303
aa(lp304
Vprep_with
p305
aVmembers-10
p306
aVcoach-14
p307
aasa(dp308
Vparsetree
p309
V(ROOT (S (ADVP (RB Now)) (, ,) (PP (IN with) (NP (DT the) (JJ new) (NN coach))) (, ,) (NP (EX there)) (VP (VBP are) (NP (NP (CD 15) (NNS members)) (PP (IN on) (NP (DT the) (NN squad))))) (. .)))
p310
sVtext
p311
VNow , with the new coach , there are 15 members on the squad .
p312
sVdependencies
p313
(lp314
(lp315
Vroot
p316
aVROOT
p317
aVare
p318
aa(lp319
Vadvmod
p320
aVare
p321
aVNow
p322
aa(lp323
Vdet
p324
aVcoach
p325
aVthe
p326
aa(lp327
Vamod
p328
aVcoach
p329
aVnew
p330
aa(lp331
Vprep_with
p332
aVare
p333
aVcoach
p334
aa(lp335
Vexpl
p336
aVare
p337
aVthere
p338
aa(lp339
Vnum
p340
aVmembers
p341
aV15
p342
aa(lp343
Vnsubj
p344
aVare
p345
aVmembers
p346
aa(lp347
Vdet
p348
aVsquad
p349
aVthe
p350
aa(lp351
Vprep_on
p352
aVmembers
p353
aVsquad
p354
aasVwords
p355
(lp356
(lp357
VNow
p358
a(dp359
VNormalizedNamedEntityTag
p360
VPRESENT_REF
p361
sVTimex
p362
V<TIMEX3 tid="t1" type="DATE" value="PRESENT_REF">Now</TIMEX3>
p363
sVLemma
p364
Vnow
p365
sVCharacterOffsetEnd
p366
V87
p367
sVPartOfSpeech
p368
VRB
p369
sVCharacterOffsetBegin
p370
V84
p371
sVNamedEntityTag
p372
VDATE
p373
saa(lp374
V,
p375
a(dp376
VNamedEntityTag
p377
g77
sVCharacterOffsetEnd
p378
V89
p379
sVCharacterOffsetBegin
p380
V88
p381
sVPartOfSpeech
p382
g375
sVLemma
p383
g375
saa(lp384
Vwith
p385
a(dp386
VNamedEntityTag
p387
g77
sVCharacterOffsetEnd
p388
V94
p389
sVCharacterOffsetBegin
p390
V90
p391
sVPartOfSpeech
p392
VIN
p393
sVLemma
p394
Vwith
p395
saa(lp396
Vthe
p397
a(dp398
VNamedEntityTag
p399
g77
sVCharacterOffsetEnd
p400
V98
p401
sVCharacterOffsetBegin
p402
V95
p403
sVPartOfSpeech
p404
VDT
p405
sVLemma
p406
Vthe
p407
saa(lp408
Vnew
p409
a(dp410
VNamedEntityTag
p411
g77
sVCharacterOffsetEnd
p412
V102
p413
sVCharacterOffsetBegin
p414
V99
p415
sVPartOfSpeech
p416
VJJ
p417
sVLemma
p418
Vnew
p419
saa(lp420
Vcoach
p421
a(dp422
VNamedEntityTag
p423
g77
sVCharacterOffsetEnd
p424
V108
p425
sVCharacterOffsetBegin
p426
V103
p427
sVPartOfSpeech
p428
VNN
p429
sVLemma
p430
Vcoach
p431
saa(lp432
g375
a(dp433
VNamedEntityTag
p434
g77
sVCharacterOffsetEnd
p435
V110
p436
sVCharacterOffsetBegin
p437
V109
p438
sVPartOfSpeech
p439
g375
sVLemma
p440
g375
saa(lp441
Vthere
p442
a(dp443
VNamedEntityTag
p444
g77
sVCharacterOffsetEnd
p445
V116
p446
sVCharacterOffsetBegin
p447
V111
p448
sVPartOfSpeech
p449
VEX
p450
sVLemma
p451
Vthere
p452
saa(lp453
Vare
p454
a(dp455
VNamedEntityTag
p456
g77
sVCharacterOffsetEnd
p457
V120
p458
sVCharacterOffsetBegin
p459
V117
p460
sVPartOfSpeech
p461
VVBP
p462
sVLemma
p463
Vbe
p464
saa(lp465
V15
p466
a(dp467
VNormalizedNamedEntityTag
p468
V15.0
p469
sVLemma
p470
V15
p471
sVCharacterOffsetEnd
p472
V123
p473
sVPartOfSpeech
p474
VCD
p475
sVCharacterOffsetBegin
p476
V121
p477
sVNamedEntityTag
p478
VNUMBER
p479
saa(lp480
Vmembers
p481
a(dp482
VNamedEntityTag
p483
g77
sVCharacterOffsetEnd
p484
V131
p485
sVCharacterOffsetBegin
p486
V124
p487
sVPartOfSpeech
p488
VNNS
p489
sVLemma
p490
Vmember
p491
saa(lp492
Von
p493
a(dp494
VNamedEntityTag
p495
g77
sVCharacterOffsetEnd
p496
V134
p497
sVCharacterOffsetBegin
p498
V132
p499
sVPartOfSpeech
p500
VIN
p501
sVLemma
p502
Von
p503
saa(lp504
Vthe
p505
a(dp506
VNamedEntityTag
p507
g77
sVCharacterOffsetEnd
p508
V138
p509
sVCharacterOffsetBegin
p510
V135
p511
sVPartOfSpeech
p512
VDT
p513
sVLemma
p514
Vthe
p515
saa(lp516
Vsquad
p517
a(dp518
VNamedEntityTag
p519
g77
sVCharacterOffsetEnd
p520
V144
p521
sVCharacterOffsetBegin
p522
V139
p523
sVPartOfSpeech
p524
VNN
p525
sVLemma
p526
Vsquad
p527
saa(lp528
g249
a(dp529
VNamedEntityTag
p530
g77
sVCharacterOffsetEnd
p531
V146
p532
sVCharacterOffsetBegin
p533
V145
p534
sVPartOfSpeech
p535
g249
sVLemma
p536
g249
saasVindexeddependencies
p537
(lp538
(lp539
Vroot
p540
aVROOT-0
p541
aVare-9
p542
aa(lp543
Vadvmod
p544
aVare-9
p545
aVNow-1
p546
aa(lp547
Vdet
p548
aVcoach-6
p549
aVthe-4
p550
aa(lp551
Vamod
p552
aVcoach-6
p553
aVnew-5
p554
aa(lp555
Vprep_with
p556
aVare-9
p557
aVcoach-6
p558
aa(lp559
Vexpl
p560
aVare-9
p561
aVthere-8
p562
aa(lp563
Vnum
p564
aVmembers-11
p565
aV15-10
p566
aa(lp567
Vnsubj
p568
aVare-9
p569
aVmembers-11
p570
aa(lp571
Vdet
p572
aVsquad-14
p573
aVthe-13
p574
aa(lp575
Vprep_on
p576
aVmembers-11
p577
aVsquad-14
p578
aasa(dp579
Vparsetree
p580
V(ROOT (SBARQ (WHNP (WP What)) (SQ (VBZ is) (NP (NP (DT the) (NNS times)) (PP (IN of) (NP (NP (NN increase)) (PP (IN in) (NP (NP (DT the) (NN squad) (POS 's)) (NN size))))))) (. ?)))
p581
sVtext
p582
VWhat is the times of increase in the squad's size ?
p583
sVdependencies
p584
(lp585
(lp586
Vroot
p587
aVROOT
p588
aVWhat
p589
aa(lp590
Vcop
p591
aVWhat
p592
aVis
p593
aa(lp594
Vdet
p595
aVtimes
p596
aVthe
p597
aa(lp598
Vnsubj
p599
aVWhat
p600
aVtimes
p601
aa(lp602
Vprep_of
p603
aVtimes
p604
aVincrease
p605
aa(lp606
Vdet
p607
aVsquad
p608
aVthe
p609
aa(lp610
Vposs
p611
aVsize
p612
aVsquad
p613
aa(lp614
Vprep_in
p615
aVincrease
p616
aVsize
p617
aasVwords
p618
(lp619
(lp620
VWhat
p621
a(dp622
VNamedEntityTag
p623
g77
sVCharacterOffsetEnd
p624
V151
p625
sVCharacterOffsetBegin
p626
V147
p627
sVPartOfSpeech
p628
VWP
p629
sVLemma
p630
Vwhat
p631
saa(lp632
Vis
p633
a(dp634
VNamedEntityTag
p635
g77
sVCharacterOffsetEnd
p636
V154
p637
sVCharacterOffsetBegin
p638
V152
p639
sVPartOfSpeech
p640
VVBZ
p641
sVLemma
p642
Vbe
p643
saa(lp644
Vthe
p645
a(dp646
VNamedEntityTag
p647
g77
sVCharacterOffsetEnd
p648
V158
p649
sVCharacterOffsetBegin
p650
V155
p651
sVPartOfSpeech
p652
VDT
p653
sVLemma
p654
Vthe
p655
saa(lp656
Vtimes
p657
a(dp658
VNamedEntityTag
p659
g77
sVCharacterOffsetEnd
p660
V164
p661
sVCharacterOffsetBegin
p662
V159
p663
sVPartOfSpeech
p664
VNNS
p665
sVLemma
p666
Vtime
p667
saa(lp668
Vof
p669
a(dp670
VNamedEntityTag
p671
g77
sVCharacterOffsetEnd
p672
V167
p673
sVCharacterOffsetBegin
p674
V165
p675
sVPartOfSpeech
p676
VIN
p677
sVLemma
p678
Vof
p679
saa(lp680
Vincrease
p681
a(dp682
VNamedEntityTag
p683
g77
sVCharacterOffsetEnd
p684
V176
p685
sVCharacterOffsetBegin
p686
V168
p687
sVPartOfSpeech
p688
VNN
p689
sVLemma
p690
Vincrease
p691
saa(lp692
Vin
p693
a(dp694
VNamedEntityTag
p695
g77
sVCharacterOffsetEnd
p696
V179
p697
sVCharacterOffsetBegin
p698
V177
p699
sVPartOfSpeech
p700
VIN
p701
sVLemma
p702
Vin
p703
saa(lp704
Vthe
p705
a(dp706
VNamedEntityTag
p707
g77
sVCharacterOffsetEnd
p708
V183
p709
sVCharacterOffsetBegin
p710
V180
p711
sVPartOfSpeech
p712
VDT
p713
sVLemma
p714
Vthe
p715
saa(lp716
Vsquad
p717
a(dp718
VNamedEntityTag
p719
g77
sVCharacterOffsetEnd
p720
V189
p721
sVCharacterOffsetBegin
p722
V184
p723
sVPartOfSpeech
p724
VNN
p725
sVLemma
p726
Vsquad
p727
saa(lp728
V's
p729
a(dp730
VNamedEntityTag
p731
g77
sVCharacterOffsetEnd
p732
V191
p733
sVCharacterOffsetBegin
p734
V189
p735
sVPartOfSpeech
p736
VPOS
p737
sVLemma
p738
V's
p739
saa(lp740
Vsize
p741
a(dp742
VNamedEntityTag
p743
g77
sVCharacterOffsetEnd
p744
V196
p745
sVCharacterOffsetBegin
p746
V192
p747
sVPartOfSpeech
p748
VNN
p749
sVLemma
p750
Vsize
p751
saa(lp752
V?
p753
a(dp754
VNamedEntityTag
p755
g77
sVCharacterOffsetEnd
p756
V198
p757
sVCharacterOffsetBegin
p758
V197
p759
sVPartOfSpeech
p760
g249
sVLemma
p761
g753
saasVindexeddependencies
p762
(lp763
(lp764
Vroot
p765
aVROOT-0
p766
aVWhat-1
p767
aa(lp768
Vcop
p769
aVWhat-1
p770
aVis-2
p771
aa(lp772
Vdet
p773
aVtimes-4
p774
aVthe-3
p775
aa(lp776
Vnsubj
p777
aVWhat-1
p778
aVtimes-4
p779
aa(lp780
Vprep_of
p781
aVtimes-4
p782
aVincrease-6
p783
aa(lp784
Vdet
p785
aVsquad-9
p786
aVthe-8
p787
aa(lp788
Vposs
p789
aVsize-11
p790
aVsquad-9
p791
aa(lp792
Vprep_in
p793
aVincrease-6
p794
aVsize-11
p795
aasas.