(dp0
Vcoref
p1
(lp2
(lp3
(lp4
(lp5
Vshe
p6
aI1
aI13
aI13
aI14
aa(lp7
VIsabel
p8
aI0
aI0
aI0
aI1
aaaa(lp9
(lp10
(lp11
Vit
p12
aI1
aI7
aI7
aI8
aa(lp13
Veach page
p14
aI1
aI2
aI1
aI3
aaaasVsentences
p15
(lp16
(dp17
Vparsetree
p18
V(ROOT (S (NP (NNP Isabel)) (VP (VBD had) (NP (NP (NP (CD 2) (NNS pages)) (PP (IN of) (NP (NN math) (NN homework)))) (CC and) (NP (NP (CD 4) (NNS pages)) (PP (IN of) (S (VP (VBG reading) (NP (NN homework)))))))) (. .)))
p19
sVtext
p20
VIsabel had 2 pages of math homework and 4 pages of reading homework .
p21
sVdependencies
p22
(lp23
(lp24
Vroot
p25
aVROOT
p26
aVhad
p27
aa(lp28
Vnsubj
p29
aVhad
p30
aVIsabel
p31
aa(lp32
Vnum
p33
aVpages
p34
aV2
p35
aa(lp36
Vdobj
p37
aVhad
p38
aVpages
p39
aa(lp40
Vnn
p41
aVhomework
p42
aVmath
p43
aa(lp44
Vprep_of
p45
aVpages
p46
aVhomework
p47
aa(lp48
Vnum
p49
aVpages
p50
aV4
p51
aa(lp52
Vconj_and
p53
aVpages
p54
aVpages
p55
aa(lp56
Vprepc_of
p57
aVpages
p58
aVreading
p59
aa(lp60
Vdobj
p61
aVreading
p62
aVhomework
p63
aasVwords
p64
(lp65
(lp66
VIsabel
p67
a(dp68
VNamedEntityTag
p69
VMISC
p70
sVCharacterOffsetEnd
p71
V7
p72
sVCharacterOffsetBegin
p73
V1
p74
sVPartOfSpeech
p75
VNNP
p76
sVLemma
p77
VIsabel
p78
saa(lp79
Vhad
p80
a(dp81
VNamedEntityTag
p82
VO
p83
sVCharacterOffsetEnd
p84
V11
p85
sVCharacterOffsetBegin
p86
V8
p87
sVPartOfSpeech
p88
VVBD
p89
sVLemma
p90
Vhave
p91
saa(lp92
g35
a(dp93
VNormalizedNamedEntityTag
p94
V2.0
p95
sVLemma
p96
g35
sVCharacterOffsetEnd
p97
V13
p98
sVPartOfSpeech
p99
VCD
p100
sVCharacterOffsetBegin
p101
V12
p102
sVNamedEntityTag
p103
VNUMBER
p104
saa(lp105
Vpages
p106
a(dp107
VNamedEntityTag
p108
g83
sVCharacterOffsetEnd
p109
V19
p110
sVCharacterOffsetBegin
p111
V14
p112
sVPartOfSpeech
p113
VNNS
p114
sVLemma
p115
Vpage
p116
saa(lp117
Vof
p118
a(dp119
VNamedEntityTag
p120
g83
sVCharacterOffsetEnd
p121
V22
p122
sVCharacterOffsetBegin
p123
V20
p124
sVPartOfSpeech
p125
VIN
p126
sVLemma
p127
Vof
p128
saa(lp129
Vmath
p130
a(dp131
VNamedEntityTag
p132
g83
sVCharacterOffsetEnd
p133
V27
p134
sVCharacterOffsetBegin
p135
V23
p136
sVPartOfSpeech
p137
VNN
p138
sVLemma
p139
Vmath
p140
saa(lp141
Vhomework
p142
a(dp143
VNamedEntityTag
p144
g83
sVCharacterOffsetEnd
p145
V36
p146
sVCharacterOffsetBegin
p147
V28
p148
sVPartOfSpeech
p149
VNN
p150
sVLemma
p151
Vhomework
p152
saa(lp153
Vand
p154
a(dp155
VNamedEntityTag
p156
g83
sVCharacterOffsetEnd
p157
V40
p158
sVCharacterOffsetBegin
p159
V37
p160
sVPartOfSpeech
p161
VCC
p162
sVLemma
p163
Vand
p164
saa(lp165
g51
a(dp166
VNormalizedNamedEntityTag
p167
V4.0
p168
sVLemma
p169
g51
sVCharacterOffsetEnd
p170
V42
p171
sVPartOfSpeech
p172
VCD
p173
sVCharacterOffsetBegin
p174
V41
p175
sVNamedEntityTag
p176
VNUMBER
p177
saa(lp178
Vpages
p179
a(dp180
VNamedEntityTag
p181
g83
sVCharacterOffsetEnd
p182
V48
p183
sVCharacterOffsetBegin
p184
V43
p185
sVPartOfSpeech
p186
VNNS
p187
sVLemma
p188
Vpage
p189
saa(lp190
Vof
p191
a(dp192
VNamedEntityTag
p193
g83
sVCharacterOffsetEnd
p194
V51
p195
sVCharacterOffsetBegin
p196
V49
p197
sVPartOfSpeech
p198
VIN
p199
sVLemma
p200
Vof
p201
saa(lp202
Vreading
p203
a(dp204
VNamedEntityTag
p205
g83
sVCharacterOffsetEnd
p206
V59
p207
sVCharacterOffsetBegin
p208
V52
p209
sVPartOfSpeech
p210
VVBG
p211
sVLemma
p212
Vread
p213
saa(lp214
Vhomework
p215
a(dp216
VNamedEntityTag
p217
g83
sVCharacterOffsetEnd
p218
V68
p219
sVCharacterOffsetBegin
p220
V60
p221
sVPartOfSpeech
p222
VNN
p223
sVLemma
p224
Vhomework
p225
saa(lp226
V.
p227
a(dp228
VNamedEntityTag
p229
g83
sVCharacterOffsetEnd
p230
V70
p231
sVCharacterOffsetBegin
p232
V69
p233
sVPartOfSpeech
p234
g227
sVLemma
p235
g227
saasVindexeddependencies
p236
(lp237
(lp238
Vroot
p239
aVROOT-0
p240
aVhad-2
p241
aa(lp242
Vnsubj
p243
aVhad-2
p244
aVIsabel-1
p245
aa(lp246
Vnum
p247
aVpages-4
p248
aV2-3
p249
aa(lp250
Vdobj
p251
aVhad-2
p252
aVpages-4
p253
aa(lp254
Vnn
p255
aVhomework-7
p256
aVmath-6
p257
aa(lp258
Vprep_of
p259
aVpages-4
p260
aVhomework-7
p261
aa(lp262
Vnum
p263
aVpages-10
p264
aV4-9
p265
aa(lp266
Vconj_and
p267
aVpages-4
p268
aVpages-10
p269
aa(lp270
Vprepc_of
p271
aVpages-10
p272
aVreading-12
p273
aa(lp274
Vdobj
p275
aVreading-12
p276
aVhomework-13
p277
aasa(dp278
Vparsetree
p279
V(ROOT (SBARQ (SBAR (IN If) (S (NP (DT each) (NN page)) (VP (VBD had) (NP (NP (CD 5) (NNS problems)) (PP (IN on) (NP (PRP it))))))) (, ,) (WHADVP (WRB how) (NP (JJ many) (NNS problems))) (SQ (VBD did) (NP (PRP she)) (VP (VB have) (PP (TO to) (NP (JJ complete) (NN total))))) (. ?)))
p280
sVtext
p281
VIf each page had 5 problems on it , how many problems did she have to complete total ?
p282
sVdependencies
p283
(lp284
(lp285
Vroot
p286
aVROOT
p287
aVhave
p288
aa(lp289
Vmark
p290
aVhad
p291
aVIf
p292
aa(lp293
Vdet
p294
aVpage
p295
aVeach
p296
aa(lp297
Vnsubj
p298
aVhad
p299
aVpage
p300
aa(lp301
Vadvcl
p302
aVhave
p303
aVhad
p304
aa(lp305
Vnum
p306
aVproblems
p307
aV5
p308
aa(lp309
Vdobj
p310
aVhad
p311
aVproblems
p312
aa(lp313
Vprep_on
p314
aVproblems
p315
aVit
p316
aa(lp317
Vadvmod
p318
aVhave
p319
aVhow
p320
aa(lp321
Vamod
p322
aVproblems
p323
aVmany
p324
aa(lp325
Vdep
p326
aVhow
p327
aVproblems
p328
aa(lp329
Vaux
p330
aVhave
p331
aVdid
p332
aa(lp333
Vnsubj
p334
aVhave
p335
aVshe
p336
aa(lp337
Vamod
p338
aVtotal
p339
aVcomplete
p340
aa(lp341
Vprep_to
p342
aVhave
p343
aVtotal
p344
aasVwords
p345
(lp346
(lp347
VIf
p348
a(dp349
VNamedEntityTag
p350
g83
sVCharacterOffsetEnd
p351
V73
p352
sVCharacterOffsetBegin
p353
V71
p354
sVPartOfSpeech
p355
VIN
p356
sVLemma
p357
Vif
p358
saa(lp359
Veach
p360
a(dp361
VNamedEntityTag
p362
g83
sVCharacterOffsetEnd
p363
V78
p364
sVCharacterOffsetBegin
p365
V74
p366
sVPartOfSpeech
p367
VDT
p368
sVLemma
p369
Veach
p370
saa(lp371
Vpage
p372
a(dp373
VNamedEntityTag
p374
g83
sVCharacterOffsetEnd
p375
V83
p376
sVCharacterOffsetBegin
p377
V79
p378
sVPartOfSpeech
p379
VNN
p380
sVLemma
p381
Vpage
p382
saa(lp383
Vhad
p384
a(dp385
VNamedEntityTag
p386
g83
sVCharacterOffsetEnd
p387
V87
p388
sVCharacterOffsetBegin
p389
V84
p390
sVPartOfSpeech
p391
VVBD
p392
sVLemma
p393
Vhave
p394
saa(lp395
g308
a(dp396
VNormalizedNamedEntityTag
p397
V5.0
p398
sVLemma
p399
g308
sVCharacterOffsetEnd
p400
V89
p401
sVPartOfSpeech
p402
VCD
p403
sVCharacterOffsetBegin
p404
V88
p405
sVNamedEntityTag
p406
VNUMBER
p407
saa(lp408
Vproblems
p409
a(dp410
VNamedEntityTag
p411
g83
sVCharacterOffsetEnd
p412
V98
p413
sVCharacterOffsetBegin
p414
V90
p415
sVPartOfSpeech
p416
VNNS
p417
sVLemma
p418
Vproblem
p419
saa(lp420
Von
p421
a(dp422
VNamedEntityTag
p423
g83
sVCharacterOffsetEnd
p424
V101
p425
sVCharacterOffsetBegin
p426
V99
p427
sVPartOfSpeech
p428
VIN
p429
sVLemma
p430
Von
p431
saa(lp432
Vit
p433
a(dp434
VNamedEntityTag
p435
g83
sVCharacterOffsetEnd
p436
V104
p437
sVCharacterOffsetBegin
p438
V102
p439
sVPartOfSpeech
p440
VPRP
p441
sVLemma
p442
Vit
p443
saa(lp444
V,
p445
a(dp446
VNamedEntityTag
p447
g83
sVCharacterOffsetEnd
p448
V106
p449
sVCharacterOffsetBegin
p450
V105
p451
sVPartOfSpeech
p452
g445
sVLemma
p453
g445
saa(lp454
Vhow
p455
a(dp456
VNamedEntityTag
p457
g83
sVCharacterOffsetEnd
p458
V110
p459
sVCharacterOffsetBegin
p460
V107
p461
sVPartOfSpeech
p462
VWRB
p463
sVLemma
p464
Vhow
p465
saa(lp466
Vmany
p467
a(dp468
VNamedEntityTag
p469
g83
sVCharacterOffsetEnd
p470
V115
p471
sVCharacterOffsetBegin
p472
V111
p473
sVPartOfSpeech
p474
VJJ
p475
sVLemma
p476
Vmany
p477
saa(lp478
Vproblems
p479
a(dp480
VNamedEntityTag
p481
g83
sVCharacterOffsetEnd
p482
V124
p483
sVCharacterOffsetBegin
p484
V116
p485
sVPartOfSpeech
p486
VNNS
p487
sVLemma
p488
Vproblem
p489
saa(lp490
Vdid
p491
a(dp492
VNamedEntityTag
p493
g83
sVCharacterOffsetEnd
p494
V128
p495
sVCharacterOffsetBegin
p496
V125
p497
sVPartOfSpeech
p498
VVBD
p499
sVLemma
p500
Vdo
p501
saa(lp502
Vshe
p503
a(dp504
VNamedEntityTag
p505
g83
sVCharacterOffsetEnd
p506
V132
p507
sVCharacterOffsetBegin
p508
V129
p509
sVPartOfSpeech
p510
VPRP
p511
sVLemma
p512
Vshe
p513
saa(lp514
Vhave
p515
a(dp516
VNamedEntityTag
p517
g83
sVCharacterOffsetEnd
p518
V137
p519
sVCharacterOffsetBegin
p520
V133
p521
sVPartOfSpeech
p522
VVB
p523
sVLemma
p524
Vhave
p525
saa(lp526
Vto
p527
a(dp528
VNamedEntityTag
p529
g83
sVCharacterOffsetEnd
p530
V140
p531
sVCharacterOffsetBegin
p532
V138
p533
sVPartOfSpeech
p534
VTO
p535
sVLemma
p536
Vto
p537
saa(lp538
Vcomplete
p539
a(dp540
VNamedEntityTag
p541
g83
sVCharacterOffsetEnd
p542
V149
p543
sVCharacterOffsetBegin
p544
V141
p545
sVPartOfSpeech
p546
VJJ
p547
sVLemma
p548
Vcomplete
p549
saa(lp550
Vtotal
p551
a(dp552
VNamedEntityTag
p553
g83
sVCharacterOffsetEnd
p554
V155
p555
sVCharacterOffsetBegin
p556
V150
p557
sVPartOfSpeech
p558
VNN
p559
sVLemma
p560
Vtotal
p561
saa(lp562
V?
p563
a(dp564
VNamedEntityTag
p565
g83
sVCharacterOffsetEnd
p566
V157
p567
sVCharacterOffsetBegin
p568
V156
p569
sVPartOfSpeech
p570
g227
sVLemma
p571
g563
saasVindexeddependencies
p572
(lp573
(lp574
Vroot
p575
aVROOT-0
p576
aVhave-15
p577
aa(lp578
Vmark
p579
aVhad-4
p580
aVIf-1
p581
aa(lp582
Vdet
p583
aVpage-3
p584
aVeach-2
p585
aa(lp586
Vnsubj
p587
aVhad-4
p588
aVpage-3
p589
aa(lp590
Vadvcl
p591
aVhave-15
p592
aVhad-4
p593
aa(lp594
Vnum
p595
aVproblems-6
p596
aV5-5
p597
aa(lp598
Vdobj
p599
aVhad-4
p600
aVproblems-6
p601
aa(lp602
Vprep_on
p603
aVproblems-6
p604
aVit-8
p605
aa(lp606
Vadvmod
p607
aVhave-15
p608
aVhow-10
p609
aa(lp610
Vamod
p611
aVproblems-12
p612
aVmany-11
p613
aa(lp614
Vdep
p615
aVhow-10
p616
aVproblems-12
p617
aa(lp618
Vaux
p619
aVhave-15
p620
aVdid-13
p621
aa(lp622
Vnsubj
p623
aVhave-15
p624
aVshe-14
p625
aa(lp626
Vamod
p627
aVtotal-18
p628
aVcomplete-17
p629
aa(lp630
Vprep_to
p631
aVhave-15
p632
aVtotal-18
p633
aasas.