(dp0
Vcoref
p1
(lp2
(lp3
(lp4
(lp5
VMontoya
p6
aI1
aI9
aI9
aI10
aa(lp7
VMontoya
p8
aI0
aI1
aI1
aI2
aaaa(lp9
(lp10
(lp11
Vthe Montoya family
p12
aI1
aI10
aI8
aI11
aa(lp13
VThe Montoya family
p14
aI0
aI2
aI0
aI3
aaaa(lp15
(lp16
(lp17
Vtheir budget
p18
aI1
aI6
aI5
aI7
aa(lp19
Vtheir budget on groceries
p20
aI0
aI7
aI6
aI10
aaaa(lp21
(lp22
(lp23
Vtheir
p24
aI1
aI5
aI5
aI6
aa(lp25
Vtheir
p26
aI0
aI6
aI6
aI7
aaaasVsentences
p27
(lp28
(dp29
Vparsetree
p30
V(ROOT (S (NP (DT The) (NNP Montoya) (NN family)) (VP (VBZ spends) (NP (NP (CD 0.6)) (PP (IN of) (NP (NP (NP (PRP$ their) (NN budget)) (PP (IN on) (NP (NNS groceries)))) (CC and) (NP (NP (DT another) (CD 0.2)) (VP (VBG going) (PRT (RP out)) (S (VP (TO to) (VP (VB eat)))))))))) (. .)))
p31
sVtext
p32
VThe Montoya family spends 0.6 of their budget on groceries and another 0.2 going out to eat .
p33
sVdependencies
p34
(lp35
(lp36
Vroot
p37
aVROOT
p38
aVspends
p39
aa(lp40
Vdet
p41
aVfamily
p42
aVThe
p43
aa(lp44
Vnn
p45
aVfamily
p46
aVMontoya
p47
aa(lp48
Vnsubj
p49
aVspends
p50
aVfamily
p51
aa(lp52
Vdobj
p53
aVspends
p54
aV0.6
p55
aa(lp56
Vposs
p57
aVbudget
p58
aVtheir
p59
aa(lp60
Vprep_of
p61
aV0.6
p62
aVbudget
p63
aa(lp64
Vprep_on
p65
aVbudget
p66
aVgroceries
p67
aa(lp68
Vdet
p69
aV0.2
p70
aVanother
p71
aa(lp72
Vconj_and
p73
aVbudget
p74
aV0.2
p75
aa(lp76
Vvmod
p77
aV0.2
p78
aVgoing
p79
aa(lp80
Vprt
p81
aVgoing
p82
aVout
p83
aa(lp84
Vaux
p85
aVeat
p86
aVto
p87
aa(lp88
Vxcomp
p89
aVgoing
p90
aVeat
p91
aasVwords
p92
(lp93
(lp94
VThe
p95
a(dp96
VNamedEntityTag
p97
VO
p98
sVCharacterOffsetEnd
p99
V4
p100
sVCharacterOffsetBegin
p101
V1
p102
sVPartOfSpeech
p103
VDT
p104
sVLemma
p105
Vthe
p106
saa(lp107
VMontoya
p108
a(dp109
VNamedEntityTag
p110
VPERSON
p111
sVCharacterOffsetEnd
p112
V12
p113
sVCharacterOffsetBegin
p114
V5
p115
sVPartOfSpeech
p116
VNNP
p117
sVLemma
p118
VMontoya
p119
saa(lp120
Vfamily
p121
a(dp122
VNamedEntityTag
p123
g98
sVCharacterOffsetEnd
p124
V19
p125
sVCharacterOffsetBegin
p126
V13
p127
sVPartOfSpeech
p128
VNN
p129
sVLemma
p130
Vfamily
p131
saa(lp132
Vspends
p133
a(dp134
VNamedEntityTag
p135
g98
sVCharacterOffsetEnd
p136
V26
p137
sVCharacterOffsetBegin
p138
V20
p139
sVPartOfSpeech
p140
VVBZ
p141
sVLemma
p142
Vspend
p143
saa(lp144
V0.6
p145
a(dp146
VNormalizedNamedEntityTag
p147
V0.6
p148
sVLemma
p149
V0.6
p150
sVCharacterOffsetEnd
p151
V30
p152
sVPartOfSpeech
p153
VCD
p154
sVCharacterOffsetBegin
p155
V27
p156
sVNamedEntityTag
p157
VNUMBER
p158
saa(lp159
Vof
p160
a(dp161
VNamedEntityTag
p162
g98
sVCharacterOffsetEnd
p163
V33
p164
sVCharacterOffsetBegin
p165
V31
p166
sVPartOfSpeech
p167
VIN
p168
sVLemma
p169
Vof
p170
saa(lp171
Vtheir
p172
a(dp173
VNamedEntityTag
p174
g98
sVCharacterOffsetEnd
p175
V39
p176
sVCharacterOffsetBegin
p177
V34
p178
sVPartOfSpeech
p179
VPRP$
p180
sVLemma
p181
Vthey
p182
saa(lp183
Vbudget
p184
a(dp185
VNamedEntityTag
p186
g98
sVCharacterOffsetEnd
p187
V46
p188
sVCharacterOffsetBegin
p189
V40
p190
sVPartOfSpeech
p191
VNN
p192
sVLemma
p193
Vbudget
p194
saa(lp195
Von
p196
a(dp197
VNamedEntityTag
p198
g98
sVCharacterOffsetEnd
p199
V49
p200
sVCharacterOffsetBegin
p201
V47
p202
sVPartOfSpeech
p203
VIN
p204
sVLemma
p205
Von
p206
saa(lp207
Vgroceries
p208
a(dp209
VNamedEntityTag
p210
g98
sVCharacterOffsetEnd
p211
V59
p212
sVCharacterOffsetBegin
p213
V50
p214
sVPartOfSpeech
p215
VNNS
p216
sVLemma
p217
Vgrocery
p218
saa(lp219
Vand
p220
a(dp221
VNamedEntityTag
p222
g98
sVCharacterOffsetEnd
p223
V63
p224
sVCharacterOffsetBegin
p225
V60
p226
sVPartOfSpeech
p227
VCC
p228
sVLemma
p229
Vand
p230
saa(lp231
Vanother
p232
a(dp233
VNamedEntityTag
p234
g98
sVCharacterOffsetEnd
p235
V71
p236
sVCharacterOffsetBegin
p237
V64
p238
sVPartOfSpeech
p239
VDT
p240
sVLemma
p241
Vanother
p242
saa(lp243
V0.2
p244
a(dp245
VNormalizedNamedEntityTag
p246
V0.2
p247
sVLemma
p248
V0.2
p249
sVCharacterOffsetEnd
p250
V75
p251
sVPartOfSpeech
p252
VCD
p253
sVCharacterOffsetBegin
p254
V72
p255
sVNamedEntityTag
p256
VNUMBER
p257
saa(lp258
Vgoing
p259
a(dp260
VNamedEntityTag
p261
g98
sVCharacterOffsetEnd
p262
V81
p263
sVCharacterOffsetBegin
p264
V76
p265
sVPartOfSpeech
p266
VVBG
p267
sVLemma
p268
Vgo
p269
saa(lp270
Vout
p271
a(dp272
VNamedEntityTag
p273
g98
sVCharacterOffsetEnd
p274
V85
p275
sVCharacterOffsetBegin
p276
V82
p277
sVPartOfSpeech
p278
VRP
p279
sVLemma
p280
Vout
p281
saa(lp282
Vto
p283
a(dp284
VNamedEntityTag
p285
g98
sVCharacterOffsetEnd
p286
V88
p287
sVCharacterOffsetBegin
p288
V86
p289
sVPartOfSpeech
p290
VTO
p291
sVLemma
p292
Vto
p293
saa(lp294
Veat
p295
a(dp296
VNamedEntityTag
p297
g98
sVCharacterOffsetEnd
p298
V92
p299
sVCharacterOffsetBegin
p300
V89
p301
sVPartOfSpeech
p302
VVB
p303
sVLemma
p304
Veat
p305
saa(lp306
V.
p307
a(dp308
VNamedEntityTag
p309
g98
sVCharacterOffsetEnd
p310
V94
p311
sVCharacterOffsetBegin
p312
V93
p313
sVPartOfSpeech
p314
g307
sVLemma
p315
g307
saasVindexeddependencies
p316
(lp317
(lp318
Vroot
p319
aVROOT-0
p320
aVspends-4
p321
aa(lp322
Vdet
p323
aVfamily-3
p324
aVThe-1
p325
aa(lp326
Vnn
p327
aVfamily-3
p328
aVMontoya-2
p329
aa(lp330
Vnsubj
p331
aVspends-4
p332
aVfamily-3
p333
aa(lp334
Vdobj
p335
aVspends-4
p336
aV0.6-5
p337
aa(lp338
Vposs
p339
aVbudget-8
p340
aVtheir-7
p341
aa(lp342
Vprep_of
p343
aV0.6-5
p344
aVbudget-8
p345
aa(lp346
Vprep_on
p347
aVbudget-8
p348
aVgroceries-10
p349
aa(lp350
Vdet
p351
aV0.2-13
p352
aVanother-12
p353
aa(lp354
Vconj_and
p355
aVbudget-8
p356
aV0.2-13
p357
aa(lp358
Vvmod
p359
aV0.2-13
p360
aVgoing-14
p361
aa(lp362
Vprt
p363
aVgoing-14
p364
aVout-15
p365
aa(lp366
Vaux
p367
aVeat-17
p368
aVto-16
p369
aa(lp370
Vxcomp
p371
aVgoing-14
p372
aVeat-17
p373
aasa(dp374
Vparsetree
p375
V(ROOT (SBARQ (FRAG (RB Altogether)) (, ,) (SBARQ (WHNP (WDT what) (NP (NN fraction) (PP (IN of) (NP (PRP$ their) (NN budget))))) (SQ (VBZ does) (NP (DT the) (NNP Montoya) (NN family)) (VP (VB spend) (PP (IN on) (NP (NN food)))))) (. ?)))
p376
sVtext
p377
VAltogether , what fraction of their budget does the Montoya family spend on food ?
p378
sVdependencies
p379
(lp380
(lp381
Vroot
p382
aVROOT
p383
aVspend
p384
aa(lp385
Vdep
p386
aVspend
p387
aVAltogether
p388
aa(lp389
Vdet
p390
aVfraction
p391
aVwhat
p392
aa(lp393
Vdobj
p394
aVspend
p395
aVfraction
p396
aa(lp397
Vposs
p398
aVbudget
p399
aVtheir
p400
aa(lp401
Vprep_of
p402
aVfraction
p403
aVbudget
p404
aa(lp405
Vaux
p406
aVspend
p407
aVdoes
p408
aa(lp409
Vdet
p410
aVfamily
p411
aVthe
p412
aa(lp413
Vnn
p414
aVfamily
p415
aVMontoya
p416
aa(lp417
Vnsubj
p418
aVspend
p419
aVfamily
p420
aa(lp421
Vprep_on
p422
aVspend
p423
aVfood
p424
aasVwords
p425
(lp426
(lp427
VAltogether
p428
a(dp429
VNamedEntityTag
p430
g98
sVCharacterOffsetEnd
p431
V105
p432
sVCharacterOffsetBegin
p433
V95
p434
sVPartOfSpeech
p435
VRB
p436
sVLemma
p437
Valtogether
p438
saa(lp439
V,
p440
a(dp441
VNamedEntityTag
p442
g98
sVCharacterOffsetEnd
p443
V107
p444
sVCharacterOffsetBegin
p445
V106
p446
sVPartOfSpeech
p447
g440
sVLemma
p448
g440
saa(lp449
Vwhat
p450
a(dp451
VNamedEntityTag
p452
g98
sVCharacterOffsetEnd
p453
V112
p454
sVCharacterOffsetBegin
p455
V108
p456
sVPartOfSpeech
p457
VWDT
p458
sVLemma
p459
Vwhat
p460
saa(lp461
Vfraction
p462
a(dp463
VNamedEntityTag
p464
g98
sVCharacterOffsetEnd
p465
V121
p466
sVCharacterOffsetBegin
p467
V113
p468
sVPartOfSpeech
p469
VNN
p470
sVLemma
p471
Vfraction
p472
saa(lp473
Vof
p474
a(dp475
VNamedEntityTag
p476
g98
sVCharacterOffsetEnd
p477
V124
p478
sVCharacterOffsetBegin
p479
V122
p480
sVPartOfSpeech
p481
VIN
p482
sVLemma
p483
Vof
p484
saa(lp485
Vtheir
p486
a(dp487
VNamedEntityTag
p488
g98
sVCharacterOffsetEnd
p489
V130
p490
sVCharacterOffsetBegin
p491
V125
p492
sVPartOfSpeech
p493
VPRP$
p494
sVLemma
p495
Vthey
p496
saa(lp497
Vbudget
p498
a(dp499
VNamedEntityTag
p500
g98
sVCharacterOffsetEnd
p501
V137
p502
sVCharacterOffsetBegin
p503
V131
p504
sVPartOfSpeech
p505
VNN
p506
sVLemma
p507
Vbudget
p508
saa(lp509
Vdoes
p510
a(dp511
VNamedEntityTag
p512
g98
sVCharacterOffsetEnd
p513
V142
p514
sVCharacterOffsetBegin
p515
V138
p516
sVPartOfSpeech
p517
VVBZ
p518
sVLemma
p519
Vdo
p520
saa(lp521
Vthe
p522
a(dp523
VNamedEntityTag
p524
g98
sVCharacterOffsetEnd
p525
V146
p526
sVCharacterOffsetBegin
p527
V143
p528
sVPartOfSpeech
p529
VDT
p530
sVLemma
p531
Vthe
p532
saa(lp533
VMontoya
p534
a(dp535
VNamedEntityTag
p536
VPERSON
p537
sVCharacterOffsetEnd
p538
V154
p539
sVCharacterOffsetBegin
p540
V147
p541
sVPartOfSpeech
p542
VNNP
p543
sVLemma
p544
VMontoya
p545
saa(lp546
Vfamily
p547
a(dp548
VNamedEntityTag
p549
g98
sVCharacterOffsetEnd
p550
V161
p551
sVCharacterOffsetBegin
p552
V155
p553
sVPartOfSpeech
p554
VNN
p555
sVLemma
p556
Vfamily
p557
saa(lp558
Vspend
p559
a(dp560
VNamedEntityTag
p561
g98
sVCharacterOffsetEnd
p562
V167
p563
sVCharacterOffsetBegin
p564
V162
p565
sVPartOfSpeech
p566
VVB
p567
sVLemma
p568
Vspend
p569
saa(lp570
Von
p571
a(dp572
VNamedEntityTag
p573
g98
sVCharacterOffsetEnd
p574
V170
p575
sVCharacterOffsetBegin
p576
V168
p577
sVPartOfSpeech
p578
VIN
p579
sVLemma
p580
Von
p581
saa(lp582
Vfood
p583
a(dp584
VNamedEntityTag
p585
g98
sVCharacterOffsetEnd
p586
V175
p587
sVCharacterOffsetBegin
p588
V171
p589
sVPartOfSpeech
p590
VNN
p591
sVLemma
p592
Vfood
p593
saa(lp594
V?
p595
a(dp596
VNamedEntityTag
p597
g98
sVCharacterOffsetEnd
p598
V177
p599
sVCharacterOffsetBegin
p600
V176
p601
sVPartOfSpeech
p602
g307
sVLemma
p603
g595
saasVindexeddependencies
p604
(lp605
(lp606
Vroot
p607
aVROOT-0
p608
aVspend-12
p609
aa(lp610
Vdep
p611
aVspend-12
p612
aVAltogether-1
p613
aa(lp614
Vdet
p615
aVfraction-4
p616
aVwhat-3
p617
aa(lp618
Vdobj
p619
aVspend-12
p620
aVfraction-4
p621
aa(lp622
Vposs
p623
aVbudget-7
p624
aVtheir-6
p625
aa(lp626
Vprep_of
p627
aVfraction-4
p628
aVbudget-7
p629
aa(lp630
Vaux
p631
aVspend-12
p632
aVdoes-8
p633
aa(lp634
Vdet
p635
aVfamily-11
p636
aVthe-9
p637
aa(lp638
Vnn
p639
aVfamily-11
p640
aVMontoya-10
p641
aa(lp642
Vnsubj
p643
aVspend-12
p644
aVfamily-11
p645
aa(lp646
Vprep_on
p647
aVspend-12
p648
aVfood-14
p649
aasas.