(dp0
Vcoref
p1
(lp2
(lp3
(lp4
(lp5
Vshe
p6
aI0
aI14
aI14
aI15
aa(lp7
Vshe
p8
aI0
aI7
aI7
aI8
aaa(lp9
(lp10
Vshe
p11
aI1
aI1
aI1
aI2
aa(lp12
Vshe
p13
aI0
aI7
aI7
aI8
aaa(lp14
(lp15
Vher
p16
aI1
aI17
aI17
aI18
aa(lp17
Vshe
p18
aI0
aI7
aI7
aI8
aaaasVsentences
p19
(lp20
(dp21
Vparsetree
p22
V(ROOT (S (NP (NN Wendy)) (VP (VBD was) (VP (VBG playing) (NP (NP (DT a) (NN video) (NN game)) (SBAR (WHADVP (WRB where)) (S (NP (PRP she)) (NP (NNS scores))))) (PP (NP (CD 5) (NNS points)) (IN for) (NP (NP (DT each) (NN treasure)) (SBAR (S (NP (PRP she)) (VP (VBZ finds)))))))) (. .)))
p23
sVtext
p24
VWendy was playing a video game where she scores 5 points for each treasure she finds .
p25
sVdependencies
p26
(lp27
(lp28
Vroot
p29
aVROOT
p30
aVplaying
p31
aa(lp32
Vnsubj
p33
aVplaying
p34
aVWendy
p35
aa(lp36
Vaux
p37
aVplaying
p38
aVwas
p39
aa(lp40
Vdet
p41
aVgame
p42
aVa
p43
aa(lp44
Vnn
p45
aVgame
p46
aVvideo
p47
aa(lp48
Vdobj
p49
aVplaying
p50
aVgame
p51
aa(lp52
Vadvmod
p53
aVscores
p54
aVwhere
p55
aa(lp56
Vdep
p57
aVscores
p58
aVshe
p59
aa(lp60
Vrcmod
p61
aVgame
p62
aVscores
p63
aa(lp64
Vnum
p65
aVpoints
p66
aV5
p67
aa(lp68
Vnpadvmod
p69
aVplaying
p70
aVpoints
p71
aa(lp72
Vdet
p73
aVtreasure
p74
aVeach
p75
aa(lp76
Vprep_for
p77
aVplaying
p78
aVtreasure
p79
aa(lp80
Vnsubj
p81
aVfinds
p82
aVshe
p83
aa(lp84
Vrcmod
p85
aVtreasure
p86
aVfinds
p87
aasVwords
p88
(lp89
(lp90
VWendy
p91
a(dp92
VNamedEntityTag
p93
VPERSON
p94
sVCharacterOffsetEnd
p95
V6
p96
sVCharacterOffsetBegin
p97
V1
p98
sVPartOfSpeech
p99
VNN
p100
sVLemma
p101
Vwendy
p102
saa(lp103
Vwas
p104
a(dp105
VNamedEntityTag
p106
VO
p107
sVCharacterOffsetEnd
p108
V10
p109
sVCharacterOffsetBegin
p110
V7
p111
sVPartOfSpeech
p112
VVBD
p113
sVLemma
p114
Vbe
p115
saa(lp116
Vplaying
p117
a(dp118
VNamedEntityTag
p119
g107
sVCharacterOffsetEnd
p120
V18
p121
sVCharacterOffsetBegin
p122
V11
p123
sVPartOfSpeech
p124
VVBG
p125
sVLemma
p126
Vplay
p127
saa(lp128
g43
a(dp129
VNamedEntityTag
p130
g107
sVCharacterOffsetEnd
p131
V20
p132
sVCharacterOffsetBegin
p133
V19
p134
sVPartOfSpeech
p135
VDT
p136
sVLemma
p137
g43
saa(lp138
Vvideo
p139
a(dp140
VNamedEntityTag
p141
g107
sVCharacterOffsetEnd
p142
V26
p143
sVCharacterOffsetBegin
p144
V21
p145
sVPartOfSpeech
p146
VNN
p147
sVLemma
p148
Vvideo
p149
saa(lp150
Vgame
p151
a(dp152
VNamedEntityTag
p153
g107
sVCharacterOffsetEnd
p154
V31
p155
sVCharacterOffsetBegin
p156
V27
p157
sVPartOfSpeech
p158
VNN
p159
sVLemma
p160
Vgame
p161
saa(lp162
Vwhere
p163
a(dp164
VNamedEntityTag
p165
g107
sVCharacterOffsetEnd
p166
V37
p167
sVCharacterOffsetBegin
p168
V32
p169
sVPartOfSpeech
p170
VWRB
p171
sVLemma
p172
Vwhere
p173
saa(lp174
Vshe
p175
a(dp176
VNamedEntityTag
p177
g107
sVCharacterOffsetEnd
p178
V41
p179
sVCharacterOffsetBegin
p180
V38
p181
sVPartOfSpeech
p182
VPRP
p183
sVLemma
p184
Vshe
p185
saa(lp186
Vscores
p187
a(dp188
VNamedEntityTag
p189
g107
sVCharacterOffsetEnd
p190
V48
p191
sVCharacterOffsetBegin
p192
V42
p193
sVPartOfSpeech
p194
VNNS
p195
sVLemma
p196
Vscore
p197
saa(lp198
g67
a(dp199
VNormalizedNamedEntityTag
p200
V5.0
p201
sVLemma
p202
g67
sVCharacterOffsetEnd
p203
V50
p204
sVPartOfSpeech
p205
VCD
p206
sVCharacterOffsetBegin
p207
V49
p208
sVNamedEntityTag
p209
VNUMBER
p210
saa(lp211
Vpoints
p212
a(dp213
VNamedEntityTag
p214
g107
sVCharacterOffsetEnd
p215
V57
p216
sVCharacterOffsetBegin
p217
V51
p218
sVPartOfSpeech
p219
VNNS
p220
sVLemma
p221
Vpoint
p222
saa(lp223
Vfor
p224
a(dp225
VNamedEntityTag
p226
g107
sVCharacterOffsetEnd
p227
V61
p228
sVCharacterOffsetBegin
p229
V58
p230
sVPartOfSpeech
p231
VIN
p232
sVLemma
p233
Vfor
p234
saa(lp235
Veach
p236
a(dp237
VNamedEntityTag
p238
g107
sVCharacterOffsetEnd
p239
V66
p240
sVCharacterOffsetBegin
p241
V62
p242
sVPartOfSpeech
p243
VDT
p244
sVLemma
p245
Veach
p246
saa(lp247
Vtreasure
p248
a(dp249
VNamedEntityTag
p250
g107
sVCharacterOffsetEnd
p251
V75
p252
sVCharacterOffsetBegin
p253
V67
p254
sVPartOfSpeech
p255
VNN
p256
sVLemma
p257
Vtreasure
p258
saa(lp259
Vshe
p260
a(dp261
VNamedEntityTag
p262
g107
sVCharacterOffsetEnd
p263
V79
p264
sVCharacterOffsetBegin
p265
V76
p266
sVPartOfSpeech
p267
VPRP
p268
sVLemma
p269
Vshe
p270
saa(lp271
Vfinds
p272
a(dp273
VNamedEntityTag
p274
g107
sVCharacterOffsetEnd
p275
V85
p276
sVCharacterOffsetBegin
p277
V80
p278
sVPartOfSpeech
p279
VVBZ
p280
sVLemma
p281
Vfind
p282
saa(lp283
V.
p284
a(dp285
VNamedEntityTag
p286
g107
sVCharacterOffsetEnd
p287
V87
p288
sVCharacterOffsetBegin
p289
V86
p290
sVPartOfSpeech
p291
g284
sVLemma
p292
g284
saasVindexeddependencies
p293
(lp294
(lp295
Vroot
p296
aVROOT-0
p297
aVplaying-3
p298
aa(lp299
Vnsubj
p300
aVplaying-3
p301
aVWendy-1
p302
aa(lp303
Vaux
p304
aVplaying-3
p305
aVwas-2
p306
aa(lp307
Vdet
p308
aVgame-6
p309
aVa-4
p310
aa(lp311
Vnn
p312
aVgame-6
p313
aVvideo-5
p314
aa(lp315
Vdobj
p316
aVplaying-3
p317
aVgame-6
p318
aa(lp319
Vadvmod
p320
aVscores-9
p321
aVwhere-7
p322
aa(lp323
Vdep
p324
aVscores-9
p325
aVshe-8
p326
aa(lp327
Vrcmod
p328
aVgame-6
p329
aVscores-9
p330
aa(lp331
Vnum
p332
aVpoints-11
p333
aV5-10
p334
aa(lp335
Vnpadvmod
p336
aVplaying-3
p337
aVpoints-11
p338
aa(lp339
Vdet
p340
aVtreasure-14
p341
aVeach-13
p342
aa(lp343
Vprep_for
p344
aVplaying-3
p345
aVtreasure-14
p346
aa(lp347
Vnsubj
p348
aVfinds-16
p349
aVshe-15
p350
aa(lp351
Vrcmod
p352
aVtreasure-14
p353
aVfinds-16
p354
aasa(dp355
Vparsetree
p356
V(ROOT (SBARQ (SBAR (IN If) (S (NP (PRP she)) (VP (VBD found) (NP (CD 4) (NNS treasures)) (PP (IN on) (NP (NP (DT the) (JJ first) (NN level)) (CC and) (NP (CD 3)))) (PP (IN on) (NP (DT the) (JJ second)))))) (, ,) (WHNP (WP what)) (SQ (MD would) (NP (PRP$ her) (NN score)) (VP (VB be))) (. ?)))
p357
sVtext
p358
VIf she found 4 treasures on the first level and 3 on the second , what would her score be ?
p359
sVdependencies
p360
(lp361
(lp362
Vroot
p363
aVROOT
p364
aVbe
p365
aa(lp366
Vmark
p367
aVfound
p368
aVIf
p369
aa(lp370
Vnsubj
p371
aVfound
p372
aVshe
p373
aa(lp374
Vadvcl
p375
aVbe
p376
aVfound
p377
aa(lp378
Vnum
p379
aVtreasures
p380
aV4
p381
aa(lp382
Vdobj
p383
aVfound
p384
aVtreasures
p385
aa(lp386
Vdet
p387
aVlevel
p388
aVthe
p389
aa(lp390
Vamod
p391
aVlevel
p392
aVfirst
p393
aa(lp394
Vprep_on
p395
aVfound
p396
aVlevel
p397
aa(lp398
Vconj_and
p399
aVlevel
p400
aV3
p401
aa(lp402
Vdet
p403
aVsecond
p404
aVthe
p405
aa(lp406
Vprep_on
p407
aVfound
p408
aVsecond
p409
aa(lp410
Vdobj
p411
aVbe
p412
aVwhat
p413
aa(lp414
Vaux
p415
aVbe
p416
aVwould
p417
aa(lp418
Vposs
p419
aVscore
p420
aVher
p421
aa(lp422
Vnsubj
p423
aVbe
p424
aVscore
p425
aasVwords
p426
(lp427
(lp428
VIf
p429
a(dp430
VNamedEntityTag
p431
g107
sVCharacterOffsetEnd
p432
V90
p433
sVCharacterOffsetBegin
p434
V88
p435
sVPartOfSpeech
p436
VIN
p437
sVLemma
p438
Vif
p439
saa(lp440
Vshe
p441
a(dp442
VNamedEntityTag
p443
g107
sVCharacterOffsetEnd
p444
V94
p445
sVCharacterOffsetBegin
p446
V91
p447
sVPartOfSpeech
p448
VPRP
p449
sVLemma
p450
Vshe
p451
saa(lp452
Vfound
p453
a(dp454
VNamedEntityTag
p455
g107
sVCharacterOffsetEnd
p456
V100
p457
sVCharacterOffsetBegin
p458
V95
p459
sVPartOfSpeech
p460
VVBD
p461
sVLemma
p462
Vfind
p463
saa(lp464
g381
a(dp465
VNormalizedNamedEntityTag
p466
V4.0
p467
sVLemma
p468
g381
sVCharacterOffsetEnd
p469
V102
p470
sVPartOfSpeech
p471
VCD
p472
sVCharacterOffsetBegin
p473
V101
p474
sVNamedEntityTag
p475
VNUMBER
p476
saa(lp477
Vtreasures
p478
a(dp479
VNamedEntityTag
p480
g107
sVCharacterOffsetEnd
p481
V112
p482
sVCharacterOffsetBegin
p483
V103
p484
sVPartOfSpeech
p485
VNNS
p486
sVLemma
p487
Vtreasure
p488
saa(lp489
Von
p490
a(dp491
VNamedEntityTag
p492
g107
sVCharacterOffsetEnd
p493
V115
p494
sVCharacterOffsetBegin
p495
V113
p496
sVPartOfSpeech
p497
VIN
p498
sVLemma
p499
Von
p500
saa(lp501
Vthe
p502
a(dp503
VNamedEntityTag
p504
g107
sVCharacterOffsetEnd
p505
V119
p506
sVCharacterOffsetBegin
p507
V116
p508
sVPartOfSpeech
p509
VDT
p510
sVLemma
p511
Vthe
p512
saa(lp513
Vfirst
p514
a(dp515
VNormalizedNamedEntityTag
p516
V1.0
p517
sVLemma
p518
Vfirst
p519
sVCharacterOffsetEnd
p520
V125
p521
sVPartOfSpeech
p522
VJJ
p523
sVCharacterOffsetBegin
p524
V120
p525
sVNamedEntityTag
p526
VORDINAL
p527
saa(lp528
Vlevel
p529
a(dp530
VNamedEntityTag
p531
g107
sVCharacterOffsetEnd
p532
V131
p533
sVCharacterOffsetBegin
p534
V126
p535
sVPartOfSpeech
p536
VNN
p537
sVLemma
p538
Vlevel
p539
saa(lp540
Vand
p541
a(dp542
VNamedEntityTag
p543
g107
sVCharacterOffsetEnd
p544
V135
p545
sVCharacterOffsetBegin
p546
V132
p547
sVPartOfSpeech
p548
VCC
p549
sVLemma
p550
Vand
p551
saa(lp552
g401
a(dp553
VNormalizedNamedEntityTag
p554
V3.0
p555
sVLemma
p556
g401
sVCharacterOffsetEnd
p557
V137
p558
sVPartOfSpeech
p559
VCD
p560
sVCharacterOffsetBegin
p561
V136
p562
sVNamedEntityTag
p563
VNUMBER
p564
saa(lp565
Von
p566
a(dp567
VNamedEntityTag
p568
g107
sVCharacterOffsetEnd
p569
V140
p570
sVCharacterOffsetBegin
p571
V138
p572
sVPartOfSpeech
p573
VIN
p574
sVLemma
p575
Von
p576
saa(lp577
Vthe
p578
a(dp579
VNamedEntityTag
p580
g107
sVCharacterOffsetEnd
p581
V144
p582
sVCharacterOffsetBegin
p583
V141
p584
sVPartOfSpeech
p585
VDT
p586
sVLemma
p587
Vthe
p588
saa(lp589
Vsecond
p590
a(dp591
VNormalizedNamedEntityTag
p592
V2.0
p593
sVLemma
p594
Vsecond
p595
sVCharacterOffsetEnd
p596
V151
p597
sVPartOfSpeech
p598
VJJ
p599
sVCharacterOffsetBegin
p600
V145
p601
sVNamedEntityTag
p602
VORDINAL
p603
saa(lp604
V,
p605
a(dp606
VNamedEntityTag
p607
g107
sVCharacterOffsetEnd
p608
V153
p609
sVCharacterOffsetBegin
p610
V152
p611
sVPartOfSpeech
p612
g605
sVLemma
p613
g605
saa(lp614
Vwhat
p615
a(dp616
VNamedEntityTag
p617
g107
sVCharacterOffsetEnd
p618
V158
p619
sVCharacterOffsetBegin
p620
V154
p621
sVPartOfSpeech
p622
VWP
p623
sVLemma
p624
Vwhat
p625
saa(lp626
Vwould
p627
a(dp628
VNamedEntityTag
p629
g107
sVCharacterOffsetEnd
p630
V164
p631
sVCharacterOffsetBegin
p632
V159
p633
sVPartOfSpeech
p634
VMD
p635
sVLemma
p636
Vwould
p637
saa(lp638
Vher
p639
a(dp640
VNamedEntityTag
p641
g107
sVCharacterOffsetEnd
p642
V168
p643
sVCharacterOffsetBegin
p644
V165
p645
sVPartOfSpeech
p646
VPRP$
p647
sVLemma
p648
Vshe
p649
saa(lp650
Vscore
p651
a(dp652
VNormalizedNamedEntityTag
p653
V20.0
p654
sVLemma
p655
Vscore
p656
sVCharacterOffsetEnd
p657
V174
p658
sVPartOfSpeech
p659
VNN
p660
sVCharacterOffsetBegin
p661
V169
p662
sVNamedEntityTag
p663
VNUMBER
p664
saa(lp665
Vbe
p666
a(dp667
VNamedEntityTag
p668
g107
sVCharacterOffsetEnd
p669
V177
p670
sVCharacterOffsetBegin
p671
V175
p672
sVPartOfSpeech
p673
VVB
p674
sVLemma
p675
Vbe
p676
saa(lp677
V?
p678
a(dp679
VNamedEntityTag
p680
g107
sVCharacterOffsetEnd
p681
V179
p682
sVCharacterOffsetBegin
p683
V178
p684
sVPartOfSpeech
p685
g284
sVLemma
p686
g678
saasVindexeddependencies
p687
(lp688
(lp689
Vroot
p690
aVROOT-0
p691
aVbe-20
p692
aa(lp693
Vmark
p694
aVfound-3
p695
aVIf-1
p696
aa(lp697
Vnsubj
p698
aVfound-3
p699
aVshe-2
p700
aa(lp701
Vadvcl
p702
aVbe-20
p703
aVfound-3
p704
aa(lp705
Vnum
p706
aVtreasures-5
p707
aV4-4
p708
aa(lp709
Vdobj
p710
aVfound-3
p711
aVtreasures-5
p712
aa(lp713
Vdet
p714
aVlevel-9
p715
aVthe-7
p716
aa(lp717
Vamod
p718
aVlevel-9
p719
aVfirst-8
p720
aa(lp721
Vprep_on
p722
aVfound-3
p723
aVlevel-9
p724
aa(lp725
Vconj_and
p726
aVlevel-9
p727
aV3-11
p728
aa(lp729
Vdet
p730
aVsecond-14
p731
aVthe-13
p732
aa(lp733
Vprep_on
p734
aVfound-3
p735
aVsecond-14
p736
aa(lp737
Vdobj
p738
aVbe-20
p739
aVwhat-16
p740
aa(lp741
Vaux
p742
aVbe-20
p743
aVwould-17
p744
aa(lp745
Vposs
p746
aVscore-19
p747
aVher-18
p748
aa(lp749
Vnsubj
p750
aVbe-20
p751
aVscore-19
p752
aasas.