(dp0
Vcoref
p1
(lp2
(lp3
(lp4
(lp5
VScarlett
p6
aI1
aI1
aI1
aI2
aa(lp7
VScarlett 's
p8
aI0
aI9
aI9
aI11
aaaa(lp9
(lp10
(lp11
Va cup of oil in Scarlett 's measuring cup
p12
aI0
aI5
aI4
aI13
aa(lp13
Vthe measuring cup
p14
aI1
aI17
aI15
aI18
aaaasVsentences
p15
(lp16
(dp17
Vparsetree
p18
V(ROOT (S (NP (EX There)) (VP (VBZ is) (NP (NP (CD 0.16666666666666666)) (PP (IN of) (NP (NP (DT a) (NN cup)) (PP (IN of) (NP (NP (NN oil)) (PP (IN in) (S (NP (NNP Scarlett) (POS 's)) (VP (VBG measuring) (NP (NN cup))))))))))) (. .)))
p19
sVtext
p20
VThere is 0.16666666666666666 of a cup of oil in Scarlett's measuring cup .
p21
sVdependencies
p22
(lp23
(lp24
Vroot
p25
aVROOT
p26
aVis
p27
aa(lp28
Vexpl
p29
aVis
p30
aVThere
p31
aa(lp32
Vnsubj
p33
aVis
p34
aV0.16666666666666666
p35
aa(lp36
Vdet
p37
aVcup
p38
aVa
p39
aa(lp40
Vprep_of
p41
aV0.16666666666666666
p42
aVcup
p43
aa(lp44
Vprep_of
p45
aVcup
p46
aVoil
p47
aa(lp48
Vnsubj
p49
aVmeasuring
p50
aVScarlett
p51
aa(lp52
Vpossessive
p53
aVScarlett
p54
aV's
p55
aa(lp56
Vprepc_in
p57
aVoil
p58
aVmeasuring
p59
aa(lp60
Vdobj
p61
aVmeasuring
p62
aVcup
p63
aasVwords
p64
(lp65
(lp66
VThere
p67
a(dp68
VNamedEntityTag
p69
VO
p70
sVCharacterOffsetEnd
p71
V6
p72
sVCharacterOffsetBegin
p73
V1
p74
sVPartOfSpeech
p75
VEX
p76
sVLemma
p77
Vthere
p78
saa(lp79
Vis
p80
a(dp81
VNamedEntityTag
p82
g70
sVCharacterOffsetEnd
p83
V9
p84
sVCharacterOffsetBegin
p85
V7
p86
sVPartOfSpeech
p87
VVBZ
p88
sVLemma
p89
Vbe
p90
saa(lp91
V0.16666666666666666
p92
a(dp93
VNormalizedNamedEntityTag
p94
V0.16666666666666666
p95
sVLemma
p96
V0.16666666666666666
p97
sVCharacterOffsetEnd
p98
V29
p99
sVPartOfSpeech
p100
VCD
p101
sVCharacterOffsetBegin
p102
V10
p103
sVNamedEntityTag
p104
VNUMBER
p105
saa(lp106
Vof
p107
a(dp108
VNamedEntityTag
p109
g70
sVCharacterOffsetEnd
p110
V32
p111
sVCharacterOffsetBegin
p112
V30
p113
sVPartOfSpeech
p114
VIN
p115
sVLemma
p116
Vof
p117
saa(lp118
g39
a(dp119
VNamedEntityTag
p120
g70
sVCharacterOffsetEnd
p121
V34
p122
sVCharacterOffsetBegin
p123
V33
p124
sVPartOfSpeech
p125
VDT
p126
sVLemma
p127
g39
saa(lp128
Vcup
p129
a(dp130
VNamedEntityTag
p131
g70
sVCharacterOffsetEnd
p132
V38
p133
sVCharacterOffsetBegin
p134
V35
p135
sVPartOfSpeech
p136
VNN
p137
sVLemma
p138
Vcup
p139
saa(lp140
Vof
p141
a(dp142
VNamedEntityTag
p143
g70
sVCharacterOffsetEnd
p144
V41
p145
sVCharacterOffsetBegin
p146
V39
p147
sVPartOfSpeech
p148
VIN
p149
sVLemma
p150
Vof
p151
saa(lp152
Voil
p153
a(dp154
VNamedEntityTag
p155
g70
sVCharacterOffsetEnd
p156
V45
p157
sVCharacterOffsetBegin
p158
V42
p159
sVPartOfSpeech
p160
VNN
p161
sVLemma
p162
Voil
p163
saa(lp164
Vin
p165
a(dp166
VNamedEntityTag
p167
g70
sVCharacterOffsetEnd
p168
V48
p169
sVCharacterOffsetBegin
p170
V46
p171
sVPartOfSpeech
p172
VIN
p173
sVLemma
p174
Vin
p175
saa(lp176
VScarlett
p177
a(dp178
VNamedEntityTag
p179
VPERSON
p180
sVCharacterOffsetEnd
p181
V57
p182
sVCharacterOffsetBegin
p183
V49
p184
sVPartOfSpeech
p185
VNNP
p186
sVLemma
p187
VScarlett
p188
saa(lp189
V's
p190
a(dp191
VNamedEntityTag
p192
g70
sVCharacterOffsetEnd
p193
V59
p194
sVCharacterOffsetBegin
p195
V57
p196
sVPartOfSpeech
p197
VPOS
p198
sVLemma
p199
V's
p200
saa(lp201
Vmeasuring
p202
a(dp203
VNamedEntityTag
p204
g70
sVCharacterOffsetEnd
p205
V69
p206
sVCharacterOffsetBegin
p207
V60
p208
sVPartOfSpeech
p209
VVBG
p210
sVLemma
p211
Vmeasure
p212
saa(lp213
Vcup
p214
a(dp215
VNamedEntityTag
p216
g70
sVCharacterOffsetEnd
p217
V73
p218
sVCharacterOffsetBegin
p219
V70
p220
sVPartOfSpeech
p221
VNN
p222
sVLemma
p223
Vcup
p224
saa(lp225
V.
p226
a(dp227
VNamedEntityTag
p228
g70
sVCharacterOffsetEnd
p229
V75
p230
sVCharacterOffsetBegin
p231
V74
p232
sVPartOfSpeech
p233
g226
sVLemma
p234
g226
saasVindexeddependencies
p235
(lp236
(lp237
Vroot
p238
aVROOT-0
p239
aVis-2
p240
aa(lp241
Vexpl
p242
aVis-2
p243
aVThere-1
p244
aa(lp245
Vnsubj
p246
aVis-2
p247
aV0.16666666666666666-3
p248
aa(lp249
Vdet
p250
aVcup-6
p251
aVa-5
p252
aa(lp253
Vprep_of
p254
aV0.16666666666666666-3
p255
aVcup-6
p256
aa(lp257
Vprep_of
p258
aVcup-6
p259
aVoil-8
p260
aa(lp261
Vnsubj
p262
aVmeasuring-12
p263
aVScarlett-10
p264
aa(lp265
Vpossessive
p266
aVScarlett-10
p267
aV's-11
p268
aa(lp269
Vprepc_in
p270
aVoil-8
p271
aVmeasuring-12
p272
aa(lp273
Vdobj
p274
aVmeasuring-12
p275
aVcup-13
p276
aasa(dp277
Vparsetree
p278
V(ROOT (SBARQ (SBAR (IN If) (S (NP (NNP Scarlett)) (VP (VBZ adds) (NP (NP (CD 0.6666666666666666)) (PP (IN of) (ADVP (NP (DT a) (NN cup)) (RBR more))))))) (, ,) (WHNP (WHADJP (WRB how) (JJ much)) (NN oil)) (SQ (VP (MD will) (VP (VB be) (PP (IN in) (NP (DT the) (VBG measuring) (NN cup)))))) (. ?)))
p279
sVtext
p280
VIf Scarlett adds 0.6666666666666666 of a cup more , how much oil will be in the measuring cup ?
p281
sVdependencies
p282
(lp283
(lp284
Vroot
p285
aVROOT
p286
aVbe
p287
aa(lp288
Vmark
p289
aVadds
p290
aVIf
p291
aa(lp292
Vnsubj
p293
aVadds
p294
aVScarlett
p295
aa(lp296
Vadvcl
p297
aVbe
p298
aVadds
p299
aa(lp300
Vdobj
p301
aVadds
p302
aV0.6666666666666666
p303
aa(lp304
Vdet
p305
aVcup
p306
ag39
aa(lp307
Vnpadvmod
p308
aVmore
p309
aVcup
p310
aa(lp311
Vprepc_of
p312
aV0.6666666666666666
p313
aVmore
p314
aa(lp315
Vadvmod
p316
aVmuch
p317
aVhow
p318
aa(lp319
Vamod
p320
aVoil
p321
aVmuch
p322
aa(lp323
Vnsubj
p324
aVbe
p325
aVoil
p326
aa(lp327
Vaux
p328
aVbe
p329
aVwill
p330
aa(lp331
Vdet
p332
aVcup
p333
aVthe
p334
aa(lp335
Vamod
p336
aVcup
p337
aVmeasuring
p338
aa(lp339
Vprep_in
p340
aVbe
p341
aVcup
p342
aasVwords
p343
(lp344
(lp345
VIf
p346
a(dp347
VNamedEntityTag
p348
g70
sVCharacterOffsetEnd
p349
V78
p350
sVCharacterOffsetBegin
p351
V76
p352
sVPartOfSpeech
p353
VIN
p354
sVLemma
p355
Vif
p356
saa(lp357
VScarlett
p358
a(dp359
VNamedEntityTag
p360
VPERSON
p361
sVCharacterOffsetEnd
p362
V87
p363
sVCharacterOffsetBegin
p364
V79
p365
sVPartOfSpeech
p366
VNNP
p367
sVLemma
p368
VScarlett
p369
saa(lp370
Vadds
p371
a(dp372
VNamedEntityTag
p373
g70
sVCharacterOffsetEnd
p374
V92
p375
sVCharacterOffsetBegin
p376
V88
p377
sVPartOfSpeech
p378
VVBZ
p379
sVLemma
p380
Vadd
p381
saa(lp382
V0.6666666666666666
p383
a(dp384
VNormalizedNamedEntityTag
p385
V0.6666666666666666
p386
sVLemma
p387
V0.6666666666666666
p388
sVCharacterOffsetEnd
p389
V111
p390
sVPartOfSpeech
p391
VCD
p392
sVCharacterOffsetBegin
p393
V93
p394
sVNamedEntityTag
p395
VNUMBER
p396
saa(lp397
Vof
p398
a(dp399
VNamedEntityTag
p400
g70
sVCharacterOffsetEnd
p401
V114
p402
sVCharacterOffsetBegin
p403
V112
p404
sVPartOfSpeech
p405
VIN
p406
sVLemma
p407
Vof
p408
saa(lp409
g39
a(dp410
VNamedEntityTag
p411
g70
sVCharacterOffsetEnd
p412
V116
p413
sVCharacterOffsetBegin
p414
V115
p415
sVPartOfSpeech
p416
VDT
p417
sVLemma
p418
g39
saa(lp419
Vcup
p420
a(dp421
VNamedEntityTag
p422
g70
sVCharacterOffsetEnd
p423
V120
p424
sVCharacterOffsetBegin
p425
V117
p426
sVPartOfSpeech
p427
VNN
p428
sVLemma
p429
Vcup
p430
saa(lp431
Vmore
p432
a(dp433
VNamedEntityTag
p434
g70
sVCharacterOffsetEnd
p435
V125
p436
sVCharacterOffsetBegin
p437
V121
p438
sVPartOfSpeech
p439
VRBR
p440
sVLemma
p441
Vmore
p442
saa(lp443
V,
p444
a(dp445
VNamedEntityTag
p446
g70
sVCharacterOffsetEnd
p447
V127
p448
sVCharacterOffsetBegin
p449
V126
p450
sVPartOfSpeech
p451
g444
sVLemma
p452
g444
saa(lp453
Vhow
p454
a(dp455
VNamedEntityTag
p456
g70
sVCharacterOffsetEnd
p457
V131
p458
sVCharacterOffsetBegin
p459
V128
p460
sVPartOfSpeech
p461
VWRB
p462
sVLemma
p463
Vhow
p464
saa(lp465
Vmuch
p466
a(dp467
VNamedEntityTag
p468
g70
sVCharacterOffsetEnd
p469
V136
p470
sVCharacterOffsetBegin
p471
V132
p472
sVPartOfSpeech
p473
VJJ
p474
sVLemma
p475
Vmuch
p476
saa(lp477
Voil
p478
a(dp479
VNamedEntityTag
p480
g70
sVCharacterOffsetEnd
p481
V140
p482
sVCharacterOffsetBegin
p483
V137
p484
sVPartOfSpeech
p485
VNN
p486
sVLemma
p487
Voil
p488
saa(lp489
Vwill
p490
a(dp491
VNamedEntityTag
p492
g70
sVCharacterOffsetEnd
p493
V145
p494
sVCharacterOffsetBegin
p495
V141
p496
sVPartOfSpeech
p497
VMD
p498
sVLemma
p499
Vwill
p500
saa(lp501
Vbe
p502
a(dp503
VNamedEntityTag
p504
g70
sVCharacterOffsetEnd
p505
V148
p506
sVCharacterOffsetBegin
p507
V146
p508
sVPartOfSpeech
p509
VVB
p510
sVLemma
p511
Vbe
p512
saa(lp513
Vin
p514
a(dp515
VNamedEntityTag
p516
g70
sVCharacterOffsetEnd
p517
V151
p518
sVCharacterOffsetBegin
p519
V149
p520
sVPartOfSpeech
p521
VIN
p522
sVLemma
p523
Vin
p524
saa(lp525
Vthe
p526
a(dp527
VNamedEntityTag
p528
g70
sVCharacterOffsetEnd
p529
V155
p530
sVCharacterOffsetBegin
p531
V152
p532
sVPartOfSpeech
p533
VDT
p534
sVLemma
p535
Vthe
p536
saa(lp537
Vmeasuring
p538
a(dp539
VNamedEntityTag
p540
g70
sVCharacterOffsetEnd
p541
V165
p542
sVCharacterOffsetBegin
p543
V156
p544
sVPartOfSpeech
p545
VVBG
p546
sVLemma
p547
Vmeasure
p548
saa(lp549
Vcup
p550
a(dp551
VNamedEntityTag
p552
g70
sVCharacterOffsetEnd
p553
V169
p554
sVCharacterOffsetBegin
p555
V166
p556
sVPartOfSpeech
p557
VNN
p558
sVLemma
p559
Vcup
p560
saa(lp561
V?
p562
a(dp563
VNamedEntityTag
p564
g70
sVCharacterOffsetEnd
p565
V171
p566
sVCharacterOffsetBegin
p567
V170
p568
sVPartOfSpeech
p569
g226
sVLemma
p570
g562
saasVindexeddependencies
p571
(lp572
(lp573
Vroot
p574
aVROOT-0
p575
aVbe-14
p576
aa(lp577
Vmark
p578
aVadds-3
p579
aVIf-1
p580
aa(lp581
Vnsubj
p582
aVadds-3
p583
aVScarlett-2
p584
aa(lp585
Vadvcl
p586
aVbe-14
p587
aVadds-3
p588
aa(lp589
Vdobj
p590
aVadds-3
p591
aV0.6666666666666666-4
p592
aa(lp593
Vdet
p594
aVcup-7
p595
aVa-6
p596
aa(lp597
Vnpadvmod
p598
aVmore-8
p599
aVcup-7
p600
aa(lp601
Vprepc_of
p602
aV0.6666666666666666-4
p603
aVmore-8
p604
aa(lp605
Vadvmod
p606
aVmuch-11
p607
aVhow-10
p608
aa(lp609
Vamod
p610
aVoil-12
p611
aVmuch-11
p612
aa(lp613
Vnsubj
p614
aVbe-14
p615
aVoil-12
p616
aa(lp617
Vaux
p618
aVbe-14
p619
aVwill-13
p620
aa(lp621
Vdet
p622
aVcup-18
p623
aVthe-16
p624
aa(lp625
Vamod
p626
aVcup-18
p627
aVmeasuring-17
p628
aa(lp629
Vprep_in
p630
aVbe-14
p631
aVcup-18
p632
aasas.