(dp0
Vcoref
p1
(lp2
(lp3
(lp4
(lp5
Vstrawberries
p6
aI1
aI9
aI9
aI10
aa(lp7
Vchocolate-covered strawberries
p8
aI0
aI9
aI8
aI10
aaaa(lp9
(lp10
(lp11
Vits
p12
aI1
aI12
aI12
aI13
aa(lp13
VLast year
p14
aI1
aI1
aI0
aI2
aaa(lp15
(lp16
VThis year
p17
aI2
aI1
aI0
aI2
aa(lp18
VLast year
p19
aI1
aI1
aI0
aI2
aaaa(lp20
(lp21
(lp22
Vthe shop
p23
aI2
aI4
aI3
aI5
aa(lp24
Vthe shop used 8,670 kilograms of strawberries to make its
p25
aI1
aI4
aI3
aI13
aaaasVsentences
p26
(lp27
(dp28
Vparsetree
p29
V(ROOT (S (NP (NNP Berry) (NNP Delicious)) (VP (VBZ is) (NP (NP (DT a) (JJ popular) (NN shop)) (SBAR (WHNP (WDT that)) (S (VP (VBZ sells) (NP (JJ chocolate-covered) (NNS strawberries))))))) (. .)))
p30
sVtext
p31
VBerry Delicious is a popular shop that sells chocolate-covered strawberries .
p32
sVdependencies
p33
(lp34
(lp35
Vroot
p36
aVROOT
p37
aVshop
p38
aa(lp39
Vnn
p40
aVDelicious
p41
aVBerry
p42
aa(lp43
Vnsubj
p44
aVshop
p45
aVDelicious
p46
aa(lp47
Vcop
p48
aVshop
p49
aVis
p50
aa(lp51
Vdet
p52
aVshop
p53
aVa
p54
aa(lp55
Vamod
p56
aVshop
p57
aVpopular
p58
aa(lp59
Vnsubj
p60
aVsells
p61
aVthat
p62
aa(lp63
Vrcmod
p64
aVshop
p65
aVsells
p66
aa(lp67
Vamod
p68
aVstrawberries
p69
aVchocolate-covered
p70
aa(lp71
Vdobj
p72
aVsells
p73
aVstrawberries
p74
aasVwords
p75
(lp76
(lp77
VBerry
p78
a(dp79
VNamedEntityTag
p80
VPERSON
p81
sVCharacterOffsetEnd
p82
V6
p83
sVCharacterOffsetBegin
p84
V1
p85
sVPartOfSpeech
p86
VNNP
p87
sVLemma
p88
VBerry
p89
saa(lp90
VDelicious
p91
a(dp92
VNamedEntityTag
p93
VPERSON
p94
sVCharacterOffsetEnd
p95
V16
p96
sVCharacterOffsetBegin
p97
V7
p98
sVPartOfSpeech
p99
VNNP
p100
sVLemma
p101
VDelicious
p102
saa(lp103
Vis
p104
a(dp105
VNamedEntityTag
p106
VO
p107
sVCharacterOffsetEnd
p108
V19
p109
sVCharacterOffsetBegin
p110
V17
p111
sVPartOfSpeech
p112
VVBZ
p113
sVLemma
p114
Vbe
p115
saa(lp116
g54
a(dp117
VNamedEntityTag
p118
g107
sVCharacterOffsetEnd
p119
V21
p120
sVCharacterOffsetBegin
p121
V20
p122
sVPartOfSpeech
p123
VDT
p124
sVLemma
p125
g54
saa(lp126
Vpopular
p127
a(dp128
VNamedEntityTag
p129
g107
sVCharacterOffsetEnd
p130
V29
p131
sVCharacterOffsetBegin
p132
V22
p133
sVPartOfSpeech
p134
VJJ
p135
sVLemma
p136
Vpopular
p137
saa(lp138
Vshop
p139
a(dp140
VNamedEntityTag
p141
g107
sVCharacterOffsetEnd
p142
V34
p143
sVCharacterOffsetBegin
p144
V30
p145
sVPartOfSpeech
p146
VNN
p147
sVLemma
p148
Vshop
p149
saa(lp150
Vthat
p151
a(dp152
VNamedEntityTag
p153
g107
sVCharacterOffsetEnd
p154
V39
p155
sVCharacterOffsetBegin
p156
V35
p157
sVPartOfSpeech
p158
VWDT
p159
sVLemma
p160
Vthat
p161
saa(lp162
Vsells
p163
a(dp164
VNamedEntityTag
p165
g107
sVCharacterOffsetEnd
p166
V45
p167
sVCharacterOffsetBegin
p168
V40
p169
sVPartOfSpeech
p170
VVBZ
p171
sVLemma
p172
Vsell
p173
saa(lp174
Vchocolate-covered
p175
a(dp176
VNamedEntityTag
p177
g107
sVCharacterOffsetEnd
p178
V63
p179
sVCharacterOffsetBegin
p180
V46
p181
sVPartOfSpeech
p182
VJJ
p183
sVLemma
p184
Vchocolate-covered
p185
saa(lp186
Vstrawberries
p187
a(dp188
VNamedEntityTag
p189
g107
sVCharacterOffsetEnd
p190
V76
p191
sVCharacterOffsetBegin
p192
V64
p193
sVPartOfSpeech
p194
VNNS
p195
sVLemma
p196
Vstrawberry
p197
saa(lp198
V.
p199
a(dp200
VNamedEntityTag
p201
g107
sVCharacterOffsetEnd
p202
V78
p203
sVCharacterOffsetBegin
p204
V77
p205
sVPartOfSpeech
p206
g199
sVLemma
p207
g199
saasVindexeddependencies
p208
(lp209
(lp210
Vroot
p211
aVROOT-0
p212
aVshop-6
p213
aa(lp214
Vnn
p215
aVDelicious-2
p216
aVBerry-1
p217
aa(lp218
Vnsubj
p219
aVshop-6
p220
aVDelicious-2
p221
aa(lp222
Vcop
p223
aVshop-6
p224
aVis-3
p225
aa(lp226
Vdet
p227
aVshop-6
p228
aVa-4
p229
aa(lp230
Vamod
p231
aVshop-6
p232
aVpopular-5
p233
aa(lp234
Vnsubj
p235
aVsells-8
p236
aVthat-7
p237
aa(lp238
Vrcmod
p239
aVshop-6
p240
aVsells-8
p241
aa(lp242
Vamod
p243
aVstrawberries-10
p244
aVchocolate-covered-9
p245
aa(lp246
Vdobj
p247
aVsells-8
p248
aVstrawberries-10
p249
aasa(dp250
Vparsetree
p251
V(ROOT (S (NP-TMP (JJ Last) (NN year)) (, ,) (NP (NP (DT the) (NN shop)) (VP (VBN used) (NP (NP (CD 8,670) (NNS kilograms)) (PP (IN of) (NP (NNS strawberries)))) (S (VP (TO to) (VP (VB make) (NP (PRP$ its))))))) (VP (VBZ treats)) (. .)))
p252
sVtext
p253
VLast year , the shop used 8,670 kilograms of strawberries to make its treats .
p254
sVdependencies
p255
(lp256
(lp257
Vroot
p258
aVROOT
p259
aVtreats
p260
aa(lp261
Vamod
p262
aVyear
p263
aVLast
p264
aa(lp265
Vtmod
p266
aVtreats
p267
aVyear
p268
aa(lp269
Vdet
p270
aVshop
p271
aVthe
p272
aa(lp273
Vnsubj
p274
aVtreats
p275
aVshop
p276
aa(lp277
Vvmod
p278
aVshop
p279
aVused
p280
aa(lp281
Vnum
p282
aVkilograms
p283
aV8,670
p284
aa(lp285
Vdobj
p286
aVused
p287
aVkilograms
p288
aa(lp289
Vprep_of
p290
aVkilograms
p291
aVstrawberries
p292
aa(lp293
Vaux
p294
aVmake
p295
aVto
p296
aa(lp297
Vvmod
p298
aVused
p299
aVmake
p300
aa(lp301
Vdobj
p302
aVmake
p303
aVits
p304
aasVwords
p305
(lp306
(lp307
VLast
p308
a(dp309
VNormalizedNamedEntityTag
p310
VTHIS
p311
sVTimex
p312
V<TIMEX3 alt_value="THIS P1Y OFFSET P-1Y" anchorTimeID="t2" temporalFunction="true" tid="t1" type="DATE" valueFromFunction="tf0">Last year</TIMEX3>
p313
sVLemma
p314
Vlast
p315
sVCharacterOffsetEnd
p316
V83
p317
sVPartOfSpeech
p318
VJJ
p319
sVCharacterOffsetBegin
p320
V79
p321
sVNamedEntityTag
p322
VDATE
p323
saa(lp324
Vyear
p325
a(dp326
VNormalizedNamedEntityTag
p327
VTHIS
p328
sVTimex
p329
V<TIMEX3 alt_value="THIS P1Y OFFSET P-1Y" anchorTimeID="t2" temporalFunction="true" tid="t1" type="DATE" valueFromFunction="tf0">Last year</TIMEX3>
p330
sVLemma
p331
Vyear
p332
sVCharacterOffsetEnd
p333
V88
p334
sVPartOfSpeech
p335
VNN
p336
sVCharacterOffsetBegin
p337
V84
p338
sVNamedEntityTag
p339
VDATE
p340
saa(lp341
V,
p342
a(dp343
VNamedEntityTag
p344
g107
sVCharacterOffsetEnd
p345
V90
p346
sVCharacterOffsetBegin
p347
V89
p348
sVPartOfSpeech
p349
g342
sVLemma
p350
g342
saa(lp351
Vthe
p352
a(dp353
VNamedEntityTag
p354
g107
sVCharacterOffsetEnd
p355
V94
p356
sVCharacterOffsetBegin
p357
V91
p358
sVPartOfSpeech
p359
VDT
p360
sVLemma
p361
Vthe
p362
saa(lp363
Vshop
p364
a(dp365
VNamedEntityTag
p366
g107
sVCharacterOffsetEnd
p367
V99
p368
sVCharacterOffsetBegin
p369
V95
p370
sVPartOfSpeech
p371
VNN
p372
sVLemma
p373
Vshop
p374
saa(lp375
Vused
p376
a(dp377
VNamedEntityTag
p378
g107
sVCharacterOffsetEnd
p379
V104
p380
sVCharacterOffsetBegin
p381
V100
p382
sVPartOfSpeech
p383
VVBN
p384
sVLemma
p385
Vuse
p386
saa(lp387
V8,670
p388
a(dp389
VNormalizedNamedEntityTag
p390
V8670.0
p391
sVLemma
p392
V8,670
p393
sVCharacterOffsetEnd
p394
V110
p395
sVPartOfSpeech
p396
VCD
p397
sVCharacterOffsetBegin
p398
V105
p399
sVNamedEntityTag
p400
VNUMBER
p401
saa(lp402
Vkilograms
p403
a(dp404
VNamedEntityTag
p405
g107
sVCharacterOffsetEnd
p406
V120
p407
sVCharacterOffsetBegin
p408
V111
p409
sVPartOfSpeech
p410
VNNS
p411
sVLemma
p412
Vkilogram
p413
saa(lp414
Vof
p415
a(dp416
VNamedEntityTag
p417
g107
sVCharacterOffsetEnd
p418
V123
p419
sVCharacterOffsetBegin
p420
V121
p421
sVPartOfSpeech
p422
VIN
p423
sVLemma
p424
Vof
p425
saa(lp426
Vstrawberries
p427
a(dp428
VNamedEntityTag
p429
g107
sVCharacterOffsetEnd
p430
V136
p431
sVCharacterOffsetBegin
p432
V124
p433
sVPartOfSpeech
p434
VNNS
p435
sVLemma
p436
Vstrawberry
p437
saa(lp438
Vto
p439
a(dp440
VNamedEntityTag
p441
g107
sVCharacterOffsetEnd
p442
V139
p443
sVCharacterOffsetBegin
p444
V137
p445
sVPartOfSpeech
p446
VTO
p447
sVLemma
p448
Vto
p449
saa(lp450
Vmake
p451
a(dp452
VNamedEntityTag
p453
g107
sVCharacterOffsetEnd
p454
V144
p455
sVCharacterOffsetBegin
p456
V140
p457
sVPartOfSpeech
p458
VVB
p459
sVLemma
p460
Vmake
p461
saa(lp462
Vits
p463
a(dp464
VNamedEntityTag
p465
g107
sVCharacterOffsetEnd
p466
V148
p467
sVCharacterOffsetBegin
p468
V145
p469
sVPartOfSpeech
p470
VPRP$
p471
sVLemma
p472
Vits
p473
saa(lp474
Vtreats
p475
a(dp476
VNamedEntityTag
p477
g107
sVCharacterOffsetEnd
p478
V155
p479
sVCharacterOffsetBegin
p480
V149
p481
sVPartOfSpeech
p482
VVBZ
p483
sVLemma
p484
Vtreat
p485
saa(lp486
g199
a(dp487
VNamedEntityTag
p488
g107
sVCharacterOffsetEnd
p489
V157
p490
sVCharacterOffsetBegin
p491
V156
p492
sVPartOfSpeech
p493
g199
sVLemma
p494
g199
saasVindexeddependencies
p495
(lp496
(lp497
Vroot
p498
aVROOT-0
p499
aVtreats-14
p500
aa(lp501
Vamod
p502
aVyear-2
p503
aVLast-1
p504
aa(lp505
Vtmod
p506
aVtreats-14
p507
aVyear-2
p508
aa(lp509
Vdet
p510
aVshop-5
p511
aVthe-4
p512
aa(lp513
Vnsubj
p514
aVtreats-14
p515
aVshop-5
p516
aa(lp517
Vvmod
p518
aVshop-5
p519
aVused-6
p520
aa(lp521
Vnum
p522
aVkilograms-8
p523
aV8,670-7
p524
aa(lp525
Vdobj
p526
aVused-6
p527
aVkilograms-8
p528
aa(lp529
Vprep_of
p530
aVkilograms-8
p531
aVstrawberries-10
p532
aa(lp533
Vaux
p534
aVmake-12
p535
aVto-11
p536
aa(lp537
Vvmod
p538
aVused-6
p539
aVmake-12
p540
aa(lp541
Vdobj
p542
aVmake-12
p543
aVits-13
p544
aasa(dp545
Vparsetree
p546
V(ROOT (S (NP-TMP (DT This) (NN year)) (, ,) (NP (DT the) (NN shop)) (VP (VBN used) (NP (CD 16,473) (NNS kilograms))) (. .)))
p547
sVtext
p548
VThis year , the shop used 16,473 kilograms .
p549
sVdependencies
p550
(lp551
(lp552
Vroot
p553
aVROOT
p554
aVused
p555
aa(lp556
Vdet
p557
aVyear
p558
aVThis
p559
aa(lp560
Vtmod
p561
aVused
p562
aVyear
p563
aa(lp564
Vdet
p565
aVshop
p566
aVthe
p567
aa(lp568
Vnsubj
p569
aVused
p570
aVshop
p571
aa(lp572
Vnum
p573
aVkilograms
p574
aV16,473
p575
aa(lp576
Vdobj
p577
aVused
p578
aVkilograms
p579
aasVwords
p580
(lp581
(lp582
VThis
p583
a(dp584
VNormalizedNamedEntityTag
p585
VTHIS
p586
sVTimex
p587
V<TIMEX3 alt_value="THIS P1Y" anchorTimeID="t0" temporalFunction="true" tid="t3" type="DATE" valueFromFunction="tf1">This year</TIMEX3>
p588
sVLemma
p589
Vthis
p590
sVCharacterOffsetEnd
p591
V162
p592
sVPartOfSpeech
p593
VDT
p594
sVCharacterOffsetBegin
p595
V158
p596
sVNamedEntityTag
p597
VDATE
p598
saa(lp599
Vyear
p600
a(dp601
VNormalizedNamedEntityTag
p602
VTHIS
p603
sVTimex
p604
V<TIMEX3 alt_value="THIS P1Y" anchorTimeID="t0" temporalFunction="true" tid="t3" type="DATE" valueFromFunction="tf1">This year</TIMEX3>
p605
sVLemma
p606
Vyear
p607
sVCharacterOffsetEnd
p608
V167
p609
sVPartOfSpeech
p610
VNN
p611
sVCharacterOffsetBegin
p612
V163
p613
sVNamedEntityTag
p614
VDATE
p615
saa(lp616
g342
a(dp617
VNamedEntityTag
p618
g107
sVCharacterOffsetEnd
p619
V169
p620
sVCharacterOffsetBegin
p621
V168
p622
sVPartOfSpeech
p623
g342
sVLemma
p624
g342
saa(lp625
Vthe
p626
a(dp627
VNamedEntityTag
p628
g107
sVCharacterOffsetEnd
p629
V173
p630
sVCharacterOffsetBegin
p631
V170
p632
sVPartOfSpeech
p633
VDT
p634
sVLemma
p635
Vthe
p636
saa(lp637
Vshop
p638
a(dp639
VNamedEntityTag
p640
g107
sVCharacterOffsetEnd
p641
V178
p642
sVCharacterOffsetBegin
p643
V174
p644
sVPartOfSpeech
p645
VNN
p646
sVLemma
p647
Vshop
p648
saa(lp649
Vused
p650
a(dp651
VNamedEntityTag
p652
g107
sVCharacterOffsetEnd
p653
V183
p654
sVCharacterOffsetBegin
p655
V179
p656
sVPartOfSpeech
p657
VVBN
p658
sVLemma
p659
Vuse
p660
saa(lp661
V16,473
p662
a(dp663
VNormalizedNamedEntityTag
p664
V16473.0
p665
sVLemma
p666
V16,473
p667
sVCharacterOffsetEnd
p668
V190
p669
sVPartOfSpeech
p670
VCD
p671
sVCharacterOffsetBegin
p672
V184
p673
sVNamedEntityTag
p674
VNUMBER
p675
saa(lp676
Vkilograms
p677
a(dp678
VNamedEntityTag
p679
g107
sVCharacterOffsetEnd
p680
V200
p681
sVCharacterOffsetBegin
p682
V191
p683
sVPartOfSpeech
p684
VNNS
p685
sVLemma
p686
Vkilogram
p687
saa(lp688
g199
a(dp689
VNamedEntityTag
p690
g107
sVCharacterOffsetEnd
p691
V202
p692
sVCharacterOffsetBegin
p693
V201
p694
sVPartOfSpeech
p695
g199
sVLemma
p696
g199
saasVindexeddependencies
p697
(lp698
(lp699
Vroot
p700
aVROOT-0
p701
aVused-6
p702
aa(lp703
Vdet
p704
aVyear-2
p705
aVThis-1
p706
aa(lp707
Vtmod
p708
aVused-6
p709
aVyear-2
p710
aa(lp711
Vdet
p712
aVshop-5
p713
aVthe-4
p714
aa(lp715
Vnsubj
p716
aVused-6
p717
aVshop-5
p718
aa(lp719
Vnum
p720
aVkilograms-8
p721
aV16,473-7
p722
aa(lp723
Vdobj
p724
aVused-6
p725
aVkilograms-8
p726
aasa(dp727
Vparsetree
p728
V(ROOT (SBARQ (WHNP (WP What)) (SQ (VBZ is) (NP (NP (DT the) (NNS times)) (PP (IN of) (NP (NP (NN increase)) (PP (IN in) (NP (NP (DT the) (NN amount)) (PP (IN of) (NP (NNS strawberries)))))))) (VP (VBN used) (ADVP (RB annually)))) (. ?)))
p729
sVtext
p730
VWhat is the times of increase in the amount of strawberries used annually ?
p731
sVdependencies
p732
(lp733
(lp734
Vroot
p735
aVROOT
p736
aVused
p737
aa(lp738
Vdobj
p739
aVused
p740
aVWhat
p741
aa(lp742
Vauxpass
p743
aVused
p744
aVis
p745
aa(lp746
Vdet
p747
aVtimes
p748
aVthe
p749
aa(lp750
Vnsubjpass
p751
aVused
p752
aVtimes
p753
aa(lp754
Vprep_of
p755
aVtimes
p756
aVincrease
p757
aa(lp758
Vdet
p759
aVamount
p760
aVthe
p761
aa(lp762
Vprep_in
p763
aVincrease
p764
aVamount
p765
aa(lp766
Vprep_of
p767
aVamount
p768
aVstrawberries
p769
aa(lp770
Vadvmod
p771
aVused
p772
aVannually
p773
aasVwords
p774
(lp775
(lp776
VWhat
p777
a(dp778
VNamedEntityTag
p779
g107
sVCharacterOffsetEnd
p780
V207
p781
sVCharacterOffsetBegin
p782
V203
p783
sVPartOfSpeech
p784
VWP
p785
sVLemma
p786
Vwhat
p787
saa(lp788
Vis
p789
a(dp790
VNamedEntityTag
p791
g107
sVCharacterOffsetEnd
p792
V210
p793
sVCharacterOffsetBegin
p794
V208
p795
sVPartOfSpeech
p796
VVBZ
p797
sVLemma
p798
Vbe
p799
saa(lp800
Vthe
p801
a(dp802
VNamedEntityTag
p803
g107
sVCharacterOffsetEnd
p804
V214
p805
sVCharacterOffsetBegin
p806
V211
p807
sVPartOfSpeech
p808
VDT
p809
sVLemma
p810
Vthe
p811
saa(lp812
Vtimes
p813
a(dp814
VNamedEntityTag
p815
g107
sVCharacterOffsetEnd
p816
V220
p817
sVCharacterOffsetBegin
p818
V215
p819
sVPartOfSpeech
p820
VNNS
p821
sVLemma
p822
Vtime
p823
saa(lp824
Vof
p825
a(dp826
VNamedEntityTag
p827
g107
sVCharacterOffsetEnd
p828
V223
p829
sVCharacterOffsetBegin
p830
V221
p831
sVPartOfSpeech
p832
VIN
p833
sVLemma
p834
Vof
p835
saa(lp836
Vincrease
p837
a(dp838
VNamedEntityTag
p839
g107
sVCharacterOffsetEnd
p840
V232
p841
sVCharacterOffsetBegin
p842
V224
p843
sVPartOfSpeech
p844
VNN
p845
sVLemma
p846
Vincrease
p847
saa(lp848
Vin
p849
a(dp850
VNamedEntityTag
p851
g107
sVCharacterOffsetEnd
p852
V235
p853
sVCharacterOffsetBegin
p854
V233
p855
sVPartOfSpeech
p856
VIN
p857
sVLemma
p858
Vin
p859
saa(lp860
Vthe
p861
a(dp862
VNamedEntityTag
p863
g107
sVCharacterOffsetEnd
p864
V239
p865
sVCharacterOffsetBegin
p866
V236
p867
sVPartOfSpeech
p868
VDT
p869
sVLemma
p870
Vthe
p871
saa(lp872
Vamount
p873
a(dp874
VNamedEntityTag
p875
g107
sVCharacterOffsetEnd
p876
V246
p877
sVCharacterOffsetBegin
p878
V240
p879
sVPartOfSpeech
p880
VNN
p881
sVLemma
p882
Vamount
p883
saa(lp884
Vof
p885
a(dp886
VNamedEntityTag
p887
g107
sVCharacterOffsetEnd
p888
V249
p889
sVCharacterOffsetBegin
p890
V247
p891
sVPartOfSpeech
p892
VIN
p893
sVLemma
p894
Vof
p895
saa(lp896
Vstrawberries
p897
a(dp898
VNamedEntityTag
p899
g107
sVCharacterOffsetEnd
p900
V262
p901
sVCharacterOffsetBegin
p902
V250
p903
sVPartOfSpeech
p904
VNNS
p905
sVLemma
p906
Vstrawberry
p907
saa(lp908
Vused
p909
a(dp910
VNamedEntityTag
p911
g107
sVCharacterOffsetEnd
p912
V267
p913
sVCharacterOffsetBegin
p914
V263
p915
sVPartOfSpeech
p916
VVBN
p917
sVLemma
p918
Vuse
p919
saa(lp920
Vannually
p921
a(dp922
VTimex
p923
V<TIMEX3 freq="P1X" periodicity="P1Y" quant="EVERY" tid="t4" type="SET" value="P1Y">annually</TIMEX3>
p924
sVCharacterOffsetEnd
p925
V276
p926
sVLemma
p927
Vannually
p928
sVPartOfSpeech
p929
VRB
p930
sVCharacterOffsetBegin
p931
V268
p932
sVNamedEntityTag
p933
VSET
p934
saa(lp935
V?
p936
a(dp937
VNamedEntityTag
p938
g107
sVCharacterOffsetEnd
p939
V278
p940
sVCharacterOffsetBegin
p941
V277
p942
sVPartOfSpeech
p943
g199
sVLemma
p944
g936
saasVindexeddependencies
p945
(lp946
(lp947
Vroot
p948
aVROOT-0
p949
aVused-12
p950
aa(lp951
Vdobj
p952
aVused-12
p953
aVWhat-1
p954
aa(lp955
Vauxpass
p956
aVused-12
p957
aVis-2
p958
aa(lp959
Vdet
p960
aVtimes-4
p961
aVthe-3
p962
aa(lp963
Vnsubjpass
p964
aVused-12
p965
aVtimes-4
p966
aa(lp967
Vprep_of
p968
aVtimes-4
p969
aVincrease-6
p970
aa(lp971
Vdet
p972
aVamount-9
p973
aVthe-8
p974
aa(lp975
Vprep_in
p976
aVincrease-6
p977
aVamount-9
p978
aa(lp979
Vprep_of
p980
aVamount-9
p981
aVstrawberries-11
p982
aa(lp983
Vadvmod
p984
aVused-12
p985
aVannually-13
p986
aasas.