(dp0
Vcoref
p1
(lp2
(lp3
(lp4
(lp5
Vher
p6
aI0
aI3
aI3
aI4
aa(lp7
VRachel
p8
aI0
aI0
aI0
aI1
aaa(lp9
(lp10
Vshe
p11
aI1
aI1
aI1
aI2
aa(lp12
VRachel
p13
aI0
aI0
aI0
aI1
aaa(lp14
(lp15
Vshe
p16
aI1
aI19
aI19
aI20
aa(lp17
VRachel
p18
aI0
aI0
aI0
aI1
aaaa(lp19
(lp20
(lp21
Vit
p22
aI0
aI17
aI17
aI18
aa(lp23
Veach of the shelves
p24
aI0
aI8
aI8
aI12
aaaasVsentences
p25
(lp26
(dp27
Vparsetree
p28
V(ROOT (S (NP (NNP Rachel)) (VP (VBD was) (VP (VBG organizing) (NP (PRP$ her) (NN book) (NN case)) (S (VP (VBG making) (ADJP (JJ sure) (SBAR (S (NP (NP (DT each)) (PP (IN of) (NP (DT the) (NNS shelves)))) (VP (VBD had) (NP (NP (RB exactly) (CD 9) (NNS books)) (PP (IN on) (NP (PRP it)))))))))))) (. .)))
p29
sVtext
p30
VRachel was organizing her book case making sure each of the shelves had exactly 9 books on it .
p31
sVdependencies
p32
(lp33
(lp34
Vroot
p35
aVROOT
p36
aVorganizing
p37
aa(lp38
Vnsubj
p39
aVorganizing
p40
aVRachel
p41
aa(lp42
Vaux
p43
aVorganizing
p44
aVwas
p45
aa(lp46
Vposs
p47
aVcase
p48
aVher
p49
aa(lp50
Vnn
p51
aVcase
p52
aVbook
p53
aa(lp54
Vdobj
p55
aVorganizing
p56
aVcase
p57
aa(lp58
Vvmod
p59
aVorganizing
p60
aVmaking
p61
aa(lp62
Vacomp
p63
aVmaking
p64
aVsure
p65
aa(lp66
Vnsubj
p67
aVhad
p68
aVeach
p69
aa(lp70
Vdet
p71
aVshelves
p72
aVthe
p73
aa(lp74
Vprep_of
p75
aVeach
p76
aVshelves
p77
aa(lp78
Vccomp
p79
aVsure
p80
aVhad
p81
aa(lp82
Vadvmod
p83
aVbooks
p84
aVexactly
p85
aa(lp86
Vnum
p87
aVbooks
p88
aV9
p89
aa(lp90
Vdobj
p91
aVhad
p92
aVbooks
p93
aa(lp94
Vprep_on
p95
aVbooks
p96
aVit
p97
aasVwords
p98
(lp99
(lp100
VRachel
p101
a(dp102
VNamedEntityTag
p103
VPERSON
p104
sVCharacterOffsetEnd
p105
V7
p106
sVCharacterOffsetBegin
p107
V1
p108
sVPartOfSpeech
p109
VNNP
p110
sVLemma
p111
VRachel
p112
saa(lp113
Vwas
p114
a(dp115
VNamedEntityTag
p116
VO
p117
sVCharacterOffsetEnd
p118
V11
p119
sVCharacterOffsetBegin
p120
V8
p121
sVPartOfSpeech
p122
VVBD
p123
sVLemma
p124
Vbe
p125
saa(lp126
Vorganizing
p127
a(dp128
VNamedEntityTag
p129
g117
sVCharacterOffsetEnd
p130
V22
p131
sVCharacterOffsetBegin
p132
V12
p133
sVPartOfSpeech
p134
VVBG
p135
sVLemma
p136
Vorganize
p137
saa(lp138
Vher
p139
a(dp140
VNamedEntityTag
p141
g117
sVCharacterOffsetEnd
p142
V26
p143
sVCharacterOffsetBegin
p144
V23
p145
sVPartOfSpeech
p146
VPRP$
p147
sVLemma
p148
Vshe
p149
saa(lp150
Vbook
p151
a(dp152
VNamedEntityTag
p153
g117
sVCharacterOffsetEnd
p154
V31
p155
sVCharacterOffsetBegin
p156
V27
p157
sVPartOfSpeech
p158
VNN
p159
sVLemma
p160
Vbook
p161
saa(lp162
Vcase
p163
a(dp164
VNamedEntityTag
p165
g117
sVCharacterOffsetEnd
p166
V36
p167
sVCharacterOffsetBegin
p168
V32
p169
sVPartOfSpeech
p170
VNN
p171
sVLemma
p172
Vcase
p173
saa(lp174
Vmaking
p175
a(dp176
VNamedEntityTag
p177
g117
sVCharacterOffsetEnd
p178
V43
p179
sVCharacterOffsetBegin
p180
V37
p181
sVPartOfSpeech
p182
VVBG
p183
sVLemma
p184
Vmake
p185
saa(lp186
Vsure
p187
a(dp188
VNamedEntityTag
p189
g117
sVCharacterOffsetEnd
p190
V48
p191
sVCharacterOffsetBegin
p192
V44
p193
sVPartOfSpeech
p194
VJJ
p195
sVLemma
p196
Vsure
p197
saa(lp198
Veach
p199
a(dp200
VNamedEntityTag
p201
g117
sVCharacterOffsetEnd
p202
V53
p203
sVCharacterOffsetBegin
p204
V49
p205
sVPartOfSpeech
p206
VDT
p207
sVLemma
p208
Veach
p209
saa(lp210
Vof
p211
a(dp212
VNamedEntityTag
p213
g117
sVCharacterOffsetEnd
p214
V56
p215
sVCharacterOffsetBegin
p216
V54
p217
sVPartOfSpeech
p218
VIN
p219
sVLemma
p220
Vof
p221
saa(lp222
Vthe
p223
a(dp224
VNamedEntityTag
p225
g117
sVCharacterOffsetEnd
p226
V60
p227
sVCharacterOffsetBegin
p228
V57
p229
sVPartOfSpeech
p230
VDT
p231
sVLemma
p232
Vthe
p233
saa(lp234
Vshelves
p235
a(dp236
VNamedEntityTag
p237
g117
sVCharacterOffsetEnd
p238
V68
p239
sVCharacterOffsetBegin
p240
V61
p241
sVPartOfSpeech
p242
VNNS
p243
sVLemma
p244
Vshelf
p245
saa(lp246
Vhad
p247
a(dp248
VNamedEntityTag
p249
g117
sVCharacterOffsetEnd
p250
V72
p251
sVCharacterOffsetBegin
p252
V69
p253
sVPartOfSpeech
p254
VVBD
p255
sVLemma
p256
Vhave
p257
saa(lp258
Vexactly
p259
a(dp260
VNamedEntityTag
p261
g117
sVCharacterOffsetEnd
p262
V80
p263
sVCharacterOffsetBegin
p264
V73
p265
sVPartOfSpeech
p266
VRB
p267
sVLemma
p268
Vexactly
p269
saa(lp270
g89
a(dp271
VNormalizedNamedEntityTag
p272
V9.0
p273
sVLemma
p274
g89
sVCharacterOffsetEnd
p275
V82
p276
sVPartOfSpeech
p277
VCD
p278
sVCharacterOffsetBegin
p279
V81
p280
sVNamedEntityTag
p281
VNUMBER
p282
saa(lp283
Vbooks
p284
a(dp285
VNamedEntityTag
p286
g117
sVCharacterOffsetEnd
p287
V88
p288
sVCharacterOffsetBegin
p289
V83
p290
sVPartOfSpeech
p291
VNNS
p292
sVLemma
p293
Vbook
p294
saa(lp295
Von
p296
a(dp297
VNamedEntityTag
p298
g117
sVCharacterOffsetEnd
p299
V91
p300
sVCharacterOffsetBegin
p301
V89
p302
sVPartOfSpeech
p303
VIN
p304
sVLemma
p305
Von
p306
saa(lp307
Vit
p308
a(dp309
VNamedEntityTag
p310
g117
sVCharacterOffsetEnd
p311
V94
p312
sVCharacterOffsetBegin
p313
V92
p314
sVPartOfSpeech
p315
VPRP
p316
sVLemma
p317
Vit
p318
saa(lp319
V.
p320
a(dp321
VNamedEntityTag
p322
g117
sVCharacterOffsetEnd
p323
V96
p324
sVCharacterOffsetBegin
p325
V95
p326
sVPartOfSpeech
p327
g320
sVLemma
p328
g320
saasVindexeddependencies
p329
(lp330
(lp331
Vroot
p332
aVROOT-0
p333
aVorganizing-3
p334
aa(lp335
Vnsubj
p336
aVorganizing-3
p337
aVRachel-1
p338
aa(lp339
Vaux
p340
aVorganizing-3
p341
aVwas-2
p342
aa(lp343
Vposs
p344
aVcase-6
p345
aVher-4
p346
aa(lp347
Vnn
p348
aVcase-6
p349
aVbook-5
p350
aa(lp351
Vdobj
p352
aVorganizing-3
p353
aVcase-6
p354
aa(lp355
Vvmod
p356
aVorganizing-3
p357
aVmaking-7
p358
aa(lp359
Vacomp
p360
aVmaking-7
p361
aVsure-8
p362
aa(lp363
Vnsubj
p364
aVhad-13
p365
aVeach-9
p366
aa(lp367
Vdet
p368
aVshelves-12
p369
aVthe-11
p370
aa(lp371
Vprep_of
p372
aVeach-9
p373
aVshelves-12
p374
aa(lp375
Vccomp
p376
aVsure-8
p377
aVhad-13
p378
aa(lp379
Vadvmod
p380
aVbooks-16
p381
aVexactly-14
p382
aa(lp383
Vnum
p384
aVbooks-16
p385
aV9-15
p386
aa(lp387
Vdobj
p388
aVhad-13
p389
aVbooks-16
p390
aa(lp391
Vprep_on
p392
aVbooks-16
p393
aVit-18
p394
aasa(dp395
Vparsetree
p396
V(ROOT (SBARQ (SBAR (IN If) (S (NP (PRP she)) (VP (VBD had) (NP (NP (NP (CD 6) (NNS shelves)) (PP (IN of) (NP (NN mystery) (NNS books)))) (CC and) (NP (NP (CD 2) (NNS shelves)) (PP (IN of) (NP (NN picture) (NNS books)))))))) (, ,) (WHNP (WHADJP (WRB how) (JJ many)) (NNS books)) (SQ (VBD did) (NP (PRP she)) (VP (VB have) (NP (NN total)))) (. ?)))
p397
sVtext
p398
VIf she had 6 shelves of mystery books and 2 shelves of picture books , how many books did she have total ?
p399
sVdependencies
p400
(lp401
(lp402
Vroot
p403
aVROOT
p404
aVhave
p405
aa(lp406
Vmark
p407
aVhad
p408
aVIf
p409
aa(lp410
Vnsubj
p411
aVhad
p412
aVshe
p413
aa(lp414
Vadvcl
p415
aVhave
p416
aVhad
p417
aa(lp418
Vnum
p419
aVshelves
p420
aV6
p421
aa(lp422
Vdobj
p423
aVhad
p424
aVshelves
p425
aa(lp426
Vnn
p427
aVbooks
p428
aVmystery
p429
aa(lp430
Vprep_of
p431
aVshelves
p432
aVbooks
p433
aa(lp434
Vnum
p435
aVshelves
p436
aV2
p437
aa(lp438
Vconj_and
p439
aVshelves
p440
aVshelves
p441
aa(lp442
Vnn
p443
aVbooks
p444
aVpicture
p445
aa(lp446
Vprep_of
p447
aVshelves
p448
aVbooks
p449
aa(lp450
Vadvmod
p451
aVmany
p452
aVhow
p453
aa(lp454
Vamod
p455
aVbooks
p456
aVmany
p457
aa(lp458
Vdep
p459
aVhave
p460
aVbooks
p461
aa(lp462
Vaux
p463
aVhave
p464
aVdid
p465
aa(lp466
Vnsubj
p467
aVhave
p468
aVshe
p469
aa(lp470
Vdobj
p471
aVhave
p472
aVtotal
p473
aasVwords
p474
(lp475
(lp476
VIf
p477
a(dp478
VNamedEntityTag
p479
g117
sVCharacterOffsetEnd
p480
V99
p481
sVCharacterOffsetBegin
p482
V97
p483
sVPartOfSpeech
p484
VIN
p485
sVLemma
p486
Vif
p487
saa(lp488
Vshe
p489
a(dp490
VNamedEntityTag
p491
g117
sVCharacterOffsetEnd
p492
V103
p493
sVCharacterOffsetBegin
p494
V100
p495
sVPartOfSpeech
p496
VPRP
p497
sVLemma
p498
Vshe
p499
saa(lp500
Vhad
p501
a(dp502
VNamedEntityTag
p503
g117
sVCharacterOffsetEnd
p504
V107
p505
sVCharacterOffsetBegin
p506
V104
p507
sVPartOfSpeech
p508
VVBD
p509
sVLemma
p510
Vhave
p511
saa(lp512
g421
a(dp513
VNormalizedNamedEntityTag
p514
V6.0
p515
sVLemma
p516
g421
sVCharacterOffsetEnd
p517
V109
p518
sVPartOfSpeech
p519
VCD
p520
sVCharacterOffsetBegin
p521
V108
p522
sVNamedEntityTag
p523
VNUMBER
p524
saa(lp525
Vshelves
p526
a(dp527
VNamedEntityTag
p528
g117
sVCharacterOffsetEnd
p529
V117
p530
sVCharacterOffsetBegin
p531
V110
p532
sVPartOfSpeech
p533
VNNS
p534
sVLemma
p535
Vshelf
p536
saa(lp537
Vof
p538
a(dp539
VNamedEntityTag
p540
g117
sVCharacterOffsetEnd
p541
V120
p542
sVCharacterOffsetBegin
p543
V118
p544
sVPartOfSpeech
p545
VIN
p546
sVLemma
p547
Vof
p548
saa(lp549
Vmystery
p550
a(dp551
VNamedEntityTag
p552
g117
sVCharacterOffsetEnd
p553
V128
p554
sVCharacterOffsetBegin
p555
V121
p556
sVPartOfSpeech
p557
VNN
p558
sVLemma
p559
Vmystery
p560
saa(lp561
Vbooks
p562
a(dp563
VNamedEntityTag
p564
g117
sVCharacterOffsetEnd
p565
V134
p566
sVCharacterOffsetBegin
p567
V129
p568
sVPartOfSpeech
p569
VNNS
p570
sVLemma
p571
Vbook
p572
saa(lp573
Vand
p574
a(dp575
VNamedEntityTag
p576
g117
sVCharacterOffsetEnd
p577
V138
p578
sVCharacterOffsetBegin
p579
V135
p580
sVPartOfSpeech
p581
VCC
p582
sVLemma
p583
Vand
p584
saa(lp585
g437
a(dp586
VNormalizedNamedEntityTag
p587
V2.0
p588
sVLemma
p589
g437
sVCharacterOffsetEnd
p590
V140
p591
sVPartOfSpeech
p592
VCD
p593
sVCharacterOffsetBegin
p594
V139
p595
sVNamedEntityTag
p596
VNUMBER
p597
saa(lp598
Vshelves
p599
a(dp600
VNamedEntityTag
p601
g117
sVCharacterOffsetEnd
p602
V148
p603
sVCharacterOffsetBegin
p604
V141
p605
sVPartOfSpeech
p606
VNNS
p607
sVLemma
p608
Vshelf
p609
saa(lp610
Vof
p611
a(dp612
VNamedEntityTag
p613
g117
sVCharacterOffsetEnd
p614
V151
p615
sVCharacterOffsetBegin
p616
V149
p617
sVPartOfSpeech
p618
VIN
p619
sVLemma
p620
Vof
p621
saa(lp622
Vpicture
p623
a(dp624
VNamedEntityTag
p625
g117
sVCharacterOffsetEnd
p626
V159
p627
sVCharacterOffsetBegin
p628
V152
p629
sVPartOfSpeech
p630
VNN
p631
sVLemma
p632
Vpicture
p633
saa(lp634
Vbooks
p635
a(dp636
VNamedEntityTag
p637
g117
sVCharacterOffsetEnd
p638
V165
p639
sVCharacterOffsetBegin
p640
V160
p641
sVPartOfSpeech
p642
VNNS
p643
sVLemma
p644
Vbook
p645
saa(lp646
V,
p647
a(dp648
VNamedEntityTag
p649
g117
sVCharacterOffsetEnd
p650
V167
p651
sVCharacterOffsetBegin
p652
V166
p653
sVPartOfSpeech
p654
g647
sVLemma
p655
g647
saa(lp656
Vhow
p657
a(dp658
VNamedEntityTag
p659
g117
sVCharacterOffsetEnd
p660
V171
p661
sVCharacterOffsetBegin
p662
V168
p663
sVPartOfSpeech
p664
VWRB
p665
sVLemma
p666
Vhow
p667
saa(lp668
Vmany
p669
a(dp670
VNamedEntityTag
p671
g117
sVCharacterOffsetEnd
p672
V176
p673
sVCharacterOffsetBegin
p674
V172
p675
sVPartOfSpeech
p676
VJJ
p677
sVLemma
p678
Vmany
p679
saa(lp680
Vbooks
p681
a(dp682
VNamedEntityTag
p683
g117
sVCharacterOffsetEnd
p684
V182
p685
sVCharacterOffsetBegin
p686
V177
p687
sVPartOfSpeech
p688
VNNS
p689
sVLemma
p690
Vbook
p691
saa(lp692
Vdid
p693
a(dp694
VNamedEntityTag
p695
g117
sVCharacterOffsetEnd
p696
V186
p697
sVCharacterOffsetBegin
p698
V183
p699
sVPartOfSpeech
p700
VVBD
p701
sVLemma
p702
Vdo
p703
saa(lp704
Vshe
p705
a(dp706
VNamedEntityTag
p707
g117
sVCharacterOffsetEnd
p708
V190
p709
sVCharacterOffsetBegin
p710
V187
p711
sVPartOfSpeech
p712
VPRP
p713
sVLemma
p714
Vshe
p715
saa(lp716
Vhave
p717
a(dp718
VNamedEntityTag
p719
g117
sVCharacterOffsetEnd
p720
V195
p721
sVCharacterOffsetBegin
p722
V191
p723
sVPartOfSpeech
p724
VVB
p725
sVLemma
p726
Vhave
p727
saa(lp728
Vtotal
p729
a(dp730
VNamedEntityTag
p731
g117
sVCharacterOffsetEnd
p732
V201
p733
sVCharacterOffsetBegin
p734
V196
p735
sVPartOfSpeech
p736
VNN
p737
sVLemma
p738
Vtotal
p739
saa(lp740
V?
p741
a(dp742
VNamedEntityTag
p743
g117
sVCharacterOffsetEnd
p744
V203
p745
sVCharacterOffsetBegin
p746
V202
p747
sVPartOfSpeech
p748
g320
sVLemma
p749
g741
saasVindexeddependencies
p750
(lp751
(lp752
Vroot
p753
aVROOT-0
p754
aVhave-21
p755
aa(lp756
Vmark
p757
aVhad-3
p758
aVIf-1
p759
aa(lp760
Vnsubj
p761
aVhad-3
p762
aVshe-2
p763
aa(lp764
Vadvcl
p765
aVhave-21
p766
aVhad-3
p767
aa(lp768
Vnum
p769
aVshelves-5
p770
aV6-4
p771
aa(lp772
Vdobj
p773
aVhad-3
p774
aVshelves-5
p775
aa(lp776
Vnn
p777
aVbooks-8
p778
aVmystery-7
p779
aa(lp780
Vprep_of
p781
aVshelves-5
p782
aVbooks-8
p783
aa(lp784
Vnum
p785
aVshelves-11
p786
aV2-10
p787
aa(lp788
Vconj_and
p789
aVshelves-5
p790
aVshelves-11
p791
aa(lp792
Vnn
p793
aVbooks-14
p794
aVpicture-13
p795
aa(lp796
Vprep_of
p797
aVshelves-11
p798
aVbooks-14
p799
aa(lp800
Vadvmod
p801
aVmany-17
p802
aVhow-16
p803
aa(lp804
Vamod
p805
aVbooks-18
p806
aVmany-17
p807
aa(lp808
Vdep
p809
aVhave-21
p810
aVbooks-18
p811
aa(lp812
Vaux
p813
aVhave-21
p814
aVdid-19
p815
aa(lp816
Vnsubj
p817
aVhave-21
p818
aVshe-20
p819
aa(lp820
Vdobj
p821
aVhave-21
p822
aVtotal-22
p823
aasas.