(dp0
Vsentences
p1
(lp2
(dp3
Vparsetree
p4
V(ROOT (S (NP (EX There)) (VP (VBP are) (NP (NP (CD 36) (NNS carpenters)) (PP (IN in) (NP (DT a) (NN crew))))) (. .)))
p5
sVtext
p6
VThere are 36 carpenters in a crew .
p7
sVdependencies
p8
(lp9
(lp10
Vroot
p11
aVROOT
p12
aVare
p13
aa(lp14
Vexpl
p15
aVare
p16
aVThere
p17
aa(lp18
Vnum
p19
aVcarpenters
p20
aV36
p21
aa(lp22
Vnsubj
p23
aVare
p24
aVcarpenters
p25
aa(lp26
Vdet
p27
aVcrew
p28
aVa
p29
aa(lp30
Vprep_in
p31
aVcarpenters
p32
aVcrew
p33
aasVwords
p34
(lp35
(lp36
VThere
p37
a(dp38
VNamedEntityTag
p39
VO
p40
sVCharacterOffsetEnd
p41
V6
p42
sVCharacterOffsetBegin
p43
V1
p44
sVPartOfSpeech
p45
VEX
p46
sVLemma
p47
Vthere
p48
saa(lp49
Vare
p50
a(dp51
VNamedEntityTag
p52
g40
sVCharacterOffsetEnd
p53
V10
p54
sVCharacterOffsetBegin
p55
V7
p56
sVPartOfSpeech
p57
VVBP
p58
sVLemma
p59
Vbe
p60
saa(lp61
V36
p62
a(dp63
VNormalizedNamedEntityTag
p64
V36.0
p65
sVLemma
p66
V36
p67
sVCharacterOffsetEnd
p68
V13
p69
sVPartOfSpeech
p70
VCD
p71
sVCharacterOffsetBegin
p72
V11
p73
sVNamedEntityTag
p74
VNUMBER
p75
saa(lp76
Vcarpenters
p77
a(dp78
VNamedEntityTag
p79
g40
sVCharacterOffsetEnd
p80
V24
p81
sVCharacterOffsetBegin
p82
V14
p83
sVPartOfSpeech
p84
VNNS
p85
sVLemma
p86
Vcarpenter
p87
saa(lp88
Vin
p89
a(dp90
VNamedEntityTag
p91
g40
sVCharacterOffsetEnd
p92
V27
p93
sVCharacterOffsetBegin
p94
V25
p95
sVPartOfSpeech
p96
VIN
p97
sVLemma
p98
Vin
p99
saa(lp100
g29
a(dp101
VNamedEntityTag
p102
g40
sVCharacterOffsetEnd
p103
V29
p104
sVCharacterOffsetBegin
p105
V28
p106
sVPartOfSpeech
p107
VDT
p108
sVLemma
p109
g29
saa(lp110
Vcrew
p111
a(dp112
VNamedEntityTag
p113
g40
sVCharacterOffsetEnd
p114
V34
p115
sVCharacterOffsetBegin
p116
V30
p117
sVPartOfSpeech
p118
VNN
p119
sVLemma
p120
Vcrew
p121
saa(lp122
V.
p123
a(dp124
VNamedEntityTag
p125
g40
sVCharacterOffsetEnd
p126
V36
p127
sVCharacterOffsetBegin
p128
V35
p129
sVPartOfSpeech
p130
g123
sVLemma
p131
g123
saasVindexeddependencies
p132
(lp133
(lp134
Vroot
p135
aVROOT-0
p136
aVare-2
p137
aa(lp138
Vexpl
p139
aVare-2
p140
aVThere-1
p141
aa(lp142
Vnum
p143
aVcarpenters-4
p144
aV36-3
p145
aa(lp146
Vnsubj
p147
aVare-2
p148
aVcarpenters-4
p149
aa(lp150
Vdet
p151
aVcrew-7
p152
aVa-6
p153
aa(lp154
Vprep_in
p155
aVcarpenters-4
p156
aVcrew-7
p157
aasa(dp158
Vparsetree
p159
V(ROOT (S (PP (IN On) (NP (DT a) (JJ certain) (NN day))) (, ,) (NP (CD 29)) (VP (VBD were) (ADJP (JJ present))) (. .)))
p160
sVtext
p161
VOn a certain day , 29 were present .
p162
sVdependencies
p163
(lp164
(lp165
Vroot
p166
aVROOT
p167
aVpresent
p168
aa(lp169
Vdet
p170
aVday
p171
ag29
aa(lp172
Vamod
p173
aVday
p174
aVcertain
p175
aa(lp176
Vprep_on
p177
aVpresent
p178
aVday
p179
aa(lp180
Vnsubj
p181
aVpresent
p182
aV29
p183
aa(lp184
Vcop
p185
aVpresent
p186
aVwere
p187
aasVwords
p188
(lp189
(lp190
VOn
p191
a(dp192
VNamedEntityTag
p193
g40
sVCharacterOffsetEnd
p194
V39
p195
sVCharacterOffsetBegin
p196
V37
p197
sVPartOfSpeech
p198
VIN
p199
sVLemma
p200
Von
p201
saa(lp202
g29
a(dp203
VNamedEntityTag
p204
g40
sVCharacterOffsetEnd
p205
V41
p206
sVCharacterOffsetBegin
p207
V40
p208
sVPartOfSpeech
p209
VDT
p210
sVLemma
p211
g29
saa(lp212
Vcertain
p213
a(dp214
VNamedEntityTag
p215
g40
sVCharacterOffsetEnd
p216
V49
p217
sVCharacterOffsetBegin
p218
V42
p219
sVPartOfSpeech
p220
VJJ
p221
sVLemma
p222
Vcertain
p223
saa(lp224
Vday
p225
a(dp226
VNormalizedNamedEntityTag
p227
VP1D
p228
sVTimex
p229
V<TIMEX3 tid="t1" type="DURATION" value="P1D">day</TIMEX3>
p230
sVLemma
p231
Vday
p232
sVCharacterOffsetEnd
p233
V53
p234
sVPartOfSpeech
p235
VNN
p236
sVCharacterOffsetBegin
p237
V50
p238
sVNamedEntityTag
p239
VDURATION
p240
saa(lp241
V,
p242
a(dp243
VNamedEntityTag
p244
g40
sVCharacterOffsetEnd
p245
V55
p246
sVCharacterOffsetBegin
p247
V54
p248
sVPartOfSpeech
p249
g242
sVLemma
p250
g242
saa(lp251
V29
p252
a(dp253
VNormalizedNamedEntityTag
p254
V29.0
p255
sVLemma
p256
V29
p257
sVCharacterOffsetEnd
p258
V58
p259
sVPartOfSpeech
p260
VCD
p261
sVCharacterOffsetBegin
p262
V56
p263
sVNamedEntityTag
p264
VNUMBER
p265
saa(lp266
Vwere
p267
a(dp268
VNamedEntityTag
p269
g40
sVCharacterOffsetEnd
p270
V63
p271
sVCharacterOffsetBegin
p272
V59
p273
sVPartOfSpeech
p274
VVBD
p275
sVLemma
p276
Vbe
p277
saa(lp278
Vpresent
p279
a(dp280
VNormalizedNamedEntityTag
p281
VPRESENT_REF
p282
sVTimex
p283
V<TIMEX3 tid="t2" type="DATE" value="PRESENT_REF">present</TIMEX3>
p284
sVLemma
p285
Vpresent
p286
sVCharacterOffsetEnd
p287
V71
p288
sVPartOfSpeech
p289
VJJ
p290
sVCharacterOffsetBegin
p291
V64
p292
sVNamedEntityTag
p293
VDATE
p294
saa(lp295
g123
a(dp296
VNamedEntityTag
p297
g40
sVCharacterOffsetEnd
p298
V73
p299
sVCharacterOffsetBegin
p300
V72
p301
sVPartOfSpeech
p302
g123
sVLemma
p303
g123
saasVindexeddependencies
p304
(lp305
(lp306
Vroot
p307
aVROOT-0
p308
aVpresent-8
p309
aa(lp310
Vdet
p311
aVday-4
p312
aVa-2
p313
aa(lp314
Vamod
p315
aVday-4
p316
aVcertain-3
p317
aa(lp318
Vprep_on
p319
aVpresent-8
p320
aVday-4
p321
aa(lp322
Vnsubj
p323
aVpresent-8
p324
aV29-6
p325
aa(lp326
Vcop
p327
aVpresent-8
p328
aVwere-7
p329
aasa(dp330
Vparsetree
p331
V(ROOT (SBARQ (WHNP (WDT What) (NNS times)) (SQ (VP (VBD showed) (PRT (RP up)) (PP (IN for) (NP (NN work))))) (. ?)))
p332
sVtext
p333
VWhat times showed up for work ?
p334
sVdependencies
p335
(lp336
(lp337
Vroot
p338
aVROOT
p339
aVshowed
p340
aa(lp341
Vdet
p342
aVtimes
p343
aVWhat
p344
aa(lp345
Vnsubj
p346
aVshowed
p347
aVtimes
p348
aa(lp349
Vprt
p350
aVshowed
p351
aVup
p352
aa(lp353
Vprep_for
p354
aVshowed
p355
aVwork
p356
aasVwords
p357
(lp358
(lp359
VWhat
p360
a(dp361
VNamedEntityTag
p362
g40
sVCharacterOffsetEnd
p363
V78
p364
sVCharacterOffsetBegin
p365
V74
p366
sVPartOfSpeech
p367
VWDT
p368
sVLemma
p369
Vwhat
p370
saa(lp371
Vtimes
p372
a(dp373
VNamedEntityTag
p374
g40
sVCharacterOffsetEnd
p375
V84
p376
sVCharacterOffsetBegin
p377
V79
p378
sVPartOfSpeech
p379
VNNS
p380
sVLemma
p381
Vtime
p382
saa(lp383
Vshowed
p384
a(dp385
VNamedEntityTag
p386
g40
sVCharacterOffsetEnd
p387
V91
p388
sVCharacterOffsetBegin
p389
V85
p390
sVPartOfSpeech
p391
VVBD
p392
sVLemma
p393
Vshow
p394
saa(lp395
Vup
p396
a(dp397
VNamedEntityTag
p398
g40
sVCharacterOffsetEnd
p399
V94
p400
sVCharacterOffsetBegin
p401
V92
p402
sVPartOfSpeech
p403
VRP
p404
sVLemma
p405
Vup
p406
saa(lp407
Vfor
p408
a(dp409
VNamedEntityTag
p410
g40
sVCharacterOffsetEnd
p411
V98
p412
sVCharacterOffsetBegin
p413
V95
p414
sVPartOfSpeech
p415
VIN
p416
sVLemma
p417
Vfor
p418
saa(lp419
Vwork
p420
a(dp421
VNamedEntityTag
p422
g40
sVCharacterOffsetEnd
p423
V103
p424
sVCharacterOffsetBegin
p425
V99
p426
sVPartOfSpeech
p427
VNN
p428
sVLemma
p429
Vwork
p430
saa(lp431
V?
p432
a(dp433
VNamedEntityTag
p434
g40
sVCharacterOffsetEnd
p435
V105
p436
sVCharacterOffsetBegin
p437
V104
p438
sVPartOfSpeech
p439
g123
sVLemma
p440
g432
saasVindexeddependencies
p441
(lp442
(lp443
Vroot
p444
aVROOT-0
p445
aVshowed-3
p446
aa(lp447
Vdet
p448
aVtimes-2
p449
aVWhat-1
p450
aa(lp451
Vnsubj
p452
aVshowed-3
p453
aVtimes-2
p454
aa(lp455
Vprt
p456
aVshowed-3
p457
aVup-4
p458
aa(lp459
Vprep_for
p460
aVshowed-3
p461
aVwork-6
p462
aasas.