(dp0
Vcoref
p1
(lp2
(lp3
(lp4
(lp5
Vher
p6
aI0
aI5
aI5
aI6
aa(lp7
VRachel
p8
aI0
aI0
aI0
aI1
aaa(lp9
(lp10
VShe
p11
aI1
aI0
aI0
aI1
aa(lp12
VRachel
p13
aI0
aI0
aI0
aI1
aaa(lp14
(lp15
VRachel
p16
aI2
aI7
aI7
aI8
aa(lp17
VRachel
p18
aI0
aI0
aI0
aI1
aaaasVsentences
p19
(lp20
(dp21
Vparsetree
p22
V(ROOT (S (NP (NNP Rachel)) (VP (VBD was) (VP (VBG unboxing) (NP (NP (DT some)) (PP (IN of) (NP (PRP$ her) (JJ old) (NN winter) (NNS clothes)))))) (. .)))
p23
sVtext
p24
VRachel was unboxing some of her old winter clothes .
p25
sVdependencies
p26
(lp27
(lp28
Vroot
p29
aVROOT
p30
aVunboxing
p31
aa(lp32
Vnsubj
p33
aVunboxing
p34
aVRachel
p35
aa(lp36
Vaux
p37
aVunboxing
p38
aVwas
p39
aa(lp40
Vdobj
p41
aVunboxing
p42
aVsome
p43
aa(lp44
Vposs
p45
aVclothes
p46
aVher
p47
aa(lp48
Vamod
p49
aVclothes
p50
aVold
p51
aa(lp52
Vnn
p53
aVclothes
p54
aVwinter
p55
aa(lp56
Vprep_of
p57
aVsome
p58
aVclothes
p59
aasVwords
p60
(lp61
(lp62
VRachel
p63
a(dp64
VNamedEntityTag
p65
VPERSON
p66
sVCharacterOffsetEnd
p67
V7
p68
sVCharacterOffsetBegin
p69
V1
p70
sVPartOfSpeech
p71
VNNP
p72
sVLemma
p73
VRachel
p74
saa(lp75
Vwas
p76
a(dp77
VNamedEntityTag
p78
VO
p79
sVCharacterOffsetEnd
p80
V11
p81
sVCharacterOffsetBegin
p82
V8
p83
sVPartOfSpeech
p84
VVBD
p85
sVLemma
p86
Vbe
p87
saa(lp88
Vunboxing
p89
a(dp90
VNamedEntityTag
p91
g79
sVCharacterOffsetEnd
p92
V20
p93
sVCharacterOffsetBegin
p94
V12
p95
sVPartOfSpeech
p96
VVBG
p97
sVLemma
p98
Vunbox
p99
saa(lp100
Vsome
p101
a(dp102
VNamedEntityTag
p103
g79
sVCharacterOffsetEnd
p104
V25
p105
sVCharacterOffsetBegin
p106
V21
p107
sVPartOfSpeech
p108
VDT
p109
sVLemma
p110
Vsome
p111
saa(lp112
Vof
p113
a(dp114
VNamedEntityTag
p115
g79
sVCharacterOffsetEnd
p116
V28
p117
sVCharacterOffsetBegin
p118
V26
p119
sVPartOfSpeech
p120
VIN
p121
sVLemma
p122
Vof
p123
saa(lp124
Vher
p125
a(dp126
VNamedEntityTag
p127
g79
sVCharacterOffsetEnd
p128
V32
p129
sVCharacterOffsetBegin
p130
V29
p131
sVPartOfSpeech
p132
VPRP$
p133
sVLemma
p134
Vshe
p135
saa(lp136
Vold
p137
a(dp138
VNamedEntityTag
p139
g79
sVCharacterOffsetEnd
p140
V36
p141
sVCharacterOffsetBegin
p142
V33
p143
sVPartOfSpeech
p144
VJJ
p145
sVLemma
p146
Vold
p147
saa(lp148
Vwinter
p149
a(dp150
VNormalizedNamedEntityTag
p151
VXXXX-WI
p152
sVTimex
p153
V<TIMEX3 tid="t1" type="DATE" value="XXXX-WI">winter</TIMEX3>
p154
sVLemma
p155
Vwinter
p156
sVCharacterOffsetEnd
p157
V43
p158
sVPartOfSpeech
p159
VNN
p160
sVCharacterOffsetBegin
p161
V37
p162
sVNamedEntityTag
p163
VDATE
p164
saa(lp165
Vclothes
p166
a(dp167
VNamedEntityTag
p168
g79
sVCharacterOffsetEnd
p169
V51
p170
sVCharacterOffsetBegin
p171
V44
p172
sVPartOfSpeech
p173
VNNS
p174
sVLemma
p175
Vclothes
p176
saa(lp177
V.
p178
a(dp179
VNamedEntityTag
p180
g79
sVCharacterOffsetEnd
p181
V53
p182
sVCharacterOffsetBegin
p183
V52
p184
sVPartOfSpeech
p185
g178
sVLemma
p186
g178
saasVindexeddependencies
p187
(lp188
(lp189
Vroot
p190
aVROOT-0
p191
aVunboxing-3
p192
aa(lp193
Vnsubj
p194
aVunboxing-3
p195
aVRachel-1
p196
aa(lp197
Vaux
p198
aVunboxing-3
p199
aVwas-2
p200
aa(lp201
Vdobj
p202
aVunboxing-3
p203
aVsome-4
p204
aa(lp205
Vposs
p206
aVclothes-9
p207
aVher-6
p208
aa(lp209
Vamod
p210
aVclothes-9
p211
aVold-7
p212
aa(lp213
Vnn
p214
aVclothes-9
p215
aVwinter-8
p216
aa(lp217
Vprep_of
p218
aVsome-4
p219
aVclothes-9
p220
aasa(dp221
Vparsetree
p222
V(ROOT (S (S (NP (PRP She)) (VP (VBD found) (NP (NP (CD 7) (NNS boxes)) (PP (IN of) (NP (NN clothing)))))) (CC and) (S (PP (IN inside) (NP (DT each) (NN box))) (NP (EX there)) (VP (VBD were) (NP (NP (CD 3) (NNS scarves)) (CC and) (NP (CD 4) (NNS mittens))))) (. .)))
p223
sVtext
p224
VShe found 7 boxes of clothing and inside each box there were 3 scarves and 4 mittens .
p225
sVdependencies
p226
(lp227
(lp228
Vroot
p229
aVROOT
p230
aVfound
p231
aa(lp232
Vnsubj
p233
aVfound
p234
aVShe
p235
aa(lp236
Vnum
p237
aVboxes
p238
ag68
aa(lp239
Vdobj
p240
aVfound
p241
aVboxes
p242
aa(lp243
Vprep_of
p244
aVboxes
p245
aVclothing
p246
aa(lp247
Vdet
p248
aVbox
p249
aVeach
p250
aa(lp251
Vprep_inside
p252
aVwere
p253
aVbox
p254
aa(lp255
Vexpl
p256
aVwere
p257
aVthere
p258
aa(lp259
Vconj_and
p260
aVfound
p261
aVwere
p262
aa(lp263
Vnum
p264
aVscarves
p265
aV3
p266
aa(lp267
Vnsubj
p268
aVwere
p269
aVscarves
p270
aa(lp271
Vnum
p272
aVmittens
p273
aV4
p274
aa(lp275
Vconj_and
p276
aVscarves
p277
aVmittens
p278
aasVwords
p279
(lp280
(lp281
VShe
p282
a(dp283
VNamedEntityTag
p284
g79
sVCharacterOffsetEnd
p285
V57
p286
sVCharacterOffsetBegin
p287
V54
p288
sVPartOfSpeech
p289
VPRP
p290
sVLemma
p291
Vshe
p292
saa(lp293
Vfound
p294
a(dp295
VNamedEntityTag
p296
g79
sVCharacterOffsetEnd
p297
V63
p298
sVCharacterOffsetBegin
p299
V58
p300
sVPartOfSpeech
p301
VVBD
p302
sVLemma
p303
Vfind
p304
saa(lp305
g68
a(dp306
VNormalizedNamedEntityTag
p307
V7.0
p308
sVLemma
p309
g68
sVCharacterOffsetEnd
p310
V65
p311
sVPartOfSpeech
p312
VCD
p313
sVCharacterOffsetBegin
p314
V64
p315
sVNamedEntityTag
p316
VNUMBER
p317
saa(lp318
Vboxes
p319
a(dp320
VNamedEntityTag
p321
g79
sVCharacterOffsetEnd
p322
V71
p323
sVCharacterOffsetBegin
p324
V66
p325
sVPartOfSpeech
p326
VNNS
p327
sVLemma
p328
Vbox
p329
saa(lp330
Vof
p331
a(dp332
VNamedEntityTag
p333
g79
sVCharacterOffsetEnd
p334
V74
p335
sVCharacterOffsetBegin
p336
V72
p337
sVPartOfSpeech
p338
VIN
p339
sVLemma
p340
Vof
p341
saa(lp342
Vclothing
p343
a(dp344
VNamedEntityTag
p345
g79
sVCharacterOffsetEnd
p346
V83
p347
sVCharacterOffsetBegin
p348
V75
p349
sVPartOfSpeech
p350
VNN
p351
sVLemma
p352
Vclothing
p353
saa(lp354
Vand
p355
a(dp356
VNamedEntityTag
p357
g79
sVCharacterOffsetEnd
p358
V87
p359
sVCharacterOffsetBegin
p360
V84
p361
sVPartOfSpeech
p362
VCC
p363
sVLemma
p364
Vand
p365
saa(lp366
Vinside
p367
a(dp368
VNamedEntityTag
p369
g79
sVCharacterOffsetEnd
p370
V94
p371
sVCharacterOffsetBegin
p372
V88
p373
sVPartOfSpeech
p374
VIN
p375
sVLemma
p376
Vinside
p377
saa(lp378
Veach
p379
a(dp380
VNamedEntityTag
p381
g79
sVCharacterOffsetEnd
p382
V99
p383
sVCharacterOffsetBegin
p384
V95
p385
sVPartOfSpeech
p386
VDT
p387
sVLemma
p388
Veach
p389
saa(lp390
Vbox
p391
a(dp392
VNamedEntityTag
p393
g79
sVCharacterOffsetEnd
p394
V103
p395
sVCharacterOffsetBegin
p396
V100
p397
sVPartOfSpeech
p398
VNN
p399
sVLemma
p400
Vbox
p401
saa(lp402
Vthere
p403
a(dp404
VNamedEntityTag
p405
g79
sVCharacterOffsetEnd
p406
V109
p407
sVCharacterOffsetBegin
p408
V104
p409
sVPartOfSpeech
p410
VEX
p411
sVLemma
p412
Vthere
p413
saa(lp414
Vwere
p415
a(dp416
VNamedEntityTag
p417
g79
sVCharacterOffsetEnd
p418
V114
p419
sVCharacterOffsetBegin
p420
V110
p421
sVPartOfSpeech
p422
VVBD
p423
sVLemma
p424
Vbe
p425
saa(lp426
g266
a(dp427
VNormalizedNamedEntityTag
p428
V3.0
p429
sVLemma
p430
g266
sVCharacterOffsetEnd
p431
V116
p432
sVPartOfSpeech
p433
VCD
p434
sVCharacterOffsetBegin
p435
V115
p436
sVNamedEntityTag
p437
VNUMBER
p438
saa(lp439
Vscarves
p440
a(dp441
VNamedEntityTag
p442
g79
sVCharacterOffsetEnd
p443
V124
p444
sVCharacterOffsetBegin
p445
V117
p446
sVPartOfSpeech
p447
VNNS
p448
sVLemma
p449
Vscarf
p450
saa(lp451
Vand
p452
a(dp453
VNamedEntityTag
p454
g79
sVCharacterOffsetEnd
p455
V128
p456
sVCharacterOffsetBegin
p457
V125
p458
sVPartOfSpeech
p459
VCC
p460
sVLemma
p461
Vand
p462
saa(lp463
g274
a(dp464
VNormalizedNamedEntityTag
p465
V4.0
p466
sVLemma
p467
g274
sVCharacterOffsetEnd
p468
V130
p469
sVPartOfSpeech
p470
VCD
p471
sVCharacterOffsetBegin
p472
V129
p473
sVNamedEntityTag
p474
VNUMBER
p475
saa(lp476
Vmittens
p477
a(dp478
VNamedEntityTag
p479
g79
sVCharacterOffsetEnd
p480
V138
p481
sVCharacterOffsetBegin
p482
V131
p483
sVPartOfSpeech
p484
VNNS
p485
sVLemma
p486
Vmitten
p487
saa(lp488
g178
a(dp489
VNamedEntityTag
p490
g79
sVCharacterOffsetEnd
p491
V140
p492
sVCharacterOffsetBegin
p493
V139
p494
sVPartOfSpeech
p495
g178
sVLemma
p496
g178
saasVindexeddependencies
p497
(lp498
(lp499
Vroot
p500
aVROOT-0
p501
aVfound-2
p502
aa(lp503
Vnsubj
p504
aVfound-2
p505
aVShe-1
p506
aa(lp507
Vnum
p508
aVboxes-4
p509
aV7-3
p510
aa(lp511
Vdobj
p512
aVfound-2
p513
aVboxes-4
p514
aa(lp515
Vprep_of
p516
aVboxes-4
p517
aVclothing-6
p518
aa(lp519
Vdet
p520
aVbox-10
p521
aVeach-9
p522
aa(lp523
Vprep_inside
p524
aVwere-12
p525
aVbox-10
p526
aa(lp527
Vexpl
p528
aVwere-12
p529
aVthere-11
p530
aa(lp531
Vconj_and
p532
aVfound-2
p533
aVwere-12
p534
aa(lp535
Vnum
p536
aVscarves-14
p537
aV3-13
p538
aa(lp539
Vnsubj
p540
aVwere-12
p541
aVscarves-14
p542
aa(lp543
Vnum
p544
aVmittens-17
p545
aV4-16
p546
aa(lp547
Vconj_and
p548
aVscarves-14
p549
aVmittens-17
p550
aasa(dp551
Vparsetree
p552
V(ROOT (SBARQ (WHNP (WHADJP (WRB How) (JJ many)) (NP (NP (NNS pieces)) (PP (IN of) (NP (NN winter) (NN clothing))))) (SQ (VBD did) (NP (NNP Rachel)) (VP (VB have) (NP (NN total)))) (. ?)))
p553
sVtext
p554
VHow many pieces of winter clothing did Rachel have total ?
p555
sVdependencies
p556
(lp557
(lp558
Vroot
p559
aVROOT
p560
aVhave
p561
aa(lp562
Vadvmod
p563
aVmany
p564
aVHow
p565
aa(lp566
Vamod
p567
aVpieces
p568
aVmany
p569
aa(lp570
Vdep
p571
aVhave
p572
aVpieces
p573
aa(lp574
Vnn
p575
aVclothing
p576
aVwinter
p577
aa(lp578
Vprep_of
p579
aVpieces
p580
aVclothing
p581
aa(lp582
Vaux
p583
aVhave
p584
aVdid
p585
aa(lp586
Vnsubj
p587
aVhave
p588
aVRachel
p589
aa(lp590
Vdobj
p591
aVhave
p592
aVtotal
p593
aasVwords
p594
(lp595
(lp596
VHow
p597
a(dp598
VNamedEntityTag
p599
g79
sVCharacterOffsetEnd
p600
V144
p601
sVCharacterOffsetBegin
p602
V141
p603
sVPartOfSpeech
p604
VWRB
p605
sVLemma
p606
Vhow
p607
saa(lp608
Vmany
p609
a(dp610
VNamedEntityTag
p611
g79
sVCharacterOffsetEnd
p612
V149
p613
sVCharacterOffsetBegin
p614
V145
p615
sVPartOfSpeech
p616
VJJ
p617
sVLemma
p618
Vmany
p619
saa(lp620
Vpieces
p621
a(dp622
VNamedEntityTag
p623
g79
sVCharacterOffsetEnd
p624
V156
p625
sVCharacterOffsetBegin
p626
V150
p627
sVPartOfSpeech
p628
VNNS
p629
sVLemma
p630
Vpiece
p631
saa(lp632
Vof
p633
a(dp634
VNamedEntityTag
p635
g79
sVCharacterOffsetEnd
p636
V159
p637
sVCharacterOffsetBegin
p638
V157
p639
sVPartOfSpeech
p640
VIN
p641
sVLemma
p642
Vof
p643
saa(lp644
Vwinter
p645
a(dp646
VNormalizedNamedEntityTag
p647
VXXXX-WI
p648
sVTimex
p649
V<TIMEX3 tid="t2" type="DATE" value="XXXX-WI">winter</TIMEX3>
p650
sVLemma
p651
Vwinter
p652
sVCharacterOffsetEnd
p653
V166
p654
sVPartOfSpeech
p655
VNN
p656
sVCharacterOffsetBegin
p657
V160
p658
sVNamedEntityTag
p659
VDATE
p660
saa(lp661
Vclothing
p662
a(dp663
VNamedEntityTag
p664
g79
sVCharacterOffsetEnd
p665
V175
p666
sVCharacterOffsetBegin
p667
V167
p668
sVPartOfSpeech
p669
VNN
p670
sVLemma
p671
Vclothing
p672
saa(lp673
Vdid
p674
a(dp675
VNamedEntityTag
p676
g79
sVCharacterOffsetEnd
p677
V179
p678
sVCharacterOffsetBegin
p679
V176
p680
sVPartOfSpeech
p681
VVBD
p682
sVLemma
p683
Vdo
p684
saa(lp685
VRachel
p686
a(dp687
VNamedEntityTag
p688
VPERSON
p689
sVCharacterOffsetEnd
p690
V186
p691
sVCharacterOffsetBegin
p692
V180
p693
sVPartOfSpeech
p694
VNNP
p695
sVLemma
p696
VRachel
p697
saa(lp698
Vhave
p699
a(dp700
VNamedEntityTag
p701
g79
sVCharacterOffsetEnd
p702
V191
p703
sVCharacterOffsetBegin
p704
V187
p705
sVPartOfSpeech
p706
VVB
p707
sVLemma
p708
Vhave
p709
saa(lp710
Vtotal
p711
a(dp712
VNamedEntityTag
p713
g79
sVCharacterOffsetEnd
p714
V197
p715
sVCharacterOffsetBegin
p716
V192
p717
sVPartOfSpeech
p718
VNN
p719
sVLemma
p720
Vtotal
p721
saa(lp722
V?
p723
a(dp724
VNamedEntityTag
p725
g79
sVCharacterOffsetEnd
p726
V199
p727
sVCharacterOffsetBegin
p728
V198
p729
sVPartOfSpeech
p730
g178
sVLemma
p731
g723
saasVindexeddependencies
p732
(lp733
(lp734
Vroot
p735
aVROOT-0
p736
aVhave-9
p737
aa(lp738
Vadvmod
p739
aVmany-2
p740
aVHow-1
p741
aa(lp742
Vamod
p743
aVpieces-3
p744
aVmany-2
p745
aa(lp746
Vdep
p747
aVhave-9
p748
aVpieces-3
p749
aa(lp750
Vnn
p751
aVclothing-6
p752
aVwinter-5
p753
aa(lp754
Vprep_of
p755
aVpieces-3
p756
aVclothing-6
p757
aa(lp758
Vaux
p759
aVhave-9
p760
aVdid-7
p761
aa(lp762
Vnsubj
p763
aVhave-9
p764
aVRachel-8
p765
aa(lp766
Vdobj
p767
aVhave-9
p768
aVtotal-10
p769
aasas.