(dp0
Vcoref
p1
(lp2
(lp3
(lp4
(lp5
Vhis
p6
aI1
aI4
aI4
aI5
aa(lp7
VBlake 's
p8
aI0
aI0
aI0
aI2
aaa(lp9
(lp10
VBlake 's
p11
aI1
aI8
aI8
aI10
aa(lp12
VBlake 's
p13
aI0
aI0
aI0
aI2
aaaa(lp14
(lp15
(lp16
VBlake 's mortgage payment
p17
aI1
aI11
aI8
aI12
aa(lp18
VBlake 's mortgage payment
p19
aI0
aI3
aI0
aI4
aaaa(lp20
(lp21
(lp22
Vit
p23
aI1
aI17
aI17
aI18
aa(lp24
Vhis home loan
p25
aI1
aI6
aI4
aI7
aaaasVsentences
p26
(lp27
(dp28
Vparsetree
p29
V(ROOT (S (NP (NP (NNP Blake) (POS 's)) (NN mortgage) (NN payment)) (VP (VBD was) (ADVP (RB originally)) (NP (NP ($ $) (CD 3,370)) (PP (IN per) (NP (NN month))))) (. .)))
p30
sVtext
p31
VBlake's mortgage payment was originally $3,370 per month .
p32
sVdependencies
p33
(lp34
(lp35
Vroot
p36
aVROOT
p37
aV$
p38
aa(lp39
Vposs
p40
aVpayment
p41
aVBlake
p42
aa(lp43
Vnn
p44
aVpayment
p45
aVmortgage
p46
aa(lp47
Vnsubj
p48
ag38
aVpayment
p49
aa(lp50
Vcop
p51
ag38
aVwas
p52
aa(lp53
Vadvmod
p54
ag38
aVoriginally
p55
aa(lp56
Vnum
p57
ag38
aV3,370
p58
aa(lp59
Vprep_per
p60
ag38
aVmonth
p61
aasVwords
p62
(lp63
(lp64
VBlake
p65
a(dp66
VNamedEntityTag
p67
VPERSON
p68
sVCharacterOffsetEnd
p69
V6
p70
sVCharacterOffsetBegin
p71
V1
p72
sVPartOfSpeech
p73
VNNP
p74
sVLemma
p75
VBlake
p76
saa(lp77
V's
p78
a(dp79
VNamedEntityTag
p80
VO
p81
sVCharacterOffsetEnd
p82
V8
p83
sVCharacterOffsetBegin
p84
g70
sVPartOfSpeech
p85
VPOS
p86
sVLemma
p87
V's
p88
saa(lp89
Vmortgage
p90
a(dp91
VNamedEntityTag
p92
g81
sVCharacterOffsetEnd
p93
V17
p94
sVCharacterOffsetBegin
p95
V9
p96
sVPartOfSpeech
p97
VNN
p98
sVLemma
p99
Vmortgage
p100
saa(lp101
Vpayment
p102
a(dp103
VNamedEntityTag
p104
g81
sVCharacterOffsetEnd
p105
V25
p106
sVCharacterOffsetBegin
p107
V18
p108
sVPartOfSpeech
p109
VNN
p110
sVLemma
p111
Vpayment
p112
saa(lp113
Vwas
p114
a(dp115
VNamedEntityTag
p116
g81
sVCharacterOffsetEnd
p117
V29
p118
sVCharacterOffsetBegin
p119
V26
p120
sVPartOfSpeech
p121
VVBD
p122
sVLemma
p123
Vbe
p124
saa(lp125
Voriginally
p126
a(dp127
VNamedEntityTag
p128
g81
sVCharacterOffsetEnd
p129
V40
p130
sVCharacterOffsetBegin
p131
V30
p132
sVPartOfSpeech
p133
VRB
p134
sVLemma
p135
Voriginally
p136
saa(lp137
g38
a(dp138
VNormalizedNamedEntityTag
p139
V$3370.0
p140
sVLemma
p141
g38
sVCharacterOffsetEnd
p142
V42
p143
sVPartOfSpeech
p144
g38
sVCharacterOffsetBegin
p145
V41
p146
sVNamedEntityTag
p147
VMONEY
p148
saa(lp149
V3,370
p150
a(dp151
VNormalizedNamedEntityTag
p152
V$3370.0
p153
sVLemma
p154
V3,370
p155
sVCharacterOffsetEnd
p156
V47
p157
sVPartOfSpeech
p158
VCD
p159
sVCharacterOffsetBegin
p160
V42
p161
sVNamedEntityTag
p162
VMONEY
p163
saa(lp164
Vper
p165
a(dp166
VNamedEntityTag
p167
g81
sVCharacterOffsetEnd
p168
V51
p169
sVCharacterOffsetBegin
p170
V48
p171
sVPartOfSpeech
p172
VIN
p173
sVLemma
p174
Vper
p175
saa(lp176
Vmonth
p177
a(dp178
VNormalizedNamedEntityTag
p179
VP1M
p180
sVTimex
p181
V<TIMEX3 tid="t1" type="DURATION" value="P1M">month</TIMEX3>
p182
sVLemma
p183
Vmonth
p184
sVCharacterOffsetEnd
p185
V57
p186
sVPartOfSpeech
p187
VNN
p188
sVCharacterOffsetBegin
p189
V52
p190
sVNamedEntityTag
p191
VDURATION
p192
saa(lp193
V.
p194
a(dp195
VNamedEntityTag
p196
g81
sVCharacterOffsetEnd
p197
V59
p198
sVCharacterOffsetBegin
p199
V58
p200
sVPartOfSpeech
p201
g194
sVLemma
p202
g194
saasVindexeddependencies
p203
(lp204
(lp205
Vroot
p206
aVROOT-0
p207
aV$-7
p208
aa(lp209
Vposs
p210
aVpayment-4
p211
aVBlake-1
p212
aa(lp213
Vnn
p214
aVpayment-4
p215
aVmortgage-3
p216
aa(lp217
Vnsubj
p218
aV$-7
p219
aVpayment-4
p220
aa(lp221
Vcop
p222
aV$-7
p223
aVwas-5
p224
aa(lp225
Vadvmod
p226
aV$-7
p227
aVoriginally-6
p228
aa(lp229
Vnum
p230
aV$-7
p231
aV3,370-8
p232
aa(lp233
Vprep_per
p234
aV$-7
p235
aVmonth-10
p236
aasa(dp237
Vparsetree
p238
V(ROOT (S (ADVP (RB Now)) (, ,) (PP (IN after) (S (VP (VBG refinancing) (NP (PRP$ his) (NN home) (NN loan))))) (, ,) (NP (NP (NNP Blake) (POS 's)) (NN mortgage) (NN payment)) (VP (VBZ is) (ADJP (ADJP (NP (CD 0.3) (NNS times)) (JJR less)) (SBAR (IN than) (S (NP (PRP it)) (VP (VBD used) (S (VP (TO to) (VP (VB be))))))))) (. .)))
p239
sVtext
p240
VNow , after refinancing his home loan , Blake's mortgage payment is 0.3 times less than it used to be .
p241
sVdependencies
p242
(lp243
(lp244
Vroot
p245
aVROOT
p246
aVless
p247
aa(lp248
Vadvmod
p249
aVless
p250
aVNow
p251
aa(lp252
Vprepc_after
p253
aVless
p254
aVrefinancing
p255
aa(lp256
Vposs
p257
aVloan
p258
aVhis
p259
aa(lp260
Vnn
p261
aVloan
p262
aVhome
p263
aa(lp264
Vdobj
p265
aVrefinancing
p266
aVloan
p267
aa(lp268
Vposs
p269
aVpayment
p270
aVBlake
p271
aa(lp272
Vnn
p273
aVpayment
p274
aVmortgage
p275
aa(lp276
Vnsubj
p277
aVless
p278
aVpayment
p279
aa(lp280
Vcop
p281
aVless
p282
aVis
p283
aa(lp284
Vnum
p285
aVtimes
p286
aV0.3
p287
aa(lp288
Vnpadvmod
p289
aVless
p290
aVtimes
p291
aa(lp292
Vmark
p293
aVused
p294
aVthan
p295
aa(lp296
Vnsubj
p297
aVused
p298
aVit
p299
aa(lp300
Vccomp
p301
aVless
p302
aVused
p303
aa(lp304
Vaux
p305
aVbe
p306
aVto
p307
aa(lp308
Vxcomp
p309
aVused
p310
aVbe
p311
aasVwords
p312
(lp313
(lp314
VNow
p315
a(dp316
VNormalizedNamedEntityTag
p317
VPRESENT_REF
p318
sVTimex
p319
V<TIMEX3 tid="t2" type="DATE" value="PRESENT_REF">Now</TIMEX3>
p320
sVLemma
p321
Vnow
p322
sVCharacterOffsetEnd
p323
V63
p324
sVPartOfSpeech
p325
VRB
p326
sVCharacterOffsetBegin
p327
V60
p328
sVNamedEntityTag
p329
VDATE
p330
saa(lp331
V,
p332
a(dp333
VNamedEntityTag
p334
g81
sVCharacterOffsetEnd
p335
V65
p336
sVCharacterOffsetBegin
p337
V64
p338
sVPartOfSpeech
p339
g332
sVLemma
p340
g332
saa(lp341
Vafter
p342
a(dp343
VNamedEntityTag
p344
g81
sVCharacterOffsetEnd
p345
V71
p346
sVCharacterOffsetBegin
p347
V66
p348
sVPartOfSpeech
p349
VIN
p350
sVLemma
p351
Vafter
p352
saa(lp353
Vrefinancing
p354
a(dp355
VNamedEntityTag
p356
g81
sVCharacterOffsetEnd
p357
V83
p358
sVCharacterOffsetBegin
p359
V72
p360
sVPartOfSpeech
p361
VVBG
p362
sVLemma
p363
Vrefinance
p364
saa(lp365
Vhis
p366
a(dp367
VNamedEntityTag
p368
g81
sVCharacterOffsetEnd
p369
V87
p370
sVCharacterOffsetBegin
p371
V84
p372
sVPartOfSpeech
p373
VPRP$
p374
sVLemma
p375
Vhe
p376
saa(lp377
Vhome
p378
a(dp379
VNamedEntityTag
p380
g81
sVCharacterOffsetEnd
p381
V92
p382
sVCharacterOffsetBegin
p383
V88
p384
sVPartOfSpeech
p385
VNN
p386
sVLemma
p387
Vhome
p388
saa(lp389
Vloan
p390
a(dp391
VNamedEntityTag
p392
g81
sVCharacterOffsetEnd
p393
V97
p394
sVCharacterOffsetBegin
p395
V93
p396
sVPartOfSpeech
p397
VNN
p398
sVLemma
p399
Vloan
p400
saa(lp401
g332
a(dp402
VNamedEntityTag
p403
g81
sVCharacterOffsetEnd
p404
V99
p405
sVCharacterOffsetBegin
p406
V98
p407
sVPartOfSpeech
p408
g332
sVLemma
p409
g332
saa(lp410
VBlake
p411
a(dp412
VNamedEntityTag
p413
VPERSON
p414
sVCharacterOffsetEnd
p415
V105
p416
sVCharacterOffsetBegin
p417
V100
p418
sVPartOfSpeech
p419
VNNP
p420
sVLemma
p421
VBlake
p422
saa(lp423
V's
p424
a(dp425
VNamedEntityTag
p426
g81
sVCharacterOffsetEnd
p427
V107
p428
sVCharacterOffsetBegin
p429
V105
p430
sVPartOfSpeech
p431
VPOS
p432
sVLemma
p433
V's
p434
saa(lp435
Vmortgage
p436
a(dp437
VNamedEntityTag
p438
g81
sVCharacterOffsetEnd
p439
V116
p440
sVCharacterOffsetBegin
p441
V108
p442
sVPartOfSpeech
p443
VNN
p444
sVLemma
p445
Vmortgage
p446
saa(lp447
Vpayment
p448
a(dp449
VNamedEntityTag
p450
g81
sVCharacterOffsetEnd
p451
V124
p452
sVCharacterOffsetBegin
p453
V117
p454
sVPartOfSpeech
p455
VNN
p456
sVLemma
p457
Vpayment
p458
saa(lp459
Vis
p460
a(dp461
VNamedEntityTag
p462
g81
sVCharacterOffsetEnd
p463
V127
p464
sVCharacterOffsetBegin
p465
V125
p466
sVPartOfSpeech
p467
VVBZ
p468
sVLemma
p469
Vbe
p470
saa(lp471
V0.3
p472
a(dp473
VNormalizedNamedEntityTag
p474
V0.3
p475
sVLemma
p476
V0.3
p477
sVCharacterOffsetEnd
p478
V131
p479
sVPartOfSpeech
p480
VCD
p481
sVCharacterOffsetBegin
p482
V128
p483
sVNamedEntityTag
p484
VNUMBER
p485
saa(lp486
Vtimes
p487
a(dp488
VNamedEntityTag
p489
g81
sVCharacterOffsetEnd
p490
V137
p491
sVCharacterOffsetBegin
p492
V132
p493
sVPartOfSpeech
p494
VNNS
p495
sVLemma
p496
Vtime
p497
saa(lp498
Vless
p499
a(dp500
VNamedEntityTag
p501
g81
sVCharacterOffsetEnd
p502
V142
p503
sVCharacterOffsetBegin
p504
V138
p505
sVPartOfSpeech
p506
VJJR
p507
sVLemma
p508
Vless
p509
saa(lp510
Vthan
p511
a(dp512
VNamedEntityTag
p513
g81
sVCharacterOffsetEnd
p514
V147
p515
sVCharacterOffsetBegin
p516
V143
p517
sVPartOfSpeech
p518
VIN
p519
sVLemma
p520
Vthan
p521
saa(lp522
Vit
p523
a(dp524
VNamedEntityTag
p525
g81
sVCharacterOffsetEnd
p526
V150
p527
sVCharacterOffsetBegin
p528
V148
p529
sVPartOfSpeech
p530
VPRP
p531
sVLemma
p532
Vit
p533
saa(lp534
Vused
p535
a(dp536
VNamedEntityTag
p537
g81
sVCharacterOffsetEnd
p538
V155
p539
sVCharacterOffsetBegin
p540
V151
p541
sVPartOfSpeech
p542
VVBD
p543
sVLemma
p544
Vuse
p545
saa(lp546
Vto
p547
a(dp548
VNamedEntityTag
p549
g81
sVCharacterOffsetEnd
p550
V158
p551
sVCharacterOffsetBegin
p552
V156
p553
sVPartOfSpeech
p554
VTO
p555
sVLemma
p556
Vto
p557
saa(lp558
Vbe
p559
a(dp560
VNamedEntityTag
p561
g81
sVCharacterOffsetEnd
p562
V161
p563
sVCharacterOffsetBegin
p564
V159
p565
sVPartOfSpeech
p566
VVB
p567
sVLemma
p568
Vbe
p569
saa(lp570
g194
a(dp571
VNamedEntityTag
p572
g81
sVCharacterOffsetEnd
p573
V163
p574
sVCharacterOffsetBegin
p575
V162
p576
sVPartOfSpeech
p577
g194
sVLemma
p578
g194
saasVindexeddependencies
p579
(lp580
(lp581
Vroot
p582
aVROOT-0
p583
aVless-16
p584
aa(lp585
Vadvmod
p586
aVless-16
p587
aVNow-1
p588
aa(lp589
Vprepc_after
p590
aVless-16
p591
aVrefinancing-4
p592
aa(lp593
Vposs
p594
aVloan-7
p595
aVhis-5
p596
aa(lp597
Vnn
p598
aVloan-7
p599
aVhome-6
p600
aa(lp601
Vdobj
p602
aVrefinancing-4
p603
aVloan-7
p604
aa(lp605
Vposs
p606
aVpayment-12
p607
aVBlake-9
p608
aa(lp609
Vnn
p610
aVpayment-12
p611
aVmortgage-11
p612
aa(lp613
Vnsubj
p614
aVless-16
p615
aVpayment-12
p616
aa(lp617
Vcop
p618
aVless-16
p619
aVis-13
p620
aa(lp621
Vnum
p622
aVtimes-15
p623
aV0.3-14
p624
aa(lp625
Vnpadvmod
p626
aVless-16
p627
aVtimes-15
p628
aa(lp629
Vmark
p630
aVused-19
p631
aVthan-17
p632
aa(lp633
Vnsubj
p634
aVused-19
p635
aVit-18
p636
aa(lp637
Vccomp
p638
aVless-16
p639
aVused-19
p640
aa(lp641
Vaux
p642
aVbe-21
p643
aVto-20
p644
aa(lp645
Vxcomp
p646
aVused-19
p647
aVbe-21
p648
aasa(dp649
Vparsetree
p650
V(ROOT (SBARQ (WHADJP (WRB How) (JJ much)) (SQ (VBZ is) (NP (NP (NNP Blake) (POS 's)) (NP (NP (JJ monthly) (NN payment)) (ADVP (RB now))))) (. ?)))
p651
sVtext
p652
VHow much is Blake's monthly payment now ?
p653
sVdependencies
p654
(lp655
(lp656
Vroot
p657
aVROOT
p658
aVis
p659
aa(lp660
Vadvmod
p661
aVmuch
p662
aVHow
p663
aa(lp664
Vdep
p665
aVis
p666
aVmuch
p667
aa(lp668
Vnsubj
p669
aVis
p670
aVBlake
p671
aa(lp672
Vpossessive
p673
aVBlake
p674
aV's
p675
aa(lp676
Vamod
p677
aVpayment
p678
aVmonthly
p679
aa(lp680
Vdep
p681
aVBlake
p682
aVpayment
p683
aa(lp684
Vadvmod
p685
aVpayment
p686
aVnow
p687
aasVwords
p688
(lp689
(lp690
VHow
p691
a(dp692
VNamedEntityTag
p693
g81
sVCharacterOffsetEnd
p694
V167
p695
sVCharacterOffsetBegin
p696
V164
p697
sVPartOfSpeech
p698
VWRB
p699
sVLemma
p700
Vhow
p701
saa(lp702
Vmuch
p703
a(dp704
VNamedEntityTag
p705
g81
sVCharacterOffsetEnd
p706
V172
p707
sVCharacterOffsetBegin
p708
V168
p709
sVPartOfSpeech
p710
VJJ
p711
sVLemma
p712
Vmuch
p713
saa(lp714
Vis
p715
a(dp716
VNamedEntityTag
p717
g81
sVCharacterOffsetEnd
p718
V175
p719
sVCharacterOffsetBegin
p720
V173
p721
sVPartOfSpeech
p722
VVBZ
p723
sVLemma
p724
Vbe
p725
saa(lp726
VBlake
p727
a(dp728
VNamedEntityTag
p729
VPERSON
p730
sVCharacterOffsetEnd
p731
V181
p732
sVCharacterOffsetBegin
p733
V176
p734
sVPartOfSpeech
p735
VNNP
p736
sVLemma
p737
VBlake
p738
saa(lp739
V's
p740
a(dp741
VNamedEntityTag
p742
g81
sVCharacterOffsetEnd
p743
V183
p744
sVCharacterOffsetBegin
p745
V181
p746
sVPartOfSpeech
p747
VPOS
p748
sVLemma
p749
V's
p750
saa(lp751
Vmonthly
p752
a(dp753
VTimex
p754
V<TIMEX3 freq="P1X" periodicity="P1M" quant="EVERY" tid="t3" type="SET" value="P1M">monthly</TIMEX3>
p755
sVCharacterOffsetEnd
p756
V191
p757
sVLemma
p758
Vmonthly
p759
sVPartOfSpeech
p760
VJJ
p761
sVCharacterOffsetBegin
p762
V184
p763
sVNamedEntityTag
p764
VSET
p765
saa(lp766
Vpayment
p767
a(dp768
VNamedEntityTag
p769
g81
sVCharacterOffsetEnd
p770
V199
p771
sVCharacterOffsetBegin
p772
V192
p773
sVPartOfSpeech
p774
VNN
p775
sVLemma
p776
Vpayment
p777
saa(lp778
Vnow
p779
a(dp780
VNormalizedNamedEntityTag
p781
VPRESENT_REF
p782
sVTimex
p783
V<TIMEX3 tid="t4" type="DATE" value="PRESENT_REF">now</TIMEX3>
p784
sVLemma
p785
Vnow
p786
sVCharacterOffsetEnd
p787
V203
p788
sVPartOfSpeech
p789
VRB
p790
sVCharacterOffsetBegin
p791
V200
p792
sVNamedEntityTag
p793
VDATE
p794
saa(lp795
V?
p796
a(dp797
VNamedEntityTag
p798
g81
sVCharacterOffsetEnd
p799
V205
p800
sVCharacterOffsetBegin
p801
V204
p802
sVPartOfSpeech
p803
g194
sVLemma
p804
g796
saasVindexeddependencies
p805
(lp806
(lp807
Vroot
p808
aVROOT-0
p809
aVis-3
p810
aa(lp811
Vadvmod
p812
aVmuch-2
p813
aVHow-1
p814
aa(lp815
Vdep
p816
aVis-3
p817
aVmuch-2
p818
aa(lp819
Vnsubj
p820
aVis-3
p821
aVBlake-4
p822
aa(lp823
Vpossessive
p824
aVBlake-4
p825
aV's-5
p826
aa(lp827
Vamod
p828
aVpayment-7
p829
aVmonthly-6
p830
aa(lp831
Vdep
p832
aVBlake-4
p833
aVpayment-7
p834
aa(lp835
Vadvmod
p836
aVpayment-7
p837
aVnow-8
p838
aasas.