(dp0
Vcoref
p1
(lp2
(lp3
(lp4
(lp5
Vthe polar bear
p6
aI1
aI8
aI6
aI9
aa(lp7
Vthe polar bear at Richmond 's zoo
p8
aI0
aI5
aI3
aI10
aaaasVsentences
p9
(lp10
(dp11
Vparsetree
p12
V(ROOT (S (NP-TMP (DT Each) (NN day)) (, ,) (NP (NP (DT the) (JJ polar) (NN bear)) (PP (IN at) (NP (NP (NNP Richmond) (POS 's)) (NN zoo)))) (VP (VBZ eats) (NP (NP (CD 0.2)) (PP (IN of) (NP (NP (NP (DT a) (NN bucket)) (PP (IN of) (NP (NNS trout)))) (CC and) (NP (NP (CD 0.4)) (PP (IN of) (NP (NP (DT a) (NN bucket)) (PP (IN of) (NP (NN salmon)))))))))) (. .)))
p13
sVtext
p14
VEach day , the polar bear at Richmond's zoo eats 0.2 of a bucket of trout and 0.4 of a bucket of salmon .
p15
sVdependencies
p16
(lp17
(lp18
Vroot
p19
aVROOT
p20
aVeats
p21
aa(lp22
Vdet
p23
aVday
p24
aVEach
p25
aa(lp26
Vtmod
p27
aVeats
p28
aVday
p29
aa(lp30
Vdet
p31
aVbear
p32
aVthe
p33
aa(lp34
Vamod
p35
aVbear
p36
aVpolar
p37
aa(lp38
Vnsubj
p39
aVeats
p40
aVbear
p41
aa(lp42
Vposs
p43
aVzoo
p44
aVRichmond
p45
aa(lp46
Vprep_at
p47
aVbear
p48
aVzoo
p49
aa(lp50
Vdobj
p51
aVeats
p52
aV0.2
p53
aa(lp54
Vdet
p55
aVbucket
p56
aVa
p57
aa(lp58
Vprep_of
p59
aV0.2
p60
aVbucket
p61
aa(lp62
Vprep_of
p63
aVbucket
p64
aVtrout
p65
aa(lp66
Vconj_and
p67
aVbucket
p68
aV0.4
p69
aa(lp70
Vdet
p71
aVbucket
p72
ag57
aa(lp73
Vprep_of
p74
aV0.4
p75
aVbucket
p76
aa(lp77
Vprep_of
p78
aVbucket
p79
aVsalmon
p80
aasVwords
p81
(lp82
(lp83
VEach
p84
a(dp85
VTimex
p86
V<TIMEX3 periodicity="P1D" quant="each" tid="t1" type="SET" value="P1D">Each day</TIMEX3>
p87
sVCharacterOffsetEnd
p88
V5
p89
sVLemma
p90
Veach
p91
sVPartOfSpeech
p92
VDT
p93
sVCharacterOffsetBegin
p94
V1
p95
sVNamedEntityTag
p96
VSET
p97
saa(lp98
Vday
p99
a(dp100
VTimex
p101
V<TIMEX3 periodicity="P1D" quant="each" tid="t1" type="SET" value="P1D">Each day</TIMEX3>
p102
sVCharacterOffsetEnd
p103
V9
p104
sVLemma
p105
Vday
p106
sVPartOfSpeech
p107
VNN
p108
sVCharacterOffsetBegin
p109
V6
p110
sVNamedEntityTag
p111
VSET
p112
saa(lp113
V,
p114
a(dp115
VNamedEntityTag
p116
VO
p117
sVCharacterOffsetEnd
p118
V11
p119
sVCharacterOffsetBegin
p120
V10
p121
sVPartOfSpeech
p122
g114
sVLemma
p123
g114
saa(lp124
Vthe
p125
a(dp126
VNamedEntityTag
p127
g117
sVCharacterOffsetEnd
p128
V15
p129
sVCharacterOffsetBegin
p130
V12
p131
sVPartOfSpeech
p132
VDT
p133
sVLemma
p134
Vthe
p135
saa(lp136
Vpolar
p137
a(dp138
VNamedEntityTag
p139
g117
sVCharacterOffsetEnd
p140
V21
p141
sVCharacterOffsetBegin
p142
V16
p143
sVPartOfSpeech
p144
VJJ
p145
sVLemma
p146
Vpolar
p147
saa(lp148
Vbear
p149
a(dp150
VNamedEntityTag
p151
g117
sVCharacterOffsetEnd
p152
V26
p153
sVCharacterOffsetBegin
p154
V22
p155
sVPartOfSpeech
p156
VNN
p157
sVLemma
p158
Vbear
p159
saa(lp160
Vat
p161
a(dp162
VNamedEntityTag
p163
g117
sVCharacterOffsetEnd
p164
V29
p165
sVCharacterOffsetBegin
p166
V27
p167
sVPartOfSpeech
p168
VIN
p169
sVLemma
p170
Vat
p171
saa(lp172
VRichmond
p173
a(dp174
VNamedEntityTag
p175
VLOCATION
p176
sVCharacterOffsetEnd
p177
V38
p178
sVCharacterOffsetBegin
p179
V30
p180
sVPartOfSpeech
p181
VNNP
p182
sVLemma
p183
VRichmond
p184
saa(lp185
V's
p186
a(dp187
VNamedEntityTag
p188
g117
sVCharacterOffsetEnd
p189
V40
p190
sVCharacterOffsetBegin
p191
V38
p192
sVPartOfSpeech
p193
VPOS
p194
sVLemma
p195
V's
p196
saa(lp197
Vzoo
p198
a(dp199
VNamedEntityTag
p200
g117
sVCharacterOffsetEnd
p201
V44
p202
sVCharacterOffsetBegin
p203
V41
p204
sVPartOfSpeech
p205
VNN
p206
sVLemma
p207
Vzoo
p208
saa(lp209
Veats
p210
a(dp211
VNamedEntityTag
p212
g117
sVCharacterOffsetEnd
p213
V49
p214
sVCharacterOffsetBegin
p215
V45
p216
sVPartOfSpeech
p217
VVBZ
p218
sVLemma
p219
Veat
p220
saa(lp221
V0.2
p222
a(dp223
VNormalizedNamedEntityTag
p224
V0.2
p225
sVLemma
p226
V0.2
p227
sVCharacterOffsetEnd
p228
V53
p229
sVPartOfSpeech
p230
VCD
p231
sVCharacterOffsetBegin
p232
V50
p233
sVNamedEntityTag
p234
VNUMBER
p235
saa(lp236
Vof
p237
a(dp238
VNamedEntityTag
p239
g117
sVCharacterOffsetEnd
p240
V56
p241
sVCharacterOffsetBegin
p242
V54
p243
sVPartOfSpeech
p244
VIN
p245
sVLemma
p246
Vof
p247
saa(lp248
g57
a(dp249
VNamedEntityTag
p250
g117
sVCharacterOffsetEnd
p251
V58
p252
sVCharacterOffsetBegin
p253
V57
p254
sVPartOfSpeech
p255
VDT
p256
sVLemma
p257
g57
saa(lp258
Vbucket
p259
a(dp260
VNamedEntityTag
p261
g117
sVCharacterOffsetEnd
p262
V65
p263
sVCharacterOffsetBegin
p264
V59
p265
sVPartOfSpeech
p266
VNN
p267
sVLemma
p268
Vbucket
p269
saa(lp270
Vof
p271
a(dp272
VNamedEntityTag
p273
g117
sVCharacterOffsetEnd
p274
V68
p275
sVCharacterOffsetBegin
p276
V66
p277
sVPartOfSpeech
p278
VIN
p279
sVLemma
p280
Vof
p281
saa(lp282
Vtrout
p283
a(dp284
VNamedEntityTag
p285
g117
sVCharacterOffsetEnd
p286
V74
p287
sVCharacterOffsetBegin
p288
V69
p289
sVPartOfSpeech
p290
VNNS
p291
sVLemma
p292
Vtrout
p293
saa(lp294
Vand
p295
a(dp296
VNamedEntityTag
p297
g117
sVCharacterOffsetEnd
p298
V78
p299
sVCharacterOffsetBegin
p300
V75
p301
sVPartOfSpeech
p302
VCC
p303
sVLemma
p304
Vand
p305
saa(lp306
V0.4
p307
a(dp308
VNormalizedNamedEntityTag
p309
V0.4
p310
sVLemma
p311
V0.4
p312
sVCharacterOffsetEnd
p313
V82
p314
sVPartOfSpeech
p315
VCD
p316
sVCharacterOffsetBegin
p317
V79
p318
sVNamedEntityTag
p319
VNUMBER
p320
saa(lp321
Vof
p322
a(dp323
VNamedEntityTag
p324
g117
sVCharacterOffsetEnd
p325
V85
p326
sVCharacterOffsetBegin
p327
V83
p328
sVPartOfSpeech
p329
VIN
p330
sVLemma
p331
Vof
p332
saa(lp333
g57
a(dp334
VNamedEntityTag
p335
g117
sVCharacterOffsetEnd
p336
V87
p337
sVCharacterOffsetBegin
p338
V86
p339
sVPartOfSpeech
p340
VDT
p341
sVLemma
p342
g57
saa(lp343
Vbucket
p344
a(dp345
VNamedEntityTag
p346
g117
sVCharacterOffsetEnd
p347
V94
p348
sVCharacterOffsetBegin
p349
V88
p350
sVPartOfSpeech
p351
VNN
p352
sVLemma
p353
Vbucket
p354
saa(lp355
Vof
p356
a(dp357
VNamedEntityTag
p358
g117
sVCharacterOffsetEnd
p359
V97
p360
sVCharacterOffsetBegin
p361
V95
p362
sVPartOfSpeech
p363
VIN
p364
sVLemma
p365
Vof
p366
saa(lp367
Vsalmon
p368
a(dp369
VNamedEntityTag
p370
g117
sVCharacterOffsetEnd
p371
V104
p372
sVCharacterOffsetBegin
p373
V98
p374
sVPartOfSpeech
p375
VNN
p376
sVLemma
p377
Vsalmon
p378
saa(lp379
V.
p380
a(dp381
VNamedEntityTag
p382
g117
sVCharacterOffsetEnd
p383
V106
p384
sVCharacterOffsetBegin
p385
V105
p386
sVPartOfSpeech
p387
g380
sVLemma
p388
g380
saasVindexeddependencies
p389
(lp390
(lp391
Vroot
p392
aVROOT-0
p393
aVeats-11
p394
aa(lp395
Vdet
p396
aVday-2
p397
aVEach-1
p398
aa(lp399
Vtmod
p400
aVeats-11
p401
aVday-2
p402
aa(lp403
Vdet
p404
aVbear-6
p405
aVthe-4
p406
aa(lp407
Vamod
p408
aVbear-6
p409
aVpolar-5
p410
aa(lp411
Vnsubj
p412
aVeats-11
p413
aVbear-6
p414
aa(lp415
Vposs
p416
aVzoo-10
p417
aVRichmond-8
p418
aa(lp419
Vprep_at
p420
aVbear-6
p421
aVzoo-10
p422
aa(lp423
Vdobj
p424
aVeats-11
p425
aV0.2-12
p426
aa(lp427
Vdet
p428
aVbucket-15
p429
aVa-14
p430
aa(lp431
Vprep_of
p432
aV0.2-12
p433
aVbucket-15
p434
aa(lp435
Vprep_of
p436
aVbucket-15
p437
aVtrout-17
p438
aa(lp439
Vconj_and
p440
aVbucket-15
p441
aV0.4-19
p442
aa(lp443
Vdet
p444
aVbucket-22
p445
aVa-21
p446
aa(lp447
Vprep_of
p448
aV0.4-19
p449
aVbucket-22
p450
aa(lp451
Vprep_of
p452
aVbucket-22
p453
aVsalmon-24
p454
aasa(dp455
Vparsetree
p456
V(ROOT (SBARQ (WHNP (WHNP (WHADJP (WRB How) (JJ many)) (NNS buckets)) (PP (IN of) (NP (NN fish)))) (SQ (VBZ does) (NP (DT the) (JJ polar) (NN bear)) (VP (VB eat) (ADVP (RB daily)))) (. ?)))
p457
sVtext
p458
VHow many buckets of fish does the polar bear eat daily ?
p459
sVdependencies
p460
(lp461
(lp462
Vroot
p463
aVROOT
p464
aVeat
p465
aa(lp466
Vadvmod
p467
aVmany
p468
aVHow
p469
aa(lp470
Vamod
p471
aVbuckets
p472
aVmany
p473
aa(lp474
Vdobj
p475
aVeat
p476
aVbuckets
p477
aa(lp478
Vprep_of
p479
aVbuckets
p480
aVfish
p481
aa(lp482
Vaux
p483
aVeat
p484
aVdoes
p485
aa(lp486
Vdet
p487
aVbear
p488
aVthe
p489
aa(lp490
Vamod
p491
aVbear
p492
aVpolar
p493
aa(lp494
Vnsubj
p495
aVeat
p496
aVbear
p497
aa(lp498
Vadvmod
p499
aVeat
p500
aVdaily
p501
aasVwords
p502
(lp503
(lp504
VHow
p505
a(dp506
VNamedEntityTag
p507
g117
sVCharacterOffsetEnd
p508
V110
p509
sVCharacterOffsetBegin
p510
V107
p511
sVPartOfSpeech
p512
VWRB
p513
sVLemma
p514
Vhow
p515
saa(lp516
Vmany
p517
a(dp518
VNamedEntityTag
p519
g117
sVCharacterOffsetEnd
p520
V115
p521
sVCharacterOffsetBegin
p522
V111
p523
sVPartOfSpeech
p524
VJJ
p525
sVLemma
p526
Vmany
p527
saa(lp528
Vbuckets
p529
a(dp530
VNamedEntityTag
p531
g117
sVCharacterOffsetEnd
p532
V123
p533
sVCharacterOffsetBegin
p534
V116
p535
sVPartOfSpeech
p536
VNNS
p537
sVLemma
p538
Vbucket
p539
saa(lp540
Vof
p541
a(dp542
VNamedEntityTag
p543
g117
sVCharacterOffsetEnd
p544
V126
p545
sVCharacterOffsetBegin
p546
V124
p547
sVPartOfSpeech
p548
VIN
p549
sVLemma
p550
Vof
p551
saa(lp552
Vfish
p553
a(dp554
VNamedEntityTag
p555
g117
sVCharacterOffsetEnd
p556
V131
p557
sVCharacterOffsetBegin
p558
V127
p559
sVPartOfSpeech
p560
VNN
p561
sVLemma
p562
Vfish
p563
saa(lp564
Vdoes
p565
a(dp566
VNamedEntityTag
p567
g117
sVCharacterOffsetEnd
p568
V136
p569
sVCharacterOffsetBegin
p570
V132
p571
sVPartOfSpeech
p572
VVBZ
p573
sVLemma
p574
Vdo
p575
saa(lp576
Vthe
p577
a(dp578
VNamedEntityTag
p579
g117
sVCharacterOffsetEnd
p580
V140
p581
sVCharacterOffsetBegin
p582
V137
p583
sVPartOfSpeech
p584
VDT
p585
sVLemma
p586
Vthe
p587
saa(lp588
Vpolar
p589
a(dp590
VNamedEntityTag
p591
g117
sVCharacterOffsetEnd
p592
V146
p593
sVCharacterOffsetBegin
p594
V141
p595
sVPartOfSpeech
p596
VJJ
p597
sVLemma
p598
Vpolar
p599
saa(lp600
Vbear
p601
a(dp602
VNamedEntityTag
p603
g117
sVCharacterOffsetEnd
p604
V151
p605
sVCharacterOffsetBegin
p606
V147
p607
sVPartOfSpeech
p608
VNN
p609
sVLemma
p610
Vbear
p611
saa(lp612
Veat
p613
a(dp614
VNamedEntityTag
p615
g117
sVCharacterOffsetEnd
p616
V155
p617
sVCharacterOffsetBegin
p618
V152
p619
sVPartOfSpeech
p620
VVB
p621
sVLemma
p622
Veat
p623
saa(lp624
Vdaily
p625
a(dp626
VTimex
p627
V<TIMEX3 freq="P1X" periodicity="P1D" quant="EVERY" tid="t2" type="SET" value="P1D">daily</TIMEX3>
p628
sVCharacterOffsetEnd
p629
V161
p630
sVLemma
p631
Vdaily
p632
sVPartOfSpeech
p633
VRB
p634
sVCharacterOffsetBegin
p635
V156
p636
sVNamedEntityTag
p637
VSET
p638
saa(lp639
V?
p640
a(dp641
VNamedEntityTag
p642
g117
sVCharacterOffsetEnd
p643
V163
p644
sVCharacterOffsetBegin
p645
V162
p646
sVPartOfSpeech
p647
g380
sVLemma
p648
g640
saasVindexeddependencies
p649
(lp650
(lp651
Vroot
p652
aVROOT-0
p653
aVeat-10
p654
aa(lp655
Vadvmod
p656
aVmany-2
p657
aVHow-1
p658
aa(lp659
Vamod
p660
aVbuckets-3
p661
aVmany-2
p662
aa(lp663
Vdobj
p664
aVeat-10
p665
aVbuckets-3
p666
aa(lp667
Vprep_of
p668
aVbuckets-3
p669
aVfish-5
p670
aa(lp671
Vaux
p672
aVeat-10
p673
aVdoes-6
p674
aa(lp675
Vdet
p676
aVbear-9
p677
aVthe-7
p678
aa(lp679
Vamod
p680
aVbear-9
p681
aVpolar-8
p682
aa(lp683
Vnsubj
p684
aVeat-10
p685
aVbear-9
p686
aa(lp687
Vadvmod
p688
aVeat-10
p689
aVdaily-11
p690
aasas.