(dp0
Vcoref
p1
(lp2
(lp3
(lp4
(lp5
VThis year
p6
aI1
aI1
aI0
aI2
aa(lp7
Vlast year
p8
aI0
aI9
aI8
aI10
aaa(lp9
(lp10
Vit
p11
aI1
aI9
aI9
aI10
aa(lp12
Vlast year
p13
aI0
aI9
aI8
aI10
aaa(lp14
(lp15
Vthis year
p16
aI2
aI8
aI7
aI9
aa(lp17
Vlast year
p18
aI0
aI9
aI8
aI10
aaaasVsentences
p19
(lp20
(dp21
Vparsetree
p22
V(ROOT (S (NP (DT A) (JJ French) (NN restaurant)) (VP (VBN used) (NP (NP (CD 190,830) (NNS ounces)) (PP (IN of) (NP (NN cream)))) (NP-TMP (JJ last) (NN year))) (. .)))
p23
sVtext
p24
VA French restaurant used 190,830 ounces of cream last year .
p25
sVdependencies
p26
(lp27
(lp28
Vroot
p29
aVROOT
p30
aVused
p31
aa(lp32
Vdet
p33
aVrestaurant
p34
aVA
p35
aa(lp36
Vamod
p37
aVrestaurant
p38
aVFrench
p39
aa(lp40
Vnsubj
p41
aVused
p42
aVrestaurant
p43
aa(lp44
Vnum
p45
aVounces
p46
aV190,830
p47
aa(lp48
Vdobj
p49
aVused
p50
aVounces
p51
aa(lp52
Vprep_of
p53
aVounces
p54
aVcream
p55
aa(lp56
Vamod
p57
aVyear
p58
aVlast
p59
aa(lp60
Vtmod
p61
aVused
p62
aVyear
p63
aasVwords
p64
(lp65
(lp66
g35
a(dp67
VNamedEntityTag
p68
VO
p69
sVCharacterOffsetEnd
p70
V2
p71
sVCharacterOffsetBegin
p72
V1
p73
sVPartOfSpeech
p74
VDT
p75
sVLemma
p76
Va
p77
saa(lp78
VFrench
p79
a(dp80
VNamedEntityTag
p81
VMISC
p82
sVCharacterOffsetEnd
p83
V9
p84
sVCharacterOffsetBegin
p85
V3
p86
sVPartOfSpeech
p87
VJJ
p88
sVLemma
p89
Vfrench
p90
saa(lp91
Vrestaurant
p92
a(dp93
VNamedEntityTag
p94
g69
sVCharacterOffsetEnd
p95
V20
p96
sVCharacterOffsetBegin
p97
V10
p98
sVPartOfSpeech
p99
VNN
p100
sVLemma
p101
Vrestaurant
p102
saa(lp103
Vused
p104
a(dp105
VNamedEntityTag
p106
g69
sVCharacterOffsetEnd
p107
V25
p108
sVCharacterOffsetBegin
p109
V21
p110
sVPartOfSpeech
p111
VVBN
p112
sVLemma
p113
Vuse
p114
saa(lp115
V190,830
p116
a(dp117
VNormalizedNamedEntityTag
p118
V190830.0
p119
sVLemma
p120
V190,830
p121
sVCharacterOffsetEnd
p122
V33
p123
sVPartOfSpeech
p124
VCD
p125
sVCharacterOffsetBegin
p126
V26
p127
sVNamedEntityTag
p128
VNUMBER
p129
saa(lp130
Vounces
p131
a(dp132
VNamedEntityTag
p133
g69
sVCharacterOffsetEnd
p134
V40
p135
sVCharacterOffsetBegin
p136
V34
p137
sVPartOfSpeech
p138
VNNS
p139
sVLemma
p140
Vounce
p141
saa(lp142
Vof
p143
a(dp144
VNamedEntityTag
p145
g69
sVCharacterOffsetEnd
p146
V43
p147
sVCharacterOffsetBegin
p148
V41
p149
sVPartOfSpeech
p150
VIN
p151
sVLemma
p152
Vof
p153
saa(lp154
Vcream
p155
a(dp156
VNamedEntityTag
p157
g69
sVCharacterOffsetEnd
p158
V49
p159
sVCharacterOffsetBegin
p160
V44
p161
sVPartOfSpeech
p162
VNN
p163
sVLemma
p164
Vcream
p165
saa(lp166
Vlast
p167
a(dp168
VNormalizedNamedEntityTag
p169
VTHIS
p170
sVTimex
p171
V<TIMEX3 alt_value="THIS P1Y OFFSET P-1Y" anchorTimeID="t2" temporalFunction="true" tid="t1" type="DATE" valueFromFunction="tf0">last year</TIMEX3>
p172
sVLemma
p173
Vlast
p174
sVCharacterOffsetEnd
p175
V54
p176
sVPartOfSpeech
p177
VJJ
p178
sVCharacterOffsetBegin
p179
V50
p180
sVNamedEntityTag
p181
VDATE
p182
saa(lp183
Vyear
p184
a(dp185
VNormalizedNamedEntityTag
p186
VTHIS
p187
sVTimex
p188
V<TIMEX3 alt_value="THIS P1Y OFFSET P-1Y" anchorTimeID="t2" temporalFunction="true" tid="t1" type="DATE" valueFromFunction="tf0">last year</TIMEX3>
p189
sVLemma
p190
Vyear
p191
sVCharacterOffsetEnd
p192
V59
p193
sVPartOfSpeech
p194
VNN
p195
sVCharacterOffsetBegin
p196
V55
p197
sVNamedEntityTag
p198
VDATE
p199
saa(lp200
V.
p201
a(dp202
VNamedEntityTag
p203
g69
sVCharacterOffsetEnd
p204
V61
p205
sVCharacterOffsetBegin
p206
V60
p207
sVPartOfSpeech
p208
g201
sVLemma
p209
g201
saasVindexeddependencies
p210
(lp211
(lp212
Vroot
p213
aVROOT-0
p214
aVused-4
p215
aa(lp216
Vdet
p217
aVrestaurant-3
p218
aVA-1
p219
aa(lp220
Vamod
p221
aVrestaurant-3
p222
aVFrench-2
p223
aa(lp224
Vnsubj
p225
aVused-4
p226
aVrestaurant-3
p227
aa(lp228
Vnum
p229
aVounces-6
p230
aV190,830-5
p231
aa(lp232
Vdobj
p233
aVused-4
p234
aVounces-6
p235
aa(lp236
Vprep_of
p237
aVounces-6
p238
aVcream-8
p239
aa(lp240
Vamod
p241
aVyear-10
p242
aVlast-9
p243
aa(lp244
Vtmod
p245
aVused-4
p246
aVyear-10
p247
aasa(dp248
Vparsetree
p249
V(ROOT (S (NP-TMP (DT This) (NN year)) (, ,) (PP (JJ due) (TO to) (NP (NP (DT a) (NN menu)) (SBAR (S (VP (VBP update)))))) (, ,) (NP (PRP it)) (VP (VBD used) (ADVP (NP (CD 0.7) (NNS times)) (RBR less))) (. .)))
p250
sVtext
p251
VThis year , due to a menu update , it used 0.7 times less .
p252
sVdependencies
p253
(lp254
(lp255
Vroot
p256
aVROOT
p257
aVused
p258
aa(lp259
Vdet
p260
aVyear
p261
aVThis
p262
aa(lp263
Vtmod
p264
aVused
p265
aVyear
p266
aa(lp267
Vdet
p268
aVmenu
p269
ag77
aa(lp270
Vprep_due_to
p271
aVused
p272
aVmenu
p273
aa(lp274
Vrcmod
p275
aVmenu
p276
aVupdate
p277
aa(lp278
Vnsubj
p279
aVused
p280
aVit
p281
aa(lp282
Vnum
p283
aVtimes
p284
aV0.7
p285
aa(lp286
Vnpadvmod
p287
aVless
p288
aVtimes
p289
aa(lp290
Vadvmod
p291
aVused
p292
aVless
p293
aasVwords
p294
(lp295
(lp296
VThis
p297
a(dp298
VNormalizedNamedEntityTag
p299
VTHIS
p300
sVTimex
p301
V<TIMEX3 alt_value="THIS P1Y" anchorTimeID="t0" temporalFunction="true" tid="t3" type="DATE" valueFromFunction="tf1">This year</TIMEX3>
p302
sVLemma
p303
Vthis
p304
sVCharacterOffsetEnd
p305
V66
p306
sVPartOfSpeech
p307
VDT
p308
sVCharacterOffsetBegin
p309
V62
p310
sVNamedEntityTag
p311
VDATE
p312
saa(lp313
Vyear
p314
a(dp315
VNormalizedNamedEntityTag
p316
VTHIS
p317
sVTimex
p318
V<TIMEX3 alt_value="THIS P1Y" anchorTimeID="t0" temporalFunction="true" tid="t3" type="DATE" valueFromFunction="tf1">This year</TIMEX3>
p319
sVLemma
p320
Vyear
p321
sVCharacterOffsetEnd
p322
V71
p323
sVPartOfSpeech
p324
VNN
p325
sVCharacterOffsetBegin
p326
V67
p327
sVNamedEntityTag
p328
VDATE
p329
saa(lp330
V,
p331
a(dp332
VNamedEntityTag
p333
g69
sVCharacterOffsetEnd
p334
V73
p335
sVCharacterOffsetBegin
p336
V72
p337
sVPartOfSpeech
p338
g331
sVLemma
p339
g331
saa(lp340
Vdue
p341
a(dp342
VNamedEntityTag
p343
g69
sVCharacterOffsetEnd
p344
V77
p345
sVCharacterOffsetBegin
p346
V74
p347
sVPartOfSpeech
p348
VJJ
p349
sVLemma
p350
Vdue
p351
saa(lp352
Vto
p353
a(dp354
VNamedEntityTag
p355
g69
sVCharacterOffsetEnd
p356
V80
p357
sVCharacterOffsetBegin
p358
V78
p359
sVPartOfSpeech
p360
VTO
p361
sVLemma
p362
Vto
p363
saa(lp364
g77
a(dp365
VNamedEntityTag
p366
g69
sVCharacterOffsetEnd
p367
V82
p368
sVCharacterOffsetBegin
p369
V81
p370
sVPartOfSpeech
p371
VDT
p372
sVLemma
p373
g77
saa(lp374
Vmenu
p375
a(dp376
VNamedEntityTag
p377
g69
sVCharacterOffsetEnd
p378
V87
p379
sVCharacterOffsetBegin
p380
V83
p381
sVPartOfSpeech
p382
VNN
p383
sVLemma
p384
Vmenu
p385
saa(lp386
Vupdate
p387
a(dp388
VNamedEntityTag
p389
g69
sVCharacterOffsetEnd
p390
V94
p391
sVCharacterOffsetBegin
p392
V88
p393
sVPartOfSpeech
p394
VVBP
p395
sVLemma
p396
Vupdate
p397
saa(lp398
g331
a(dp399
VNamedEntityTag
p400
g69
sVCharacterOffsetEnd
p401
V96
p402
sVCharacterOffsetBegin
p403
V95
p404
sVPartOfSpeech
p405
g331
sVLemma
p406
g331
saa(lp407
Vit
p408
a(dp409
VNamedEntityTag
p410
g69
sVCharacterOffsetEnd
p411
V99
p412
sVCharacterOffsetBegin
p413
V97
p414
sVPartOfSpeech
p415
VPRP
p416
sVLemma
p417
Vit
p418
saa(lp419
Vused
p420
a(dp421
VNamedEntityTag
p422
g69
sVCharacterOffsetEnd
p423
V104
p424
sVCharacterOffsetBegin
p425
V100
p426
sVPartOfSpeech
p427
VVBD
p428
sVLemma
p429
Vuse
p430
saa(lp431
V0.7
p432
a(dp433
VNormalizedNamedEntityTag
p434
V0.7
p435
sVLemma
p436
V0.7
p437
sVCharacterOffsetEnd
p438
V108
p439
sVPartOfSpeech
p440
VCD
p441
sVCharacterOffsetBegin
p442
V105
p443
sVNamedEntityTag
p444
VNUMBER
p445
saa(lp446
Vtimes
p447
a(dp448
VNamedEntityTag
p449
g69
sVCharacterOffsetEnd
p450
V114
p451
sVCharacterOffsetBegin
p452
V109
p453
sVPartOfSpeech
p454
VNNS
p455
sVLemma
p456
Vtime
p457
saa(lp458
Vless
p459
a(dp460
VNamedEntityTag
p461
g69
sVCharacterOffsetEnd
p462
V119
p463
sVCharacterOffsetBegin
p464
V115
p465
sVPartOfSpeech
p466
VRBR
p467
sVLemma
p468
Vless
p469
saa(lp470
g201
a(dp471
VNamedEntityTag
p472
g69
sVCharacterOffsetEnd
p473
V121
p474
sVCharacterOffsetBegin
p475
V120
p476
sVPartOfSpeech
p477
g201
sVLemma
p478
g201
saasVindexeddependencies
p479
(lp480
(lp481
Vroot
p482
aVROOT-0
p483
aVused-11
p484
aa(lp485
Vdet
p486
aVyear-2
p487
aVThis-1
p488
aa(lp489
Vtmod
p490
aVused-11
p491
aVyear-2
p492
aa(lp493
Vdet
p494
aVmenu-7
p495
aVa-6
p496
aa(lp497
Vprep_due_to
p498
aVused-11
p499
aVmenu-7
p500
aa(lp501
Vrcmod
p502
aVmenu-7
p503
aVupdate-8
p504
aa(lp505
Vnsubj
p506
aVused-11
p507
aVit-10
p508
aa(lp509
Vnum
p510
aVtimes-13
p511
aV0.7-12
p512
aa(lp513
Vnpadvmod
p514
aVless-14
p515
aVtimes-13
p516
aa(lp517
Vadvmod
p518
aVused-11
p519
aVless-14
p520
aasa(dp521
Vparsetree
p522
V(ROOT (SBARQ (WHNP (WHADJP (WRB How) (JJ much)) (NN cream)) (SQ (VP (VBD did) (NP (DT the) (NN restaurant) (NN use)) (NP-TMP (DT this) (NN year)))) (. ?)))
p523
sVtext
p524
VHow much cream did the restaurant use this year ?
p525
sVdependencies
p526
(lp527
(lp528
Vroot
p529
aVROOT
p530
aVdid
p531
aa(lp532
Vadvmod
p533
aVmuch
p534
aVHow
p535
aa(lp536
Vamod
p537
aVcream
p538
aVmuch
p539
aa(lp540
Vnsubj
p541
aVdid
p542
aVcream
p543
aa(lp544
Vdet
p545
aVuse
p546
aVthe
p547
aa(lp548
Vnn
p549
aVuse
p550
aVrestaurant
p551
aa(lp552
Vdobj
p553
aVdid
p554
aVuse
p555
aa(lp556
Vdet
p557
aVyear
p558
aVthis
p559
aa(lp560
Vtmod
p561
aVdid
p562
aVyear
p563
aasVwords
p564
(lp565
(lp566
VHow
p567
a(dp568
VNamedEntityTag
p569
g69
sVCharacterOffsetEnd
p570
V125
p571
sVCharacterOffsetBegin
p572
V122
p573
sVPartOfSpeech
p574
VWRB
p575
sVLemma
p576
Vhow
p577
saa(lp578
Vmuch
p579
a(dp580
VNamedEntityTag
p581
g69
sVCharacterOffsetEnd
p582
V130
p583
sVCharacterOffsetBegin
p584
V126
p585
sVPartOfSpeech
p586
VJJ
p587
sVLemma
p588
Vmuch
p589
saa(lp590
Vcream
p591
a(dp592
VNamedEntityTag
p593
g69
sVCharacterOffsetEnd
p594
V136
p595
sVCharacterOffsetBegin
p596
V131
p597
sVPartOfSpeech
p598
VNN
p599
sVLemma
p600
Vcream
p601
saa(lp602
Vdid
p603
a(dp604
VNamedEntityTag
p605
g69
sVCharacterOffsetEnd
p606
V140
p607
sVCharacterOffsetBegin
p608
V137
p609
sVPartOfSpeech
p610
VVBD
p611
sVLemma
p612
Vdo
p613
saa(lp614
Vthe
p615
a(dp616
VNamedEntityTag
p617
g69
sVCharacterOffsetEnd
p618
V144
p619
sVCharacterOffsetBegin
p620
V141
p621
sVPartOfSpeech
p622
VDT
p623
sVLemma
p624
Vthe
p625
saa(lp626
Vrestaurant
p627
a(dp628
VNamedEntityTag
p629
g69
sVCharacterOffsetEnd
p630
V155
p631
sVCharacterOffsetBegin
p632
V145
p633
sVPartOfSpeech
p634
VNN
p635
sVLemma
p636
Vrestaurant
p637
saa(lp638
Vuse
p639
a(dp640
VNamedEntityTag
p641
g69
sVCharacterOffsetEnd
p642
V159
p643
sVCharacterOffsetBegin
p644
V156
p645
sVPartOfSpeech
p646
VNN
p647
sVLemma
p648
Vuse
p649
saa(lp650
Vthis
p651
a(dp652
VNormalizedNamedEntityTag
p653
VTHIS
p654
sVTimex
p655
V<TIMEX3 alt_value="THIS P1Y" anchorTimeID="t0" temporalFunction="true" tid="t3" type="DATE" valueFromFunction="tf1">this year</TIMEX3>
p656
sVLemma
p657
Vthis
p658
sVCharacterOffsetEnd
p659
V164
p660
sVPartOfSpeech
p661
VDT
p662
sVCharacterOffsetBegin
p663
V160
p664
sVNamedEntityTag
p665
VDATE
p666
saa(lp667
Vyear
p668
a(dp669
VNormalizedNamedEntityTag
p670
VTHIS
p671
sVTimex
p672
V<TIMEX3 alt_value="THIS P1Y" anchorTimeID="t0" temporalFunction="true" tid="t3" type="DATE" valueFromFunction="tf1">this year</TIMEX3>
p673
sVLemma
p674
Vyear
p675
sVCharacterOffsetEnd
p676
V169
p677
sVPartOfSpeech
p678
VNN
p679
sVCharacterOffsetBegin
p680
V165
p681
sVNamedEntityTag
p682
VDATE
p683
saa(lp684
V?
p685
a(dp686
VNamedEntityTag
p687
g69
sVCharacterOffsetEnd
p688
V171
p689
sVCharacterOffsetBegin
p690
V170
p691
sVPartOfSpeech
p692
g201
sVLemma
p693
g685
saasVindexeddependencies
p694
(lp695
(lp696
Vroot
p697
aVROOT-0
p698
aVdid-4
p699
aa(lp700
Vadvmod
p701
aVmuch-2
p702
aVHow-1
p703
aa(lp704
Vamod
p705
aVcream-3
p706
aVmuch-2
p707
aa(lp708
Vnsubj
p709
aVdid-4
p710
aVcream-3
p711
aa(lp712
Vdet
p713
aVuse-7
p714
aVthe-5
p715
aa(lp716
Vnn
p717
aVuse-7
p718
aVrestaurant-6
p719
aa(lp720
Vdobj
p721
aVdid-4
p722
aVuse-7
p723
aa(lp724
Vdet
p725
aVyear-9
p726
aVthis-8
p727
aa(lp728
Vtmod
p729
aVdid-4
p730
aVyear-9
p731
aasas.