(dp0
Vcoref
p1
(lp2
(lp3
(lp4
(lp5
Vthe students in the band
p6
aI1
aI3
aI2
aI7
aa(lp7
Vthe students in the band
p8
aI0
aI3
aI2
aI7
aaa(lp9
(lp10
Vthe students in the band
p11
aI2
aI4
aI3
aI8
aa(lp12
Vthe students in the band
p13
aI0
aI3
aI2
aI7
aaaa(lp14
(lp15
(lp16
Vthe band
p17
aI1
aI6
aI5
aI7
aa(lp18
Vthe band
p19
aI0
aI6
aI5
aI7
aaa(lp20
(lp21
Vthe band
p22
aI2
aI7
aI6
aI8
aa(lp23
Vthe band
p24
aI0
aI6
aI5
aI7
aaaa(lp25
(lp26
(lp27
Vthe trumpet section
p28
aI2
aI13
aI11
aI14
aa(lp29
Vthe trumpet section
p30
aI0
aI11
aI9
aI12
aaaa(lp31
(lp32
(lp33
Vthe trombone section
p34
aI2
aI17
aI15
aI18
aa(lp35
Vthe trombone section
p36
aI1
aI11
aI9
aI12
aaaasVsentences
p37
(lp38
(dp39
Vparsetree
p40
V(ROOT (S (NP (NP (CD 0.5)) (PP (IN of) (NP (NP (DT the) (NNS students)) (PP (IN in) (NP (DT the) (NN band)))))) (VP (VBP are) (PP (IN in) (NP (DT the) (NN trumpet) (NN section)))) (. .)))
p41
sVtext
p42
V0.5 of the students in the band are in the trumpet section .
p43
sVdependencies
p44
(lp45
(lp46
Vroot
p47
aVROOT
p48
aVare
p49
aa(lp50
Vnsubj
p51
aVare
p52
aV0.5
p53
aa(lp54
Vdet
p55
aVstudents
p56
aVthe
p57
aa(lp58
Vprep_of
p59
aV0.5
p60
aVstudents
p61
aa(lp62
Vdet
p63
aVband
p64
aVthe
p65
aa(lp66
Vprep_in
p67
aVstudents
p68
aVband
p69
aa(lp70
Vdet
p71
aVsection
p72
aVthe
p73
aa(lp74
Vnn
p75
aVsection
p76
aVtrumpet
p77
aa(lp78
Vprep_in
p79
aVare
p80
aVsection
p81
aasVwords
p82
(lp83
(lp84
V0.5
p85
a(dp86
VNormalizedNamedEntityTag
p87
V0.5
p88
sVLemma
p89
V0.5
p90
sVCharacterOffsetEnd
p91
V4
p92
sVPartOfSpeech
p93
VCD
p94
sVCharacterOffsetBegin
p95
V1
p96
sVNamedEntityTag
p97
VNUMBER
p98
saa(lp99
Vof
p100
a(dp101
VNamedEntityTag
p102
VO
p103
sVCharacterOffsetEnd
p104
V7
p105
sVCharacterOffsetBegin
p106
V5
p107
sVPartOfSpeech
p108
VIN
p109
sVLemma
p110
Vof
p111
saa(lp112
Vthe
p113
a(dp114
VNamedEntityTag
p115
g103
sVCharacterOffsetEnd
p116
V11
p117
sVCharacterOffsetBegin
p118
V8
p119
sVPartOfSpeech
p120
VDT
p121
sVLemma
p122
Vthe
p123
saa(lp124
Vstudents
p125
a(dp126
VNamedEntityTag
p127
g103
sVCharacterOffsetEnd
p128
V20
p129
sVCharacterOffsetBegin
p130
V12
p131
sVPartOfSpeech
p132
VNNS
p133
sVLemma
p134
Vstudent
p135
saa(lp136
Vin
p137
a(dp138
VNamedEntityTag
p139
g103
sVCharacterOffsetEnd
p140
V23
p141
sVCharacterOffsetBegin
p142
V21
p143
sVPartOfSpeech
p144
VIN
p145
sVLemma
p146
Vin
p147
saa(lp148
Vthe
p149
a(dp150
VNamedEntityTag
p151
g103
sVCharacterOffsetEnd
p152
V27
p153
sVCharacterOffsetBegin
p154
V24
p155
sVPartOfSpeech
p156
VDT
p157
sVLemma
p158
Vthe
p159
saa(lp160
Vband
p161
a(dp162
VNamedEntityTag
p163
g103
sVCharacterOffsetEnd
p164
V32
p165
sVCharacterOffsetBegin
p166
V28
p167
sVPartOfSpeech
p168
VNN
p169
sVLemma
p170
Vband
p171
saa(lp172
Vare
p173
a(dp174
VNamedEntityTag
p175
g103
sVCharacterOffsetEnd
p176
V36
p177
sVCharacterOffsetBegin
p178
V33
p179
sVPartOfSpeech
p180
VVBP
p181
sVLemma
p182
Vbe
p183
saa(lp184
Vin
p185
a(dp186
VNamedEntityTag
p187
g103
sVCharacterOffsetEnd
p188
V39
p189
sVCharacterOffsetBegin
p190
V37
p191
sVPartOfSpeech
p192
VIN
p193
sVLemma
p194
Vin
p195
saa(lp196
Vthe
p197
a(dp198
VNamedEntityTag
p199
g103
sVCharacterOffsetEnd
p200
V43
p201
sVCharacterOffsetBegin
p202
V40
p203
sVPartOfSpeech
p204
VDT
p205
sVLemma
p206
Vthe
p207
saa(lp208
Vtrumpet
p209
a(dp210
VNamedEntityTag
p211
g103
sVCharacterOffsetEnd
p212
V51
p213
sVCharacterOffsetBegin
p214
V44
p215
sVPartOfSpeech
p216
VNN
p217
sVLemma
p218
Vtrumpet
p219
saa(lp220
Vsection
p221
a(dp222
VNamedEntityTag
p223
g103
sVCharacterOffsetEnd
p224
V59
p225
sVCharacterOffsetBegin
p226
V52
p227
sVPartOfSpeech
p228
VNN
p229
sVLemma
p230
Vsection
p231
saa(lp232
V.
p233
a(dp234
VNamedEntityTag
p235
g103
sVCharacterOffsetEnd
p236
V61
p237
sVCharacterOffsetBegin
p238
V60
p239
sVPartOfSpeech
p240
g233
sVLemma
p241
g233
saasVindexeddependencies
p242
(lp243
(lp244
Vroot
p245
aVROOT-0
p246
aVare-8
p247
aa(lp248
Vnsubj
p249
aVare-8
p250
aV0.5-1
p251
aa(lp252
Vdet
p253
aVstudents-4
p254
aVthe-3
p255
aa(lp256
Vprep_of
p257
aV0.5-1
p258
aVstudents-4
p259
aa(lp260
Vdet
p261
aVband-7
p262
aVthe-6
p263
aa(lp264
Vprep_in
p265
aVstudents-4
p266
aVband-7
p267
aa(lp268
Vdet
p269
aVsection-12
p270
aVthe-10
p271
aa(lp272
Vnn
p273
aVsection-12
p274
aVtrumpet-11
p275
aa(lp276
Vprep_in
p277
aVare-8
p278
aVsection-12
p279
aasa(dp280
Vparsetree
p281
V(ROOT (S (NP (NP (CD 0.125)) (PP (IN of) (NP (NP (DT the) (NNS students)) (PP (IN in) (NP (DT the) (NN band)))))) (VP (VBP are) (PP (IN in) (NP (DT the) (NN trombone) (NN section)))) (. .)))
p282
sVtext
p283
V0.125 of the students in the band are in the trombone section .
p284
sVdependencies
p285
(lp286
(lp287
Vroot
p288
aVROOT
p289
aVare
p290
aa(lp291
Vnsubj
p292
aVare
p293
aV0.125
p294
aa(lp295
Vdet
p296
aVstudents
p297
aVthe
p298
aa(lp299
Vprep_of
p300
aV0.125
p301
aVstudents
p302
aa(lp303
Vdet
p304
aVband
p305
aVthe
p306
aa(lp307
Vprep_in
p308
aVstudents
p309
aVband
p310
aa(lp311
Vdet
p312
aVsection
p313
aVthe
p314
aa(lp315
Vnn
p316
aVsection
p317
aVtrombone
p318
aa(lp319
Vprep_in
p320
aVare
p321
aVsection
p322
aasVwords
p323
(lp324
(lp325
V0.125
p326
a(dp327
VNormalizedNamedEntityTag
p328
V0.125
p329
sVLemma
p330
V0.125
p331
sVCharacterOffsetEnd
p332
V67
p333
sVPartOfSpeech
p334
VCD
p335
sVCharacterOffsetBegin
p336
V62
p337
sVNamedEntityTag
p338
VNUMBER
p339
saa(lp340
Vof
p341
a(dp342
VNamedEntityTag
p343
g103
sVCharacterOffsetEnd
p344
V70
p345
sVCharacterOffsetBegin
p346
V68
p347
sVPartOfSpeech
p348
VIN
p349
sVLemma
p350
Vof
p351
saa(lp352
Vthe
p353
a(dp354
VNamedEntityTag
p355
g103
sVCharacterOffsetEnd
p356
V74
p357
sVCharacterOffsetBegin
p358
V71
p359
sVPartOfSpeech
p360
VDT
p361
sVLemma
p362
Vthe
p363
saa(lp364
Vstudents
p365
a(dp366
VNamedEntityTag
p367
g103
sVCharacterOffsetEnd
p368
V83
p369
sVCharacterOffsetBegin
p370
V75
p371
sVPartOfSpeech
p372
VNNS
p373
sVLemma
p374
Vstudent
p375
saa(lp376
Vin
p377
a(dp378
VNamedEntityTag
p379
g103
sVCharacterOffsetEnd
p380
V86
p381
sVCharacterOffsetBegin
p382
V84
p383
sVPartOfSpeech
p384
VIN
p385
sVLemma
p386
Vin
p387
saa(lp388
Vthe
p389
a(dp390
VNamedEntityTag
p391
g103
sVCharacterOffsetEnd
p392
V90
p393
sVCharacterOffsetBegin
p394
V87
p395
sVPartOfSpeech
p396
VDT
p397
sVLemma
p398
Vthe
p399
saa(lp400
Vband
p401
a(dp402
VNamedEntityTag
p403
g103
sVCharacterOffsetEnd
p404
V95
p405
sVCharacterOffsetBegin
p406
V91
p407
sVPartOfSpeech
p408
VNN
p409
sVLemma
p410
Vband
p411
saa(lp412
Vare
p413
a(dp414
VNamedEntityTag
p415
g103
sVCharacterOffsetEnd
p416
V99
p417
sVCharacterOffsetBegin
p418
V96
p419
sVPartOfSpeech
p420
VVBP
p421
sVLemma
p422
Vbe
p423
saa(lp424
Vin
p425
a(dp426
VNamedEntityTag
p427
g103
sVCharacterOffsetEnd
p428
V102
p429
sVCharacterOffsetBegin
p430
V100
p431
sVPartOfSpeech
p432
VIN
p433
sVLemma
p434
Vin
p435
saa(lp436
Vthe
p437
a(dp438
VNamedEntityTag
p439
g103
sVCharacterOffsetEnd
p440
V106
p441
sVCharacterOffsetBegin
p442
V103
p443
sVPartOfSpeech
p444
VDT
p445
sVLemma
p446
Vthe
p447
saa(lp448
Vtrombone
p449
a(dp450
VNamedEntityTag
p451
g103
sVCharacterOffsetEnd
p452
V115
p453
sVCharacterOffsetBegin
p454
V107
p455
sVPartOfSpeech
p456
VNN
p457
sVLemma
p458
Vtrombone
p459
saa(lp460
Vsection
p461
a(dp462
VNamedEntityTag
p463
g103
sVCharacterOffsetEnd
p464
V123
p465
sVCharacterOffsetBegin
p466
V116
p467
sVPartOfSpeech
p468
VNN
p469
sVLemma
p470
Vsection
p471
saa(lp472
g233
a(dp473
VNamedEntityTag
p474
g103
sVCharacterOffsetEnd
p475
V125
p476
sVCharacterOffsetBegin
p477
V124
p478
sVPartOfSpeech
p479
g233
sVLemma
p480
g233
saasVindexeddependencies
p481
(lp482
(lp483
Vroot
p484
aVROOT-0
p485
aVare-8
p486
aa(lp487
Vnsubj
p488
aVare-8
p489
aV0.125-1
p490
aa(lp491
Vdet
p492
aVstudents-4
p493
aVthe-3
p494
aa(lp495
Vprep_of
p496
aV0.125-1
p497
aVstudents-4
p498
aa(lp499
Vdet
p500
aVband-7
p501
aVthe-6
p502
aa(lp503
Vprep_in
p504
aVstudents-4
p505
aVband-7
p506
aa(lp507
Vdet
p508
aVsection-12
p509
aVthe-10
p510
aa(lp511
Vnn
p512
aVsection-12
p513
aVtrombone-11
p514
aa(lp515
Vprep_in
p516
aVare-8
p517
aVsection-12
p518
aasa(dp519
Vparsetree
p520
V(ROOT (SBARQ (WHNP (WDT What) (NP (NN fraction) (PP (IN of) (NP (NP (DT the) (NNS students)) (PP (IN in) (NP (DT the) (NN band))))))) (SQ (VBP are) (PP (IN in) (NP (CC either) (NP (DT the) (NN trumpet) (NN section)) (CC or) (NP (DT the) (NN trombone) (NN section))))) (. ?)))
p521
sVtext
p522
VWhat fraction of the students in the band are in either the trumpet section or the trombone section ?
p523
sVdependencies
p524
(lp525
(lp526
Vroot
p527
aVROOT
p528
aVare
p529
aa(lp530
Vdet
p531
aVfraction
p532
aVWhat
p533
aa(lp534
Vnsubj
p535
aVare
p536
aVfraction
p537
aa(lp538
Vdet
p539
aVstudents
p540
aVthe
p541
aa(lp542
Vprep_of
p543
aVfraction
p544
aVstudents
p545
aa(lp546
Vdet
p547
aVband
p548
aVthe
p549
aa(lp550
Vprep_in
p551
aVstudents
p552
aVband
p553
aa(lp554
Vpreconj
p555
aVsection
p556
aVeither
p557
aa(lp558
Vdet
p559
aVsection
p560
aVthe
p561
aa(lp562
Vnn
p563
aVsection
p564
aVtrumpet
p565
aa(lp566
Vprep_in
p567
aVare
p568
aVsection
p569
aa(lp570
Vdet
p571
aVsection
p572
aVthe
p573
aa(lp574
Vnn
p575
aVsection
p576
aVtrombone
p577
aa(lp578
Vconj_or
p579
aVsection
p580
aVsection
p581
aasVwords
p582
(lp583
(lp584
VWhat
p585
a(dp586
VNamedEntityTag
p587
g103
sVCharacterOffsetEnd
p588
V130
p589
sVCharacterOffsetBegin
p590
V126
p591
sVPartOfSpeech
p592
VWDT
p593
sVLemma
p594
Vwhat
p595
saa(lp596
Vfraction
p597
a(dp598
VNamedEntityTag
p599
g103
sVCharacterOffsetEnd
p600
V139
p601
sVCharacterOffsetBegin
p602
V131
p603
sVPartOfSpeech
p604
VNN
p605
sVLemma
p606
Vfraction
p607
saa(lp608
Vof
p609
a(dp610
VNamedEntityTag
p611
g103
sVCharacterOffsetEnd
p612
V142
p613
sVCharacterOffsetBegin
p614
V140
p615
sVPartOfSpeech
p616
VIN
p617
sVLemma
p618
Vof
p619
saa(lp620
Vthe
p621
a(dp622
VNamedEntityTag
p623
g103
sVCharacterOffsetEnd
p624
V146
p625
sVCharacterOffsetBegin
p626
V143
p627
sVPartOfSpeech
p628
VDT
p629
sVLemma
p630
Vthe
p631
saa(lp632
Vstudents
p633
a(dp634
VNamedEntityTag
p635
g103
sVCharacterOffsetEnd
p636
V155
p637
sVCharacterOffsetBegin
p638
V147
p639
sVPartOfSpeech
p640
VNNS
p641
sVLemma
p642
Vstudent
p643
saa(lp644
Vin
p645
a(dp646
VNamedEntityTag
p647
g103
sVCharacterOffsetEnd
p648
V158
p649
sVCharacterOffsetBegin
p650
V156
p651
sVPartOfSpeech
p652
VIN
p653
sVLemma
p654
Vin
p655
saa(lp656
Vthe
p657
a(dp658
VNamedEntityTag
p659
g103
sVCharacterOffsetEnd
p660
V162
p661
sVCharacterOffsetBegin
p662
V159
p663
sVPartOfSpeech
p664
VDT
p665
sVLemma
p666
Vthe
p667
saa(lp668
Vband
p669
a(dp670
VNamedEntityTag
p671
g103
sVCharacterOffsetEnd
p672
V167
p673
sVCharacterOffsetBegin
p674
V163
p675
sVPartOfSpeech
p676
VNN
p677
sVLemma
p678
Vband
p679
saa(lp680
Vare
p681
a(dp682
VNamedEntityTag
p683
g103
sVCharacterOffsetEnd
p684
V171
p685
sVCharacterOffsetBegin
p686
V168
p687
sVPartOfSpeech
p688
VVBP
p689
sVLemma
p690
Vbe
p691
saa(lp692
Vin
p693
a(dp694
VNamedEntityTag
p695
g103
sVCharacterOffsetEnd
p696
V174
p697
sVCharacterOffsetBegin
p698
V172
p699
sVPartOfSpeech
p700
VIN
p701
sVLemma
p702
Vin
p703
saa(lp704
Veither
p705
a(dp706
VNamedEntityTag
p707
g103
sVCharacterOffsetEnd
p708
V181
p709
sVCharacterOffsetBegin
p710
V175
p711
sVPartOfSpeech
p712
VCC
p713
sVLemma
p714
Veither
p715
saa(lp716
Vthe
p717
a(dp718
VNamedEntityTag
p719
g103
sVCharacterOffsetEnd
p720
V185
p721
sVCharacterOffsetBegin
p722
V182
p723
sVPartOfSpeech
p724
VDT
p725
sVLemma
p726
Vthe
p727
saa(lp728
Vtrumpet
p729
a(dp730
VNamedEntityTag
p731
g103
sVCharacterOffsetEnd
p732
V193
p733
sVCharacterOffsetBegin
p734
V186
p735
sVPartOfSpeech
p736
VNN
p737
sVLemma
p738
Vtrumpet
p739
saa(lp740
Vsection
p741
a(dp742
VNamedEntityTag
p743
g103
sVCharacterOffsetEnd
p744
V201
p745
sVCharacterOffsetBegin
p746
V194
p747
sVPartOfSpeech
p748
VNN
p749
sVLemma
p750
Vsection
p751
saa(lp752
Vor
p753
a(dp754
VNamedEntityTag
p755
g103
sVCharacterOffsetEnd
p756
V204
p757
sVCharacterOffsetBegin
p758
V202
p759
sVPartOfSpeech
p760
VCC
p761
sVLemma
p762
Vor
p763
saa(lp764
Vthe
p765
a(dp766
VNamedEntityTag
p767
g103
sVCharacterOffsetEnd
p768
V208
p769
sVCharacterOffsetBegin
p770
V205
p771
sVPartOfSpeech
p772
VDT
p773
sVLemma
p774
Vthe
p775
saa(lp776
Vtrombone
p777
a(dp778
VNamedEntityTag
p779
g103
sVCharacterOffsetEnd
p780
V217
p781
sVCharacterOffsetBegin
p782
V209
p783
sVPartOfSpeech
p784
VNN
p785
sVLemma
p786
Vtrombone
p787
saa(lp788
Vsection
p789
a(dp790
VNamedEntityTag
p791
g103
sVCharacterOffsetEnd
p792
V225
p793
sVCharacterOffsetBegin
p794
V218
p795
sVPartOfSpeech
p796
VNN
p797
sVLemma
p798
Vsection
p799
saa(lp800
V?
p801
a(dp802
VNamedEntityTag
p803
g103
sVCharacterOffsetEnd
p804
V227
p805
sVCharacterOffsetBegin
p806
V226
p807
sVPartOfSpeech
p808
g233
sVLemma
p809
g801
saasVindexeddependencies
p810
(lp811
(lp812
Vroot
p813
aVROOT-0
p814
aVare-9
p815
aa(lp816
Vdet
p817
aVfraction-2
p818
aVWhat-1
p819
aa(lp820
Vnsubj
p821
aVare-9
p822
aVfraction-2
p823
aa(lp824
Vdet
p825
aVstudents-5
p826
aVthe-4
p827
aa(lp828
Vprep_of
p829
aVfraction-2
p830
aVstudents-5
p831
aa(lp832
Vdet
p833
aVband-8
p834
aVthe-7
p835
aa(lp836
Vprep_in
p837
aVstudents-5
p838
aVband-8
p839
aa(lp840
Vpreconj
p841
aVsection-14
p842
aVeither-11
p843
aa(lp844
Vdet
p845
aVsection-14
p846
aVthe-12
p847
aa(lp848
Vnn
p849
aVsection-14
p850
aVtrumpet-13
p851
aa(lp852
Vprep_in
p853
aVare-9
p854
aVsection-14
p855
aa(lp856
Vdet
p857
aVsection-18
p858
aVthe-16
p859
aa(lp860
Vnn
p861
aVsection-18
p862
aVtrombone-17
p863
aa(lp864
Vconj_or
p865
aVsection-14
p866
aVsection-18
p867
aasas.