(dp0
Vcoref
p1
(lp2
(lp3
(lp4
(lp5
VThis month
p6
aI1
aI1
aI0
aI2
aa(lp7
VLast month
p8
aI0
aI1
aI0
aI2
aaaasVsentences
p9
(lp10
(dp11
Vparsetree
p12
V(ROOT (S (NP-TMP (JJ Last) (NN month)) (, ,) (NP (DT a) (NN carpenter)) (VP (VBD made) (NP (CD 5) (NNS tables))) (. .)))
p13
sVtext
p14
VLast month , a carpenter made 5 tables .
p15
sVdependencies
p16
(lp17
(lp18
Vroot
p19
aVROOT
p20
aVmade
p21
aa(lp22
Vamod
p23
aVmonth
p24
aVLast
p25
aa(lp26
Vtmod
p27
aVmade
p28
aVmonth
p29
aa(lp30
Vdet
p31
aVcarpenter
p32
aVa
p33
aa(lp34
Vnsubj
p35
aVmade
p36
aVcarpenter
p37
aa(lp38
Vnum
p39
aVtables
p40
aV5
p41
aa(lp42
Vdobj
p43
aVmade
p44
aVtables
p45
aasVwords
p46
(lp47
(lp48
VLast
p49
a(dp50
VNormalizedNamedEntityTag
p51
VTHIS
p52
sVTimex
p53
V<TIMEX3 alt_value="THIS P1M OFFSET P-1M" anchorTimeID="t2" temporalFunction="true" tid="t1" type="DATE" valueFromFunction="tf0">Last month</TIMEX3>
p54
sVLemma
p55
Vlast
p56
sVCharacterOffsetEnd
p57
g41
sVPartOfSpeech
p58
VJJ
p59
sVCharacterOffsetBegin
p60
V1
p61
sVNamedEntityTag
p62
VDATE
p63
saa(lp64
Vmonth
p65
a(dp66
VNormalizedNamedEntityTag
p67
VTHIS
p68
sVTimex
p69
V<TIMEX3 alt_value="THIS P1M OFFSET P-1M" anchorTimeID="t2" temporalFunction="true" tid="t1" type="DATE" valueFromFunction="tf0">Last month</TIMEX3>
p70
sVLemma
p71
Vmonth
p72
sVCharacterOffsetEnd
p73
V11
p74
sVPartOfSpeech
p75
VNN
p76
sVCharacterOffsetBegin
p77
V6
p78
sVNamedEntityTag
p79
VDATE
p80
saa(lp81
V,
p82
a(dp83
VNamedEntityTag
p84
VO
p85
sVCharacterOffsetEnd
p86
V13
p87
sVCharacterOffsetBegin
p88
V12
p89
sVPartOfSpeech
p90
g82
sVLemma
p91
g82
saa(lp92
g33
a(dp93
VNamedEntityTag
p94
g85
sVCharacterOffsetEnd
p95
V15
p96
sVCharacterOffsetBegin
p97
V14
p98
sVPartOfSpeech
p99
VDT
p100
sVLemma
p101
g33
saa(lp102
Vcarpenter
p103
a(dp104
VNamedEntityTag
p105
g85
sVCharacterOffsetEnd
p106
V25
p107
sVCharacterOffsetBegin
p108
V16
p109
sVPartOfSpeech
p110
VNN
p111
sVLemma
p112
Vcarpenter
p113
saa(lp114
Vmade
p115
a(dp116
VNamedEntityTag
p117
g85
sVCharacterOffsetEnd
p118
V30
p119
sVCharacterOffsetBegin
p120
V26
p121
sVPartOfSpeech
p122
VVBD
p123
sVLemma
p124
Vmake
p125
saa(lp126
g41
a(dp127
VNormalizedNamedEntityTag
p128
V5.0
p129
sVLemma
p130
g41
sVCharacterOffsetEnd
p131
V32
p132
sVPartOfSpeech
p133
VCD
p134
sVCharacterOffsetBegin
p135
V31
p136
sVNamedEntityTag
p137
VNUMBER
p138
saa(lp139
Vtables
p140
a(dp141
VNamedEntityTag
p142
g85
sVCharacterOffsetEnd
p143
V39
p144
sVCharacterOffsetBegin
p145
V33
p146
sVPartOfSpeech
p147
VNNS
p148
sVLemma
p149
Vtable
p150
saa(lp151
V.
p152
a(dp153
VNamedEntityTag
p154
g85
sVCharacterOffsetEnd
p155
V41
p156
sVCharacterOffsetBegin
p157
V40
p158
sVPartOfSpeech
p159
g152
sVLemma
p160
g152
saasVindexeddependencies
p161
(lp162
(lp163
Vroot
p164
aVROOT-0
p165
aVmade-6
p166
aa(lp167
Vamod
p168
aVmonth-2
p169
aVLast-1
p170
aa(lp171
Vtmod
p172
aVmade-6
p173
aVmonth-2
p174
aa(lp175
Vdet
p176
aVcarpenter-5
p177
aVa-4
p178
aa(lp179
Vnsubj
p180
aVmade-6
p181
aVcarpenter-5
p182
aa(lp183
Vnum
p184
aVtables-8
p185
aV5-7
p186
aa(lp187
Vdobj
p188
aVmade-6
p189
aVtables-8
p190
aasa(dp191
Vparsetree
p192
V(ROOT (S (NP-TMP (DT This) (NN month)) (, ,) (NP (PRP she)) (VP (VBD made) (NP (CD 4) (NNS tables))) (. .)))
p193
sVtext
p194
VThis month , she made 4 tables .
p195
sVdependencies
p196
(lp197
(lp198
Vroot
p199
aVROOT
p200
aVmade
p201
aa(lp202
Vdet
p203
aVmonth
p204
aVThis
p205
aa(lp206
Vtmod
p207
aVmade
p208
aVmonth
p209
aa(lp210
Vnsubj
p211
aVmade
p212
aVshe
p213
aa(lp214
Vnum
p215
aVtables
p216
aV4
p217
aa(lp218
Vdobj
p219
aVmade
p220
aVtables
p221
aasVwords
p222
(lp223
(lp224
VThis
p225
a(dp226
VNormalizedNamedEntityTag
p227
VTHIS
p228
sVTimex
p229
V<TIMEX3 alt_value="THIS P1M" anchorTimeID="t0" temporalFunction="true" tid="t3" type="DATE" valueFromFunction="tf1">This month</TIMEX3>
p230
sVLemma
p231
Vthis
p232
sVCharacterOffsetEnd
p233
V46
p234
sVPartOfSpeech
p235
VDT
p236
sVCharacterOffsetBegin
p237
V42
p238
sVNamedEntityTag
p239
VDATE
p240
saa(lp241
Vmonth
p242
a(dp243
VNormalizedNamedEntityTag
p244
VTHIS
p245
sVTimex
p246
V<TIMEX3 alt_value="THIS P1M" anchorTimeID="t0" temporalFunction="true" tid="t3" type="DATE" valueFromFunction="tf1">This month</TIMEX3>
p247
sVLemma
p248
Vmonth
p249
sVCharacterOffsetEnd
p250
V52
p251
sVPartOfSpeech
p252
VNN
p253
sVCharacterOffsetBegin
p254
V47
p255
sVNamedEntityTag
p256
VDATE
p257
saa(lp258
g82
a(dp259
VNamedEntityTag
p260
g85
sVCharacterOffsetEnd
p261
V54
p262
sVCharacterOffsetBegin
p263
V53
p264
sVPartOfSpeech
p265
g82
sVLemma
p266
g82
saa(lp267
Vshe
p268
a(dp269
VNamedEntityTag
p270
g85
sVCharacterOffsetEnd
p271
V58
p272
sVCharacterOffsetBegin
p273
V55
p274
sVPartOfSpeech
p275
VPRP
p276
sVLemma
p277
Vshe
p278
saa(lp279
Vmade
p280
a(dp281
VNamedEntityTag
p282
g85
sVCharacterOffsetEnd
p283
V63
p284
sVCharacterOffsetBegin
p285
V59
p286
sVPartOfSpeech
p287
VVBD
p288
sVLemma
p289
Vmake
p290
saa(lp291
g217
a(dp292
VNormalizedNamedEntityTag
p293
V4.0
p294
sVLemma
p295
g217
sVCharacterOffsetEnd
p296
V65
p297
sVPartOfSpeech
p298
VCD
p299
sVCharacterOffsetBegin
p300
V64
p301
sVNamedEntityTag
p302
VNUMBER
p303
saa(lp304
Vtables
p305
a(dp306
VNamedEntityTag
p307
g85
sVCharacterOffsetEnd
p308
V72
p309
sVCharacterOffsetBegin
p310
V66
p311
sVPartOfSpeech
p312
VNNS
p313
sVLemma
p314
Vtable
p315
saa(lp316
g152
a(dp317
VNamedEntityTag
p318
g85
sVCharacterOffsetEnd
p319
V74
p320
sVCharacterOffsetBegin
p321
V73
p322
sVPartOfSpeech
p323
g152
sVLemma
p324
g152
saasVindexeddependencies
p325
(lp326
(lp327
Vroot
p328
aVROOT-0
p329
aVmade-5
p330
aa(lp331
Vdet
p332
aVmonth-2
p333
aVThis-1
p334
aa(lp335
Vtmod
p336
aVmade-5
p337
aVmonth-2
p338
aa(lp339
Vnsubj
p340
aVmade-5
p341
aVshe-4
p342
aa(lp343
Vnum
p344
aVtables-7
p345
aV4-6
p346
aa(lp347
Vdobj
p348
aVmade-5
p349
aVtables-7
p350
aasa(dp351
Vparsetree
p352
V(ROOT (SBARQ (WHNP (WP What)) (SQ (VBZ is) (NP (NP (DT the) (NNS times)) (PP (IN of) (NP (NP (NN decrease)) (PP (IN in) (NP (NP (DT the) (NN number)) (PP (IN of) (NP (NNS tables)))))))) (VP (VBN made))) (. ?)))
p353
sVtext
p354
VWhat is the times of decrease in the number of tables made ?
p355
sVdependencies
p356
(lp357
(lp358
Vroot
p359
aVROOT
p360
aVmade
p361
aa(lp362
Vdobj
p363
aVmade
p364
aVWhat
p365
aa(lp366
Vauxpass
p367
aVmade
p368
aVis
p369
aa(lp370
Vdet
p371
aVtimes
p372
aVthe
p373
aa(lp374
Vnsubjpass
p375
aVmade
p376
aVtimes
p377
aa(lp378
Vprep_of
p379
aVtimes
p380
aVdecrease
p381
aa(lp382
Vdet
p383
aVnumber
p384
aVthe
p385
aa(lp386
Vprep_in
p387
aVdecrease
p388
aVnumber
p389
aa(lp390
Vprep_of
p391
aVnumber
p392
aVtables
p393
aasVwords
p394
(lp395
(lp396
VWhat
p397
a(dp398
VNamedEntityTag
p399
g85
sVCharacterOffsetEnd
p400
V79
p401
sVCharacterOffsetBegin
p402
V75
p403
sVPartOfSpeech
p404
VWP
p405
sVLemma
p406
Vwhat
p407
saa(lp408
Vis
p409
a(dp410
VNamedEntityTag
p411
g85
sVCharacterOffsetEnd
p412
V82
p413
sVCharacterOffsetBegin
p414
V80
p415
sVPartOfSpeech
p416
VVBZ
p417
sVLemma
p418
Vbe
p419
saa(lp420
Vthe
p421
a(dp422
VNamedEntityTag
p423
g85
sVCharacterOffsetEnd
p424
V86
p425
sVCharacterOffsetBegin
p426
V83
p427
sVPartOfSpeech
p428
VDT
p429
sVLemma
p430
Vthe
p431
saa(lp432
Vtimes
p433
a(dp434
VNamedEntityTag
p435
g85
sVCharacterOffsetEnd
p436
V92
p437
sVCharacterOffsetBegin
p438
V87
p439
sVPartOfSpeech
p440
VNNS
p441
sVLemma
p442
Vtime
p443
saa(lp444
Vof
p445
a(dp446
VNamedEntityTag
p447
g85
sVCharacterOffsetEnd
p448
V95
p449
sVCharacterOffsetBegin
p450
V93
p451
sVPartOfSpeech
p452
VIN
p453
sVLemma
p454
Vof
p455
saa(lp456
Vdecrease
p457
a(dp458
VNamedEntityTag
p459
g85
sVCharacterOffsetEnd
p460
V104
p461
sVCharacterOffsetBegin
p462
V96
p463
sVPartOfSpeech
p464
VNN
p465
sVLemma
p466
Vdecrease
p467
saa(lp468
Vin
p469
a(dp470
VNamedEntityTag
p471
g85
sVCharacterOffsetEnd
p472
V107
p473
sVCharacterOffsetBegin
p474
V105
p475
sVPartOfSpeech
p476
VIN
p477
sVLemma
p478
Vin
p479
saa(lp480
Vthe
p481
a(dp482
VNamedEntityTag
p483
g85
sVCharacterOffsetEnd
p484
V111
p485
sVCharacterOffsetBegin
p486
V108
p487
sVPartOfSpeech
p488
VDT
p489
sVLemma
p490
Vthe
p491
saa(lp492
Vnumber
p493
a(dp494
VNamedEntityTag
p495
g85
sVCharacterOffsetEnd
p496
V118
p497
sVCharacterOffsetBegin
p498
V112
p499
sVPartOfSpeech
p500
VNN
p501
sVLemma
p502
Vnumber
p503
saa(lp504
Vof
p505
a(dp506
VNamedEntityTag
p507
g85
sVCharacterOffsetEnd
p508
V121
p509
sVCharacterOffsetBegin
p510
V119
p511
sVPartOfSpeech
p512
VIN
p513
sVLemma
p514
Vof
p515
saa(lp516
Vtables
p517
a(dp518
VNamedEntityTag
p519
g85
sVCharacterOffsetEnd
p520
V128
p521
sVCharacterOffsetBegin
p522
V122
p523
sVPartOfSpeech
p524
VNNS
p525
sVLemma
p526
Vtable
p527
saa(lp528
Vmade
p529
a(dp530
VNamedEntityTag
p531
g85
sVCharacterOffsetEnd
p532
V133
p533
sVCharacterOffsetBegin
p534
V129
p535
sVPartOfSpeech
p536
VVBN
p537
sVLemma
p538
Vmake
p539
saa(lp540
V?
p541
a(dp542
VNamedEntityTag
p543
g85
sVCharacterOffsetEnd
p544
V135
p545
sVCharacterOffsetBegin
p546
V134
p547
sVPartOfSpeech
p548
g152
sVLemma
p549
g541
saasVindexeddependencies
p550
(lp551
(lp552
Vroot
p553
aVROOT-0
p554
aVmade-12
p555
aa(lp556
Vdobj
p557
aVmade-12
p558
aVWhat-1
p559
aa(lp560
Vauxpass
p561
aVmade-12
p562
aVis-2
p563
aa(lp564
Vdet
p565
aVtimes-4
p566
aVthe-3
p567
aa(lp568
Vnsubjpass
p569
aVmade-12
p570
aVtimes-4
p571
aa(lp572
Vprep_of
p573
aVtimes-4
p574
aVdecrease-6
p575
aa(lp576
Vdet
p577
aVnumber-9
p578
aVthe-8
p579
aa(lp580
Vprep_in
p581
aVdecrease-6
p582
aVnumber-9
p583
aa(lp584
Vprep_of
p585
aVnumber-9
p586
aVtables-11
p587
aasas.