(dp0
Vsentences
p1
(lp2
(dp3
Vparsetree
p4
V(ROOT (S (PP (IN At) (NP (NP (NNP Billy) (POS 's)) (NNP Restaurant))) (NP (NP (DT a) (NN group)) (PP (IN with) (NP (NP (CD 2) (NNS adults)) (CC and) (NP (CD 5) (NNS children))))) (VP (VBD came) (PP (IN in)) (S (VP (TO to) (VP (VB eat))))) (. .)))
p5
sVtext
p6
VAt Billy's Restaurant a group with 2 adults and 5 children came in to eat .
p7
sVdependencies
p8
(lp9
(lp10
Vroot
p11
aVROOT
p12
aVcame
p13
aa(lp14
Vposs
p15
aVRestaurant
p16
aVBilly
p17
aa(lp18
Vprep_at
p19
aVcame
p20
aVRestaurant
p21
aa(lp22
Vdet
p23
aVgroup
p24
aVa
p25
aa(lp26
Vnsubj
p27
aVcame
p28
aVgroup
p29
aa(lp30
Vnum
p31
aVadults
p32
aV2
p33
aa(lp34
Vprep_with
p35
aVgroup
p36
aVadults
p37
aa(lp38
Vnum
p39
aVchildren
p40
aV5
p41
aa(lp42
Vconj_and
p43
aVadults
p44
aVchildren
p45
aa(lp46
Vprep
p47
aVcame
p48
aVin
p49
aa(lp50
Vaux
p51
aVeat
p52
aVto
p53
aa(lp54
Vxcomp
p55
aVcame
p56
aVeat
p57
aasVwords
p58
(lp59
(lp60
VAt
p61
a(dp62
VNamedEntityTag
p63
VO
p64
sVCharacterOffsetEnd
p65
V3
p66
sVCharacterOffsetBegin
p67
V1
p68
sVPartOfSpeech
p69
VIN
p70
sVLemma
p71
Vat
p72
saa(lp73
VBilly
p74
a(dp75
VNamedEntityTag
p76
VPERSON
p77
sVCharacterOffsetEnd
p78
V9
p79
sVCharacterOffsetBegin
p80
V4
p81
sVPartOfSpeech
p82
VNNP
p83
sVLemma
p84
VBilly
p85
saa(lp86
V's
p87
a(dp88
VNamedEntityTag
p89
g64
sVCharacterOffsetEnd
p90
V11
p91
sVCharacterOffsetBegin
p92
g79
sVPartOfSpeech
p93
VPOS
p94
sVLemma
p95
V's
p96
saa(lp97
VRestaurant
p98
a(dp99
VNamedEntityTag
p100
g64
sVCharacterOffsetEnd
p101
V22
p102
sVCharacterOffsetBegin
p103
V12
p104
sVPartOfSpeech
p105
VNNP
p106
sVLemma
p107
VRestaurant
p108
saa(lp109
g25
a(dp110
VNamedEntityTag
p111
g64
sVCharacterOffsetEnd
p112
V24
p113
sVCharacterOffsetBegin
p114
V23
p115
sVPartOfSpeech
p116
VDT
p117
sVLemma
p118
g25
saa(lp119
Vgroup
p120
a(dp121
VNamedEntityTag
p122
g64
sVCharacterOffsetEnd
p123
V30
p124
sVCharacterOffsetBegin
p125
V25
p126
sVPartOfSpeech
p127
VNN
p128
sVLemma
p129
Vgroup
p130
saa(lp131
Vwith
p132
a(dp133
VNamedEntityTag
p134
g64
sVCharacterOffsetEnd
p135
V35
p136
sVCharacterOffsetBegin
p137
V31
p138
sVPartOfSpeech
p139
VIN
p140
sVLemma
p141
Vwith
p142
saa(lp143
g33
a(dp144
VNormalizedNamedEntityTag
p145
V2.0
p146
sVLemma
p147
g33
sVCharacterOffsetEnd
p148
V37
p149
sVPartOfSpeech
p150
VCD
p151
sVCharacterOffsetBegin
p152
V36
p153
sVNamedEntityTag
p154
VNUMBER
p155
saa(lp156
Vadults
p157
a(dp158
VNamedEntityTag
p159
g64
sVCharacterOffsetEnd
p160
V44
p161
sVCharacterOffsetBegin
p162
V38
p163
sVPartOfSpeech
p164
VNNS
p165
sVLemma
p166
Vadult
p167
saa(lp168
Vand
p169
a(dp170
VNamedEntityTag
p171
g64
sVCharacterOffsetEnd
p172
V48
p173
sVCharacterOffsetBegin
p174
V45
p175
sVPartOfSpeech
p176
VCC
p177
sVLemma
p178
Vand
p179
saa(lp180
g41
a(dp181
VNormalizedNamedEntityTag
p182
V5.0
p183
sVLemma
p184
g41
sVCharacterOffsetEnd
p185
V50
p186
sVPartOfSpeech
p187
VCD
p188
sVCharacterOffsetBegin
p189
V49
p190
sVNamedEntityTag
p191
VNUMBER
p192
saa(lp193
Vchildren
p194
a(dp195
VNamedEntityTag
p196
g64
sVCharacterOffsetEnd
p197
V59
p198
sVCharacterOffsetBegin
p199
V51
p200
sVPartOfSpeech
p201
VNNS
p202
sVLemma
p203
Vchild
p204
saa(lp205
Vcame
p206
a(dp207
VNamedEntityTag
p208
g64
sVCharacterOffsetEnd
p209
V64
p210
sVCharacterOffsetBegin
p211
V60
p212
sVPartOfSpeech
p213
VVBD
p214
sVLemma
p215
Vcome
p216
saa(lp217
Vin
p218
a(dp219
VNamedEntityTag
p220
g64
sVCharacterOffsetEnd
p221
V67
p222
sVCharacterOffsetBegin
p223
V65
p224
sVPartOfSpeech
p225
VIN
p226
sVLemma
p227
Vin
p228
saa(lp229
Vto
p230
a(dp231
VNamedEntityTag
p232
g64
sVCharacterOffsetEnd
p233
V70
p234
sVCharacterOffsetBegin
p235
V68
p236
sVPartOfSpeech
p237
VTO
p238
sVLemma
p239
Vto
p240
saa(lp241
Veat
p242
a(dp243
VNamedEntityTag
p244
g64
sVCharacterOffsetEnd
p245
V74
p246
sVCharacterOffsetBegin
p247
V71
p248
sVPartOfSpeech
p249
VVB
p250
sVLemma
p251
Veat
p252
saa(lp253
V.
p254
a(dp255
VNamedEntityTag
p256
g64
sVCharacterOffsetEnd
p257
V76
p258
sVCharacterOffsetBegin
p259
V75
p260
sVPartOfSpeech
p261
g254
sVLemma
p262
g254
saasVindexeddependencies
p263
(lp264
(lp265
Vroot
p266
aVROOT-0
p267
aVcame-13
p268
aa(lp269
Vposs
p270
aVRestaurant-4
p271
aVBilly-2
p272
aa(lp273
Vprep_at
p274
aVcame-13
p275
aVRestaurant-4
p276
aa(lp277
Vdet
p278
aVgroup-6
p279
aVa-5
p280
aa(lp281
Vnsubj
p282
aVcame-13
p283
aVgroup-6
p284
aa(lp285
Vnum
p286
aVadults-9
p287
aV2-8
p288
aa(lp289
Vprep_with
p290
aVgroup-6
p291
aVadults-9
p292
aa(lp293
Vnum
p294
aVchildren-12
p295
aV5-11
p296
aa(lp297
Vconj_and
p298
aVadults-9
p299
aVchildren-12
p300
aa(lp301
Vprep
p302
aVcame-13
p303
aVin-14
p304
aa(lp305
Vaux
p306
aVeat-16
p307
aVto-15
p308
aa(lp309
Vxcomp
p310
aVcame-13
p311
aVeat-16
p312
aasa(dp313
Vparsetree
p314
V(ROOT (SBARQ (SBAR (IN If) (FRAG (NP-TMP (NP (DT each) (NN meal) (NN cost)) (NP (CD 3) (NNS dollars))))) (, ,) (WHADVP (WRB how) (JJ much)) (SQ (VBD was) (NP (DT the) (NN bill))) (. ?)))
p315
sVtext
p316
VIf each meal cost 3 dollars , how much was the bill ?
p317
sVdependencies
p318
(lp319
(lp320
Vroot
p321
aVROOT
p322
aVwas
p323
aa(lp324
Vmark
p325
aVcost
p326
aVIf
p327
aa(lp328
Vdet
p329
aVcost
p330
aVeach
p331
aa(lp332
Vnn
p333
aVcost
p334
aVmeal
p335
aa(lp336
Vadvcl
p337
aVwas
p338
aVcost
p339
aa(lp340
Vnum
p341
aVdollars
p342
ag66
aa(lp343
Vdep
p344
aVcost
p345
aVdollars
p346
aa(lp347
Vadvmod
p348
aVmuch
p349
aVhow
p350
aa(lp351
Vadvmod
p352
aVwas
p353
aVmuch
p354
aa(lp355
Vdet
p356
aVbill
p357
aVthe
p358
aa(lp359
Vnsubj
p360
aVwas
p361
aVbill
p362
aasVwords
p363
(lp364
(lp365
VIf
p366
a(dp367
VNamedEntityTag
p368
g64
sVCharacterOffsetEnd
p369
V79
p370
sVCharacterOffsetBegin
p371
V77
p372
sVPartOfSpeech
p373
VIN
p374
sVLemma
p375
Vif
p376
saa(lp377
Veach
p378
a(dp379
VNamedEntityTag
p380
g64
sVCharacterOffsetEnd
p381
V84
p382
sVCharacterOffsetBegin
p383
V80
p384
sVPartOfSpeech
p385
VDT
p386
sVLemma
p387
Veach
p388
saa(lp389
Vmeal
p390
a(dp391
VNamedEntityTag
p392
g64
sVCharacterOffsetEnd
p393
V89
p394
sVCharacterOffsetBegin
p395
V85
p396
sVPartOfSpeech
p397
VNN
p398
sVLemma
p399
Vmeal
p400
saa(lp401
Vcost
p402
a(dp403
VNamedEntityTag
p404
g64
sVCharacterOffsetEnd
p405
V94
p406
sVCharacterOffsetBegin
p407
V90
p408
sVPartOfSpeech
p409
VNN
p410
sVLemma
p411
Vcost
p412
saa(lp413
g66
a(dp414
VNormalizedNamedEntityTag
p415
V$3.0
p416
sVLemma
p417
g66
sVCharacterOffsetEnd
p418
V96
p419
sVPartOfSpeech
p420
VCD
p421
sVCharacterOffsetBegin
p422
V95
p423
sVNamedEntityTag
p424
VMONEY
p425
saa(lp426
Vdollars
p427
a(dp428
VNormalizedNamedEntityTag
p429
V$3.0
p430
sVLemma
p431
Vdollar
p432
sVCharacterOffsetEnd
p433
V104
p434
sVPartOfSpeech
p435
VNNS
p436
sVCharacterOffsetBegin
p437
V97
p438
sVNamedEntityTag
p439
VMONEY
p440
saa(lp441
V,
p442
a(dp443
VNamedEntityTag
p444
g64
sVCharacterOffsetEnd
p445
V106
p446
sVCharacterOffsetBegin
p447
V105
p448
sVPartOfSpeech
p449
g442
sVLemma
p450
g442
saa(lp451
Vhow
p452
a(dp453
VNamedEntityTag
p454
g64
sVCharacterOffsetEnd
p455
V110
p456
sVCharacterOffsetBegin
p457
V107
p458
sVPartOfSpeech
p459
VWRB
p460
sVLemma
p461
Vhow
p462
saa(lp463
Vmuch
p464
a(dp465
VNamedEntityTag
p466
g64
sVCharacterOffsetEnd
p467
V115
p468
sVCharacterOffsetBegin
p469
V111
p470
sVPartOfSpeech
p471
VJJ
p472
sVLemma
p473
Vmuch
p474
saa(lp475
Vwas
p476
a(dp477
VNamedEntityTag
p478
g64
sVCharacterOffsetEnd
p479
V119
p480
sVCharacterOffsetBegin
p481
V116
p482
sVPartOfSpeech
p483
VVBD
p484
sVLemma
p485
Vbe
p486
saa(lp487
Vthe
p488
a(dp489
VNamedEntityTag
p490
g64
sVCharacterOffsetEnd
p491
V123
p492
sVCharacterOffsetBegin
p493
V120
p494
sVPartOfSpeech
p495
VDT
p496
sVLemma
p497
Vthe
p498
saa(lp499
Vbill
p500
a(dp501
VNamedEntityTag
p502
g64
sVCharacterOffsetEnd
p503
V128
p504
sVCharacterOffsetBegin
p505
V124
p506
sVPartOfSpeech
p507
VNN
p508
sVLemma
p509
Vbill
p510
saa(lp511
V?
p512
a(dp513
VNamedEntityTag
p514
g64
sVCharacterOffsetEnd
p515
V130
p516
sVCharacterOffsetBegin
p517
V129
p518
sVPartOfSpeech
p519
g254
sVLemma
p520
g512
saasVindexeddependencies
p521
(lp522
(lp523
Vroot
p524
aVROOT-0
p525
aVwas-10
p526
aa(lp527
Vmark
p528
aVcost-4
p529
aVIf-1
p530
aa(lp531
Vdet
p532
aVcost-4
p533
aVeach-2
p534
aa(lp535
Vnn
p536
aVcost-4
p537
aVmeal-3
p538
aa(lp539
Vadvcl
p540
aVwas-10
p541
aVcost-4
p542
aa(lp543
Vnum
p544
aVdollars-6
p545
aV3-5
p546
aa(lp547
Vdep
p548
aVcost-4
p549
aVdollars-6
p550
aa(lp551
Vadvmod
p552
aVmuch-9
p553
aVhow-8
p554
aa(lp555
Vadvmod
p556
aVwas-10
p557
aVmuch-9
p558
aa(lp559
Vdet
p560
aVbill-12
p561
aVthe-11
p562
aa(lp563
Vnsubj
p564
aVwas-10
p565
aVbill-12
p566
aasas.