(dp0
Vcoref
p1
(lp2
(lp3
(lp4
(lp5
VMaki
p6
aI0
aI4
aI4
aI5
aa(lp7
VMaki 's
p8
aI2
aI7
aI7
aI9
aaaa(lp9
(lp10
(lp11
Vshe
p12
aI1
aI1
aI1
aI2
aa(lp13
VA while back , Maki paid a car insurance premium of $ 4,550 per year
p14
aI0
aI0
aI0
aI15
aaaasVsentences
p15
(lp16
(dp17
Vparsetree
p18
V(ROOT (S (VP (NP (DT A) (S (ADVP (IN while) (RB back)) (, ,) (NP (NNP Maki)) (VP (VBD paid) (NP (NP (DT a) (NN car) (NN insurance) (NN premium)) (PP (IN of) (NP (NP ($ $) (CD 4,550)) (PP (IN per) (NP (NN year)))))))))) (. .)))
p19
sVtext
p20
VA while back , Maki paid a car insurance premium of $4,550 per year .
p21
sVdependencies
p22
(lp23
(lp24
Vroot
p25
aVROOT
p26
aVA
p27
aa(lp28
Vadvmod
p29
aVpaid
p30
aVwhile
p31
aa(lp32
Vadvmod
p33
aVwhile
p34
aVback
p35
aa(lp36
Vnsubj
p37
aVpaid
p38
aVMaki
p39
aa(lp40
Vdep
p41
ag27
aVpaid
p42
aa(lp43
Vdet
p44
aVpremium
p45
aVa
p46
aa(lp47
Vnn
p48
aVpremium
p49
aVcar
p50
aa(lp51
Vnn
p52
aVpremium
p53
aVinsurance
p54
aa(lp55
Vdobj
p56
aVpaid
p57
aVpremium
p58
aa(lp59
Vprep_of
p60
aVpremium
p61
aV$
p62
aa(lp63
Vnum
p64
ag62
aV4,550
p65
aa(lp66
Vprep_per
p67
ag62
aVyear
p68
aasVwords
p69
(lp70
(lp71
g27
a(dp72
VNamedEntityTag
p73
VO
p74
sVCharacterOffsetEnd
p75
V2
p76
sVCharacterOffsetBegin
p77
V1
p78
sVPartOfSpeech
p79
VDT
p80
sVLemma
p81
g46
saa(lp82
Vwhile
p83
a(dp84
VNamedEntityTag
p85
g74
sVCharacterOffsetEnd
p86
V8
p87
sVCharacterOffsetBegin
p88
V3
p89
sVPartOfSpeech
p90
VIN
p91
sVLemma
p92
Vwhile
p93
saa(lp94
Vback
p95
a(dp96
VNamedEntityTag
p97
g74
sVCharacterOffsetEnd
p98
V13
p99
sVCharacterOffsetBegin
p100
V9
p101
sVPartOfSpeech
p102
VRB
p103
sVLemma
p104
Vback
p105
saa(lp106
V,
p107
a(dp108
VNamedEntityTag
p109
g74
sVCharacterOffsetEnd
p110
V15
p111
sVCharacterOffsetBegin
p112
V14
p113
sVPartOfSpeech
p114
g107
sVLemma
p115
g107
saa(lp116
VMaki
p117
a(dp118
VNamedEntityTag
p119
VPERSON
p120
sVCharacterOffsetEnd
p121
V20
p122
sVCharacterOffsetBegin
p123
V16
p124
sVPartOfSpeech
p125
VNNP
p126
sVLemma
p127
VMaki
p128
saa(lp129
Vpaid
p130
a(dp131
VNamedEntityTag
p132
g74
sVCharacterOffsetEnd
p133
V25
p134
sVCharacterOffsetBegin
p135
V21
p136
sVPartOfSpeech
p137
VVBD
p138
sVLemma
p139
Vpay
p140
saa(lp141
g46
a(dp142
VNamedEntityTag
p143
g74
sVCharacterOffsetEnd
p144
V27
p145
sVCharacterOffsetBegin
p146
V26
p147
sVPartOfSpeech
p148
VDT
p149
sVLemma
p150
g46
saa(lp151
Vcar
p152
a(dp153
VNamedEntityTag
p154
g74
sVCharacterOffsetEnd
p155
V31
p156
sVCharacterOffsetBegin
p157
V28
p158
sVPartOfSpeech
p159
VNN
p160
sVLemma
p161
Vcar
p162
saa(lp163
Vinsurance
p164
a(dp165
VNamedEntityTag
p166
g74
sVCharacterOffsetEnd
p167
V41
p168
sVCharacterOffsetBegin
p169
V32
p170
sVPartOfSpeech
p171
VNN
p172
sVLemma
p173
Vinsurance
p174
saa(lp175
Vpremium
p176
a(dp177
VNamedEntityTag
p178
g74
sVCharacterOffsetEnd
p179
V49
p180
sVCharacterOffsetBegin
p181
V42
p182
sVPartOfSpeech
p183
VNN
p184
sVLemma
p185
Vpremium
p186
saa(lp187
Vof
p188
a(dp189
VNamedEntityTag
p190
g74
sVCharacterOffsetEnd
p191
V52
p192
sVCharacterOffsetBegin
p193
V50
p194
sVPartOfSpeech
p195
VIN
p196
sVLemma
p197
Vof
p198
saa(lp199
g62
a(dp200
VNormalizedNamedEntityTag
p201
V$4550.0
p202
sVLemma
p203
g62
sVCharacterOffsetEnd
p204
V54
p205
sVPartOfSpeech
p206
g62
sVCharacterOffsetBegin
p207
V53
p208
sVNamedEntityTag
p209
VMONEY
p210
saa(lp211
V4,550
p212
a(dp213
VNormalizedNamedEntityTag
p214
V$4550.0
p215
sVLemma
p216
V4,550
p217
sVCharacterOffsetEnd
p218
V59
p219
sVPartOfSpeech
p220
VCD
p221
sVCharacterOffsetBegin
p222
V54
p223
sVNamedEntityTag
p224
VMONEY
p225
saa(lp226
Vper
p227
a(dp228
VNamedEntityTag
p229
g74
sVCharacterOffsetEnd
p230
V63
p231
sVCharacterOffsetBegin
p232
V60
p233
sVPartOfSpeech
p234
VIN
p235
sVLemma
p236
Vper
p237
saa(lp238
Vyear
p239
a(dp240
VNormalizedNamedEntityTag
p241
VP1Y
p242
sVTimex
p243
V<TIMEX3 tid="t1" type="DURATION" value="P1Y">year</TIMEX3>
p244
sVLemma
p245
Vyear
p246
sVCharacterOffsetEnd
p247
V68
p248
sVPartOfSpeech
p249
VNN
p250
sVCharacterOffsetBegin
p251
V64
p252
sVNamedEntityTag
p253
VDURATION
p254
saa(lp255
V.
p256
a(dp257
VNamedEntityTag
p258
g74
sVCharacterOffsetEnd
p259
V70
p260
sVCharacterOffsetBegin
p261
V69
p262
sVPartOfSpeech
p263
g256
sVLemma
p264
g256
saasVindexeddependencies
p265
(lp266
(lp267
Vroot
p268
aVROOT-0
p269
aVA-1
p270
aa(lp271
Vadvmod
p272
aVpaid-6
p273
aVwhile-2
p274
aa(lp275
Vadvmod
p276
aVwhile-2
p277
aVback-3
p278
aa(lp279
Vnsubj
p280
aVpaid-6
p281
aVMaki-5
p282
aa(lp283
Vdep
p284
aVA-1
p285
aVpaid-6
p286
aa(lp287
Vdet
p288
aVpremium-10
p289
aVa-7
p290
aa(lp291
Vnn
p292
aVpremium-10
p293
aVcar-8
p294
aa(lp295
Vnn
p296
aVpremium-10
p297
aVinsurance-9
p298
aa(lp299
Vdobj
p300
aVpaid-6
p301
aVpremium-10
p302
aa(lp303
Vprep_of
p304
aVpremium-10
p305
aV$-12
p306
aa(lp307
Vnum
p308
aV$-12
p309
aV4,550-13
p310
aa(lp311
Vprep_per
p312
aV$-12
p313
aVyear-15
p314
aasa(dp315
Vparsetree
p316
V(ROOT (S (ADVP (RB Now)) (NP (PRP she)) (VP (VBZ pays) (NP ($ $) (CD 3,731))) (. .)))
p317
sVtext
p318
VNow she pays $3,731 .
p319
sVdependencies
p320
(lp321
(lp322
Vroot
p323
aVROOT
p324
aVpays
p325
aa(lp326
Vadvmod
p327
aVpays
p328
aVNow
p329
aa(lp330
Vnsubj
p331
aVpays
p332
aVshe
p333
aa(lp334
Vdobj
p335
aVpays
p336
ag62
aa(lp337
Vnum
p338
ag62
aV3,731
p339
aasVwords
p340
(lp341
(lp342
VNow
p343
a(dp344
VNormalizedNamedEntityTag
p345
VPRESENT_REF
p346
sVTimex
p347
V<TIMEX3 tid="t2" type="DATE" value="PRESENT_REF">Now</TIMEX3>
p348
sVLemma
p349
Vnow
p350
sVCharacterOffsetEnd
p351
V74
p352
sVPartOfSpeech
p353
VRB
p354
sVCharacterOffsetBegin
p355
V71
p356
sVNamedEntityTag
p357
VDATE
p358
saa(lp359
Vshe
p360
a(dp361
VNamedEntityTag
p362
g74
sVCharacterOffsetEnd
p363
V78
p364
sVCharacterOffsetBegin
p365
V75
p366
sVPartOfSpeech
p367
VPRP
p368
sVLemma
p369
Vshe
p370
saa(lp371
Vpays
p372
a(dp373
VNamedEntityTag
p374
g74
sVCharacterOffsetEnd
p375
V83
p376
sVCharacterOffsetBegin
p377
V79
p378
sVPartOfSpeech
p379
VVBZ
p380
sVLemma
p381
Vpay
p382
saa(lp383
g62
a(dp384
VNormalizedNamedEntityTag
p385
V$3731.0
p386
sVLemma
p387
g62
sVCharacterOffsetEnd
p388
V85
p389
sVPartOfSpeech
p390
g62
sVCharacterOffsetBegin
p391
V84
p392
sVNamedEntityTag
p393
VMONEY
p394
saa(lp395
V3,731
p396
a(dp397
VNormalizedNamedEntityTag
p398
V$3731.0
p399
sVLemma
p400
V3,731
p401
sVCharacterOffsetEnd
p402
V90
p403
sVPartOfSpeech
p404
VCD
p405
sVCharacterOffsetBegin
p406
V85
p407
sVNamedEntityTag
p408
VMONEY
p409
saa(lp410
g256
a(dp411
VNamedEntityTag
p412
g74
sVCharacterOffsetEnd
p413
V92
p414
sVCharacterOffsetBegin
p415
V91
p416
sVPartOfSpeech
p417
g256
sVLemma
p418
g256
saasVindexeddependencies
p419
(lp420
(lp421
Vroot
p422
aVROOT-0
p423
aVpays-3
p424
aa(lp425
Vadvmod
p426
aVpays-3
p427
aVNow-1
p428
aa(lp429
Vnsubj
p430
aVpays-3
p431
aVshe-2
p432
aa(lp433
Vdobj
p434
aVpays-3
p435
aV$-4
p436
aa(lp437
Vnum
p438
aV$-4
p439
aV3,731-5
p440
aasa(dp441
Vparsetree
p442
V(ROOT (SBARQ (WHNP (WP What)) (SQ (VBZ is) (NP (NP (DT the) (NNS times)) (PP (IN of) (NP (NP (NN decrease)) (PP (IN in) (NP (NP (NNP Maki) (POS 's)) (NN car) (NN insurance) (NN premium))))))) (. ?)))
p443
sVtext
p444
VWhat is the times of decrease in Maki's car insurance premium ?
p445
sVdependencies
p446
(lp447
(lp448
Vroot
p449
aVROOT
p450
aVWhat
p451
aa(lp452
Vcop
p453
aVWhat
p454
aVis
p455
aa(lp456
Vdet
p457
aVtimes
p458
aVthe
p459
aa(lp460
Vnsubj
p461
aVWhat
p462
aVtimes
p463
aa(lp464
Vprep_of
p465
aVtimes
p466
aVdecrease
p467
aa(lp468
Vposs
p469
aVpremium
p470
aVMaki
p471
aa(lp472
Vnn
p473
aVpremium
p474
aVcar
p475
aa(lp476
Vnn
p477
aVpremium
p478
aVinsurance
p479
aa(lp480
Vprep_in
p481
aVdecrease
p482
aVpremium
p483
aasVwords
p484
(lp485
(lp486
VWhat
p487
a(dp488
VNamedEntityTag
p489
g74
sVCharacterOffsetEnd
p490
V97
p491
sVCharacterOffsetBegin
p492
V93
p493
sVPartOfSpeech
p494
VWP
p495
sVLemma
p496
Vwhat
p497
saa(lp498
Vis
p499
a(dp500
VNamedEntityTag
p501
g74
sVCharacterOffsetEnd
p502
V100
p503
sVCharacterOffsetBegin
p504
V98
p505
sVPartOfSpeech
p506
VVBZ
p507
sVLemma
p508
Vbe
p509
saa(lp510
Vthe
p511
a(dp512
VNamedEntityTag
p513
g74
sVCharacterOffsetEnd
p514
V104
p515
sVCharacterOffsetBegin
p516
V101
p517
sVPartOfSpeech
p518
VDT
p519
sVLemma
p520
Vthe
p521
saa(lp522
Vtimes
p523
a(dp524
VNamedEntityTag
p525
g74
sVCharacterOffsetEnd
p526
V110
p527
sVCharacterOffsetBegin
p528
V105
p529
sVPartOfSpeech
p530
VNNS
p531
sVLemma
p532
Vtime
p533
saa(lp534
Vof
p535
a(dp536
VNamedEntityTag
p537
g74
sVCharacterOffsetEnd
p538
V113
p539
sVCharacterOffsetBegin
p540
V111
p541
sVPartOfSpeech
p542
VIN
p543
sVLemma
p544
Vof
p545
saa(lp546
Vdecrease
p547
a(dp548
VNamedEntityTag
p549
g74
sVCharacterOffsetEnd
p550
V122
p551
sVCharacterOffsetBegin
p552
V114
p553
sVPartOfSpeech
p554
VNN
p555
sVLemma
p556
Vdecrease
p557
saa(lp558
Vin
p559
a(dp560
VNamedEntityTag
p561
g74
sVCharacterOffsetEnd
p562
V125
p563
sVCharacterOffsetBegin
p564
V123
p565
sVPartOfSpeech
p566
VIN
p567
sVLemma
p568
Vin
p569
saa(lp570
VMaki
p571
a(dp572
VNamedEntityTag
p573
VLOCATION
p574
sVCharacterOffsetEnd
p575
V130
p576
sVCharacterOffsetBegin
p577
V126
p578
sVPartOfSpeech
p579
VNNP
p580
sVLemma
p581
VMaki
p582
saa(lp583
V's
p584
a(dp585
VNamedEntityTag
p586
g74
sVCharacterOffsetEnd
p587
V132
p588
sVCharacterOffsetBegin
p589
V130
p590
sVPartOfSpeech
p591
VPOS
p592
sVLemma
p593
V's
p594
saa(lp595
Vcar
p596
a(dp597
VNamedEntityTag
p598
g74
sVCharacterOffsetEnd
p599
V136
p600
sVCharacterOffsetBegin
p601
V133
p602
sVPartOfSpeech
p603
VNN
p604
sVLemma
p605
Vcar
p606
saa(lp607
Vinsurance
p608
a(dp609
VNamedEntityTag
p610
g74
sVCharacterOffsetEnd
p611
V146
p612
sVCharacterOffsetBegin
p613
V137
p614
sVPartOfSpeech
p615
VNN
p616
sVLemma
p617
Vinsurance
p618
saa(lp619
Vpremium
p620
a(dp621
VNamedEntityTag
p622
g74
sVCharacterOffsetEnd
p623
V154
p624
sVCharacterOffsetBegin
p625
V147
p626
sVPartOfSpeech
p627
VNN
p628
sVLemma
p629
Vpremium
p630
saa(lp631
V?
p632
a(dp633
VNamedEntityTag
p634
g74
sVCharacterOffsetEnd
p635
V156
p636
sVCharacterOffsetBegin
p637
V155
p638
sVPartOfSpeech
p639
g256
sVLemma
p640
g632
saasVindexeddependencies
p641
(lp642
(lp643
Vroot
p644
aVROOT-0
p645
aVWhat-1
p646
aa(lp647
Vcop
p648
aVWhat-1
p649
aVis-2
p650
aa(lp651
Vdet
p652
aVtimes-4
p653
aVthe-3
p654
aa(lp655
Vnsubj
p656
aVWhat-1
p657
aVtimes-4
p658
aa(lp659
Vprep_of
p660
aVtimes-4
p661
aVdecrease-6
p662
aa(lp663
Vposs
p664
aVpremium-12
p665
aVMaki-8
p666
aa(lp667
Vnn
p668
aVpremium-12
p669
aVcar-10
p670
aa(lp671
Vnn
p672
aVpremium-12
p673
aVinsurance-11
p674
aa(lp675
Vprep_in
p676
aVdecrease-6
p677
aVpremium-12
p678
aasas.