(dp0
Vcoref
p1
(lp2
(lp3
(lp4
(lp5
Vhis
p6
aI1
aI10
aI10
aI11
aa(lp7
VAdam
p8
aI0
aI6
aI6
aI7
aaaa(lp9
(lp10
(lp11
V5
p12
aI0
aI16
aI16
aI17
aa(lp13
g12
aI0
aI8
aI8
aI9
aaa(lp14
(lp15
g12
aI1
aI5
aI5
aI6
aa(lp16
g12
aI0
aI8
aI8
aI9
aaaa(lp17
(lp18
(lp19
V5 questions
p20
aI0
aI17
aI16
aI18
aa(lp21
V5 questions
p22
aI0
aI9
aI8
aI10
aaaasVsentences
p23
(lp24
(dp25
Vparsetree
p26
V(ROOT (S (SBAR (IN While) (S (VP (VBG playing) (NP (DT a) (NNS trivia) (NN game))))) (, ,) (NP (NNP Adam)) (VP (VBD answered) (ADJP (ADJP (ADJP (NP (CD 5) (NNS questions)) (JJ correct)) (PP (IN in) (NP (DT the) (JJ first) (NN half)))) (CC and) (ADJP (NP (CD 5) (NNS questions)) (JJ correct))) (PP (IN in) (NP (DT the) (JJ second) (NN half)))) (. .)))
p27
sVtext
p28
VWhile playing a trivia game , Adam answered 5 questions correct in the first half and 5 questions correct in the second half .
p29
sVdependencies
p30
(lp31
(lp32
Vroot
p33
aVROOT
p34
aVanswered
p35
aa(lp36
Vmark
p37
aVplaying
p38
aVWhile
p39
aa(lp40
Vadvcl
p41
aVanswered
p42
aVplaying
p43
aa(lp44
Vdet
p45
aVgame
p46
aVa
p47
aa(lp48
Vnn
p49
aVgame
p50
aVtrivia
p51
aa(lp52
Vdobj
p53
aVplaying
p54
aVgame
p55
aa(lp56
Vnsubj
p57
aVanswered
p58
aVAdam
p59
aa(lp60
Vnum
p61
aVquestions
p62
ag12
aa(lp63
Vnpadvmod
p64
aVcorrect
p65
aVquestions
p66
aa(lp67
Vacomp
p68
aVanswered
p69
aVcorrect
p70
aa(lp71
Vdet
p72
aVhalf
p73
aVthe
p74
aa(lp75
Vamod
p76
aVhalf
p77
aVfirst
p78
aa(lp79
Vprep_in
p80
aVcorrect
p81
aVhalf
p82
aa(lp83
Vnum
p84
aVquestions
p85
ag12
aa(lp86
Vnpadvmod
p87
aVcorrect
p88
aVquestions
p89
aa(lp90
Vconj_and
p91
aVcorrect
p92
aVcorrect
p93
aa(lp94
Vdet
p95
aVhalf
p96
aVthe
p97
aa(lp98
Vamod
p99
aVhalf
p100
aVsecond
p101
aa(lp102
Vprep_in
p103
aVanswered
p104
aVhalf
p105
aasVwords
p106
(lp107
(lp108
VWhile
p109
a(dp110
VNamedEntityTag
p111
VO
p112
sVCharacterOffsetEnd
p113
V6
p114
sVCharacterOffsetBegin
p115
V1
p116
sVPartOfSpeech
p117
VIN
p118
sVLemma
p119
Vwhile
p120
saa(lp121
Vplaying
p122
a(dp123
VNamedEntityTag
p124
g112
sVCharacterOffsetEnd
p125
V14
p126
sVCharacterOffsetBegin
p127
V7
p128
sVPartOfSpeech
p129
VVBG
p130
sVLemma
p131
Vplay
p132
saa(lp133
g47
a(dp134
VNamedEntityTag
p135
g112
sVCharacterOffsetEnd
p136
V16
p137
sVCharacterOffsetBegin
p138
V15
p139
sVPartOfSpeech
p140
VDT
p141
sVLemma
p142
g47
saa(lp143
Vtrivia
p144
a(dp145
VNamedEntityTag
p146
g112
sVCharacterOffsetEnd
p147
V23
p148
sVCharacterOffsetBegin
p149
V17
p150
sVPartOfSpeech
p151
VNNS
p152
sVLemma
p153
Vtrivia
p154
saa(lp155
Vgame
p156
a(dp157
VNamedEntityTag
p158
g112
sVCharacterOffsetEnd
p159
V28
p160
sVCharacterOffsetBegin
p161
V24
p162
sVPartOfSpeech
p163
VNN
p164
sVLemma
p165
Vgame
p166
saa(lp167
V,
p168
a(dp169
VNamedEntityTag
p170
g112
sVCharacterOffsetEnd
p171
V30
p172
sVCharacterOffsetBegin
p173
V29
p174
sVPartOfSpeech
p175
g168
sVLemma
p176
g168
saa(lp177
VAdam
p178
a(dp179
VNamedEntityTag
p180
VPERSON
p181
sVCharacterOffsetEnd
p182
V35
p183
sVCharacterOffsetBegin
p184
V31
p185
sVPartOfSpeech
p186
VNNP
p187
sVLemma
p188
VAdam
p189
saa(lp190
Vanswered
p191
a(dp192
VNamedEntityTag
p193
g112
sVCharacterOffsetEnd
p194
V44
p195
sVCharacterOffsetBegin
p196
V36
p197
sVPartOfSpeech
p198
VVBD
p199
sVLemma
p200
Vanswer
p201
saa(lp202
g12
a(dp203
VNormalizedNamedEntityTag
p204
V5.0
p205
sVLemma
p206
g12
sVCharacterOffsetEnd
p207
V46
p208
sVPartOfSpeech
p209
VCD
p210
sVCharacterOffsetBegin
p211
V45
p212
sVNamedEntityTag
p213
VNUMBER
p214
saa(lp215
Vquestions
p216
a(dp217
VNamedEntityTag
p218
g112
sVCharacterOffsetEnd
p219
V56
p220
sVCharacterOffsetBegin
p221
V47
p222
sVPartOfSpeech
p223
VNNS
p224
sVLemma
p225
Vquestion
p226
saa(lp227
Vcorrect
p228
a(dp229
VNamedEntityTag
p230
g112
sVCharacterOffsetEnd
p231
V64
p232
sVCharacterOffsetBegin
p233
V57
p234
sVPartOfSpeech
p235
VJJ
p236
sVLemma
p237
Vcorrect
p238
saa(lp239
Vin
p240
a(dp241
VNamedEntityTag
p242
g112
sVCharacterOffsetEnd
p243
V67
p244
sVCharacterOffsetBegin
p245
V65
p246
sVPartOfSpeech
p247
VIN
p248
sVLemma
p249
Vin
p250
saa(lp251
Vthe
p252
a(dp253
VNamedEntityTag
p254
g112
sVCharacterOffsetEnd
p255
V71
p256
sVCharacterOffsetBegin
p257
V68
p258
sVPartOfSpeech
p259
VDT
p260
sVLemma
p261
Vthe
p262
saa(lp263
Vfirst
p264
a(dp265
VNormalizedNamedEntityTag
p266
V1.0
p267
sVLemma
p268
Vfirst
p269
sVCharacterOffsetEnd
p270
V77
p271
sVPartOfSpeech
p272
VJJ
p273
sVCharacterOffsetBegin
p274
V72
p275
sVNamedEntityTag
p276
VORDINAL
p277
saa(lp278
Vhalf
p279
a(dp280
VNamedEntityTag
p281
g112
sVCharacterOffsetEnd
p282
V82
p283
sVCharacterOffsetBegin
p284
V78
p285
sVPartOfSpeech
p286
VNN
p287
sVLemma
p288
Vhalf
p289
saa(lp290
Vand
p291
a(dp292
VNamedEntityTag
p293
g112
sVCharacterOffsetEnd
p294
V86
p295
sVCharacterOffsetBegin
p296
V83
p297
sVPartOfSpeech
p298
VCC
p299
sVLemma
p300
Vand
p301
saa(lp302
g12
a(dp303
VNormalizedNamedEntityTag
p304
V5.0
p305
sVLemma
p306
g12
sVCharacterOffsetEnd
p307
V88
p308
sVPartOfSpeech
p309
VCD
p310
sVCharacterOffsetBegin
p311
V87
p312
sVNamedEntityTag
p313
VNUMBER
p314
saa(lp315
Vquestions
p316
a(dp317
VNamedEntityTag
p318
g112
sVCharacterOffsetEnd
p319
V98
p320
sVCharacterOffsetBegin
p321
V89
p322
sVPartOfSpeech
p323
VNNS
p324
sVLemma
p325
Vquestion
p326
saa(lp327
Vcorrect
p328
a(dp329
VNamedEntityTag
p330
g112
sVCharacterOffsetEnd
p331
V106
p332
sVCharacterOffsetBegin
p333
V99
p334
sVPartOfSpeech
p335
VJJ
p336
sVLemma
p337
Vcorrect
p338
saa(lp339
Vin
p340
a(dp341
VNamedEntityTag
p342
g112
sVCharacterOffsetEnd
p343
V109
p344
sVCharacterOffsetBegin
p345
V107
p346
sVPartOfSpeech
p347
VIN
p348
sVLemma
p349
Vin
p350
saa(lp351
Vthe
p352
a(dp353
VNamedEntityTag
p354
g112
sVCharacterOffsetEnd
p355
V113
p356
sVCharacterOffsetBegin
p357
V110
p358
sVPartOfSpeech
p359
VDT
p360
sVLemma
p361
Vthe
p362
saa(lp363
Vsecond
p364
a(dp365
VNormalizedNamedEntityTag
p366
V******02
p367
sVLemma
p368
Vsecond
p369
sVCharacterOffsetEnd
p370
V120
p371
sVPartOfSpeech
p372
VJJ
p373
sVCharacterOffsetBegin
p374
V114
p375
sVNamedEntityTag
p376
VDATE
p377
saa(lp378
Vhalf
p379
a(dp380
VNormalizedNamedEntityTag
p381
V******02
p382
sVLemma
p383
Vhalf
p384
sVCharacterOffsetEnd
p385
V125
p386
sVPartOfSpeech
p387
VNN
p388
sVCharacterOffsetBegin
p389
V121
p390
sVNamedEntityTag
p391
VDATE
p392
saa(lp393
V.
p394
a(dp395
VNamedEntityTag
p396
g112
sVCharacterOffsetEnd
p397
V127
p398
sVCharacterOffsetBegin
p399
V126
p400
sVPartOfSpeech
p401
g394
sVLemma
p402
g394
saasVindexeddependencies
p403
(lp404
(lp405
Vroot
p406
aVROOT-0
p407
aVanswered-8
p408
aa(lp409
Vmark
p410
aVplaying-2
p411
aVWhile-1
p412
aa(lp413
Vadvcl
p414
aVanswered-8
p415
aVplaying-2
p416
aa(lp417
Vdet
p418
aVgame-5
p419
aVa-3
p420
aa(lp421
Vnn
p422
aVgame-5
p423
aVtrivia-4
p424
aa(lp425
Vdobj
p426
aVplaying-2
p427
aVgame-5
p428
aa(lp429
Vnsubj
p430
aVanswered-8
p431
aVAdam-7
p432
aa(lp433
Vnum
p434
aVquestions-10
p435
aV5-9
p436
aa(lp437
Vnpadvmod
p438
aVcorrect-11
p439
aVquestions-10
p440
aa(lp441
Vacomp
p442
aVanswered-8
p443
aVcorrect-11
p444
aa(lp445
Vdet
p446
aVhalf-15
p447
aVthe-13
p448
aa(lp449
Vamod
p450
aVhalf-15
p451
aVfirst-14
p452
aa(lp453
Vprep_in
p454
aVcorrect-11
p455
aVhalf-15
p456
aa(lp457
Vnum
p458
aVquestions-18
p459
aV5-17
p460
aa(lp461
Vnpadvmod
p462
aVcorrect-19
p463
aVquestions-18
p464
aa(lp465
Vconj_and
p466
aVcorrect-11
p467
aVcorrect-19
p468
aa(lp469
Vdet
p470
aVhalf-23
p471
aVthe-21
p472
aa(lp473
Vamod
p474
aVhalf-23
p475
aVsecond-22
p476
aa(lp477
Vprep_in
p478
aVanswered-8
p479
aVhalf-23
p480
aasa(dp481
Vparsetree
p482
V(ROOT (SBARQ (SBAR (IN If) (S (NP (DT each) (NN question)) (VP (VBD was) (ADJP (JJ worth) (NP (CD 5) (NNS points)))))) (, ,) (WHNP (WP what)) (SQ (VBD was) (NP (PRP$ his) (JJ final) (NN score))) (. ?)))
p483
sVtext
p484
VIf each question was worth 5 points , what was his final score ?
p485
sVdependencies
p486
(lp487
(lp488
Vroot
p489
aVROOT
p490
aVwhat
p491
aa(lp492
Vmark
p493
aVworth
p494
aVIf
p495
aa(lp496
Vdet
p497
aVquestion
p498
aVeach
p499
aa(lp500
Vnsubj
p501
aVworth
p502
aVquestion
p503
aa(lp504
Vcop
p505
aVworth
p506
aVwas
p507
aa(lp508
Vdep
p509
aVwhat
p510
aVworth
p511
aa(lp512
Vnum
p513
aVpoints
p514
ag12
aa(lp515
Vdep
p516
aVworth
p517
aVpoints
p518
aa(lp519
Vcop
p520
aVwhat
p521
aVwas
p522
aa(lp523
Vposs
p524
aVscore
p525
aVhis
p526
aa(lp527
Vamod
p528
aVscore
p529
aVfinal
p530
aa(lp531
Vnsubj
p532
aVwhat
p533
aVscore
p534
aasVwords
p535
(lp536
(lp537
VIf
p538
a(dp539
VNamedEntityTag
p540
g112
sVCharacterOffsetEnd
p541
V130
p542
sVCharacterOffsetBegin
p543
V128
p544
sVPartOfSpeech
p545
VIN
p546
sVLemma
p547
Vif
p548
saa(lp549
Veach
p550
a(dp551
VNamedEntityTag
p552
g112
sVCharacterOffsetEnd
p553
V135
p554
sVCharacterOffsetBegin
p555
V131
p556
sVPartOfSpeech
p557
VDT
p558
sVLemma
p559
Veach
p560
saa(lp561
Vquestion
p562
a(dp563
VNamedEntityTag
p564
g112
sVCharacterOffsetEnd
p565
V144
p566
sVCharacterOffsetBegin
p567
V136
p568
sVPartOfSpeech
p569
VNN
p570
sVLemma
p571
Vquestion
p572
saa(lp573
Vwas
p574
a(dp575
VNamedEntityTag
p576
g112
sVCharacterOffsetEnd
p577
V148
p578
sVCharacterOffsetBegin
p579
V145
p580
sVPartOfSpeech
p581
VVBD
p582
sVLemma
p583
Vbe
p584
saa(lp585
Vworth
p586
a(dp587
VNamedEntityTag
p588
g112
sVCharacterOffsetEnd
p589
V154
p590
sVCharacterOffsetBegin
p591
V149
p592
sVPartOfSpeech
p593
VJJ
p594
sVLemma
p595
Vworth
p596
saa(lp597
g12
a(dp598
VNormalizedNamedEntityTag
p599
V5.0
p600
sVLemma
p601
g12
sVCharacterOffsetEnd
p602
V156
p603
sVPartOfSpeech
p604
VCD
p605
sVCharacterOffsetBegin
p606
V155
p607
sVNamedEntityTag
p608
VNUMBER
p609
saa(lp610
Vpoints
p611
a(dp612
VNamedEntityTag
p613
g112
sVCharacterOffsetEnd
p614
V163
p615
sVCharacterOffsetBegin
p616
V157
p617
sVPartOfSpeech
p618
VNNS
p619
sVLemma
p620
Vpoint
p621
saa(lp622
g168
a(dp623
VNamedEntityTag
p624
g112
sVCharacterOffsetEnd
p625
V165
p626
sVCharacterOffsetBegin
p627
V164
p628
sVPartOfSpeech
p629
g168
sVLemma
p630
g168
saa(lp631
Vwhat
p632
a(dp633
VNamedEntityTag
p634
g112
sVCharacterOffsetEnd
p635
V170
p636
sVCharacterOffsetBegin
p637
V166
p638
sVPartOfSpeech
p639
VWP
p640
sVLemma
p641
Vwhat
p642
saa(lp643
Vwas
p644
a(dp645
VNamedEntityTag
p646
g112
sVCharacterOffsetEnd
p647
V174
p648
sVCharacterOffsetBegin
p649
V171
p650
sVPartOfSpeech
p651
VVBD
p652
sVLemma
p653
Vbe
p654
saa(lp655
Vhis
p656
a(dp657
VNamedEntityTag
p658
g112
sVCharacterOffsetEnd
p659
V178
p660
sVCharacterOffsetBegin
p661
V175
p662
sVPartOfSpeech
p663
VPRP$
p664
sVLemma
p665
Vhe
p666
saa(lp667
Vfinal
p668
a(dp669
VNamedEntityTag
p670
g112
sVCharacterOffsetEnd
p671
V184
p672
sVCharacterOffsetBegin
p673
V179
p674
sVPartOfSpeech
p675
VJJ
p676
sVLemma
p677
Vfinal
p678
saa(lp679
Vscore
p680
a(dp681
VNormalizedNamedEntityTag
p682
V20.0
p683
sVLemma
p684
Vscore
p685
sVCharacterOffsetEnd
p686
V190
p687
sVPartOfSpeech
p688
VNN
p689
sVCharacterOffsetBegin
p690
V185
p691
sVNamedEntityTag
p692
VNUMBER
p693
saa(lp694
V?
p695
a(dp696
VNamedEntityTag
p697
g112
sVCharacterOffsetEnd
p698
V192
p699
sVCharacterOffsetBegin
p700
V191
p701
sVPartOfSpeech
p702
g394
sVLemma
p703
g695
saasVindexeddependencies
p704
(lp705
(lp706
Vroot
p707
aVROOT-0
p708
aVwhat-9
p709
aa(lp710
Vmark
p711
aVworth-5
p712
aVIf-1
p713
aa(lp714
Vdet
p715
aVquestion-3
p716
aVeach-2
p717
aa(lp718
Vnsubj
p719
aVworth-5
p720
aVquestion-3
p721
aa(lp722
Vcop
p723
aVworth-5
p724
aVwas-4
p725
aa(lp726
Vdep
p727
aVwhat-9
p728
aVworth-5
p729
aa(lp730
Vnum
p731
aVpoints-7
p732
aV5-6
p733
aa(lp734
Vdep
p735
aVworth-5
p736
aVpoints-7
p737
aa(lp738
Vcop
p739
aVwhat-9
p740
aVwas-10
p741
aa(lp742
Vposs
p743
aVscore-13
p744
aVhis-11
p745
aa(lp746
Vamod
p747
aVscore-13
p748
aVfinal-12
p749
aa(lp750
Vnsubj
p751
aVwhat-9
p752
aVscore-13
p753
aasas.