(dp0
Vcoref
p1
(lp2
(lp3
(lp4
(lp5
VThis time
p6
aI1
aI1
aI0
aI2
aa(lp7
VThe last time it placed an order for ingredients
p8
aI0
aI2
aI0
aI9
aaaa(lp9
(lp10
(lp11
Vthe bakery
p12
aI1
aI4
aI3
aI5
aa(lp13
VBakery ordered 1,640 kilograms of sugar
p14
aI0
aI12
aI12
aI18
aaaasVsentences
p15
(lp16
(dp17
Vparsetree
p18
V(ROOT (S (NP-TMP (NP (DT The) (JJ last) (NN time)) (SBAR (S (NP (PRP it)) (VP (VBD placed) (NP (DT an) (NN order)) (PP (IN for) (NP (NNS ingredients))))))) (, ,) (NP (NNP Sweet)) (VP (VBZ Treats) (NP (NP (NNP Bakery)) (VP (VBN ordered) (NP (NP (CD 1,640) (NNS kilograms)) (PP (IN of) (NP (NN sugar))))))) (. .)))
p19
sVtext
p20
VThe last time it placed an order for ingredients , Sweet Treats Bakery ordered 1,640 kilograms of sugar .
p21
sVdependencies
p22
(lp23
(lp24
Vroot
p25
aVROOT
p26
aVTreats
p27
aa(lp28
Vdet
p29
aVtime
p30
aVThe
p31
aa(lp32
Vamod
p33
aVtime
p34
aVlast
p35
aa(lp36
Vtmod
p37
aVTreats
p38
aVtime
p39
aa(lp40
Vnsubj
p41
aVplaced
p42
aVit
p43
aa(lp44
Vrcmod
p45
aVtime
p46
aVplaced
p47
aa(lp48
Vdet
p49
aVorder
p50
aVan
p51
aa(lp52
Vdobj
p53
aVplaced
p54
aVorder
p55
aa(lp56
Vprep_for
p57
aVplaced
p58
aVingredients
p59
aa(lp60
Vnsubj
p61
aVTreats
p62
aVSweet
p63
aa(lp64
Vdobj
p65
aVTreats
p66
aVBakery
p67
aa(lp68
Vvmod
p69
aVBakery
p70
aVordered
p71
aa(lp72
Vnum
p73
aVkilograms
p74
aV1,640
p75
aa(lp76
Vdobj
p77
aVordered
p78
aVkilograms
p79
aa(lp80
Vprep_of
p81
aVkilograms
p82
aVsugar
p83
aasVwords
p84
(lp85
(lp86
VThe
p87
a(dp88
VNamedEntityTag
p89
VO
p90
sVCharacterOffsetEnd
p91
V4
p92
sVCharacterOffsetBegin
p93
V1
p94
sVPartOfSpeech
p95
VDT
p96
sVLemma
p97
Vthe
p98
saa(lp99
Vlast
p100
a(dp101
VNamedEntityTag
p102
g90
sVCharacterOffsetEnd
p103
V9
p104
sVCharacterOffsetBegin
p105
V5
p106
sVPartOfSpeech
p107
VJJ
p108
sVLemma
p109
Vlast
p110
saa(lp111
Vtime
p112
a(dp113
VNamedEntityTag
p114
g90
sVCharacterOffsetEnd
p115
V14
p116
sVCharacterOffsetBegin
p117
V10
p118
sVPartOfSpeech
p119
VNN
p120
sVLemma
p121
Vtime
p122
saa(lp123
Vit
p124
a(dp125
VNamedEntityTag
p126
g90
sVCharacterOffsetEnd
p127
V17
p128
sVCharacterOffsetBegin
p129
V15
p130
sVPartOfSpeech
p131
VPRP
p132
sVLemma
p133
Vit
p134
saa(lp135
Vplaced
p136
a(dp137
VNamedEntityTag
p138
g90
sVCharacterOffsetEnd
p139
V24
p140
sVCharacterOffsetBegin
p141
V18
p142
sVPartOfSpeech
p143
VVBD
p144
sVLemma
p145
Vplace
p146
saa(lp147
Van
p148
a(dp149
VNamedEntityTag
p150
g90
sVCharacterOffsetEnd
p151
V27
p152
sVCharacterOffsetBegin
p153
V25
p154
sVPartOfSpeech
p155
VDT
p156
sVLemma
p157
Va
p158
saa(lp159
Vorder
p160
a(dp161
VNamedEntityTag
p162
g90
sVCharacterOffsetEnd
p163
V33
p164
sVCharacterOffsetBegin
p165
V28
p166
sVPartOfSpeech
p167
VNN
p168
sVLemma
p169
Vorder
p170
saa(lp171
Vfor
p172
a(dp173
VNamedEntityTag
p174
g90
sVCharacterOffsetEnd
p175
V37
p176
sVCharacterOffsetBegin
p177
V34
p178
sVPartOfSpeech
p179
VIN
p180
sVLemma
p181
Vfor
p182
saa(lp183
Vingredients
p184
a(dp185
VNamedEntityTag
p186
g90
sVCharacterOffsetEnd
p187
V49
p188
sVCharacterOffsetBegin
p189
V38
p190
sVPartOfSpeech
p191
VNNS
p192
sVLemma
p193
Vingredient
p194
saa(lp195
V,
p196
a(dp197
VNamedEntityTag
p198
g90
sVCharacterOffsetEnd
p199
V51
p200
sVCharacterOffsetBegin
p201
V50
p202
sVPartOfSpeech
p203
g196
sVLemma
p204
g196
saa(lp205
VSweet
p206
a(dp207
VNamedEntityTag
p208
g90
sVCharacterOffsetEnd
p209
V57
p210
sVCharacterOffsetBegin
p211
V52
p212
sVPartOfSpeech
p213
VNNP
p214
sVLemma
p215
VSweet
p216
saa(lp217
VTreats
p218
a(dp219
VNamedEntityTag
p220
g90
sVCharacterOffsetEnd
p221
V64
p222
sVCharacterOffsetBegin
p223
V58
p224
sVPartOfSpeech
p225
VVBZ
p226
sVLemma
p227
Vtreat
p228
saa(lp229
VBakery
p230
a(dp231
VNamedEntityTag
p232
g90
sVCharacterOffsetEnd
p233
V71
p234
sVCharacterOffsetBegin
p235
V65
p236
sVPartOfSpeech
p237
VNNP
p238
sVLemma
p239
VBakery
p240
saa(lp241
Vordered
p242
a(dp243
VNamedEntityTag
p244
g90
sVCharacterOffsetEnd
p245
V79
p246
sVCharacterOffsetBegin
p247
V72
p248
sVPartOfSpeech
p249
VVBN
p250
sVLemma
p251
Vorder
p252
saa(lp253
V1,640
p254
a(dp255
VNormalizedNamedEntityTag
p256
V1640.0
p257
sVLemma
p258
V1,640
p259
sVCharacterOffsetEnd
p260
V85
p261
sVPartOfSpeech
p262
VCD
p263
sVCharacterOffsetBegin
p264
V80
p265
sVNamedEntityTag
p266
VNUMBER
p267
saa(lp268
Vkilograms
p269
a(dp270
VNamedEntityTag
p271
g90
sVCharacterOffsetEnd
p272
V95
p273
sVCharacterOffsetBegin
p274
V86
p275
sVPartOfSpeech
p276
VNNS
p277
sVLemma
p278
Vkilogram
p279
saa(lp280
Vof
p281
a(dp282
VNamedEntityTag
p283
g90
sVCharacterOffsetEnd
p284
V98
p285
sVCharacterOffsetBegin
p286
V96
p287
sVPartOfSpeech
p288
VIN
p289
sVLemma
p290
Vof
p291
saa(lp292
Vsugar
p293
a(dp294
VNamedEntityTag
p295
g90
sVCharacterOffsetEnd
p296
V104
p297
sVCharacterOffsetBegin
p298
V99
p299
sVPartOfSpeech
p300
VNN
p301
sVLemma
p302
Vsugar
p303
saa(lp304
V.
p305
a(dp306
VNamedEntityTag
p307
g90
sVCharacterOffsetEnd
p308
V106
p309
sVCharacterOffsetBegin
p310
V105
p311
sVPartOfSpeech
p312
g305
sVLemma
p313
g305
saasVindexeddependencies
p314
(lp315
(lp316
Vroot
p317
aVROOT-0
p318
aVTreats-12
p319
aa(lp320
Vdet
p321
aVtime-3
p322
aVThe-1
p323
aa(lp324
Vamod
p325
aVtime-3
p326
aVlast-2
p327
aa(lp328
Vtmod
p329
aVTreats-12
p330
aVtime-3
p331
aa(lp332
Vnsubj
p333
aVplaced-5
p334
aVit-4
p335
aa(lp336
Vrcmod
p337
aVtime-3
p338
aVplaced-5
p339
aa(lp340
Vdet
p341
aVorder-7
p342
aVan-6
p343
aa(lp344
Vdobj
p345
aVplaced-5
p346
aVorder-7
p347
aa(lp348
Vprep_for
p349
aVplaced-5
p350
aVingredients-9
p351
aa(lp352
Vnsubj
p353
aVTreats-12
p354
aVSweet-11
p355
aa(lp356
Vdobj
p357
aVTreats-12
p358
aVBakery-13
p359
aa(lp360
Vvmod
p361
aVBakery-13
p362
aVordered-14
p363
aa(lp364
Vnum
p365
aVkilograms-16
p366
aV1,640-15
p367
aa(lp368
Vdobj
p369
aVordered-14
p370
aVkilograms-16
p371
aa(lp372
Vprep_of
p373
aVkilograms-16
p374
aVsugar-18
p375
aasa(dp376
Vparsetree
p377
V(ROOT (S (NP-TMP (DT This) (NN time)) (, ,) (NP (DT the) (NN bakery)) (VP (VBZ is) (VP (VBG ordering) (NP (CD 1,394) (NNS kilograms)))) (. .)))
p378
sVtext
p379
VThis time , the bakery is ordering 1,394 kilograms .
p380
sVdependencies
p381
(lp382
(lp383
Vroot
p384
aVROOT
p385
aVordering
p386
aa(lp387
Vdet
p388
aVtime
p389
aVThis
p390
aa(lp391
Vtmod
p392
aVordering
p393
aVtime
p394
aa(lp395
Vdet
p396
aVbakery
p397
aVthe
p398
aa(lp399
Vnsubj
p400
aVordering
p401
aVbakery
p402
aa(lp403
Vaux
p404
aVordering
p405
aVis
p406
aa(lp407
Vnum
p408
aVkilograms
p409
aV1,394
p410
aa(lp411
Vdobj
p412
aVordering
p413
aVkilograms
p414
aasVwords
p415
(lp416
(lp417
VThis
p418
a(dp419
VNamedEntityTag
p420
g90
sVCharacterOffsetEnd
p421
V111
p422
sVCharacterOffsetBegin
p423
V107
p424
sVPartOfSpeech
p425
VDT
p426
sVLemma
p427
Vthis
p428
saa(lp429
Vtime
p430
a(dp431
VNamedEntityTag
p432
g90
sVCharacterOffsetEnd
p433
V116
p434
sVCharacterOffsetBegin
p435
V112
p436
sVPartOfSpeech
p437
VNN
p438
sVLemma
p439
Vtime
p440
saa(lp441
g196
a(dp442
VNamedEntityTag
p443
g90
sVCharacterOffsetEnd
p444
V118
p445
sVCharacterOffsetBegin
p446
V117
p447
sVPartOfSpeech
p448
g196
sVLemma
p449
g196
saa(lp450
Vthe
p451
a(dp452
VNamedEntityTag
p453
g90
sVCharacterOffsetEnd
p454
V122
p455
sVCharacterOffsetBegin
p456
V119
p457
sVPartOfSpeech
p458
VDT
p459
sVLemma
p460
Vthe
p461
saa(lp462
Vbakery
p463
a(dp464
VNamedEntityTag
p465
g90
sVCharacterOffsetEnd
p466
V129
p467
sVCharacterOffsetBegin
p468
V123
p469
sVPartOfSpeech
p470
VNN
p471
sVLemma
p472
Vbakery
p473
saa(lp474
Vis
p475
a(dp476
VNamedEntityTag
p477
g90
sVCharacterOffsetEnd
p478
V132
p479
sVCharacterOffsetBegin
p480
V130
p481
sVPartOfSpeech
p482
VVBZ
p483
sVLemma
p484
Vbe
p485
saa(lp486
Vordering
p487
a(dp488
VNamedEntityTag
p489
g90
sVCharacterOffsetEnd
p490
V141
p491
sVCharacterOffsetBegin
p492
V133
p493
sVPartOfSpeech
p494
VVBG
p495
sVLemma
p496
Vorder
p497
saa(lp498
V1,394
p499
a(dp500
VNormalizedNamedEntityTag
p501
V1394.0
p502
sVLemma
p503
V1,394
p504
sVCharacterOffsetEnd
p505
V147
p506
sVPartOfSpeech
p507
VCD
p508
sVCharacterOffsetBegin
p509
V142
p510
sVNamedEntityTag
p511
VNUMBER
p512
saa(lp513
Vkilograms
p514
a(dp515
VNamedEntityTag
p516
g90
sVCharacterOffsetEnd
p517
V157
p518
sVCharacterOffsetBegin
p519
V148
p520
sVPartOfSpeech
p521
VNNS
p522
sVLemma
p523
Vkilogram
p524
saa(lp525
g305
a(dp526
VNamedEntityTag
p527
g90
sVCharacterOffsetEnd
p528
V159
p529
sVCharacterOffsetBegin
p530
V158
p531
sVPartOfSpeech
p532
g305
sVLemma
p533
g305
saasVindexeddependencies
p534
(lp535
(lp536
Vroot
p537
aVROOT-0
p538
aVordering-7
p539
aa(lp540
Vdet
p541
aVtime-2
p542
aVThis-1
p543
aa(lp544
Vtmod
p545
aVordering-7
p546
aVtime-2
p547
aa(lp548
Vdet
p549
aVbakery-5
p550
aVthe-4
p551
aa(lp552
Vnsubj
p553
aVordering-7
p554
aVbakery-5
p555
aa(lp556
Vaux
p557
aVordering-7
p558
aVis-6
p559
aa(lp560
Vnum
p561
aVkilograms-9
p562
aV1,394-8
p563
aa(lp564
Vdobj
p565
aVordering-7
p566
aVkilograms-9
p567
aasa(dp568
Vparsetree
p569
V(ROOT (SBARQ (WHNP (WP What)) (SQ (VBZ is) (NP (NP (DT the) (NNS times)) (PP (IN of) (NP (NP (NN decrease)) (PP (IN in) (NP (NP (DT the) (NN size)) (PP (IN of) (NP (DT the) (NN sugar) (NN order))))))))) (. ?)))
p570
sVtext
p571
VWhat is the times of decrease in the size of the sugar order ?
p572
sVdependencies
p573
(lp574
(lp575
Vroot
p576
aVROOT
p577
aVWhat
p578
aa(lp579
Vcop
p580
aVWhat
p581
aVis
p582
aa(lp583
Vdet
p584
aVtimes
p585
aVthe
p586
aa(lp587
Vnsubj
p588
aVWhat
p589
aVtimes
p590
aa(lp591
Vprep_of
p592
aVtimes
p593
aVdecrease
p594
aa(lp595
Vdet
p596
aVsize
p597
aVthe
p598
aa(lp599
Vprep_in
p600
aVdecrease
p601
aVsize
p602
aa(lp603
Vdet
p604
aVorder
p605
aVthe
p606
aa(lp607
Vnn
p608
aVorder
p609
aVsugar
p610
aa(lp611
Vprep_of
p612
aVsize
p613
aVorder
p614
aasVwords
p615
(lp616
(lp617
VWhat
p618
a(dp619
VNamedEntityTag
p620
g90
sVCharacterOffsetEnd
p621
V164
p622
sVCharacterOffsetBegin
p623
V160
p624
sVPartOfSpeech
p625
VWP
p626
sVLemma
p627
Vwhat
p628
saa(lp629
Vis
p630
a(dp631
VNamedEntityTag
p632
g90
sVCharacterOffsetEnd
p633
V167
p634
sVCharacterOffsetBegin
p635
V165
p636
sVPartOfSpeech
p637
VVBZ
p638
sVLemma
p639
Vbe
p640
saa(lp641
Vthe
p642
a(dp643
VNamedEntityTag
p644
g90
sVCharacterOffsetEnd
p645
V171
p646
sVCharacterOffsetBegin
p647
V168
p648
sVPartOfSpeech
p649
VDT
p650
sVLemma
p651
Vthe
p652
saa(lp653
Vtimes
p654
a(dp655
VNamedEntityTag
p656
g90
sVCharacterOffsetEnd
p657
V177
p658
sVCharacterOffsetBegin
p659
V172
p660
sVPartOfSpeech
p661
VNNS
p662
sVLemma
p663
Vtime
p664
saa(lp665
Vof
p666
a(dp667
VNamedEntityTag
p668
g90
sVCharacterOffsetEnd
p669
V180
p670
sVCharacterOffsetBegin
p671
V178
p672
sVPartOfSpeech
p673
VIN
p674
sVLemma
p675
Vof
p676
saa(lp677
Vdecrease
p678
a(dp679
VNamedEntityTag
p680
g90
sVCharacterOffsetEnd
p681
V189
p682
sVCharacterOffsetBegin
p683
V181
p684
sVPartOfSpeech
p685
VNN
p686
sVLemma
p687
Vdecrease
p688
saa(lp689
Vin
p690
a(dp691
VNamedEntityTag
p692
g90
sVCharacterOffsetEnd
p693
V192
p694
sVCharacterOffsetBegin
p695
V190
p696
sVPartOfSpeech
p697
VIN
p698
sVLemma
p699
Vin
p700
saa(lp701
Vthe
p702
a(dp703
VNamedEntityTag
p704
g90
sVCharacterOffsetEnd
p705
V196
p706
sVCharacterOffsetBegin
p707
V193
p708
sVPartOfSpeech
p709
VDT
p710
sVLemma
p711
Vthe
p712
saa(lp713
Vsize
p714
a(dp715
VNamedEntityTag
p716
g90
sVCharacterOffsetEnd
p717
V201
p718
sVCharacterOffsetBegin
p719
V197
p720
sVPartOfSpeech
p721
VNN
p722
sVLemma
p723
Vsize
p724
saa(lp725
Vof
p726
a(dp727
VNamedEntityTag
p728
g90
sVCharacterOffsetEnd
p729
V204
p730
sVCharacterOffsetBegin
p731
V202
p732
sVPartOfSpeech
p733
VIN
p734
sVLemma
p735
Vof
p736
saa(lp737
Vthe
p738
a(dp739
VNamedEntityTag
p740
g90
sVCharacterOffsetEnd
p741
V208
p742
sVCharacterOffsetBegin
p743
V205
p744
sVPartOfSpeech
p745
VDT
p746
sVLemma
p747
Vthe
p748
saa(lp749
Vsugar
p750
a(dp751
VNamedEntityTag
p752
g90
sVCharacterOffsetEnd
p753
V214
p754
sVCharacterOffsetBegin
p755
V209
p756
sVPartOfSpeech
p757
VNN
p758
sVLemma
p759
Vsugar
p760
saa(lp761
Vorder
p762
a(dp763
VNamedEntityTag
p764
g90
sVCharacterOffsetEnd
p765
V220
p766
sVCharacterOffsetBegin
p767
V215
p768
sVPartOfSpeech
p769
VNN
p770
sVLemma
p771
Vorder
p772
saa(lp773
V?
p774
a(dp775
VNamedEntityTag
p776
g90
sVCharacterOffsetEnd
p777
V222
p778
sVCharacterOffsetBegin
p779
V221
p780
sVPartOfSpeech
p781
g305
sVLemma
p782
g774
saasVindexeddependencies
p783
(lp784
(lp785
Vroot
p786
aVROOT-0
p787
aVWhat-1
p788
aa(lp789
Vcop
p790
aVWhat-1
p791
aVis-2
p792
aa(lp793
Vdet
p794
aVtimes-4
p795
aVthe-3
p796
aa(lp797
Vnsubj
p798
aVWhat-1
p799
aVtimes-4
p800
aa(lp801
Vprep_of
p802
aVtimes-4
p803
aVdecrease-6
p804
aa(lp805
Vdet
p806
aVsize-9
p807
aVthe-8
p808
aa(lp809
Vprep_in
p810
aVdecrease-6
p811
aVsize-9
p812
aa(lp813
Vdet
p814
aVorder-13
p815
aVthe-11
p816
aa(lp817
Vnn
p818
aVorder-13
p819
aVsugar-12
p820
aa(lp821
Vprep_of
p822
aVsize-9
p823
aVorder-13
p824
aasas.