(dp0
Vcoref
p1
(lp2
(lp3
(lp4
(lp5
Vthe apartments
p6
aI1
aI4
aI3
aI5
aa(lp7
Vthe apartments
p8
aI0
aI9
aI8
aI10
aaaa(lp9
(lp10
(lp11
Vtwo-bedroom apartments
p12
aI1
aI11
aI10
aI12
aa(lp13
Vtwo-bedroom apartments
p14
aI0
aI17
aI16
aI18
aaaasVsentences
p15
(lp16
(dp17
Vparsetree
p18
V(ROOT (S (PP (IN In) (NP (NP (NNP Shannon) (POS 's)) (NN apartment) (NN complex))) (, ,) (S (NP (NP (CD 0.16666666666666666)) (PP (IN of) (NP (DT the) (NNS apartments)))) (VP (VBP are) (NP (JJ one-bedroom) (NNS apartments)))) (CC and) (S (NP (CD 0.3333333333333333)) (VP (VBP are) (NP (JJ two-bedroom) (NNS apartments)))) (. .)))
p19
sVtext
p20
VIn Shannon's apartment complex , 0.16666666666666666 of the apartments are one-bedroom apartments and 0.3333333333333333 are two-bedroom apartments .
p21
sVdependencies
p22
(lp23
(lp24
Vroot
p25
aVROOT
p26
aVapartments
p27
aa(lp28
Vposs
p29
aVcomplex
p30
aVShannon
p31
aa(lp32
Vnn
p33
aVcomplex
p34
aVapartment
p35
aa(lp36
Vprep_in
p37
aVapartments
p38
aVcomplex
p39
aa(lp40
Vnsubj
p41
aVapartments
p42
aV0.16666666666666666
p43
aa(lp44
Vdet
p45
aVapartments
p46
aVthe
p47
aa(lp48
Vprep_of
p49
aV0.16666666666666666
p50
aVapartments
p51
aa(lp52
Vcop
p53
aVapartments
p54
aVare
p55
aa(lp56
Vamod
p57
aVapartments
p58
aVone-bedroom
p59
aa(lp60
Vnsubj
p61
aVapartments
p62
aV0.3333333333333333
p63
aa(lp64
Vcop
p65
aVapartments
p66
aVare
p67
aa(lp68
Vamod
p69
aVapartments
p70
aVtwo-bedroom
p71
aa(lp72
Vconj_and
p73
aVapartments
p74
aVapartments
p75
aasVwords
p76
(lp77
(lp78
VIn
p79
a(dp80
VNamedEntityTag
p81
VO
p82
sVCharacterOffsetEnd
p83
V3
p84
sVCharacterOffsetBegin
p85
V1
p86
sVPartOfSpeech
p87
VIN
p88
sVLemma
p89
Vin
p90
saa(lp91
VShannon
p92
a(dp93
VNamedEntityTag
p94
VPERSON
p95
sVCharacterOffsetEnd
p96
V11
p97
sVCharacterOffsetBegin
p98
V4
p99
sVPartOfSpeech
p100
VNNP
p101
sVLemma
p102
VShannon
p103
saa(lp104
V's
p105
a(dp106
VNamedEntityTag
p107
g82
sVCharacterOffsetEnd
p108
V13
p109
sVCharacterOffsetBegin
p110
V11
p111
sVPartOfSpeech
p112
VPOS
p113
sVLemma
p114
V's
p115
saa(lp116
Vapartment
p117
a(dp118
VNamedEntityTag
p119
g82
sVCharacterOffsetEnd
p120
V23
p121
sVCharacterOffsetBegin
p122
V14
p123
sVPartOfSpeech
p124
VNN
p125
sVLemma
p126
Vapartment
p127
saa(lp128
Vcomplex
p129
a(dp130
VNamedEntityTag
p131
g82
sVCharacterOffsetEnd
p132
V31
p133
sVCharacterOffsetBegin
p134
V24
p135
sVPartOfSpeech
p136
VNN
p137
sVLemma
p138
Vcomplex
p139
saa(lp140
V,
p141
a(dp142
VNamedEntityTag
p143
g82
sVCharacterOffsetEnd
p144
V33
p145
sVCharacterOffsetBegin
p146
V32
p147
sVPartOfSpeech
p148
g141
sVLemma
p149
g141
saa(lp150
V0.16666666666666666
p151
a(dp152
VNormalizedNamedEntityTag
p153
V0.16666666666666666
p154
sVLemma
p155
V0.16666666666666666
p156
sVCharacterOffsetEnd
p157
V53
p158
sVPartOfSpeech
p159
VCD
p160
sVCharacterOffsetBegin
p161
V34
p162
sVNamedEntityTag
p163
VNUMBER
p164
saa(lp165
Vof
p166
a(dp167
VNamedEntityTag
p168
g82
sVCharacterOffsetEnd
p169
V56
p170
sVCharacterOffsetBegin
p171
V54
p172
sVPartOfSpeech
p173
VIN
p174
sVLemma
p175
Vof
p176
saa(lp177
Vthe
p178
a(dp179
VNamedEntityTag
p180
g82
sVCharacterOffsetEnd
p181
V60
p182
sVCharacterOffsetBegin
p183
V57
p184
sVPartOfSpeech
p185
VDT
p186
sVLemma
p187
Vthe
p188
saa(lp189
Vapartments
p190
a(dp191
VNamedEntityTag
p192
g82
sVCharacterOffsetEnd
p193
V71
p194
sVCharacterOffsetBegin
p195
V61
p196
sVPartOfSpeech
p197
VNNS
p198
sVLemma
p199
Vapartment
p200
saa(lp201
Vare
p202
a(dp203
VNamedEntityTag
p204
g82
sVCharacterOffsetEnd
p205
V75
p206
sVCharacterOffsetBegin
p207
V72
p208
sVPartOfSpeech
p209
VVBP
p210
sVLemma
p211
Vbe
p212
saa(lp213
Vone-bedroom
p214
a(dp215
VNamedEntityTag
p216
g82
sVCharacterOffsetEnd
p217
V87
p218
sVCharacterOffsetBegin
p219
V76
p220
sVPartOfSpeech
p221
VJJ
p222
sVLemma
p223
Vone-bedroom
p224
saa(lp225
Vapartments
p226
a(dp227
VNamedEntityTag
p228
g82
sVCharacterOffsetEnd
p229
V98
p230
sVCharacterOffsetBegin
p231
V88
p232
sVPartOfSpeech
p233
VNNS
p234
sVLemma
p235
Vapartment
p236
saa(lp237
Vand
p238
a(dp239
VNamedEntityTag
p240
g82
sVCharacterOffsetEnd
p241
V102
p242
sVCharacterOffsetBegin
p243
V99
p244
sVPartOfSpeech
p245
VCC
p246
sVLemma
p247
Vand
p248
saa(lp249
V0.3333333333333333
p250
a(dp251
VNormalizedNamedEntityTag
p252
V0.3333333333333333
p253
sVLemma
p254
V0.3333333333333333
p255
sVCharacterOffsetEnd
p256
V121
p257
sVPartOfSpeech
p258
VCD
p259
sVCharacterOffsetBegin
p260
V103
p261
sVNamedEntityTag
p262
VNUMBER
p263
saa(lp264
Vare
p265
a(dp266
VNamedEntityTag
p267
g82
sVCharacterOffsetEnd
p268
V125
p269
sVCharacterOffsetBegin
p270
V122
p271
sVPartOfSpeech
p272
VVBP
p273
sVLemma
p274
Vbe
p275
saa(lp276
Vtwo-bedroom
p277
a(dp278
VNamedEntityTag
p279
g82
sVCharacterOffsetEnd
p280
V137
p281
sVCharacterOffsetBegin
p282
V126
p283
sVPartOfSpeech
p284
VJJ
p285
sVLemma
p286
Vtwo-bedroom
p287
saa(lp288
Vapartments
p289
a(dp290
VNamedEntityTag
p291
g82
sVCharacterOffsetEnd
p292
V148
p293
sVCharacterOffsetBegin
p294
V138
p295
sVPartOfSpeech
p296
VNNS
p297
sVLemma
p298
Vapartment
p299
saa(lp300
V.
p301
a(dp302
VNamedEntityTag
p303
g82
sVCharacterOffsetEnd
p304
V150
p305
sVCharacterOffsetBegin
p306
V149
p307
sVPartOfSpeech
p308
g301
sVLemma
p309
g301
saasVindexeddependencies
p310
(lp311
(lp312
Vroot
p313
aVROOT-0
p314
aVapartments-13
p315
aa(lp316
Vposs
p317
aVcomplex-5
p318
aVShannon-2
p319
aa(lp320
Vnn
p321
aVcomplex-5
p322
aVapartment-4
p323
aa(lp324
Vprep_in
p325
aVapartments-13
p326
aVcomplex-5
p327
aa(lp328
Vnsubj
p329
aVapartments-13
p330
aV0.16666666666666666-7
p331
aa(lp332
Vdet
p333
aVapartments-10
p334
aVthe-9
p335
aa(lp336
Vprep_of
p337
aV0.16666666666666666-7
p338
aVapartments-10
p339
aa(lp340
Vcop
p341
aVapartments-13
p342
aVare-11
p343
aa(lp344
Vamod
p345
aVapartments-13
p346
aVone-bedroom-12
p347
aa(lp348
Vnsubj
p349
aVapartments-18
p350
aV0.3333333333333333-15
p351
aa(lp352
Vcop
p353
aVapartments-18
p354
aVare-16
p355
aa(lp356
Vamod
p357
aVapartments-18
p358
aVtwo-bedroom-17
p359
aa(lp360
Vconj_and
p361
aVapartments-13
p362
aVapartments-18
p363
aasa(dp364
Vparsetree
p365
V(ROOT (SBARQ (WHNP (WDT What) (NP (NN fraction) (PP (IN of) (NP (DT the) (NNS apartments))))) (SQ (VP (VBP are) (NP (NP (RB either) (CD one)) (: -) (CC or) (NP (JJ two-bedroom) (NNS apartments))))) (. ?)))
p366
sVtext
p367
VWhat fraction of the apartments are either one- or two-bedroom apartments ?
p368
sVdependencies
p369
(lp370
(lp371
Vroot
p372
aVROOT
p373
aVone
p374
aa(lp375
Vdet
p376
aVfraction
p377
aVWhat
p378
aa(lp379
Vnsubj
p380
aVone
p381
aVfraction
p382
aa(lp383
Vdet
p384
aVapartments
p385
aVthe
p386
aa(lp387
Vprep_of
p388
aVfraction
p389
aVapartments
p390
aa(lp391
Vcop
p392
aVone
p393
aVare
p394
aa(lp395
Vadvmod
p396
aVone
p397
aVeither
p398
aa(lp399
Vamod
p400
aVapartments
p401
aVtwo-bedroom
p402
aa(lp403
Vconj_or
p404
aVone
p405
aVapartments
p406
aasVwords
p407
(lp408
(lp409
VWhat
p410
a(dp411
VNamedEntityTag
p412
g82
sVCharacterOffsetEnd
p413
V155
p414
sVCharacterOffsetBegin
p415
V151
p416
sVPartOfSpeech
p417
VWDT
p418
sVLemma
p419
Vwhat
p420
saa(lp421
Vfraction
p422
a(dp423
VNamedEntityTag
p424
g82
sVCharacterOffsetEnd
p425
V164
p426
sVCharacterOffsetBegin
p427
V156
p428
sVPartOfSpeech
p429
VNN
p430
sVLemma
p431
Vfraction
p432
saa(lp433
Vof
p434
a(dp435
VNamedEntityTag
p436
g82
sVCharacterOffsetEnd
p437
V167
p438
sVCharacterOffsetBegin
p439
V165
p440
sVPartOfSpeech
p441
VIN
p442
sVLemma
p443
Vof
p444
saa(lp445
Vthe
p446
a(dp447
VNamedEntityTag
p448
g82
sVCharacterOffsetEnd
p449
V171
p450
sVCharacterOffsetBegin
p451
V168
p452
sVPartOfSpeech
p453
VDT
p454
sVLemma
p455
Vthe
p456
saa(lp457
Vapartments
p458
a(dp459
VNamedEntityTag
p460
g82
sVCharacterOffsetEnd
p461
V182
p462
sVCharacterOffsetBegin
p463
V172
p464
sVPartOfSpeech
p465
VNNS
p466
sVLemma
p467
Vapartment
p468
saa(lp469
Vare
p470
a(dp471
VNamedEntityTag
p472
g82
sVCharacterOffsetEnd
p473
V186
p474
sVCharacterOffsetBegin
p475
V183
p476
sVPartOfSpeech
p477
VVBP
p478
sVLemma
p479
Vbe
p480
saa(lp481
Veither
p482
a(dp483
VNamedEntityTag
p484
g82
sVCharacterOffsetEnd
p485
V193
p486
sVCharacterOffsetBegin
p487
V187
p488
sVPartOfSpeech
p489
VRB
p490
sVLemma
p491
Veither
p492
saa(lp493
Vone
p494
a(dp495
VNormalizedNamedEntityTag
p496
V1.0
p497
sVLemma
p498
Vone
p499
sVCharacterOffsetEnd
p500
V197
p501
sVPartOfSpeech
p502
VCD
p503
sVCharacterOffsetBegin
p504
V194
p505
sVNamedEntityTag
p506
VNUMBER
p507
saa(lp508
V-
p509
a(dp510
VNamedEntityTag
p511
g82
sVCharacterOffsetEnd
p512
V198
p513
sVCharacterOffsetBegin
p514
V197
p515
sVPartOfSpeech
p516
V:
p517
sVLemma
p518
g509
saa(lp519
Vor
p520
a(dp521
VNamedEntityTag
p522
g82
sVCharacterOffsetEnd
p523
V201
p524
sVCharacterOffsetBegin
p525
V199
p526
sVPartOfSpeech
p527
VCC
p528
sVLemma
p529
Vor
p530
saa(lp531
Vtwo-bedroom
p532
a(dp533
VNamedEntityTag
p534
g82
sVCharacterOffsetEnd
p535
V213
p536
sVCharacterOffsetBegin
p537
V202
p538
sVPartOfSpeech
p539
VJJ
p540
sVLemma
p541
Vtwo-bedroom
p542
saa(lp543
Vapartments
p544
a(dp545
VNamedEntityTag
p546
g82
sVCharacterOffsetEnd
p547
V224
p548
sVCharacterOffsetBegin
p549
V214
p550
sVPartOfSpeech
p551
VNNS
p552
sVLemma
p553
Vapartment
p554
saa(lp555
V?
p556
a(dp557
VNamedEntityTag
p558
g82
sVCharacterOffsetEnd
p559
V226
p560
sVCharacterOffsetBegin
p561
V225
p562
sVPartOfSpeech
p563
g301
sVLemma
p564
g556
saasVindexeddependencies
p565
(lp566
(lp567
Vroot
p568
aVROOT-0
p569
aVone-8
p570
aa(lp571
Vdet
p572
aVfraction-2
p573
aVWhat-1
p574
aa(lp575
Vnsubj
p576
aVone-8
p577
aVfraction-2
p578
aa(lp579
Vdet
p580
aVapartments-5
p581
aVthe-4
p582
aa(lp583
Vprep_of
p584
aVfraction-2
p585
aVapartments-5
p586
aa(lp587
Vcop
p588
aVone-8
p589
aVare-6
p590
aa(lp591
Vadvmod
p592
aVone-8
p593
aVeither-7
p594
aa(lp595
Vamod
p596
aVapartments-12
p597
aVtwo-bedroom-11
p598
aa(lp599
Vconj_or
p600
aVone-8
p601
aVapartments-12
p602
aasas.