(dp0
Vcoref
p1
(lp2
(lp3
(lp4
(lp5
Vhis
p6
aI0
aI2
aI2
aI3
aa(lp7
VVictor
p8
aI0
aI0
aI0
aI1
aaa(lp9
(lp10
VVictor
p11
aI1
aI6
aI6
aI7
aa(lp12
VVictor
p13
aI0
aI0
aI0
aI1
aaa(lp14
(lp15
Vhis
p16
aI1
aI11
aI11
aI12
aa(lp17
VVictor
p18
aI0
aI0
aI0
aI1
aaaa(lp19
(lp20
(lp21
Vthey
p22
aI1
aI3
aI3
aI4
aa(lp23
VVictor and his friend
p24
aI0
aI0
aI0
aI4
aaaa(lp25
(lp26
(lp27
Vhis friend
p28
aI1
aI12
aI11
aI13
aa(lp29
Vhis friend
p30
aI0
aI3
aI2
aI4
aaaasVsentences
p31
(lp32
(dp33
Vparsetree
p34
V(ROOT (S (NP (NP (NNP Victor)) (CC and) (NP (PRP$ his) (NN friend))) (VP (VBD were) (VP (VBG buying) (NP (NN trick) (NNS decks)) (PP (IN from) (NP (NP (DT the) (JJ magic) (NN shop)) (PP (IN for) (NP (NP (CD 8) (NNS dollars)) (NP (DT each)))))))) (. .)))
p35
sVtext
p36
VVictor and his friend were buying trick decks from the magic shop for 8 dollars each .
p37
sVdependencies
p38
(lp39
(lp40
Vroot
p41
aVROOT
p42
aVbuying
p43
aa(lp44
Vnsubj
p45
aVbuying
p46
aVVictor
p47
aa(lp48
Vposs
p49
aVfriend
p50
aVhis
p51
aa(lp52
Vconj_and
p53
aVVictor
p54
aVfriend
p55
aa(lp56
Vaux
p57
aVbuying
p58
aVwere
p59
aa(lp60
Vnn
p61
aVdecks
p62
aVtrick
p63
aa(lp64
Vdobj
p65
aVbuying
p66
aVdecks
p67
aa(lp68
Vdet
p69
aVshop
p70
aVthe
p71
aa(lp72
Vamod
p73
aVshop
p74
aVmagic
p75
aa(lp76
Vprep_from
p77
aVbuying
p78
aVshop
p79
aa(lp80
Vnum
p81
aVdollars
p82
aV8
p83
aa(lp84
Vprep_for
p85
aVshop
p86
aVdollars
p87
aa(lp88
Vdep
p89
aVdollars
p90
aVeach
p91
aasVwords
p92
(lp93
(lp94
VVictor
p95
a(dp96
VNamedEntityTag
p97
VPERSON
p98
sVCharacterOffsetEnd
p99
V7
p100
sVCharacterOffsetBegin
p101
V1
p102
sVPartOfSpeech
p103
VNNP
p104
sVLemma
p105
VVictor
p106
saa(lp107
Vand
p108
a(dp109
VNamedEntityTag
p110
VO
p111
sVCharacterOffsetEnd
p112
V11
p113
sVCharacterOffsetBegin
p114
g83
sVPartOfSpeech
p115
VCC
p116
sVLemma
p117
Vand
p118
saa(lp119
Vhis
p120
a(dp121
VNamedEntityTag
p122
g111
sVCharacterOffsetEnd
p123
V15
p124
sVCharacterOffsetBegin
p125
V12
p126
sVPartOfSpeech
p127
VPRP$
p128
sVLemma
p129
Vhe
p130
saa(lp131
Vfriend
p132
a(dp133
VNamedEntityTag
p134
g111
sVCharacterOffsetEnd
p135
V22
p136
sVCharacterOffsetBegin
p137
V16
p138
sVPartOfSpeech
p139
VNN
p140
sVLemma
p141
Vfriend
p142
saa(lp143
Vwere
p144
a(dp145
VNamedEntityTag
p146
g111
sVCharacterOffsetEnd
p147
V27
p148
sVCharacterOffsetBegin
p149
V23
p150
sVPartOfSpeech
p151
VVBD
p152
sVLemma
p153
Vbe
p154
saa(lp155
Vbuying
p156
a(dp157
VNamedEntityTag
p158
g111
sVCharacterOffsetEnd
p159
V34
p160
sVCharacterOffsetBegin
p161
V28
p162
sVPartOfSpeech
p163
VVBG
p164
sVLemma
p165
Vbuy
p166
saa(lp167
Vtrick
p168
a(dp169
VNamedEntityTag
p170
g111
sVCharacterOffsetEnd
p171
V40
p172
sVCharacterOffsetBegin
p173
V35
p174
sVPartOfSpeech
p175
VNN
p176
sVLemma
p177
Vtrick
p178
saa(lp179
Vdecks
p180
a(dp181
VNamedEntityTag
p182
g111
sVCharacterOffsetEnd
p183
V46
p184
sVCharacterOffsetBegin
p185
V41
p186
sVPartOfSpeech
p187
VNNS
p188
sVLemma
p189
Vdeck
p190
saa(lp191
Vfrom
p192
a(dp193
VNamedEntityTag
p194
g111
sVCharacterOffsetEnd
p195
V51
p196
sVCharacterOffsetBegin
p197
V47
p198
sVPartOfSpeech
p199
VIN
p200
sVLemma
p201
Vfrom
p202
saa(lp203
Vthe
p204
a(dp205
VNamedEntityTag
p206
g111
sVCharacterOffsetEnd
p207
V55
p208
sVCharacterOffsetBegin
p209
V52
p210
sVPartOfSpeech
p211
VDT
p212
sVLemma
p213
Vthe
p214
saa(lp215
Vmagic
p216
a(dp217
VNamedEntityTag
p218
g111
sVCharacterOffsetEnd
p219
V61
p220
sVCharacterOffsetBegin
p221
V56
p222
sVPartOfSpeech
p223
VJJ
p224
sVLemma
p225
Vmagic
p226
saa(lp227
Vshop
p228
a(dp229
VNamedEntityTag
p230
g111
sVCharacterOffsetEnd
p231
V66
p232
sVCharacterOffsetBegin
p233
V62
p234
sVPartOfSpeech
p235
VNN
p236
sVLemma
p237
Vshop
p238
saa(lp239
Vfor
p240
a(dp241
VNamedEntityTag
p242
g111
sVCharacterOffsetEnd
p243
V70
p244
sVCharacterOffsetBegin
p245
V67
p246
sVPartOfSpeech
p247
VIN
p248
sVLemma
p249
Vfor
p250
saa(lp251
g83
a(dp252
VNormalizedNamedEntityTag
p253
V$8.0
p254
sVLemma
p255
g83
sVCharacterOffsetEnd
p256
V72
p257
sVPartOfSpeech
p258
VCD
p259
sVCharacterOffsetBegin
p260
V71
p261
sVNamedEntityTag
p262
VMONEY
p263
saa(lp264
Vdollars
p265
a(dp266
VNormalizedNamedEntityTag
p267
V$8.0
p268
sVLemma
p269
Vdollar
p270
sVCharacterOffsetEnd
p271
V80
p272
sVPartOfSpeech
p273
VNNS
p274
sVCharacterOffsetBegin
p275
V73
p276
sVNamedEntityTag
p277
VMONEY
p278
saa(lp279
Veach
p280
a(dp281
VNamedEntityTag
p282
g111
sVCharacterOffsetEnd
p283
V85
p284
sVCharacterOffsetBegin
p285
V81
p286
sVPartOfSpeech
p287
VDT
p288
sVLemma
p289
Veach
p290
saa(lp291
V.
p292
a(dp293
VNamedEntityTag
p294
g111
sVCharacterOffsetEnd
p295
V87
p296
sVCharacterOffsetBegin
p297
V86
p298
sVPartOfSpeech
p299
g292
sVLemma
p300
g292
saasVindexeddependencies
p301
(lp302
(lp303
Vroot
p304
aVROOT-0
p305
aVbuying-6
p306
aa(lp307
Vnsubj
p308
aVbuying-6
p309
aVVictor-1
p310
aa(lp311
Vposs
p312
aVfriend-4
p313
aVhis-3
p314
aa(lp315
Vconj_and
p316
aVVictor-1
p317
aVfriend-4
p318
aa(lp319
Vaux
p320
aVbuying-6
p321
aVwere-5
p322
aa(lp323
Vnn
p324
aVdecks-8
p325
aVtrick-7
p326
aa(lp327
Vdobj
p328
aVbuying-6
p329
aVdecks-8
p330
aa(lp331
Vdet
p332
aVshop-12
p333
aVthe-10
p334
aa(lp335
Vamod
p336
aVshop-12
p337
aVmagic-11
p338
aa(lp339
Vprep_from
p340
aVbuying-6
p341
aVshop-12
p342
aa(lp343
Vnum
p344
aVdollars-15
p345
aV8-14
p346
aa(lp347
Vprep_for
p348
aVshop-12
p349
aVdollars-15
p350
aa(lp351
Vdep
p352
aVdollars-15
p353
aVeach-16
p354
aasa(dp355
Vparsetree
p356
V(ROOT (SBARQ (WHNP (WRB How) (RB much)) (SQ (VBD did) (NP (PRP they)) (VP (VBP spend) (SBAR (IN if) (S (NP (NNP Victor)) (VP (VBD bought) (SBAR (S (NP (NP (CD 6) (NNS decks)) (CC and) (NP (PRP$ his) (NN friend))) (VP (VBD bought) (NP (CD 2) (NNS decks)))))))))) (. ?)))
p357
sVtext
p358
VHow much did they spend if Victor bought 6 decks and his friend bought 2 decks ?
p359
sVdependencies
p360
(lp361
(lp362
Vroot
p363
aVROOT
p364
aVspend
p365
aa(lp366
Vadvmod
p367
aVmuch
p368
aVHow
p369
aa(lp370
Vdep
p371
aVspend
p372
aVmuch
p373
aa(lp374
Vaux
p375
aVspend
p376
aVdid
p377
aa(lp378
Vnsubj
p379
aVspend
p380
aVthey
p381
aa(lp382
Vmark
p383
aVbought
p384
aVif
p385
aa(lp386
Vnsubj
p387
aVbought
p388
aVVictor
p389
aa(lp390
Vadvcl
p391
aVspend
p392
aVbought
p393
aa(lp394
Vnum
p395
aVdecks
p396
aV6
p397
aa(lp398
Vnsubj
p399
aVbought
p400
aVdecks
p401
aa(lp402
Vposs
p403
aVfriend
p404
aVhis
p405
aa(lp406
Vconj_and
p407
aVdecks
p408
aVfriend
p409
aa(lp410
Vccomp
p411
aVbought
p412
aVbought
p413
aa(lp414
Vnum
p415
aVdecks
p416
aV2
p417
aa(lp418
Vdobj
p419
aVbought
p420
aVdecks
p421
aasVwords
p422
(lp423
(lp424
VHow
p425
a(dp426
VNamedEntityTag
p427
g111
sVCharacterOffsetEnd
p428
V91
p429
sVCharacterOffsetBegin
p430
V88
p431
sVPartOfSpeech
p432
VWRB
p433
sVLemma
p434
Vhow
p435
saa(lp436
Vmuch
p437
a(dp438
VNamedEntityTag
p439
g111
sVCharacterOffsetEnd
p440
V96
p441
sVCharacterOffsetBegin
p442
V92
p443
sVPartOfSpeech
p444
VRB
p445
sVLemma
p446
Vmuch
p447
saa(lp448
Vdid
p449
a(dp450
VNamedEntityTag
p451
g111
sVCharacterOffsetEnd
p452
V100
p453
sVCharacterOffsetBegin
p454
V97
p455
sVPartOfSpeech
p456
VVBD
p457
sVLemma
p458
Vdo
p459
saa(lp460
Vthey
p461
a(dp462
VNamedEntityTag
p463
g111
sVCharacterOffsetEnd
p464
V105
p465
sVCharacterOffsetBegin
p466
V101
p467
sVPartOfSpeech
p468
VPRP
p469
sVLemma
p470
Vthey
p471
saa(lp472
Vspend
p473
a(dp474
VNamedEntityTag
p475
g111
sVCharacterOffsetEnd
p476
V111
p477
sVCharacterOffsetBegin
p478
V106
p479
sVPartOfSpeech
p480
VVBP
p481
sVLemma
p482
Vspend
p483
saa(lp484
Vif
p485
a(dp486
VNamedEntityTag
p487
g111
sVCharacterOffsetEnd
p488
V114
p489
sVCharacterOffsetBegin
p490
V112
p491
sVPartOfSpeech
p492
VIN
p493
sVLemma
p494
Vif
p495
saa(lp496
VVictor
p497
a(dp498
VNamedEntityTag
p499
VPERSON
p500
sVCharacterOffsetEnd
p501
V121
p502
sVCharacterOffsetBegin
p503
V115
p504
sVPartOfSpeech
p505
VNNP
p506
sVLemma
p507
VVictor
p508
saa(lp509
Vbought
p510
a(dp511
VNamedEntityTag
p512
g111
sVCharacterOffsetEnd
p513
V128
p514
sVCharacterOffsetBegin
p515
V122
p516
sVPartOfSpeech
p517
VVBD
p518
sVLemma
p519
Vbuy
p520
saa(lp521
g397
a(dp522
VNormalizedNamedEntityTag
p523
V6.0
p524
sVLemma
p525
g397
sVCharacterOffsetEnd
p526
V130
p527
sVPartOfSpeech
p528
VCD
p529
sVCharacterOffsetBegin
p530
V129
p531
sVNamedEntityTag
p532
VNUMBER
p533
saa(lp534
Vdecks
p535
a(dp536
VNamedEntityTag
p537
g111
sVCharacterOffsetEnd
p538
V136
p539
sVCharacterOffsetBegin
p540
V131
p541
sVPartOfSpeech
p542
VNNS
p543
sVLemma
p544
Vdeck
p545
saa(lp546
Vand
p547
a(dp548
VNamedEntityTag
p549
g111
sVCharacterOffsetEnd
p550
V140
p551
sVCharacterOffsetBegin
p552
V137
p553
sVPartOfSpeech
p554
VCC
p555
sVLemma
p556
Vand
p557
saa(lp558
Vhis
p559
a(dp560
VNamedEntityTag
p561
g111
sVCharacterOffsetEnd
p562
V144
p563
sVCharacterOffsetBegin
p564
V141
p565
sVPartOfSpeech
p566
VPRP$
p567
sVLemma
p568
Vhe
p569
saa(lp570
Vfriend
p571
a(dp572
VNamedEntityTag
p573
g111
sVCharacterOffsetEnd
p574
V151
p575
sVCharacterOffsetBegin
p576
V145
p577
sVPartOfSpeech
p578
VNN
p579
sVLemma
p580
Vfriend
p581
saa(lp582
Vbought
p583
a(dp584
VNamedEntityTag
p585
g111
sVCharacterOffsetEnd
p586
V158
p587
sVCharacterOffsetBegin
p588
V152
p589
sVPartOfSpeech
p590
VVBD
p591
sVLemma
p592
Vbuy
p593
saa(lp594
g417
a(dp595
VNormalizedNamedEntityTag
p596
V2.0
p597
sVLemma
p598
g417
sVCharacterOffsetEnd
p599
V160
p600
sVPartOfSpeech
p601
VCD
p602
sVCharacterOffsetBegin
p603
V159
p604
sVNamedEntityTag
p605
VNUMBER
p606
saa(lp607
Vdecks
p608
a(dp609
VNamedEntityTag
p610
g111
sVCharacterOffsetEnd
p611
V166
p612
sVCharacterOffsetBegin
p613
V161
p614
sVPartOfSpeech
p615
VNNS
p616
sVLemma
p617
Vdeck
p618
saa(lp619
V?
p620
a(dp621
VNamedEntityTag
p622
g111
sVCharacterOffsetEnd
p623
V168
p624
sVCharacterOffsetBegin
p625
V167
p626
sVPartOfSpeech
p627
g292
sVLemma
p628
g620
saasVindexeddependencies
p629
(lp630
(lp631
Vroot
p632
aVROOT-0
p633
aVspend-5
p634
aa(lp635
Vadvmod
p636
aVmuch-2
p637
aVHow-1
p638
aa(lp639
Vdep
p640
aVspend-5
p641
aVmuch-2
p642
aa(lp643
Vaux
p644
aVspend-5
p645
aVdid-3
p646
aa(lp647
Vnsubj
p648
aVspend-5
p649
aVthey-4
p650
aa(lp651
Vmark
p652
aVbought-8
p653
aVif-6
p654
aa(lp655
Vnsubj
p656
aVbought-8
p657
aVVictor-7
p658
aa(lp659
Vadvcl
p660
aVspend-5
p661
aVbought-8
p662
aa(lp663
Vnum
p664
aVdecks-10
p665
aV6-9
p666
aa(lp667
Vnsubj
p668
aVbought-14
p669
aVdecks-10
p670
aa(lp671
Vposs
p672
aVfriend-13
p673
aVhis-12
p674
aa(lp675
Vconj_and
p676
aVdecks-10
p677
aVfriend-13
p678
aa(lp679
Vccomp
p680
aVbought-8
p681
aVbought-14
p682
aa(lp683
Vnum
p684
aVdecks-16
p685
aV2-15
p686
aa(lp687
Vdobj
p688
aVbought-14
p689
aVdecks-16
p690
aasas.