(dp0
Vcoref
p1
(lp2
(lp3
(lp4
(lp5
VMiki
p6
aI0
aI4
aI4
aI5
aa(lp7
VMiki 's
p8
aI1
aI0
aI0
aI2
aaa(lp9
(lp10
VMiki 's
p11
aI2
aI4
aI4
aI6
aa(lp12
VMiki 's
p13
aI1
aI0
aI0
aI2
aaaa(lp14
(lp15
(lp16
Vtheir
p17
aI0
aI14
aI14
aI15
aa(lp18
VMiki and her sister
p19
aI0
aI4
aI4
aI8
aaaa(lp20
(lp21
(lp22
Vher sister
p23
aI0
aI7
aI6
aI8
aa(lp24
Vher sister 's
p25
aI1
aI11
aI10
aI13
aaa(lp26
(lp27
Vher
p28
aI1
aI10
aI10
aI11
aa(lp29
Vher sister 's
p30
aI1
aI11
aI10
aI13
aaa(lp31
(lp32
Vher sister 's
p33
aI2
aI9
aI8
aI11
aa(lp34
Vher sister 's
p35
aI1
aI11
aI10
aI13
aaa(lp36
(lp37
Vher
p38
aI2
aI8
aI8
aI9
aa(lp39
Vher sister 's
p40
aI1
aI11
aI10
aI13
aaaa(lp41
(lp42
(lp43
VMiki 's sandcastle
p44
aI1
aI2
aI0
aI3
aa(lp45
V0.8333333333333334 of a foot tall and her sister 's was 0.5 of a foot tall
p46
aI1
aI4
aI4
aI19
aaa(lp47
(lp48
VMiki 's sandcastle
p49
aI2
aI6
aI4
aI7
aa(lp50
V0.8333333333333334 of a foot tall and her sister 's was 0.5 of a foot tall
p51
aI1
aI4
aI4
aI19
aaaasVsentences
p52
(lp53
(dp54
Vparsetree
p55
V(ROOT (S (PP (IN At) (NP (DT the) (NN beach))) (, ,) (NP (NP (NNP Miki)) (CC and) (NP (PRP$ her) (NN sister))) (ADVP (CC both)) (VP (VP (VBN built) (NP (NNS sandcastles))) (CC and) (VP (ADVP (RB then)) (VBD measured) (NP (PRP$ their) (NNS heights)))) (. .)))
p56
sVtext
p57
VAt the beach , Miki and her sister both built sandcastles and then measured their heights .
p58
sVdependencies
p59
(lp60
(lp61
Vroot
p62
aVROOT
p63
aVbuilt
p64
aa(lp65
Vdet
p66
aVbeach
p67
aVthe
p68
aa(lp69
Vprep_at
p70
aVbuilt
p71
aVbeach
p72
aa(lp73
Vnsubj
p74
aVbuilt
p75
aVMiki
p76
aa(lp77
Vposs
p78
aVsister
p79
aVher
p80
aa(lp81
Vconj_and
p82
aVMiki
p83
aVsister
p84
aa(lp85
Vadvmod
p86
aVbuilt
p87
aVboth
p88
aa(lp89
Vdobj
p90
aVbuilt
p91
aVsandcastles
p92
aa(lp93
Vadvmod
p94
aVmeasured
p95
aVthen
p96
aa(lp97
Vconj_and
p98
aVbuilt
p99
aVmeasured
p100
aa(lp101
Vposs
p102
aVheights
p103
aVtheir
p104
aa(lp105
Vdobj
p106
aVmeasured
p107
aVheights
p108
aasVwords
p109
(lp110
(lp111
VAt
p112
a(dp113
VNamedEntityTag
p114
VO
p115
sVCharacterOffsetEnd
p116
V3
p117
sVCharacterOffsetBegin
p118
V1
p119
sVPartOfSpeech
p120
VIN
p121
sVLemma
p122
Vat
p123
saa(lp124
Vthe
p125
a(dp126
VNamedEntityTag
p127
g115
sVCharacterOffsetEnd
p128
V7
p129
sVCharacterOffsetBegin
p130
V4
p131
sVPartOfSpeech
p132
VDT
p133
sVLemma
p134
Vthe
p135
saa(lp136
Vbeach
p137
a(dp138
VNamedEntityTag
p139
g115
sVCharacterOffsetEnd
p140
V13
p141
sVCharacterOffsetBegin
p142
V8
p143
sVPartOfSpeech
p144
VNN
p145
sVLemma
p146
Vbeach
p147
saa(lp148
V,
p149
a(dp150
VNamedEntityTag
p151
g115
sVCharacterOffsetEnd
p152
V15
p153
sVCharacterOffsetBegin
p154
V14
p155
sVPartOfSpeech
p156
g149
sVLemma
p157
g149
saa(lp158
VMiki
p159
a(dp160
VNamedEntityTag
p161
VPERSON
p162
sVCharacterOffsetEnd
p163
V20
p164
sVCharacterOffsetBegin
p165
V16
p166
sVPartOfSpeech
p167
VNNP
p168
sVLemma
p169
VMiki
p170
saa(lp171
Vand
p172
a(dp173
VNamedEntityTag
p174
g115
sVCharacterOffsetEnd
p175
V24
p176
sVCharacterOffsetBegin
p177
V21
p178
sVPartOfSpeech
p179
VCC
p180
sVLemma
p181
Vand
p182
saa(lp183
Vher
p184
a(dp185
VNamedEntityTag
p186
g115
sVCharacterOffsetEnd
p187
V28
p188
sVCharacterOffsetBegin
p189
V25
p190
sVPartOfSpeech
p191
VPRP$
p192
sVLemma
p193
Vshe
p194
saa(lp195
Vsister
p196
a(dp197
VNamedEntityTag
p198
g115
sVCharacterOffsetEnd
p199
V35
p200
sVCharacterOffsetBegin
p201
V29
p202
sVPartOfSpeech
p203
VNN
p204
sVLemma
p205
Vsister
p206
saa(lp207
Vboth
p208
a(dp209
VNamedEntityTag
p210
g115
sVCharacterOffsetEnd
p211
V40
p212
sVCharacterOffsetBegin
p213
V36
p214
sVPartOfSpeech
p215
VCC
p216
sVLemma
p217
Vboth
p218
saa(lp219
Vbuilt
p220
a(dp221
VNamedEntityTag
p222
g115
sVCharacterOffsetEnd
p223
V46
p224
sVCharacterOffsetBegin
p225
V41
p226
sVPartOfSpeech
p227
VVBN
p228
sVLemma
p229
Vbuild
p230
saa(lp231
Vsandcastles
p232
a(dp233
VNamedEntityTag
p234
g115
sVCharacterOffsetEnd
p235
V58
p236
sVCharacterOffsetBegin
p237
V47
p238
sVPartOfSpeech
p239
VNNS
p240
sVLemma
p241
Vsandcastle
p242
saa(lp243
Vand
p244
a(dp245
VNamedEntityTag
p246
g115
sVCharacterOffsetEnd
p247
V62
p248
sVCharacterOffsetBegin
p249
V59
p250
sVPartOfSpeech
p251
VCC
p252
sVLemma
p253
Vand
p254
saa(lp255
Vthen
p256
a(dp257
VNamedEntityTag
p258
g115
sVCharacterOffsetEnd
p259
V67
p260
sVCharacterOffsetBegin
p261
V63
p262
sVPartOfSpeech
p263
VRB
p264
sVLemma
p265
Vthen
p266
saa(lp267
Vmeasured
p268
a(dp269
VNamedEntityTag
p270
g115
sVCharacterOffsetEnd
p271
V76
p272
sVCharacterOffsetBegin
p273
V68
p274
sVPartOfSpeech
p275
VVBD
p276
sVLemma
p277
Vmeasure
p278
saa(lp279
Vtheir
p280
a(dp281
VNamedEntityTag
p282
g115
sVCharacterOffsetEnd
p283
V82
p284
sVCharacterOffsetBegin
p285
V77
p286
sVPartOfSpeech
p287
VPRP$
p288
sVLemma
p289
Vthey
p290
saa(lp291
Vheights
p292
a(dp293
VNamedEntityTag
p294
g115
sVCharacterOffsetEnd
p295
V90
p296
sVCharacterOffsetBegin
p297
V83
p298
sVPartOfSpeech
p299
VNNS
p300
sVLemma
p301
Vheight
p302
saa(lp303
V.
p304
a(dp305
VNamedEntityTag
p306
g115
sVCharacterOffsetEnd
p307
V92
p308
sVCharacterOffsetBegin
p309
V91
p310
sVPartOfSpeech
p311
g304
sVLemma
p312
g304
saasVindexeddependencies
p313
(lp314
(lp315
Vroot
p316
aVROOT-0
p317
aVbuilt-10
p318
aa(lp319
Vdet
p320
aVbeach-3
p321
aVthe-2
p322
aa(lp323
Vprep_at
p324
aVbuilt-10
p325
aVbeach-3
p326
aa(lp327
Vnsubj
p328
aVbuilt-10
p329
aVMiki-5
p330
aa(lp331
Vposs
p332
aVsister-8
p333
aVher-7
p334
aa(lp335
Vconj_and
p336
aVMiki-5
p337
aVsister-8
p338
aa(lp339
Vadvmod
p340
aVbuilt-10
p341
aVboth-9
p342
aa(lp343
Vdobj
p344
aVbuilt-10
p345
aVsandcastles-11
p346
aa(lp347
Vadvmod
p348
aVmeasured-14
p349
aVthen-13
p350
aa(lp351
Vconj_and
p352
aVbuilt-10
p353
aVmeasured-14
p354
aa(lp355
Vposs
p356
aVheights-16
p357
aVtheir-15
p358
aa(lp359
Vdobj
p360
aVmeasured-14
p361
aVheights-16
p362
aasa(dp363
Vparsetree
p364
V(ROOT (S (NP (NP (NNP Miki) (POS 's)) (NN sandcastle)) (VP (VBD was) (NP (NP (CD 0.8333333333333334)) (PP (IN of) (NP (NP (DT a) (NN foot)) (SBAR (S (NP (NP (JJ tall)) (CC and) (NP (PRP$ her) (NN sister) (POS 's))) (VP (VBD was) (NP (NP (CD 0.5)) (PP (IN of) (NP (DT a) (NN foot) (JJ tall))))))))))) (. .)))
p365
sVtext
p366
VMiki's sandcastle was 0.8333333333333334 of a foot tall and her sister's was 0.5 of a foot tall .
p367
sVdependencies
p368
(lp369
(lp370
Vroot
p371
aVROOT
p372
aV0.8333333333333334
p373
aa(lp374
Vposs
p375
aVsandcastle
p376
aVMiki
p377
aa(lp378
Vnsubj
p379
aV0.8333333333333334
p380
aVsandcastle
p381
aa(lp382
Vcop
p383
aV0.8333333333333334
p384
aVwas
p385
aa(lp386
Vdet
p387
aVfoot
p388
aVa
p389
aa(lp390
Vprep_of
p391
aV0.8333333333333334
p392
aVfoot
p393
aa(lp394
Vnsubj
p395
aV0.5
p396
aVtall
p397
aa(lp398
Vposs
p399
aVsister
p400
aVher
p401
aa(lp402
Vconj_and
p403
aVtall
p404
aVsister
p405
aa(lp406
Vcop
p407
aV0.5
p408
aVwas
p409
aa(lp410
Vrcmod
p411
aVfoot
p412
aV0.5
p413
aa(lp414
Vdet
p415
aVfoot
p416
ag389
aa(lp417
Vprep_of
p418
aV0.5
p419
aVfoot
p420
aa(lp421
Vamod
p422
aVfoot
p423
aVtall
p424
aasVwords
p425
(lp426
(lp427
VMiki
p428
a(dp429
VNamedEntityTag
p430
VPERSON
p431
sVCharacterOffsetEnd
p432
V97
p433
sVCharacterOffsetBegin
p434
V93
p435
sVPartOfSpeech
p436
VNNP
p437
sVLemma
p438
VMiki
p439
saa(lp440
V's
p441
a(dp442
VNamedEntityTag
p443
g115
sVCharacterOffsetEnd
p444
V99
p445
sVCharacterOffsetBegin
p446
V97
p447
sVPartOfSpeech
p448
VPOS
p449
sVLemma
p450
V's
p451
saa(lp452
Vsandcastle
p453
a(dp454
VNamedEntityTag
p455
g115
sVCharacterOffsetEnd
p456
V110
p457
sVCharacterOffsetBegin
p458
V100
p459
sVPartOfSpeech
p460
VNN
p461
sVLemma
p462
Vsandcastle
p463
saa(lp464
Vwas
p465
a(dp466
VNamedEntityTag
p467
g115
sVCharacterOffsetEnd
p468
V114
p469
sVCharacterOffsetBegin
p470
V111
p471
sVPartOfSpeech
p472
VVBD
p473
sVLemma
p474
Vbe
p475
saa(lp476
V0.8333333333333334
p477
a(dp478
VNormalizedNamedEntityTag
p479
V0.8333333333333334
p480
sVLemma
p481
V0.8333333333333334
p482
sVCharacterOffsetEnd
p483
V133
p484
sVPartOfSpeech
p485
VCD
p486
sVCharacterOffsetBegin
p487
V115
p488
sVNamedEntityTag
p489
VNUMBER
p490
saa(lp491
Vof
p492
a(dp493
VNamedEntityTag
p494
g115
sVCharacterOffsetEnd
p495
V136
p496
sVCharacterOffsetBegin
p497
V134
p498
sVPartOfSpeech
p499
VIN
p500
sVLemma
p501
Vof
p502
saa(lp503
g389
a(dp504
VNamedEntityTag
p505
g115
sVCharacterOffsetEnd
p506
V138
p507
sVCharacterOffsetBegin
p508
V137
p509
sVPartOfSpeech
p510
VDT
p511
sVLemma
p512
g389
saa(lp513
Vfoot
p514
a(dp515
VNamedEntityTag
p516
g115
sVCharacterOffsetEnd
p517
V143
p518
sVCharacterOffsetBegin
p519
V139
p520
sVPartOfSpeech
p521
VNN
p522
sVLemma
p523
Vfoot
p524
saa(lp525
Vtall
p526
a(dp527
VNamedEntityTag
p528
g115
sVCharacterOffsetEnd
p529
V148
p530
sVCharacterOffsetBegin
p531
V144
p532
sVPartOfSpeech
p533
VJJ
p534
sVLemma
p535
Vtall
p536
saa(lp537
Vand
p538
a(dp539
VNamedEntityTag
p540
g115
sVCharacterOffsetEnd
p541
V152
p542
sVCharacterOffsetBegin
p543
V149
p544
sVPartOfSpeech
p545
VCC
p546
sVLemma
p547
Vand
p548
saa(lp549
Vher
p550
a(dp551
VNamedEntityTag
p552
g115
sVCharacterOffsetEnd
p553
V156
p554
sVCharacterOffsetBegin
p555
V153
p556
sVPartOfSpeech
p557
VPRP$
p558
sVLemma
p559
Vshe
p560
saa(lp561
Vsister
p562
a(dp563
VNamedEntityTag
p564
g115
sVCharacterOffsetEnd
p565
V163
p566
sVCharacterOffsetBegin
p567
V157
p568
sVPartOfSpeech
p569
VNN
p570
sVLemma
p571
Vsister
p572
saa(lp573
V's
p574
a(dp575
VNamedEntityTag
p576
g115
sVCharacterOffsetEnd
p577
V165
p578
sVCharacterOffsetBegin
p579
V163
p580
sVPartOfSpeech
p581
VPOS
p582
sVLemma
p583
V's
p584
saa(lp585
Vwas
p586
a(dp587
VNamedEntityTag
p588
g115
sVCharacterOffsetEnd
p589
V169
p590
sVCharacterOffsetBegin
p591
V166
p592
sVPartOfSpeech
p593
VVBD
p594
sVLemma
p595
Vbe
p596
saa(lp597
V0.5
p598
a(dp599
VNormalizedNamedEntityTag
p600
V0.5
p601
sVLemma
p602
V0.5
p603
sVCharacterOffsetEnd
p604
V173
p605
sVPartOfSpeech
p606
VCD
p607
sVCharacterOffsetBegin
p608
V170
p609
sVNamedEntityTag
p610
VNUMBER
p611
saa(lp612
Vof
p613
a(dp614
VNamedEntityTag
p615
g115
sVCharacterOffsetEnd
p616
V176
p617
sVCharacterOffsetBegin
p618
V174
p619
sVPartOfSpeech
p620
VIN
p621
sVLemma
p622
Vof
p623
saa(lp624
g389
a(dp625
VNamedEntityTag
p626
g115
sVCharacterOffsetEnd
p627
V178
p628
sVCharacterOffsetBegin
p629
V177
p630
sVPartOfSpeech
p631
VDT
p632
sVLemma
p633
g389
saa(lp634
Vfoot
p635
a(dp636
VNamedEntityTag
p637
g115
sVCharacterOffsetEnd
p638
V183
p639
sVCharacterOffsetBegin
p640
V179
p641
sVPartOfSpeech
p642
VNN
p643
sVLemma
p644
Vfoot
p645
saa(lp646
Vtall
p647
a(dp648
VNamedEntityTag
p649
g115
sVCharacterOffsetEnd
p650
V188
p651
sVCharacterOffsetBegin
p652
V184
p653
sVPartOfSpeech
p654
VJJ
p655
sVLemma
p656
Vtall
p657
saa(lp658
g304
a(dp659
VNamedEntityTag
p660
g115
sVCharacterOffsetEnd
p661
V190
p662
sVCharacterOffsetBegin
p663
V189
p664
sVPartOfSpeech
p665
g304
sVLemma
p666
g304
saasVindexeddependencies
p667
(lp668
(lp669
Vroot
p670
aVROOT-0
p671
aV0.8333333333333334-5
p672
aa(lp673
Vposs
p674
aVsandcastle-3
p675
aVMiki-1
p676
aa(lp677
Vnsubj
p678
aV0.8333333333333334-5
p679
aVsandcastle-3
p680
aa(lp681
Vcop
p682
aV0.8333333333333334-5
p683
aVwas-4
p684
aa(lp685
Vdet
p686
aVfoot-8
p687
aVa-7
p688
aa(lp689
Vprep_of
p690
aV0.8333333333333334-5
p691
aVfoot-8
p692
aa(lp693
Vnsubj
p694
aV0.5-15
p695
aVtall-9
p696
aa(lp697
Vposs
p698
aVsister-12
p699
aVher-11
p700
aa(lp701
Vconj_and
p702
aVtall-9
p703
aVsister-12
p704
aa(lp705
Vcop
p706
aV0.5-15
p707
aVwas-14
p708
aa(lp709
Vrcmod
p710
aVfoot-8
p711
aV0.5-15
p712
aa(lp713
Vdet
p714
aVfoot-18
p715
aVa-17
p716
aa(lp717
Vprep_of
p718
aV0.5-15
p719
aVfoot-18
p720
aa(lp721
Vamod
p722
aVfoot-18
p723
aVtall-19
p724
aasa(dp725
Vparsetree
p726
V(ROOT (SBAR (WHADJP (WRB How) (JJ much)) (S (NP (JJR taller)) (VP (VBD was) (NP (NP (NNP Miki) (POS 's)) (NN sandcastle)) (PP (IN than) (NP (NP (PRP$ her)) (NP (NN sister) (POS 's)))))) (. ?)))
p727
sVtext
p728
VHow much taller was Miki's sandcastle than her sister's ?
p729
sVdependencies
p730
(lp731
(lp732
Vroot
p733
aVROOT
p734
aVsandcastle
p735
aa(lp736
Vadvmod
p737
aVmuch
p738
aVHow
p739
aa(lp740
Vdep
p741
aVsandcastle
p742
aVmuch
p743
aa(lp744
Vnsubj
p745
aVsandcastle
p746
aVtaller
p747
aa(lp748
Vcop
p749
aVsandcastle
p750
aVwas
p751
aa(lp752
Vposs
p753
aVsandcastle
p754
aVMiki
p755
aa(lp756
Vprep_than
p757
aVsandcastle
p758
aVher
p759
aa(lp760
Vposs
p761
aVher
p762
aVsister
p763
aasVwords
p764
(lp765
(lp766
VHow
p767
a(dp768
VNamedEntityTag
p769
g115
sVCharacterOffsetEnd
p770
V194
p771
sVCharacterOffsetBegin
p772
V191
p773
sVPartOfSpeech
p774
VWRB
p775
sVLemma
p776
Vhow
p777
saa(lp778
Vmuch
p779
a(dp780
VNamedEntityTag
p781
g115
sVCharacterOffsetEnd
p782
V199
p783
sVCharacterOffsetBegin
p784
V195
p785
sVPartOfSpeech
p786
VJJ
p787
sVLemma
p788
Vmuch
p789
saa(lp790
Vtaller
p791
a(dp792
VNamedEntityTag
p793
g115
sVCharacterOffsetEnd
p794
V206
p795
sVCharacterOffsetBegin
p796
V200
p797
sVPartOfSpeech
p798
VJJR
p799
sVLemma
p800
Vtaller
p801
saa(lp802
Vwas
p803
a(dp804
VNamedEntityTag
p805
g115
sVCharacterOffsetEnd
p806
V210
p807
sVCharacterOffsetBegin
p808
V207
p809
sVPartOfSpeech
p810
VVBD
p811
sVLemma
p812
Vbe
p813
saa(lp814
VMiki
p815
a(dp816
VNamedEntityTag
p817
VPERSON
p818
sVCharacterOffsetEnd
p819
V215
p820
sVCharacterOffsetBegin
p821
V211
p822
sVPartOfSpeech
p823
VNNP
p824
sVLemma
p825
VMiki
p826
saa(lp827
V's
p828
a(dp829
VNamedEntityTag
p830
g115
sVCharacterOffsetEnd
p831
V217
p832
sVCharacterOffsetBegin
p833
V215
p834
sVPartOfSpeech
p835
VPOS
p836
sVLemma
p837
V's
p838
saa(lp839
Vsandcastle
p840
a(dp841
VNamedEntityTag
p842
g115
sVCharacterOffsetEnd
p843
V228
p844
sVCharacterOffsetBegin
p845
V218
p846
sVPartOfSpeech
p847
VNN
p848
sVLemma
p849
Vsandcastle
p850
saa(lp851
Vthan
p852
a(dp853
VNamedEntityTag
p854
g115
sVCharacterOffsetEnd
p855
V233
p856
sVCharacterOffsetBegin
p857
V229
p858
sVPartOfSpeech
p859
VIN
p860
sVLemma
p861
Vthan
p862
saa(lp863
Vher
p864
a(dp865
VNamedEntityTag
p866
g115
sVCharacterOffsetEnd
p867
V237
p868
sVCharacterOffsetBegin
p869
V234
p870
sVPartOfSpeech
p871
VPRP$
p872
sVLemma
p873
Vshe
p874
saa(lp875
Vsister
p876
a(dp877
VNamedEntityTag
p878
g115
sVCharacterOffsetEnd
p879
V244
p880
sVCharacterOffsetBegin
p881
V238
p882
sVPartOfSpeech
p883
VNN
p884
sVLemma
p885
Vsister
p886
saa(lp887
V's
p888
a(dp889
VNamedEntityTag
p890
g115
sVCharacterOffsetEnd
p891
V246
p892
sVCharacterOffsetBegin
p893
V244
p894
sVPartOfSpeech
p895
VPOS
p896
sVLemma
p897
V's
p898
saa(lp899
V?
p900
a(dp901
VNamedEntityTag
p902
g115
sVCharacterOffsetEnd
p903
V248
p904
sVCharacterOffsetBegin
p905
V247
p906
sVPartOfSpeech
p907
g304
sVLemma
p908
g900
saasVindexeddependencies
p909
(lp910
(lp911
Vroot
p912
aVROOT-0
p913
aVsandcastle-7
p914
aa(lp915
Vadvmod
p916
aVmuch-2
p917
aVHow-1
p918
aa(lp919
Vdep
p920
aVsandcastle-7
p921
aVmuch-2
p922
aa(lp923
Vnsubj
p924
aVsandcastle-7
p925
aVtaller-3
p926
aa(lp927
Vcop
p928
aVsandcastle-7
p929
aVwas-4
p930
aa(lp931
Vposs
p932
aVsandcastle-7
p933
aVMiki-5
p934
aa(lp935
Vprep_than
p936
aVsandcastle-7
p937
aVher-9
p938
aa(lp939
Vposs
p940
aVher-9
p941
aVsister-10
p942
aasas.