(dp0
Vcoref
p1
(lp2
(lp3
(lp4
(lp5
Vshe
p6
aI1
aI13
aI13
aI14
aa(lp7
VKatie
p8
aI0
aI0
aI0
aI1
aaaa(lp9
(lp10
(lp11
Vit
p12
aI1
aI7
aI7
aI8
aa(lp13
Veach page
p14
aI1
aI2
aI1
aI3
aaaasVsentences
p15
(lp16
(dp17
Vparsetree
p18
V(ROOT (S (NP (NNP Katie)) (VP (VBD had) (NP (NP (NP (CD 7) (NNS pages)) (PP (IN of) (NP (NN math) (NN homework)))) (CC and) (NP (NP (CD 3) (NNS pages)) (PP (IN of) (S (VP (VBG reading) (NP (NN homework)))))))) (. .)))
p19
sVtext
p20
VKatie had 7 pages of math homework and 3 pages of reading homework .
p21
sVdependencies
p22
(lp23
(lp24
Vroot
p25
aVROOT
p26
aVhad
p27
aa(lp28
Vnsubj
p29
aVhad
p30
aVKatie
p31
aa(lp32
Vnum
p33
aVpages
p34
aV7
p35
aa(lp36
Vdobj
p37
aVhad
p38
aVpages
p39
aa(lp40
Vnn
p41
aVhomework
p42
aVmath
p43
aa(lp44
Vprep_of
p45
aVpages
p46
aVhomework
p47
aa(lp48
Vnum
p49
aVpages
p50
aV3
p51
aa(lp52
Vconj_and
p53
aVpages
p54
aVpages
p55
aa(lp56
Vprepc_of
p57
aVpages
p58
aVreading
p59
aa(lp60
Vdobj
p61
aVreading
p62
aVhomework
p63
aasVwords
p64
(lp65
(lp66
VKatie
p67
a(dp68
VNamedEntityTag
p69
VPERSON
p70
sVCharacterOffsetEnd
p71
V6
p72
sVCharacterOffsetBegin
p73
V1
p74
sVPartOfSpeech
p75
VNNP
p76
sVLemma
p77
VKatie
p78
saa(lp79
Vhad
p80
a(dp81
VNamedEntityTag
p82
VO
p83
sVCharacterOffsetEnd
p84
V10
p85
sVCharacterOffsetBegin
p86
g35
sVPartOfSpeech
p87
VVBD
p88
sVLemma
p89
Vhave
p90
saa(lp91
g35
a(dp92
VNormalizedNamedEntityTag
p93
V7.0
p94
sVLemma
p95
g35
sVCharacterOffsetEnd
p96
V12
p97
sVPartOfSpeech
p98
VCD
p99
sVCharacterOffsetBegin
p100
V11
p101
sVNamedEntityTag
p102
VNUMBER
p103
saa(lp104
Vpages
p105
a(dp106
VNamedEntityTag
p107
g83
sVCharacterOffsetEnd
p108
V18
p109
sVCharacterOffsetBegin
p110
V13
p111
sVPartOfSpeech
p112
VNNS
p113
sVLemma
p114
Vpage
p115
saa(lp116
Vof
p117
a(dp118
VNamedEntityTag
p119
g83
sVCharacterOffsetEnd
p120
V21
p121
sVCharacterOffsetBegin
p122
V19
p123
sVPartOfSpeech
p124
VIN
p125
sVLemma
p126
Vof
p127
saa(lp128
Vmath
p129
a(dp130
VNamedEntityTag
p131
g83
sVCharacterOffsetEnd
p132
V26
p133
sVCharacterOffsetBegin
p134
V22
p135
sVPartOfSpeech
p136
VNN
p137
sVLemma
p138
Vmath
p139
saa(lp140
Vhomework
p141
a(dp142
VNamedEntityTag
p143
g83
sVCharacterOffsetEnd
p144
V35
p145
sVCharacterOffsetBegin
p146
V27
p147
sVPartOfSpeech
p148
VNN
p149
sVLemma
p150
Vhomework
p151
saa(lp152
Vand
p153
a(dp154
VNamedEntityTag
p155
g83
sVCharacterOffsetEnd
p156
V39
p157
sVCharacterOffsetBegin
p158
V36
p159
sVPartOfSpeech
p160
VCC
p161
sVLemma
p162
Vand
p163
saa(lp164
g51
a(dp165
VNormalizedNamedEntityTag
p166
V3.0
p167
sVLemma
p168
g51
sVCharacterOffsetEnd
p169
V41
p170
sVPartOfSpeech
p171
VCD
p172
sVCharacterOffsetBegin
p173
V40
p174
sVNamedEntityTag
p175
VNUMBER
p176
saa(lp177
Vpages
p178
a(dp179
VNamedEntityTag
p180
g83
sVCharacterOffsetEnd
p181
V47
p182
sVCharacterOffsetBegin
p183
V42
p184
sVPartOfSpeech
p185
VNNS
p186
sVLemma
p187
Vpage
p188
saa(lp189
Vof
p190
a(dp191
VNamedEntityTag
p192
g83
sVCharacterOffsetEnd
p193
V50
p194
sVCharacterOffsetBegin
p195
V48
p196
sVPartOfSpeech
p197
VIN
p198
sVLemma
p199
Vof
p200
saa(lp201
Vreading
p202
a(dp203
VNamedEntityTag
p204
g83
sVCharacterOffsetEnd
p205
V58
p206
sVCharacterOffsetBegin
p207
V51
p208
sVPartOfSpeech
p209
VVBG
p210
sVLemma
p211
Vread
p212
saa(lp213
Vhomework
p214
a(dp215
VNamedEntityTag
p216
g83
sVCharacterOffsetEnd
p217
V67
p218
sVCharacterOffsetBegin
p219
V59
p220
sVPartOfSpeech
p221
VNN
p222
sVLemma
p223
Vhomework
p224
saa(lp225
V.
p226
a(dp227
VNamedEntityTag
p228
g83
sVCharacterOffsetEnd
p229
V69
p230
sVCharacterOffsetBegin
p231
V68
p232
sVPartOfSpeech
p233
g226
sVLemma
p234
g226
saasVindexeddependencies
p235
(lp236
(lp237
Vroot
p238
aVROOT-0
p239
aVhad-2
p240
aa(lp241
Vnsubj
p242
aVhad-2
p243
aVKatie-1
p244
aa(lp245
Vnum
p246
aVpages-4
p247
aV7-3
p248
aa(lp249
Vdobj
p250
aVhad-2
p251
aVpages-4
p252
aa(lp253
Vnn
p254
aVhomework-7
p255
aVmath-6
p256
aa(lp257
Vprep_of
p258
aVpages-4
p259
aVhomework-7
p260
aa(lp261
Vnum
p262
aVpages-10
p263
aV3-9
p264
aa(lp265
Vconj_and
p266
aVpages-4
p267
aVpages-10
p268
aa(lp269
Vprepc_of
p270
aVpages-10
p271
aVreading-12
p272
aa(lp273
Vdobj
p274
aVreading-12
p275
aVhomework-13
p276
aasa(dp277
Vparsetree
p278
V(ROOT (SBARQ (SBAR (IN If) (S (NP (DT each) (NN page)) (VP (VBD had) (NP (NP (CD 9) (NNS problems)) (PP (IN on) (NP (PRP it))))))) (, ,) (WHADVP (WRB how) (NP (JJ many) (NNS problems))) (SQ (VBD did) (NP (PRP she)) (VP (VB have) (PP (TO to) (NP (JJ complete) (NN total))))) (. ?)))
p279
sVtext
p280
VIf each page had 9 problems on it , how many problems did she have to complete total ?
p281
sVdependencies
p282
(lp283
(lp284
Vroot
p285
aVROOT
p286
aVhave
p287
aa(lp288
Vmark
p289
aVhad
p290
aVIf
p291
aa(lp292
Vdet
p293
aVpage
p294
aVeach
p295
aa(lp296
Vnsubj
p297
aVhad
p298
aVpage
p299
aa(lp300
Vadvcl
p301
aVhave
p302
aVhad
p303
aa(lp304
Vnum
p305
aVproblems
p306
aV9
p307
aa(lp308
Vdobj
p309
aVhad
p310
aVproblems
p311
aa(lp312
Vprep_on
p313
aVproblems
p314
aVit
p315
aa(lp316
Vadvmod
p317
aVhave
p318
aVhow
p319
aa(lp320
Vamod
p321
aVproblems
p322
aVmany
p323
aa(lp324
Vdep
p325
aVhow
p326
aVproblems
p327
aa(lp328
Vaux
p329
aVhave
p330
aVdid
p331
aa(lp332
Vnsubj
p333
aVhave
p334
aVshe
p335
aa(lp336
Vamod
p337
aVtotal
p338
aVcomplete
p339
aa(lp340
Vprep_to
p341
aVhave
p342
aVtotal
p343
aasVwords
p344
(lp345
(lp346
VIf
p347
a(dp348
VNamedEntityTag
p349
g83
sVCharacterOffsetEnd
p350
V72
p351
sVCharacterOffsetBegin
p352
V70
p353
sVPartOfSpeech
p354
VIN
p355
sVLemma
p356
Vif
p357
saa(lp358
Veach
p359
a(dp360
VNamedEntityTag
p361
g83
sVCharacterOffsetEnd
p362
V77
p363
sVCharacterOffsetBegin
p364
V73
p365
sVPartOfSpeech
p366
VDT
p367
sVLemma
p368
Veach
p369
saa(lp370
Vpage
p371
a(dp372
VNamedEntityTag
p373
g83
sVCharacterOffsetEnd
p374
V82
p375
sVCharacterOffsetBegin
p376
V78
p377
sVPartOfSpeech
p378
VNN
p379
sVLemma
p380
Vpage
p381
saa(lp382
Vhad
p383
a(dp384
VNamedEntityTag
p385
g83
sVCharacterOffsetEnd
p386
V86
p387
sVCharacterOffsetBegin
p388
V83
p389
sVPartOfSpeech
p390
VVBD
p391
sVLemma
p392
Vhave
p393
saa(lp394
g307
a(dp395
VNormalizedNamedEntityTag
p396
V9.0
p397
sVLemma
p398
g307
sVCharacterOffsetEnd
p399
V88
p400
sVPartOfSpeech
p401
VCD
p402
sVCharacterOffsetBegin
p403
V87
p404
sVNamedEntityTag
p405
VNUMBER
p406
saa(lp407
Vproblems
p408
a(dp409
VNamedEntityTag
p410
g83
sVCharacterOffsetEnd
p411
V97
p412
sVCharacterOffsetBegin
p413
V89
p414
sVPartOfSpeech
p415
VNNS
p416
sVLemma
p417
Vproblem
p418
saa(lp419
Von
p420
a(dp421
VNamedEntityTag
p422
g83
sVCharacterOffsetEnd
p423
V100
p424
sVCharacterOffsetBegin
p425
V98
p426
sVPartOfSpeech
p427
VIN
p428
sVLemma
p429
Von
p430
saa(lp431
Vit
p432
a(dp433
VNamedEntityTag
p434
g83
sVCharacterOffsetEnd
p435
V103
p436
sVCharacterOffsetBegin
p437
V101
p438
sVPartOfSpeech
p439
VPRP
p440
sVLemma
p441
Vit
p442
saa(lp443
V,
p444
a(dp445
VNamedEntityTag
p446
g83
sVCharacterOffsetEnd
p447
V105
p448
sVCharacterOffsetBegin
p449
V104
p450
sVPartOfSpeech
p451
g444
sVLemma
p452
g444
saa(lp453
Vhow
p454
a(dp455
VNamedEntityTag
p456
g83
sVCharacterOffsetEnd
p457
V109
p458
sVCharacterOffsetBegin
p459
V106
p460
sVPartOfSpeech
p461
VWRB
p462
sVLemma
p463
Vhow
p464
saa(lp465
Vmany
p466
a(dp467
VNamedEntityTag
p468
g83
sVCharacterOffsetEnd
p469
V114
p470
sVCharacterOffsetBegin
p471
V110
p472
sVPartOfSpeech
p473
VJJ
p474
sVLemma
p475
Vmany
p476
saa(lp477
Vproblems
p478
a(dp479
VNamedEntityTag
p480
g83
sVCharacterOffsetEnd
p481
V123
p482
sVCharacterOffsetBegin
p483
V115
p484
sVPartOfSpeech
p485
VNNS
p486
sVLemma
p487
Vproblem
p488
saa(lp489
Vdid
p490
a(dp491
VNamedEntityTag
p492
g83
sVCharacterOffsetEnd
p493
V127
p494
sVCharacterOffsetBegin
p495
V124
p496
sVPartOfSpeech
p497
VVBD
p498
sVLemma
p499
Vdo
p500
saa(lp501
Vshe
p502
a(dp503
VNamedEntityTag
p504
g83
sVCharacterOffsetEnd
p505
V131
p506
sVCharacterOffsetBegin
p507
V128
p508
sVPartOfSpeech
p509
VPRP
p510
sVLemma
p511
Vshe
p512
saa(lp513
Vhave
p514
a(dp515
VNamedEntityTag
p516
g83
sVCharacterOffsetEnd
p517
V136
p518
sVCharacterOffsetBegin
p519
V132
p520
sVPartOfSpeech
p521
VVB
p522
sVLemma
p523
Vhave
p524
saa(lp525
Vto
p526
a(dp527
VNamedEntityTag
p528
g83
sVCharacterOffsetEnd
p529
V139
p530
sVCharacterOffsetBegin
p531
V137
p532
sVPartOfSpeech
p533
VTO
p534
sVLemma
p535
Vto
p536
saa(lp537
Vcomplete
p538
a(dp539
VNamedEntityTag
p540
g83
sVCharacterOffsetEnd
p541
V148
p542
sVCharacterOffsetBegin
p543
V140
p544
sVPartOfSpeech
p545
VJJ
p546
sVLemma
p547
Vcomplete
p548
saa(lp549
Vtotal
p550
a(dp551
VNamedEntityTag
p552
g83
sVCharacterOffsetEnd
p553
V154
p554
sVCharacterOffsetBegin
p555
V149
p556
sVPartOfSpeech
p557
VNN
p558
sVLemma
p559
Vtotal
p560
saa(lp561
V?
p562
a(dp563
VNamedEntityTag
p564
g83
sVCharacterOffsetEnd
p565
V156
p566
sVCharacterOffsetBegin
p567
V155
p568
sVPartOfSpeech
p569
g226
sVLemma
p570
g562
saasVindexeddependencies
p571
(lp572
(lp573
Vroot
p574
aVROOT-0
p575
aVhave-15
p576
aa(lp577
Vmark
p578
aVhad-4
p579
aVIf-1
p580
aa(lp581
Vdet
p582
aVpage-3
p583
aVeach-2
p584
aa(lp585
Vnsubj
p586
aVhad-4
p587
aVpage-3
p588
aa(lp589
Vadvcl
p590
aVhave-15
p591
aVhad-4
p592
aa(lp593
Vnum
p594
aVproblems-6
p595
aV9-5
p596
aa(lp597
Vdobj
p598
aVhad-4
p599
aVproblems-6
p600
aa(lp601
Vprep_on
p602
aVproblems-6
p603
aVit-8
p604
aa(lp605
Vadvmod
p606
aVhave-15
p607
aVhow-10
p608
aa(lp609
Vamod
p610
aVproblems-12
p611
aVmany-11
p612
aa(lp613
Vdep
p614
aVhow-10
p615
aVproblems-12
p616
aa(lp617
Vaux
p618
aVhave-15
p619
aVdid-13
p620
aa(lp621
Vnsubj
p622
aVhave-15
p623
aVshe-14
p624
aa(lp625
Vamod
p626
aVtotal-18
p627
aVcomplete-17
p628
aa(lp629
Vprep_to
p630
aVhave-15
p631
aVtotal-18
p632
aasas.