(dp0
Vcoref
p1
(lp2
(lp3
(lp4
(lp5
Vhis
p6
aI0
aI5
aI5
aI6
aa(lp7
VJohn
p8
aI0
aI0
aI0
aI1
aaa(lp9
(lp10
VHe
p11
aI1
aI0
aI0
aI1
aa(lp12
VJohn
p13
aI0
aI0
aI0
aI1
aaa(lp14
(lp15
Vhe
p16
aI2
aI14
aI14
aI15
aa(lp17
VJohn
p18
aI0
aI0
aI0
aI1
aaaa(lp19
(lp20
(lp21
Vthe games
p22
aI2
aI4
aI3
aI5
aa(lp23
V21 games
p24
aI1
aI3
aI2
aI4
aaaasVsentences
p25
(lp26
(dp27
Vparsetree
p28
V(ROOT (S (NP (NNP John)) (VP (VBD was) (VP (VBG trying) (S (VP (TO to) (VP (VB expand) (NP (PRP$ his) (NN game) (NN collection))))))) (. .)))
p29
sVtext
p30
VJohn was trying to expand his game collection .
p31
sVdependencies
p32
(lp33
(lp34
Vroot
p35
aVROOT
p36
aVtrying
p37
aa(lp38
Vnsubj
p39
aVtrying
p40
aVJohn
p41
aa(lp42
Vaux
p43
aVtrying
p44
aVwas
p45
aa(lp46
Vaux
p47
aVexpand
p48
aVto
p49
aa(lp50
Vxcomp
p51
aVtrying
p52
aVexpand
p53
aa(lp54
Vposs
p55
aVcollection
p56
aVhis
p57
aa(lp58
Vnn
p59
aVcollection
p60
aVgame
p61
aa(lp62
Vdobj
p63
aVexpand
p64
aVcollection
p65
aasVwords
p66
(lp67
(lp68
VJohn
p69
a(dp70
VNamedEntityTag
p71
VPERSON
p72
sVCharacterOffsetEnd
p73
V5
p74
sVCharacterOffsetBegin
p75
V1
p76
sVPartOfSpeech
p77
VNNP
p78
sVLemma
p79
VJohn
p80
saa(lp81
Vwas
p82
a(dp83
VNamedEntityTag
p84
VO
p85
sVCharacterOffsetEnd
p86
V9
p87
sVCharacterOffsetBegin
p88
V6
p89
sVPartOfSpeech
p90
VVBD
p91
sVLemma
p92
Vbe
p93
saa(lp94
Vtrying
p95
a(dp96
VNamedEntityTag
p97
g85
sVCharacterOffsetEnd
p98
V16
p99
sVCharacterOffsetBegin
p100
V10
p101
sVPartOfSpeech
p102
VVBG
p103
sVLemma
p104
Vtry
p105
saa(lp106
Vto
p107
a(dp108
VNamedEntityTag
p109
g85
sVCharacterOffsetEnd
p110
V19
p111
sVCharacterOffsetBegin
p112
V17
p113
sVPartOfSpeech
p114
VTO
p115
sVLemma
p116
Vto
p117
saa(lp118
Vexpand
p119
a(dp120
VNamedEntityTag
p121
g85
sVCharacterOffsetEnd
p122
V26
p123
sVCharacterOffsetBegin
p124
V20
p125
sVPartOfSpeech
p126
VVB
p127
sVLemma
p128
Vexpand
p129
saa(lp130
Vhis
p131
a(dp132
VNamedEntityTag
p133
g85
sVCharacterOffsetEnd
p134
V30
p135
sVCharacterOffsetBegin
p136
V27
p137
sVPartOfSpeech
p138
VPRP$
p139
sVLemma
p140
Vhe
p141
saa(lp142
Vgame
p143
a(dp144
VNamedEntityTag
p145
g85
sVCharacterOffsetEnd
p146
V35
p147
sVCharacterOffsetBegin
p148
V31
p149
sVPartOfSpeech
p150
VNN
p151
sVLemma
p152
Vgame
p153
saa(lp154
Vcollection
p155
a(dp156
VNamedEntityTag
p157
g85
sVCharacterOffsetEnd
p158
V46
p159
sVCharacterOffsetBegin
p160
V36
p161
sVPartOfSpeech
p162
VNN
p163
sVLemma
p164
Vcollection
p165
saa(lp166
V.
p167
a(dp168
VNamedEntityTag
p169
g85
sVCharacterOffsetEnd
p170
V48
p171
sVCharacterOffsetBegin
p172
V47
p173
sVPartOfSpeech
p174
g167
sVLemma
p175
g167
saasVindexeddependencies
p176
(lp177
(lp178
Vroot
p179
aVROOT-0
p180
aVtrying-3
p181
aa(lp182
Vnsubj
p183
aVtrying-3
p184
aVJohn-1
p185
aa(lp186
Vaux
p187
aVtrying-3
p188
aVwas-2
p189
aa(lp190
Vaux
p191
aVexpand-5
p192
aVto-4
p193
aa(lp194
Vxcomp
p195
aVtrying-3
p196
aVexpand-5
p197
aa(lp198
Vposs
p199
aVcollection-8
p200
aVhis-6
p201
aa(lp202
Vnn
p203
aVcollection-8
p204
aVgame-7
p205
aa(lp206
Vdobj
p207
aVexpand-5
p208
aVcollection-8
p209
aasa(dp210
Vparsetree
p211
V(ROOT (S (NP (PRP He)) (VP (VP (VBD bought) (NP (CD 21) (NNS games)) (PP (IN from) (NP (DT a) (NN friend)))) (CC and) (VP (VBD bought) (NP (QP (CD 8) (JJR more))) (PP (IN at) (NP (DT a) (NN garage) (NN sale))))) (. .)))
p212
sVtext
p213
VHe bought 21 games from a friend and bought 8 more at a garage sale .
p214
sVdependencies
p215
(lp216
(lp217
Vroot
p218
aVROOT
p219
aVbought
p220
aa(lp221
Vnsubj
p222
aVbought
p223
aVHe
p224
aa(lp225
Vnum
p226
aVgames
p227
aV21
p228
aa(lp229
Vdobj
p230
aVbought
p231
aVgames
p232
aa(lp233
Vdet
p234
aVfriend
p235
aVa
p236
aa(lp237
Vprep_from
p238
aVbought
p239
aVfriend
p240
aa(lp241
Vconj_and
p242
aVbought
p243
aVbought
p244
aa(lp245
Vdobj
p246
aVbought
p247
aV8
p248
aa(lp249
Vquantmod
p250
ag248
aVmore
p251
aa(lp252
Vdet
p253
aVsale
p254
ag236
aa(lp255
Vnn
p256
aVsale
p257
aVgarage
p258
aa(lp259
Vprep_at
p260
aVbought
p261
aVsale
p262
aasVwords
p263
(lp264
(lp265
VHe
p266
a(dp267
VNamedEntityTag
p268
g85
sVCharacterOffsetEnd
p269
V51
p270
sVCharacterOffsetBegin
p271
V49
p272
sVPartOfSpeech
p273
VPRP
p274
sVLemma
p275
Vhe
p276
saa(lp277
Vbought
p278
a(dp279
VNamedEntityTag
p280
g85
sVCharacterOffsetEnd
p281
V58
p282
sVCharacterOffsetBegin
p283
V52
p284
sVPartOfSpeech
p285
VVBD
p286
sVLemma
p287
Vbuy
p288
saa(lp289
V21
p290
a(dp291
VNormalizedNamedEntityTag
p292
V21.0
p293
sVLemma
p294
V21
p295
sVCharacterOffsetEnd
p296
V61
p297
sVPartOfSpeech
p298
VCD
p299
sVCharacterOffsetBegin
p300
V59
p301
sVNamedEntityTag
p302
VNUMBER
p303
saa(lp304
Vgames
p305
a(dp306
VNamedEntityTag
p307
g85
sVCharacterOffsetEnd
p308
V67
p309
sVCharacterOffsetBegin
p310
V62
p311
sVPartOfSpeech
p312
VNNS
p313
sVLemma
p314
Vgame
p315
saa(lp316
Vfrom
p317
a(dp318
VNamedEntityTag
p319
g85
sVCharacterOffsetEnd
p320
V72
p321
sVCharacterOffsetBegin
p322
V68
p323
sVPartOfSpeech
p324
VIN
p325
sVLemma
p326
Vfrom
p327
saa(lp328
g236
a(dp329
VNamedEntityTag
p330
g85
sVCharacterOffsetEnd
p331
V74
p332
sVCharacterOffsetBegin
p333
V73
p334
sVPartOfSpeech
p335
VDT
p336
sVLemma
p337
g236
saa(lp338
Vfriend
p339
a(dp340
VNamedEntityTag
p341
g85
sVCharacterOffsetEnd
p342
V81
p343
sVCharacterOffsetBegin
p344
V75
p345
sVPartOfSpeech
p346
VNN
p347
sVLemma
p348
Vfriend
p349
saa(lp350
Vand
p351
a(dp352
VNamedEntityTag
p353
g85
sVCharacterOffsetEnd
p354
V85
p355
sVCharacterOffsetBegin
p356
V82
p357
sVPartOfSpeech
p358
VCC
p359
sVLemma
p360
Vand
p361
saa(lp362
Vbought
p363
a(dp364
VNamedEntityTag
p365
g85
sVCharacterOffsetEnd
p366
V92
p367
sVCharacterOffsetBegin
p368
V86
p369
sVPartOfSpeech
p370
VVBD
p371
sVLemma
p372
Vbuy
p373
saa(lp374
g248
a(dp375
VNormalizedNamedEntityTag
p376
V8.0
p377
sVLemma
p378
g248
sVCharacterOffsetEnd
p379
V94
p380
sVPartOfSpeech
p381
VCD
p382
sVCharacterOffsetBegin
p383
V93
p384
sVNamedEntityTag
p385
VNUMBER
p386
saa(lp387
Vmore
p388
a(dp389
VNamedEntityTag
p390
g85
sVCharacterOffsetEnd
p391
V99
p392
sVCharacterOffsetBegin
p393
V95
p394
sVPartOfSpeech
p395
VJJR
p396
sVLemma
p397
Vmore
p398
saa(lp399
Vat
p400
a(dp401
VNamedEntityTag
p402
g85
sVCharacterOffsetEnd
p403
V102
p404
sVCharacterOffsetBegin
p405
V100
p406
sVPartOfSpeech
p407
VIN
p408
sVLemma
p409
Vat
p410
saa(lp411
g236
a(dp412
VNamedEntityTag
p413
g85
sVCharacterOffsetEnd
p414
V104
p415
sVCharacterOffsetBegin
p416
V103
p417
sVPartOfSpeech
p418
VDT
p419
sVLemma
p420
g236
saa(lp421
Vgarage
p422
a(dp423
VNamedEntityTag
p424
g85
sVCharacterOffsetEnd
p425
V111
p426
sVCharacterOffsetBegin
p427
V105
p428
sVPartOfSpeech
p429
VNN
p430
sVLemma
p431
Vgarage
p432
saa(lp433
Vsale
p434
a(dp435
VNamedEntityTag
p436
g85
sVCharacterOffsetEnd
p437
V116
p438
sVCharacterOffsetBegin
p439
V112
p440
sVPartOfSpeech
p441
VNN
p442
sVLemma
p443
Vsale
p444
saa(lp445
g167
a(dp446
VNamedEntityTag
p447
g85
sVCharacterOffsetEnd
p448
V118
p449
sVCharacterOffsetBegin
p450
V117
p451
sVPartOfSpeech
p452
g167
sVLemma
p453
g167
saasVindexeddependencies
p454
(lp455
(lp456
Vroot
p457
aVROOT-0
p458
aVbought-2
p459
aa(lp460
Vnsubj
p461
aVbought-2
p462
aVHe-1
p463
aa(lp464
Vnum
p465
aVgames-4
p466
aV21-3
p467
aa(lp468
Vdobj
p469
aVbought-2
p470
aVgames-4
p471
aa(lp472
Vdet
p473
aVfriend-7
p474
aVa-6
p475
aa(lp476
Vprep_from
p477
aVbought-2
p478
aVfriend-7
p479
aa(lp480
Vconj_and
p481
aVbought-2
p482
aVbought-9
p483
aa(lp484
Vdobj
p485
aVbought-9
p486
aV8-10
p487
aa(lp488
Vquantmod
p489
aV8-10
p490
aVmore-11
p491
aa(lp492
Vdet
p493
aVsale-15
p494
aVa-13
p495
aa(lp496
Vnn
p497
aVsale-15
p498
aVgarage-14
p499
aa(lp500
Vprep_at
p501
aVbought-9
p502
aVsale-15
p503
aasa(dp504
Vparsetree
p505
V(ROOT (SBARQ (SBAR (IN If) (S (NP (NP (CD 23)) (PP (IN of) (NP (DT the) (NNS games)))) (VP (VBD did) (RB n't) (VP (VB work))))) (, ,) (WHNP (WHADJP (WRB how) (JJ many)) (JJ good) (NNS games)) (SQ (VBD did) (NP (PRP he)) (VP (VB end) (PRT (RP up)) (PP (IN with)))) (. ?)))
p506
sVtext
p507
VIf 23 of the games didn't work , how many good games did he end up with ?
p508
sVdependencies
p509
(lp510
(lp511
Vroot
p512
aVROOT
p513
aVend
p514
aa(lp515
Vmark
p516
aVwork
p517
aVIf
p518
aa(lp519
Vnsubj
p520
aVwork
p521
aV23
p522
aa(lp523
Vdet
p524
aVgames
p525
aVthe
p526
aa(lp527
Vprep_of
p528
aV23
p529
aVgames
p530
aa(lp531
Vaux
p532
aVwork
p533
aVdid
p534
aa(lp535
Vneg
p536
aVwork
p537
aVn't
p538
aa(lp539
Vadvcl
p540
aVend
p541
aVwork
p542
aa(lp543
Vadvmod
p544
aVmany
p545
aVhow
p546
aa(lp547
Vamod
p548
aVgames
p549
aVmany
p550
aa(lp551
Vamod
p552
aVgames
p553
aVgood
p554
aa(lp555
Vdep
p556
aVend
p557
aVgames
p558
aa(lp559
Vaux
p560
aVend
p561
aVdid
p562
aa(lp563
Vnsubj
p564
aVend
p565
aVhe
p566
aa(lp567
Vprt
p568
aVend
p569
aVup
p570
aa(lp571
Vprep
p572
aVend
p573
aVwith
p574
aasVwords
p575
(lp576
(lp577
VIf
p578
a(dp579
VNamedEntityTag
p580
g85
sVCharacterOffsetEnd
p581
V121
p582
sVCharacterOffsetBegin
p583
V119
p584
sVPartOfSpeech
p585
VIN
p586
sVLemma
p587
Vif
p588
saa(lp589
V23
p590
a(dp591
VNormalizedNamedEntityTag
p592
V23.0
p593
sVLemma
p594
V23
p595
sVCharacterOffsetEnd
p596
V124
p597
sVPartOfSpeech
p598
VCD
p599
sVCharacterOffsetBegin
p600
V122
p601
sVNamedEntityTag
p602
VNUMBER
p603
saa(lp604
Vof
p605
a(dp606
VNamedEntityTag
p607
g85
sVCharacterOffsetEnd
p608
V127
p609
sVCharacterOffsetBegin
p610
V125
p611
sVPartOfSpeech
p612
VIN
p613
sVLemma
p614
Vof
p615
saa(lp616
Vthe
p617
a(dp618
VNamedEntityTag
p619
g85
sVCharacterOffsetEnd
p620
V131
p621
sVCharacterOffsetBegin
p622
V128
p623
sVPartOfSpeech
p624
VDT
p625
sVLemma
p626
Vthe
p627
saa(lp628
Vgames
p629
a(dp630
VNamedEntityTag
p631
g85
sVCharacterOffsetEnd
p632
V137
p633
sVCharacterOffsetBegin
p634
V132
p635
sVPartOfSpeech
p636
VNNS
p637
sVLemma
p638
Vgame
p639
saa(lp640
Vdid
p641
a(dp642
VNamedEntityTag
p643
g85
sVCharacterOffsetEnd
p644
V141
p645
sVCharacterOffsetBegin
p646
V138
p647
sVPartOfSpeech
p648
VVBD
p649
sVLemma
p650
Vdo
p651
saa(lp652
Vn't
p653
a(dp654
VNamedEntityTag
p655
g85
sVCharacterOffsetEnd
p656
V144
p657
sVCharacterOffsetBegin
p658
V141
p659
sVPartOfSpeech
p660
VRB
p661
sVLemma
p662
Vnot
p663
saa(lp664
Vwork
p665
a(dp666
VNamedEntityTag
p667
g85
sVCharacterOffsetEnd
p668
V149
p669
sVCharacterOffsetBegin
p670
V145
p671
sVPartOfSpeech
p672
VVB
p673
sVLemma
p674
Vwork
p675
saa(lp676
V,
p677
a(dp678
VNamedEntityTag
p679
g85
sVCharacterOffsetEnd
p680
V151
p681
sVCharacterOffsetBegin
p682
V150
p683
sVPartOfSpeech
p684
g677
sVLemma
p685
g677
saa(lp686
Vhow
p687
a(dp688
VNamedEntityTag
p689
g85
sVCharacterOffsetEnd
p690
V155
p691
sVCharacterOffsetBegin
p692
V152
p693
sVPartOfSpeech
p694
VWRB
p695
sVLemma
p696
Vhow
p697
saa(lp698
Vmany
p699
a(dp700
VNamedEntityTag
p701
g85
sVCharacterOffsetEnd
p702
V160
p703
sVCharacterOffsetBegin
p704
V156
p705
sVPartOfSpeech
p706
VJJ
p707
sVLemma
p708
Vmany
p709
saa(lp710
Vgood
p711
a(dp712
VNamedEntityTag
p713
g85
sVCharacterOffsetEnd
p714
V165
p715
sVCharacterOffsetBegin
p716
V161
p717
sVPartOfSpeech
p718
VJJ
p719
sVLemma
p720
Vgood
p721
saa(lp722
Vgames
p723
a(dp724
VNamedEntityTag
p725
g85
sVCharacterOffsetEnd
p726
V171
p727
sVCharacterOffsetBegin
p728
V166
p729
sVPartOfSpeech
p730
VNNS
p731
sVLemma
p732
Vgame
p733
saa(lp734
Vdid
p735
a(dp736
VNamedEntityTag
p737
g85
sVCharacterOffsetEnd
p738
V175
p739
sVCharacterOffsetBegin
p740
V172
p741
sVPartOfSpeech
p742
VVBD
p743
sVLemma
p744
Vdo
p745
saa(lp746
Vhe
p747
a(dp748
VNamedEntityTag
p749
g85
sVCharacterOffsetEnd
p750
V178
p751
sVCharacterOffsetBegin
p752
V176
p753
sVPartOfSpeech
p754
VPRP
p755
sVLemma
p756
Vhe
p757
saa(lp758
Vend
p759
a(dp760
VNamedEntityTag
p761
g85
sVCharacterOffsetEnd
p762
V182
p763
sVCharacterOffsetBegin
p764
V179
p765
sVPartOfSpeech
p766
VVB
p767
sVLemma
p768
Vend
p769
saa(lp770
Vup
p771
a(dp772
VNamedEntityTag
p773
g85
sVCharacterOffsetEnd
p774
V185
p775
sVCharacterOffsetBegin
p776
V183
p777
sVPartOfSpeech
p778
VRP
p779
sVLemma
p780
Vup
p781
saa(lp782
Vwith
p783
a(dp784
VNamedEntityTag
p785
g85
sVCharacterOffsetEnd
p786
V190
p787
sVCharacterOffsetBegin
p788
V186
p789
sVPartOfSpeech
p790
VIN
p791
sVLemma
p792
Vwith
p793
saa(lp794
V?
p795
a(dp796
VNamedEntityTag
p797
g85
sVCharacterOffsetEnd
p798
V192
p799
sVCharacterOffsetBegin
p800
V191
p801
sVPartOfSpeech
p802
g167
sVLemma
p803
g795
saasVindexeddependencies
p804
(lp805
(lp806
Vroot
p807
aVROOT-0
p808
aVend-16
p809
aa(lp810
Vmark
p811
aVwork-8
p812
aVIf-1
p813
aa(lp814
Vnsubj
p815
aVwork-8
p816
aV23-2
p817
aa(lp818
Vdet
p819
aVgames-5
p820
aVthe-4
p821
aa(lp822
Vprep_of
p823
aV23-2
p824
aVgames-5
p825
aa(lp826
Vaux
p827
aVwork-8
p828
aVdid-6
p829
aa(lp830
Vneg
p831
aVwork-8
p832
aVn't-7
p833
aa(lp834
Vadvcl
p835
aVend-16
p836
aVwork-8
p837
aa(lp838
Vadvmod
p839
aVmany-11
p840
aVhow-10
p841
aa(lp842
Vamod
p843
aVgames-13
p844
aVmany-11
p845
aa(lp846
Vamod
p847
aVgames-13
p848
aVgood-12
p849
aa(lp850
Vdep
p851
aVend-16
p852
aVgames-13
p853
aa(lp854
Vaux
p855
aVend-16
p856
aVdid-14
p857
aa(lp858
Vnsubj
p859
aVend-16
p860
aVhe-15
p861
aa(lp862
Vprt
p863
aVend-16
p864
aVup-17
p865
aa(lp866
Vprep
p867
aVend-16
p868
aVwith-18
p869
aasas.