(dp0
Vcoref
p1
(lp2
(lp3
(lp4
(lp5
VShe
p6
aI1
aI0
aI0
aI1
aa(lp7
VPamela
p8
aI0
aI0
aI0
aI1
aaaa(lp9
(lp10
(lp11
Vthe drill
p12
aI1
aI6
aI5
aI7
aa(lp13
Van electric drill
p14
aI0
aI4
aI2
aI5
aaaa(lp15
(lp16
(lp17
Vthe regular price
p18
aI2
aI4
aI2
aI5
aa(lp19
Vthe regular price
p20
aI0
aI11
aI9
aI12
aaaasVsentences
p21
(lp22
(dp23
Vparsetree
p24
V(ROOT (S (NP (NNP Pamela)) (VP (VBD bought) (NP (DT an) (JJ electric) (NN drill)) (PP (IN at) (NP (NP (CD 0.85) (NNS times)) (PP (IN of) (NP (DT the) (JJ regular) (NN price)))))) (. .)))
p25
sVtext
p26
VPamela bought an electric drill at 0.85 times of the regular price .
p27
sVdependencies
p28
(lp29
(lp30
Vroot
p31
aVROOT
p32
aVbought
p33
aa(lp34
Vnsubj
p35
aVbought
p36
aVPamela
p37
aa(lp38
Vdet
p39
aVdrill
p40
aVan
p41
aa(lp42
Vamod
p43
aVdrill
p44
aVelectric
p45
aa(lp46
Vdobj
p47
aVbought
p48
aVdrill
p49
aa(lp50
Vnum
p51
aVtimes
p52
aV0.85
p53
aa(lp54
Vprep_at
p55
aVbought
p56
aVtimes
p57
aa(lp58
Vdet
p59
aVprice
p60
aVthe
p61
aa(lp62
Vamod
p63
aVprice
p64
aVregular
p65
aa(lp66
Vprep_of
p67
aVtimes
p68
aVprice
p69
aasVwords
p70
(lp71
(lp72
VPamela
p73
a(dp74
VNamedEntityTag
p75
VPERSON
p76
sVCharacterOffsetEnd
p77
V7
p78
sVCharacterOffsetBegin
p79
V1
p80
sVPartOfSpeech
p81
VNNP
p82
sVLemma
p83
VPamela
p84
saa(lp85
Vbought
p86
a(dp87
VNamedEntityTag
p88
VO
p89
sVCharacterOffsetEnd
p90
V14
p91
sVCharacterOffsetBegin
p92
V8
p93
sVPartOfSpeech
p94
VVBD
p95
sVLemma
p96
Vbuy
p97
saa(lp98
Van
p99
a(dp100
VNamedEntityTag
p101
g89
sVCharacterOffsetEnd
p102
V17
p103
sVCharacterOffsetBegin
p104
V15
p105
sVPartOfSpeech
p106
VDT
p107
sVLemma
p108
Va
p109
saa(lp110
Velectric
p111
a(dp112
VNamedEntityTag
p113
g89
sVCharacterOffsetEnd
p114
V26
p115
sVCharacterOffsetBegin
p116
V18
p117
sVPartOfSpeech
p118
VJJ
p119
sVLemma
p120
Velectric
p121
saa(lp122
Vdrill
p123
a(dp124
VNamedEntityTag
p125
g89
sVCharacterOffsetEnd
p126
V32
p127
sVCharacterOffsetBegin
p128
V27
p129
sVPartOfSpeech
p130
VNN
p131
sVLemma
p132
Vdrill
p133
saa(lp134
Vat
p135
a(dp136
VNamedEntityTag
p137
g89
sVCharacterOffsetEnd
p138
V35
p139
sVCharacterOffsetBegin
p140
V33
p141
sVPartOfSpeech
p142
VIN
p143
sVLemma
p144
Vat
p145
saa(lp146
V0.85
p147
a(dp148
VNormalizedNamedEntityTag
p149
V0.85
p150
sVLemma
p151
V0.85
p152
sVCharacterOffsetEnd
p153
V40
p154
sVPartOfSpeech
p155
VCD
p156
sVCharacterOffsetBegin
p157
V36
p158
sVNamedEntityTag
p159
VNUMBER
p160
saa(lp161
Vtimes
p162
a(dp163
VNamedEntityTag
p164
g89
sVCharacterOffsetEnd
p165
V46
p166
sVCharacterOffsetBegin
p167
V41
p168
sVPartOfSpeech
p169
VNNS
p170
sVLemma
p171
Vtime
p172
saa(lp173
Vof
p174
a(dp175
VNamedEntityTag
p176
g89
sVCharacterOffsetEnd
p177
V49
p178
sVCharacterOffsetBegin
p179
V47
p180
sVPartOfSpeech
p181
VIN
p182
sVLemma
p183
Vof
p184
saa(lp185
Vthe
p186
a(dp187
VNamedEntityTag
p188
g89
sVCharacterOffsetEnd
p189
V53
p190
sVCharacterOffsetBegin
p191
V50
p192
sVPartOfSpeech
p193
VDT
p194
sVLemma
p195
Vthe
p196
saa(lp197
Vregular
p198
a(dp199
VNamedEntityTag
p200
g89
sVCharacterOffsetEnd
p201
V61
p202
sVCharacterOffsetBegin
p203
V54
p204
sVPartOfSpeech
p205
VJJ
p206
sVLemma
p207
Vregular
p208
saa(lp209
Vprice
p210
a(dp211
VNamedEntityTag
p212
g89
sVCharacterOffsetEnd
p213
V67
p214
sVCharacterOffsetBegin
p215
V62
p216
sVPartOfSpeech
p217
VNN
p218
sVLemma
p219
Vprice
p220
saa(lp221
V.
p222
a(dp223
VNamedEntityTag
p224
g89
sVCharacterOffsetEnd
p225
V69
p226
sVCharacterOffsetBegin
p227
V68
p228
sVPartOfSpeech
p229
g222
sVLemma
p230
g222
saasVindexeddependencies
p231
(lp232
(lp233
Vroot
p234
aVROOT-0
p235
aVbought-2
p236
aa(lp237
Vnsubj
p238
aVbought-2
p239
aVPamela-1
p240
aa(lp241
Vdet
p242
aVdrill-5
p243
aVan-3
p244
aa(lp245
Vamod
p246
aVdrill-5
p247
aVelectric-4
p248
aa(lp249
Vdobj
p250
aVbought-2
p251
aVdrill-5
p252
aa(lp253
Vnum
p254
aVtimes-8
p255
aV0.85-7
p256
aa(lp257
Vprep_at
p258
aVbought-2
p259
aVtimes-8
p260
aa(lp261
Vdet
p262
aVprice-12
p263
aVthe-10
p264
aa(lp265
Vamod
p266
aVprice-12
p267
aVregular-11
p268
aa(lp269
Vprep_of
p270
aVtimes-8
p271
aVprice-12
p272
aasa(dp273
Vparsetree
p274
V(ROOT (S (NP (PRP She)) (VP (VBD paid) (NP (NP ($ $) (CD 32.89)) (PP (IN for) (NP (DT the) (NN drill))))) (. .)))
p275
sVtext
p276
VShe paid $32.89 for the drill .
p277
sVdependencies
p278
(lp279
(lp280
Vroot
p281
aVROOT
p282
aVpaid
p283
aa(lp284
Vnsubj
p285
aVpaid
p286
aVShe
p287
aa(lp288
Vdobj
p289
aVpaid
p290
aV$
p291
aa(lp292
Vnum
p293
ag291
aV32.89
p294
aa(lp295
Vdet
p296
aVdrill
p297
aVthe
p298
aa(lp299
Vprep_for
p300
ag291
aVdrill
p301
aasVwords
p302
(lp303
(lp304
VShe
p305
a(dp306
VNamedEntityTag
p307
g89
sVCharacterOffsetEnd
p308
V73
p309
sVCharacterOffsetBegin
p310
V70
p311
sVPartOfSpeech
p312
VPRP
p313
sVLemma
p314
Vshe
p315
saa(lp316
Vpaid
p317
a(dp318
VNamedEntityTag
p319
g89
sVCharacterOffsetEnd
p320
V78
p321
sVCharacterOffsetBegin
p322
V74
p323
sVPartOfSpeech
p324
VVBD
p325
sVLemma
p326
Vpay
p327
saa(lp328
g291
a(dp329
VNormalizedNamedEntityTag
p330
V$32.89
p331
sVLemma
p332
g291
sVCharacterOffsetEnd
p333
V80
p334
sVPartOfSpeech
p335
g291
sVCharacterOffsetBegin
p336
V79
p337
sVNamedEntityTag
p338
VMONEY
p339
saa(lp340
V32.89
p341
a(dp342
VNormalizedNamedEntityTag
p343
V$32.89
p344
sVLemma
p345
V32.89
p346
sVCharacterOffsetEnd
p347
V85
p348
sVPartOfSpeech
p349
VCD
p350
sVCharacterOffsetBegin
p351
V80
p352
sVNamedEntityTag
p353
VMONEY
p354
saa(lp355
Vfor
p356
a(dp357
VNamedEntityTag
p358
g89
sVCharacterOffsetEnd
p359
V89
p360
sVCharacterOffsetBegin
p361
V86
p362
sVPartOfSpeech
p363
VIN
p364
sVLemma
p365
Vfor
p366
saa(lp367
Vthe
p368
a(dp369
VNamedEntityTag
p370
g89
sVCharacterOffsetEnd
p371
V93
p372
sVCharacterOffsetBegin
p373
V90
p374
sVPartOfSpeech
p375
VDT
p376
sVLemma
p377
Vthe
p378
saa(lp379
Vdrill
p380
a(dp381
VNamedEntityTag
p382
g89
sVCharacterOffsetEnd
p383
V99
p384
sVCharacterOffsetBegin
p385
V94
p386
sVPartOfSpeech
p387
VNN
p388
sVLemma
p389
Vdrill
p390
saa(lp391
g222
a(dp392
VNamedEntityTag
p393
g89
sVCharacterOffsetEnd
p394
V101
p395
sVCharacterOffsetBegin
p396
V100
p397
sVPartOfSpeech
p398
g222
sVLemma
p399
g222
saasVindexeddependencies
p400
(lp401
(lp402
Vroot
p403
aVROOT-0
p404
aVpaid-2
p405
aa(lp406
Vnsubj
p407
aVpaid-2
p408
aVShe-1
p409
aa(lp410
Vdobj
p411
aVpaid-2
p412
aV$-3
p413
aa(lp414
Vnum
p415
aV$-3
p416
aV32.89-4
p417
aa(lp418
Vdet
p419
aVdrill-7
p420
aVthe-6
p421
aa(lp422
Vprep_for
p423
aV$-3
p424
aVdrill-7
p425
aasa(dp426
Vparsetree
p427
V(ROOT (SBARQ (WHNP (WP What)) (SQ (VBD was) (NP (DT the) (JJ regular) (NN price))) (. ?)))
p428
sVtext
p429
VWhat was the regular price ?
p430
sVdependencies
p431
(lp432
(lp433
Vroot
p434
aVROOT
p435
aVWhat
p436
aa(lp437
Vcop
p438
aVWhat
p439
aVwas
p440
aa(lp441
Vdet
p442
aVprice
p443
aVthe
p444
aa(lp445
Vamod
p446
aVprice
p447
aVregular
p448
aa(lp449
Vnsubj
p450
aVWhat
p451
aVprice
p452
aasVwords
p453
(lp454
(lp455
VWhat
p456
a(dp457
VNamedEntityTag
p458
g89
sVCharacterOffsetEnd
p459
V106
p460
sVCharacterOffsetBegin
p461
V102
p462
sVPartOfSpeech
p463
VWP
p464
sVLemma
p465
Vwhat
p466
saa(lp467
Vwas
p468
a(dp469
VNamedEntityTag
p470
g89
sVCharacterOffsetEnd
p471
V110
p472
sVCharacterOffsetBegin
p473
V107
p474
sVPartOfSpeech
p475
VVBD
p476
sVLemma
p477
Vbe
p478
saa(lp479
Vthe
p480
a(dp481
VNamedEntityTag
p482
g89
sVCharacterOffsetEnd
p483
V114
p484
sVCharacterOffsetBegin
p485
V111
p486
sVPartOfSpeech
p487
VDT
p488
sVLemma
p489
Vthe
p490
saa(lp491
Vregular
p492
a(dp493
VNamedEntityTag
p494
g89
sVCharacterOffsetEnd
p495
V122
p496
sVCharacterOffsetBegin
p497
V115
p498
sVPartOfSpeech
p499
VJJ
p500
sVLemma
p501
Vregular
p502
saa(lp503
Vprice
p504
a(dp505
VNamedEntityTag
p506
g89
sVCharacterOffsetEnd
p507
V128
p508
sVCharacterOffsetBegin
p509
V123
p510
sVPartOfSpeech
p511
VNN
p512
sVLemma
p513
Vprice
p514
saa(lp515
V?
p516
a(dp517
VNamedEntityTag
p518
g89
sVCharacterOffsetEnd
p519
V130
p520
sVCharacterOffsetBegin
p521
V129
p522
sVPartOfSpeech
p523
g222
sVLemma
p524
g516
saasVindexeddependencies
p525
(lp526
(lp527
Vroot
p528
aVROOT-0
p529
aVWhat-1
p530
aa(lp531
Vcop
p532
aVWhat-1
p533
aVwas-2
p534
aa(lp535
Vdet
p536
aVprice-5
p537
aVthe-3
p538
aa(lp539
Vamod
p540
aVprice-5
p541
aVregular-4
p542
aa(lp543
Vnsubj
p544
aVWhat-1
p545
aVprice-5
p546
aasas.