(dp0
Vcoref
p1
(lp2
(lp3
(lp4
(lp5
V2
p6
aI0
aI10
aI10
aI11
aa(lp7
g6
aI0
aI2
aI2
aI3
aaaa(lp8
(lp9
(lp10
Vthey
p11
aI1
aI11
aI11
aI12
aa(lp12
V2 friends playing a video game online when 2 more players joined the game
p13
aI0
aI3
aI2
aI16
aaaa(lp14
(lp15
(lp16
Vthe game
p17
aI0
aI15
aI14
aI16
aa(lp18
Va video game
p19
aI0
aI7
aI5
aI8
aaaasVsentences
p20
(lp21
(dp22
Vparsetree
p23
V(ROOT (S (NP (EX There)) (VP (VBD were) (NP (NP (CD 2) (NNS friends)) (VP (VBG playing) (NP (DT a) (NN video) (NN game)) (PP (NN online)) (SBAR (WHADVP (WRB when)) (S (NP (CD 2) (JJR more) (NNS players)) (VP (VBD joined) (NP (DT the) (NN game)))))))) (. .)))
p24
sVtext
p25
VThere were 2 friends playing a video game online when 2 more players joined the game .
p26
sVdependencies
p27
(lp28
(lp29
Vroot
p30
aVROOT
p31
aVwere
p32
aa(lp33
Vexpl
p34
aVwere
p35
aVThere
p36
aa(lp37
Vnum
p38
aVfriends
p39
ag6
aa(lp40
Vnsubj
p41
aVwere
p42
aVfriends
p43
aa(lp44
Vvmod
p45
aVfriends
p46
aVplaying
p47
aa(lp48
Vdet
p49
aVgame
p50
aVa
p51
aa(lp52
Vnn
p53
aVgame
p54
aVvideo
p55
aa(lp56
Vdobj
p57
aVplaying
p58
aVgame
p59
aa(lp60
Vprep
p61
aVplaying
p62
aVonline
p63
aa(lp64
Vadvmod
p65
aVjoined
p66
aVwhen
p67
aa(lp68
Vnum
p69
aVplayers
p70
ag6
aa(lp71
Vamod
p72
aVplayers
p73
aVmore
p74
aa(lp75
Vnsubj
p76
aVjoined
p77
aVplayers
p78
aa(lp79
Vadvcl
p80
aVplaying
p81
aVjoined
p82
aa(lp83
Vdet
p84
aVgame
p85
aVthe
p86
aa(lp87
Vdobj
p88
aVjoined
p89
aVgame
p90
aasVwords
p91
(lp92
(lp93
VThere
p94
a(dp95
VNamedEntityTag
p96
VO
p97
sVCharacterOffsetEnd
p98
V6
p99
sVCharacterOffsetBegin
p100
V1
p101
sVPartOfSpeech
p102
VEX
p103
sVLemma
p104
Vthere
p105
saa(lp106
Vwere
p107
a(dp108
VNamedEntityTag
p109
g97
sVCharacterOffsetEnd
p110
V11
p111
sVCharacterOffsetBegin
p112
V7
p113
sVPartOfSpeech
p114
VVBD
p115
sVLemma
p116
Vbe
p117
saa(lp118
g6
a(dp119
VNormalizedNamedEntityTag
p120
V2.0
p121
sVLemma
p122
g6
sVCharacterOffsetEnd
p123
V13
p124
sVPartOfSpeech
p125
VCD
p126
sVCharacterOffsetBegin
p127
V12
p128
sVNamedEntityTag
p129
VNUMBER
p130
saa(lp131
Vfriends
p132
a(dp133
VNamedEntityTag
p134
g97
sVCharacterOffsetEnd
p135
V21
p136
sVCharacterOffsetBegin
p137
V14
p138
sVPartOfSpeech
p139
VNNS
p140
sVLemma
p141
Vfriend
p142
saa(lp143
Vplaying
p144
a(dp145
VNamedEntityTag
p146
g97
sVCharacterOffsetEnd
p147
V29
p148
sVCharacterOffsetBegin
p149
V22
p150
sVPartOfSpeech
p151
VVBG
p152
sVLemma
p153
Vplay
p154
saa(lp155
g51
a(dp156
VNamedEntityTag
p157
g97
sVCharacterOffsetEnd
p158
V31
p159
sVCharacterOffsetBegin
p160
V30
p161
sVPartOfSpeech
p162
VDT
p163
sVLemma
p164
g51
saa(lp165
Vvideo
p166
a(dp167
VNamedEntityTag
p168
g97
sVCharacterOffsetEnd
p169
V37
p170
sVCharacterOffsetBegin
p171
V32
p172
sVPartOfSpeech
p173
VNN
p174
sVLemma
p175
Vvideo
p176
saa(lp177
Vgame
p178
a(dp179
VNamedEntityTag
p180
g97
sVCharacterOffsetEnd
p181
V42
p182
sVCharacterOffsetBegin
p183
V38
p184
sVPartOfSpeech
p185
VNN
p186
sVLemma
p187
Vgame
p188
saa(lp189
Vonline
p190
a(dp191
VNamedEntityTag
p192
g97
sVCharacterOffsetEnd
p193
V49
p194
sVCharacterOffsetBegin
p195
V43
p196
sVPartOfSpeech
p197
VNN
p198
sVLemma
p199
Vonline
p200
saa(lp201
Vwhen
p202
a(dp203
VNamedEntityTag
p204
g97
sVCharacterOffsetEnd
p205
V54
p206
sVCharacterOffsetBegin
p207
V50
p208
sVPartOfSpeech
p209
VWRB
p210
sVLemma
p211
Vwhen
p212
saa(lp213
g6
a(dp214
VNormalizedNamedEntityTag
p215
V2.0
p216
sVLemma
p217
g6
sVCharacterOffsetEnd
p218
V56
p219
sVPartOfSpeech
p220
VCD
p221
sVCharacterOffsetBegin
p222
V55
p223
sVNamedEntityTag
p224
VNUMBER
p225
saa(lp226
Vmore
p227
a(dp228
VNamedEntityTag
p229
g97
sVCharacterOffsetEnd
p230
V61
p231
sVCharacterOffsetBegin
p232
V57
p233
sVPartOfSpeech
p234
VJJR
p235
sVLemma
p236
Vmore
p237
saa(lp238
Vplayers
p239
a(dp240
VNamedEntityTag
p241
g97
sVCharacterOffsetEnd
p242
V69
p243
sVCharacterOffsetBegin
p244
V62
p245
sVPartOfSpeech
p246
VNNS
p247
sVLemma
p248
Vplayer
p249
saa(lp250
Vjoined
p251
a(dp252
VNamedEntityTag
p253
g97
sVCharacterOffsetEnd
p254
V76
p255
sVCharacterOffsetBegin
p256
V70
p257
sVPartOfSpeech
p258
VVBD
p259
sVLemma
p260
Vjoin
p261
saa(lp262
Vthe
p263
a(dp264
VNamedEntityTag
p265
g97
sVCharacterOffsetEnd
p266
V80
p267
sVCharacterOffsetBegin
p268
V77
p269
sVPartOfSpeech
p270
VDT
p271
sVLemma
p272
Vthe
p273
saa(lp274
Vgame
p275
a(dp276
VNamedEntityTag
p277
g97
sVCharacterOffsetEnd
p278
V85
p279
sVCharacterOffsetBegin
p280
V81
p281
sVPartOfSpeech
p282
VNN
p283
sVLemma
p284
Vgame
p285
saa(lp286
V.
p287
a(dp288
VNamedEntityTag
p289
g97
sVCharacterOffsetEnd
p290
V87
p291
sVCharacterOffsetBegin
p292
V86
p293
sVPartOfSpeech
p294
g287
sVLemma
p295
g287
saasVindexeddependencies
p296
(lp297
(lp298
Vroot
p299
aVROOT-0
p300
aVwere-2
p301
aa(lp302
Vexpl
p303
aVwere-2
p304
aVThere-1
p305
aa(lp306
Vnum
p307
aVfriends-4
p308
aV2-3
p309
aa(lp310
Vnsubj
p311
aVwere-2
p312
aVfriends-4
p313
aa(lp314
Vvmod
p315
aVfriends-4
p316
aVplaying-5
p317
aa(lp318
Vdet
p319
aVgame-8
p320
aVa-6
p321
aa(lp322
Vnn
p323
aVgame-8
p324
aVvideo-7
p325
aa(lp326
Vdobj
p327
aVplaying-5
p328
aVgame-8
p329
aa(lp330
Vprep
p331
aVplaying-5
p332
aVonline-9
p333
aa(lp334
Vadvmod
p335
aVjoined-14
p336
aVwhen-10
p337
aa(lp338
Vnum
p339
aVplayers-13
p340
aV2-11
p341
aa(lp342
Vamod
p343
aVplayers-13
p344
aVmore-12
p345
aa(lp346
Vnsubj
p347
aVjoined-14
p348
aVplayers-13
p349
aa(lp350
Vadvcl
p351
aVplaying-5
p352
aVjoined-14
p353
aa(lp354
Vdet
p355
aVgame-16
p356
aVthe-15
p357
aa(lp358
Vdobj
p359
aVjoined-14
p360
aVgame-16
p361
aasa(dp362
Vparsetree
p363
V(ROOT (SBARQ (SBAR (IN If) (S (NP (DT each) (NN player)) (VP (VBD had) (NP (CD 6) (NNS lives))))) (, ,) (WHNP (WHADJP (WRB how) (JJ many)) (NNS lives)) (SQ (VBD did) (NP (PRP they)) (VP (VBP have) (NP (JJ total)))) (. ?)))
p364
sVtext
p365
VIf each player had 6 lives , how many lives did they have total ?
p366
sVdependencies
p367
(lp368
(lp369
Vroot
p370
aVROOT
p371
aVhave
p372
aa(lp373
Vmark
p374
aVhad
p375
aVIf
p376
aa(lp377
Vdet
p378
aVplayer
p379
aVeach
p380
aa(lp381
Vnsubj
p382
aVhad
p383
aVplayer
p384
aa(lp385
Vadvcl
p386
aVhave
p387
aVhad
p388
aa(lp389
Vnum
p390
aVlives
p391
ag99
aa(lp392
Vdobj
p393
aVhad
p394
aVlives
p395
aa(lp396
Vadvmod
p397
aVmany
p398
aVhow
p399
aa(lp400
Vamod
p401
aVlives
p402
aVmany
p403
aa(lp404
Vdep
p405
aVhave
p406
aVlives
p407
aa(lp408
Vaux
p409
aVhave
p410
aVdid
p411
aa(lp412
Vnsubj
p413
aVhave
p414
aVthey
p415
aa(lp416
Vdobj
p417
aVhave
p418
aVtotal
p419
aasVwords
p420
(lp421
(lp422
VIf
p423
a(dp424
VNamedEntityTag
p425
g97
sVCharacterOffsetEnd
p426
V90
p427
sVCharacterOffsetBegin
p428
V88
p429
sVPartOfSpeech
p430
VIN
p431
sVLemma
p432
Vif
p433
saa(lp434
Veach
p435
a(dp436
VNamedEntityTag
p437
g97
sVCharacterOffsetEnd
p438
V95
p439
sVCharacterOffsetBegin
p440
V91
p441
sVPartOfSpeech
p442
VDT
p443
sVLemma
p444
Veach
p445
saa(lp446
Vplayer
p447
a(dp448
VNamedEntityTag
p449
g97
sVCharacterOffsetEnd
p450
V102
p451
sVCharacterOffsetBegin
p452
V96
p453
sVPartOfSpeech
p454
VNN
p455
sVLemma
p456
Vplayer
p457
saa(lp458
Vhad
p459
a(dp460
VNamedEntityTag
p461
g97
sVCharacterOffsetEnd
p462
V106
p463
sVCharacterOffsetBegin
p464
V103
p465
sVPartOfSpeech
p466
VVBD
p467
sVLemma
p468
Vhave
p469
saa(lp470
g99
a(dp471
VNormalizedNamedEntityTag
p472
V6.0
p473
sVLemma
p474
g99
sVCharacterOffsetEnd
p475
V108
p476
sVPartOfSpeech
p477
VCD
p478
sVCharacterOffsetBegin
p479
V107
p480
sVNamedEntityTag
p481
VNUMBER
p482
saa(lp483
Vlives
p484
a(dp485
VNamedEntityTag
p486
g97
sVCharacterOffsetEnd
p487
V114
p488
sVCharacterOffsetBegin
p489
V109
p490
sVPartOfSpeech
p491
VNNS
p492
sVLemma
p493
Vlife
p494
saa(lp495
V,
p496
a(dp497
VNamedEntityTag
p498
g97
sVCharacterOffsetEnd
p499
V116
p500
sVCharacterOffsetBegin
p501
V115
p502
sVPartOfSpeech
p503
g496
sVLemma
p504
g496
saa(lp505
Vhow
p506
a(dp507
VNamedEntityTag
p508
g97
sVCharacterOffsetEnd
p509
V120
p510
sVCharacterOffsetBegin
p511
V117
p512
sVPartOfSpeech
p513
VWRB
p514
sVLemma
p515
Vhow
p516
saa(lp517
Vmany
p518
a(dp519
VNamedEntityTag
p520
g97
sVCharacterOffsetEnd
p521
V125
p522
sVCharacterOffsetBegin
p523
V121
p524
sVPartOfSpeech
p525
VJJ
p526
sVLemma
p527
Vmany
p528
saa(lp529
Vlives
p530
a(dp531
VNamedEntityTag
p532
g97
sVCharacterOffsetEnd
p533
V131
p534
sVCharacterOffsetBegin
p535
V126
p536
sVPartOfSpeech
p537
VNNS
p538
sVLemma
p539
Vlife
p540
saa(lp541
Vdid
p542
a(dp543
VNamedEntityTag
p544
g97
sVCharacterOffsetEnd
p545
V135
p546
sVCharacterOffsetBegin
p547
V132
p548
sVPartOfSpeech
p549
VVBD
p550
sVLemma
p551
Vdo
p552
saa(lp553
Vthey
p554
a(dp555
VNamedEntityTag
p556
g97
sVCharacterOffsetEnd
p557
V140
p558
sVCharacterOffsetBegin
p559
V136
p560
sVPartOfSpeech
p561
VPRP
p562
sVLemma
p563
Vthey
p564
saa(lp565
Vhave
p566
a(dp567
VNamedEntityTag
p568
g97
sVCharacterOffsetEnd
p569
V145
p570
sVCharacterOffsetBegin
p571
V141
p572
sVPartOfSpeech
p573
VVBP
p574
sVLemma
p575
Vhave
p576
saa(lp577
Vtotal
p578
a(dp579
VNamedEntityTag
p580
g97
sVCharacterOffsetEnd
p581
V151
p582
sVCharacterOffsetBegin
p583
V146
p584
sVPartOfSpeech
p585
VJJ
p586
sVLemma
p587
Vtotal
p588
saa(lp589
V?
p590
a(dp591
VNamedEntityTag
p592
g97
sVCharacterOffsetEnd
p593
V153
p594
sVCharacterOffsetBegin
p595
V152
p596
sVPartOfSpeech
p597
g287
sVLemma
p598
g590
saasVindexeddependencies
p599
(lp600
(lp601
Vroot
p602
aVROOT-0
p603
aVhave-13
p604
aa(lp605
Vmark
p606
aVhad-4
p607
aVIf-1
p608
aa(lp609
Vdet
p610
aVplayer-3
p611
aVeach-2
p612
aa(lp613
Vnsubj
p614
aVhad-4
p615
aVplayer-3
p616
aa(lp617
Vadvcl
p618
aVhave-13
p619
aVhad-4
p620
aa(lp621
Vnum
p622
aVlives-6
p623
aV6-5
p624
aa(lp625
Vdobj
p626
aVhad-4
p627
aVlives-6
p628
aa(lp629
Vadvmod
p630
aVmany-9
p631
aVhow-8
p632
aa(lp633
Vamod
p634
aVlives-10
p635
aVmany-9
p636
aa(lp637
Vdep
p638
aVhave-13
p639
aVlives-10
p640
aa(lp641
Vaux
p642
aVhave-13
p643
aVdid-11
p644
aa(lp645
Vnsubj
p646
aVhave-13
p647
aVthey-12
p648
aa(lp649
Vdobj
p650
aVhave-13
p651
aVtotal-14
p652
aasas.