(dp0
Vcoref
p1
(lp2
(lp3
(lp4
(lp5
VGreg
p6
aI1
aI0
aI0
aI1
aa(lp7
VGreg
p8
aI0
aI0
aI0
aI1
aaa(lp9
(lp10
VGreg
p11
aI2
aI5
aI5
aI6
aa(lp12
VGreg
p13
aI0
aI0
aI0
aI1
aaaa(lp14
(lp15
(lp16
VSharon
p17
aI1
aI11
aI11
aI12
aa(lp18
VSharon
p19
aI0
aI2
aI2
aI3
aaa(lp20
(lp21
VSharon
p22
aI2
aI8
aI8
aI9
aa(lp23
VSharon
p24
aI0
aI2
aI2
aI3
aaaasVsentences
p25
(lp26
(dp27
Vparsetree
p28
V(ROOT (NP (NP (NP (NNP Greg)) (CC and) (NP (NNP Sharon) (JJ own) (VBG neighboring) (NNS cornfields))) (. .)))
p29
sVtext
p30
VGreg and Sharon own neighboring cornfields .
p31
sVdependencies
p32
(lp33
(lp34
Vroot
p35
aVROOT
p36
aVGreg
p37
aa(lp38
Vnn
p39
aVcornfields
p40
aVSharon
p41
aa(lp42
Vamod
p43
aVcornfields
p44
aVown
p45
aa(lp46
Vamod
p47
aVcornfields
p48
aVneighboring
p49
aa(lp50
Vconj_and
p51
aVGreg
p52
aVcornfields
p53
aasVwords
p54
(lp55
(lp56
VGreg
p57
a(dp58
VNamedEntityTag
p59
VPERSON
p60
sVCharacterOffsetEnd
p61
V5
p62
sVCharacterOffsetBegin
p63
V1
p64
sVPartOfSpeech
p65
VNNP
p66
sVLemma
p67
VGreg
p68
saa(lp69
Vand
p70
a(dp71
VNamedEntityTag
p72
VO
p73
sVCharacterOffsetEnd
p74
V9
p75
sVCharacterOffsetBegin
p76
V6
p77
sVPartOfSpeech
p78
VCC
p79
sVLemma
p80
Vand
p81
saa(lp82
VSharon
p83
a(dp84
VNamedEntityTag
p85
VPERSON
p86
sVCharacterOffsetEnd
p87
V16
p88
sVCharacterOffsetBegin
p89
V10
p90
sVPartOfSpeech
p91
VNNP
p92
sVLemma
p93
VSharon
p94
saa(lp95
Vown
p96
a(dp97
VNamedEntityTag
p98
g73
sVCharacterOffsetEnd
p99
V20
p100
sVCharacterOffsetBegin
p101
V17
p102
sVPartOfSpeech
p103
VJJ
p104
sVLemma
p105
Vown
p106
saa(lp107
Vneighboring
p108
a(dp109
VNamedEntityTag
p110
g73
sVCharacterOffsetEnd
p111
V32
p112
sVCharacterOffsetBegin
p113
V21
p114
sVPartOfSpeech
p115
VVBG
p116
sVLemma
p117
Vneighbor
p118
saa(lp119
Vcornfields
p120
a(dp121
VNamedEntityTag
p122
g73
sVCharacterOffsetEnd
p123
V43
p124
sVCharacterOffsetBegin
p125
V33
p126
sVPartOfSpeech
p127
VNNS
p128
sVLemma
p129
Vcornfield
p130
saa(lp131
V.
p132
a(dp133
VNamedEntityTag
p134
g73
sVCharacterOffsetEnd
p135
V45
p136
sVCharacterOffsetBegin
p137
V44
p138
sVPartOfSpeech
p139
g132
sVLemma
p140
g132
saasVindexeddependencies
p141
(lp142
(lp143
Vroot
p144
aVROOT-0
p145
aVGreg-1
p146
aa(lp147
Vnn
p148
aVcornfields-6
p149
aVSharon-3
p150
aa(lp151
Vamod
p152
aVcornfields-6
p153
aVown-4
p154
aa(lp155
Vamod
p156
aVcornfields-6
p157
aVneighboring-5
p158
aa(lp159
Vconj_and
p160
aVGreg-1
p161
aVcornfields-6
p162
aasa(dp163
Vparsetree
p164
V(ROOT (S (NP (NNP Greg)) (VP (VBD harvested) (SBAR (S (NP (NP (CD 0.4)) (PP (IN of) (NP (NP (DT an) (NN acre)) (PP (IN of) (NP (NP (NN corn)) (PP (IN on) (NP (NNP Monday) (CC and) (NNP Sharon)))))))) (VP (VBD harvested) (NP (NP (CD 0.1)) (PP (IN of) (NP (DT an) (NN acre)))))))) (. .)))
p165
sVtext
p166
VGreg harvested 0.4 of an acre of corn on Monday and Sharon harvested 0.1 of an acre .
p167
sVdependencies
p168
(lp169
(lp170
Vroot
p171
aVROOT
p172
aVharvested
p173
aa(lp174
Vnsubj
p175
aVharvested
p176
aVGreg
p177
aa(lp178
Vnsubj
p179
aVharvested
p180
aV0.4
p181
aa(lp182
Vdet
p183
aVacre
p184
aVan
p185
aa(lp186
Vprep_of
p187
aV0.4
p188
aVacre
p189
aa(lp190
Vprep_of
p191
aVacre
p192
aVcorn
p193
aa(lp194
Vprep_on
p195
aVcorn
p196
aVMonday
p197
aa(lp198
Vconj_and
p199
aVMonday
p200
aVSharon
p201
aa(lp202
Vccomp
p203
aVharvested
p204
aVharvested
p205
aa(lp206
Vdobj
p207
aVharvested
p208
aV0.1
p209
aa(lp210
Vdet
p211
aVacre
p212
aVan
p213
aa(lp214
Vprep_of
p215
aV0.1
p216
aVacre
p217
aasVwords
p218
(lp219
(lp220
VGreg
p221
a(dp222
VNamedEntityTag
p223
VPERSON
p224
sVCharacterOffsetEnd
p225
V50
p226
sVCharacterOffsetBegin
p227
V46
p228
sVPartOfSpeech
p229
VNNP
p230
sVLemma
p231
VGreg
p232
saa(lp233
Vharvested
p234
a(dp235
VNamedEntityTag
p236
g73
sVCharacterOffsetEnd
p237
V60
p238
sVCharacterOffsetBegin
p239
V51
p240
sVPartOfSpeech
p241
VVBD
p242
sVLemma
p243
Vharvest
p244
saa(lp245
V0.4
p246
a(dp247
VNormalizedNamedEntityTag
p248
V0.4
p249
sVLemma
p250
V0.4
p251
sVCharacterOffsetEnd
p252
V64
p253
sVPartOfSpeech
p254
VCD
p255
sVCharacterOffsetBegin
p256
V61
p257
sVNamedEntityTag
p258
VNUMBER
p259
saa(lp260
Vof
p261
a(dp262
VNamedEntityTag
p263
g73
sVCharacterOffsetEnd
p264
V67
p265
sVCharacterOffsetBegin
p266
V65
p267
sVPartOfSpeech
p268
VIN
p269
sVLemma
p270
Vof
p271
saa(lp272
Van
p273
a(dp274
VNamedEntityTag
p275
g73
sVCharacterOffsetEnd
p276
V70
p277
sVCharacterOffsetBegin
p278
V68
p279
sVPartOfSpeech
p280
VDT
p281
sVLemma
p282
Va
p283
saa(lp284
Vacre
p285
a(dp286
VNamedEntityTag
p287
g73
sVCharacterOffsetEnd
p288
V75
p289
sVCharacterOffsetBegin
p290
V71
p291
sVPartOfSpeech
p292
VNN
p293
sVLemma
p294
Vacre
p295
saa(lp296
Vof
p297
a(dp298
VNamedEntityTag
p299
g73
sVCharacterOffsetEnd
p300
V78
p301
sVCharacterOffsetBegin
p302
V76
p303
sVPartOfSpeech
p304
VIN
p305
sVLemma
p306
Vof
p307
saa(lp308
Vcorn
p309
a(dp310
VNamedEntityTag
p311
g73
sVCharacterOffsetEnd
p312
V83
p313
sVCharacterOffsetBegin
p314
V79
p315
sVPartOfSpeech
p316
VNN
p317
sVLemma
p318
Vcorn
p319
saa(lp320
Von
p321
a(dp322
VNamedEntityTag
p323
g73
sVCharacterOffsetEnd
p324
V86
p325
sVCharacterOffsetBegin
p326
V84
p327
sVPartOfSpeech
p328
VIN
p329
sVLemma
p330
Von
p331
saa(lp332
VMonday
p333
a(dp334
VNormalizedNamedEntityTag
p335
VXXXX-WXX-1
p336
sVTimex
p337
V<TIMEX3 tid="t1" type="DATE" value="XXXX-WXX-1">Monday</TIMEX3>
p338
sVLemma
p339
VMonday
p340
sVCharacterOffsetEnd
p341
V93
p342
sVPartOfSpeech
p343
VNNP
p344
sVCharacterOffsetBegin
p345
V87
p346
sVNamedEntityTag
p347
VDATE
p348
saa(lp349
Vand
p350
a(dp351
VNamedEntityTag
p352
g73
sVCharacterOffsetEnd
p353
V97
p354
sVCharacterOffsetBegin
p355
V94
p356
sVPartOfSpeech
p357
VCC
p358
sVLemma
p359
Vand
p360
saa(lp361
VSharon
p362
a(dp363
VNamedEntityTag
p364
VPERSON
p365
sVCharacterOffsetEnd
p366
V104
p367
sVCharacterOffsetBegin
p368
V98
p369
sVPartOfSpeech
p370
VNNP
p371
sVLemma
p372
VSharon
p373
saa(lp374
Vharvested
p375
a(dp376
VNamedEntityTag
p377
g73
sVCharacterOffsetEnd
p378
V114
p379
sVCharacterOffsetBegin
p380
V105
p381
sVPartOfSpeech
p382
VVBD
p383
sVLemma
p384
Vharvest
p385
saa(lp386
V0.1
p387
a(dp388
VNormalizedNamedEntityTag
p389
V0.1
p390
sVLemma
p391
V0.1
p392
sVCharacterOffsetEnd
p393
V118
p394
sVPartOfSpeech
p395
VCD
p396
sVCharacterOffsetBegin
p397
V115
p398
sVNamedEntityTag
p399
VNUMBER
p400
saa(lp401
Vof
p402
a(dp403
VNamedEntityTag
p404
g73
sVCharacterOffsetEnd
p405
V121
p406
sVCharacterOffsetBegin
p407
V119
p408
sVPartOfSpeech
p409
VIN
p410
sVLemma
p411
Vof
p412
saa(lp413
Van
p414
a(dp415
VNamedEntityTag
p416
g73
sVCharacterOffsetEnd
p417
V124
p418
sVCharacterOffsetBegin
p419
V122
p420
sVPartOfSpeech
p421
VDT
p422
sVLemma
p423
g283
saa(lp424
Vacre
p425
a(dp426
VNamedEntityTag
p427
g73
sVCharacterOffsetEnd
p428
V129
p429
sVCharacterOffsetBegin
p430
V125
p431
sVPartOfSpeech
p432
VNN
p433
sVLemma
p434
Vacre
p435
saa(lp436
g132
a(dp437
VNamedEntityTag
p438
g73
sVCharacterOffsetEnd
p439
V131
p440
sVCharacterOffsetBegin
p441
V130
p442
sVPartOfSpeech
p443
g132
sVLemma
p444
g132
saasVindexeddependencies
p445
(lp446
(lp447
Vroot
p448
aVROOT-0
p449
aVharvested-2
p450
aa(lp451
Vnsubj
p452
aVharvested-2
p453
aVGreg-1
p454
aa(lp455
Vnsubj
p456
aVharvested-13
p457
aV0.4-3
p458
aa(lp459
Vdet
p460
aVacre-6
p461
aVan-5
p462
aa(lp463
Vprep_of
p464
aV0.4-3
p465
aVacre-6
p466
aa(lp467
Vprep_of
p468
aVacre-6
p469
aVcorn-8
p470
aa(lp471
Vprep_on
p472
aVcorn-8
p473
aVMonday-10
p474
aa(lp475
Vconj_and
p476
aVMonday-10
p477
aVSharon-12
p478
aa(lp479
Vccomp
p480
aVharvested-2
p481
aVharvested-13
p482
aa(lp483
Vdobj
p484
aVharvested-13
p485
aV0.1-14
p486
aa(lp487
Vdet
p488
aVacre-17
p489
aVan-16
p490
aa(lp491
Vprep_of
p492
aV0.1-14
p493
aVacre-17
p494
aasa(dp495
Vparsetree
p496
V(ROOT (SBARQ (WHNP (WHADJP (WHADJP (WRB How) (JJ many)) (JJR more)) (NNS acres)) (SQ (VP (VBD did) (NP (NNP Greg) (NN harvest)) (PP (IN than) (NP (NNP Sharon))))) (. ?)))
p497
sVtext
p498
VHow many more acres did Greg harvest than Sharon ?
p499
sVdependencies
p500
(lp501
(lp502
Vroot
p503
aVROOT
p504
aVdid
p505
aa(lp506
Vadvmod
p507
aVmany
p508
aVHow
p509
aa(lp510
Vdep
p511
aVmore
p512
aVmany
p513
aa(lp514
Vamod
p515
aVacres
p516
aVmore
p517
aa(lp518
Vnsubj
p519
aVdid
p520
aVacres
p521
aa(lp522
Vnn
p523
aVharvest
p524
aVGreg
p525
aa(lp526
Vdobj
p527
aVdid
p528
aVharvest
p529
aa(lp530
Vprep_than
p531
aVdid
p532
aVSharon
p533
aasVwords
p534
(lp535
(lp536
VHow
p537
a(dp538
VNamedEntityTag
p539
g73
sVCharacterOffsetEnd
p540
V135
p541
sVCharacterOffsetBegin
p542
V132
p543
sVPartOfSpeech
p544
VWRB
p545
sVLemma
p546
Vhow
p547
saa(lp548
Vmany
p549
a(dp550
VNamedEntityTag
p551
g73
sVCharacterOffsetEnd
p552
V140
p553
sVCharacterOffsetBegin
p554
V136
p555
sVPartOfSpeech
p556
VJJ
p557
sVLemma
p558
Vmany
p559
saa(lp560
Vmore
p561
a(dp562
VNamedEntityTag
p563
g73
sVCharacterOffsetEnd
p564
V145
p565
sVCharacterOffsetBegin
p566
V141
p567
sVPartOfSpeech
p568
VJJR
p569
sVLemma
p570
Vmore
p571
saa(lp572
Vacres
p573
a(dp574
VNamedEntityTag
p575
g73
sVCharacterOffsetEnd
p576
V151
p577
sVCharacterOffsetBegin
p578
V146
p579
sVPartOfSpeech
p580
VNNS
p581
sVLemma
p582
Vacre
p583
saa(lp584
Vdid
p585
a(dp586
VNamedEntityTag
p587
g73
sVCharacterOffsetEnd
p588
V155
p589
sVCharacterOffsetBegin
p590
V152
p591
sVPartOfSpeech
p592
VVBD
p593
sVLemma
p594
Vdo
p595
saa(lp596
VGreg
p597
a(dp598
VNamedEntityTag
p599
VPERSON
p600
sVCharacterOffsetEnd
p601
V160
p602
sVCharacterOffsetBegin
p603
V156
p604
sVPartOfSpeech
p605
VNNP
p606
sVLemma
p607
VGreg
p608
saa(lp609
Vharvest
p610
a(dp611
VNamedEntityTag
p612
g73
sVCharacterOffsetEnd
p613
V168
p614
sVCharacterOffsetBegin
p615
V161
p616
sVPartOfSpeech
p617
VNN
p618
sVLemma
p619
Vharvest
p620
saa(lp621
Vthan
p622
a(dp623
VNamedEntityTag
p624
g73
sVCharacterOffsetEnd
p625
V173
p626
sVCharacterOffsetBegin
p627
V169
p628
sVPartOfSpeech
p629
VIN
p630
sVLemma
p631
Vthan
p632
saa(lp633
VSharon
p634
a(dp635
VNamedEntityTag
p636
VPERSON
p637
sVCharacterOffsetEnd
p638
V180
p639
sVCharacterOffsetBegin
p640
V174
p641
sVPartOfSpeech
p642
VNNP
p643
sVLemma
p644
VSharon
p645
saa(lp646
V?
p647
a(dp648
VNamedEntityTag
p649
g73
sVCharacterOffsetEnd
p650
V182
p651
sVCharacterOffsetBegin
p652
V181
p653
sVPartOfSpeech
p654
g132
sVLemma
p655
g647
saasVindexeddependencies
p656
(lp657
(lp658
Vroot
p659
aVROOT-0
p660
aVdid-5
p661
aa(lp662
Vadvmod
p663
aVmany-2
p664
aVHow-1
p665
aa(lp666
Vdep
p667
aVmore-3
p668
aVmany-2
p669
aa(lp670
Vamod
p671
aVacres-4
p672
aVmore-3
p673
aa(lp674
Vnsubj
p675
aVdid-5
p676
aVacres-4
p677
aa(lp678
Vnn
p679
aVharvest-7
p680
aVGreg-6
p681
aa(lp682
Vdobj
p683
aVdid-5
p684
aVharvest-7
p685
aa(lp686
Vprep_than
p687
aVdid-5
p688
aVSharon-9
p689
aasas.