(dp0
Vcoref
p1
(lp2
(lp3
(lp4
(lp5
Vit
p6
aI1
aI2
aI2
aI3
aa(lp7
VA container ship
p8
aI0
aI2
aI0
aI3
aaa(lp9
(lp10
Vthe ship
p11
aI2
aI11
aI10
aI12
aa(lp12
VA container ship
p13
aI0
aI2
aI0
aI3
aaa(lp14
(lp15
Vthe ship now
p16
aI3
aI9
aI8
aI11
aa(lp17
VA container ship
p18
aI0
aI2
aI0
aI3
aaaa(lp19
(lp20
(lp21
Vthe weight of the goods on the ship
p22
aI2
aI5
aI4
aI12
aa(lp23
Vthe weight of the goods on the ship now
p24
aI3
aI3
aI2
aI11
aaaa(lp25
(lp26
(lp27
Vthe goods on the ship
p28
aI2
aI8
aI7
aI12
aa(lp29
Vthe goods on the ship now
p30
aI3
aI6
aI5
aI11
aaaasVsentences
p31
(lp32
(dp33
Vparsetree
p34
V(ROOT (S (NP (DT A) (NN container) (NN ship)) (VP (VBD left) (NP (NN port)) (NP-TMP (JJ last) (NN week)) (S (VP (VBG carrying) (NP (DT some) (NNS goods)) (S (VP (VBG weighing) (NP (NP (DT a) (NN total)) (PP (IN of) (NP (CD 421,800) (NNS tons))))))))) (. .)))
p35
sVtext
p36
VA container ship left port last week carrying some goods weighing a total of 421,800 tons .
p37
sVdependencies
p38
(lp39
(lp40
Vroot
p41
aVROOT
p42
aVleft
p43
aa(lp44
Vdet
p45
aVship
p46
aVA
p47
aa(lp48
Vnn
p49
aVship
p50
aVcontainer
p51
aa(lp52
Vnsubj
p53
aVleft
p54
aVship
p55
aa(lp56
Vdobj
p57
aVleft
p58
aVport
p59
aa(lp60
Vamod
p61
aVweek
p62
aVlast
p63
aa(lp64
Vtmod
p65
aVleft
p66
aVweek
p67
aa(lp68
Vxcomp
p69
aVleft
p70
aVcarrying
p71
aa(lp72
Vdet
p73
aVgoods
p74
aVsome
p75
aa(lp76
Vdobj
p77
aVcarrying
p78
aVgoods
p79
aa(lp80
Vvmod
p81
aVcarrying
p82
aVweighing
p83
aa(lp84
Vdet
p85
aVtotal
p86
aVa
p87
aa(lp88
Vdobj
p89
aVweighing
p90
aVtotal
p91
aa(lp92
Vnum
p93
aVtons
p94
aV421,800
p95
aa(lp96
Vprep_of
p97
aVtotal
p98
aVtons
p99
aasVwords
p100
(lp101
(lp102
g47
a(dp103
VNamedEntityTag
p104
VO
p105
sVCharacterOffsetEnd
p106
V2
p107
sVCharacterOffsetBegin
p108
V1
p109
sVPartOfSpeech
p110
VDT
p111
sVLemma
p112
g87
saa(lp113
Vcontainer
p114
a(dp115
VNamedEntityTag
p116
g105
sVCharacterOffsetEnd
p117
V12
p118
sVCharacterOffsetBegin
p119
V3
p120
sVPartOfSpeech
p121
VNN
p122
sVLemma
p123
Vcontainer
p124
saa(lp125
Vship
p126
a(dp127
VNamedEntityTag
p128
g105
sVCharacterOffsetEnd
p129
V17
p130
sVCharacterOffsetBegin
p131
V13
p132
sVPartOfSpeech
p133
VNN
p134
sVLemma
p135
Vship
p136
saa(lp137
Vleft
p138
a(dp139
VNamedEntityTag
p140
g105
sVCharacterOffsetEnd
p141
V22
p142
sVCharacterOffsetBegin
p143
V18
p144
sVPartOfSpeech
p145
VVBD
p146
sVLemma
p147
Vleave
p148
saa(lp149
Vport
p150
a(dp151
VNamedEntityTag
p152
g105
sVCharacterOffsetEnd
p153
V27
p154
sVCharacterOffsetBegin
p155
V23
p156
sVPartOfSpeech
p157
VNN
p158
sVLemma
p159
Vport
p160
saa(lp161
Vlast
p162
a(dp163
VNormalizedNamedEntityTag
p164
VTHIS
p165
sVTimex
p166
V<TIMEX3 alt_value="THIS P1W OFFSET P-1W" anchorTimeID="t2" temporalFunction="true" tid="t1" type="DATE" valueFromFunction="tf0">last week</TIMEX3>
p167
sVLemma
p168
Vlast
p169
sVCharacterOffsetEnd
p170
V32
p171
sVPartOfSpeech
p172
VJJ
p173
sVCharacterOffsetBegin
p174
V28
p175
sVNamedEntityTag
p176
VDATE
p177
saa(lp178
Vweek
p179
a(dp180
VNormalizedNamedEntityTag
p181
VTHIS
p182
sVTimex
p183
V<TIMEX3 alt_value="THIS P1W OFFSET P-1W" anchorTimeID="t2" temporalFunction="true" tid="t1" type="DATE" valueFromFunction="tf0">last week</TIMEX3>
p184
sVLemma
p185
Vweek
p186
sVCharacterOffsetEnd
p187
V37
p188
sVPartOfSpeech
p189
VNN
p190
sVCharacterOffsetBegin
p191
V33
p192
sVNamedEntityTag
p193
VDATE
p194
saa(lp195
Vcarrying
p196
a(dp197
VNamedEntityTag
p198
g105
sVCharacterOffsetEnd
p199
V46
p200
sVCharacterOffsetBegin
p201
V38
p202
sVPartOfSpeech
p203
VVBG
p204
sVLemma
p205
Vcarry
p206
saa(lp207
Vsome
p208
a(dp209
VNamedEntityTag
p210
g105
sVCharacterOffsetEnd
p211
V51
p212
sVCharacterOffsetBegin
p213
V47
p214
sVPartOfSpeech
p215
VDT
p216
sVLemma
p217
Vsome
p218
saa(lp219
Vgoods
p220
a(dp221
VNamedEntityTag
p222
g105
sVCharacterOffsetEnd
p223
V57
p224
sVCharacterOffsetBegin
p225
V52
p226
sVPartOfSpeech
p227
VNNS
p228
sVLemma
p229
Vgoods
p230
saa(lp231
Vweighing
p232
a(dp233
VNamedEntityTag
p234
g105
sVCharacterOffsetEnd
p235
V66
p236
sVCharacterOffsetBegin
p237
V58
p238
sVPartOfSpeech
p239
VVBG
p240
sVLemma
p241
Vweigh
p242
saa(lp243
g87
a(dp244
VNamedEntityTag
p245
g105
sVCharacterOffsetEnd
p246
V68
p247
sVCharacterOffsetBegin
p248
V67
p249
sVPartOfSpeech
p250
VDT
p251
sVLemma
p252
g87
saa(lp253
Vtotal
p254
a(dp255
VNamedEntityTag
p256
g105
sVCharacterOffsetEnd
p257
V74
p258
sVCharacterOffsetBegin
p259
V69
p260
sVPartOfSpeech
p261
VNN
p262
sVLemma
p263
Vtotal
p264
saa(lp265
Vof
p266
a(dp267
VNamedEntityTag
p268
g105
sVCharacterOffsetEnd
p269
V77
p270
sVCharacterOffsetBegin
p271
V75
p272
sVPartOfSpeech
p273
VIN
p274
sVLemma
p275
Vof
p276
saa(lp277
V421,800
p278
a(dp279
VNormalizedNamedEntityTag
p280
V421800.0
p281
sVLemma
p282
V421,800
p283
sVCharacterOffsetEnd
p284
V85
p285
sVPartOfSpeech
p286
VCD
p287
sVCharacterOffsetBegin
p288
V78
p289
sVNamedEntityTag
p290
VNUMBER
p291
saa(lp292
Vtons
p293
a(dp294
VNamedEntityTag
p295
g105
sVCharacterOffsetEnd
p296
V90
p297
sVCharacterOffsetBegin
p298
V86
p299
sVPartOfSpeech
p300
VNNS
p301
sVLemma
p302
Vton
p303
saa(lp304
V.
p305
a(dp306
VNamedEntityTag
p307
g105
sVCharacterOffsetEnd
p308
V92
p309
sVCharacterOffsetBegin
p310
V91
p311
sVPartOfSpeech
p312
g305
sVLemma
p313
g305
saasVindexeddependencies
p314
(lp315
(lp316
Vroot
p317
aVROOT-0
p318
aVleft-4
p319
aa(lp320
Vdet
p321
aVship-3
p322
aVA-1
p323
aa(lp324
Vnn
p325
aVship-3
p326
aVcontainer-2
p327
aa(lp328
Vnsubj
p329
aVleft-4
p330
aVship-3
p331
aa(lp332
Vdobj
p333
aVleft-4
p334
aVport-5
p335
aa(lp336
Vamod
p337
aVweek-7
p338
aVlast-6
p339
aa(lp340
Vtmod
p341
aVleft-4
p342
aVweek-7
p343
aa(lp344
Vxcomp
p345
aVleft-4
p346
aVcarrying-8
p347
aa(lp348
Vdet
p349
aVgoods-10
p350
aVsome-9
p351
aa(lp352
Vdobj
p353
aVcarrying-8
p354
aVgoods-10
p355
aa(lp356
Vvmod
p357
aVcarrying-8
p358
aVweighing-11
p359
aa(lp360
Vdet
p361
aVtotal-13
p362
aVa-12
p363
aa(lp364
Vdobj
p365
aVweighing-11
p366
aVtotal-13
p367
aa(lp368
Vnum
p369
aVtons-16
p370
aV421,800-15
p371
aa(lp372
Vprep_of
p373
aVtotal-13
p374
aVtons-16
p375
aasa(dp376
Vparsetree
p377
V(ROOT (S (NP-TMP (NN Today)) (, ,) (NP (PRP it)) (VP (VBD stopped) (PRT (RP in)) (NP (DT another) (NN port) (S (VP (TO to) (VP (VB unload)))))) (. .)))
p378
sVtext
p379
VToday , it stopped in another port to unload .
p380
sVdependencies
p381
(lp382
(lp383
Vroot
p384
aVROOT
p385
aVstopped
p386
aa(lp387
Vtmod
p388
aVstopped
p389
aVToday
p390
aa(lp391
Vnsubj
p392
aVstopped
p393
aVit
p394
aa(lp395
Vprt
p396
aVstopped
p397
aVin
p398
aa(lp399
Vdet
p400
aVport
p401
aVanother
p402
aa(lp403
Vdobj
p404
aVstopped
p405
aVport
p406
aa(lp407
Vaux
p408
aVunload
p409
aVto
p410
aa(lp411
Vvmod
p412
aVport
p413
aVunload
p414
aasVwords
p415
(lp416
(lp417
VToday
p418
a(dp419
VNormalizedNamedEntityTag
p420
VTHIS
p421
sVTimex
p422
V<TIMEX3 alt_value="THIS P1D" anchorTimeID="t0" temporalFunction="true" tid="t3" type="DATE" valueFromFunction="tf1">Today</TIMEX3>
p423
sVLemma
p424
Vtoday
p425
sVCharacterOffsetEnd
p426
V98
p427
sVPartOfSpeech
p428
VNN
p429
sVCharacterOffsetBegin
p430
V93
p431
sVNamedEntityTag
p432
VDATE
p433
saa(lp434
V,
p435
a(dp436
VNamedEntityTag
p437
g105
sVCharacterOffsetEnd
p438
V100
p439
sVCharacterOffsetBegin
p440
V99
p441
sVPartOfSpeech
p442
g435
sVLemma
p443
g435
saa(lp444
Vit
p445
a(dp446
VNamedEntityTag
p447
g105
sVCharacterOffsetEnd
p448
V103
p449
sVCharacterOffsetBegin
p450
V101
p451
sVPartOfSpeech
p452
VPRP
p453
sVLemma
p454
Vit
p455
saa(lp456
Vstopped
p457
a(dp458
VNamedEntityTag
p459
g105
sVCharacterOffsetEnd
p460
V111
p461
sVCharacterOffsetBegin
p462
V104
p463
sVPartOfSpeech
p464
VVBD
p465
sVLemma
p466
Vstop
p467
saa(lp468
Vin
p469
a(dp470
VNamedEntityTag
p471
g105
sVCharacterOffsetEnd
p472
V114
p473
sVCharacterOffsetBegin
p474
V112
p475
sVPartOfSpeech
p476
VRP
p477
sVLemma
p478
Vin
p479
saa(lp480
Vanother
p481
a(dp482
VNamedEntityTag
p483
g105
sVCharacterOffsetEnd
p484
V122
p485
sVCharacterOffsetBegin
p486
V115
p487
sVPartOfSpeech
p488
VDT
p489
sVLemma
p490
Vanother
p491
saa(lp492
Vport
p493
a(dp494
VNamedEntityTag
p495
g105
sVCharacterOffsetEnd
p496
V127
p497
sVCharacterOffsetBegin
p498
V123
p499
sVPartOfSpeech
p500
VNN
p501
sVLemma
p502
Vport
p503
saa(lp504
Vto
p505
a(dp506
VNamedEntityTag
p507
g105
sVCharacterOffsetEnd
p508
V130
p509
sVCharacterOffsetBegin
p510
V128
p511
sVPartOfSpeech
p512
VTO
p513
sVLemma
p514
Vto
p515
saa(lp516
Vunload
p517
a(dp518
VNamedEntityTag
p519
g105
sVCharacterOffsetEnd
p520
V137
p521
sVCharacterOffsetBegin
p522
V131
p523
sVPartOfSpeech
p524
VVB
p525
sVLemma
p526
Vunload
p527
saa(lp528
g305
a(dp529
VNamedEntityTag
p530
g105
sVCharacterOffsetEnd
p531
V139
p532
sVCharacterOffsetBegin
p533
V138
p534
sVPartOfSpeech
p535
g305
sVLemma
p536
g305
saasVindexeddependencies
p537
(lp538
(lp539
Vroot
p540
aVROOT-0
p541
aVstopped-4
p542
aa(lp543
Vtmod
p544
aVstopped-4
p545
aVToday-1
p546
aa(lp547
Vnsubj
p548
aVstopped-4
p549
aVit-3
p550
aa(lp551
Vprt
p552
aVstopped-4
p553
aVin-5
p554
aa(lp555
Vdet
p556
aVport-7
p557
aVanother-6
p558
aa(lp559
Vdobj
p560
aVstopped-4
p561
aVport-7
p562
aa(lp563
Vaux
p564
aVunload-9
p565
aVto-8
p566
aa(lp567
Vvmod
p568
aVport-7
p569
aVunload-9
p570
aasa(dp571
Vparsetree
p572
V(ROOT (S (PP (IN As) (NP (DT a) (NN result))) (, ,) (NP (NP (DT the) (NN weight)) (PP (IN of) (NP (NP (DT the) (NNS goods)) (PP (IN on) (NP (DT the) (NN ship)))))) (VP (VBN decreased) (PP (IN by) (NP (QP (CD 0.94) (NNS times))))) (. .)))
p573
sVtext
p574
VAs a result , the weight of the goods on the ship decreased by 0.94 times .
p575
sVdependencies
p576
(lp577
(lp578
Vroot
p579
aVROOT
p580
aVdecreased
p581
aa(lp582
Vdet
p583
aVresult
p584
ag87
aa(lp585
Vprep_as
p586
aVdecreased
p587
aVresult
p588
aa(lp589
Vdet
p590
aVweight
p591
aVthe
p592
aa(lp593
Vnsubj
p594
aVdecreased
p595
aVweight
p596
aa(lp597
Vdet
p598
aVgoods
p599
aVthe
p600
aa(lp601
Vprep_of
p602
aVweight
p603
aVgoods
p604
aa(lp605
Vdet
p606
aVship
p607
aVthe
p608
aa(lp609
Vprep_on
p610
aVgoods
p611
aVship
p612
aa(lp613
Vnumber
p614
aVtimes
p615
aV0.94
p616
aa(lp617
Vprep_by
p618
aVdecreased
p619
aVtimes
p620
aasVwords
p621
(lp622
(lp623
VAs
p624
a(dp625
VNamedEntityTag
p626
g105
sVCharacterOffsetEnd
p627
V142
p628
sVCharacterOffsetBegin
p629
V140
p630
sVPartOfSpeech
p631
VIN
p632
sVLemma
p633
Vas
p634
saa(lp635
g87
a(dp636
VNamedEntityTag
p637
g105
sVCharacterOffsetEnd
p638
V144
p639
sVCharacterOffsetBegin
p640
V143
p641
sVPartOfSpeech
p642
VDT
p643
sVLemma
p644
g87
saa(lp645
Vresult
p646
a(dp647
VNamedEntityTag
p648
g105
sVCharacterOffsetEnd
p649
V151
p650
sVCharacterOffsetBegin
p651
V145
p652
sVPartOfSpeech
p653
VNN
p654
sVLemma
p655
Vresult
p656
saa(lp657
g435
a(dp658
VNamedEntityTag
p659
g105
sVCharacterOffsetEnd
p660
V153
p661
sVCharacterOffsetBegin
p662
V152
p663
sVPartOfSpeech
p664
g435
sVLemma
p665
g435
saa(lp666
Vthe
p667
a(dp668
VNamedEntityTag
p669
g105
sVCharacterOffsetEnd
p670
V157
p671
sVCharacterOffsetBegin
p672
V154
p673
sVPartOfSpeech
p674
VDT
p675
sVLemma
p676
Vthe
p677
saa(lp678
Vweight
p679
a(dp680
VNamedEntityTag
p681
g105
sVCharacterOffsetEnd
p682
V164
p683
sVCharacterOffsetBegin
p684
V158
p685
sVPartOfSpeech
p686
VNN
p687
sVLemma
p688
Vweight
p689
saa(lp690
Vof
p691
a(dp692
VNamedEntityTag
p693
g105
sVCharacterOffsetEnd
p694
V167
p695
sVCharacterOffsetBegin
p696
V165
p697
sVPartOfSpeech
p698
VIN
p699
sVLemma
p700
Vof
p701
saa(lp702
Vthe
p703
a(dp704
VNamedEntityTag
p705
g105
sVCharacterOffsetEnd
p706
V171
p707
sVCharacterOffsetBegin
p708
V168
p709
sVPartOfSpeech
p710
VDT
p711
sVLemma
p712
Vthe
p713
saa(lp714
Vgoods
p715
a(dp716
VNamedEntityTag
p717
g105
sVCharacterOffsetEnd
p718
V177
p719
sVCharacterOffsetBegin
p720
V172
p721
sVPartOfSpeech
p722
VNNS
p723
sVLemma
p724
Vgoods
p725
saa(lp726
Von
p727
a(dp728
VNamedEntityTag
p729
g105
sVCharacterOffsetEnd
p730
V180
p731
sVCharacterOffsetBegin
p732
V178
p733
sVPartOfSpeech
p734
VIN
p735
sVLemma
p736
Von
p737
saa(lp738
Vthe
p739
a(dp740
VNamedEntityTag
p741
g105
sVCharacterOffsetEnd
p742
V184
p743
sVCharacterOffsetBegin
p744
V181
p745
sVPartOfSpeech
p746
VDT
p747
sVLemma
p748
Vthe
p749
saa(lp750
Vship
p751
a(dp752
VNamedEntityTag
p753
g105
sVCharacterOffsetEnd
p754
V189
p755
sVCharacterOffsetBegin
p756
V185
p757
sVPartOfSpeech
p758
VNN
p759
sVLemma
p760
Vship
p761
saa(lp762
Vdecreased
p763
a(dp764
VNamedEntityTag
p765
g105
sVCharacterOffsetEnd
p766
V199
p767
sVCharacterOffsetBegin
p768
V190
p769
sVPartOfSpeech
p770
VVBN
p771
sVLemma
p772
Vdecrease
p773
saa(lp774
Vby
p775
a(dp776
VNamedEntityTag
p777
g105
sVCharacterOffsetEnd
p778
V202
p779
sVCharacterOffsetBegin
p780
V200
p781
sVPartOfSpeech
p782
VIN
p783
sVLemma
p784
Vby
p785
saa(lp786
V0.94
p787
a(dp788
VNormalizedNamedEntityTag
p789
V0.94
p790
sVLemma
p791
V0.94
p792
sVCharacterOffsetEnd
p793
V207
p794
sVPartOfSpeech
p795
VCD
p796
sVCharacterOffsetBegin
p797
V203
p798
sVNamedEntityTag
p799
VNUMBER
p800
saa(lp801
Vtimes
p802
a(dp803
VNamedEntityTag
p804
g105
sVCharacterOffsetEnd
p805
V213
p806
sVCharacterOffsetBegin
p807
V208
p808
sVPartOfSpeech
p809
VNNS
p810
sVLemma
p811
Vtime
p812
saa(lp813
g305
a(dp814
VNamedEntityTag
p815
g105
sVCharacterOffsetEnd
p816
V215
p817
sVCharacterOffsetBegin
p818
V214
p819
sVPartOfSpeech
p820
g305
sVLemma
p821
g305
saasVindexeddependencies
p822
(lp823
(lp824
Vroot
p825
aVROOT-0
p826
aVdecreased-13
p827
aa(lp828
Vdet
p829
aVresult-3
p830
aVa-2
p831
aa(lp832
Vprep_as
p833
aVdecreased-13
p834
aVresult-3
p835
aa(lp836
Vdet
p837
aVweight-6
p838
aVthe-5
p839
aa(lp840
Vnsubj
p841
aVdecreased-13
p842
aVweight-6
p843
aa(lp844
Vdet
p845
aVgoods-9
p846
aVthe-8
p847
aa(lp848
Vprep_of
p849
aVweight-6
p850
aVgoods-9
p851
aa(lp852
Vdet
p853
aVship-12
p854
aVthe-11
p855
aa(lp856
Vprep_on
p857
aVgoods-9
p858
aVship-12
p859
aa(lp860
Vnumber
p861
aVtimes-16
p862
aV0.94-15
p863
aa(lp864
Vprep_by
p865
aVdecreased-13
p866
aVtimes-16
p867
aasa(dp868
Vparsetree
p869
V(ROOT (SBARQ (WHNP (WP What)) (SQ (VBZ is) (NP (NP (DT the) (NN weight)) (PP (IN of) (NP (NP (DT the) (NNS goods)) (PP (IN on) (NP (NP (DT the) (NN ship)) (ADVP (RB now)))))))) (. ?)))
p870
sVtext
p871
VWhat is the weight of the goods on the ship now ?
p872
sVdependencies
p873
(lp874
(lp875
Vroot
p876
aVROOT
p877
aVWhat
p878
aa(lp879
Vcop
p880
aVWhat
p881
aVis
p882
aa(lp883
Vdet
p884
aVweight
p885
aVthe
p886
aa(lp887
Vnsubj
p888
aVWhat
p889
aVweight
p890
aa(lp891
Vdet
p892
aVgoods
p893
aVthe
p894
aa(lp895
Vprep_of
p896
aVweight
p897
aVgoods
p898
aa(lp899
Vdet
p900
aVship
p901
aVthe
p902
aa(lp903
Vprep_on
p904
aVgoods
p905
aVship
p906
aa(lp907
Vadvmod
p908
aVship
p909
aVnow
p910
aasVwords
p911
(lp912
(lp913
VWhat
p914
a(dp915
VNamedEntityTag
p916
g105
sVCharacterOffsetEnd
p917
V220
p918
sVCharacterOffsetBegin
p919
V216
p920
sVPartOfSpeech
p921
VWP
p922
sVLemma
p923
Vwhat
p924
saa(lp925
Vis
p926
a(dp927
VNamedEntityTag
p928
g105
sVCharacterOffsetEnd
p929
V223
p930
sVCharacterOffsetBegin
p931
V221
p932
sVPartOfSpeech
p933
VVBZ
p934
sVLemma
p935
Vbe
p936
saa(lp937
Vthe
p938
a(dp939
VNamedEntityTag
p940
g105
sVCharacterOffsetEnd
p941
V227
p942
sVCharacterOffsetBegin
p943
V224
p944
sVPartOfSpeech
p945
VDT
p946
sVLemma
p947
Vthe
p948
saa(lp949
Vweight
p950
a(dp951
VNamedEntityTag
p952
g105
sVCharacterOffsetEnd
p953
V234
p954
sVCharacterOffsetBegin
p955
V228
p956
sVPartOfSpeech
p957
VNN
p958
sVLemma
p959
Vweight
p960
saa(lp961
Vof
p962
a(dp963
VNamedEntityTag
p964
g105
sVCharacterOffsetEnd
p965
V237
p966
sVCharacterOffsetBegin
p967
V235
p968
sVPartOfSpeech
p969
VIN
p970
sVLemma
p971
Vof
p972
saa(lp973
Vthe
p974
a(dp975
VNamedEntityTag
p976
g105
sVCharacterOffsetEnd
p977
V241
p978
sVCharacterOffsetBegin
p979
V238
p980
sVPartOfSpeech
p981
VDT
p982
sVLemma
p983
Vthe
p984
saa(lp985
Vgoods
p986
a(dp987
VNamedEntityTag
p988
g105
sVCharacterOffsetEnd
p989
V247
p990
sVCharacterOffsetBegin
p991
V242
p992
sVPartOfSpeech
p993
VNNS
p994
sVLemma
p995
Vgoods
p996
saa(lp997
Von
p998
a(dp999
VNamedEntityTag
p1000
g105
sVCharacterOffsetEnd
p1001
V250
p1002
sVCharacterOffsetBegin
p1003
V248
p1004
sVPartOfSpeech
p1005
VIN
p1006
sVLemma
p1007
Von
p1008
saa(lp1009
Vthe
p1010
a(dp1011
VNamedEntityTag
p1012
g105
sVCharacterOffsetEnd
p1013
V254
p1014
sVCharacterOffsetBegin
p1015
V251
p1016
sVPartOfSpeech
p1017
VDT
p1018
sVLemma
p1019
Vthe
p1020
saa(lp1021
Vship
p1022
a(dp1023
VNamedEntityTag
p1024
g105
sVCharacterOffsetEnd
p1025
V259
p1026
sVCharacterOffsetBegin
p1027
V255
p1028
sVPartOfSpeech
p1029
VNN
p1030
sVLemma
p1031
Vship
p1032
saa(lp1033
Vnow
p1034
a(dp1035
VNormalizedNamedEntityTag
p1036
VPRESENT_REF
p1037
sVTimex
p1038
V<TIMEX3 tid="t4" type="DATE" value="PRESENT_REF">now</TIMEX3>
p1039
sVLemma
p1040
Vnow
p1041
sVCharacterOffsetEnd
p1042
V263
p1043
sVPartOfSpeech
p1044
VRB
p1045
sVCharacterOffsetBegin
p1046
V260
p1047
sVNamedEntityTag
p1048
VDATE
p1049
saa(lp1050
V?
p1051
a(dp1052
VNamedEntityTag
p1053
g105
sVCharacterOffsetEnd
p1054
V265
p1055
sVCharacterOffsetBegin
p1056
V264
p1057
sVPartOfSpeech
p1058
g305
sVLemma
p1059
g1051
saasVindexeddependencies
p1060
(lp1061
(lp1062
Vroot
p1063
aVROOT-0
p1064
aVWhat-1
p1065
aa(lp1066
Vcop
p1067
aVWhat-1
p1068
aVis-2
p1069
aa(lp1070
Vdet
p1071
aVweight-4
p1072
aVthe-3
p1073
aa(lp1074
Vnsubj
p1075
aVWhat-1
p1076
aVweight-4
p1077
aa(lp1078
Vdet
p1079
aVgoods-7
p1080
aVthe-6
p1081
aa(lp1082
Vprep_of
p1083
aVweight-4
p1084
aVgoods-7
p1085
aa(lp1086
Vdet
p1087
aVship-10
p1088
aVthe-9
p1089
aa(lp1090
Vprep_on
p1091
aVgoods-7
p1092
aVship-10
p1093
aa(lp1094
Vadvmod
p1095
aVship-10
p1096
aVnow-11
p1097
aasas.