(dp0
Vcoref
p1
(lp2
(lp3
(lp4
(lp5
VPaige
p6
aI2
aI7
aI7
aI8
aa(lp7
VPaige
p8
aI0
aI0
aI0
aI1
aaaa(lp9
(lp10
(lp11
VShe
p12
aI1
aI0
aI0
aI1
aa(lp13
Vsome of her old winter clothes
p14
aI0
aI3
aI3
aI9
aaaa(lp15
(lp16
(lp17
V5
p18
aI1
aI15
aI15
aI16
aa(lp19
g18
aI1
aI12
aI12
aI13
aaaasVsentences
p20
(lp21
(dp22
Vparsetree
p23
V(ROOT (S (NP (NNP Paige)) (VP (VBD was) (VP (VBG unboxing) (NP (NP (DT some)) (PP (IN of) (NP (PRP$ her) (JJ old) (NN winter) (NNS clothes)))))) (. .)))
p24
sVtext
p25
VPaige was unboxing some of her old winter clothes .
p26
sVdependencies
p27
(lp28
(lp29
Vroot
p30
aVROOT
p31
aVunboxing
p32
aa(lp33
Vnsubj
p34
aVunboxing
p35
aVPaige
p36
aa(lp37
Vaux
p38
aVunboxing
p39
aVwas
p40
aa(lp41
Vdobj
p42
aVunboxing
p43
aVsome
p44
aa(lp45
Vposs
p46
aVclothes
p47
aVher
p48
aa(lp49
Vamod
p50
aVclothes
p51
aVold
p52
aa(lp53
Vnn
p54
aVclothes
p55
aVwinter
p56
aa(lp57
Vprep_of
p58
aVsome
p59
aVclothes
p60
aasVwords
p61
(lp62
(lp63
VPaige
p64
a(dp65
VNamedEntityTag
p66
VPERSON
p67
sVCharacterOffsetEnd
p68
V6
p69
sVCharacterOffsetBegin
p70
V1
p71
sVPartOfSpeech
p72
VNNP
p73
sVLemma
p74
VPaige
p75
saa(lp76
Vwas
p77
a(dp78
VNamedEntityTag
p79
VO
p80
sVCharacterOffsetEnd
p81
V10
p82
sVCharacterOffsetBegin
p83
V7
p84
sVPartOfSpeech
p85
VVBD
p86
sVLemma
p87
Vbe
p88
saa(lp89
Vunboxing
p90
a(dp91
VNamedEntityTag
p92
g80
sVCharacterOffsetEnd
p93
V19
p94
sVCharacterOffsetBegin
p95
V11
p96
sVPartOfSpeech
p97
VVBG
p98
sVLemma
p99
Vunbox
p100
saa(lp101
Vsome
p102
a(dp103
VNamedEntityTag
p104
g80
sVCharacterOffsetEnd
p105
V24
p106
sVCharacterOffsetBegin
p107
V20
p108
sVPartOfSpeech
p109
VDT
p110
sVLemma
p111
Vsome
p112
saa(lp113
Vof
p114
a(dp115
VNamedEntityTag
p116
g80
sVCharacterOffsetEnd
p117
V27
p118
sVCharacterOffsetBegin
p119
V25
p120
sVPartOfSpeech
p121
VIN
p122
sVLemma
p123
Vof
p124
saa(lp125
Vher
p126
a(dp127
VNamedEntityTag
p128
g80
sVCharacterOffsetEnd
p129
V31
p130
sVCharacterOffsetBegin
p131
V28
p132
sVPartOfSpeech
p133
VPRP$
p134
sVLemma
p135
Vshe
p136
saa(lp137
Vold
p138
a(dp139
VNamedEntityTag
p140
g80
sVCharacterOffsetEnd
p141
V35
p142
sVCharacterOffsetBegin
p143
V32
p144
sVPartOfSpeech
p145
VJJ
p146
sVLemma
p147
Vold
p148
saa(lp149
Vwinter
p150
a(dp151
VNormalizedNamedEntityTag
p152
VXXXX-WI
p153
sVTimex
p154
V<TIMEX3 tid="t1" type="DATE" value="XXXX-WI">winter</TIMEX3>
p155
sVLemma
p156
Vwinter
p157
sVCharacterOffsetEnd
p158
V42
p159
sVPartOfSpeech
p160
VNN
p161
sVCharacterOffsetBegin
p162
V36
p163
sVNamedEntityTag
p164
VDATE
p165
saa(lp166
Vclothes
p167
a(dp168
VNamedEntityTag
p169
g80
sVCharacterOffsetEnd
p170
V50
p171
sVCharacterOffsetBegin
p172
V43
p173
sVPartOfSpeech
p174
VNNS
p175
sVLemma
p176
Vclothes
p177
saa(lp178
V.
p179
a(dp180
VNamedEntityTag
p181
g80
sVCharacterOffsetEnd
p182
V52
p183
sVCharacterOffsetBegin
p184
V51
p185
sVPartOfSpeech
p186
g179
sVLemma
p187
g179
saasVindexeddependencies
p188
(lp189
(lp190
Vroot
p191
aVROOT-0
p192
aVunboxing-3
p193
aa(lp194
Vnsubj
p195
aVunboxing-3
p196
aVPaige-1
p197
aa(lp198
Vaux
p199
aVunboxing-3
p200
aVwas-2
p201
aa(lp202
Vdobj
p203
aVunboxing-3
p204
aVsome-4
p205
aa(lp206
Vposs
p207
aVclothes-9
p208
aVher-6
p209
aa(lp210
Vamod
p211
aVclothes-9
p212
aVold-7
p213
aa(lp214
Vnn
p215
aVclothes-9
p216
aVwinter-8
p217
aa(lp218
Vprep_of
p219
aVsome-4
p220
aVclothes-9
p221
aasa(dp222
Vparsetree
p223
V(ROOT (S (S (NP (PRP She)) (VP (VBD found) (NP (NP (CD 6) (NNS boxes)) (PP (IN of) (NP (NN clothing)))))) (CC and) (S (PP (IN inside) (NP (DT each) (NN box))) (NP (EX there)) (VP (VBD were) (NP (NP (CD 5) (NNS scarves)) (CC and) (NP (CD 5) (NNS mittens))))) (. .)))
p224
sVtext
p225
VShe found 6 boxes of clothing and inside each box there were 5 scarves and 5 mittens .
p226
sVdependencies
p227
(lp228
(lp229
Vroot
p230
aVROOT
p231
aVfound
p232
aa(lp233
Vnsubj
p234
aVfound
p235
aVShe
p236
aa(lp237
Vnum
p238
aVboxes
p239
ag69
aa(lp240
Vdobj
p241
aVfound
p242
aVboxes
p243
aa(lp244
Vprep_of
p245
aVboxes
p246
aVclothing
p247
aa(lp248
Vdet
p249
aVbox
p250
aVeach
p251
aa(lp252
Vprep_inside
p253
aVwere
p254
aVbox
p255
aa(lp256
Vexpl
p257
aVwere
p258
aVthere
p259
aa(lp260
Vconj_and
p261
aVfound
p262
aVwere
p263
aa(lp264
Vnum
p265
aVscarves
p266
ag18
aa(lp267
Vnsubj
p268
aVwere
p269
aVscarves
p270
aa(lp271
Vnum
p272
aVmittens
p273
ag18
aa(lp274
Vconj_and
p275
aVscarves
p276
aVmittens
p277
aasVwords
p278
(lp279
(lp280
VShe
p281
a(dp282
VNamedEntityTag
p283
g80
sVCharacterOffsetEnd
p284
V56
p285
sVCharacterOffsetBegin
p286
V53
p287
sVPartOfSpeech
p288
VPRP
p289
sVLemma
p290
Vshe
p291
saa(lp292
Vfound
p293
a(dp294
VNamedEntityTag
p295
g80
sVCharacterOffsetEnd
p296
V62
p297
sVCharacterOffsetBegin
p298
V57
p299
sVPartOfSpeech
p300
VVBD
p301
sVLemma
p302
Vfind
p303
saa(lp304
g69
a(dp305
VNormalizedNamedEntityTag
p306
V6.0
p307
sVLemma
p308
g69
sVCharacterOffsetEnd
p309
V64
p310
sVPartOfSpeech
p311
VCD
p312
sVCharacterOffsetBegin
p313
V63
p314
sVNamedEntityTag
p315
VNUMBER
p316
saa(lp317
Vboxes
p318
a(dp319
VNamedEntityTag
p320
g80
sVCharacterOffsetEnd
p321
V70
p322
sVCharacterOffsetBegin
p323
V65
p324
sVPartOfSpeech
p325
VNNS
p326
sVLemma
p327
Vbox
p328
saa(lp329
Vof
p330
a(dp331
VNamedEntityTag
p332
g80
sVCharacterOffsetEnd
p333
V73
p334
sVCharacterOffsetBegin
p335
V71
p336
sVPartOfSpeech
p337
VIN
p338
sVLemma
p339
Vof
p340
saa(lp341
Vclothing
p342
a(dp343
VNamedEntityTag
p344
g80
sVCharacterOffsetEnd
p345
V82
p346
sVCharacterOffsetBegin
p347
V74
p348
sVPartOfSpeech
p349
VNN
p350
sVLemma
p351
Vclothing
p352
saa(lp353
Vand
p354
a(dp355
VNamedEntityTag
p356
g80
sVCharacterOffsetEnd
p357
V86
p358
sVCharacterOffsetBegin
p359
V83
p360
sVPartOfSpeech
p361
VCC
p362
sVLemma
p363
Vand
p364
saa(lp365
Vinside
p366
a(dp367
VNamedEntityTag
p368
g80
sVCharacterOffsetEnd
p369
V93
p370
sVCharacterOffsetBegin
p371
V87
p372
sVPartOfSpeech
p373
VIN
p374
sVLemma
p375
Vinside
p376
saa(lp377
Veach
p378
a(dp379
VNamedEntityTag
p380
g80
sVCharacterOffsetEnd
p381
V98
p382
sVCharacterOffsetBegin
p383
V94
p384
sVPartOfSpeech
p385
VDT
p386
sVLemma
p387
Veach
p388
saa(lp389
Vbox
p390
a(dp391
VNamedEntityTag
p392
g80
sVCharacterOffsetEnd
p393
V102
p394
sVCharacterOffsetBegin
p395
V99
p396
sVPartOfSpeech
p397
VNN
p398
sVLemma
p399
Vbox
p400
saa(lp401
Vthere
p402
a(dp403
VNamedEntityTag
p404
g80
sVCharacterOffsetEnd
p405
V108
p406
sVCharacterOffsetBegin
p407
V103
p408
sVPartOfSpeech
p409
VEX
p410
sVLemma
p411
Vthere
p412
saa(lp413
Vwere
p414
a(dp415
VNamedEntityTag
p416
g80
sVCharacterOffsetEnd
p417
V113
p418
sVCharacterOffsetBegin
p419
V109
p420
sVPartOfSpeech
p421
VVBD
p422
sVLemma
p423
Vbe
p424
saa(lp425
g18
a(dp426
VNormalizedNamedEntityTag
p427
V5.0
p428
sVLemma
p429
g18
sVCharacterOffsetEnd
p430
V115
p431
sVPartOfSpeech
p432
VCD
p433
sVCharacterOffsetBegin
p434
V114
p435
sVNamedEntityTag
p436
VNUMBER
p437
saa(lp438
Vscarves
p439
a(dp440
VNamedEntityTag
p441
g80
sVCharacterOffsetEnd
p442
V123
p443
sVCharacterOffsetBegin
p444
V116
p445
sVPartOfSpeech
p446
VNNS
p447
sVLemma
p448
Vscarf
p449
saa(lp450
Vand
p451
a(dp452
VNamedEntityTag
p453
g80
sVCharacterOffsetEnd
p454
V127
p455
sVCharacterOffsetBegin
p456
V124
p457
sVPartOfSpeech
p458
VCC
p459
sVLemma
p460
Vand
p461
saa(lp462
g18
a(dp463
VNormalizedNamedEntityTag
p464
V5.0
p465
sVLemma
p466
g18
sVCharacterOffsetEnd
p467
V129
p468
sVPartOfSpeech
p469
VCD
p470
sVCharacterOffsetBegin
p471
V128
p472
sVNamedEntityTag
p473
VNUMBER
p474
saa(lp475
Vmittens
p476
a(dp477
VNamedEntityTag
p478
g80
sVCharacterOffsetEnd
p479
V137
p480
sVCharacterOffsetBegin
p481
V130
p482
sVPartOfSpeech
p483
VNNS
p484
sVLemma
p485
Vmitten
p486
saa(lp487
g179
a(dp488
VNamedEntityTag
p489
g80
sVCharacterOffsetEnd
p490
V139
p491
sVCharacterOffsetBegin
p492
V138
p493
sVPartOfSpeech
p494
g179
sVLemma
p495
g179
saasVindexeddependencies
p496
(lp497
(lp498
Vroot
p499
aVROOT-0
p500
aVfound-2
p501
aa(lp502
Vnsubj
p503
aVfound-2
p504
aVShe-1
p505
aa(lp506
Vnum
p507
aVboxes-4
p508
aV6-3
p509
aa(lp510
Vdobj
p511
aVfound-2
p512
aVboxes-4
p513
aa(lp514
Vprep_of
p515
aVboxes-4
p516
aVclothing-6
p517
aa(lp518
Vdet
p519
aVbox-10
p520
aVeach-9
p521
aa(lp522
Vprep_inside
p523
aVwere-12
p524
aVbox-10
p525
aa(lp526
Vexpl
p527
aVwere-12
p528
aVthere-11
p529
aa(lp530
Vconj_and
p531
aVfound-2
p532
aVwere-12
p533
aa(lp534
Vnum
p535
aVscarves-14
p536
aV5-13
p537
aa(lp538
Vnsubj
p539
aVwere-12
p540
aVscarves-14
p541
aa(lp542
Vnum
p543
aVmittens-17
p544
aV5-16
p545
aa(lp546
Vconj_and
p547
aVscarves-14
p548
aVmittens-17
p549
aasa(dp550
Vparsetree
p551
V(ROOT (SBARQ (WHNP (WHADJP (WRB How) (JJ many)) (NP (NP (NNS pieces)) (PP (IN of) (NP (NN winter) (NN clothing))))) (SQ (VBD did) (NP (NNP Paige)) (VP (VB have) (NP (NN total)))) (. ?)))
p552
sVtext
p553
VHow many pieces of winter clothing did Paige have total ?
p554
sVdependencies
p555
(lp556
(lp557
Vroot
p558
aVROOT
p559
aVhave
p560
aa(lp561
Vadvmod
p562
aVmany
p563
aVHow
p564
aa(lp565
Vamod
p566
aVpieces
p567
aVmany
p568
aa(lp569
Vdep
p570
aVhave
p571
aVpieces
p572
aa(lp573
Vnn
p574
aVclothing
p575
aVwinter
p576
aa(lp577
Vprep_of
p578
aVpieces
p579
aVclothing
p580
aa(lp581
Vaux
p582
aVhave
p583
aVdid
p584
aa(lp585
Vnsubj
p586
aVhave
p587
aVPaige
p588
aa(lp589
Vdobj
p590
aVhave
p591
aVtotal
p592
aasVwords
p593
(lp594
(lp595
VHow
p596
a(dp597
VNamedEntityTag
p598
g80
sVCharacterOffsetEnd
p599
V143
p600
sVCharacterOffsetBegin
p601
V140
p602
sVPartOfSpeech
p603
VWRB
p604
sVLemma
p605
Vhow
p606
saa(lp607
Vmany
p608
a(dp609
VNamedEntityTag
p610
g80
sVCharacterOffsetEnd
p611
V148
p612
sVCharacterOffsetBegin
p613
V144
p614
sVPartOfSpeech
p615
VJJ
p616
sVLemma
p617
Vmany
p618
saa(lp619
Vpieces
p620
a(dp621
VNamedEntityTag
p622
g80
sVCharacterOffsetEnd
p623
V155
p624
sVCharacterOffsetBegin
p625
V149
p626
sVPartOfSpeech
p627
VNNS
p628
sVLemma
p629
Vpiece
p630
saa(lp631
Vof
p632
a(dp633
VNamedEntityTag
p634
g80
sVCharacterOffsetEnd
p635
V158
p636
sVCharacterOffsetBegin
p637
V156
p638
sVPartOfSpeech
p639
VIN
p640
sVLemma
p641
Vof
p642
saa(lp643
Vwinter
p644
a(dp645
VNormalizedNamedEntityTag
p646
VXXXX-WI
p647
sVTimex
p648
V<TIMEX3 tid="t2" type="DATE" value="XXXX-WI">winter</TIMEX3>
p649
sVLemma
p650
Vwinter
p651
sVCharacterOffsetEnd
p652
V165
p653
sVPartOfSpeech
p654
VNN
p655
sVCharacterOffsetBegin
p656
V159
p657
sVNamedEntityTag
p658
VDATE
p659
saa(lp660
Vclothing
p661
a(dp662
VNamedEntityTag
p663
g80
sVCharacterOffsetEnd
p664
V174
p665
sVCharacterOffsetBegin
p666
V166
p667
sVPartOfSpeech
p668
VNN
p669
sVLemma
p670
Vclothing
p671
saa(lp672
Vdid
p673
a(dp674
VNamedEntityTag
p675
g80
sVCharacterOffsetEnd
p676
V178
p677
sVCharacterOffsetBegin
p678
V175
p679
sVPartOfSpeech
p680
VVBD
p681
sVLemma
p682
Vdo
p683
saa(lp684
VPaige
p685
a(dp686
VNamedEntityTag
p687
VPERSON
p688
sVCharacterOffsetEnd
p689
V184
p690
sVCharacterOffsetBegin
p691
V179
p692
sVPartOfSpeech
p693
VNNP
p694
sVLemma
p695
VPaige
p696
saa(lp697
Vhave
p698
a(dp699
VNamedEntityTag
p700
g80
sVCharacterOffsetEnd
p701
V189
p702
sVCharacterOffsetBegin
p703
V185
p704
sVPartOfSpeech
p705
VVB
p706
sVLemma
p707
Vhave
p708
saa(lp709
Vtotal
p710
a(dp711
VNamedEntityTag
p712
g80
sVCharacterOffsetEnd
p713
V195
p714
sVCharacterOffsetBegin
p715
V190
p716
sVPartOfSpeech
p717
VNN
p718
sVLemma
p719
Vtotal
p720
saa(lp721
V?
p722
a(dp723
VNamedEntityTag
p724
g80
sVCharacterOffsetEnd
p725
V197
p726
sVCharacterOffsetBegin
p727
V196
p728
sVPartOfSpeech
p729
g179
sVLemma
p730
g722
saasVindexeddependencies
p731
(lp732
(lp733
Vroot
p734
aVROOT-0
p735
aVhave-9
p736
aa(lp737
Vadvmod
p738
aVmany-2
p739
aVHow-1
p740
aa(lp741
Vamod
p742
aVpieces-3
p743
aVmany-2
p744
aa(lp745
Vdep
p746
aVhave-9
p747
aVpieces-3
p748
aa(lp749
Vnn
p750
aVclothing-6
p751
aVwinter-5
p752
aa(lp753
Vprep_of
p754
aVpieces-3
p755
aVclothing-6
p756
aa(lp757
Vaux
p758
aVhave-9
p759
aVdid-7
p760
aa(lp761
Vnsubj
p762
aVhave-9
p763
aVPaige-8
p764
aa(lp765
Vdobj
p766
aVhave-9
p767
aVtotal-10
p768
aasas.