(dp0
Vcoref
p1
(lp2
(lp3
(lp4
(lp5
Vhe
p6
aI1
aI2
aI2
aI3
aa(lp7
VSam
p8
aI0
aI0
aI0
aI1
aaa(lp9
(lp10
Vhe
p11
aI1
aI10
aI10
aI11
aa(lp12
VSam
p13
aI0
aI0
aI0
aI1
aaa(lp14
(lp15
Vhe
p16
aI2
aI13
aI13
aI14
aa(lp17
VSam
p18
aI0
aI0
aI0
aI1
aaaa(lp19
(lp20
(lp21
Vit
p22
aI2
aI7
aI7
aI8
aa(lp23
Veach bag
p24
aI2
aI2
aI1
aI3
aaaasVsentences
p25
(lp26
(dp27
Vparsetree
p28
V(ROOT (S (NP (NNP Sam)) (VP (VBD was) (VP (VBG collecting) (NP (NP (NNS cans)) (PP (IN for) (NP (VBG recycling)))))) (. .)))
p29
sVtext
p30
VSam was collecting cans for recycling .
p31
sVdependencies
p32
(lp33
(lp34
Vroot
p35
aVROOT
p36
aVcollecting
p37
aa(lp38
Vnsubj
p39
aVcollecting
p40
aVSam
p41
aa(lp42
Vaux
p43
aVcollecting
p44
aVwas
p45
aa(lp46
Vdobj
p47
aVcollecting
p48
aVcans
p49
aa(lp50
Vprep_for
p51
aVcans
p52
aVrecycling
p53
aasVwords
p54
(lp55
(lp56
VSam
p57
a(dp58
VNamedEntityTag
p59
VPERSON
p60
sVCharacterOffsetEnd
p61
V4
p62
sVCharacterOffsetBegin
p63
V1
p64
sVPartOfSpeech
p65
VNNP
p66
sVLemma
p67
VSam
p68
saa(lp69
Vwas
p70
a(dp71
VNamedEntityTag
p72
VO
p73
sVCharacterOffsetEnd
p74
V8
p75
sVCharacterOffsetBegin
p76
V5
p77
sVPartOfSpeech
p78
VVBD
p79
sVLemma
p80
Vbe
p81
saa(lp82
Vcollecting
p83
a(dp84
VNamedEntityTag
p85
g73
sVCharacterOffsetEnd
p86
V19
p87
sVCharacterOffsetBegin
p88
V9
p89
sVPartOfSpeech
p90
VVBG
p91
sVLemma
p92
Vcollect
p93
saa(lp94
Vcans
p95
a(dp96
VNamedEntityTag
p97
g73
sVCharacterOffsetEnd
p98
V24
p99
sVCharacterOffsetBegin
p100
V20
p101
sVPartOfSpeech
p102
VNNS
p103
sVLemma
p104
Vcan
p105
saa(lp106
Vfor
p107
a(dp108
VNamedEntityTag
p109
g73
sVCharacterOffsetEnd
p110
V28
p111
sVCharacterOffsetBegin
p112
V25
p113
sVPartOfSpeech
p114
VIN
p115
sVLemma
p116
Vfor
p117
saa(lp118
Vrecycling
p119
a(dp120
VNamedEntityTag
p121
g73
sVCharacterOffsetEnd
p122
V38
p123
sVCharacterOffsetBegin
p124
V29
p125
sVPartOfSpeech
p126
VVBG
p127
sVLemma
p128
Vrecycle
p129
saa(lp130
V.
p131
a(dp132
VNamedEntityTag
p133
g73
sVCharacterOffsetEnd
p134
V40
p135
sVCharacterOffsetBegin
p136
V39
p137
sVPartOfSpeech
p138
g131
sVLemma
p139
g131
saasVindexeddependencies
p140
(lp141
(lp142
Vroot
p143
aVROOT-0
p144
aVcollecting-3
p145
aa(lp146
Vnsubj
p147
aVcollecting-3
p148
aVSam-1
p149
aa(lp150
Vaux
p151
aVcollecting-3
p152
aVwas-2
p153
aa(lp154
Vdobj
p155
aVcollecting-3
p156
aVcans-4
p157
aa(lp158
Vprep_for
p159
aVcans-4
p160
aVrecycling-6
p161
aasa(dp162
Vparsetree
p163
V(ROOT (S (PP (IN On) (NP (NNP Saturday))) (NP (PRP he)) (VP (VBD filled) (ADVP (ADVP (NP (CD 4) (NNS bags)) (IN up)) (CC and) (PP (IN on) (NP-TMP (NNP Sunday)))) (SBAR (S (NP (PRP he)) (VP (VBD filled) (NP (QP (CD 3) (JJR more)) (NNS bags)))))) (. .)))
p164
sVtext
p165
VOn Saturday he filled 4 bags up and on Sunday he filled 3 more bags .
p166
sVdependencies
p167
(lp168
(lp169
Vroot
p170
aVROOT
p171
aVfilled
p172
aa(lp173
Vprep_on
p174
aVfilled
p175
aVSaturday
p176
aa(lp177
Vnsubj
p178
aVfilled
p179
aVhe
p180
aa(lp181
Vnum
p182
aVbags
p183
ag62
aa(lp184
Vnpadvmod
p185
aVup
p186
aVbags
p187
aa(lp188
Vadvmod
p189
aVfilled
p190
aVup
p191
aa(lp192
Vconj_and
p193
aVup
p194
aVon
p195
aa(lp196
Vpobj
p197
aVon
p198
aVSunday
p199
aa(lp200
Vnsubj
p201
aVfilled
p202
aVhe
p203
aa(lp204
Vccomp
p205
aVfilled
p206
aVfilled
p207
aa(lp208
Vnum
p209
aVbags
p210
aV3
p211
aa(lp212
Vquantmod
p213
ag211
aVmore
p214
aa(lp215
Vdobj
p216
aVfilled
p217
aVbags
p218
aasVwords
p219
(lp220
(lp221
VOn
p222
a(dp223
VNamedEntityTag
p224
g73
sVCharacterOffsetEnd
p225
V43
p226
sVCharacterOffsetBegin
p227
V41
p228
sVPartOfSpeech
p229
VIN
p230
sVLemma
p231
Von
p232
saa(lp233
VSaturday
p234
a(dp235
VNormalizedNamedEntityTag
p236
VXXXX-WXX-6
p237
sVTimex
p238
V<TIMEX3 tid="t1" type="DATE" value="XXXX-WXX-6">Saturday</TIMEX3>
p239
sVLemma
p240
VSaturday
p241
sVCharacterOffsetEnd
p242
V52
p243
sVPartOfSpeech
p244
VNNP
p245
sVCharacterOffsetBegin
p246
V44
p247
sVNamedEntityTag
p248
VDATE
p249
saa(lp250
Vhe
p251
a(dp252
VNamedEntityTag
p253
g73
sVCharacterOffsetEnd
p254
V55
p255
sVCharacterOffsetBegin
p256
V53
p257
sVPartOfSpeech
p258
VPRP
p259
sVLemma
p260
Vhe
p261
saa(lp262
Vfilled
p263
a(dp264
VNamedEntityTag
p265
g73
sVCharacterOffsetEnd
p266
V62
p267
sVCharacterOffsetBegin
p268
V56
p269
sVPartOfSpeech
p270
VVBD
p271
sVLemma
p272
Vfill
p273
saa(lp274
g62
a(dp275
VNormalizedNamedEntityTag
p276
V4.0
p277
sVLemma
p278
g62
sVCharacterOffsetEnd
p279
V64
p280
sVPartOfSpeech
p281
VCD
p282
sVCharacterOffsetBegin
p283
V63
p284
sVNamedEntityTag
p285
VNUMBER
p286
saa(lp287
Vbags
p288
a(dp289
VNamedEntityTag
p290
g73
sVCharacterOffsetEnd
p291
V69
p292
sVCharacterOffsetBegin
p293
V65
p294
sVPartOfSpeech
p295
VNNS
p296
sVLemma
p297
Vbag
p298
saa(lp299
Vup
p300
a(dp301
VNamedEntityTag
p302
g73
sVCharacterOffsetEnd
p303
V72
p304
sVCharacterOffsetBegin
p305
V70
p306
sVPartOfSpeech
p307
VIN
p308
sVLemma
p309
Vup
p310
saa(lp311
Vand
p312
a(dp313
VNamedEntityTag
p314
g73
sVCharacterOffsetEnd
p315
V76
p316
sVCharacterOffsetBegin
p317
V73
p318
sVPartOfSpeech
p319
VCC
p320
sVLemma
p321
Vand
p322
saa(lp323
Von
p324
a(dp325
VNamedEntityTag
p326
g73
sVCharacterOffsetEnd
p327
V79
p328
sVCharacterOffsetBegin
p329
V77
p330
sVPartOfSpeech
p331
VIN
p332
sVLemma
p333
Von
p334
saa(lp335
VSunday
p336
a(dp337
VNormalizedNamedEntityTag
p338
VXXXX-WXX-7
p339
sVTimex
p340
V<TIMEX3 tid="t2" type="DATE" value="XXXX-WXX-7">Sunday</TIMEX3>
p341
sVLemma
p342
VSunday
p343
sVCharacterOffsetEnd
p344
V86
p345
sVPartOfSpeech
p346
VNNP
p347
sVCharacterOffsetBegin
p348
V80
p349
sVNamedEntityTag
p350
VDATE
p351
saa(lp352
Vhe
p353
a(dp354
VNamedEntityTag
p355
g73
sVCharacterOffsetEnd
p356
V89
p357
sVCharacterOffsetBegin
p358
V87
p359
sVPartOfSpeech
p360
VPRP
p361
sVLemma
p362
Vhe
p363
saa(lp364
Vfilled
p365
a(dp366
VNamedEntityTag
p367
g73
sVCharacterOffsetEnd
p368
V96
p369
sVCharacterOffsetBegin
p370
V90
p371
sVPartOfSpeech
p372
VVBD
p373
sVLemma
p374
Vfill
p375
saa(lp376
g211
a(dp377
VNormalizedNamedEntityTag
p378
V3.0
p379
sVLemma
p380
g211
sVCharacterOffsetEnd
p381
V98
p382
sVPartOfSpeech
p383
VCD
p384
sVCharacterOffsetBegin
p385
V97
p386
sVNamedEntityTag
p387
VNUMBER
p388
saa(lp389
Vmore
p390
a(dp391
VNamedEntityTag
p392
g73
sVCharacterOffsetEnd
p393
V103
p394
sVCharacterOffsetBegin
p395
V99
p396
sVPartOfSpeech
p397
VJJR
p398
sVLemma
p399
Vmore
p400
saa(lp401
Vbags
p402
a(dp403
VNamedEntityTag
p404
g73
sVCharacterOffsetEnd
p405
V108
p406
sVCharacterOffsetBegin
p407
V104
p408
sVPartOfSpeech
p409
VNNS
p410
sVLemma
p411
Vbag
p412
saa(lp413
g131
a(dp414
VNamedEntityTag
p415
g73
sVCharacterOffsetEnd
p416
V110
p417
sVCharacterOffsetBegin
p418
V109
p419
sVPartOfSpeech
p420
g131
sVLemma
p421
g131
saasVindexeddependencies
p422
(lp423
(lp424
Vroot
p425
aVROOT-0
p426
aVfilled-4
p427
aa(lp428
Vprep_on
p429
aVfilled-4
p430
aVSaturday-2
p431
aa(lp432
Vnsubj
p433
aVfilled-4
p434
aVhe-3
p435
aa(lp436
Vnum
p437
aVbags-6
p438
aV4-5
p439
aa(lp440
Vnpadvmod
p441
aVup-7
p442
aVbags-6
p443
aa(lp444
Vadvmod
p445
aVfilled-4
p446
aVup-7
p447
aa(lp448
Vconj_and
p449
aVup-7
p450
aVon-9
p451
aa(lp452
Vpobj
p453
aVon-9
p454
aVSunday-10
p455
aa(lp456
Vnsubj
p457
aVfilled-12
p458
aVhe-11
p459
aa(lp460
Vccomp
p461
aVfilled-4
p462
aVfilled-12
p463
aa(lp464
Vnum
p465
aVbags-15
p466
aV3-13
p467
aa(lp468
Vquantmod
p469
aV3-13
p470
aVmore-14
p471
aa(lp472
Vdobj
p473
aVfilled-12
p474
aVbags-15
p475
aasa(dp476
Vparsetree
p477
V(ROOT (SBARQ (SBAR (IN If) (S (NP (DT each) (NN bag)) (VP (VBD had) (NP (NP (CD 6) (NNS cans)) (PP (IN in) (NP (PRP it))))))) (, ,) (WHNP (WHADJP (WRB how) (JJ many)) (NNS cans)) (SQ (VBD did) (NP (PRP he)) (VP (VB pick) (PRT (RP up)) (NP (NN total)))) (. ?)))
p478
sVtext
p479
VIf each bag had 6 cans in it , how many cans did he pick up total ?
p480
sVdependencies
p481
(lp482
(lp483
Vroot
p484
aVROOT
p485
aVpick
p486
aa(lp487
Vmark
p488
aVhad
p489
aVIf
p490
aa(lp491
Vdet
p492
aVbag
p493
aVeach
p494
aa(lp495
Vnsubj
p496
aVhad
p497
aVbag
p498
aa(lp499
Vadvcl
p500
aVpick
p501
aVhad
p502
aa(lp503
Vnum
p504
aVcans
p505
aV6
p506
aa(lp507
Vdobj
p508
aVhad
p509
aVcans
p510
aa(lp511
Vprep_in
p512
aVcans
p513
aVit
p514
aa(lp515
Vadvmod
p516
aVmany
p517
aVhow
p518
aa(lp519
Vamod
p520
aVcans
p521
aVmany
p522
aa(lp523
Vdep
p524
aVpick
p525
aVcans
p526
aa(lp527
Vaux
p528
aVpick
p529
aVdid
p530
aa(lp531
Vnsubj
p532
aVpick
p533
aVhe
p534
aa(lp535
Vprt
p536
aVpick
p537
aVup
p538
aa(lp539
Vdobj
p540
aVpick
p541
aVtotal
p542
aasVwords
p543
(lp544
(lp545
VIf
p546
a(dp547
VNamedEntityTag
p548
g73
sVCharacterOffsetEnd
p549
V113
p550
sVCharacterOffsetBegin
p551
V111
p552
sVPartOfSpeech
p553
VIN
p554
sVLemma
p555
Vif
p556
saa(lp557
Veach
p558
a(dp559
VNamedEntityTag
p560
g73
sVCharacterOffsetEnd
p561
V118
p562
sVCharacterOffsetBegin
p563
V114
p564
sVPartOfSpeech
p565
VDT
p566
sVLemma
p567
Veach
p568
saa(lp569
Vbag
p570
a(dp571
VNamedEntityTag
p572
g73
sVCharacterOffsetEnd
p573
V122
p574
sVCharacterOffsetBegin
p575
V119
p576
sVPartOfSpeech
p577
VNN
p578
sVLemma
p579
Vbag
p580
saa(lp581
Vhad
p582
a(dp583
VNamedEntityTag
p584
g73
sVCharacterOffsetEnd
p585
V126
p586
sVCharacterOffsetBegin
p587
V123
p588
sVPartOfSpeech
p589
VVBD
p590
sVLemma
p591
Vhave
p592
saa(lp593
g506
a(dp594
VNormalizedNamedEntityTag
p595
V6.0
p596
sVLemma
p597
g506
sVCharacterOffsetEnd
p598
V128
p599
sVPartOfSpeech
p600
VCD
p601
sVCharacterOffsetBegin
p602
V127
p603
sVNamedEntityTag
p604
VNUMBER
p605
saa(lp606
Vcans
p607
a(dp608
VNamedEntityTag
p609
g73
sVCharacterOffsetEnd
p610
V133
p611
sVCharacterOffsetBegin
p612
V129
p613
sVPartOfSpeech
p614
VNNS
p615
sVLemma
p616
Vcan
p617
saa(lp618
Vin
p619
a(dp620
VNamedEntityTag
p621
g73
sVCharacterOffsetEnd
p622
V136
p623
sVCharacterOffsetBegin
p624
V134
p625
sVPartOfSpeech
p626
VIN
p627
sVLemma
p628
Vin
p629
saa(lp630
Vit
p631
a(dp632
VNamedEntityTag
p633
g73
sVCharacterOffsetEnd
p634
V139
p635
sVCharacterOffsetBegin
p636
V137
p637
sVPartOfSpeech
p638
VPRP
p639
sVLemma
p640
Vit
p641
saa(lp642
V,
p643
a(dp644
VNamedEntityTag
p645
g73
sVCharacterOffsetEnd
p646
V141
p647
sVCharacterOffsetBegin
p648
V140
p649
sVPartOfSpeech
p650
g643
sVLemma
p651
g643
saa(lp652
Vhow
p653
a(dp654
VNamedEntityTag
p655
g73
sVCharacterOffsetEnd
p656
V145
p657
sVCharacterOffsetBegin
p658
V142
p659
sVPartOfSpeech
p660
VWRB
p661
sVLemma
p662
Vhow
p663
saa(lp664
Vmany
p665
a(dp666
VNamedEntityTag
p667
g73
sVCharacterOffsetEnd
p668
V150
p669
sVCharacterOffsetBegin
p670
V146
p671
sVPartOfSpeech
p672
VJJ
p673
sVLemma
p674
Vmany
p675
saa(lp676
Vcans
p677
a(dp678
VNamedEntityTag
p679
g73
sVCharacterOffsetEnd
p680
V155
p681
sVCharacterOffsetBegin
p682
V151
p683
sVPartOfSpeech
p684
VNNS
p685
sVLemma
p686
Vcan
p687
saa(lp688
Vdid
p689
a(dp690
VNamedEntityTag
p691
g73
sVCharacterOffsetEnd
p692
V159
p693
sVCharacterOffsetBegin
p694
V156
p695
sVPartOfSpeech
p696
VVBD
p697
sVLemma
p698
Vdo
p699
saa(lp700
Vhe
p701
a(dp702
VNamedEntityTag
p703
g73
sVCharacterOffsetEnd
p704
V162
p705
sVCharacterOffsetBegin
p706
V160
p707
sVPartOfSpeech
p708
VPRP
p709
sVLemma
p710
Vhe
p711
saa(lp712
Vpick
p713
a(dp714
VNamedEntityTag
p715
g73
sVCharacterOffsetEnd
p716
V167
p717
sVCharacterOffsetBegin
p718
V163
p719
sVPartOfSpeech
p720
VVB
p721
sVLemma
p722
Vpick
p723
saa(lp724
Vup
p725
a(dp726
VNamedEntityTag
p727
g73
sVCharacterOffsetEnd
p728
V170
p729
sVCharacterOffsetBegin
p730
V168
p731
sVPartOfSpeech
p732
VRP
p733
sVLemma
p734
Vup
p735
saa(lp736
Vtotal
p737
a(dp738
VNamedEntityTag
p739
g73
sVCharacterOffsetEnd
p740
V176
p741
sVCharacterOffsetBegin
p742
V171
p743
sVPartOfSpeech
p744
VNN
p745
sVLemma
p746
Vtotal
p747
saa(lp748
V?
p749
a(dp750
VNamedEntityTag
p751
g73
sVCharacterOffsetEnd
p752
V178
p753
sVCharacterOffsetBegin
p754
V177
p755
sVPartOfSpeech
p756
g131
sVLemma
p757
g749
saasVindexeddependencies
p758
(lp759
(lp760
Vroot
p761
aVROOT-0
p762
aVpick-15
p763
aa(lp764
Vmark
p765
aVhad-4
p766
aVIf-1
p767
aa(lp768
Vdet
p769
aVbag-3
p770
aVeach-2
p771
aa(lp772
Vnsubj
p773
aVhad-4
p774
aVbag-3
p775
aa(lp776
Vadvcl
p777
aVpick-15
p778
aVhad-4
p779
aa(lp780
Vnum
p781
aVcans-6
p782
aV6-5
p783
aa(lp784
Vdobj
p785
aVhad-4
p786
aVcans-6
p787
aa(lp788
Vprep_in
p789
aVcans-6
p790
aVit-8
p791
aa(lp792
Vadvmod
p793
aVmany-11
p794
aVhow-10
p795
aa(lp796
Vamod
p797
aVcans-12
p798
aVmany-11
p799
aa(lp800
Vdep
p801
aVpick-15
p802
aVcans-12
p803
aa(lp804
Vaux
p805
aVpick-15
p806
aVdid-13
p807
aa(lp808
Vnsubj
p809
aVpick-15
p810
aVhe-14
p811
aa(lp812
Vprt
p813
aVpick-15
p814
aVup-16
p815
aa(lp816
Vdobj
p817
aVpick-15
p818
aVtotal-17
p819
aasas.