(dp0
Vcoref
p1
(lp2
(lp3
(lp4
(lp5
VCarrie
p6
aI0
aI0
aI0
aI1
aa(lp7
VCarrie 's
p8
aI3
aI5
aI5
aI7
aaa(lp9
(lp10
Vshe
p11
aI1
aI6
aI6
aI7
aa(lp12
VCarrie 's
p13
aI3
aI5
aI5
aI7
aaa(lp14
(lp15
Vshe
p16
aI2
aI2
aI2
aI3
aa(lp17
VCarrie 's
p18
aI3
aI5
aI5
aI7
aaaasVsentences
p19
(lp20
(dp21
Vparsetree
p22
V(ROOT (S (NP (NNP Carrie)) (VP (VP (VBZ enjoys) (S (VP (VBG taking) (NP (NN part)) (PP (IN in) (NP (NNS races)))))) (CC and) (VP (VBZ keeps) (NP (NP (NN track)) (PP (IN of) (NP (NP (DT all)) (PP (IN of) (NP (PRP$ her) (JJ finishing) (NNS times)))))))) (. .)))
p23
sVtext
p24
VCarrie enjoys taking part in races and keeps track of all of her finishing times .
p25
sVdependencies
p26
(lp27
(lp28
Vroot
p29
aVROOT
p30
aVenjoys
p31
aa(lp32
Vnsubj
p33
aVenjoys
p34
aVCarrie
p35
aa(lp36
Vxcomp
p37
aVenjoys
p38
aVtaking
p39
aa(lp40
Vdobj
p41
aVtaking
p42
aVpart
p43
aa(lp44
Vprep_in
p45
aVtaking
p46
aVraces
p47
aa(lp48
Vconj_and
p49
aVenjoys
p50
aVkeeps
p51
aa(lp52
Vdobj
p53
aVkeeps
p54
aVtrack
p55
aa(lp56
Vprep_of
p57
aVtrack
p58
aVall
p59
aa(lp60
Vposs
p61
aVtimes
p62
aVher
p63
aa(lp64
Vamod
p65
aVtimes
p66
aVfinishing
p67
aa(lp68
Vprep_of
p69
aVall
p70
aVtimes
p71
aasVwords
p72
(lp73
(lp74
VCarrie
p75
a(dp76
VNamedEntityTag
p77
VPERSON
p78
sVCharacterOffsetEnd
p79
V7
p80
sVCharacterOffsetBegin
p81
V1
p82
sVPartOfSpeech
p83
VNNP
p84
sVLemma
p85
VCarrie
p86
saa(lp87
Venjoys
p88
a(dp89
VNamedEntityTag
p90
VO
p91
sVCharacterOffsetEnd
p92
V14
p93
sVCharacterOffsetBegin
p94
V8
p95
sVPartOfSpeech
p96
VVBZ
p97
sVLemma
p98
Venjoy
p99
saa(lp100
Vtaking
p101
a(dp102
VNamedEntityTag
p103
g91
sVCharacterOffsetEnd
p104
V21
p105
sVCharacterOffsetBegin
p106
V15
p107
sVPartOfSpeech
p108
VVBG
p109
sVLemma
p110
Vtake
p111
saa(lp112
Vpart
p113
a(dp114
VNamedEntityTag
p115
g91
sVCharacterOffsetEnd
p116
V26
p117
sVCharacterOffsetBegin
p118
V22
p119
sVPartOfSpeech
p120
VNN
p121
sVLemma
p122
Vpart
p123
saa(lp124
Vin
p125
a(dp126
VNamedEntityTag
p127
g91
sVCharacterOffsetEnd
p128
V29
p129
sVCharacterOffsetBegin
p130
V27
p131
sVPartOfSpeech
p132
VIN
p133
sVLemma
p134
Vin
p135
saa(lp136
Vraces
p137
a(dp138
VNamedEntityTag
p139
g91
sVCharacterOffsetEnd
p140
V35
p141
sVCharacterOffsetBegin
p142
V30
p143
sVPartOfSpeech
p144
VNNS
p145
sVLemma
p146
Vrace
p147
saa(lp148
Vand
p149
a(dp150
VNamedEntityTag
p151
g91
sVCharacterOffsetEnd
p152
V39
p153
sVCharacterOffsetBegin
p154
V36
p155
sVPartOfSpeech
p156
VCC
p157
sVLemma
p158
Vand
p159
saa(lp160
Vkeeps
p161
a(dp162
VNamedEntityTag
p163
g91
sVCharacterOffsetEnd
p164
V45
p165
sVCharacterOffsetBegin
p166
V40
p167
sVPartOfSpeech
p168
VVBZ
p169
sVLemma
p170
Vkeep
p171
saa(lp172
Vtrack
p173
a(dp174
VNamedEntityTag
p175
g91
sVCharacterOffsetEnd
p176
V51
p177
sVCharacterOffsetBegin
p178
V46
p179
sVPartOfSpeech
p180
VNN
p181
sVLemma
p182
Vtrack
p183
saa(lp184
Vof
p185
a(dp186
VNamedEntityTag
p187
g91
sVCharacterOffsetEnd
p188
V54
p189
sVCharacterOffsetBegin
p190
V52
p191
sVPartOfSpeech
p192
VIN
p193
sVLemma
p194
Vof
p195
saa(lp196
Vall
p197
a(dp198
VNamedEntityTag
p199
g91
sVCharacterOffsetEnd
p200
V58
p201
sVCharacterOffsetBegin
p202
V55
p203
sVPartOfSpeech
p204
VDT
p205
sVLemma
p206
Vall
p207
saa(lp208
Vof
p209
a(dp210
VNamedEntityTag
p211
g91
sVCharacterOffsetEnd
p212
V61
p213
sVCharacterOffsetBegin
p214
V59
p215
sVPartOfSpeech
p216
VIN
p217
sVLemma
p218
Vof
p219
saa(lp220
Vher
p221
a(dp222
VNamedEntityTag
p223
g91
sVCharacterOffsetEnd
p224
V65
p225
sVCharacterOffsetBegin
p226
V62
p227
sVPartOfSpeech
p228
VPRP$
p229
sVLemma
p230
Vshe
p231
saa(lp232
Vfinishing
p233
a(dp234
VNamedEntityTag
p235
g91
sVCharacterOffsetEnd
p236
V75
p237
sVCharacterOffsetBegin
p238
V66
p239
sVPartOfSpeech
p240
VJJ
p241
sVLemma
p242
Vfinishing
p243
saa(lp244
Vtimes
p245
a(dp246
VNamedEntityTag
p247
g91
sVCharacterOffsetEnd
p248
V81
p249
sVCharacterOffsetBegin
p250
V76
p251
sVPartOfSpeech
p252
VNNS
p253
sVLemma
p254
Vtime
p255
saa(lp256
V.
p257
a(dp258
VNamedEntityTag
p259
g91
sVCharacterOffsetEnd
p260
V83
p261
sVCharacterOffsetBegin
p262
V82
p263
sVPartOfSpeech
p264
g257
sVLemma
p265
g257
saasVindexeddependencies
p266
(lp267
(lp268
Vroot
p269
aVROOT-0
p270
aVenjoys-2
p271
aa(lp272
Vnsubj
p273
aVenjoys-2
p274
aVCarrie-1
p275
aa(lp276
Vxcomp
p277
aVenjoys-2
p278
aVtaking-3
p279
aa(lp280
Vdobj
p281
aVtaking-3
p282
aVpart-4
p283
aa(lp284
Vprep_in
p285
aVtaking-3
p286
aVraces-6
p287
aa(lp288
Vconj_and
p289
aVenjoys-2
p290
aVkeeps-8
p291
aa(lp292
Vdobj
p293
aVkeeps-8
p294
aVtrack-9
p295
aa(lp296
Vprep_of
p297
aVtrack-9
p298
aVall-11
p299
aa(lp300
Vposs
p301
aVtimes-15
p302
aVher-13
p303
aa(lp304
Vamod
p305
aVtimes-15
p306
aVfinishing-14
p307
aa(lp308
Vprep_of
p309
aVall-11
p310
aVtimes-15
p311
aasa(dp312
Vparsetree
p313
V(ROOT (S (PP (IN At) (NP (DT a) (NN race))) (NP-TMP (JJ last) (NN month)) (, ,) (NP (PRP she)) (VP (VBD finished) (PP (IN in) (NP (CD 340) (NNS minutes)))) (. .)))
p314
sVtext
p315
VAt a race last month , she finished in 340 minutes .
p316
sVdependencies
p317
(lp318
(lp319
Vroot
p320
aVROOT
p321
aVfinished
p322
aa(lp323
Vdet
p324
aVrace
p325
aVa
p326
aa(lp327
Vprep_at
p328
aVfinished
p329
aVrace
p330
aa(lp331
Vamod
p332
aVmonth
p333
aVlast
p334
aa(lp335
Vtmod
p336
aVfinished
p337
aVmonth
p338
aa(lp339
Vnsubj
p340
aVfinished
p341
aVshe
p342
aa(lp343
Vnum
p344
aVminutes
p345
aV340
p346
aa(lp347
Vprep_in
p348
aVfinished
p349
aVminutes
p350
aasVwords
p351
(lp352
(lp353
VAt
p354
a(dp355
VNamedEntityTag
p356
g91
sVCharacterOffsetEnd
p357
V86
p358
sVCharacterOffsetBegin
p359
V84
p360
sVPartOfSpeech
p361
VIN
p362
sVLemma
p363
Vat
p364
saa(lp365
g326
a(dp366
VNamedEntityTag
p367
g91
sVCharacterOffsetEnd
p368
V88
p369
sVCharacterOffsetBegin
p370
V87
p371
sVPartOfSpeech
p372
VDT
p373
sVLemma
p374
g326
saa(lp375
Vrace
p376
a(dp377
VNamedEntityTag
p378
g91
sVCharacterOffsetEnd
p379
V93
p380
sVCharacterOffsetBegin
p381
V89
p382
sVPartOfSpeech
p383
VNN
p384
sVLemma
p385
Vrace
p386
saa(lp387
Vlast
p388
a(dp389
VNormalizedNamedEntityTag
p390
VTHIS
p391
sVTimex
p392
V<TIMEX3 alt_value="THIS P1M OFFSET P-1M" anchorTimeID="t2" temporalFunction="true" tid="t1" type="DATE" valueFromFunction="tf0">last month</TIMEX3>
p393
sVLemma
p394
Vlast
p395
sVCharacterOffsetEnd
p396
V98
p397
sVPartOfSpeech
p398
VJJ
p399
sVCharacterOffsetBegin
p400
V94
p401
sVNamedEntityTag
p402
VDATE
p403
saa(lp404
Vmonth
p405
a(dp406
VNormalizedNamedEntityTag
p407
VTHIS
p408
sVTimex
p409
V<TIMEX3 alt_value="THIS P1M OFFSET P-1M" anchorTimeID="t2" temporalFunction="true" tid="t1" type="DATE" valueFromFunction="tf0">last month</TIMEX3>
p410
sVLemma
p411
Vmonth
p412
sVCharacterOffsetEnd
p413
V104
p414
sVPartOfSpeech
p415
VNN
p416
sVCharacterOffsetBegin
p417
V99
p418
sVNamedEntityTag
p419
VDATE
p420
saa(lp421
V,
p422
a(dp423
VNamedEntityTag
p424
g91
sVCharacterOffsetEnd
p425
V106
p426
sVCharacterOffsetBegin
p427
V105
p428
sVPartOfSpeech
p429
g422
sVLemma
p430
g422
saa(lp431
Vshe
p432
a(dp433
VNamedEntityTag
p434
g91
sVCharacterOffsetEnd
p435
V110
p436
sVCharacterOffsetBegin
p437
V107
p438
sVPartOfSpeech
p439
VPRP
p440
sVLemma
p441
Vshe
p442
saa(lp443
Vfinished
p444
a(dp445
VNamedEntityTag
p446
g91
sVCharacterOffsetEnd
p447
V119
p448
sVCharacterOffsetBegin
p449
V111
p450
sVPartOfSpeech
p451
VVBD
p452
sVLemma
p453
Vfinish
p454
saa(lp455
Vin
p456
a(dp457
VNamedEntityTag
p458
g91
sVCharacterOffsetEnd
p459
V122
p460
sVCharacterOffsetBegin
p461
V120
p462
sVPartOfSpeech
p463
VIN
p464
sVLemma
p465
Vin
p466
saa(lp467
V340
p468
a(dp469
VNormalizedNamedEntityTag
p470
VPT340M
p471
sVTimex
p472
V<TIMEX3 tid="t3" type="DURATION" value="PT340M">340 minutes</TIMEX3>
p473
sVLemma
p474
V340
p475
sVCharacterOffsetEnd
p476
V126
p477
sVPartOfSpeech
p478
VCD
p479
sVCharacterOffsetBegin
p480
V123
p481
sVNamedEntityTag
p482
VDURATION
p483
saa(lp484
Vminutes
p485
a(dp486
VNormalizedNamedEntityTag
p487
VPT340M
p488
sVTimex
p489
V<TIMEX3 tid="t3" type="DURATION" value="PT340M">340 minutes</TIMEX3>
p490
sVLemma
p491
Vminute
p492
sVCharacterOffsetEnd
p493
V134
p494
sVPartOfSpeech
p495
VNNS
p496
sVCharacterOffsetBegin
p497
V127
p498
sVNamedEntityTag
p499
VDURATION
p500
saa(lp501
g257
a(dp502
VNamedEntityTag
p503
g91
sVCharacterOffsetEnd
p504
V136
p505
sVCharacterOffsetBegin
p506
V135
p507
sVPartOfSpeech
p508
g257
sVLemma
p509
g257
saasVindexeddependencies
p510
(lp511
(lp512
Vroot
p513
aVROOT-0
p514
aVfinished-8
p515
aa(lp516
Vdet
p517
aVrace-3
p518
aVa-2
p519
aa(lp520
Vprep_at
p521
aVfinished-8
p522
aVrace-3
p523
aa(lp524
Vamod
p525
aVmonth-5
p526
aVlast-4
p527
aa(lp528
Vtmod
p529
aVfinished-8
p530
aVmonth-5
p531
aa(lp532
Vnsubj
p533
aVfinished-8
p534
aVshe-7
p535
aa(lp536
Vnum
p537
aVminutes-11
p538
aV340-10
p539
aa(lp540
Vprep_in
p541
aVfinished-8
p542
aVminutes-11
p543
aasa(dp544
Vparsetree
p545
V(ROOT (S (NP-TMP (NN Yesterday)) (, ,) (NP (PRP she)) (VP (VP (VBD completed) (NP (DT another) (NN race))) (CC and) (VP (VBD finished) (PP (IN in) (NP (CD 289) (NNS minutes))))) (. .)))
p546
sVtext
p547
VYesterday , she completed another race and finished in 289 minutes .
p548
sVdependencies
p549
(lp550
(lp551
Vroot
p552
aVROOT
p553
aVcompleted
p554
aa(lp555
Vtmod
p556
aVcompleted
p557
aVYesterday
p558
aa(lp559
Vnsubj
p560
aVcompleted
p561
aVshe
p562
aa(lp563
Vdet
p564
aVrace
p565
aVanother
p566
aa(lp567
Vdobj
p568
aVcompleted
p569
aVrace
p570
aa(lp571
Vconj_and
p572
aVcompleted
p573
aVfinished
p574
aa(lp575
Vnum
p576
aVminutes
p577
aV289
p578
aa(lp579
Vprep_in
p580
aVfinished
p581
aVminutes
p582
aasVwords
p583
(lp584
(lp585
VYesterday
p586
a(dp587
VNormalizedNamedEntityTag
p588
VOFFSET
p589
sVTimex
p590
V<TIMEX3 alt_value="OFFSET P-1D" anchorTimeID="t0" temporalFunction="true" tid="t4" type="DATE" valueFromFunction="tf1">Yesterday</TIMEX3>
p591
sVLemma
p592
Vyesterday
p593
sVCharacterOffsetEnd
p594
V146
p595
sVPartOfSpeech
p596
VNN
p597
sVCharacterOffsetBegin
p598
V137
p599
sVNamedEntityTag
p600
VDATE
p601
saa(lp602
g422
a(dp603
VNamedEntityTag
p604
g91
sVCharacterOffsetEnd
p605
V148
p606
sVCharacterOffsetBegin
p607
V147
p608
sVPartOfSpeech
p609
g422
sVLemma
p610
g422
saa(lp611
Vshe
p612
a(dp613
VNamedEntityTag
p614
g91
sVCharacterOffsetEnd
p615
V152
p616
sVCharacterOffsetBegin
p617
V149
p618
sVPartOfSpeech
p619
VPRP
p620
sVLemma
p621
Vshe
p622
saa(lp623
Vcompleted
p624
a(dp625
VNamedEntityTag
p626
g91
sVCharacterOffsetEnd
p627
V162
p628
sVCharacterOffsetBegin
p629
V153
p630
sVPartOfSpeech
p631
VVBD
p632
sVLemma
p633
Vcomplete
p634
saa(lp635
Vanother
p636
a(dp637
VNamedEntityTag
p638
g91
sVCharacterOffsetEnd
p639
V170
p640
sVCharacterOffsetBegin
p641
V163
p642
sVPartOfSpeech
p643
VDT
p644
sVLemma
p645
Vanother
p646
saa(lp647
Vrace
p648
a(dp649
VNamedEntityTag
p650
g91
sVCharacterOffsetEnd
p651
V175
p652
sVCharacterOffsetBegin
p653
V171
p654
sVPartOfSpeech
p655
VNN
p656
sVLemma
p657
Vrace
p658
saa(lp659
Vand
p660
a(dp661
VNamedEntityTag
p662
g91
sVCharacterOffsetEnd
p663
V179
p664
sVCharacterOffsetBegin
p665
V176
p666
sVPartOfSpeech
p667
VCC
p668
sVLemma
p669
Vand
p670
saa(lp671
Vfinished
p672
a(dp673
VNamedEntityTag
p674
g91
sVCharacterOffsetEnd
p675
V188
p676
sVCharacterOffsetBegin
p677
V180
p678
sVPartOfSpeech
p679
VVBD
p680
sVLemma
p681
Vfinish
p682
saa(lp683
Vin
p684
a(dp685
VNamedEntityTag
p686
g91
sVCharacterOffsetEnd
p687
V191
p688
sVCharacterOffsetBegin
p689
V189
p690
sVPartOfSpeech
p691
VIN
p692
sVLemma
p693
Vin
p694
saa(lp695
V289
p696
a(dp697
VNormalizedNamedEntityTag
p698
VPT289M
p699
sVTimex
p700
V<TIMEX3 tid="t5" type="DURATION" value="PT289M">289 minutes</TIMEX3>
p701
sVLemma
p702
V289
p703
sVCharacterOffsetEnd
p704
V195
p705
sVPartOfSpeech
p706
VCD
p707
sVCharacterOffsetBegin
p708
V192
p709
sVNamedEntityTag
p710
VDURATION
p711
saa(lp712
Vminutes
p713
a(dp714
VNormalizedNamedEntityTag
p715
VPT289M
p716
sVTimex
p717
V<TIMEX3 tid="t5" type="DURATION" value="PT289M">289 minutes</TIMEX3>
p718
sVLemma
p719
Vminute
p720
sVCharacterOffsetEnd
p721
V203
p722
sVPartOfSpeech
p723
VNNS
p724
sVCharacterOffsetBegin
p725
V196
p726
sVNamedEntityTag
p727
VDURATION
p728
saa(lp729
g257
a(dp730
VNamedEntityTag
p731
g91
sVCharacterOffsetEnd
p732
V205
p733
sVCharacterOffsetBegin
p734
V204
p735
sVPartOfSpeech
p736
g257
sVLemma
p737
g257
saasVindexeddependencies
p738
(lp739
(lp740
Vroot
p741
aVROOT-0
p742
aVcompleted-4
p743
aa(lp744
Vtmod
p745
aVcompleted-4
p746
aVYesterday-1
p747
aa(lp748
Vnsubj
p749
aVcompleted-4
p750
aVshe-3
p751
aa(lp752
Vdet
p753
aVrace-6
p754
aVanother-5
p755
aa(lp756
Vdobj
p757
aVcompleted-4
p758
aVrace-6
p759
aa(lp760
Vconj_and
p761
aVcompleted-4
p762
aVfinished-8
p763
aa(lp764
Vnum
p765
aVminutes-11
p766
aV289-10
p767
aa(lp768
Vprep_in
p769
aVfinished-8
p770
aVminutes-11
p771
aasa(dp772
Vparsetree
p773
V(ROOT (SBARQ (WHNP (WP What)) (SQ (VBZ is) (NP (NP (DT the) (NN decrease)) (PP (IN in) (NP (NP (NNP Carrie) (POS 's)) (JJ finishing) (NN time))))) (. ?)))
p774
sVtext
p775
VWhat is the decrease in Carrie's finishing time ?
p776
sVdependencies
p777
(lp778
(lp779
Vroot
p780
aVROOT
p781
aVWhat
p782
aa(lp783
Vcop
p784
aVWhat
p785
aVis
p786
aa(lp787
Vdet
p788
aVdecrease
p789
aVthe
p790
aa(lp791
Vnsubj
p792
aVWhat
p793
aVdecrease
p794
aa(lp795
Vposs
p796
aVtime
p797
aVCarrie
p798
aa(lp799
Vamod
p800
aVtime
p801
aVfinishing
p802
aa(lp803
Vprep_in
p804
aVdecrease
p805
aVtime
p806
aasVwords
p807
(lp808
(lp809
VWhat
p810
a(dp811
VNamedEntityTag
p812
g91
sVCharacterOffsetEnd
p813
V210
p814
sVCharacterOffsetBegin
p815
V206
p816
sVPartOfSpeech
p817
VWP
p818
sVLemma
p819
Vwhat
p820
saa(lp821
Vis
p822
a(dp823
VNamedEntityTag
p824
g91
sVCharacterOffsetEnd
p825
V213
p826
sVCharacterOffsetBegin
p827
V211
p828
sVPartOfSpeech
p829
VVBZ
p830
sVLemma
p831
Vbe
p832
saa(lp833
Vthe
p834
a(dp835
VNamedEntityTag
p836
g91
sVCharacterOffsetEnd
p837
V217
p838
sVCharacterOffsetBegin
p839
V214
p840
sVPartOfSpeech
p841
VDT
p842
sVLemma
p843
Vthe
p844
saa(lp845
Vdecrease
p846
a(dp847
VNamedEntityTag
p848
g91
sVCharacterOffsetEnd
p849
V226
p850
sVCharacterOffsetBegin
p851
V218
p852
sVPartOfSpeech
p853
VNN
p854
sVLemma
p855
Vdecrease
p856
saa(lp857
Vin
p858
a(dp859
VNamedEntityTag
p860
g91
sVCharacterOffsetEnd
p861
V229
p862
sVCharacterOffsetBegin
p863
V227
p864
sVPartOfSpeech
p865
VIN
p866
sVLemma
p867
Vin
p868
saa(lp869
VCarrie
p870
a(dp871
VNamedEntityTag
p872
VPERSON
p873
sVCharacterOffsetEnd
p874
V236
p875
sVCharacterOffsetBegin
p876
V230
p877
sVPartOfSpeech
p878
VNNP
p879
sVLemma
p880
VCarrie
p881
saa(lp882
V's
p883
a(dp884
VNamedEntityTag
p885
g91
sVCharacterOffsetEnd
p886
V238
p887
sVCharacterOffsetBegin
p888
V236
p889
sVPartOfSpeech
p890
VPOS
p891
sVLemma
p892
V's
p893
saa(lp894
Vfinishing
p895
a(dp896
VNamedEntityTag
p897
g91
sVCharacterOffsetEnd
p898
V248
p899
sVCharacterOffsetBegin
p900
V239
p901
sVPartOfSpeech
p902
VJJ
p903
sVLemma
p904
Vfinishing
p905
saa(lp906
Vtime
p907
a(dp908
VNamedEntityTag
p909
g91
sVCharacterOffsetEnd
p910
V253
p911
sVCharacterOffsetBegin
p912
V249
p913
sVPartOfSpeech
p914
VNN
p915
sVLemma
p916
Vtime
p917
saa(lp918
V?
p919
a(dp920
VNamedEntityTag
p921
g91
sVCharacterOffsetEnd
p922
V255
p923
sVCharacterOffsetBegin
p924
V254
p925
sVPartOfSpeech
p926
g257
sVLemma
p927
g919
saasVindexeddependencies
p928
(lp929
(lp930
Vroot
p931
aVROOT-0
p932
aVWhat-1
p933
aa(lp934
Vcop
p935
aVWhat-1
p936
aVis-2
p937
aa(lp938
Vdet
p939
aVdecrease-4
p940
aVthe-3
p941
aa(lp942
Vnsubj
p943
aVWhat-1
p944
aVdecrease-4
p945
aa(lp946
Vposs
p947
aVtime-9
p948
aVCarrie-6
p949
aa(lp950
Vamod
p951
aVtime-9
p952
aVfinishing-8
p953
aa(lp954
Vprep_in
p955
aVdecrease-4
p956
aVtime-9
p957
aasas.