(dp0
Vcoref
p1
(lp2
(lp3
(lp4
(lp5
Vthe depth
p6
aI1
aI6
aI5
aI7
aa(lp7
VThe depth of a lake in Winchester changes over time due to rainfall and evaporation .
p8
aI0
aI1
aI0
aI16
aaaa(lp9
(lp10
(lp11
Vthe lake
p12
aI2
aI3
aI2
aI4
aa(lp13
Va lake in Winchester changes over time
p14
aI0
aI4
aI3
aI10
aaaasVsentences
p15
(lp16
(dp17
Vparsetree
p18
V(ROOT (NP (NP (NP (DT The) (NN depth)) (PP (IN of) (NP (NP (DT a) (NN lake)) (PP (IN in) (NP (NP (NNP Winchester) (NNS changes)) (PP (IN over) (NP (NN time)))))))) (ADJP (JJ due) (PP (TO to) (NP (NNS rainfall) (CC and) (NN evaporation)))) (. .)))
p19
sVtext
p20
VThe depth of a lake in Winchester changes over time due to rainfall and evaporation .
p21
sVdependencies
p22
(lp23
(lp24
Vroot
p25
aVROOT
p26
aVdepth
p27
aa(lp28
Vdet
p29
aVdepth
p30
aVThe
p31
aa(lp32
Vdet
p33
aVlake
p34
aVa
p35
aa(lp36
Vprep_of
p37
aVdepth
p38
aVlake
p39
aa(lp40
Vnn
p41
aVchanges
p42
aVWinchester
p43
aa(lp44
Vprep_in
p45
aVlake
p46
aVchanges
p47
aa(lp48
Vprep_over
p49
aVchanges
p50
aVtime
p51
aa(lp52
Vprep_due_to
p53
aVdepth
p54
aVrainfall
p55
aa(lp56
Vconj_and
p57
aVrainfall
p58
aVevaporation
p59
aasVwords
p60
(lp61
(lp62
VThe
p63
a(dp64
VNamedEntityTag
p65
VO
p66
sVCharacterOffsetEnd
p67
V4
p68
sVCharacterOffsetBegin
p69
V1
p70
sVPartOfSpeech
p71
VDT
p72
sVLemma
p73
Vthe
p74
saa(lp75
Vdepth
p76
a(dp77
VNamedEntityTag
p78
g66
sVCharacterOffsetEnd
p79
V10
p80
sVCharacterOffsetBegin
p81
V5
p82
sVPartOfSpeech
p83
VNN
p84
sVLemma
p85
Vdepth
p86
saa(lp87
Vof
p88
a(dp89
VNamedEntityTag
p90
g66
sVCharacterOffsetEnd
p91
V13
p92
sVCharacterOffsetBegin
p93
V11
p94
sVPartOfSpeech
p95
VIN
p96
sVLemma
p97
Vof
p98
saa(lp99
g35
a(dp100
VNamedEntityTag
p101
g66
sVCharacterOffsetEnd
p102
V15
p103
sVCharacterOffsetBegin
p104
V14
p105
sVPartOfSpeech
p106
VDT
p107
sVLemma
p108
g35
saa(lp109
Vlake
p110
a(dp111
VNamedEntityTag
p112
g66
sVCharacterOffsetEnd
p113
V20
p114
sVCharacterOffsetBegin
p115
V16
p116
sVPartOfSpeech
p117
VNN
p118
sVLemma
p119
Vlake
p120
saa(lp121
Vin
p122
a(dp123
VNamedEntityTag
p124
g66
sVCharacterOffsetEnd
p125
V23
p126
sVCharacterOffsetBegin
p127
V21
p128
sVPartOfSpeech
p129
VIN
p130
sVLemma
p131
Vin
p132
saa(lp133
VWinchester
p134
a(dp135
VNamedEntityTag
p136
VLOCATION
p137
sVCharacterOffsetEnd
p138
V34
p139
sVCharacterOffsetBegin
p140
V24
p141
sVPartOfSpeech
p142
VNNP
p143
sVLemma
p144
VWinchester
p145
saa(lp146
Vchanges
p147
a(dp148
VNamedEntityTag
p149
g66
sVCharacterOffsetEnd
p150
V42
p151
sVCharacterOffsetBegin
p152
V35
p153
sVPartOfSpeech
p154
VNNS
p155
sVLemma
p156
Vchange
p157
saa(lp158
Vover
p159
a(dp160
VNamedEntityTag
p161
g66
sVCharacterOffsetEnd
p162
V47
p163
sVCharacterOffsetBegin
p164
V43
p165
sVPartOfSpeech
p166
VIN
p167
sVLemma
p168
Vover
p169
saa(lp170
Vtime
p171
a(dp172
VNamedEntityTag
p173
g66
sVCharacterOffsetEnd
p174
V52
p175
sVCharacterOffsetBegin
p176
V48
p177
sVPartOfSpeech
p178
VNN
p179
sVLemma
p180
Vtime
p181
saa(lp182
Vdue
p183
a(dp184
VNamedEntityTag
p185
g66
sVCharacterOffsetEnd
p186
V56
p187
sVCharacterOffsetBegin
p188
V53
p189
sVPartOfSpeech
p190
VJJ
p191
sVLemma
p192
Vdue
p193
saa(lp194
Vto
p195
a(dp196
VNamedEntityTag
p197
g66
sVCharacterOffsetEnd
p198
V59
p199
sVCharacterOffsetBegin
p200
V57
p201
sVPartOfSpeech
p202
VTO
p203
sVLemma
p204
Vto
p205
saa(lp206
Vrainfall
p207
a(dp208
VNamedEntityTag
p209
g66
sVCharacterOffsetEnd
p210
V68
p211
sVCharacterOffsetBegin
p212
V60
p213
sVPartOfSpeech
p214
VNNS
p215
sVLemma
p216
Vrainfall
p217
saa(lp218
Vand
p219
a(dp220
VNamedEntityTag
p221
g66
sVCharacterOffsetEnd
p222
V72
p223
sVCharacterOffsetBegin
p224
V69
p225
sVPartOfSpeech
p226
VCC
p227
sVLemma
p228
Vand
p229
saa(lp230
Vevaporation
p231
a(dp232
VNamedEntityTag
p233
g66
sVCharacterOffsetEnd
p234
V84
p235
sVCharacterOffsetBegin
p236
V73
p237
sVPartOfSpeech
p238
VNN
p239
sVLemma
p240
Vevaporation
p241
saa(lp242
V.
p243
a(dp244
VNamedEntityTag
p245
g66
sVCharacterOffsetEnd
p246
V86
p247
sVCharacterOffsetBegin
p248
V85
p249
sVPartOfSpeech
p250
g243
sVLemma
p251
g243
saasVindexeddependencies
p252
(lp253
(lp254
Vroot
p255
aVROOT-0
p256
aVdepth-2
p257
aa(lp258
Vdet
p259
aVdepth-2
p260
aVThe-1
p261
aa(lp262
Vdet
p263
aVlake-5
p264
aVa-4
p265
aa(lp266
Vprep_of
p267
aVdepth-2
p268
aVlake-5
p269
aa(lp270
Vnn
p271
aVchanges-8
p272
aVWinchester-7
p273
aa(lp274
Vprep_in
p275
aVlake-5
p276
aVchanges-8
p277
aa(lp278
Vprep_over
p279
aVchanges-8
p280
aVtime-10
p281
aa(lp282
Vprep_due_to
p283
aVdepth-2
p284
aVrainfall-13
p285
aa(lp286
Vconj_and
p287
aVrainfall-13
p288
aVevaporation-15
p289
aasa(dp290
Vparsetree
p291
V(ROOT (S (ADVP (NP (DT A) (JJ few) (NNS months)) (RB ago)) (, ,) (NP (DT the) (NN depth)) (VP (VBD was) (NP (CD 68) (NNS feet))) (. .)))
p292
sVtext
p293
VA few months ago , the depth was 68 feet .
p294
sVdependencies
p295
(lp296
(lp297
Vroot
p298
aVROOT
p299
aVfeet
p300
aa(lp301
Vdet
p302
aVmonths
p303
aVA
p304
aa(lp305
Vamod
p306
aVmonths
p307
aVfew
p308
aa(lp309
Vnpadvmod
p310
aVago
p311
aVmonths
p312
aa(lp313
Vadvmod
p314
aVfeet
p315
aVago
p316
aa(lp317
Vdet
p318
aVdepth
p319
aVthe
p320
aa(lp321
Vnsubj
p322
aVfeet
p323
aVdepth
p324
aa(lp325
Vcop
p326
aVfeet
p327
aVwas
p328
aa(lp329
Vnum
p330
aVfeet
p331
aV68
p332
aasVwords
p333
(lp334
(lp335
g304
a(dp336
VNormalizedNamedEntityTag
p337
VOFFSET
p338
sVTimex
p339
V<TIMEX3 alt_value="OFFSET P-1M" anchorTimeID="t0" temporalFunction="true" tid="t1" type="DATE" valueFromFunction="tf0">A few months ago</TIMEX3>
p340
sVLemma
p341
g35
sVCharacterOffsetEnd
p342
V88
p343
sVPartOfSpeech
p344
VDT
p345
sVCharacterOffsetBegin
p346
V87
p347
sVNamedEntityTag
p348
VDATE
p349
saa(lp350
Vfew
p351
a(dp352
VNormalizedNamedEntityTag
p353
VOFFSET
p354
sVTimex
p355
V<TIMEX3 alt_value="OFFSET P-1M" anchorTimeID="t0" temporalFunction="true" tid="t1" type="DATE" valueFromFunction="tf0">A few months ago</TIMEX3>
p356
sVLemma
p357
Vfew
p358
sVCharacterOffsetEnd
p359
V92
p360
sVPartOfSpeech
p361
VJJ
p362
sVCharacterOffsetBegin
p363
V89
p364
sVNamedEntityTag
p365
VDATE
p366
saa(lp367
Vmonths
p368
a(dp369
VNormalizedNamedEntityTag
p370
VOFFSET
p371
sVTimex
p372
V<TIMEX3 alt_value="OFFSET P-1M" anchorTimeID="t0" temporalFunction="true" tid="t1" type="DATE" valueFromFunction="tf0">A few months ago</TIMEX3>
p373
sVLemma
p374
Vmonth
p375
sVCharacterOffsetEnd
p376
V99
p377
sVPartOfSpeech
p378
VNNS
p379
sVCharacterOffsetBegin
p380
V93
p381
sVNamedEntityTag
p382
VDATE
p383
saa(lp384
Vago
p385
a(dp386
VNormalizedNamedEntityTag
p387
VOFFSET
p388
sVTimex
p389
V<TIMEX3 alt_value="OFFSET P-1M" anchorTimeID="t0" temporalFunction="true" tid="t1" type="DATE" valueFromFunction="tf0">A few months ago</TIMEX3>
p390
sVLemma
p391
Vago
p392
sVCharacterOffsetEnd
p393
V103
p394
sVPartOfSpeech
p395
VRB
p396
sVCharacterOffsetBegin
p397
V100
p398
sVNamedEntityTag
p399
VDATE
p400
saa(lp401
V,
p402
a(dp403
VNamedEntityTag
p404
g66
sVCharacterOffsetEnd
p405
V105
p406
sVCharacterOffsetBegin
p407
V104
p408
sVPartOfSpeech
p409
g402
sVLemma
p410
g402
saa(lp411
Vthe
p412
a(dp413
VNamedEntityTag
p414
g66
sVCharacterOffsetEnd
p415
V109
p416
sVCharacterOffsetBegin
p417
V106
p418
sVPartOfSpeech
p419
VDT
p420
sVLemma
p421
Vthe
p422
saa(lp423
Vdepth
p424
a(dp425
VNamedEntityTag
p426
g66
sVCharacterOffsetEnd
p427
V115
p428
sVCharacterOffsetBegin
p429
V110
p430
sVPartOfSpeech
p431
VNN
p432
sVLemma
p433
Vdepth
p434
saa(lp435
Vwas
p436
a(dp437
VNamedEntityTag
p438
g66
sVCharacterOffsetEnd
p439
V119
p440
sVCharacterOffsetBegin
p441
V116
p442
sVPartOfSpeech
p443
VVBD
p444
sVLemma
p445
Vbe
p446
saa(lp447
V68
p448
a(dp449
VNormalizedNamedEntityTag
p450
V68.0
p451
sVLemma
p452
V68
p453
sVCharacterOffsetEnd
p454
V122
p455
sVPartOfSpeech
p456
VCD
p457
sVCharacterOffsetBegin
p458
V120
p459
sVNamedEntityTag
p460
VNUMBER
p461
saa(lp462
Vfeet
p463
a(dp464
VNamedEntityTag
p465
g66
sVCharacterOffsetEnd
p466
V127
p467
sVCharacterOffsetBegin
p468
V123
p469
sVPartOfSpeech
p470
VNNS
p471
sVLemma
p472
Vfoot
p473
saa(lp474
g243
a(dp475
VNamedEntityTag
p476
g66
sVCharacterOffsetEnd
p477
V129
p478
sVCharacterOffsetBegin
p479
V128
p480
sVPartOfSpeech
p481
g243
sVLemma
p482
g243
saasVindexeddependencies
p483
(lp484
(lp485
Vroot
p486
aVROOT-0
p487
aVfeet-10
p488
aa(lp489
Vdet
p490
aVmonths-3
p491
aVA-1
p492
aa(lp493
Vamod
p494
aVmonths-3
p495
aVfew-2
p496
aa(lp497
Vnpadvmod
p498
aVago-4
p499
aVmonths-3
p500
aa(lp501
Vadvmod
p502
aVfeet-10
p503
aVago-4
p504
aa(lp505
Vdet
p506
aVdepth-7
p507
aVthe-6
p508
aa(lp509
Vnsubj
p510
aVfeet-10
p511
aVdepth-7
p512
aa(lp513
Vcop
p514
aVfeet-10
p515
aVwas-8
p516
aa(lp517
Vnum
p518
aVfeet-10
p519
aV68-9
p520
aasa(dp521
Vparsetree
p522
V(ROOT (S (ADVP (RB Currently)) (, ,) (NP (DT the) (NN lake)) (VP (VBZ is) (ADJP (NP (CD 0.25) (NNS times)) (JJR deeper))) (. .)))
p523
sVtext
p524
VCurrently , the lake is 0.25 times deeper .
p525
sVdependencies
p526
(lp527
(lp528
Vroot
p529
aVROOT
p530
aVdeeper
p531
aa(lp532
Vadvmod
p533
aVdeeper
p534
aVCurrently
p535
aa(lp536
Vdet
p537
aVlake
p538
aVthe
p539
aa(lp540
Vnsubj
p541
aVdeeper
p542
aVlake
p543
aa(lp544
Vcop
p545
aVdeeper
p546
aVis
p547
aa(lp548
Vnum
p549
aVtimes
p550
aV0.25
p551
aa(lp552
Vnpadvmod
p553
aVdeeper
p554
aVtimes
p555
aasVwords
p556
(lp557
(lp558
VCurrently
p559
a(dp560
VNormalizedNamedEntityTag
p561
VPRESENT_REF
p562
sVTimex
p563
V<TIMEX3 tid="t2" type="DATE" value="PRESENT_REF">Currently</TIMEX3>
p564
sVLemma
p565
Vcurrently
p566
sVCharacterOffsetEnd
p567
V139
p568
sVPartOfSpeech
p569
VRB
p570
sVCharacterOffsetBegin
p571
V130
p572
sVNamedEntityTag
p573
VDATE
p574
saa(lp575
g402
a(dp576
VNamedEntityTag
p577
g66
sVCharacterOffsetEnd
p578
V141
p579
sVCharacterOffsetBegin
p580
V140
p581
sVPartOfSpeech
p582
g402
sVLemma
p583
g402
saa(lp584
Vthe
p585
a(dp586
VNamedEntityTag
p587
g66
sVCharacterOffsetEnd
p588
V145
p589
sVCharacterOffsetBegin
p590
V142
p591
sVPartOfSpeech
p592
VDT
p593
sVLemma
p594
Vthe
p595
saa(lp596
Vlake
p597
a(dp598
VNamedEntityTag
p599
g66
sVCharacterOffsetEnd
p600
V150
p601
sVCharacterOffsetBegin
p602
V146
p603
sVPartOfSpeech
p604
VNN
p605
sVLemma
p606
Vlake
p607
saa(lp608
Vis
p609
a(dp610
VNamedEntityTag
p611
g66
sVCharacterOffsetEnd
p612
V153
p613
sVCharacterOffsetBegin
p614
V151
p615
sVPartOfSpeech
p616
VVBZ
p617
sVLemma
p618
Vbe
p619
saa(lp620
V0.25
p621
a(dp622
VNormalizedNamedEntityTag
p623
V0.25
p624
sVLemma
p625
V0.25
p626
sVCharacterOffsetEnd
p627
V158
p628
sVPartOfSpeech
p629
VCD
p630
sVCharacterOffsetBegin
p631
V154
p632
sVNamedEntityTag
p633
VNUMBER
p634
saa(lp635
Vtimes
p636
a(dp637
VNamedEntityTag
p638
g66
sVCharacterOffsetEnd
p639
V164
p640
sVCharacterOffsetBegin
p641
V159
p642
sVPartOfSpeech
p643
VNNS
p644
sVLemma
p645
Vtime
p646
saa(lp647
Vdeeper
p648
a(dp649
VNamedEntityTag
p650
g66
sVCharacterOffsetEnd
p651
V171
p652
sVCharacterOffsetBegin
p653
V165
p654
sVPartOfSpeech
p655
VJJR
p656
sVLemma
p657
Vdeeper
p658
saa(lp659
g243
a(dp660
VNamedEntityTag
p661
g66
sVCharacterOffsetEnd
p662
V173
p663
sVCharacterOffsetBegin
p664
V172
p665
sVPartOfSpeech
p666
g243
sVLemma
p667
g243
saasVindexeddependencies
p668
(lp669
(lp670
Vroot
p671
aVROOT-0
p672
aVdeeper-8
p673
aa(lp674
Vadvmod
p675
aVdeeper-8
p676
aVCurrently-1
p677
aa(lp678
Vdet
p679
aVlake-4
p680
aVthe-3
p681
aa(lp682
Vnsubj
p683
aVdeeper-8
p684
aVlake-4
p685
aa(lp686
Vcop
p687
aVdeeper-8
p688
aVis-5
p689
aa(lp690
Vnum
p691
aVtimes-7
p692
aV0.25-6
p693
aa(lp694
Vnpadvmod
p695
aVdeeper-8
p696
aVtimes-7
p697
aasa(dp698
Vparsetree
p699
V(ROOT (SBARQ (WHNP (WP What)) (SQ (VBZ is) (NP (NP (DT this) (NN year) (POS 's)) (NN depth))) (. ?)))
p700
sVtext
p701
VWhat is this year's depth ?
p702
sVdependencies
p703
(lp704
(lp705
Vroot
p706
aVROOT
p707
aVWhat
p708
aa(lp709
Vcop
p710
aVWhat
p711
aVis
p712
aa(lp713
Vdet
p714
aVyear
p715
aVthis
p716
aa(lp717
Vposs
p718
aVdepth
p719
aVyear
p720
aa(lp721
Vnsubj
p722
aVWhat
p723
aVdepth
p724
aasVwords
p725
(lp726
(lp727
VWhat
p728
a(dp729
VNamedEntityTag
p730
g66
sVCharacterOffsetEnd
p731
V178
p732
sVCharacterOffsetBegin
p733
V174
p734
sVPartOfSpeech
p735
VWP
p736
sVLemma
p737
Vwhat
p738
saa(lp739
Vis
p740
a(dp741
VNamedEntityTag
p742
g66
sVCharacterOffsetEnd
p743
V181
p744
sVCharacterOffsetBegin
p745
V179
p746
sVPartOfSpeech
p747
VVBZ
p748
sVLemma
p749
Vbe
p750
saa(lp751
Vthis
p752
a(dp753
VNormalizedNamedEntityTag
p754
VTHIS
p755
sVTimex
p756
V<TIMEX3 alt_value="THIS P1Y" anchorTimeID="t0" temporalFunction="true" tid="t3" type="DATE" valueFromFunction="tf1">this year</TIMEX3>
p757
sVLemma
p758
Vthis
p759
sVCharacterOffsetEnd
p760
V186
p761
sVPartOfSpeech
p762
VDT
p763
sVCharacterOffsetBegin
p764
V182
p765
sVNamedEntityTag
p766
VDATE
p767
saa(lp768
Vyear
p769
a(dp770
VNormalizedNamedEntityTag
p771
VTHIS
p772
sVTimex
p773
V<TIMEX3 alt_value="THIS P1Y" anchorTimeID="t0" temporalFunction="true" tid="t3" type="DATE" valueFromFunction="tf1">this year</TIMEX3>
p774
sVLemma
p775
Vyear
p776
sVCharacterOffsetEnd
p777
V191
p778
sVPartOfSpeech
p779
VNN
p780
sVCharacterOffsetBegin
p781
V187
p782
sVNamedEntityTag
p783
VDATE
p784
saa(lp785
V's
p786
a(dp787
VNamedEntityTag
p788
g66
sVCharacterOffsetEnd
p789
V193
p790
sVCharacterOffsetBegin
p791
V191
p792
sVPartOfSpeech
p793
VPOS
p794
sVLemma
p795
V's
p796
saa(lp797
Vdepth
p798
a(dp799
VNamedEntityTag
p800
g66
sVCharacterOffsetEnd
p801
V199
p802
sVCharacterOffsetBegin
p803
V194
p804
sVPartOfSpeech
p805
VNN
p806
sVLemma
p807
Vdepth
p808
saa(lp809
V?
p810
a(dp811
VNamedEntityTag
p812
g66
sVCharacterOffsetEnd
p813
V201
p814
sVCharacterOffsetBegin
p815
V200
p816
sVPartOfSpeech
p817
g243
sVLemma
p818
g810
saasVindexeddependencies
p819
(lp820
(lp821
Vroot
p822
aVROOT-0
p823
aVWhat-1
p824
aa(lp825
Vcop
p826
aVWhat-1
p827
aVis-2
p828
aa(lp829
Vdet
p830
aVyear-4
p831
aVthis-3
p832
aa(lp833
Vposs
p834
aVdepth-6
p835
aVyear-4
p836
aa(lp837
Vnsubj
p838
aVWhat-1
p839
aVdepth-6
p840
aasas.