(dp0
Vcoref
p1
(lp2
(lp3
(lp4
(lp5
Vhe
p6
aI0
aI11
aI11
aI12
aa(lp7
VVictor
p8
aI0
aI0
aI0
aI1
aaa(lp9
(lp10
Vhe
p11
aI1
aI2
aI2
aI3
aa(lp12
VVictor
p13
aI0
aI0
aI0
aI1
aaa(lp14
(lp15
Vhe
p16
aI1
aI9
aI9
aI10
aa(lp17
VVictor
p18
aI0
aI0
aI0
aI1
aaa(lp19
(lp20
VVictor
p21
aI2
aI4
aI4
aI5
aa(lp22
VVictor
p23
aI0
aI0
aI0
aI1
aaaa(lp24
(lp25
(lp26
V5 hours
p27
aI1
aI12
aI11
aI13
aa(lp28
V5 hours
p29
aI1
aI5
aI4
aI6
aaaasVsentences
p30
(lp31
(dp32
Vparsetree
p33
V(ROOT (S (NP (NNP Victor)) (VP (VBD was) (VP (VBG working) (PP (IN as) (NP (NP (DT a) (NN sacker)) (PP (IN at) (NP (DT a) (NN grocery) (NN store))))) (SBAR (WHADVP (WRB where)) (S (NP (PRP he)) (VP (VBD made) (NP (NP (CD 6) (NNS dollars)) (NP (DT an) (NN hour)))))))) (. .)))
p34
sVtext
p35
VVictor was working as a sacker at a grocery store where he made 6 dollars an hour .
p36
sVdependencies
p37
(lp38
(lp39
Vroot
p40
aVROOT
p41
aVworking
p42
aa(lp43
Vnsubj
p44
aVworking
p45
aVVictor
p46
aa(lp47
Vaux
p48
aVworking
p49
aVwas
p50
aa(lp51
Vdet
p52
aVsacker
p53
aVa
p54
aa(lp55
Vprep_as
p56
aVworking
p57
aVsacker
p58
aa(lp59
Vdet
p60
aVstore
p61
ag54
aa(lp62
Vnn
p63
aVstore
p64
aVgrocery
p65
aa(lp66
Vprep_at
p67
aVsacker
p68
aVstore
p69
aa(lp70
Vadvmod
p71
aVmade
p72
aVwhere
p73
aa(lp74
Vnsubj
p75
aVmade
p76
aVhe
p77
aa(lp78
Vadvcl
p79
aVworking
p80
aVmade
p81
aa(lp82
Vnum
p83
aVdollars
p84
aV6
p85
aa(lp86
Vdobj
p87
aVmade
p88
aVdollars
p89
aa(lp90
Vdet
p91
aVhour
p92
aVan
p93
aa(lp94
Vdep
p95
aVdollars
p96
aVhour
p97
aasVwords
p98
(lp99
(lp100
VVictor
p101
a(dp102
VNamedEntityTag
p103
VPERSON
p104
sVCharacterOffsetEnd
p105
V7
p106
sVCharacterOffsetBegin
p107
V1
p108
sVPartOfSpeech
p109
VNNP
p110
sVLemma
p111
VVictor
p112
saa(lp113
Vwas
p114
a(dp115
VNamedEntityTag
p116
VO
p117
sVCharacterOffsetEnd
p118
V11
p119
sVCharacterOffsetBegin
p120
V8
p121
sVPartOfSpeech
p122
VVBD
p123
sVLemma
p124
Vbe
p125
saa(lp126
Vworking
p127
a(dp128
VNamedEntityTag
p129
g117
sVCharacterOffsetEnd
p130
V19
p131
sVCharacterOffsetBegin
p132
V12
p133
sVPartOfSpeech
p134
VVBG
p135
sVLemma
p136
Vwork
p137
saa(lp138
Vas
p139
a(dp140
VNamedEntityTag
p141
g117
sVCharacterOffsetEnd
p142
V22
p143
sVCharacterOffsetBegin
p144
V20
p145
sVPartOfSpeech
p146
VIN
p147
sVLemma
p148
Vas
p149
saa(lp150
g54
a(dp151
VNamedEntityTag
p152
g117
sVCharacterOffsetEnd
p153
V24
p154
sVCharacterOffsetBegin
p155
V23
p156
sVPartOfSpeech
p157
VDT
p158
sVLemma
p159
g54
saa(lp160
Vsacker
p161
a(dp162
VNamedEntityTag
p163
g117
sVCharacterOffsetEnd
p164
V31
p165
sVCharacterOffsetBegin
p166
V25
p167
sVPartOfSpeech
p168
VNN
p169
sVLemma
p170
Vsacker
p171
saa(lp172
Vat
p173
a(dp174
VNamedEntityTag
p175
g117
sVCharacterOffsetEnd
p176
V34
p177
sVCharacterOffsetBegin
p178
V32
p179
sVPartOfSpeech
p180
VIN
p181
sVLemma
p182
Vat
p183
saa(lp184
g54
a(dp185
VNamedEntityTag
p186
g117
sVCharacterOffsetEnd
p187
V36
p188
sVCharacterOffsetBegin
p189
V35
p190
sVPartOfSpeech
p191
VDT
p192
sVLemma
p193
g54
saa(lp194
Vgrocery
p195
a(dp196
VNamedEntityTag
p197
g117
sVCharacterOffsetEnd
p198
V44
p199
sVCharacterOffsetBegin
p200
V37
p201
sVPartOfSpeech
p202
VNN
p203
sVLemma
p204
Vgrocery
p205
saa(lp206
Vstore
p207
a(dp208
VNamedEntityTag
p209
g117
sVCharacterOffsetEnd
p210
V50
p211
sVCharacterOffsetBegin
p212
V45
p213
sVPartOfSpeech
p214
VNN
p215
sVLemma
p216
Vstore
p217
saa(lp218
Vwhere
p219
a(dp220
VNamedEntityTag
p221
g117
sVCharacterOffsetEnd
p222
V56
p223
sVCharacterOffsetBegin
p224
V51
p225
sVPartOfSpeech
p226
VWRB
p227
sVLemma
p228
Vwhere
p229
saa(lp230
Vhe
p231
a(dp232
VNamedEntityTag
p233
g117
sVCharacterOffsetEnd
p234
V59
p235
sVCharacterOffsetBegin
p236
V57
p237
sVPartOfSpeech
p238
VPRP
p239
sVLemma
p240
Vhe
p241
saa(lp242
Vmade
p243
a(dp244
VNamedEntityTag
p245
g117
sVCharacterOffsetEnd
p246
V64
p247
sVCharacterOffsetBegin
p248
V60
p249
sVPartOfSpeech
p250
VVBD
p251
sVLemma
p252
Vmake
p253
saa(lp254
g85
a(dp255
VNormalizedNamedEntityTag
p256
V$6.0
p257
sVLemma
p258
g85
sVCharacterOffsetEnd
p259
V66
p260
sVPartOfSpeech
p261
VCD
p262
sVCharacterOffsetBegin
p263
V65
p264
sVNamedEntityTag
p265
VMONEY
p266
saa(lp267
Vdollars
p268
a(dp269
VNormalizedNamedEntityTag
p270
V$6.0
p271
sVLemma
p272
Vdollar
p273
sVCharacterOffsetEnd
p274
V74
p275
sVPartOfSpeech
p276
VNNS
p277
sVCharacterOffsetBegin
p278
V67
p279
sVNamedEntityTag
p280
VMONEY
p281
saa(lp282
Van
p283
a(dp284
VNormalizedNamedEntityTag
p285
VPT1H
p286
sVTimex
p287
V<TIMEX3 tid="t1" type="DURATION" value="PT1H">an hour</TIMEX3>
p288
sVLemma
p289
g54
sVCharacterOffsetEnd
p290
V77
p291
sVPartOfSpeech
p292
VDT
p293
sVCharacterOffsetBegin
p294
V75
p295
sVNamedEntityTag
p296
VDURATION
p297
saa(lp298
Vhour
p299
a(dp300
VNormalizedNamedEntityTag
p301
VPT1H
p302
sVTimex
p303
V<TIMEX3 tid="t1" type="DURATION" value="PT1H">an hour</TIMEX3>
p304
sVLemma
p305
Vhour
p306
sVCharacterOffsetEnd
p307
V82
p308
sVPartOfSpeech
p309
VNN
p310
sVCharacterOffsetBegin
p311
V78
p312
sVNamedEntityTag
p313
VDURATION
p314
saa(lp315
V.
p316
a(dp317
VNamedEntityTag
p318
g117
sVCharacterOffsetEnd
p319
V84
p320
sVCharacterOffsetBegin
p321
V83
p322
sVPartOfSpeech
p323
g316
sVLemma
p324
g316
saasVindexeddependencies
p325
(lp326
(lp327
Vroot
p328
aVROOT-0
p329
aVworking-3
p330
aa(lp331
Vnsubj
p332
aVworking-3
p333
aVVictor-1
p334
aa(lp335
Vaux
p336
aVworking-3
p337
aVwas-2
p338
aa(lp339
Vdet
p340
aVsacker-6
p341
aVa-5
p342
aa(lp343
Vprep_as
p344
aVworking-3
p345
aVsacker-6
p346
aa(lp347
Vdet
p348
aVstore-10
p349
aVa-8
p350
aa(lp351
Vnn
p352
aVstore-10
p353
aVgrocery-9
p354
aa(lp355
Vprep_at
p356
aVsacker-6
p357
aVstore-10
p358
aa(lp359
Vadvmod
p360
aVmade-13
p361
aVwhere-11
p362
aa(lp363
Vnsubj
p364
aVmade-13
p365
aVhe-12
p366
aa(lp367
Vadvcl
p368
aVworking-3
p369
aVmade-13
p370
aa(lp371
Vnum
p372
aVdollars-15
p373
aV6-14
p374
aa(lp375
Vdobj
p376
aVmade-13
p377
aVdollars-15
p378
aa(lp379
Vdet
p380
aVhour-17
p381
aVan-16
p382
aa(lp383
Vdep
p384
aVdollars-15
p385
aVhour-17
p386
aasa(dp387
Vparsetree
p388
V(ROOT (S (S (PP (IN On) (NP (NNP Monday))) (NP (PRP he)) (VP (VBD worked) (NP (CD 5) (NNS hours)))) (CC and) (S (PP (IN on) (NP (NNP Tuesday))) (NP (PRP he)) (VP (VBD worked) (NP (CD 5) (NNS hours)))) (. .)))
p389
sVtext
p390
VOn Monday he worked 5 hours and on Tuesday he worked 5 hours .
p391
sVdependencies
p392
(lp393
(lp394
Vroot
p395
aVROOT
p396
aVworked
p397
aa(lp398
Vprep_on
p399
aVworked
p400
aVMonday
p401
aa(lp402
Vnsubj
p403
aVworked
p404
aVhe
p405
aa(lp406
Vnum
p407
aVhours
p408
aV5
p409
aa(lp410
Vdobj
p411
aVworked
p412
aVhours
p413
aa(lp414
Vprep_on
p415
aVworked
p416
aVTuesday
p417
aa(lp418
Vnsubj
p419
aVworked
p420
aVhe
p421
aa(lp422
Vconj_and
p423
aVworked
p424
aVworked
p425
aa(lp426
Vnum
p427
aVhours
p428
ag409
aa(lp429
Vdobj
p430
aVworked
p431
aVhours
p432
aasVwords
p433
(lp434
(lp435
VOn
p436
a(dp437
VNamedEntityTag
p438
g117
sVCharacterOffsetEnd
p439
V87
p440
sVCharacterOffsetBegin
p441
V85
p442
sVPartOfSpeech
p443
VIN
p444
sVLemma
p445
Von
p446
saa(lp447
VMonday
p448
a(dp449
VNormalizedNamedEntityTag
p450
VXXXX-WXX-1
p451
sVTimex
p452
V<TIMEX3 tid="t2" type="DATE" value="XXXX-WXX-1">Monday</TIMEX3>
p453
sVLemma
p454
VMonday
p455
sVCharacterOffsetEnd
p456
V94
p457
sVPartOfSpeech
p458
VNNP
p459
sVCharacterOffsetBegin
p460
V88
p461
sVNamedEntityTag
p462
VDATE
p463
saa(lp464
Vhe
p465
a(dp466
VNamedEntityTag
p467
g117
sVCharacterOffsetEnd
p468
V97
p469
sVCharacterOffsetBegin
p470
V95
p471
sVPartOfSpeech
p472
VPRP
p473
sVLemma
p474
Vhe
p475
saa(lp476
Vworked
p477
a(dp478
VNamedEntityTag
p479
g117
sVCharacterOffsetEnd
p480
V104
p481
sVCharacterOffsetBegin
p482
V98
p483
sVPartOfSpeech
p484
VVBD
p485
sVLemma
p486
Vwork
p487
saa(lp488
g409
a(dp489
VNormalizedNamedEntityTag
p490
VPT5H
p491
sVTimex
p492
V<TIMEX3 tid="t3" type="DURATION" value="PT5H">5 hours</TIMEX3>
p493
sVLemma
p494
g409
sVCharacterOffsetEnd
p495
V106
p496
sVPartOfSpeech
p497
VCD
p498
sVCharacterOffsetBegin
p499
V105
p500
sVNamedEntityTag
p501
VDURATION
p502
saa(lp503
Vhours
p504
a(dp505
VNormalizedNamedEntityTag
p506
VPT5H
p507
sVTimex
p508
V<TIMEX3 tid="t3" type="DURATION" value="PT5H">5 hours</TIMEX3>
p509
sVLemma
p510
Vhour
p511
sVCharacterOffsetEnd
p512
V112
p513
sVPartOfSpeech
p514
VNNS
p515
sVCharacterOffsetBegin
p516
V107
p517
sVNamedEntityTag
p518
VDURATION
p519
saa(lp520
Vand
p521
a(dp522
VNamedEntityTag
p523
g117
sVCharacterOffsetEnd
p524
V116
p525
sVCharacterOffsetBegin
p526
V113
p527
sVPartOfSpeech
p528
VCC
p529
sVLemma
p530
Vand
p531
saa(lp532
Von
p533
a(dp534
VNamedEntityTag
p535
g117
sVCharacterOffsetEnd
p536
V119
p537
sVCharacterOffsetBegin
p538
V117
p539
sVPartOfSpeech
p540
VIN
p541
sVLemma
p542
Von
p543
saa(lp544
VTuesday
p545
a(dp546
VNormalizedNamedEntityTag
p547
VXXXX-WXX-2
p548
sVTimex
p549
V<TIMEX3 tid="t4" type="DATE" value="XXXX-WXX-2">Tuesday</TIMEX3>
p550
sVLemma
p551
VTuesday
p552
sVCharacterOffsetEnd
p553
V127
p554
sVPartOfSpeech
p555
VNNP
p556
sVCharacterOffsetBegin
p557
V120
p558
sVNamedEntityTag
p559
VDATE
p560
saa(lp561
Vhe
p562
a(dp563
VNamedEntityTag
p564
g117
sVCharacterOffsetEnd
p565
V130
p566
sVCharacterOffsetBegin
p567
V128
p568
sVPartOfSpeech
p569
VPRP
p570
sVLemma
p571
Vhe
p572
saa(lp573
Vworked
p574
a(dp575
VNamedEntityTag
p576
g117
sVCharacterOffsetEnd
p577
V137
p578
sVCharacterOffsetBegin
p579
V131
p580
sVPartOfSpeech
p581
VVBD
p582
sVLemma
p583
Vwork
p584
saa(lp585
g409
a(dp586
VNormalizedNamedEntityTag
p587
VPT5H
p588
sVTimex
p589
V<TIMEX3 tid="t5" type="DURATION" value="PT5H">5 hours</TIMEX3>
p590
sVLemma
p591
g409
sVCharacterOffsetEnd
p592
V139
p593
sVPartOfSpeech
p594
VCD
p595
sVCharacterOffsetBegin
p596
V138
p597
sVNamedEntityTag
p598
VDURATION
p599
saa(lp600
Vhours
p601
a(dp602
VNormalizedNamedEntityTag
p603
VPT5H
p604
sVTimex
p605
V<TIMEX3 tid="t5" type="DURATION" value="PT5H">5 hours</TIMEX3>
p606
sVLemma
p607
Vhour
p608
sVCharacterOffsetEnd
p609
V145
p610
sVPartOfSpeech
p611
VNNS
p612
sVCharacterOffsetBegin
p613
V140
p614
sVNamedEntityTag
p615
VDURATION
p616
saa(lp617
g316
a(dp618
VNamedEntityTag
p619
g117
sVCharacterOffsetEnd
p620
V147
p621
sVCharacterOffsetBegin
p622
V146
p623
sVPartOfSpeech
p624
g316
sVLemma
p625
g316
saasVindexeddependencies
p626
(lp627
(lp628
Vroot
p629
aVROOT-0
p630
aVworked-4
p631
aa(lp632
Vprep_on
p633
aVworked-4
p634
aVMonday-2
p635
aa(lp636
Vnsubj
p637
aVworked-4
p638
aVhe-3
p639
aa(lp640
Vnum
p641
aVhours-6
p642
aV5-5
p643
aa(lp644
Vdobj
p645
aVworked-4
p646
aVhours-6
p647
aa(lp648
Vprep_on
p649
aVworked-11
p650
aVTuesday-9
p651
aa(lp652
Vnsubj
p653
aVworked-11
p654
aVhe-10
p655
aa(lp656
Vconj_and
p657
aVworked-4
p658
aVworked-11
p659
aa(lp660
Vnum
p661
aVhours-13
p662
aV5-12
p663
aa(lp664
Vdobj
p665
aVworked-11
p666
aVhours-13
p667
aasa(dp668
Vparsetree
p669
V(ROOT (SBARQ (WHNP (WHADJP (WRB How) (JJ much)) (NN money)) (SQ (VBD did) (NP (NNP Victor)) (VP (VB make) (PP (IN in) (NP (DT those) (CD two) (NNS days))))) (. ?)))
p670
sVtext
p671
VHow much money did Victor make in those two days ?
p672
sVdependencies
p673
(lp674
(lp675
Vroot
p676
aVROOT
p677
aVmake
p678
aa(lp679
Vadvmod
p680
aVmuch
p681
aVHow
p682
aa(lp683
Vamod
p684
aVmoney
p685
aVmuch
p686
aa(lp687
Vdobj
p688
aVmake
p689
aVmoney
p690
aa(lp691
Vaux
p692
aVmake
p693
aVdid
p694
aa(lp695
Vnsubj
p696
aVmake
p697
aVVictor
p698
aa(lp699
Vdet
p700
aVdays
p701
aVthose
p702
aa(lp703
Vnum
p704
aVdays
p705
aVtwo
p706
aa(lp707
Vprep_in
p708
aVmake
p709
aVdays
p710
aasVwords
p711
(lp712
(lp713
VHow
p714
a(dp715
VNamedEntityTag
p716
g117
sVCharacterOffsetEnd
p717
V151
p718
sVCharacterOffsetBegin
p719
V148
p720
sVPartOfSpeech
p721
VWRB
p722
sVLemma
p723
Vhow
p724
saa(lp725
Vmuch
p726
a(dp727
VNamedEntityTag
p728
g117
sVCharacterOffsetEnd
p729
V156
p730
sVCharacterOffsetBegin
p731
V152
p732
sVPartOfSpeech
p733
VJJ
p734
sVLemma
p735
Vmuch
p736
saa(lp737
Vmoney
p738
a(dp739
VNamedEntityTag
p740
g117
sVCharacterOffsetEnd
p741
V162
p742
sVCharacterOffsetBegin
p743
V157
p744
sVPartOfSpeech
p745
VNN
p746
sVLemma
p747
Vmoney
p748
saa(lp749
Vdid
p750
a(dp751
VNamedEntityTag
p752
g117
sVCharacterOffsetEnd
p753
V166
p754
sVCharacterOffsetBegin
p755
V163
p756
sVPartOfSpeech
p757
VVBD
p758
sVLemma
p759
Vdo
p760
saa(lp761
VVictor
p762
a(dp763
VNamedEntityTag
p764
VPERSON
p765
sVCharacterOffsetEnd
p766
V173
p767
sVCharacterOffsetBegin
p768
V167
p769
sVPartOfSpeech
p770
VNNP
p771
sVLemma
p772
VVictor
p773
saa(lp774
Vmake
p775
a(dp776
VNamedEntityTag
p777
g117
sVCharacterOffsetEnd
p778
V178
p779
sVCharacterOffsetBegin
p780
V174
p781
sVPartOfSpeech
p782
VVB
p783
sVLemma
p784
Vmake
p785
saa(lp786
Vin
p787
a(dp788
VNamedEntityTag
p789
g117
sVCharacterOffsetEnd
p790
V181
p791
sVCharacterOffsetBegin
p792
V179
p793
sVPartOfSpeech
p794
VIN
p795
sVLemma
p796
Vin
p797
saa(lp798
Vthose
p799
a(dp800
VNamedEntityTag
p801
g117
sVCharacterOffsetEnd
p802
V187
p803
sVCharacterOffsetBegin
p804
V182
p805
sVPartOfSpeech
p806
VDT
p807
sVLemma
p808
Vthose
p809
saa(lp810
Vtwo
p811
a(dp812
VNormalizedNamedEntityTag
p813
VP2D
p814
sVTimex
p815
V<TIMEX3 tid="t6" type="DURATION" value="P2D">two days</TIMEX3>
p816
sVLemma
p817
Vtwo
p818
sVCharacterOffsetEnd
p819
V191
p820
sVPartOfSpeech
p821
VCD
p822
sVCharacterOffsetBegin
p823
V188
p824
sVNamedEntityTag
p825
VDURATION
p826
saa(lp827
Vdays
p828
a(dp829
VNormalizedNamedEntityTag
p830
VP2D
p831
sVTimex
p832
V<TIMEX3 tid="t6" type="DURATION" value="P2D">two days</TIMEX3>
p833
sVLemma
p834
Vday
p835
sVCharacterOffsetEnd
p836
V196
p837
sVPartOfSpeech
p838
VNNS
p839
sVCharacterOffsetBegin
p840
V192
p841
sVNamedEntityTag
p842
VDURATION
p843
saa(lp844
V?
p845
a(dp846
VNamedEntityTag
p847
g117
sVCharacterOffsetEnd
p848
V198
p849
sVCharacterOffsetBegin
p850
V197
p851
sVPartOfSpeech
p852
g316
sVLemma
p853
g845
saasVindexeddependencies
p854
(lp855
(lp856
Vroot
p857
aVROOT-0
p858
aVmake-6
p859
aa(lp860
Vadvmod
p861
aVmuch-2
p862
aVHow-1
p863
aa(lp864
Vamod
p865
aVmoney-3
p866
aVmuch-2
p867
aa(lp868
Vdobj
p869
aVmake-6
p870
aVmoney-3
p871
aa(lp872
Vaux
p873
aVmake-6
p874
aVdid-4
p875
aa(lp876
Vnsubj
p877
aVmake-6
p878
aVVictor-5
p879
aa(lp880
Vdet
p881
aVdays-10
p882
aVthose-8
p883
aa(lp884
Vnum
p885
aVdays-10
p886
aVtwo-9
p887
aa(lp888
Vprep_in
p889
aVmake-6
p890
aVdays-10
p891
aasas.