(dp0
Vcoref
p1
(lp2
(lp3
(lp4
(lp5
Vthe pet store
p6
aI1
aI18
aI16
aI19
aa(lp7
VA pet store
p8
aI0
aI2
aI0
aI3
aaaa(lp9
(lp10
(lp11
Vit
p12
aI1
aI10
aI10
aI11
aa(lp13
V2
p14
aI1
aI4
aI4
aI5
aaaasVsentences
p15
(lp16
(dp17
Vparsetree
p18
V(ROOT (S (NP (DT A) (JJ pet) (NN store)) (VP (VBZ has) (NP (CD 6) (NN bird) (NNS cages))) (. .)))
p19
sVtext
p20
VA pet store has 6 bird cages .
p21
sVdependencies
p22
(lp23
(lp24
Vroot
p25
aVROOT
p26
aVhas
p27
aa(lp28
Vdet
p29
aVstore
p30
aVA
p31
aa(lp32
Vamod
p33
aVstore
p34
aVpet
p35
aa(lp36
Vnsubj
p37
aVhas
p38
aVstore
p39
aa(lp40
Vnum
p41
aVcages
p42
aV6
p43
aa(lp44
Vnn
p45
aVcages
p46
aVbird
p47
aa(lp48
Vdobj
p49
aVhas
p50
aVcages
p51
aasVwords
p52
(lp53
(lp54
g31
a(dp55
VNamedEntityTag
p56
VO
p57
sVCharacterOffsetEnd
p58
g14
sVCharacterOffsetBegin
p59
V1
p60
sVPartOfSpeech
p61
VDT
p62
sVLemma
p63
Va
p64
saa(lp65
Vpet
p66
a(dp67
VNamedEntityTag
p68
g57
sVCharacterOffsetEnd
p69
g43
sVCharacterOffsetBegin
p70
V3
p71
sVPartOfSpeech
p72
VJJ
p73
sVLemma
p74
Vpet
p75
saa(lp76
Vstore
p77
a(dp78
VNamedEntityTag
p79
g57
sVCharacterOffsetEnd
p80
V12
p81
sVCharacterOffsetBegin
p82
V7
p83
sVPartOfSpeech
p84
VNN
p85
sVLemma
p86
Vstore
p87
saa(lp88
Vhas
p89
a(dp90
VNamedEntityTag
p91
g57
sVCharacterOffsetEnd
p92
V16
p93
sVCharacterOffsetBegin
p94
V13
p95
sVPartOfSpeech
p96
VVBZ
p97
sVLemma
p98
Vhave
p99
saa(lp100
g43
a(dp101
VNormalizedNamedEntityTag
p102
V6.0
p103
sVLemma
p104
g43
sVCharacterOffsetEnd
p105
V18
p106
sVPartOfSpeech
p107
VCD
p108
sVCharacterOffsetBegin
p109
V17
p110
sVNamedEntityTag
p111
VNUMBER
p112
saa(lp113
Vbird
p114
a(dp115
VNamedEntityTag
p116
g57
sVCharacterOffsetEnd
p117
V23
p118
sVCharacterOffsetBegin
p119
V19
p120
sVPartOfSpeech
p121
VNN
p122
sVLemma
p123
Vbird
p124
saa(lp125
Vcages
p126
a(dp127
VNamedEntityTag
p128
g57
sVCharacterOffsetEnd
p129
V29
p130
sVCharacterOffsetBegin
p131
V24
p132
sVPartOfSpeech
p133
VNNS
p134
sVLemma
p135
Vcage
p136
saa(lp137
V.
p138
a(dp139
VNamedEntityTag
p140
g57
sVCharacterOffsetEnd
p141
V31
p142
sVCharacterOffsetBegin
p143
V30
p144
sVPartOfSpeech
p145
g138
sVLemma
p146
g138
saasVindexeddependencies
p147
(lp148
(lp149
Vroot
p150
aVROOT-0
p151
aVhas-4
p152
aa(lp153
Vdet
p154
aVstore-3
p155
aVA-1
p156
aa(lp157
Vamod
p158
aVstore-3
p159
aVpet-2
p160
aa(lp161
Vnsubj
p162
aVhas-4
p163
aVstore-3
p164
aa(lp165
Vnum
p166
aVcages-7
p167
aV6-5
p168
aa(lp169
Vnn
p170
aVcages-7
p171
aVbird-6
p172
aa(lp173
Vdobj
p174
aVhas-4
p175
aVcages-7
p176
aasa(dp177
Vparsetree
p178
V(ROOT (SBARQ (SBAR (IN If) (S (NP (DT each) (NN cage)) (VP (VBZ has) (NP (NP (CD 2) (NNS parrots)) (CC and) (NP (NP (CD 7) (NNS parakeets)) (PP (IN in) (NP (PRP it)))))))) (, ,) (WHNP (WHADJP (WRB how) (JJ many)) (NNS birds)) (SQ (VBZ does) (NP (DT the) (NN pet) (NN store)) (VP (VBP have) (NP (NN total)))) (. ?)))
p179
sVtext
p180
VIf each cage has 2 parrots and 7 parakeets in it , how many birds does the pet store have total ?
p181
sVdependencies
p182
(lp183
(lp184
Vroot
p185
aVROOT
p186
aVhave
p187
aa(lp188
Vmark
p189
aVhas
p190
aVIf
p191
aa(lp192
Vdet
p193
aVcage
p194
aVeach
p195
aa(lp196
Vnsubj
p197
aVhas
p198
aVcage
p199
aa(lp200
Vadvcl
p201
aVhave
p202
aVhas
p203
aa(lp204
Vnum
p205
aVparrots
p206
ag14
aa(lp207
Vdobj
p208
aVhas
p209
aVparrots
p210
aa(lp211
Vnum
p212
aVparakeets
p213
ag83
aa(lp214
Vconj_and
p215
aVparrots
p216
aVparakeets
p217
aa(lp218
Vprep_in
p219
aVparakeets
p220
aVit
p221
aa(lp222
Vadvmod
p223
aVmany
p224
aVhow
p225
aa(lp226
Vamod
p227
aVbirds
p228
aVmany
p229
aa(lp230
Vdep
p231
aVhave
p232
aVbirds
p233
aa(lp234
Vaux
p235
aVhave
p236
aVdoes
p237
aa(lp238
Vdet
p239
aVstore
p240
aVthe
p241
aa(lp242
Vnn
p243
aVstore
p244
aVpet
p245
aa(lp246
Vnsubj
p247
aVhave
p248
aVstore
p249
aa(lp250
Vdobj
p251
aVhave
p252
aVtotal
p253
aasVwords
p254
(lp255
(lp256
VIf
p257
a(dp258
VNamedEntityTag
p259
g57
sVCharacterOffsetEnd
p260
V34
p261
sVCharacterOffsetBegin
p262
V32
p263
sVPartOfSpeech
p264
VIN
p265
sVLemma
p266
Vif
p267
saa(lp268
Veach
p269
a(dp270
VNamedEntityTag
p271
g57
sVCharacterOffsetEnd
p272
V39
p273
sVCharacterOffsetBegin
p274
V35
p275
sVPartOfSpeech
p276
VDT
p277
sVLemma
p278
Veach
p279
saa(lp280
Vcage
p281
a(dp282
VNamedEntityTag
p283
g57
sVCharacterOffsetEnd
p284
V44
p285
sVCharacterOffsetBegin
p286
V40
p287
sVPartOfSpeech
p288
VNN
p289
sVLemma
p290
Vcage
p291
saa(lp292
Vhas
p293
a(dp294
VNamedEntityTag
p295
g57
sVCharacterOffsetEnd
p296
V48
p297
sVCharacterOffsetBegin
p298
V45
p299
sVPartOfSpeech
p300
VVBZ
p301
sVLemma
p302
Vhave
p303
saa(lp304
g14
a(dp305
VNormalizedNamedEntityTag
p306
V2.0
p307
sVLemma
p308
g14
sVCharacterOffsetEnd
p309
V50
p310
sVPartOfSpeech
p311
VCD
p312
sVCharacterOffsetBegin
p313
V49
p314
sVNamedEntityTag
p315
VNUMBER
p316
saa(lp317
Vparrots
p318
a(dp319
VNamedEntityTag
p320
g57
sVCharacterOffsetEnd
p321
V58
p322
sVCharacterOffsetBegin
p323
V51
p324
sVPartOfSpeech
p325
VNNS
p326
sVLemma
p327
Vparrot
p328
saa(lp329
Vand
p330
a(dp331
VNamedEntityTag
p332
g57
sVCharacterOffsetEnd
p333
V62
p334
sVCharacterOffsetBegin
p335
V59
p336
sVPartOfSpeech
p337
VCC
p338
sVLemma
p339
Vand
p340
saa(lp341
g83
a(dp342
VNormalizedNamedEntityTag
p343
V7.0
p344
sVLemma
p345
g83
sVCharacterOffsetEnd
p346
V64
p347
sVPartOfSpeech
p348
VCD
p349
sVCharacterOffsetBegin
p350
V63
p351
sVNamedEntityTag
p352
VNUMBER
p353
saa(lp354
Vparakeets
p355
a(dp356
VNamedEntityTag
p357
g57
sVCharacterOffsetEnd
p358
V74
p359
sVCharacterOffsetBegin
p360
V65
p361
sVPartOfSpeech
p362
VNNS
p363
sVLemma
p364
Vparakeet
p365
saa(lp366
Vin
p367
a(dp368
VNamedEntityTag
p369
g57
sVCharacterOffsetEnd
p370
V77
p371
sVCharacterOffsetBegin
p372
V75
p373
sVPartOfSpeech
p374
VIN
p375
sVLemma
p376
Vin
p377
saa(lp378
Vit
p379
a(dp380
VNamedEntityTag
p381
g57
sVCharacterOffsetEnd
p382
V80
p383
sVCharacterOffsetBegin
p384
V78
p385
sVPartOfSpeech
p386
VPRP
p387
sVLemma
p388
Vit
p389
saa(lp390
V,
p391
a(dp392
VNamedEntityTag
p393
g57
sVCharacterOffsetEnd
p394
V82
p395
sVCharacterOffsetBegin
p396
V81
p397
sVPartOfSpeech
p398
g391
sVLemma
p399
g391
saa(lp400
Vhow
p401
a(dp402
VNamedEntityTag
p403
g57
sVCharacterOffsetEnd
p404
V86
p405
sVCharacterOffsetBegin
p406
V83
p407
sVPartOfSpeech
p408
VWRB
p409
sVLemma
p410
Vhow
p411
saa(lp412
Vmany
p413
a(dp414
VNamedEntityTag
p415
g57
sVCharacterOffsetEnd
p416
V91
p417
sVCharacterOffsetBegin
p418
V87
p419
sVPartOfSpeech
p420
VJJ
p421
sVLemma
p422
Vmany
p423
saa(lp424
Vbirds
p425
a(dp426
VNamedEntityTag
p427
g57
sVCharacterOffsetEnd
p428
V97
p429
sVCharacterOffsetBegin
p430
V92
p431
sVPartOfSpeech
p432
VNNS
p433
sVLemma
p434
Vbird
p435
saa(lp436
Vdoes
p437
a(dp438
VNamedEntityTag
p439
g57
sVCharacterOffsetEnd
p440
V102
p441
sVCharacterOffsetBegin
p442
V98
p443
sVPartOfSpeech
p444
VVBZ
p445
sVLemma
p446
Vdo
p447
saa(lp448
Vthe
p449
a(dp450
VNamedEntityTag
p451
g57
sVCharacterOffsetEnd
p452
V106
p453
sVCharacterOffsetBegin
p454
V103
p455
sVPartOfSpeech
p456
VDT
p457
sVLemma
p458
Vthe
p459
saa(lp460
Vpet
p461
a(dp462
VNamedEntityTag
p463
g57
sVCharacterOffsetEnd
p464
V110
p465
sVCharacterOffsetBegin
p466
V107
p467
sVPartOfSpeech
p468
VNN
p469
sVLemma
p470
Vpet
p471
saa(lp472
Vstore
p473
a(dp474
VNamedEntityTag
p475
g57
sVCharacterOffsetEnd
p476
V116
p477
sVCharacterOffsetBegin
p478
V111
p479
sVPartOfSpeech
p480
VNN
p481
sVLemma
p482
Vstore
p483
saa(lp484
Vhave
p485
a(dp486
VNamedEntityTag
p487
g57
sVCharacterOffsetEnd
p488
V121
p489
sVCharacterOffsetBegin
p490
V117
p491
sVPartOfSpeech
p492
VVBP
p493
sVLemma
p494
Vhave
p495
saa(lp496
Vtotal
p497
a(dp498
VNamedEntityTag
p499
g57
sVCharacterOffsetEnd
p500
V127
p501
sVCharacterOffsetBegin
p502
V122
p503
sVPartOfSpeech
p504
VNN
p505
sVLemma
p506
Vtotal
p507
saa(lp508
V?
p509
a(dp510
VNamedEntityTag
p511
g57
sVCharacterOffsetEnd
p512
V129
p513
sVCharacterOffsetBegin
p514
V128
p515
sVPartOfSpeech
p516
g138
sVLemma
p517
g509
saasVindexeddependencies
p518
(lp519
(lp520
Vroot
p521
aVROOT-0
p522
aVhave-20
p523
aa(lp524
Vmark
p525
aVhas-4
p526
aVIf-1
p527
aa(lp528
Vdet
p529
aVcage-3
p530
aVeach-2
p531
aa(lp532
Vnsubj
p533
aVhas-4
p534
aVcage-3
p535
aa(lp536
Vadvcl
p537
aVhave-20
p538
aVhas-4
p539
aa(lp540
Vnum
p541
aVparrots-6
p542
aV2-5
p543
aa(lp544
Vdobj
p545
aVhas-4
p546
aVparrots-6
p547
aa(lp548
Vnum
p549
aVparakeets-9
p550
aV7-8
p551
aa(lp552
Vconj_and
p553
aVparrots-6
p554
aVparakeets-9
p555
aa(lp556
Vprep_in
p557
aVparakeets-9
p558
aVit-11
p559
aa(lp560
Vadvmod
p561
aVmany-14
p562
aVhow-13
p563
aa(lp564
Vamod
p565
aVbirds-15
p566
aVmany-14
p567
aa(lp568
Vdep
p569
aVhave-20
p570
aVbirds-15
p571
aa(lp572
Vaux
p573
aVhave-20
p574
aVdoes-16
p575
aa(lp576
Vdet
p577
aVstore-19
p578
aVthe-17
p579
aa(lp580
Vnn
p581
aVstore-19
p582
aVpet-18
p583
aa(lp584
Vnsubj
p585
aVhave-20
p586
aVstore-19
p587
aa(lp588
Vdobj
p589
aVhave-20
p590
aVtotal-21
p591
aasas.