(dp0
Vcoref
p1
(lp2
(lp3
(lp4
(lp5
Vher
p6
aI0
aI10
aI10
aI11
aa(lp7
VMaria
p8
aI0
aI0
aI0
aI1
aaa(lp9
(lp10
Vshe
p11
aI1
aI1
aI1
aI2
aa(lp12
VMaria
p13
aI0
aI0
aI0
aI1
aaa(lp14
(lp15
Vher
p16
aI1
aI19
aI19
aI20
aa(lp17
VMaria
p18
aI0
aI0
aI0
aI1
aaaa(lp19
(lp20
(lp21
V2
p22
aI0
aI6
aI6
aI7
aa(lp23
g22
aI0
aI2
aI2
aI3
aaaa(lp24
(lp25
(lp26
Vit
p27
aI1
aI10
aI10
aI11
aa(lp28
V8 minutes
p29
aI1
aI4
aI3
aI5
aaa(lp30
(lp31
Vit
p32
aI1
aI17
aI17
aI18
aa(lp33
V8 minutes
p34
aI1
aI4
aI3
aI5
aaaasVsentences
p35
(lp36
(dp37
Vparsetree
p38
V(ROOT (S (NP (NNP Maria)) (VP (VBD bought) (NP (NP (CD 2) (JJ new) (NNS chairs)) (CC and) (NP (CD 2) (JJ new) (NNS tables))) (PP (IN for) (NP (PRP$ her) (NN house)))) (. .)))
p39
sVtext
p40
VMaria bought 2 new chairs and 2 new tables for her house .
p41
sVdependencies
p42
(lp43
(lp44
Vroot
p45
aVROOT
p46
aVbought
p47
aa(lp48
Vnsubj
p49
aVbought
p50
aVMaria
p51
aa(lp52
Vnum
p53
aVchairs
p54
ag22
aa(lp55
Vamod
p56
aVchairs
p57
aVnew
p58
aa(lp59
Vdobj
p60
aVbought
p61
aVchairs
p62
aa(lp63
Vnum
p64
aVtables
p65
ag22
aa(lp66
Vamod
p67
aVtables
p68
aVnew
p69
aa(lp70
Vconj_and
p71
aVchairs
p72
aVtables
p73
aa(lp74
Vposs
p75
aVhouse
p76
aVher
p77
aa(lp78
Vprep_for
p79
aVbought
p80
aVhouse
p81
aasVwords
p82
(lp83
(lp84
VMaria
p85
a(dp86
VNamedEntityTag
p87
VPERSON
p88
sVCharacterOffsetEnd
p89
V6
p90
sVCharacterOffsetBegin
p91
V1
p92
sVPartOfSpeech
p93
VNNP
p94
sVLemma
p95
VMaria
p96
saa(lp97
Vbought
p98
a(dp99
VNamedEntityTag
p100
VO
p101
sVCharacterOffsetEnd
p102
V13
p103
sVCharacterOffsetBegin
p104
V7
p105
sVPartOfSpeech
p106
VVBD
p107
sVLemma
p108
Vbuy
p109
saa(lp110
g22
a(dp111
VNormalizedNamedEntityTag
p112
V2.0
p113
sVLemma
p114
g22
sVCharacterOffsetEnd
p115
V15
p116
sVPartOfSpeech
p117
VCD
p118
sVCharacterOffsetBegin
p119
V14
p120
sVNamedEntityTag
p121
VNUMBER
p122
saa(lp123
Vnew
p124
a(dp125
VNamedEntityTag
p126
g101
sVCharacterOffsetEnd
p127
V19
p128
sVCharacterOffsetBegin
p129
V16
p130
sVPartOfSpeech
p131
VJJ
p132
sVLemma
p133
Vnew
p134
saa(lp135
Vchairs
p136
a(dp137
VNamedEntityTag
p138
g101
sVCharacterOffsetEnd
p139
V26
p140
sVCharacterOffsetBegin
p141
V20
p142
sVPartOfSpeech
p143
VNNS
p144
sVLemma
p145
Vchair
p146
saa(lp147
Vand
p148
a(dp149
VNamedEntityTag
p150
g101
sVCharacterOffsetEnd
p151
V30
p152
sVCharacterOffsetBegin
p153
V27
p154
sVPartOfSpeech
p155
VCC
p156
sVLemma
p157
Vand
p158
saa(lp159
g22
a(dp160
VNormalizedNamedEntityTag
p161
V2.0
p162
sVLemma
p163
g22
sVCharacterOffsetEnd
p164
V32
p165
sVPartOfSpeech
p166
VCD
p167
sVCharacterOffsetBegin
p168
V31
p169
sVNamedEntityTag
p170
VNUMBER
p171
saa(lp172
Vnew
p173
a(dp174
VNamedEntityTag
p175
g101
sVCharacterOffsetEnd
p176
V36
p177
sVCharacterOffsetBegin
p178
V33
p179
sVPartOfSpeech
p180
VJJ
p181
sVLemma
p182
Vnew
p183
saa(lp184
Vtables
p185
a(dp186
VNamedEntityTag
p187
g101
sVCharacterOffsetEnd
p188
V43
p189
sVCharacterOffsetBegin
p190
V37
p191
sVPartOfSpeech
p192
VNNS
p193
sVLemma
p194
Vtable
p195
saa(lp196
Vfor
p197
a(dp198
VNamedEntityTag
p199
g101
sVCharacterOffsetEnd
p200
V47
p201
sVCharacterOffsetBegin
p202
V44
p203
sVPartOfSpeech
p204
VIN
p205
sVLemma
p206
Vfor
p207
saa(lp208
Vher
p209
a(dp210
VNamedEntityTag
p211
g101
sVCharacterOffsetEnd
p212
V51
p213
sVCharacterOffsetBegin
p214
V48
p215
sVPartOfSpeech
p216
VPRP$
p217
sVLemma
p218
Vshe
p219
saa(lp220
Vhouse
p221
a(dp222
VNamedEntityTag
p223
g101
sVCharacterOffsetEnd
p224
V57
p225
sVCharacterOffsetBegin
p226
V52
p227
sVPartOfSpeech
p228
VNN
p229
sVLemma
p230
Vhouse
p231
saa(lp232
V.
p233
a(dp234
VNamedEntityTag
p235
g101
sVCharacterOffsetEnd
p236
V59
p237
sVCharacterOffsetBegin
p238
V58
p239
sVPartOfSpeech
p240
g233
sVLemma
p241
g233
saasVindexeddependencies
p242
(lp243
(lp244
Vroot
p245
aVROOT-0
p246
aVbought-2
p247
aa(lp248
Vnsubj
p249
aVbought-2
p250
aVMaria-1
p251
aa(lp252
Vnum
p253
aVchairs-5
p254
aV2-3
p255
aa(lp256
Vamod
p257
aVchairs-5
p258
aVnew-4
p259
aa(lp260
Vdobj
p261
aVbought-2
p262
aVchairs-5
p263
aa(lp264
Vnum
p265
aVtables-9
p266
aV2-7
p267
aa(lp268
Vamod
p269
aVtables-9
p270
aVnew-8
p271
aa(lp272
Vconj_and
p273
aVchairs-5
p274
aVtables-9
p275
aa(lp276
Vposs
p277
aVhouse-12
p278
aVher-11
p279
aa(lp280
Vprep_for
p281
aVbought-2
p282
aVhouse-12
p283
aasa(dp284
Vparsetree
p285
V(ROOT (SBARQ (SBAR (IN If) (S (NP (PRP she)) (VP (VBD spent) (NP (CD 8) (NNS minutes)) (PP (IN on) (NP (DT each) (NN piece) (NN furniture))) (S (VP (VBG putting) (NP (PRP it)) (ADVP (RB together))))))) (, ,) (WHNP (WHADJP (WRB how) (JJ many)) (NNS minutes)) (SQ (VBD did) (NP (PRP it)) (VP (VB take) (S (NP (PRP her)) (VP (TO to) (VP (VB finish)))))) (. ?)))
p286
sVtext
p287
VIf she spent 8 minutes on each piece furniture putting it together , how many minutes did it take her to finish ?
p288
sVdependencies
p289
(lp290
(lp291
Vroot
p292
aVROOT
p293
aVtake
p294
aa(lp295
Vmark
p296
aVspent
p297
aVIf
p298
aa(lp299
Vnsubj
p300
aVspent
p301
aVshe
p302
aa(lp303
Vadvcl
p304
aVtake
p305
aVspent
p306
aa(lp307
Vnum
p308
aVminutes
p309
aV8
p310
aa(lp311
Vdobj
p312
aVspent
p313
aVminutes
p314
aa(lp315
Vdet
p316
aVfurniture
p317
aVeach
p318
aa(lp319
Vnn
p320
aVfurniture
p321
aVpiece
p322
aa(lp323
Vprep_on
p324
aVspent
p325
aVfurniture
p326
aa(lp327
Vxcomp
p328
aVspent
p329
aVputting
p330
aa(lp331
Vdobj
p332
aVputting
p333
aVit
p334
aa(lp335
Vadvmod
p336
aVputting
p337
aVtogether
p338
aa(lp339
Vadvmod
p340
aVmany
p341
aVhow
p342
aa(lp343
Vamod
p344
aVminutes
p345
aVmany
p346
aa(lp347
Vdep
p348
aVtake
p349
aVminutes
p350
aa(lp351
Vaux
p352
aVtake
p353
aVdid
p354
aa(lp355
Vnsubj
p356
aVtake
p357
aVit
p358
aa(lp359
Vdobj
p360
aVtake
p361
aVher
p362
aa(lp363
Vaux
p364
aVfinish
p365
aVto
p366
aa(lp367
Vxcomp
p368
aVtake
p369
aVfinish
p370
aasVwords
p371
(lp372
(lp373
VIf
p374
a(dp375
VNamedEntityTag
p376
g101
sVCharacterOffsetEnd
p377
V62
p378
sVCharacterOffsetBegin
p379
V60
p380
sVPartOfSpeech
p381
VIN
p382
sVLemma
p383
Vif
p384
saa(lp385
Vshe
p386
a(dp387
VNamedEntityTag
p388
g101
sVCharacterOffsetEnd
p389
V66
p390
sVCharacterOffsetBegin
p391
V63
p392
sVPartOfSpeech
p393
VPRP
p394
sVLemma
p395
Vshe
p396
saa(lp397
Vspent
p398
a(dp399
VNamedEntityTag
p400
g101
sVCharacterOffsetEnd
p401
V72
p402
sVCharacterOffsetBegin
p403
V67
p404
sVPartOfSpeech
p405
VVBD
p406
sVLemma
p407
Vspend
p408
saa(lp409
g310
a(dp410
VNormalizedNamedEntityTag
p411
VPT8M
p412
sVTimex
p413
V<TIMEX3 tid="t1" type="DURATION" value="PT8M">8 minutes</TIMEX3>
p414
sVLemma
p415
g310
sVCharacterOffsetEnd
p416
V74
p417
sVPartOfSpeech
p418
VCD
p419
sVCharacterOffsetBegin
p420
V73
p421
sVNamedEntityTag
p422
VDURATION
p423
saa(lp424
Vminutes
p425
a(dp426
VNormalizedNamedEntityTag
p427
VPT8M
p428
sVTimex
p429
V<TIMEX3 tid="t1" type="DURATION" value="PT8M">8 minutes</TIMEX3>
p430
sVLemma
p431
Vminute
p432
sVCharacterOffsetEnd
p433
V82
p434
sVPartOfSpeech
p435
VNNS
p436
sVCharacterOffsetBegin
p437
V75
p438
sVNamedEntityTag
p439
VDURATION
p440
saa(lp441
Von
p442
a(dp443
VNamedEntityTag
p444
g101
sVCharacterOffsetEnd
p445
V85
p446
sVCharacterOffsetBegin
p447
V83
p448
sVPartOfSpeech
p449
VIN
p450
sVLemma
p451
Von
p452
saa(lp453
Veach
p454
a(dp455
VNamedEntityTag
p456
g101
sVCharacterOffsetEnd
p457
V90
p458
sVCharacterOffsetBegin
p459
V86
p460
sVPartOfSpeech
p461
VDT
p462
sVLemma
p463
Veach
p464
saa(lp465
Vpiece
p466
a(dp467
VNamedEntityTag
p468
g101
sVCharacterOffsetEnd
p469
V96
p470
sVCharacterOffsetBegin
p471
V91
p472
sVPartOfSpeech
p473
VNN
p474
sVLemma
p475
Vpiece
p476
saa(lp477
Vfurniture
p478
a(dp479
VNamedEntityTag
p480
g101
sVCharacterOffsetEnd
p481
V106
p482
sVCharacterOffsetBegin
p483
V97
p484
sVPartOfSpeech
p485
VNN
p486
sVLemma
p487
Vfurniture
p488
saa(lp489
Vputting
p490
a(dp491
VNamedEntityTag
p492
g101
sVCharacterOffsetEnd
p493
V114
p494
sVCharacterOffsetBegin
p495
V107
p496
sVPartOfSpeech
p497
VVBG
p498
sVLemma
p499
Vput
p500
saa(lp501
Vit
p502
a(dp503
VNamedEntityTag
p504
g101
sVCharacterOffsetEnd
p505
V117
p506
sVCharacterOffsetBegin
p507
V115
p508
sVPartOfSpeech
p509
VPRP
p510
sVLemma
p511
Vit
p512
saa(lp513
Vtogether
p514
a(dp515
VNamedEntityTag
p516
g101
sVCharacterOffsetEnd
p517
V126
p518
sVCharacterOffsetBegin
p519
V118
p520
sVPartOfSpeech
p521
VRB
p522
sVLemma
p523
Vtogether
p524
saa(lp525
V,
p526
a(dp527
VNamedEntityTag
p528
g101
sVCharacterOffsetEnd
p529
V128
p530
sVCharacterOffsetBegin
p531
V127
p532
sVPartOfSpeech
p533
g526
sVLemma
p534
g526
saa(lp535
Vhow
p536
a(dp537
VNamedEntityTag
p538
g101
sVCharacterOffsetEnd
p539
V132
p540
sVCharacterOffsetBegin
p541
V129
p542
sVPartOfSpeech
p543
VWRB
p544
sVLemma
p545
Vhow
p546
saa(lp547
Vmany
p548
a(dp549
VNamedEntityTag
p550
g101
sVCharacterOffsetEnd
p551
V137
p552
sVCharacterOffsetBegin
p553
V133
p554
sVPartOfSpeech
p555
VJJ
p556
sVLemma
p557
Vmany
p558
saa(lp559
Vminutes
p560
a(dp561
VNormalizedNamedEntityTag
p562
VPTXM
p563
sVTimex
p564
V<TIMEX3 tid="t2" type="DURATION" value="PTXM">minutes</TIMEX3>
p565
sVLemma
p566
Vminute
p567
sVCharacterOffsetEnd
p568
V145
p569
sVPartOfSpeech
p570
VNNS
p571
sVCharacterOffsetBegin
p572
V138
p573
sVNamedEntityTag
p574
VDURATION
p575
saa(lp576
Vdid
p577
a(dp578
VNamedEntityTag
p579
g101
sVCharacterOffsetEnd
p580
V149
p581
sVCharacterOffsetBegin
p582
V146
p583
sVPartOfSpeech
p584
VVBD
p585
sVLemma
p586
Vdo
p587
saa(lp588
Vit
p589
a(dp590
VNamedEntityTag
p591
g101
sVCharacterOffsetEnd
p592
V152
p593
sVCharacterOffsetBegin
p594
V150
p595
sVPartOfSpeech
p596
VPRP
p597
sVLemma
p598
Vit
p599
saa(lp600
Vtake
p601
a(dp602
VNamedEntityTag
p603
g101
sVCharacterOffsetEnd
p604
V157
p605
sVCharacterOffsetBegin
p606
V153
p607
sVPartOfSpeech
p608
VVB
p609
sVLemma
p610
Vtake
p611
saa(lp612
Vher
p613
a(dp614
VNamedEntityTag
p615
g101
sVCharacterOffsetEnd
p616
V161
p617
sVCharacterOffsetBegin
p618
V158
p619
sVPartOfSpeech
p620
VPRP
p621
sVLemma
p622
Vshe
p623
saa(lp624
Vto
p625
a(dp626
VNamedEntityTag
p627
g101
sVCharacterOffsetEnd
p628
V164
p629
sVCharacterOffsetBegin
p630
V162
p631
sVPartOfSpeech
p632
VTO
p633
sVLemma
p634
Vto
p635
saa(lp636
Vfinish
p637
a(dp638
VNamedEntityTag
p639
g101
sVCharacterOffsetEnd
p640
V171
p641
sVCharacterOffsetBegin
p642
V165
p643
sVPartOfSpeech
p644
VVB
p645
sVLemma
p646
Vfinish
p647
saa(lp648
V?
p649
a(dp650
VNamedEntityTag
p651
g101
sVCharacterOffsetEnd
p652
V173
p653
sVCharacterOffsetBegin
p654
V172
p655
sVPartOfSpeech
p656
g233
sVLemma
p657
g649
saasVindexeddependencies
p658
(lp659
(lp660
Vroot
p661
aVROOT-0
p662
aVtake-19
p663
aa(lp664
Vmark
p665
aVspent-3
p666
aVIf-1
p667
aa(lp668
Vnsubj
p669
aVspent-3
p670
aVshe-2
p671
aa(lp672
Vadvcl
p673
aVtake-19
p674
aVspent-3
p675
aa(lp676
Vnum
p677
aVminutes-5
p678
aV8-4
p679
aa(lp680
Vdobj
p681
aVspent-3
p682
aVminutes-5
p683
aa(lp684
Vdet
p685
aVfurniture-9
p686
aVeach-7
p687
aa(lp688
Vnn
p689
aVfurniture-9
p690
aVpiece-8
p691
aa(lp692
Vprep_on
p693
aVspent-3
p694
aVfurniture-9
p695
aa(lp696
Vxcomp
p697
aVspent-3
p698
aVputting-10
p699
aa(lp700
Vdobj
p701
aVputting-10
p702
aVit-11
p703
aa(lp704
Vadvmod
p705
aVputting-10
p706
aVtogether-12
p707
aa(lp708
Vadvmod
p709
aVmany-15
p710
aVhow-14
p711
aa(lp712
Vamod
p713
aVminutes-16
p714
aVmany-15
p715
aa(lp716
Vdep
p717
aVtake-19
p718
aVminutes-16
p719
aa(lp720
Vaux
p721
aVtake-19
p722
aVdid-17
p723
aa(lp724
Vnsubj
p725
aVtake-19
p726
aVit-18
p727
aa(lp728
Vdobj
p729
aVtake-19
p730
aVher-20
p731
aa(lp732
Vaux
p733
aVfinish-22
p734
aVto-21
p735
aa(lp736
Vxcomp
p737
aVtake-19
p738
aVfinish-22
p739
aasas.