(dp0
Vcoref
p1
(lp2
(lp3
(lp4
(lp5
Vshe
p6
aI0
aI7
aI7
aI8
aa(lp7
VOlivia
p8
aI0
aI0
aI0
aI1
aaa(lp9
(lp10
Vshe
p11
aI0
aI14
aI14
aI15
aa(lp12
VOlivia
p13
aI0
aI0
aI0
aI1
aaa(lp14
(lp15
Vshe
p16
aI1
aI1
aI1
aI2
aa(lp17
VOlivia
p18
aI0
aI0
aI0
aI1
aaa(lp19
(lp20
Vher
p21
aI1
aI17
aI17
aI18
aa(lp22
VOlivia
p23
aI0
aI0
aI0
aI1
aaaa(lp24
(lp25
(lp26
V2
p27
aI1
aI10
aI10
aI11
aa(lp28
g27
aI1
aI3
aI3
aI4
aaaasVsentences
p29
(lp30
(dp31
Vparsetree
p32
V(ROOT (S (NP (NNP Olivia)) (VP (VBD was) (VP (VBG playing) (NP (NP (DT a) (NN video) (NN game)) (SBAR (WHADVP (WRB where)) (S (NP (PRP she)) (NP (NNS scores))))) (PP (NP (CD 8) (NNS points)) (IN for) (NP (NP (DT each) (NN treasure)) (SBAR (S (NP (PRP she)) (VP (VBZ finds)))))))) (. .)))
p33
sVtext
p34
VOlivia was playing a video game where she scores 8 points for each treasure she finds .
p35
sVdependencies
p36
(lp37
(lp38
Vroot
p39
aVROOT
p40
aVplaying
p41
aa(lp42
Vnsubj
p43
aVplaying
p44
aVOlivia
p45
aa(lp46
Vaux
p47
aVplaying
p48
aVwas
p49
aa(lp50
Vdet
p51
aVgame
p52
aVa
p53
aa(lp54
Vnn
p55
aVgame
p56
aVvideo
p57
aa(lp58
Vdobj
p59
aVplaying
p60
aVgame
p61
aa(lp62
Vadvmod
p63
aVscores
p64
aVwhere
p65
aa(lp66
Vdep
p67
aVscores
p68
aVshe
p69
aa(lp70
Vrcmod
p71
aVgame
p72
aVscores
p73
aa(lp74
Vnum
p75
aVpoints
p76
aV8
p77
aa(lp78
Vnpadvmod
p79
aVplaying
p80
aVpoints
p81
aa(lp82
Vdet
p83
aVtreasure
p84
aVeach
p85
aa(lp86
Vprep_for
p87
aVplaying
p88
aVtreasure
p89
aa(lp90
Vnsubj
p91
aVfinds
p92
aVshe
p93
aa(lp94
Vrcmod
p95
aVtreasure
p96
aVfinds
p97
aasVwords
p98
(lp99
(lp100
VOlivia
p101
a(dp102
VNamedEntityTag
p103
VPERSON
p104
sVCharacterOffsetEnd
p105
V7
p106
sVCharacterOffsetBegin
p107
V1
p108
sVPartOfSpeech
p109
VNNP
p110
sVLemma
p111
VOlivia
p112
saa(lp113
Vwas
p114
a(dp115
VNamedEntityTag
p116
VO
p117
sVCharacterOffsetEnd
p118
V11
p119
sVCharacterOffsetBegin
p120
g77
sVPartOfSpeech
p121
VVBD
p122
sVLemma
p123
Vbe
p124
saa(lp125
Vplaying
p126
a(dp127
VNamedEntityTag
p128
g117
sVCharacterOffsetEnd
p129
V19
p130
sVCharacterOffsetBegin
p131
V12
p132
sVPartOfSpeech
p133
VVBG
p134
sVLemma
p135
Vplay
p136
saa(lp137
g53
a(dp138
VNamedEntityTag
p139
g117
sVCharacterOffsetEnd
p140
V21
p141
sVCharacterOffsetBegin
p142
V20
p143
sVPartOfSpeech
p144
VDT
p145
sVLemma
p146
g53
saa(lp147
Vvideo
p148
a(dp149
VNamedEntityTag
p150
g117
sVCharacterOffsetEnd
p151
V27
p152
sVCharacterOffsetBegin
p153
V22
p154
sVPartOfSpeech
p155
VNN
p156
sVLemma
p157
Vvideo
p158
saa(lp159
Vgame
p160
a(dp161
VNamedEntityTag
p162
g117
sVCharacterOffsetEnd
p163
V32
p164
sVCharacterOffsetBegin
p165
V28
p166
sVPartOfSpeech
p167
VNN
p168
sVLemma
p169
Vgame
p170
saa(lp171
Vwhere
p172
a(dp173
VNamedEntityTag
p174
g117
sVCharacterOffsetEnd
p175
V38
p176
sVCharacterOffsetBegin
p177
V33
p178
sVPartOfSpeech
p179
VWRB
p180
sVLemma
p181
Vwhere
p182
saa(lp183
Vshe
p184
a(dp185
VNamedEntityTag
p186
g117
sVCharacterOffsetEnd
p187
V42
p188
sVCharacterOffsetBegin
p189
V39
p190
sVPartOfSpeech
p191
VPRP
p192
sVLemma
p193
Vshe
p194
saa(lp195
Vscores
p196
a(dp197
VNamedEntityTag
p198
g117
sVCharacterOffsetEnd
p199
V49
p200
sVCharacterOffsetBegin
p201
V43
p202
sVPartOfSpeech
p203
VNNS
p204
sVLemma
p205
Vscore
p206
saa(lp207
g77
a(dp208
VNormalizedNamedEntityTag
p209
V8.0
p210
sVLemma
p211
g77
sVCharacterOffsetEnd
p212
V51
p213
sVPartOfSpeech
p214
VCD
p215
sVCharacterOffsetBegin
p216
V50
p217
sVNamedEntityTag
p218
VNUMBER
p219
saa(lp220
Vpoints
p221
a(dp222
VNamedEntityTag
p223
g117
sVCharacterOffsetEnd
p224
V58
p225
sVCharacterOffsetBegin
p226
V52
p227
sVPartOfSpeech
p228
VNNS
p229
sVLemma
p230
Vpoint
p231
saa(lp232
Vfor
p233
a(dp234
VNamedEntityTag
p235
g117
sVCharacterOffsetEnd
p236
V62
p237
sVCharacterOffsetBegin
p238
V59
p239
sVPartOfSpeech
p240
VIN
p241
sVLemma
p242
Vfor
p243
saa(lp244
Veach
p245
a(dp246
VNamedEntityTag
p247
g117
sVCharacterOffsetEnd
p248
V67
p249
sVCharacterOffsetBegin
p250
V63
p251
sVPartOfSpeech
p252
VDT
p253
sVLemma
p254
Veach
p255
saa(lp256
Vtreasure
p257
a(dp258
VNamedEntityTag
p259
g117
sVCharacterOffsetEnd
p260
V76
p261
sVCharacterOffsetBegin
p262
V68
p263
sVPartOfSpeech
p264
VNN
p265
sVLemma
p266
Vtreasure
p267
saa(lp268
Vshe
p269
a(dp270
VNamedEntityTag
p271
g117
sVCharacterOffsetEnd
p272
V80
p273
sVCharacterOffsetBegin
p274
V77
p275
sVPartOfSpeech
p276
VPRP
p277
sVLemma
p278
Vshe
p279
saa(lp280
Vfinds
p281
a(dp282
VNamedEntityTag
p283
g117
sVCharacterOffsetEnd
p284
V86
p285
sVCharacterOffsetBegin
p286
V81
p287
sVPartOfSpeech
p288
VVBZ
p289
sVLemma
p290
Vfind
p291
saa(lp292
V.
p293
a(dp294
VNamedEntityTag
p295
g117
sVCharacterOffsetEnd
p296
V88
p297
sVCharacterOffsetBegin
p298
V87
p299
sVPartOfSpeech
p300
g293
sVLemma
p301
g293
saasVindexeddependencies
p302
(lp303
(lp304
Vroot
p305
aVROOT-0
p306
aVplaying-3
p307
aa(lp308
Vnsubj
p309
aVplaying-3
p310
aVOlivia-1
p311
aa(lp312
Vaux
p313
aVplaying-3
p314
aVwas-2
p315
aa(lp316
Vdet
p317
aVgame-6
p318
aVa-4
p319
aa(lp320
Vnn
p321
aVgame-6
p322
aVvideo-5
p323
aa(lp324
Vdobj
p325
aVplaying-3
p326
aVgame-6
p327
aa(lp328
Vadvmod
p329
aVscores-9
p330
aVwhere-7
p331
aa(lp332
Vdep
p333
aVscores-9
p334
aVshe-8
p335
aa(lp336
Vrcmod
p337
aVgame-6
p338
aVscores-9
p339
aa(lp340
Vnum
p341
aVpoints-11
p342
aV8-10
p343
aa(lp344
Vnpadvmod
p345
aVplaying-3
p346
aVpoints-11
p347
aa(lp348
Vdet
p349
aVtreasure-14
p350
aVeach-13
p351
aa(lp352
Vprep_for
p353
aVplaying-3
p354
aVtreasure-14
p355
aa(lp356
Vnsubj
p357
aVfinds-16
p358
aVshe-15
p359
aa(lp360
Vrcmod
p361
aVtreasure-14
p362
aVfinds-16
p363
aasa(dp364
Vparsetree
p365
V(ROOT (SBARQ (SBAR (IN If) (S (NP (PRP she)) (VP (VBD found) (NP (CD 2) (NNS treasures)) (PP (IN on) (NP (NP (DT the) (JJ first) (NN level)) (CC and) (NP (CD 2)))) (PP (IN on) (NP (DT the) (JJ second)))))) (, ,) (WHNP (WP what)) (SQ (MD would) (NP (PRP$ her) (NN score)) (VP (VB be))) (. ?)))
p366
sVtext
p367
VIf she found 2 treasures on the first level and 2 on the second , what would her score be ?
p368
sVdependencies
p369
(lp370
(lp371
Vroot
p372
aVROOT
p373
aVbe
p374
aa(lp375
Vmark
p376
aVfound
p377
aVIf
p378
aa(lp379
Vnsubj
p380
aVfound
p381
aVshe
p382
aa(lp383
Vadvcl
p384
aVbe
p385
aVfound
p386
aa(lp387
Vnum
p388
aVtreasures
p389
ag27
aa(lp390
Vdobj
p391
aVfound
p392
aVtreasures
p393
aa(lp394
Vdet
p395
aVlevel
p396
aVthe
p397
aa(lp398
Vamod
p399
aVlevel
p400
aVfirst
p401
aa(lp402
Vprep_on
p403
aVfound
p404
aVlevel
p405
aa(lp406
Vconj_and
p407
aVlevel
p408
ag27
aa(lp409
Vdet
p410
aVsecond
p411
aVthe
p412
aa(lp413
Vprep_on
p414
aVfound
p415
aVsecond
p416
aa(lp417
Vdobj
p418
aVbe
p419
aVwhat
p420
aa(lp421
Vaux
p422
aVbe
p423
aVwould
p424
aa(lp425
Vposs
p426
aVscore
p427
aVher
p428
aa(lp429
Vnsubj
p430
aVbe
p431
aVscore
p432
aasVwords
p433
(lp434
(lp435
VIf
p436
a(dp437
VNamedEntityTag
p438
g117
sVCharacterOffsetEnd
p439
V91
p440
sVCharacterOffsetBegin
p441
V89
p442
sVPartOfSpeech
p443
VIN
p444
sVLemma
p445
Vif
p446
saa(lp447
Vshe
p448
a(dp449
VNamedEntityTag
p450
g117
sVCharacterOffsetEnd
p451
V95
p452
sVCharacterOffsetBegin
p453
V92
p454
sVPartOfSpeech
p455
VPRP
p456
sVLemma
p457
Vshe
p458
saa(lp459
Vfound
p460
a(dp461
VNamedEntityTag
p462
g117
sVCharacterOffsetEnd
p463
V101
p464
sVCharacterOffsetBegin
p465
V96
p466
sVPartOfSpeech
p467
VVBD
p468
sVLemma
p469
Vfind
p470
saa(lp471
g27
a(dp472
VNormalizedNamedEntityTag
p473
V2.0
p474
sVLemma
p475
g27
sVCharacterOffsetEnd
p476
V103
p477
sVPartOfSpeech
p478
VCD
p479
sVCharacterOffsetBegin
p480
V102
p481
sVNamedEntityTag
p482
VNUMBER
p483
saa(lp484
Vtreasures
p485
a(dp486
VNamedEntityTag
p487
g117
sVCharacterOffsetEnd
p488
V113
p489
sVCharacterOffsetBegin
p490
V104
p491
sVPartOfSpeech
p492
VNNS
p493
sVLemma
p494
Vtreasure
p495
saa(lp496
Von
p497
a(dp498
VNamedEntityTag
p499
g117
sVCharacterOffsetEnd
p500
V116
p501
sVCharacterOffsetBegin
p502
V114
p503
sVPartOfSpeech
p504
VIN
p505
sVLemma
p506
Von
p507
saa(lp508
Vthe
p509
a(dp510
VNamedEntityTag
p511
g117
sVCharacterOffsetEnd
p512
V120
p513
sVCharacterOffsetBegin
p514
V117
p515
sVPartOfSpeech
p516
VDT
p517
sVLemma
p518
Vthe
p519
saa(lp520
Vfirst
p521
a(dp522
VNormalizedNamedEntityTag
p523
V1.0
p524
sVLemma
p525
Vfirst
p526
sVCharacterOffsetEnd
p527
V126
p528
sVPartOfSpeech
p529
VJJ
p530
sVCharacterOffsetBegin
p531
V121
p532
sVNamedEntityTag
p533
VORDINAL
p534
saa(lp535
Vlevel
p536
a(dp537
VNamedEntityTag
p538
g117
sVCharacterOffsetEnd
p539
V132
p540
sVCharacterOffsetBegin
p541
V127
p542
sVPartOfSpeech
p543
VNN
p544
sVLemma
p545
Vlevel
p546
saa(lp547
Vand
p548
a(dp549
VNamedEntityTag
p550
g117
sVCharacterOffsetEnd
p551
V136
p552
sVCharacterOffsetBegin
p553
V133
p554
sVPartOfSpeech
p555
VCC
p556
sVLemma
p557
Vand
p558
saa(lp559
g27
a(dp560
VNormalizedNamedEntityTag
p561
V2.0
p562
sVLemma
p563
g27
sVCharacterOffsetEnd
p564
V138
p565
sVPartOfSpeech
p566
VCD
p567
sVCharacterOffsetBegin
p568
V137
p569
sVNamedEntityTag
p570
VNUMBER
p571
saa(lp572
Von
p573
a(dp574
VNamedEntityTag
p575
g117
sVCharacterOffsetEnd
p576
V141
p577
sVCharacterOffsetBegin
p578
V139
p579
sVPartOfSpeech
p580
VIN
p581
sVLemma
p582
Von
p583
saa(lp584
Vthe
p585
a(dp586
VNamedEntityTag
p587
g117
sVCharacterOffsetEnd
p588
V145
p589
sVCharacterOffsetBegin
p590
V142
p591
sVPartOfSpeech
p592
VDT
p593
sVLemma
p594
Vthe
p595
saa(lp596
Vsecond
p597
a(dp598
VNormalizedNamedEntityTag
p599
V2.0
p600
sVLemma
p601
Vsecond
p602
sVCharacterOffsetEnd
p603
V152
p604
sVPartOfSpeech
p605
VJJ
p606
sVCharacterOffsetBegin
p607
V146
p608
sVNamedEntityTag
p609
VORDINAL
p610
saa(lp611
V,
p612
a(dp613
VNamedEntityTag
p614
g117
sVCharacterOffsetEnd
p615
V154
p616
sVCharacterOffsetBegin
p617
V153
p618
sVPartOfSpeech
p619
g612
sVLemma
p620
g612
saa(lp621
Vwhat
p622
a(dp623
VNamedEntityTag
p624
g117
sVCharacterOffsetEnd
p625
V159
p626
sVCharacterOffsetBegin
p627
V155
p628
sVPartOfSpeech
p629
VWP
p630
sVLemma
p631
Vwhat
p632
saa(lp633
Vwould
p634
a(dp635
VNamedEntityTag
p636
g117
sVCharacterOffsetEnd
p637
V165
p638
sVCharacterOffsetBegin
p639
V160
p640
sVPartOfSpeech
p641
VMD
p642
sVLemma
p643
Vwould
p644
saa(lp645
Vher
p646
a(dp647
VNamedEntityTag
p648
g117
sVCharacterOffsetEnd
p649
V169
p650
sVCharacterOffsetBegin
p651
V166
p652
sVPartOfSpeech
p653
VPRP$
p654
sVLemma
p655
Vshe
p656
saa(lp657
Vscore
p658
a(dp659
VNormalizedNamedEntityTag
p660
V20.0
p661
sVLemma
p662
Vscore
p663
sVCharacterOffsetEnd
p664
V175
p665
sVPartOfSpeech
p666
VNN
p667
sVCharacterOffsetBegin
p668
V170
p669
sVNamedEntityTag
p670
VNUMBER
p671
saa(lp672
Vbe
p673
a(dp674
VNamedEntityTag
p675
g117
sVCharacterOffsetEnd
p676
V178
p677
sVCharacterOffsetBegin
p678
V176
p679
sVPartOfSpeech
p680
VVB
p681
sVLemma
p682
Vbe
p683
saa(lp684
V?
p685
a(dp686
VNamedEntityTag
p687
g117
sVCharacterOffsetEnd
p688
V180
p689
sVCharacterOffsetBegin
p690
V179
p691
sVPartOfSpeech
p692
g293
sVLemma
p693
g685
saasVindexeddependencies
p694
(lp695
(lp696
Vroot
p697
aVROOT-0
p698
aVbe-20
p699
aa(lp700
Vmark
p701
aVfound-3
p702
aVIf-1
p703
aa(lp704
Vnsubj
p705
aVfound-3
p706
aVshe-2
p707
aa(lp708
Vadvcl
p709
aVbe-20
p710
aVfound-3
p711
aa(lp712
Vnum
p713
aVtreasures-5
p714
aV2-4
p715
aa(lp716
Vdobj
p717
aVfound-3
p718
aVtreasures-5
p719
aa(lp720
Vdet
p721
aVlevel-9
p722
aVthe-7
p723
aa(lp724
Vamod
p725
aVlevel-9
p726
aVfirst-8
p727
aa(lp728
Vprep_on
p729
aVfound-3
p730
aVlevel-9
p731
aa(lp732
Vconj_and
p733
aVlevel-9
p734
aV2-11
p735
aa(lp736
Vdet
p737
aVsecond-14
p738
aVthe-13
p739
aa(lp740
Vprep_on
p741
aVfound-3
p742
aVsecond-14
p743
aa(lp744
Vdobj
p745
aVbe-20
p746
aVwhat-16
p747
aa(lp748
Vaux
p749
aVbe-20
p750
aVwould-17
p751
aa(lp752
Vposs
p753
aVscore-19
p754
aVher-18
p755
aa(lp756
Vnsubj
p757
aVbe-20
p758
aVscore-19
p759
aasas.