(dp0
Vcoref
p1
(lp2
(lp3
(lp4
(lp5
Vhe
p6
aI0
aI5
aI5
aI6
aa(lp7
VA waiter
p8
aI0
aI1
aI0
aI2
aaa(lp9
(lp10
Vthe waiter
p11
aI1
aI6
aI5
aI7
aa(lp12
VA waiter
p13
aI0
aI1
aI0
aI2
aaaasVsentences
p14
(lp15
(dp16
Vparsetree
p17
V(ROOT (S (NP (DT A) (NN waiter)) (VP (VBD had) (NP (NP (CD 6) (NNS tables)) (SBAR (S (NP (PRP he)) (VP (VBD was) (VP (VBG waiting) (PP (IN on))))))) (, ,) (PP (IN with) (NP (NP (CD 3) (NNS women)) (CC and) (NP (NP (CD 5) (NNS men)) (PP (IN at) (NP (DT each) (NN table))))))) (. .)))
p18
sVtext
p19
VA waiter had 6 tables he was waiting on , with 3 women and 5 men at each table .
p20
sVdependencies
p21
(lp22
(lp23
Vroot
p24
aVROOT
p25
aVhad
p26
aa(lp27
Vdet
p28
aVwaiter
p29
aVA
p30
aa(lp31
Vnsubj
p32
aVhad
p33
aVwaiter
p34
aa(lp35
Vnum
p36
aVtables
p37
aV6
p38
aa(lp39
Vdobj
p40
aVhad
p41
aVtables
p42
aa(lp43
Vnsubj
p44
aVwaiting
p45
aVhe
p46
aa(lp47
Vaux
p48
aVwaiting
p49
aVwas
p50
aa(lp51
Vrcmod
p52
aVtables
p53
aVwaiting
p54
aa(lp55
Vprep
p56
aVwaiting
p57
aVon
p58
aa(lp59
Vnum
p60
aVwomen
p61
aV3
p62
aa(lp63
Vprep_with
p64
aVhad
p65
aVwomen
p66
aa(lp67
Vnum
p68
aVmen
p69
aV5
p70
aa(lp71
Vconj_and
p72
aVwomen
p73
aVmen
p74
aa(lp75
Vdet
p76
aVtable
p77
aVeach
p78
aa(lp79
Vprep_at
p80
aVmen
p81
aVtable
p82
aasVwords
p83
(lp84
(lp85
g30
a(dp86
VNamedEntityTag
p87
VO
p88
sVCharacterOffsetEnd
p89
V2
p90
sVCharacterOffsetBegin
p91
V1
p92
sVPartOfSpeech
p93
VDT
p94
sVLemma
p95
Va
p96
saa(lp97
Vwaiter
p98
a(dp99
VNamedEntityTag
p100
g88
sVCharacterOffsetEnd
p101
V9
p102
sVCharacterOffsetBegin
p103
g62
sVPartOfSpeech
p104
VNN
p105
sVLemma
p106
Vwaiter
p107
saa(lp108
Vhad
p109
a(dp110
VNamedEntityTag
p111
g88
sVCharacterOffsetEnd
p112
V13
p113
sVCharacterOffsetBegin
p114
V10
p115
sVPartOfSpeech
p116
VVBD
p117
sVLemma
p118
Vhave
p119
saa(lp120
g38
a(dp121
VNormalizedNamedEntityTag
p122
V6.0
p123
sVLemma
p124
g38
sVCharacterOffsetEnd
p125
V15
p126
sVPartOfSpeech
p127
VCD
p128
sVCharacterOffsetBegin
p129
V14
p130
sVNamedEntityTag
p131
VNUMBER
p132
saa(lp133
Vtables
p134
a(dp135
VNamedEntityTag
p136
g88
sVCharacterOffsetEnd
p137
V22
p138
sVCharacterOffsetBegin
p139
V16
p140
sVPartOfSpeech
p141
VNNS
p142
sVLemma
p143
Vtable
p144
saa(lp145
Vhe
p146
a(dp147
VNamedEntityTag
p148
g88
sVCharacterOffsetEnd
p149
V25
p150
sVCharacterOffsetBegin
p151
V23
p152
sVPartOfSpeech
p153
VPRP
p154
sVLemma
p155
Vhe
p156
saa(lp157
Vwas
p158
a(dp159
VNamedEntityTag
p160
g88
sVCharacterOffsetEnd
p161
V29
p162
sVCharacterOffsetBegin
p163
V26
p164
sVPartOfSpeech
p165
VVBD
p166
sVLemma
p167
Vbe
p168
saa(lp169
Vwaiting
p170
a(dp171
VNamedEntityTag
p172
g88
sVCharacterOffsetEnd
p173
V37
p174
sVCharacterOffsetBegin
p175
V30
p176
sVPartOfSpeech
p177
VVBG
p178
sVLemma
p179
Vwait
p180
saa(lp181
Von
p182
a(dp183
VNamedEntityTag
p184
g88
sVCharacterOffsetEnd
p185
V40
p186
sVCharacterOffsetBegin
p187
V38
p188
sVPartOfSpeech
p189
VIN
p190
sVLemma
p191
Von
p192
saa(lp193
V,
p194
a(dp195
VNamedEntityTag
p196
g88
sVCharacterOffsetEnd
p197
V42
p198
sVCharacterOffsetBegin
p199
V41
p200
sVPartOfSpeech
p201
g194
sVLemma
p202
g194
saa(lp203
Vwith
p204
a(dp205
VNamedEntityTag
p206
g88
sVCharacterOffsetEnd
p207
V47
p208
sVCharacterOffsetBegin
p209
V43
p210
sVPartOfSpeech
p211
VIN
p212
sVLemma
p213
Vwith
p214
saa(lp215
g62
a(dp216
VNormalizedNamedEntityTag
p217
V3.0
p218
sVLemma
p219
g62
sVCharacterOffsetEnd
p220
V49
p221
sVPartOfSpeech
p222
VCD
p223
sVCharacterOffsetBegin
p224
V48
p225
sVNamedEntityTag
p226
VNUMBER
p227
saa(lp228
Vwomen
p229
a(dp230
VNamedEntityTag
p231
g88
sVCharacterOffsetEnd
p232
V55
p233
sVCharacterOffsetBegin
p234
V50
p235
sVPartOfSpeech
p236
VNNS
p237
sVLemma
p238
Vwoman
p239
saa(lp240
Vand
p241
a(dp242
VNamedEntityTag
p243
g88
sVCharacterOffsetEnd
p244
V59
p245
sVCharacterOffsetBegin
p246
V56
p247
sVPartOfSpeech
p248
VCC
p249
sVLemma
p250
Vand
p251
saa(lp252
g70
a(dp253
VNormalizedNamedEntityTag
p254
V5.0
p255
sVLemma
p256
g70
sVCharacterOffsetEnd
p257
V61
p258
sVPartOfSpeech
p259
VCD
p260
sVCharacterOffsetBegin
p261
V60
p262
sVNamedEntityTag
p263
VNUMBER
p264
saa(lp265
Vmen
p266
a(dp267
VNamedEntityTag
p268
g88
sVCharacterOffsetEnd
p269
V65
p270
sVCharacterOffsetBegin
p271
V62
p272
sVPartOfSpeech
p273
VNNS
p274
sVLemma
p275
Vman
p276
saa(lp277
Vat
p278
a(dp279
VNamedEntityTag
p280
g88
sVCharacterOffsetEnd
p281
V68
p282
sVCharacterOffsetBegin
p283
V66
p284
sVPartOfSpeech
p285
VIN
p286
sVLemma
p287
Vat
p288
saa(lp289
Veach
p290
a(dp291
VNamedEntityTag
p292
g88
sVCharacterOffsetEnd
p293
V73
p294
sVCharacterOffsetBegin
p295
V69
p296
sVPartOfSpeech
p297
VDT
p298
sVLemma
p299
Veach
p300
saa(lp301
Vtable
p302
a(dp303
VNamedEntityTag
p304
g88
sVCharacterOffsetEnd
p305
V79
p306
sVCharacterOffsetBegin
p307
V74
p308
sVPartOfSpeech
p309
VNN
p310
sVLemma
p311
Vtable
p312
saa(lp313
V.
p314
a(dp315
VNamedEntityTag
p316
g88
sVCharacterOffsetEnd
p317
V81
p318
sVCharacterOffsetBegin
p319
V80
p320
sVPartOfSpeech
p321
g314
sVLemma
p322
g314
saasVindexeddependencies
p323
(lp324
(lp325
Vroot
p326
aVROOT-0
p327
aVhad-3
p328
aa(lp329
Vdet
p330
aVwaiter-2
p331
aVA-1
p332
aa(lp333
Vnsubj
p334
aVhad-3
p335
aVwaiter-2
p336
aa(lp337
Vnum
p338
aVtables-5
p339
aV6-4
p340
aa(lp341
Vdobj
p342
aVhad-3
p343
aVtables-5
p344
aa(lp345
Vnsubj
p346
aVwaiting-8
p347
aVhe-6
p348
aa(lp349
Vaux
p350
aVwaiting-8
p351
aVwas-7
p352
aa(lp353
Vrcmod
p354
aVtables-5
p355
aVwaiting-8
p356
aa(lp357
Vprep
p358
aVwaiting-8
p359
aVon-9
p360
aa(lp361
Vnum
p362
aVwomen-13
p363
aV3-12
p364
aa(lp365
Vprep_with
p366
aVhad-3
p367
aVwomen-13
p368
aa(lp369
Vnum
p370
aVmen-16
p371
aV5-15
p372
aa(lp373
Vconj_and
p374
aVwomen-13
p375
aVmen-16
p376
aa(lp377
Vdet
p378
aVtable-19
p379
aVeach-18
p380
aa(lp381
Vprep_at
p382
aVmen-16
p383
aVtable-19
p384
aasa(dp385
Vparsetree
p386
V(ROOT (SBARQ (WHNP (WHADJP (WRB How) (JJ many)) (NNS customers)) (SQ (VP (VBP total) (SBAR (SINV (VBD did) (NP (DT the) (NN waiter)) (VP (VB have)))))) (. ?)))
p387
sVtext
p388
VHow many customers total did the waiter have ?
p389
sVdependencies
p390
(lp391
(lp392
Vroot
p393
aVROOT
p394
aVtotal
p395
aa(lp396
Vadvmod
p397
aVmany
p398
aVHow
p399
aa(lp400
Vamod
p401
aVcustomers
p402
aVmany
p403
aa(lp404
Vnsubj
p405
aVtotal
p406
aVcustomers
p407
aa(lp408
Vaux
p409
aVhave
p410
aVdid
p411
aa(lp412
Vdet
p413
aVwaiter
p414
aVthe
p415
aa(lp416
Vnsubj
p417
aVhave
p418
aVwaiter
p419
aa(lp420
Vadvcl
p421
aVtotal
p422
aVhave
p423
aasVwords
p424
(lp425
(lp426
VHow
p427
a(dp428
VNamedEntityTag
p429
g88
sVCharacterOffsetEnd
p430
V85
p431
sVCharacterOffsetBegin
p432
V82
p433
sVPartOfSpeech
p434
VWRB
p435
sVLemma
p436
Vhow
p437
saa(lp438
Vmany
p439
a(dp440
VNamedEntityTag
p441
g88
sVCharacterOffsetEnd
p442
V90
p443
sVCharacterOffsetBegin
p444
V86
p445
sVPartOfSpeech
p446
VJJ
p447
sVLemma
p448
Vmany
p449
saa(lp450
Vcustomers
p451
a(dp452
VNamedEntityTag
p453
g88
sVCharacterOffsetEnd
p454
V100
p455
sVCharacterOffsetBegin
p456
V91
p457
sVPartOfSpeech
p458
VNNS
p459
sVLemma
p460
Vcustomer
p461
saa(lp462
Vtotal
p463
a(dp464
VNamedEntityTag
p465
g88
sVCharacterOffsetEnd
p466
V106
p467
sVCharacterOffsetBegin
p468
V101
p469
sVPartOfSpeech
p470
VVBP
p471
sVLemma
p472
Vtotal
p473
saa(lp474
Vdid
p475
a(dp476
VNamedEntityTag
p477
g88
sVCharacterOffsetEnd
p478
V110
p479
sVCharacterOffsetBegin
p480
V107
p481
sVPartOfSpeech
p482
VVBD
p483
sVLemma
p484
Vdo
p485
saa(lp486
Vthe
p487
a(dp488
VNamedEntityTag
p489
g88
sVCharacterOffsetEnd
p490
V114
p491
sVCharacterOffsetBegin
p492
V111
p493
sVPartOfSpeech
p494
VDT
p495
sVLemma
p496
Vthe
p497
saa(lp498
Vwaiter
p499
a(dp500
VNamedEntityTag
p501
g88
sVCharacterOffsetEnd
p502
V121
p503
sVCharacterOffsetBegin
p504
V115
p505
sVPartOfSpeech
p506
VNN
p507
sVLemma
p508
Vwaiter
p509
saa(lp510
Vhave
p511
a(dp512
VNamedEntityTag
p513
g88
sVCharacterOffsetEnd
p514
V126
p515
sVCharacterOffsetBegin
p516
V122
p517
sVPartOfSpeech
p518
VVB
p519
sVLemma
p520
Vhave
p521
saa(lp522
V?
p523
a(dp524
VNamedEntityTag
p525
g88
sVCharacterOffsetEnd
p526
V128
p527
sVCharacterOffsetBegin
p528
V127
p529
sVPartOfSpeech
p530
g314
sVLemma
p531
g523
saasVindexeddependencies
p532
(lp533
(lp534
Vroot
p535
aVROOT-0
p536
aVtotal-4
p537
aa(lp538
Vadvmod
p539
aVmany-2
p540
aVHow-1
p541
aa(lp542
Vamod
p543
aVcustomers-3
p544
aVmany-2
p545
aa(lp546
Vnsubj
p547
aVtotal-4
p548
aVcustomers-3
p549
aa(lp550
Vaux
p551
aVhave-8
p552
aVdid-5
p553
aa(lp554
Vdet
p555
aVwaiter-7
p556
aVthe-6
p557
aa(lp558
Vnsubj
p559
aVhave-8
p560
aVwaiter-7
p561
aa(lp562
Vadvcl
p563
aVtotal-4
p564
aVhave-8
p565
aasas.