(dp0
Vcoref
p1
(lp2
(lp3
(lp4
(lp5
Vthe pipe
p6
aI1
aI6
aI5
aI7
aa(lp7
VAn oil pipe in the sea
p8
aI0
aI2
aI0
aI6
aaa(lp9
(lp10
Vthe pipe
p11
aI2
aI6
aI5
aI7
aa(lp12
VAn oil pipe in the sea
p13
aI0
aI2
aI0
aI6
aaaa(lp14
(lp15
(lp16
Vengineers
p17
aI1
aI1
aI1
aI2
aa(lp18
Vthe engineers
p19
aI2
aI2
aI1
aI3
aaaa(lp20
(lp21
(lp22
Vthe water
p23
aI3
aI11
aI10
aI12
aa(lp24
Vthe water
p25
aI1
aI15
aI14
aI16
aaaasVsentences
p26
(lp27
(dp28
Vparsetree
p29
V(ROOT (S (NP (NP (DT An) (NN oil) (NN pipe)) (PP (IN in) (NP (DT the) (NN sea)))) (VP (VBD broke)) (. .)))
p30
sVtext
p31
VAn oil pipe in the sea broke .
p32
sVdependencies
p33
(lp34
(lp35
Vroot
p36
aVROOT
p37
aVbroke
p38
aa(lp39
Vdet
p40
aVpipe
p41
aVAn
p42
aa(lp43
Vnn
p44
aVpipe
p45
aVoil
p46
aa(lp47
Vnsubj
p48
aVbroke
p49
aVpipe
p50
aa(lp51
Vdet
p52
aVsea
p53
aVthe
p54
aa(lp55
Vprep_in
p56
aVpipe
p57
aVsea
p58
aasVwords
p59
(lp60
(lp61
VAn
p62
a(dp63
VNamedEntityTag
p64
VO
p65
sVCharacterOffsetEnd
p66
V3
p67
sVCharacterOffsetBegin
p68
V1
p69
sVPartOfSpeech
p70
VDT
p71
sVLemma
p72
Va
p73
saa(lp74
Voil
p75
a(dp76
VNamedEntityTag
p77
g65
sVCharacterOffsetEnd
p78
V7
p79
sVCharacterOffsetBegin
p80
V4
p81
sVPartOfSpeech
p82
VNN
p83
sVLemma
p84
Voil
p85
saa(lp86
Vpipe
p87
a(dp88
VNamedEntityTag
p89
g65
sVCharacterOffsetEnd
p90
V12
p91
sVCharacterOffsetBegin
p92
V8
p93
sVPartOfSpeech
p94
VNN
p95
sVLemma
p96
Vpipe
p97
saa(lp98
Vin
p99
a(dp100
VNamedEntityTag
p101
g65
sVCharacterOffsetEnd
p102
V15
p103
sVCharacterOffsetBegin
p104
V13
p105
sVPartOfSpeech
p106
VIN
p107
sVLemma
p108
Vin
p109
saa(lp110
Vthe
p111
a(dp112
VNamedEntityTag
p113
g65
sVCharacterOffsetEnd
p114
V19
p115
sVCharacterOffsetBegin
p116
V16
p117
sVPartOfSpeech
p118
VDT
p119
sVLemma
p120
Vthe
p121
saa(lp122
Vsea
p123
a(dp124
VNamedEntityTag
p125
g65
sVCharacterOffsetEnd
p126
V23
p127
sVCharacterOffsetBegin
p128
V20
p129
sVPartOfSpeech
p130
VNN
p131
sVLemma
p132
Vsea
p133
saa(lp134
Vbroke
p135
a(dp136
VNamedEntityTag
p137
g65
sVCharacterOffsetEnd
p138
V29
p139
sVCharacterOffsetBegin
p140
V24
p141
sVPartOfSpeech
p142
VVBD
p143
sVLemma
p144
Vbreak
p145
saa(lp146
V.
p147
a(dp148
VNamedEntityTag
p149
g65
sVCharacterOffsetEnd
p150
V31
p151
sVCharacterOffsetBegin
p152
V30
p153
sVPartOfSpeech
p154
g147
sVLemma
p155
g147
saasVindexeddependencies
p156
(lp157
(lp158
Vroot
p159
aVROOT-0
p160
aVbroke-7
p161
aa(lp162
Vdet
p163
aVpipe-3
p164
aVAn-1
p165
aa(lp166
Vnn
p167
aVpipe-3
p168
aVoil-2
p169
aa(lp170
Vnsubj
p171
aVbroke-7
p172
aVpipe-3
p173
aa(lp174
Vdet
p175
aVsea-6
p176
aVthe-5
p177
aa(lp178
Vprep_in
p179
aVpipe-3
p180
aVsea-6
p181
aasa(dp182
Vparsetree
p183
V(ROOT (S (SBAR (IN Before) (S (NP (NNS engineers)) (VP (VBD started) (S (VP (TO to) (VP (VB fix) (NP (DT the) (NN pipe)))))))) (, ,) (NP (NP (CD 6,522) (NNS liters)) (PP (IN of) (NP (NN oil)))) (VP (VBN leaked) (PP (IN into) (NP (DT the) (NN water)))) (. .)))
p184
sVtext
p185
VBefore engineers started to fix the pipe , 6,522 liters of oil leaked into the water .
p186
sVdependencies
p187
(lp188
(lp189
Vroot
p190
aVROOT
p191
aVleaked
p192
aa(lp193
Vmark
p194
aVstarted
p195
aVBefore
p196
aa(lp197
Vnsubj
p198
aVstarted
p199
aVengineers
p200
aa(lp201
Vadvcl
p202
aVleaked
p203
aVstarted
p204
aa(lp205
Vaux
p206
aVfix
p207
aVto
p208
aa(lp209
Vxcomp
p210
aVstarted
p211
aVfix
p212
aa(lp213
Vdet
p214
aVpipe
p215
aVthe
p216
aa(lp217
Vdobj
p218
aVfix
p219
aVpipe
p220
aa(lp221
Vnum
p222
aVliters
p223
aV6,522
p224
aa(lp225
Vnsubj
p226
aVleaked
p227
aVliters
p228
aa(lp229
Vprep_of
p230
aVliters
p231
aVoil
p232
aa(lp233
Vdet
p234
aVwater
p235
aVthe
p236
aa(lp237
Vprep_into
p238
aVleaked
p239
aVwater
p240
aasVwords
p241
(lp242
(lp243
VBefore
p244
a(dp245
VNamedEntityTag
p246
g65
sVCharacterOffsetEnd
p247
V38
p248
sVCharacterOffsetBegin
p249
V32
p250
sVPartOfSpeech
p251
VIN
p252
sVLemma
p253
Vbefore
p254
saa(lp255
Vengineers
p256
a(dp257
VNamedEntityTag
p258
g65
sVCharacterOffsetEnd
p259
V48
p260
sVCharacterOffsetBegin
p261
V39
p262
sVPartOfSpeech
p263
VNNS
p264
sVLemma
p265
Vengineer
p266
saa(lp267
Vstarted
p268
a(dp269
VNamedEntityTag
p270
g65
sVCharacterOffsetEnd
p271
V56
p272
sVCharacterOffsetBegin
p273
V49
p274
sVPartOfSpeech
p275
VVBD
p276
sVLemma
p277
Vstart
p278
saa(lp279
Vto
p280
a(dp281
VNamedEntityTag
p282
g65
sVCharacterOffsetEnd
p283
V59
p284
sVCharacterOffsetBegin
p285
V57
p286
sVPartOfSpeech
p287
VTO
p288
sVLemma
p289
Vto
p290
saa(lp291
Vfix
p292
a(dp293
VNamedEntityTag
p294
g65
sVCharacterOffsetEnd
p295
V63
p296
sVCharacterOffsetBegin
p297
V60
p298
sVPartOfSpeech
p299
VVB
p300
sVLemma
p301
Vfix
p302
saa(lp303
Vthe
p304
a(dp305
VNamedEntityTag
p306
g65
sVCharacterOffsetEnd
p307
V67
p308
sVCharacterOffsetBegin
p309
V64
p310
sVPartOfSpeech
p311
VDT
p312
sVLemma
p313
Vthe
p314
saa(lp315
Vpipe
p316
a(dp317
VNamedEntityTag
p318
g65
sVCharacterOffsetEnd
p319
V72
p320
sVCharacterOffsetBegin
p321
V68
p322
sVPartOfSpeech
p323
VNN
p324
sVLemma
p325
Vpipe
p326
saa(lp327
V,
p328
a(dp329
VNamedEntityTag
p330
g65
sVCharacterOffsetEnd
p331
V74
p332
sVCharacterOffsetBegin
p333
V73
p334
sVPartOfSpeech
p335
g328
sVLemma
p336
g328
saa(lp337
V6,522
p338
a(dp339
VNormalizedNamedEntityTag
p340
V6522.0
p341
sVLemma
p342
V6,522
p343
sVCharacterOffsetEnd
p344
V80
p345
sVPartOfSpeech
p346
VCD
p347
sVCharacterOffsetBegin
p348
V75
p349
sVNamedEntityTag
p350
VNUMBER
p351
saa(lp352
Vliters
p353
a(dp354
VNamedEntityTag
p355
g65
sVCharacterOffsetEnd
p356
V87
p357
sVCharacterOffsetBegin
p358
V81
p359
sVPartOfSpeech
p360
VNNS
p361
sVLemma
p362
Vliter
p363
saa(lp364
Vof
p365
a(dp366
VNamedEntityTag
p367
g65
sVCharacterOffsetEnd
p368
V90
p369
sVCharacterOffsetBegin
p370
V88
p371
sVPartOfSpeech
p372
VIN
p373
sVLemma
p374
Vof
p375
saa(lp376
Voil
p377
a(dp378
VNamedEntityTag
p379
g65
sVCharacterOffsetEnd
p380
V94
p381
sVCharacterOffsetBegin
p382
V91
p383
sVPartOfSpeech
p384
VNN
p385
sVLemma
p386
Voil
p387
saa(lp388
Vleaked
p389
a(dp390
VNamedEntityTag
p391
g65
sVCharacterOffsetEnd
p392
V101
p393
sVCharacterOffsetBegin
p394
V95
p395
sVPartOfSpeech
p396
VVBN
p397
sVLemma
p398
Vleak
p399
saa(lp400
Vinto
p401
a(dp402
VNamedEntityTag
p403
g65
sVCharacterOffsetEnd
p404
V106
p405
sVCharacterOffsetBegin
p406
V102
p407
sVPartOfSpeech
p408
VIN
p409
sVLemma
p410
Vinto
p411
saa(lp412
Vthe
p413
a(dp414
VNamedEntityTag
p415
g65
sVCharacterOffsetEnd
p416
V110
p417
sVCharacterOffsetBegin
p418
V107
p419
sVPartOfSpeech
p420
VDT
p421
sVLemma
p422
Vthe
p423
saa(lp424
Vwater
p425
a(dp426
VNamedEntityTag
p427
g65
sVCharacterOffsetEnd
p428
V116
p429
sVCharacterOffsetBegin
p430
V111
p431
sVPartOfSpeech
p432
VNN
p433
sVLemma
p434
Vwater
p435
saa(lp436
g147
a(dp437
VNamedEntityTag
p438
g65
sVCharacterOffsetEnd
p439
V118
p440
sVCharacterOffsetBegin
p441
V117
p442
sVPartOfSpeech
p443
g147
sVLemma
p444
g147
saasVindexeddependencies
p445
(lp446
(lp447
Vroot
p448
aVROOT-0
p449
aVleaked-13
p450
aa(lp451
Vmark
p452
aVstarted-3
p453
aVBefore-1
p454
aa(lp455
Vnsubj
p456
aVstarted-3
p457
aVengineers-2
p458
aa(lp459
Vadvcl
p460
aVleaked-13
p461
aVstarted-3
p462
aa(lp463
Vaux
p464
aVfix-5
p465
aVto-4
p466
aa(lp467
Vxcomp
p468
aVstarted-3
p469
aVfix-5
p470
aa(lp471
Vdet
p472
aVpipe-7
p473
aVthe-6
p474
aa(lp475
Vdobj
p476
aVfix-5
p477
aVpipe-7
p478
aa(lp479
Vnum
p480
aVliters-10
p481
aV6,522-9
p482
aa(lp483
Vnsubj
p484
aVleaked-13
p485
aVliters-10
p486
aa(lp487
Vprep_of
p488
aVliters-10
p489
aVoil-12
p490
aa(lp491
Vdet
p492
aVwater-16
p493
aVthe-15
p494
aa(lp495
Vprep_into
p496
aVleaked-13
p497
aVwater-16
p498
aasa(dp499
Vparsetree
p500
V(ROOT (S (SBAR (IN While) (S (NP (DT the) (NNS engineers)) (VP (VBD worked)))) (, ,) (S (NP (DT the) (NN pipe)) (VP (VBN leaked) (NP (NP (CD 5,165) (JJR more) (NNS liters)) (PP (IN of) (NP (NN oil)))))) (. .)))
p501
sVtext
p502
VWhile the engineers worked , the pipe leaked 5,165 more liters of oil .
p503
sVdependencies
p504
(lp505
(lp506
Vroot
p507
aVROOT
p508
aVleaked
p509
aa(lp510
Vmark
p511
aVworked
p512
aVWhile
p513
aa(lp514
Vdet
p515
aVengineers
p516
aVthe
p517
aa(lp518
Vnsubj
p519
aVworked
p520
aVengineers
p521
aa(lp522
Vadvcl
p523
aVleaked
p524
aVworked
p525
aa(lp526
Vdet
p527
aVpipe
p528
aVthe
p529
aa(lp530
Vnsubj
p531
aVleaked
p532
aVpipe
p533
aa(lp534
Vnum
p535
aVliters
p536
aV5,165
p537
aa(lp538
Vamod
p539
aVliters
p540
aVmore
p541
aa(lp542
Vdobj
p543
aVleaked
p544
aVliters
p545
aa(lp546
Vprep_of
p547
aVliters
p548
aVoil
p549
aasVwords
p550
(lp551
(lp552
VWhile
p553
a(dp554
VNamedEntityTag
p555
g65
sVCharacterOffsetEnd
p556
V124
p557
sVCharacterOffsetBegin
p558
V119
p559
sVPartOfSpeech
p560
VIN
p561
sVLemma
p562
Vwhile
p563
saa(lp564
Vthe
p565
a(dp566
VNamedEntityTag
p567
g65
sVCharacterOffsetEnd
p568
V128
p569
sVCharacterOffsetBegin
p570
V125
p571
sVPartOfSpeech
p572
VDT
p573
sVLemma
p574
Vthe
p575
saa(lp576
Vengineers
p577
a(dp578
VNamedEntityTag
p579
g65
sVCharacterOffsetEnd
p580
V138
p581
sVCharacterOffsetBegin
p582
V129
p583
sVPartOfSpeech
p584
VNNS
p585
sVLemma
p586
Vengineer
p587
saa(lp588
Vworked
p589
a(dp590
VNamedEntityTag
p591
g65
sVCharacterOffsetEnd
p592
V145
p593
sVCharacterOffsetBegin
p594
V139
p595
sVPartOfSpeech
p596
VVBD
p597
sVLemma
p598
Vwork
p599
saa(lp600
g328
a(dp601
VNamedEntityTag
p602
g65
sVCharacterOffsetEnd
p603
V147
p604
sVCharacterOffsetBegin
p605
V146
p606
sVPartOfSpeech
p607
g328
sVLemma
p608
g328
saa(lp609
Vthe
p610
a(dp611
VNamedEntityTag
p612
g65
sVCharacterOffsetEnd
p613
V151
p614
sVCharacterOffsetBegin
p615
V148
p616
sVPartOfSpeech
p617
VDT
p618
sVLemma
p619
Vthe
p620
saa(lp621
Vpipe
p622
a(dp623
VNamedEntityTag
p624
g65
sVCharacterOffsetEnd
p625
V156
p626
sVCharacterOffsetBegin
p627
V152
p628
sVPartOfSpeech
p629
VNN
p630
sVLemma
p631
Vpipe
p632
saa(lp633
Vleaked
p634
a(dp635
VNamedEntityTag
p636
g65
sVCharacterOffsetEnd
p637
V163
p638
sVCharacterOffsetBegin
p639
V157
p640
sVPartOfSpeech
p641
VVBN
p642
sVLemma
p643
Vleak
p644
saa(lp645
V5,165
p646
a(dp647
VNormalizedNamedEntityTag
p648
V5165.0
p649
sVLemma
p650
V5,165
p651
sVCharacterOffsetEnd
p652
V169
p653
sVPartOfSpeech
p654
VCD
p655
sVCharacterOffsetBegin
p656
V164
p657
sVNamedEntityTag
p658
VNUMBER
p659
saa(lp660
Vmore
p661
a(dp662
VNamedEntityTag
p663
g65
sVCharacterOffsetEnd
p664
V174
p665
sVCharacterOffsetBegin
p666
V170
p667
sVPartOfSpeech
p668
VJJR
p669
sVLemma
p670
Vmore
p671
saa(lp672
Vliters
p673
a(dp674
VNamedEntityTag
p675
g65
sVCharacterOffsetEnd
p676
V181
p677
sVCharacterOffsetBegin
p678
V175
p679
sVPartOfSpeech
p680
VNNS
p681
sVLemma
p682
Vliter
p683
saa(lp684
Vof
p685
a(dp686
VNamedEntityTag
p687
g65
sVCharacterOffsetEnd
p688
V184
p689
sVCharacterOffsetBegin
p690
V182
p691
sVPartOfSpeech
p692
VIN
p693
sVLemma
p694
Vof
p695
saa(lp696
Voil
p697
a(dp698
VNamedEntityTag
p699
g65
sVCharacterOffsetEnd
p700
V188
p701
sVCharacterOffsetBegin
p702
V185
p703
sVPartOfSpeech
p704
VNN
p705
sVLemma
p706
Voil
p707
saa(lp708
g147
a(dp709
VNamedEntityTag
p710
g65
sVCharacterOffsetEnd
p711
V190
p712
sVCharacterOffsetBegin
p713
V189
p714
sVPartOfSpeech
p715
g147
sVLemma
p716
g147
saasVindexeddependencies
p717
(lp718
(lp719
Vroot
p720
aVROOT-0
p721
aVleaked-8
p722
aa(lp723
Vmark
p724
aVworked-4
p725
aVWhile-1
p726
aa(lp727
Vdet
p728
aVengineers-3
p729
aVthe-2
p730
aa(lp731
Vnsubj
p732
aVworked-4
p733
aVengineers-3
p734
aa(lp735
Vadvcl
p736
aVleaked-8
p737
aVworked-4
p738
aa(lp739
Vdet
p740
aVpipe-7
p741
aVthe-6
p742
aa(lp743
Vnsubj
p744
aVleaked-8
p745
aVpipe-7
p746
aa(lp747
Vnum
p748
aVliters-11
p749
aV5,165-9
p750
aa(lp751
Vamod
p752
aVliters-11
p753
aVmore-10
p754
aa(lp755
Vdobj
p756
aVleaked-8
p757
aVliters-11
p758
aa(lp759
Vprep_of
p760
aVliters-11
p761
aVoil-13
p762
aasa(dp763
Vparsetree
p764
V(ROOT (SBARQ (WHNP (PP (IN In) (NP (DT all))) (, ,) (WHNP (WHNP (WHADJP (WRB how) (JJ many)) (NNS liters)) (PP (IN of) (NP (NN oil))))) (SQ (VP (VBN leaked) (PP (IN into) (NP (DT the) (NN water))))) (. ?)))
p765
sVtext
p766
VIn all , how many liters of oil leaked into the water ?
p767
sVdependencies
p768
(lp769
(lp770
Vroot
p771
aVROOT
p772
aVleaked
p773
aa(lp774
Vprep_in
p775
aVliters
p776
aVall
p777
aa(lp778
Vadvmod
p779
aVmany
p780
aVhow
p781
aa(lp782
Vamod
p783
aVliters
p784
aVmany
p785
aa(lp786
Vnsubj
p787
aVleaked
p788
aVliters
p789
aa(lp790
Vprep_of
p791
aVliters
p792
aVoil
p793
aa(lp794
Vdet
p795
aVwater
p796
aVthe
p797
aa(lp798
Vprep_into
p799
aVleaked
p800
aVwater
p801
aasVwords
p802
(lp803
(lp804
VIn
p805
a(dp806
VNamedEntityTag
p807
g65
sVCharacterOffsetEnd
p808
V193
p809
sVCharacterOffsetBegin
p810
V191
p811
sVPartOfSpeech
p812
VIN
p813
sVLemma
p814
Vin
p815
saa(lp816
Vall
p817
a(dp818
VNamedEntityTag
p819
g65
sVCharacterOffsetEnd
p820
V197
p821
sVCharacterOffsetBegin
p822
V194
p823
sVPartOfSpeech
p824
VDT
p825
sVLemma
p826
Vall
p827
saa(lp828
g328
a(dp829
VNamedEntityTag
p830
g65
sVCharacterOffsetEnd
p831
V199
p832
sVCharacterOffsetBegin
p833
V198
p834
sVPartOfSpeech
p835
g328
sVLemma
p836
g328
saa(lp837
Vhow
p838
a(dp839
VNamedEntityTag
p840
g65
sVCharacterOffsetEnd
p841
V203
p842
sVCharacterOffsetBegin
p843
V200
p844
sVPartOfSpeech
p845
VWRB
p846
sVLemma
p847
Vhow
p848
saa(lp849
Vmany
p850
a(dp851
VNamedEntityTag
p852
g65
sVCharacterOffsetEnd
p853
V208
p854
sVCharacterOffsetBegin
p855
V204
p856
sVPartOfSpeech
p857
VJJ
p858
sVLemma
p859
Vmany
p860
saa(lp861
Vliters
p862
a(dp863
VNamedEntityTag
p864
g65
sVCharacterOffsetEnd
p865
V215
p866
sVCharacterOffsetBegin
p867
V209
p868
sVPartOfSpeech
p869
VNNS
p870
sVLemma
p871
Vliter
p872
saa(lp873
Vof
p874
a(dp875
VNamedEntityTag
p876
g65
sVCharacterOffsetEnd
p877
V218
p878
sVCharacterOffsetBegin
p879
V216
p880
sVPartOfSpeech
p881
VIN
p882
sVLemma
p883
Vof
p884
saa(lp885
Voil
p886
a(dp887
VNamedEntityTag
p888
g65
sVCharacterOffsetEnd
p889
V222
p890
sVCharacterOffsetBegin
p891
V219
p892
sVPartOfSpeech
p893
VNN
p894
sVLemma
p895
Voil
p896
saa(lp897
Vleaked
p898
a(dp899
VNamedEntityTag
p900
g65
sVCharacterOffsetEnd
p901
V229
p902
sVCharacterOffsetBegin
p903
V223
p904
sVPartOfSpeech
p905
VVBN
p906
sVLemma
p907
Vleak
p908
saa(lp909
Vinto
p910
a(dp911
VNamedEntityTag
p912
g65
sVCharacterOffsetEnd
p913
V234
p914
sVCharacterOffsetBegin
p915
V230
p916
sVPartOfSpeech
p917
VIN
p918
sVLemma
p919
Vinto
p920
saa(lp921
Vthe
p922
a(dp923
VNamedEntityTag
p924
g65
sVCharacterOffsetEnd
p925
V238
p926
sVCharacterOffsetBegin
p927
V235
p928
sVPartOfSpeech
p929
VDT
p930
sVLemma
p931
Vthe
p932
saa(lp933
Vwater
p934
a(dp935
VNamedEntityTag
p936
g65
sVCharacterOffsetEnd
p937
V244
p938
sVCharacterOffsetBegin
p939
V239
p940
sVPartOfSpeech
p941
VNN
p942
sVLemma
p943
Vwater
p944
saa(lp945
V?
p946
a(dp947
VNamedEntityTag
p948
g65
sVCharacterOffsetEnd
p949
V246
p950
sVCharacterOffsetBegin
p951
V245
p952
sVPartOfSpeech
p953
g147
sVLemma
p954
g946
saasVindexeddependencies
p955
(lp956
(lp957
Vroot
p958
aVROOT-0
p959
aVleaked-9
p960
aa(lp961
Vprep_in
p962
aVliters-6
p963
aVall-2
p964
aa(lp965
Vadvmod
p966
aVmany-5
p967
aVhow-4
p968
aa(lp969
Vamod
p970
aVliters-6
p971
aVmany-5
p972
aa(lp973
Vnsubj
p974
aVleaked-9
p975
aVliters-6
p976
aa(lp977
Vprep_of
p978
aVliters-6
p979
aVoil-8
p980
aa(lp981
Vdet
p982
aVwater-12
p983
aVthe-11
p984
aa(lp985
Vprep_into
p986
aVleaked-9
p987
aVwater-12
p988
aasas.