(dp0
Vcoref
p1
(lp2
(lp3
(lp4
(lp5
VSparrowtown
p6
aI0
aI3
aI3
aI4
aa(lp7
VSparrowtown 's
p8
aI2
aI7
aI7
aI9
aaaa(lp9
(lp10
(lp11
VThe population of Sparrowtown
p12
aI0
aI1
aI0
aI4
aa(lp13
VSparrowtown 's population
p14
aI2
aI9
aI7
aI10
aaa(lp15
(lp16
Vthe population
p17
aI1
aI3
aI2
aI4
aa(lp18
VSparrowtown 's population
p19
aI2
aI9
aI7
aI10
aaaasVsentences
p20
(lp21
(dp22
Vparsetree
p23
V(ROOT (S (NP (NP (DT The) (NN population)) (PP (IN of) (NP (NNP Sparrowtown)))) (VP (VBD was) (NP (NP (CD 9,740) (NNS people)) (SBAR (WHADVP (WRB when)) (S (NP (NNP Mary)) (VP (VBD moved) (ADVP (RB there))))))) (. .)))
p24
sVtext
p25
VThe population of Sparrowtown was 9,740 people when Mary moved there .
p26
sVdependencies
p27
(lp28
(lp29
Vroot
p30
aVROOT
p31
aVpeople
p32
aa(lp33
Vdet
p34
aVpopulation
p35
aVThe
p36
aa(lp37
Vnsubj
p38
aVpeople
p39
aVpopulation
p40
aa(lp41
Vprep_of
p42
aVpopulation
p43
aVSparrowtown
p44
aa(lp45
Vcop
p46
aVpeople
p47
aVwas
p48
aa(lp49
Vnum
p50
aVpeople
p51
aV9,740
p52
aa(lp53
Vadvmod
p54
aVmoved
p55
aVwhen
p56
aa(lp57
Vnsubj
p58
aVmoved
p59
aVMary
p60
aa(lp61
Vrcmod
p62
aVpeople
p63
aVmoved
p64
aa(lp65
Vadvmod
p66
aVmoved
p67
aVthere
p68
aasVwords
p69
(lp70
(lp71
VThe
p72
a(dp73
VNamedEntityTag
p74
VO
p75
sVCharacterOffsetEnd
p76
V4
p77
sVCharacterOffsetBegin
p78
V1
p79
sVPartOfSpeech
p80
VDT
p81
sVLemma
p82
Vthe
p83
saa(lp84
Vpopulation
p85
a(dp86
VNamedEntityTag
p87
g75
sVCharacterOffsetEnd
p88
V15
p89
sVCharacterOffsetBegin
p90
V5
p91
sVPartOfSpeech
p92
VNN
p93
sVLemma
p94
Vpopulation
p95
saa(lp96
Vof
p97
a(dp98
VNamedEntityTag
p99
g75
sVCharacterOffsetEnd
p100
V18
p101
sVCharacterOffsetBegin
p102
V16
p103
sVPartOfSpeech
p104
VIN
p105
sVLemma
p106
Vof
p107
saa(lp108
VSparrowtown
p109
a(dp110
VNamedEntityTag
p111
VLOCATION
p112
sVCharacterOffsetEnd
p113
V30
p114
sVCharacterOffsetBegin
p115
V19
p116
sVPartOfSpeech
p117
VNNP
p118
sVLemma
p119
VSparrowtown
p120
saa(lp121
Vwas
p122
a(dp123
VNamedEntityTag
p124
g75
sVCharacterOffsetEnd
p125
V34
p126
sVCharacterOffsetBegin
p127
V31
p128
sVPartOfSpeech
p129
VVBD
p130
sVLemma
p131
Vbe
p132
saa(lp133
V9,740
p134
a(dp135
VNormalizedNamedEntityTag
p136
V9740.0
p137
sVLemma
p138
V9,740
p139
sVCharacterOffsetEnd
p140
V40
p141
sVPartOfSpeech
p142
VCD
p143
sVCharacterOffsetBegin
p144
V35
p145
sVNamedEntityTag
p146
VNUMBER
p147
saa(lp148
Vpeople
p149
a(dp150
VNamedEntityTag
p151
g75
sVCharacterOffsetEnd
p152
V47
p153
sVCharacterOffsetBegin
p154
V41
p155
sVPartOfSpeech
p156
VNNS
p157
sVLemma
p158
Vpeople
p159
saa(lp160
Vwhen
p161
a(dp162
VNamedEntityTag
p163
g75
sVCharacterOffsetEnd
p164
V52
p165
sVCharacterOffsetBegin
p166
V48
p167
sVPartOfSpeech
p168
VWRB
p169
sVLemma
p170
Vwhen
p171
saa(lp172
VMary
p173
a(dp174
VNamedEntityTag
p175
VPERSON
p176
sVCharacterOffsetEnd
p177
V57
p178
sVCharacterOffsetBegin
p179
V53
p180
sVPartOfSpeech
p181
VNNP
p182
sVLemma
p183
VMary
p184
saa(lp185
Vmoved
p186
a(dp187
VNamedEntityTag
p188
g75
sVCharacterOffsetEnd
p189
V63
p190
sVCharacterOffsetBegin
p191
V58
p192
sVPartOfSpeech
p193
VVBD
p194
sVLemma
p195
Vmove
p196
saa(lp197
Vthere
p198
a(dp199
VNamedEntityTag
p200
g75
sVCharacterOffsetEnd
p201
V69
p202
sVCharacterOffsetBegin
p203
V64
p204
sVPartOfSpeech
p205
VRB
p206
sVLemma
p207
Vthere
p208
saa(lp209
V.
p210
a(dp211
VNamedEntityTag
p212
g75
sVCharacterOffsetEnd
p213
V71
p214
sVCharacterOffsetBegin
p215
V70
p216
sVPartOfSpeech
p217
g210
sVLemma
p218
g210
saasVindexeddependencies
p219
(lp220
(lp221
Vroot
p222
aVROOT-0
p223
aVpeople-7
p224
aa(lp225
Vdet
p226
aVpopulation-2
p227
aVThe-1
p228
aa(lp229
Vnsubj
p230
aVpeople-7
p231
aVpopulation-2
p232
aa(lp233
Vprep_of
p234
aVpopulation-2
p235
aVSparrowtown-4
p236
aa(lp237
Vcop
p238
aVpeople-7
p239
aVwas-5
p240
aa(lp241
Vnum
p242
aVpeople-7
p243
aV9,740-6
p244
aa(lp245
Vadvmod
p246
aVmoved-10
p247
aVwhen-8
p248
aa(lp249
Vnsubj
p250
aVmoved-10
p251
aVMary-9
p252
aa(lp253
Vrcmod
p254
aVpeople-7
p255
aVmoved-10
p256
aa(lp257
Vadvmod
p258
aVmoved-10
p259
aVthere-11
p260
aasa(dp261
Vparsetree
p262
V(ROOT (S (ADVP (RB Currently)) (, ,) (NP (DT the) (NN population)) (VP (VBZ is) (NP (CD 13,149) (NNS people))) (. .)))
p263
sVtext
p264
VCurrently , the population is 13,149 people .
p265
sVdependencies
p266
(lp267
(lp268
Vroot
p269
aVROOT
p270
aVpeople
p271
aa(lp272
Vadvmod
p273
aVpeople
p274
aVCurrently
p275
aa(lp276
Vdet
p277
aVpopulation
p278
aVthe
p279
aa(lp280
Vnsubj
p281
aVpeople
p282
aVpopulation
p283
aa(lp284
Vcop
p285
aVpeople
p286
aVis
p287
aa(lp288
Vnum
p289
aVpeople
p290
aV13,149
p291
aasVwords
p292
(lp293
(lp294
VCurrently
p295
a(dp296
VNormalizedNamedEntityTag
p297
VPRESENT_REF
p298
sVTimex
p299
V<TIMEX3 tid="t1" type="DATE" value="PRESENT_REF">Currently</TIMEX3>
p300
sVLemma
p301
Vcurrently
p302
sVCharacterOffsetEnd
p303
V81
p304
sVPartOfSpeech
p305
VRB
p306
sVCharacterOffsetBegin
p307
V72
p308
sVNamedEntityTag
p309
VDATE
p310
saa(lp311
V,
p312
a(dp313
VNamedEntityTag
p314
g75
sVCharacterOffsetEnd
p315
V83
p316
sVCharacterOffsetBegin
p317
V82
p318
sVPartOfSpeech
p319
g312
sVLemma
p320
g312
saa(lp321
Vthe
p322
a(dp323
VNamedEntityTag
p324
g75
sVCharacterOffsetEnd
p325
V87
p326
sVCharacterOffsetBegin
p327
V84
p328
sVPartOfSpeech
p329
VDT
p330
sVLemma
p331
Vthe
p332
saa(lp333
Vpopulation
p334
a(dp335
VNamedEntityTag
p336
g75
sVCharacterOffsetEnd
p337
V98
p338
sVCharacterOffsetBegin
p339
V88
p340
sVPartOfSpeech
p341
VNN
p342
sVLemma
p343
Vpopulation
p344
saa(lp345
Vis
p346
a(dp347
VNamedEntityTag
p348
g75
sVCharacterOffsetEnd
p349
V101
p350
sVCharacterOffsetBegin
p351
V99
p352
sVPartOfSpeech
p353
VVBZ
p354
sVLemma
p355
Vbe
p356
saa(lp357
V13,149
p358
a(dp359
VNormalizedNamedEntityTag
p360
V13149.0
p361
sVLemma
p362
V13,149
p363
sVCharacterOffsetEnd
p364
V108
p365
sVPartOfSpeech
p366
VCD
p367
sVCharacterOffsetBegin
p368
V102
p369
sVNamedEntityTag
p370
VNUMBER
p371
saa(lp372
Vpeople
p373
a(dp374
VNamedEntityTag
p375
g75
sVCharacterOffsetEnd
p376
V115
p377
sVCharacterOffsetBegin
p378
V109
p379
sVPartOfSpeech
p380
VNNS
p381
sVLemma
p382
Vpeople
p383
saa(lp384
g210
a(dp385
VNamedEntityTag
p386
g75
sVCharacterOffsetEnd
p387
V117
p388
sVCharacterOffsetBegin
p389
V116
p390
sVPartOfSpeech
p391
g210
sVLemma
p392
g210
saasVindexeddependencies
p393
(lp394
(lp395
Vroot
p396
aVROOT-0
p397
aVpeople-7
p398
aa(lp399
Vadvmod
p400
aVpeople-7
p401
aVCurrently-1
p402
aa(lp403
Vdet
p404
aVpopulation-4
p405
aVthe-3
p406
aa(lp407
Vnsubj
p408
aVpeople-7
p409
aVpopulation-4
p410
aa(lp411
Vcop
p412
aVpeople-7
p413
aVis-5
p414
aa(lp415
Vnum
p416
aVpeople-7
p417
aV13,149-6
p418
aasa(dp419
Vparsetree
p420
V(ROOT (SBARQ (WHNP (WP What)) (SQ (VBZ is) (NP (NP (DT the) (NNS times)) (PP (IN of) (NP (NP (NN increase)) (PP (IN in) (NP (NP (NNP Sparrowtown) (POS 's)) (NN population))))))) (. ?)))
p421
sVtext
p422
VWhat is the times of increase in Sparrowtown's population ?
p423
sVdependencies
p424
(lp425
(lp426
Vroot
p427
aVROOT
p428
aVWhat
p429
aa(lp430
Vcop
p431
aVWhat
p432
aVis
p433
aa(lp434
Vdet
p435
aVtimes
p436
aVthe
p437
aa(lp438
Vnsubj
p439
aVWhat
p440
aVtimes
p441
aa(lp442
Vprep_of
p443
aVtimes
p444
aVincrease
p445
aa(lp446
Vposs
p447
aVpopulation
p448
aVSparrowtown
p449
aa(lp450
Vprep_in
p451
aVincrease
p452
aVpopulation
p453
aasVwords
p454
(lp455
(lp456
VWhat
p457
a(dp458
VNamedEntityTag
p459
g75
sVCharacterOffsetEnd
p460
V122
p461
sVCharacterOffsetBegin
p462
V118
p463
sVPartOfSpeech
p464
VWP
p465
sVLemma
p466
Vwhat
p467
saa(lp468
Vis
p469
a(dp470
VNamedEntityTag
p471
g75
sVCharacterOffsetEnd
p472
V125
p473
sVCharacterOffsetBegin
p474
V123
p475
sVPartOfSpeech
p476
VVBZ
p477
sVLemma
p478
Vbe
p479
saa(lp480
Vthe
p481
a(dp482
VNamedEntityTag
p483
g75
sVCharacterOffsetEnd
p484
V129
p485
sVCharacterOffsetBegin
p486
V126
p487
sVPartOfSpeech
p488
VDT
p489
sVLemma
p490
Vthe
p491
saa(lp492
Vtimes
p493
a(dp494
VNamedEntityTag
p495
g75
sVCharacterOffsetEnd
p496
V135
p497
sVCharacterOffsetBegin
p498
V130
p499
sVPartOfSpeech
p500
VNNS
p501
sVLemma
p502
Vtime
p503
saa(lp504
Vof
p505
a(dp506
VNamedEntityTag
p507
g75
sVCharacterOffsetEnd
p508
V138
p509
sVCharacterOffsetBegin
p510
V136
p511
sVPartOfSpeech
p512
VIN
p513
sVLemma
p514
Vof
p515
saa(lp516
Vincrease
p517
a(dp518
VNamedEntityTag
p519
g75
sVCharacterOffsetEnd
p520
V147
p521
sVCharacterOffsetBegin
p522
V139
p523
sVPartOfSpeech
p524
VNN
p525
sVLemma
p526
Vincrease
p527
saa(lp528
Vin
p529
a(dp530
VNamedEntityTag
p531
g75
sVCharacterOffsetEnd
p532
V150
p533
sVCharacterOffsetBegin
p534
V148
p535
sVPartOfSpeech
p536
VIN
p537
sVLemma
p538
Vin
p539
saa(lp540
VSparrowtown
p541
a(dp542
VNamedEntityTag
p543
VLOCATION
p544
sVCharacterOffsetEnd
p545
V162
p546
sVCharacterOffsetBegin
p547
V151
p548
sVPartOfSpeech
p549
VNNP
p550
sVLemma
p551
VSparrowtown
p552
saa(lp553
V's
p554
a(dp555
VNamedEntityTag
p556
g75
sVCharacterOffsetEnd
p557
V164
p558
sVCharacterOffsetBegin
p559
V162
p560
sVPartOfSpeech
p561
VPOS
p562
sVLemma
p563
V's
p564
saa(lp565
Vpopulation
p566
a(dp567
VNamedEntityTag
p568
g75
sVCharacterOffsetEnd
p569
V175
p570
sVCharacterOffsetBegin
p571
V165
p572
sVPartOfSpeech
p573
VNN
p574
sVLemma
p575
Vpopulation
p576
saa(lp577
V?
p578
a(dp579
VNamedEntityTag
p580
g75
sVCharacterOffsetEnd
p581
V177
p582
sVCharacterOffsetBegin
p583
V176
p584
sVPartOfSpeech
p585
g210
sVLemma
p586
g578
saasVindexeddependencies
p587
(lp588
(lp589
Vroot
p590
aVROOT-0
p591
aVWhat-1
p592
aa(lp593
Vcop
p594
aVWhat-1
p595
aVis-2
p596
aa(lp597
Vdet
p598
aVtimes-4
p599
aVthe-3
p600
aa(lp601
Vnsubj
p602
aVWhat-1
p603
aVtimes-4
p604
aa(lp605
Vprep_of
p606
aVtimes-4
p607
aVincrease-6
p608
aa(lp609
Vposs
p610
aVpopulation-10
p611
aVSparrowtown-8
p612
aa(lp613
Vprep_in
p614
aVincrease-6
p615
aVpopulation-10
p616
aasas.