(dp0
Vcoref
p1
(lp2
(lp3
(lp4
(lp5
VOak Grove
p6
aI2
aI8
aI7
aI9
aa(lp7
VOak Grove 's
p8
aI0
aI6
aI5
aI8
aaaa(lp9
(lp10
(lp11
Vits
p12
aI1
aI8
aI8
aI9
aa(lp13
V5,106
p14
aI1
aI5
aI5
aI6
aaaasVsentences
p15
(lp16
(dp17
Vparsetree
p18
V(ROOT (S (NP (EX There)) (VP (VBP are) (NP (NP (CD 1,986) (NNS books)) (PP (IN in) (NP (NP (NNP Oak) (NNP Grove) (POS 's)) (JJ public) (NN library))))) (. .)))
p19
sVtext
p20
VThere are 1,986 books in Oak Grove's public library .
p21
sVdependencies
p22
(lp23
(lp24
Vroot
p25
aVROOT
p26
aVare
p27
aa(lp28
Vexpl
p29
aVare
p30
aVThere
p31
aa(lp32
Vnum
p33
aVbooks
p34
aV1,986
p35
aa(lp36
Vnsubj
p37
aVare
p38
aVbooks
p39
aa(lp40
Vnn
p41
aVGrove
p42
aVOak
p43
aa(lp44
Vposs
p45
aVlibrary
p46
aVGrove
p47
aa(lp48
Vamod
p49
aVlibrary
p50
aVpublic
p51
aa(lp52
Vprep_in
p53
aVbooks
p54
aVlibrary
p55
aasVwords
p56
(lp57
(lp58
VThere
p59
a(dp60
VNamedEntityTag
p61
VO
p62
sVCharacterOffsetEnd
p63
V6
p64
sVCharacterOffsetBegin
p65
V1
p66
sVPartOfSpeech
p67
VEX
p68
sVLemma
p69
Vthere
p70
saa(lp71
Vare
p72
a(dp73
VNamedEntityTag
p74
g62
sVCharacterOffsetEnd
p75
V10
p76
sVCharacterOffsetBegin
p77
V7
p78
sVPartOfSpeech
p79
VVBP
p80
sVLemma
p81
Vbe
p82
saa(lp83
V1,986
p84
a(dp85
VNormalizedNamedEntityTag
p86
V1986.0
p87
sVLemma
p88
V1,986
p89
sVCharacterOffsetEnd
p90
V16
p91
sVPartOfSpeech
p92
VCD
p93
sVCharacterOffsetBegin
p94
V11
p95
sVNamedEntityTag
p96
VNUMBER
p97
saa(lp98
Vbooks
p99
a(dp100
VNamedEntityTag
p101
g62
sVCharacterOffsetEnd
p102
V22
p103
sVCharacterOffsetBegin
p104
V17
p105
sVPartOfSpeech
p106
VNNS
p107
sVLemma
p108
Vbook
p109
saa(lp110
Vin
p111
a(dp112
VNamedEntityTag
p113
g62
sVCharacterOffsetEnd
p114
V25
p115
sVCharacterOffsetBegin
p116
V23
p117
sVPartOfSpeech
p118
VIN
p119
sVLemma
p120
Vin
p121
saa(lp122
VOak
p123
a(dp124
VNamedEntityTag
p125
VLOCATION
p126
sVCharacterOffsetEnd
p127
V29
p128
sVCharacterOffsetBegin
p129
V26
p130
sVPartOfSpeech
p131
VNNP
p132
sVLemma
p133
VOak
p134
saa(lp135
VGrove
p136
a(dp137
VNamedEntityTag
p138
VLOCATION
p139
sVCharacterOffsetEnd
p140
V35
p141
sVCharacterOffsetBegin
p142
V30
p143
sVPartOfSpeech
p144
VNNP
p145
sVLemma
p146
VGrove
p147
saa(lp148
V's
p149
a(dp150
VNamedEntityTag
p151
g62
sVCharacterOffsetEnd
p152
V37
p153
sVCharacterOffsetBegin
p154
V35
p155
sVPartOfSpeech
p156
VPOS
p157
sVLemma
p158
V's
p159
saa(lp160
Vpublic
p161
a(dp162
VNamedEntityTag
p163
g62
sVCharacterOffsetEnd
p164
V44
p165
sVCharacterOffsetBegin
p166
V38
p167
sVPartOfSpeech
p168
VJJ
p169
sVLemma
p170
Vpublic
p171
saa(lp172
Vlibrary
p173
a(dp174
VNamedEntityTag
p175
g62
sVCharacterOffsetEnd
p176
V52
p177
sVCharacterOffsetBegin
p178
V45
p179
sVPartOfSpeech
p180
VNN
p181
sVLemma
p182
Vlibrary
p183
saa(lp184
V.
p185
a(dp186
VNamedEntityTag
p187
g62
sVCharacterOffsetEnd
p188
V54
p189
sVCharacterOffsetBegin
p190
V53
p191
sVPartOfSpeech
p192
g185
sVLemma
p193
g185
saasVindexeddependencies
p194
(lp195
(lp196
Vroot
p197
aVROOT-0
p198
aVare-2
p199
aa(lp200
Vexpl
p201
aVare-2
p202
aVThere-1
p203
aa(lp204
Vnum
p205
aVbooks-4
p206
aV1,986-3
p207
aa(lp208
Vnsubj
p209
aVare-2
p210
aVbooks-4
p211
aa(lp212
Vnn
p213
aVGrove-7
p214
aVOak-6
p215
aa(lp216
Vposs
p217
aVlibrary-10
p218
aVGrove-7
p219
aa(lp220
Vamod
p221
aVlibrary-10
p222
aVpublic-9
p223
aa(lp224
Vprep_in
p225
aVbooks-4
p226
aVlibrary-10
p227
aasa(dp228
Vparsetree
p229
V(ROOT (S (PP (IN In) (NP (NN addition))) (, ,) (NP (EX there)) (VP (VBP are) (NP (NP (CD 5,106) (NNS books)) (PP (IN in) (NP (PRP$ its) (NN school) (NNS libraries))))) (. .)))
p230
sVtext
p231
VIn addition , there are 5,106 books in its school libraries .
p232
sVdependencies
p233
(lp234
(lp235
Vroot
p236
aVROOT
p237
aVare
p238
aa(lp239
Vprep_in
p240
aVare
p241
aVaddition
p242
aa(lp243
Vexpl
p244
aVare
p245
aVthere
p246
aa(lp247
Vnum
p248
aVbooks
p249
aV5,106
p250
aa(lp251
Vnsubj
p252
aVare
p253
aVbooks
p254
aa(lp255
Vposs
p256
aVlibraries
p257
aVits
p258
aa(lp259
Vnn
p260
aVlibraries
p261
aVschool
p262
aa(lp263
Vprep_in
p264
aVbooks
p265
aVlibraries
p266
aasVwords
p267
(lp268
(lp269
VIn
p270
a(dp271
VNamedEntityTag
p272
g62
sVCharacterOffsetEnd
p273
V57
p274
sVCharacterOffsetBegin
p275
V55
p276
sVPartOfSpeech
p277
VIN
p278
sVLemma
p279
Vin
p280
saa(lp281
Vaddition
p282
a(dp283
VNamedEntityTag
p284
g62
sVCharacterOffsetEnd
p285
V66
p286
sVCharacterOffsetBegin
p287
V58
p288
sVPartOfSpeech
p289
VNN
p290
sVLemma
p291
Vaddition
p292
saa(lp293
V,
p294
a(dp295
VNamedEntityTag
p296
g62
sVCharacterOffsetEnd
p297
V68
p298
sVCharacterOffsetBegin
p299
V67
p300
sVPartOfSpeech
p301
g294
sVLemma
p302
g294
saa(lp303
Vthere
p304
a(dp305
VNamedEntityTag
p306
g62
sVCharacterOffsetEnd
p307
V74
p308
sVCharacterOffsetBegin
p309
V69
p310
sVPartOfSpeech
p311
VEX
p312
sVLemma
p313
Vthere
p314
saa(lp315
Vare
p316
a(dp317
VNamedEntityTag
p318
g62
sVCharacterOffsetEnd
p319
V78
p320
sVCharacterOffsetBegin
p321
V75
p322
sVPartOfSpeech
p323
VVBP
p324
sVLemma
p325
Vbe
p326
saa(lp327
V5,106
p328
a(dp329
VNormalizedNamedEntityTag
p330
V5106.0
p331
sVLemma
p332
V5,106
p333
sVCharacterOffsetEnd
p334
V84
p335
sVPartOfSpeech
p336
VCD
p337
sVCharacterOffsetBegin
p338
V79
p339
sVNamedEntityTag
p340
VNUMBER
p341
saa(lp342
Vbooks
p343
a(dp344
VNamedEntityTag
p345
g62
sVCharacterOffsetEnd
p346
V90
p347
sVCharacterOffsetBegin
p348
V85
p349
sVPartOfSpeech
p350
VNNS
p351
sVLemma
p352
Vbook
p353
saa(lp354
Vin
p355
a(dp356
VNamedEntityTag
p357
g62
sVCharacterOffsetEnd
p358
V93
p359
sVCharacterOffsetBegin
p360
V91
p361
sVPartOfSpeech
p362
VIN
p363
sVLemma
p364
Vin
p365
saa(lp366
Vits
p367
a(dp368
VNamedEntityTag
p369
g62
sVCharacterOffsetEnd
p370
V97
p371
sVCharacterOffsetBegin
p372
V94
p373
sVPartOfSpeech
p374
VPRP$
p375
sVLemma
p376
Vits
p377
saa(lp378
Vschool
p379
a(dp380
VNamedEntityTag
p381
g62
sVCharacterOffsetEnd
p382
V104
p383
sVCharacterOffsetBegin
p384
V98
p385
sVPartOfSpeech
p386
VNN
p387
sVLemma
p388
Vschool
p389
saa(lp390
Vlibraries
p391
a(dp392
VNamedEntityTag
p393
g62
sVCharacterOffsetEnd
p394
V114
p395
sVCharacterOffsetBegin
p396
V105
p397
sVPartOfSpeech
p398
VNNS
p399
sVLemma
p400
Vlibrary
p401
saa(lp402
g185
a(dp403
VNamedEntityTag
p404
g62
sVCharacterOffsetEnd
p405
V116
p406
sVCharacterOffsetBegin
p407
V115
p408
sVPartOfSpeech
p409
g185
sVLemma
p410
g185
saasVindexeddependencies
p411
(lp412
(lp413
Vroot
p414
aVROOT-0
p415
aVare-5
p416
aa(lp417
Vprep_in
p418
aVare-5
p419
aVaddition-2
p420
aa(lp421
Vexpl
p422
aVare-5
p423
aVthere-4
p424
aa(lp425
Vnum
p426
aVbooks-7
p427
aV5,106-6
p428
aa(lp429
Vnsubj
p430
aVare-5
p431
aVbooks-7
p432
aa(lp433
Vposs
p434
aVlibraries-11
p435
aVits-9
p436
aa(lp437
Vnn
p438
aVlibraries-11
p439
aVschool-10
p440
aa(lp441
Vprep_in
p442
aVbooks-7
p443
aVlibraries-11
p444
aasa(dp445
Vparsetree
p446
V(ROOT (SBARQ (WHNP (WHADJP (WRB How) (JJ many)) (NNS books)) (SQ (VP (VBP do) (SBAR (S (NP (NP (DT the) (NNS libraries)) (PP (IN in) (NP (NNP Oak) (NNP Grove)))) (VP (VBP have) (NP (JJ overall))))))) (. ?)))
p447
sVtext
p448
VHow many books do the libraries in Oak Grove have overall ?
p449
sVdependencies
p450
(lp451
(lp452
Vroot
p453
aVROOT
p454
aVdo
p455
aa(lp456
Vadvmod
p457
aVmany
p458
aVHow
p459
aa(lp460
Vamod
p461
aVbooks
p462
aVmany
p463
aa(lp464
Vnsubj
p465
aVdo
p466
aVbooks
p467
aa(lp468
Vdet
p469
aVlibraries
p470
aVthe
p471
aa(lp472
Vnsubj
p473
aVhave
p474
aVlibraries
p475
aa(lp476
Vnn
p477
aVGrove
p478
aVOak
p479
aa(lp480
Vprep_in
p481
aVlibraries
p482
aVGrove
p483
aa(lp484
Vccomp
p485
aVdo
p486
aVhave
p487
aa(lp488
Vdobj
p489
aVhave
p490
aVoverall
p491
aasVwords
p492
(lp493
(lp494
VHow
p495
a(dp496
VNamedEntityTag
p497
g62
sVCharacterOffsetEnd
p498
V120
p499
sVCharacterOffsetBegin
p500
V117
p501
sVPartOfSpeech
p502
VWRB
p503
sVLemma
p504
Vhow
p505
saa(lp506
Vmany
p507
a(dp508
VNamedEntityTag
p509
g62
sVCharacterOffsetEnd
p510
V125
p511
sVCharacterOffsetBegin
p512
V121
p513
sVPartOfSpeech
p514
VJJ
p515
sVLemma
p516
Vmany
p517
saa(lp518
Vbooks
p519
a(dp520
VNamedEntityTag
p521
g62
sVCharacterOffsetEnd
p522
V131
p523
sVCharacterOffsetBegin
p524
V126
p525
sVPartOfSpeech
p526
VNNS
p527
sVLemma
p528
Vbook
p529
saa(lp530
Vdo
p531
a(dp532
VNamedEntityTag
p533
g62
sVCharacterOffsetEnd
p534
V134
p535
sVCharacterOffsetBegin
p536
V132
p537
sVPartOfSpeech
p538
VVBP
p539
sVLemma
p540
Vdo
p541
saa(lp542
Vthe
p543
a(dp544
VNamedEntityTag
p545
g62
sVCharacterOffsetEnd
p546
V138
p547
sVCharacterOffsetBegin
p548
V135
p549
sVPartOfSpeech
p550
VDT
p551
sVLemma
p552
Vthe
p553
saa(lp554
Vlibraries
p555
a(dp556
VNamedEntityTag
p557
g62
sVCharacterOffsetEnd
p558
V148
p559
sVCharacterOffsetBegin
p560
V139
p561
sVPartOfSpeech
p562
VNNS
p563
sVLemma
p564
Vlibrary
p565
saa(lp566
Vin
p567
a(dp568
VNamedEntityTag
p569
g62
sVCharacterOffsetEnd
p570
V151
p571
sVCharacterOffsetBegin
p572
V149
p573
sVPartOfSpeech
p574
VIN
p575
sVLemma
p576
Vin
p577
saa(lp578
VOak
p579
a(dp580
VNamedEntityTag
p581
VLOCATION
p582
sVCharacterOffsetEnd
p583
V155
p584
sVCharacterOffsetBegin
p585
V152
p586
sVPartOfSpeech
p587
VNNP
p588
sVLemma
p589
VOak
p590
saa(lp591
VGrove
p592
a(dp593
VNamedEntityTag
p594
VLOCATION
p595
sVCharacterOffsetEnd
p596
V161
p597
sVCharacterOffsetBegin
p598
V156
p599
sVPartOfSpeech
p600
VNNP
p601
sVLemma
p602
VGrove
p603
saa(lp604
Vhave
p605
a(dp606
VNamedEntityTag
p607
g62
sVCharacterOffsetEnd
p608
V166
p609
sVCharacterOffsetBegin
p610
V162
p611
sVPartOfSpeech
p612
VVBP
p613
sVLemma
p614
Vhave
p615
saa(lp616
Voverall
p617
a(dp618
VNamedEntityTag
p619
g62
sVCharacterOffsetEnd
p620
V174
p621
sVCharacterOffsetBegin
p622
V167
p623
sVPartOfSpeech
p624
VJJ
p625
sVLemma
p626
Voverall
p627
saa(lp628
V?
p629
a(dp630
VNamedEntityTag
p631
g62
sVCharacterOffsetEnd
p632
V176
p633
sVCharacterOffsetBegin
p634
V175
p635
sVPartOfSpeech
p636
g185
sVLemma
p637
g629
saasVindexeddependencies
p638
(lp639
(lp640
Vroot
p641
aVROOT-0
p642
aVdo-4
p643
aa(lp644
Vadvmod
p645
aVmany-2
p646
aVHow-1
p647
aa(lp648
Vamod
p649
aVbooks-3
p650
aVmany-2
p651
aa(lp652
Vnsubj
p653
aVdo-4
p654
aVbooks-3
p655
aa(lp656
Vdet
p657
aVlibraries-6
p658
aVthe-5
p659
aa(lp660
Vnsubj
p661
aVhave-10
p662
aVlibraries-6
p663
aa(lp664
Vnn
p665
aVGrove-9
p666
aVOak-8
p667
aa(lp668
Vprep_in
p669
aVlibraries-6
p670
aVGrove-9
p671
aa(lp672
Vccomp
p673
aVdo-4
p674
aVhave-10
p675
aa(lp676
Vdobj
p677
aVhave-10
p678
aVoverall-11
p679
aasas.