(dp0
Vcoref
p1
(lp2
(lp3
(lp4
(lp5
Vthe company
p6
aI1
aI4
aI3
aI5
aa(lp7
VThe Trans-Global Shipping Company
p8
aI0
aI3
aI0
aI4
aaaa(lp9
(lp10
(lp11
Vthis year
p12
aI2
aI3
aI2
aI4
aa(lp13
VLast year
p14
aI1
aI1
aI0
aI2
aaa(lp15
(lp16
Vlast year
p17
aI2
aI17
aI16
aI18
aa(lp18
VLast year
p19
aI1
aI1
aI0
aI2
aaa(lp20
(lp21
Vthis year
p22
aI3
aI7
aI6
aI8
aa(lp23
VLast year
p24
aI1
aI1
aI0
aI2
aaaa(lp25
(lp26
(lp27
Vthey
p28
aI2
aI5
aI5
aI6
aa(lp29
V100 people
p30
aI1
aI10
aI9
aI11
aaaasVsentences
p31
(lp32
(dp33
Vparsetree
p34
V(ROOT (S (NP (DT The) (NNP Trans-Global) (NNP Shipping) (NNP Company)) (VP (VBZ has) (VP (VBN been) (VP (VBN forced) (S (VP (TO to) (VP (VB lay) (PRT (RP off)) (NP (DT some) (NNS workers)) (PP (JJ due) (TO to) (NP (NP (DT a) (NN decrease)) (PP (IN in) (NP (NN revenue))))))))))) (. .)))
p35
sVtext
p36
VThe Trans-Global Shipping Company has been forced to lay off some workers due to a decrease in revenue .
p37
sVdependencies
p38
(lp39
(lp40
Vroot
p41
aVROOT
p42
aVforced
p43
aa(lp44
Vdet
p45
aVCompany
p46
aVThe
p47
aa(lp48
Vnn
p49
aVCompany
p50
aVTrans-Global
p51
aa(lp52
Vnn
p53
aVCompany
p54
aVShipping
p55
aa(lp56
Vnsubjpass
p57
aVforced
p58
aVCompany
p59
aa(lp60
Vaux
p61
aVforced
p62
aVhas
p63
aa(lp64
Vauxpass
p65
aVforced
p66
aVbeen
p67
aa(lp68
Vaux
p69
aVlay
p70
aVto
p71
aa(lp72
Vxcomp
p73
aVforced
p74
aVlay
p75
aa(lp76
Vprt
p77
aVlay
p78
aVoff
p79
aa(lp80
Vdet
p81
aVworkers
p82
aVsome
p83
aa(lp84
Vdobj
p85
aVlay
p86
aVworkers
p87
aa(lp88
Vdet
p89
aVdecrease
p90
aVa
p91
aa(lp92
Vprep_due_to
p93
aVlay
p94
aVdecrease
p95
aa(lp96
Vprep_in
p97
aVdecrease
p98
aVrevenue
p99
aasVwords
p100
(lp101
(lp102
VThe
p103
a(dp104
VNamedEntityTag
p105
VO
p106
sVCharacterOffsetEnd
p107
V4
p108
sVCharacterOffsetBegin
p109
V1
p110
sVPartOfSpeech
p111
VDT
p112
sVLemma
p113
Vthe
p114
saa(lp115
VTrans-Global
p116
a(dp117
VNamedEntityTag
p118
VORGANIZATION
p119
sVCharacterOffsetEnd
p120
V17
p121
sVCharacterOffsetBegin
p122
V5
p123
sVPartOfSpeech
p124
VNNP
p125
sVLemma
p126
VTrans-Global
p127
saa(lp128
VShipping
p129
a(dp130
VNamedEntityTag
p131
VORGANIZATION
p132
sVCharacterOffsetEnd
p133
V26
p134
sVCharacterOffsetBegin
p135
V18
p136
sVPartOfSpeech
p137
VNNP
p138
sVLemma
p139
VShipping
p140
saa(lp141
VCompany
p142
a(dp143
VNamedEntityTag
p144
VORGANIZATION
p145
sVCharacterOffsetEnd
p146
V34
p147
sVCharacterOffsetBegin
p148
V27
p149
sVPartOfSpeech
p150
VNNP
p151
sVLemma
p152
VCompany
p153
saa(lp154
Vhas
p155
a(dp156
VNamedEntityTag
p157
g106
sVCharacterOffsetEnd
p158
V38
p159
sVCharacterOffsetBegin
p160
V35
p161
sVPartOfSpeech
p162
VVBZ
p163
sVLemma
p164
Vhave
p165
saa(lp166
Vbeen
p167
a(dp168
VNamedEntityTag
p169
g106
sVCharacterOffsetEnd
p170
V43
p171
sVCharacterOffsetBegin
p172
V39
p173
sVPartOfSpeech
p174
VVBN
p175
sVLemma
p176
Vbe
p177
saa(lp178
Vforced
p179
a(dp180
VNamedEntityTag
p181
g106
sVCharacterOffsetEnd
p182
V50
p183
sVCharacterOffsetBegin
p184
V44
p185
sVPartOfSpeech
p186
VVBN
p187
sVLemma
p188
Vforce
p189
saa(lp190
Vto
p191
a(dp192
VNamedEntityTag
p193
g106
sVCharacterOffsetEnd
p194
V53
p195
sVCharacterOffsetBegin
p196
V51
p197
sVPartOfSpeech
p198
VTO
p199
sVLemma
p200
Vto
p201
saa(lp202
Vlay
p203
a(dp204
VNamedEntityTag
p205
g106
sVCharacterOffsetEnd
p206
V57
p207
sVCharacterOffsetBegin
p208
V54
p209
sVPartOfSpeech
p210
VVB
p211
sVLemma
p212
Vlay
p213
saa(lp214
Voff
p215
a(dp216
VNamedEntityTag
p217
g106
sVCharacterOffsetEnd
p218
V61
p219
sVCharacterOffsetBegin
p220
V58
p221
sVPartOfSpeech
p222
VRP
p223
sVLemma
p224
Voff
p225
saa(lp226
Vsome
p227
a(dp228
VNamedEntityTag
p229
g106
sVCharacterOffsetEnd
p230
V66
p231
sVCharacterOffsetBegin
p232
V62
p233
sVPartOfSpeech
p234
VDT
p235
sVLemma
p236
Vsome
p237
saa(lp238
Vworkers
p239
a(dp240
VNamedEntityTag
p241
g106
sVCharacterOffsetEnd
p242
V74
p243
sVCharacterOffsetBegin
p244
V67
p245
sVPartOfSpeech
p246
VNNS
p247
sVLemma
p248
Vworker
p249
saa(lp250
Vdue
p251
a(dp252
VNamedEntityTag
p253
g106
sVCharacterOffsetEnd
p254
V78
p255
sVCharacterOffsetBegin
p256
V75
p257
sVPartOfSpeech
p258
VJJ
p259
sVLemma
p260
Vdue
p261
saa(lp262
Vto
p263
a(dp264
VNamedEntityTag
p265
g106
sVCharacterOffsetEnd
p266
V81
p267
sVCharacterOffsetBegin
p268
V79
p269
sVPartOfSpeech
p270
VTO
p271
sVLemma
p272
Vto
p273
saa(lp274
g91
a(dp275
VNamedEntityTag
p276
g106
sVCharacterOffsetEnd
p277
V83
p278
sVCharacterOffsetBegin
p279
V82
p280
sVPartOfSpeech
p281
VDT
p282
sVLemma
p283
g91
saa(lp284
Vdecrease
p285
a(dp286
VNamedEntityTag
p287
g106
sVCharacterOffsetEnd
p288
V92
p289
sVCharacterOffsetBegin
p290
V84
p291
sVPartOfSpeech
p292
VNN
p293
sVLemma
p294
Vdecrease
p295
saa(lp296
Vin
p297
a(dp298
VNamedEntityTag
p299
g106
sVCharacterOffsetEnd
p300
V95
p301
sVCharacterOffsetBegin
p302
V93
p303
sVPartOfSpeech
p304
VIN
p305
sVLemma
p306
Vin
p307
saa(lp308
Vrevenue
p309
a(dp310
VNamedEntityTag
p311
g106
sVCharacterOffsetEnd
p312
V103
p313
sVCharacterOffsetBegin
p314
V96
p315
sVPartOfSpeech
p316
VNN
p317
sVLemma
p318
Vrevenue
p319
saa(lp320
V.
p321
a(dp322
VNamedEntityTag
p323
g106
sVCharacterOffsetEnd
p324
V105
p325
sVCharacterOffsetBegin
p326
V104
p327
sVPartOfSpeech
p328
g321
sVLemma
p329
g321
saasVindexeddependencies
p330
(lp331
(lp332
Vroot
p333
aVROOT-0
p334
aVforced-7
p335
aa(lp336
Vdet
p337
aVCompany-4
p338
aVThe-1
p339
aa(lp340
Vnn
p341
aVCompany-4
p342
aVTrans-Global-2
p343
aa(lp344
Vnn
p345
aVCompany-4
p346
aVShipping-3
p347
aa(lp348
Vnsubjpass
p349
aVforced-7
p350
aVCompany-4
p351
aa(lp352
Vaux
p353
aVforced-7
p354
aVhas-5
p355
aa(lp356
Vauxpass
p357
aVforced-7
p358
aVbeen-6
p359
aa(lp360
Vaux
p361
aVlay-9
p362
aVto-8
p363
aa(lp364
Vxcomp
p365
aVforced-7
p366
aVlay-9
p367
aa(lp368
Vprt
p369
aVlay-9
p370
aVoff-10
p371
aa(lp372
Vdet
p373
aVworkers-12
p374
aVsome-11
p375
aa(lp376
Vdobj
p377
aVlay-9
p378
aVworkers-12
p379
aa(lp380
Vdet
p381
aVdecrease-16
p382
aVa-15
p383
aa(lp384
Vprep_due_to
p385
aVlay-9
p386
aVdecrease-16
p387
aa(lp388
Vprep_in
p389
aVdecrease-16
p390
aVrevenue-18
p391
aasa(dp392
Vparsetree
p393
V(ROOT (S (NP-TMP (JJ Last) (NN year)) (, ,) (NP (DT the) (NN company)) (VP (VBD had) (S (VP (TO to) (VP (VB lay) (PRT (RP off)) (NP (CD 100) (NNS people)))))) (. .)))
p394
sVtext
p395
VLast year , the company had to lay off 100 people .
p396
sVdependencies
p397
(lp398
(lp399
Vroot
p400
aVROOT
p401
aVhad
p402
aa(lp403
Vamod
p404
aVyear
p405
aVLast
p406
aa(lp407
Vtmod
p408
aVhad
p409
aVyear
p410
aa(lp411
Vdet
p412
aVcompany
p413
aVthe
p414
aa(lp415
Vnsubj
p416
aVhad
p417
aVcompany
p418
aa(lp419
Vaux
p420
aVlay
p421
aVto
p422
aa(lp423
Vxcomp
p424
aVhad
p425
aVlay
p426
aa(lp427
Vprt
p428
aVlay
p429
aVoff
p430
aa(lp431
Vnum
p432
aVpeople
p433
aV100
p434
aa(lp435
Vdobj
p436
aVlay
p437
aVpeople
p438
aasVwords
p439
(lp440
(lp441
VLast
p442
a(dp443
VNormalizedNamedEntityTag
p444
VTHIS
p445
sVTimex
p446
V<TIMEX3 alt_value="THIS P1Y OFFSET P-1Y" anchorTimeID="t2" temporalFunction="true" tid="t1" type="DATE" valueFromFunction="tf0">Last year</TIMEX3>
p447
sVLemma
p448
Vlast
p449
sVCharacterOffsetEnd
p450
V110
p451
sVPartOfSpeech
p452
VJJ
p453
sVCharacterOffsetBegin
p454
V106
p455
sVNamedEntityTag
p456
VDATE
p457
saa(lp458
Vyear
p459
a(dp460
VNormalizedNamedEntityTag
p461
VTHIS
p462
sVTimex
p463
V<TIMEX3 alt_value="THIS P1Y OFFSET P-1Y" anchorTimeID="t2" temporalFunction="true" tid="t1" type="DATE" valueFromFunction="tf0">Last year</TIMEX3>
p464
sVLemma
p465
Vyear
p466
sVCharacterOffsetEnd
p467
V115
p468
sVPartOfSpeech
p469
VNN
p470
sVCharacterOffsetBegin
p471
V111
p472
sVNamedEntityTag
p473
VDATE
p474
saa(lp475
V,
p476
a(dp477
VNamedEntityTag
p478
g106
sVCharacterOffsetEnd
p479
V117
p480
sVCharacterOffsetBegin
p481
V116
p482
sVPartOfSpeech
p483
g476
sVLemma
p484
g476
saa(lp485
Vthe
p486
a(dp487
VNamedEntityTag
p488
g106
sVCharacterOffsetEnd
p489
V121
p490
sVCharacterOffsetBegin
p491
V118
p492
sVPartOfSpeech
p493
VDT
p494
sVLemma
p495
Vthe
p496
saa(lp497
Vcompany
p498
a(dp499
VNamedEntityTag
p500
g106
sVCharacterOffsetEnd
p501
V129
p502
sVCharacterOffsetBegin
p503
V122
p504
sVPartOfSpeech
p505
VNN
p506
sVLemma
p507
Vcompany
p508
saa(lp509
Vhad
p510
a(dp511
VNamedEntityTag
p512
g106
sVCharacterOffsetEnd
p513
V133
p514
sVCharacterOffsetBegin
p515
V130
p516
sVPartOfSpeech
p517
VVBD
p518
sVLemma
p519
Vhave
p520
saa(lp521
Vto
p522
a(dp523
VNamedEntityTag
p524
g106
sVCharacterOffsetEnd
p525
V136
p526
sVCharacterOffsetBegin
p527
V134
p528
sVPartOfSpeech
p529
VTO
p530
sVLemma
p531
Vto
p532
saa(lp533
Vlay
p534
a(dp535
VNamedEntityTag
p536
g106
sVCharacterOffsetEnd
p537
V140
p538
sVCharacterOffsetBegin
p539
V137
p540
sVPartOfSpeech
p541
VVB
p542
sVLemma
p543
Vlay
p544
saa(lp545
Voff
p546
a(dp547
VNamedEntityTag
p548
g106
sVCharacterOffsetEnd
p549
V144
p550
sVCharacterOffsetBegin
p551
V141
p552
sVPartOfSpeech
p553
VRP
p554
sVLemma
p555
Voff
p556
saa(lp557
V100
p558
a(dp559
VNormalizedNamedEntityTag
p560
V100.0
p561
sVLemma
p562
V100
p563
sVCharacterOffsetEnd
p564
V148
p565
sVPartOfSpeech
p566
VCD
p567
sVCharacterOffsetBegin
p568
V145
p569
sVNamedEntityTag
p570
VNUMBER
p571
saa(lp572
Vpeople
p573
a(dp574
VNamedEntityTag
p575
g106
sVCharacterOffsetEnd
p576
V155
p577
sVCharacterOffsetBegin
p578
V149
p579
sVPartOfSpeech
p580
VNNS
p581
sVLemma
p582
Vpeople
p583
saa(lp584
g321
a(dp585
VNamedEntityTag
p586
g106
sVCharacterOffsetEnd
p587
V157
p588
sVCharacterOffsetBegin
p589
V156
p590
sVPartOfSpeech
p591
g321
sVLemma
p592
g321
saasVindexeddependencies
p593
(lp594
(lp595
Vroot
p596
aVROOT-0
p597
aVhad-6
p598
aa(lp599
Vamod
p600
aVyear-2
p601
aVLast-1
p602
aa(lp603
Vtmod
p604
aVhad-6
p605
aVyear-2
p606
aa(lp607
Vdet
p608
aVcompany-5
p609
aVthe-4
p610
aa(lp611
Vnsubj
p612
aVhad-6
p613
aVcompany-5
p614
aa(lp615
Vaux
p616
aVlay-8
p617
aVto-7
p618
aa(lp619
Vxcomp
p620
aVhad-6
p621
aVlay-8
p622
aa(lp623
Vprt
p624
aVlay-8
p625
aVoff-9
p626
aa(lp627
Vnum
p628
aVpeople-11
p629
aV100-10
p630
aa(lp631
Vdobj
p632
aVlay-8
p633
aVpeople-11
p634
aasa(dp635
Vparsetree
p636
V(ROOT (S (ADVP (RB So) (RB far)) (NP-TMP (DT this) (NN year)) (, ,) (NP (PRP they)) (VP (VBP have) (VP (VBN had) (S (VP (TO to) (VP (VB lay) (PRT (RP off)) (NP (NP (QP (CD 0.14) (NNS times) (RBR more)) (NNS employees)) (PP (IN than) (NP (JJ last) (NN year))))))))) (. .)))
p637
sVtext
p638
VSo far this year , they have had to lay off 0.14 times more employees than last year .
p639
sVdependencies
p640
(lp641
(lp642
Vroot
p643
aVROOT
p644
aVhad
p645
aa(lp646
Vadvmod
p647
aVfar
p648
aVSo
p649
aa(lp650
Vadvmod
p651
aVhad
p652
aVfar
p653
aa(lp654
Vdet
p655
aVyear
p656
aVthis
p657
aa(lp658
Vtmod
p659
aVhad
p660
aVyear
p661
aa(lp662
Vnsubj
p663
aVhad
p664
aVthey
p665
aa(lp666
Vaux
p667
aVhad
p668
aVhave
p669
aa(lp670
Vaux
p671
aVlay
p672
aVto
p673
aa(lp674
Vxcomp
p675
aVhad
p676
aVlay
p677
aa(lp678
Vprt
p679
aVlay
p680
aVoff
p681
aa(lp682
Vnumber
p683
aVtimes
p684
aV0.14
p685
aa(lp686
Vnum
p687
aVemployees
p688
aVtimes
p689
aa(lp690
Vquantmod
p691
aVtimes
p692
aVmore
p693
aa(lp694
Vdobj
p695
aVlay
p696
aVemployees
p697
aa(lp698
Vamod
p699
aVyear
p700
aVlast
p701
aa(lp702
Vprep_than
p703
aVemployees
p704
aVyear
p705
aasVwords
p706
(lp707
(lp708
VSo
p709
a(dp710
VNamedEntityTag
p711
g106
sVCharacterOffsetEnd
p712
V160
p713
sVCharacterOffsetBegin
p714
V158
p715
sVPartOfSpeech
p716
VRB
p717
sVLemma
p718
Vso
p719
saa(lp720
Vfar
p721
a(dp722
VNamedEntityTag
p723
g106
sVCharacterOffsetEnd
p724
V164
p725
sVCharacterOffsetBegin
p726
V161
p727
sVPartOfSpeech
p728
VRB
p729
sVLemma
p730
Vfar
p731
saa(lp732
Vthis
p733
a(dp734
VNormalizedNamedEntityTag
p735
VTHIS
p736
sVTimex
p737
V<TIMEX3 alt_value="THIS P1Y" anchorTimeID="t0" temporalFunction="true" tid="t3" type="DATE" valueFromFunction="tf1">this year</TIMEX3>
p738
sVLemma
p739
Vthis
p740
sVCharacterOffsetEnd
p741
V169
p742
sVPartOfSpeech
p743
VDT
p744
sVCharacterOffsetBegin
p745
V165
p746
sVNamedEntityTag
p747
VDATE
p748
saa(lp749
Vyear
p750
a(dp751
VNormalizedNamedEntityTag
p752
VTHIS
p753
sVTimex
p754
V<TIMEX3 alt_value="THIS P1Y" anchorTimeID="t0" temporalFunction="true" tid="t3" type="DATE" valueFromFunction="tf1">this year</TIMEX3>
p755
sVLemma
p756
Vyear
p757
sVCharacterOffsetEnd
p758
V174
p759
sVPartOfSpeech
p760
VNN
p761
sVCharacterOffsetBegin
p762
V170
p763
sVNamedEntityTag
p764
VDATE
p765
saa(lp766
g476
a(dp767
VNamedEntityTag
p768
g106
sVCharacterOffsetEnd
p769
V176
p770
sVCharacterOffsetBegin
p771
V175
p772
sVPartOfSpeech
p773
g476
sVLemma
p774
g476
saa(lp775
Vthey
p776
a(dp777
VNamedEntityTag
p778
g106
sVCharacterOffsetEnd
p779
V181
p780
sVCharacterOffsetBegin
p781
V177
p782
sVPartOfSpeech
p783
VPRP
p784
sVLemma
p785
Vthey
p786
saa(lp787
Vhave
p788
a(dp789
VNamedEntityTag
p790
g106
sVCharacterOffsetEnd
p791
V186
p792
sVCharacterOffsetBegin
p793
V182
p794
sVPartOfSpeech
p795
VVBP
p796
sVLemma
p797
Vhave
p798
saa(lp799
Vhad
p800
a(dp801
VNamedEntityTag
p802
g106
sVCharacterOffsetEnd
p803
V190
p804
sVCharacterOffsetBegin
p805
V187
p806
sVPartOfSpeech
p807
VVBN
p808
sVLemma
p809
Vhave
p810
saa(lp811
Vto
p812
a(dp813
VNamedEntityTag
p814
g106
sVCharacterOffsetEnd
p815
V193
p816
sVCharacterOffsetBegin
p817
V191
p818
sVPartOfSpeech
p819
VTO
p820
sVLemma
p821
Vto
p822
saa(lp823
Vlay
p824
a(dp825
VNamedEntityTag
p826
g106
sVCharacterOffsetEnd
p827
V197
p828
sVCharacterOffsetBegin
p829
V194
p830
sVPartOfSpeech
p831
VVB
p832
sVLemma
p833
Vlay
p834
saa(lp835
Voff
p836
a(dp837
VNamedEntityTag
p838
g106
sVCharacterOffsetEnd
p839
V201
p840
sVCharacterOffsetBegin
p841
V198
p842
sVPartOfSpeech
p843
VRP
p844
sVLemma
p845
Voff
p846
saa(lp847
V0.14
p848
a(dp849
VNormalizedNamedEntityTag
p850
V0.14
p851
sVLemma
p852
V0.14
p853
sVCharacterOffsetEnd
p854
V206
p855
sVPartOfSpeech
p856
VCD
p857
sVCharacterOffsetBegin
p858
V202
p859
sVNamedEntityTag
p860
VNUMBER
p861
saa(lp862
Vtimes
p863
a(dp864
VNamedEntityTag
p865
g106
sVCharacterOffsetEnd
p866
V212
p867
sVCharacterOffsetBegin
p868
V207
p869
sVPartOfSpeech
p870
VNNS
p871
sVLemma
p872
Vtime
p873
saa(lp874
Vmore
p875
a(dp876
VNamedEntityTag
p877
g106
sVCharacterOffsetEnd
p878
V217
p879
sVCharacterOffsetBegin
p880
V213
p881
sVPartOfSpeech
p882
VRBR
p883
sVLemma
p884
Vmore
p885
saa(lp886
Vemployees
p887
a(dp888
VNamedEntityTag
p889
g106
sVCharacterOffsetEnd
p890
V227
p891
sVCharacterOffsetBegin
p892
V218
p893
sVPartOfSpeech
p894
VNNS
p895
sVLemma
p896
Vemployee
p897
saa(lp898
Vthan
p899
a(dp900
VNamedEntityTag
p901
g106
sVCharacterOffsetEnd
p902
V232
p903
sVCharacterOffsetBegin
p904
V228
p905
sVPartOfSpeech
p906
VIN
p907
sVLemma
p908
Vthan
p909
saa(lp910
Vlast
p911
a(dp912
VNormalizedNamedEntityTag
p913
VTHIS
p914
sVTimex
p915
V<TIMEX3 alt_value="THIS P1Y OFFSET P-1Y" anchorTimeID="t2" temporalFunction="true" tid="t4" type="DATE" valueFromFunction="tf2">last year</TIMEX3>
p916
sVLemma
p917
Vlast
p918
sVCharacterOffsetEnd
p919
V237
p920
sVPartOfSpeech
p921
VJJ
p922
sVCharacterOffsetBegin
p923
V233
p924
sVNamedEntityTag
p925
VDATE
p926
saa(lp927
Vyear
p928
a(dp929
VNormalizedNamedEntityTag
p930
VTHIS
p931
sVTimex
p932
V<TIMEX3 alt_value="THIS P1Y OFFSET P-1Y" anchorTimeID="t2" temporalFunction="true" tid="t4" type="DATE" valueFromFunction="tf2">last year</TIMEX3>
p933
sVLemma
p934
Vyear
p935
sVCharacterOffsetEnd
p936
V242
p937
sVPartOfSpeech
p938
VNN
p939
sVCharacterOffsetBegin
p940
V238
p941
sVNamedEntityTag
p942
VDATE
p943
saa(lp944
g321
a(dp945
VNamedEntityTag
p946
g106
sVCharacterOffsetEnd
p947
V244
p948
sVCharacterOffsetBegin
p949
V243
p950
sVPartOfSpeech
p951
g321
sVLemma
p952
g321
saasVindexeddependencies
p953
(lp954
(lp955
Vroot
p956
aVROOT-0
p957
aVhad-8
p958
aa(lp959
Vadvmod
p960
aVfar-2
p961
aVSo-1
p962
aa(lp963
Vadvmod
p964
aVhad-8
p965
aVfar-2
p966
aa(lp967
Vdet
p968
aVyear-4
p969
aVthis-3
p970
aa(lp971
Vtmod
p972
aVhad-8
p973
aVyear-4
p974
aa(lp975
Vnsubj
p976
aVhad-8
p977
aVthey-6
p978
aa(lp979
Vaux
p980
aVhad-8
p981
aVhave-7
p982
aa(lp983
Vaux
p984
aVlay-10
p985
aVto-9
p986
aa(lp987
Vxcomp
p988
aVhad-8
p989
aVlay-10
p990
aa(lp991
Vprt
p992
aVlay-10
p993
aVoff-11
p994
aa(lp995
Vnumber
p996
aVtimes-13
p997
aV0.14-12
p998
aa(lp999
Vnum
p1000
aVemployees-15
p1001
aVtimes-13
p1002
aa(lp1003
Vquantmod
p1004
aVtimes-13
p1005
aVmore-14
p1006
aa(lp1007
Vdobj
p1008
aVlay-10
p1009
aVemployees-15
p1010
aa(lp1011
Vamod
p1012
aVyear-18
p1013
aVlast-17
p1014
aa(lp1015
Vprep_than
p1016
aVemployees-15
p1017
aVyear-18
p1018
aasa(dp1019
Vparsetree
p1020
V(ROOT (SBARQ (WHNP (WRB How) (JJ many)) (SQ (VP (VBP have) (VP (VBN been) (VP (VBN laid) (PRT (RP off)) (NP-TMP (DT this) (NN year)))))) (. ?)))
p1021
sVtext
p1022
VHow many have been laid off this year ?
p1023
sVdependencies
p1024
(lp1025
(lp1026
Vroot
p1027
aVROOT
p1028
aVlaid
p1029
aa(lp1030
Vadvmod
p1031
aVmany
p1032
aVHow
p1033
aa(lp1034
Vnsubjpass
p1035
aVlaid
p1036
aVmany
p1037
aa(lp1038
Vaux
p1039
aVlaid
p1040
aVhave
p1041
aa(lp1042
Vauxpass
p1043
aVlaid
p1044
aVbeen
p1045
aa(lp1046
Vprt
p1047
aVlaid
p1048
aVoff
p1049
aa(lp1050
Vdet
p1051
aVyear
p1052
aVthis
p1053
aa(lp1054
Vtmod
p1055
aVlaid
p1056
aVyear
p1057
aasVwords
p1058
(lp1059
(lp1060
VHow
p1061
a(dp1062
VNamedEntityTag
p1063
g106
sVCharacterOffsetEnd
p1064
V248
p1065
sVCharacterOffsetBegin
p1066
V245
p1067
sVPartOfSpeech
p1068
VWRB
p1069
sVLemma
p1070
Vhow
p1071
saa(lp1072
Vmany
p1073
a(dp1074
VNamedEntityTag
p1075
g106
sVCharacterOffsetEnd
p1076
V253
p1077
sVCharacterOffsetBegin
p1078
V249
p1079
sVPartOfSpeech
p1080
VJJ
p1081
sVLemma
p1082
Vmany
p1083
saa(lp1084
Vhave
p1085
a(dp1086
VNamedEntityTag
p1087
g106
sVCharacterOffsetEnd
p1088
V258
p1089
sVCharacterOffsetBegin
p1090
V254
p1091
sVPartOfSpeech
p1092
VVBP
p1093
sVLemma
p1094
Vhave
p1095
saa(lp1096
Vbeen
p1097
a(dp1098
VNamedEntityTag
p1099
g106
sVCharacterOffsetEnd
p1100
V263
p1101
sVCharacterOffsetBegin
p1102
V259
p1103
sVPartOfSpeech
p1104
VVBN
p1105
sVLemma
p1106
Vbe
p1107
saa(lp1108
Vlaid
p1109
a(dp1110
VNamedEntityTag
p1111
g106
sVCharacterOffsetEnd
p1112
V268
p1113
sVCharacterOffsetBegin
p1114
V264
p1115
sVPartOfSpeech
p1116
VVBN
p1117
sVLemma
p1118
Vlay
p1119
saa(lp1120
Voff
p1121
a(dp1122
VNamedEntityTag
p1123
g106
sVCharacterOffsetEnd
p1124
V272
p1125
sVCharacterOffsetBegin
p1126
V269
p1127
sVPartOfSpeech
p1128
VRP
p1129
sVLemma
p1130
Voff
p1131
saa(lp1132
Vthis
p1133
a(dp1134
VNormalizedNamedEntityTag
p1135
VTHIS
p1136
sVTimex
p1137
V<TIMEX3 alt_value="THIS P1Y" anchorTimeID="t0" temporalFunction="true" tid="t3" type="DATE" valueFromFunction="tf1">this year</TIMEX3>
p1138
sVLemma
p1139
Vthis
p1140
sVCharacterOffsetEnd
p1141
V277
p1142
sVPartOfSpeech
p1143
VDT
p1144
sVCharacterOffsetBegin
p1145
V273
p1146
sVNamedEntityTag
p1147
VDATE
p1148
saa(lp1149
Vyear
p1150
a(dp1151
VNormalizedNamedEntityTag
p1152
VTHIS
p1153
sVTimex
p1154
V<TIMEX3 alt_value="THIS P1Y" anchorTimeID="t0" temporalFunction="true" tid="t3" type="DATE" valueFromFunction="tf1">this year</TIMEX3>
p1155
sVLemma
p1156
Vyear
p1157
sVCharacterOffsetEnd
p1158
V282
p1159
sVPartOfSpeech
p1160
VNN
p1161
sVCharacterOffsetBegin
p1162
V278
p1163
sVNamedEntityTag
p1164
VDATE
p1165
saa(lp1166
V?
p1167
a(dp1168
VNamedEntityTag
p1169
g106
sVCharacterOffsetEnd
p1170
V284
p1171
sVCharacterOffsetBegin
p1172
V283
p1173
sVPartOfSpeech
p1174
g321
sVLemma
p1175
g1167
saasVindexeddependencies
p1176
(lp1177
(lp1178
Vroot
p1179
aVROOT-0
p1180
aVlaid-5
p1181
aa(lp1182
Vadvmod
p1183
aVmany-2
p1184
aVHow-1
p1185
aa(lp1186
Vnsubjpass
p1187
aVlaid-5
p1188
aVmany-2
p1189
aa(lp1190
Vaux
p1191
aVlaid-5
p1192
aVhave-3
p1193
aa(lp1194
Vauxpass
p1195
aVlaid-5
p1196
aVbeen-4
p1197
aa(lp1198
Vprt
p1199
aVlaid-5
p1200
aVoff-6
p1201
aa(lp1202
Vdet
p1203
aVyear-8
p1204
aVthis-7
p1205
aa(lp1206
Vtmod
p1207
aVlaid-5
p1208
aVyear-8
p1209
aasas.