(dp0
Vcoref
p1
(lp2
(lp3
(lp4
(lp5
Vtaxes
p6
aI2
aI6
aI6
aI7
aa(lp7
Vtaxes
p8
aI1
aI7
aI7
aI8
aaaasVsentences
p9
(lp10
(dp11
Vparsetree
p12
V(ROOT (S (NP (NNP Ben)) (VP (VBZ earns) (NP (NP ($ $) (CD 12800)) (NP (DT a) (NN year)))) (. .)))
p13
sVtext
p14
VBen earns $12800 a year .
p15
sVdependencies
p16
(lp17
(lp18
Vroot
p19
aVROOT
p20
aVearns
p21
aa(lp22
Vnsubj
p23
aVearns
p24
aVBen
p25
aa(lp26
Vdobj
p27
aVearns
p28
aV$
p29
aa(lp30
Vnum
p31
ag29
aV12800
p32
aa(lp33
Vdet
p34
aVyear
p35
aVa
p36
aa(lp37
Vdep
p38
ag29
aVyear
p39
aasVwords
p40
(lp41
(lp42
VBen
p43
a(dp44
VNamedEntityTag
p45
VPERSON
p46
sVCharacterOffsetEnd
p47
V4
p48
sVCharacterOffsetBegin
p49
V1
p50
sVPartOfSpeech
p51
VNNP
p52
sVLemma
p53
VBen
p54
saa(lp55
Vearns
p56
a(dp57
VNamedEntityTag
p58
VO
p59
sVCharacterOffsetEnd
p60
V10
p61
sVCharacterOffsetBegin
p62
V5
p63
sVPartOfSpeech
p64
VVBZ
p65
sVLemma
p66
Vearn
p67
saa(lp68
g29
a(dp69
VNormalizedNamedEntityTag
p70
V$12800.0
p71
sVLemma
p72
g29
sVCharacterOffsetEnd
p73
V12
p74
sVPartOfSpeech
p75
g29
sVCharacterOffsetBegin
p76
V11
p77
sVNamedEntityTag
p78
VMONEY
p79
saa(lp80
V12800
p81
a(dp82
VNormalizedNamedEntityTag
p83
V$12800.0
p84
sVLemma
p85
V12800
p86
sVCharacterOffsetEnd
p87
V17
p88
sVPartOfSpeech
p89
VCD
p90
sVCharacterOffsetBegin
p91
V12
p92
sVNamedEntityTag
p93
VMONEY
p94
saa(lp95
g36
a(dp96
VNormalizedNamedEntityTag
p97
VP1Y
p98
sVTimex
p99
V<TIMEX3 tid="t1" type="DURATION" value="P1Y">a year</TIMEX3>
p100
sVLemma
p101
g36
sVCharacterOffsetEnd
p102
V19
p103
sVPartOfSpeech
p104
VDT
p105
sVCharacterOffsetBegin
p106
V18
p107
sVNamedEntityTag
p108
VDURATION
p109
saa(lp110
Vyear
p111
a(dp112
VNormalizedNamedEntityTag
p113
VP1Y
p114
sVTimex
p115
V<TIMEX3 tid="t1" type="DURATION" value="P1Y">a year</TIMEX3>
p116
sVLemma
p117
Vyear
p118
sVCharacterOffsetEnd
p119
V24
p120
sVPartOfSpeech
p121
VNN
p122
sVCharacterOffsetBegin
p123
V20
p124
sVNamedEntityTag
p125
VDURATION
p126
saa(lp127
V.
p128
a(dp129
VNamedEntityTag
p130
g59
sVCharacterOffsetEnd
p131
V26
p132
sVCharacterOffsetBegin
p133
V25
p134
sVPartOfSpeech
p135
g128
sVLemma
p136
g128
saasVindexeddependencies
p137
(lp138
(lp139
Vroot
p140
aVROOT-0
p141
aVearns-2
p142
aa(lp143
Vnsubj
p144
aVearns-2
p145
aVBen-1
p146
aa(lp147
Vdobj
p148
aVearns-2
p149
aV$-3
p150
aa(lp151
Vnum
p152
aV$-3
p153
aV12800-4
p154
aa(lp155
Vdet
p156
aVyear-6
p157
aVa-5
p158
aa(lp159
Vdep
p160
aV$-3
p161
aVyear-6
p162
aasa(dp163
Vparsetree
p164
V(ROOT (S (PP (IN About) (NP (CD 0.15))) (NP (NNS times)) (VP (VBZ is) (VP (VBN taken) (PRT (RP out)) (PP (IN for) (NP (NNS taxes))))) (. .)))
p165
sVtext
p166
VAbout 0.15 times is taken out for taxes .
p167
sVdependencies
p168
(lp169
(lp170
Vroot
p171
aVROOT
p172
aVtaken
p173
aa(lp174
Vprep_about
p175
aVtaken
p176
aV0.15
p177
aa(lp178
Vnsubjpass
p179
aVtaken
p180
aVtimes
p181
aa(lp182
Vauxpass
p183
aVtaken
p184
aVis
p185
aa(lp186
Vprt
p187
aVtaken
p188
aVout
p189
aa(lp190
Vprep_for
p191
aVtaken
p192
aVtaxes
p193
aasVwords
p194
(lp195
(lp196
VAbout
p197
a(dp198
VNamedEntityTag
p199
g59
sVCharacterOffsetEnd
p200
V32
p201
sVCharacterOffsetBegin
p202
V27
p203
sVPartOfSpeech
p204
VIN
p205
sVLemma
p206
Vabout
p207
saa(lp208
V0.15
p209
a(dp210
VNormalizedNamedEntityTag
p211
V~0.15
p212
sVLemma
p213
V0.15
p214
sVCharacterOffsetEnd
p215
V37
p216
sVPartOfSpeech
p217
VCD
p218
sVCharacterOffsetBegin
p219
V33
p220
sVNamedEntityTag
p221
VNUMBER
p222
saa(lp223
Vtimes
p224
a(dp225
VNamedEntityTag
p226
g59
sVCharacterOffsetEnd
p227
V43
p228
sVCharacterOffsetBegin
p229
V38
p230
sVPartOfSpeech
p231
VNNS
p232
sVLemma
p233
Vtime
p234
saa(lp235
Vis
p236
a(dp237
VNamedEntityTag
p238
g59
sVCharacterOffsetEnd
p239
V46
p240
sVCharacterOffsetBegin
p241
V44
p242
sVPartOfSpeech
p243
VVBZ
p244
sVLemma
p245
Vbe
p246
saa(lp247
Vtaken
p248
a(dp249
VNamedEntityTag
p250
g59
sVCharacterOffsetEnd
p251
V52
p252
sVCharacterOffsetBegin
p253
V47
p254
sVPartOfSpeech
p255
VVBN
p256
sVLemma
p257
Vtake
p258
saa(lp259
Vout
p260
a(dp261
VNamedEntityTag
p262
g59
sVCharacterOffsetEnd
p263
V56
p264
sVCharacterOffsetBegin
p265
V53
p266
sVPartOfSpeech
p267
VRP
p268
sVLemma
p269
Vout
p270
saa(lp271
Vfor
p272
a(dp273
VNamedEntityTag
p274
g59
sVCharacterOffsetEnd
p275
V60
p276
sVCharacterOffsetBegin
p277
V57
p278
sVPartOfSpeech
p279
VIN
p280
sVLemma
p281
Vfor
p282
saa(lp283
Vtaxes
p284
a(dp285
VNamedEntityTag
p286
g59
sVCharacterOffsetEnd
p287
V66
p288
sVCharacterOffsetBegin
p289
V61
p290
sVPartOfSpeech
p291
VNNS
p292
sVLemma
p293
Vtax
p294
saa(lp295
g128
a(dp296
VNamedEntityTag
p297
g59
sVCharacterOffsetEnd
p298
V68
p299
sVCharacterOffsetBegin
p300
V67
p301
sVPartOfSpeech
p302
g128
sVLemma
p303
g128
saasVindexeddependencies
p304
(lp305
(lp306
Vroot
p307
aVROOT-0
p308
aVtaken-5
p309
aa(lp310
Vprep_about
p311
aVtaken-5
p312
aV0.15-2
p313
aa(lp314
Vnsubjpass
p315
aVtaken-5
p316
aVtimes-3
p317
aa(lp318
Vauxpass
p319
aVtaken-5
p320
aVis-4
p321
aa(lp322
Vprt
p323
aVtaken-5
p324
aVout-6
p325
aa(lp326
Vprep_for
p327
aVtaken-5
p328
aVtaxes-8
p329
aasa(dp330
Vparsetree
p331
V(ROOT (SBARQ (WHADJP (WRB How) (JJ much)) (SQ (VBZ is) (VP (VBN taken) (PRT (RP out)) (PP (IN for) (NP (NNS taxes))))) (. ?)))
p332
sVtext
p333
VHow much is taken out for taxes ?
p334
sVdependencies
p335
(lp336
(lp337
Vroot
p338
aVROOT
p339
aVtaken
p340
aa(lp341
Vadvmod
p342
aVmuch
p343
aVHow
p344
aa(lp345
Vdep
p346
aVtaken
p347
aVmuch
p348
aa(lp349
Vauxpass
p350
aVtaken
p351
aVis
p352
aa(lp353
Vprt
p354
aVtaken
p355
aVout
p356
aa(lp357
Vprep_for
p358
aVtaken
p359
aVtaxes
p360
aasVwords
p361
(lp362
(lp363
VHow
p364
a(dp365
VNamedEntityTag
p366
g59
sVCharacterOffsetEnd
p367
V72
p368
sVCharacterOffsetBegin
p369
V69
p370
sVPartOfSpeech
p371
VWRB
p372
sVLemma
p373
Vhow
p374
saa(lp375
Vmuch
p376
a(dp377
VNamedEntityTag
p378
g59
sVCharacterOffsetEnd
p379
V77
p380
sVCharacterOffsetBegin
p381
V73
p382
sVPartOfSpeech
p383
VJJ
p384
sVLemma
p385
Vmuch
p386
saa(lp387
Vis
p388
a(dp389
VNamedEntityTag
p390
g59
sVCharacterOffsetEnd
p391
V80
p392
sVCharacterOffsetBegin
p393
V78
p394
sVPartOfSpeech
p395
VVBZ
p396
sVLemma
p397
Vbe
p398
saa(lp399
Vtaken
p400
a(dp401
VNamedEntityTag
p402
g59
sVCharacterOffsetEnd
p403
V86
p404
sVCharacterOffsetBegin
p405
V81
p406
sVPartOfSpeech
p407
VVBN
p408
sVLemma
p409
Vtake
p410
saa(lp411
Vout
p412
a(dp413
VNamedEntityTag
p414
g59
sVCharacterOffsetEnd
p415
V90
p416
sVCharacterOffsetBegin
p417
V87
p418
sVPartOfSpeech
p419
VRP
p420
sVLemma
p421
Vout
p422
saa(lp423
Vfor
p424
a(dp425
VNamedEntityTag
p426
g59
sVCharacterOffsetEnd
p427
V94
p428
sVCharacterOffsetBegin
p429
V91
p430
sVPartOfSpeech
p431
VIN
p432
sVLemma
p433
Vfor
p434
saa(lp435
Vtaxes
p436
a(dp437
VNamedEntityTag
p438
g59
sVCharacterOffsetEnd
p439
V100
p440
sVCharacterOffsetBegin
p441
V95
p442
sVPartOfSpeech
p443
VNNS
p444
sVLemma
p445
Vtax
p446
saa(lp447
V?
p448
a(dp449
VNamedEntityTag
p450
g59
sVCharacterOffsetEnd
p451
V102
p452
sVCharacterOffsetBegin
p453
V101
p454
sVPartOfSpeech
p455
g128
sVLemma
p456
g448
saasVindexeddependencies
p457
(lp458
(lp459
Vroot
p460
aVROOT-0
p461
aVtaken-4
p462
aa(lp463
Vadvmod
p464
aVmuch-2
p465
aVHow-1
p466
aa(lp467
Vdep
p468
aVtaken-4
p469
aVmuch-2
p470
aa(lp471
Vauxpass
p472
aVtaken-4
p473
aVis-3
p474
aa(lp475
Vprt
p476
aVtaken-4
p477
aVout-5
p478
aa(lp479
Vprep_for
p480
aVtaken-4
p481
aVtaxes-7
p482
aasas.