(dp0
Vcoref
p1
(lp2
(lp3
(lp4
(lp5
VLincoln County
p6
aI2
aI8
aI7
aI9
aa(lp7
VLincoln County
p8
aI0
aI7
aI6
aI8
aaaasVsentences
p9
(lp10
(dp11
Vparsetree
p12
V(ROOT (S (NP (EX There)) (VP (VBD were) (ADVP (RB originally)) (NP (NP (CD 20,817) (NNS houses)) (PP (IN in) (NP (NNP Lincoln) (NNP County))))) (. .)))
p13
sVtext
p14
VThere were originally 20,817 houses in Lincoln County .
p15
sVdependencies
p16
(lp17
(lp18
Vroot
p19
aVROOT
p20
aVwere
p21
aa(lp22
Vexpl
p23
aVwere
p24
aVThere
p25
aa(lp26
Vadvmod
p27
aVwere
p28
aVoriginally
p29
aa(lp30
Vnum
p31
aVhouses
p32
aV20,817
p33
aa(lp34
Vnsubj
p35
aVwere
p36
aVhouses
p37
aa(lp38
Vnn
p39
aVCounty
p40
aVLincoln
p41
aa(lp42
Vprep_in
p43
aVhouses
p44
aVCounty
p45
aasVwords
p46
(lp47
(lp48
VThere
p49
a(dp50
VNamedEntityTag
p51
VO
p52
sVCharacterOffsetEnd
p53
V6
p54
sVCharacterOffsetBegin
p55
V1
p56
sVPartOfSpeech
p57
VEX
p58
sVLemma
p59
Vthere
p60
saa(lp61
Vwere
p62
a(dp63
VNamedEntityTag
p64
g52
sVCharacterOffsetEnd
p65
V11
p66
sVCharacterOffsetBegin
p67
V7
p68
sVPartOfSpeech
p69
VVBD
p70
sVLemma
p71
Vbe
p72
saa(lp73
Voriginally
p74
a(dp75
VNamedEntityTag
p76
g52
sVCharacterOffsetEnd
p77
V22
p78
sVCharacterOffsetBegin
p79
V12
p80
sVPartOfSpeech
p81
VRB
p82
sVLemma
p83
Voriginally
p84
saa(lp85
V20,817
p86
a(dp87
VNormalizedNamedEntityTag
p88
V20817.0
p89
sVLemma
p90
V20,817
p91
sVCharacterOffsetEnd
p92
V29
p93
sVPartOfSpeech
p94
VCD
p95
sVCharacterOffsetBegin
p96
V23
p97
sVNamedEntityTag
p98
VNUMBER
p99
saa(lp100
Vhouses
p101
a(dp102
VNamedEntityTag
p103
g52
sVCharacterOffsetEnd
p104
V36
p105
sVCharacterOffsetBegin
p106
V30
p107
sVPartOfSpeech
p108
VNNS
p109
sVLemma
p110
Vhouse
p111
saa(lp112
Vin
p113
a(dp114
VNamedEntityTag
p115
g52
sVCharacterOffsetEnd
p116
V39
p117
sVCharacterOffsetBegin
p118
V37
p119
sVPartOfSpeech
p120
VIN
p121
sVLemma
p122
Vin
p123
saa(lp124
VLincoln
p125
a(dp126
VNamedEntityTag
p127
VLOCATION
p128
sVCharacterOffsetEnd
p129
V47
p130
sVCharacterOffsetBegin
p131
V40
p132
sVPartOfSpeech
p133
VNNP
p134
sVLemma
p135
VLincoln
p136
saa(lp137
VCounty
p138
a(dp139
VNamedEntityTag
p140
VLOCATION
p141
sVCharacterOffsetEnd
p142
V54
p143
sVCharacterOffsetBegin
p144
V48
p145
sVPartOfSpeech
p146
VNNP
p147
sVLemma
p148
VCounty
p149
saa(lp150
V.
p151
a(dp152
VNamedEntityTag
p153
g52
sVCharacterOffsetEnd
p154
V56
p155
sVCharacterOffsetBegin
p156
V55
p157
sVPartOfSpeech
p158
g151
sVLemma
p159
g151
saasVindexeddependencies
p160
(lp161
(lp162
Vroot
p163
aVROOT-0
p164
aVwere-2
p165
aa(lp166
Vexpl
p167
aVwere-2
p168
aVThere-1
p169
aa(lp170
Vadvmod
p171
aVwere-2
p172
aVoriginally-3
p173
aa(lp174
Vnum
p175
aVhouses-5
p176
aV20,817-4
p177
aa(lp178
Vnsubj
p179
aVwere-2
p180
aVhouses-5
p181
aa(lp182
Vnn
p183
aVCounty-8
p184
aVLincoln-7
p185
aa(lp186
Vprep_in
p187
aVhouses-5
p188
aVCounty-8
p189
aasa(dp190
Vparsetree
p191
V(ROOT (S (PP (IN During) (NP (DT a) (NN housing) (NN boom))) (, ,) (NP (NNS developers)) (VP (VBN built) (ADVP (NP (CD 97,741)) (JJR more))) (. .)))
p192
sVtext
p193
VDuring a housing boom , developers built 97,741 more .
p194
sVdependencies
p195
(lp196
(lp197
Vroot
p198
aVROOT
p199
aVbuilt
p200
aa(lp201
Vdet
p202
aVboom
p203
aVa
p204
aa(lp205
Vnn
p206
aVboom
p207
aVhousing
p208
aa(lp209
Vprep_during
p210
aVbuilt
p211
aVboom
p212
aa(lp213
Vnsubj
p214
aVbuilt
p215
aVdevelopers
p216
aa(lp217
Vnpadvmod
p218
aVmore
p219
aV97,741
p220
aa(lp221
Vadvmod
p222
aVbuilt
p223
aVmore
p224
aasVwords
p225
(lp226
(lp227
VDuring
p228
a(dp229
VNamedEntityTag
p230
g52
sVCharacterOffsetEnd
p231
V63
p232
sVCharacterOffsetBegin
p233
V57
p234
sVPartOfSpeech
p235
VIN
p236
sVLemma
p237
Vduring
p238
saa(lp239
g204
a(dp240
VNamedEntityTag
p241
g52
sVCharacterOffsetEnd
p242
V65
p243
sVCharacterOffsetBegin
p244
V64
p245
sVPartOfSpeech
p246
VDT
p247
sVLemma
p248
g204
saa(lp249
Vhousing
p250
a(dp251
VNamedEntityTag
p252
g52
sVCharacterOffsetEnd
p253
V73
p254
sVCharacterOffsetBegin
p255
V66
p256
sVPartOfSpeech
p257
VNN
p258
sVLemma
p259
Vhousing
p260
saa(lp261
Vboom
p262
a(dp263
VNamedEntityTag
p264
g52
sVCharacterOffsetEnd
p265
V78
p266
sVCharacterOffsetBegin
p267
V74
p268
sVPartOfSpeech
p269
VNN
p270
sVLemma
p271
Vboom
p272
saa(lp273
V,
p274
a(dp275
VNamedEntityTag
p276
g52
sVCharacterOffsetEnd
p277
V80
p278
sVCharacterOffsetBegin
p279
V79
p280
sVPartOfSpeech
p281
g274
sVLemma
p282
g274
saa(lp283
Vdevelopers
p284
a(dp285
VNamedEntityTag
p286
g52
sVCharacterOffsetEnd
p287
V91
p288
sVCharacterOffsetBegin
p289
V81
p290
sVPartOfSpeech
p291
VNNS
p292
sVLemma
p293
Vdeveloper
p294
saa(lp295
Vbuilt
p296
a(dp297
VNamedEntityTag
p298
g52
sVCharacterOffsetEnd
p299
V97
p300
sVCharacterOffsetBegin
p301
V92
p302
sVPartOfSpeech
p303
VVBN
p304
sVLemma
p305
Vbuild
p306
saa(lp307
V97,741
p308
a(dp309
VNormalizedNamedEntityTag
p310
V97741.0
p311
sVLemma
p312
V97,741
p313
sVCharacterOffsetEnd
p314
V104
p315
sVPartOfSpeech
p316
VCD
p317
sVCharacterOffsetBegin
p318
V98
p319
sVNamedEntityTag
p320
VNUMBER
p321
saa(lp322
Vmore
p323
a(dp324
VNamedEntityTag
p325
g52
sVCharacterOffsetEnd
p326
V109
p327
sVCharacterOffsetBegin
p328
V105
p329
sVPartOfSpeech
p330
VJJR
p331
sVLemma
p332
Vmore
p333
saa(lp334
g151
a(dp335
VNamedEntityTag
p336
g52
sVCharacterOffsetEnd
p337
V111
p338
sVCharacterOffsetBegin
p339
V110
p340
sVPartOfSpeech
p341
g151
sVLemma
p342
g151
saasVindexeddependencies
p343
(lp344
(lp345
Vroot
p346
aVROOT-0
p347
aVbuilt-7
p348
aa(lp349
Vdet
p350
aVboom-4
p351
aVa-2
p352
aa(lp353
Vnn
p354
aVboom-4
p355
aVhousing-3
p356
aa(lp357
Vprep_during
p358
aVbuilt-7
p359
aVboom-4
p360
aa(lp361
Vnsubj
p362
aVbuilt-7
p363
aVdevelopers-6
p364
aa(lp365
Vnpadvmod
p366
aVmore-9
p367
aV97,741-8
p368
aa(lp369
Vadvmod
p370
aVbuilt-7
p371
aVmore-9
p372
aasa(dp373
Vparsetree
p374
V(ROOT (SBARQ (WHNP (WHADJP (WRB How) (JJ many)) (NNS houses)) (SQ (VBP are) (NP (EX there)) (PP (ADVP (RB now)) (IN in) (NP (NNP Lincoln) (NNP County)))) (. ?)))
p375
sVtext
p376
VHow many houses are there now in Lincoln County ?
p377
sVdependencies
p378
(lp379
(lp380
Vroot
p381
aVROOT
p382
aVare
p383
aa(lp384
Vadvmod
p385
aVmany
p386
aVHow
p387
aa(lp388
Vamod
p389
aVhouses
p390
aVmany
p391
aa(lp392
Vnsubj
p393
aVare
p394
aVhouses
p395
aa(lp396
Vexpl
p397
aVare
p398
aVthere
p399
aa(lp400
Vadvmod
p401
aVare
p402
aVnow
p403
aa(lp404
Vnn
p405
aVCounty
p406
aVLincoln
p407
aa(lp408
Vprep_in
p409
aVare
p410
aVCounty
p411
aasVwords
p412
(lp413
(lp414
VHow
p415
a(dp416
VNamedEntityTag
p417
g52
sVCharacterOffsetEnd
p418
V115
p419
sVCharacterOffsetBegin
p420
V112
p421
sVPartOfSpeech
p422
VWRB
p423
sVLemma
p424
Vhow
p425
saa(lp426
Vmany
p427
a(dp428
VNamedEntityTag
p429
g52
sVCharacterOffsetEnd
p430
V120
p431
sVCharacterOffsetBegin
p432
V116
p433
sVPartOfSpeech
p434
VJJ
p435
sVLemma
p436
Vmany
p437
saa(lp438
Vhouses
p439
a(dp440
VNamedEntityTag
p441
g52
sVCharacterOffsetEnd
p442
V127
p443
sVCharacterOffsetBegin
p444
V121
p445
sVPartOfSpeech
p446
VNNS
p447
sVLemma
p448
Vhouse
p449
saa(lp450
Vare
p451
a(dp452
VNamedEntityTag
p453
g52
sVCharacterOffsetEnd
p454
V131
p455
sVCharacterOffsetBegin
p456
V128
p457
sVPartOfSpeech
p458
VVBP
p459
sVLemma
p460
Vbe
p461
saa(lp462
Vthere
p463
a(dp464
VNamedEntityTag
p465
g52
sVCharacterOffsetEnd
p466
V137
p467
sVCharacterOffsetBegin
p468
V132
p469
sVPartOfSpeech
p470
VEX
p471
sVLemma
p472
Vthere
p473
saa(lp474
Vnow
p475
a(dp476
VNormalizedNamedEntityTag
p477
VPRESENT_REF
p478
sVTimex
p479
V<TIMEX3 tid="t1" type="DATE" value="PRESENT_REF">now</TIMEX3>
p480
sVLemma
p481
Vnow
p482
sVCharacterOffsetEnd
p483
V141
p484
sVPartOfSpeech
p485
VRB
p486
sVCharacterOffsetBegin
p487
V138
p488
sVNamedEntityTag
p489
VDATE
p490
saa(lp491
Vin
p492
a(dp493
VNamedEntityTag
p494
g52
sVCharacterOffsetEnd
p495
V144
p496
sVCharacterOffsetBegin
p497
V142
p498
sVPartOfSpeech
p499
VIN
p500
sVLemma
p501
Vin
p502
saa(lp503
VLincoln
p504
a(dp505
VNamedEntityTag
p506
VLOCATION
p507
sVCharacterOffsetEnd
p508
V152
p509
sVCharacterOffsetBegin
p510
V145
p511
sVPartOfSpeech
p512
VNNP
p513
sVLemma
p514
VLincoln
p515
saa(lp516
VCounty
p517
a(dp518
VNamedEntityTag
p519
VLOCATION
p520
sVCharacterOffsetEnd
p521
V159
p522
sVCharacterOffsetBegin
p523
V153
p524
sVPartOfSpeech
p525
VNNP
p526
sVLemma
p527
VCounty
p528
saa(lp529
V?
p530
a(dp531
VNamedEntityTag
p532
g52
sVCharacterOffsetEnd
p533
V161
p534
sVCharacterOffsetBegin
p535
V160
p536
sVPartOfSpeech
p537
g151
sVLemma
p538
g530
saasVindexeddependencies
p539
(lp540
(lp541
Vroot
p542
aVROOT-0
p543
aVare-4
p544
aa(lp545
Vadvmod
p546
aVmany-2
p547
aVHow-1
p548
aa(lp549
Vamod
p550
aVhouses-3
p551
aVmany-2
p552
aa(lp553
Vnsubj
p554
aVare-4
p555
aVhouses-3
p556
aa(lp557
Vexpl
p558
aVare-4
p559
aVthere-5
p560
aa(lp561
Vadvmod
p562
aVare-4
p563
aVnow-6
p564
aa(lp565
Vnn
p566
aVCounty-9
p567
aVLincoln-8
p568
aa(lp569
Vprep_in
p570
aVare-4
p571
aVCounty-9
p572
aasas.