(dp0
Vcoref
p1
(lp2
(lp3
(lp4
(lp5
Vhe
p6
aI0
aI11
aI11
aI12
aa(lp7
VEdward
p8
aI0
aI0
aI0
aI1
aaa(lp9
(lp10
Vhe
p11
aI1
aI2
aI2
aI3
aa(lp12
VEdward
p13
aI0
aI0
aI0
aI1
aaa(lp14
(lp15
Vhe
p16
aI1
aI9
aI9
aI10
aa(lp17
VEdward
p18
aI0
aI0
aI0
aI1
aaa(lp19
(lp20
VEdward
p21
aI2
aI4
aI4
aI5
aa(lp22
VEdward
p23
aI0
aI0
aI0
aI1
aaaasVsentences
p24
(lp25
(dp26
Vparsetree
p27
V(ROOT (S (NP (NNP Edward)) (VP (VBD was) (VP (VBG working) (PP (IN as) (NP (NP (DT a) (NN sacker)) (PP (IN at) (NP (DT a) (NN grocery) (NN store))))) (SBAR (WHADVP (WRB where)) (S (NP (PRP he)) (VP (VBD made) (NP (NP (CD 6) (NNS dollars)) (NP (DT an) (NN hour)))))))) (. .)))
p28
sVtext
p29
VEdward was working as a sacker at a grocery store where he made 6 dollars an hour .
p30
sVdependencies
p31
(lp32
(lp33
Vroot
p34
aVROOT
p35
aVworking
p36
aa(lp37
Vnsubj
p38
aVworking
p39
aVEdward
p40
aa(lp41
Vaux
p42
aVworking
p43
aVwas
p44
aa(lp45
Vdet
p46
aVsacker
p47
aVa
p48
aa(lp49
Vprep_as
p50
aVworking
p51
aVsacker
p52
aa(lp53
Vdet
p54
aVstore
p55
ag48
aa(lp56
Vnn
p57
aVstore
p58
aVgrocery
p59
aa(lp60
Vprep_at
p61
aVsacker
p62
aVstore
p63
aa(lp64
Vadvmod
p65
aVmade
p66
aVwhere
p67
aa(lp68
Vnsubj
p69
aVmade
p70
aVhe
p71
aa(lp72
Vadvcl
p73
aVworking
p74
aVmade
p75
aa(lp76
Vnum
p77
aVdollars
p78
aV6
p79
aa(lp80
Vdobj
p81
aVmade
p82
aVdollars
p83
aa(lp84
Vdet
p85
aVhour
p86
aVan
p87
aa(lp88
Vdep
p89
aVdollars
p90
aVhour
p91
aasVwords
p92
(lp93
(lp94
VEdward
p95
a(dp96
VNamedEntityTag
p97
VPERSON
p98
sVCharacterOffsetEnd
p99
V7
p100
sVCharacterOffsetBegin
p101
V1
p102
sVPartOfSpeech
p103
VNNP
p104
sVLemma
p105
VEdward
p106
saa(lp107
Vwas
p108
a(dp109
VNamedEntityTag
p110
VO
p111
sVCharacterOffsetEnd
p112
V11
p113
sVCharacterOffsetBegin
p114
V8
p115
sVPartOfSpeech
p116
VVBD
p117
sVLemma
p118
Vbe
p119
saa(lp120
Vworking
p121
a(dp122
VNamedEntityTag
p123
g111
sVCharacterOffsetEnd
p124
V19
p125
sVCharacterOffsetBegin
p126
V12
p127
sVPartOfSpeech
p128
VVBG
p129
sVLemma
p130
Vwork
p131
saa(lp132
Vas
p133
a(dp134
VNamedEntityTag
p135
g111
sVCharacterOffsetEnd
p136
V22
p137
sVCharacterOffsetBegin
p138
V20
p139
sVPartOfSpeech
p140
VIN
p141
sVLemma
p142
Vas
p143
saa(lp144
g48
a(dp145
VNamedEntityTag
p146
g111
sVCharacterOffsetEnd
p147
V24
p148
sVCharacterOffsetBegin
p149
V23
p150
sVPartOfSpeech
p151
VDT
p152
sVLemma
p153
g48
saa(lp154
Vsacker
p155
a(dp156
VNamedEntityTag
p157
g111
sVCharacterOffsetEnd
p158
V31
p159
sVCharacterOffsetBegin
p160
V25
p161
sVPartOfSpeech
p162
VNN
p163
sVLemma
p164
Vsacker
p165
saa(lp166
Vat
p167
a(dp168
VNamedEntityTag
p169
g111
sVCharacterOffsetEnd
p170
V34
p171
sVCharacterOffsetBegin
p172
V32
p173
sVPartOfSpeech
p174
VIN
p175
sVLemma
p176
Vat
p177
saa(lp178
g48
a(dp179
VNamedEntityTag
p180
g111
sVCharacterOffsetEnd
p181
V36
p182
sVCharacterOffsetBegin
p183
V35
p184
sVPartOfSpeech
p185
VDT
p186
sVLemma
p187
g48
saa(lp188
Vgrocery
p189
a(dp190
VNamedEntityTag
p191
g111
sVCharacterOffsetEnd
p192
V44
p193
sVCharacterOffsetBegin
p194
V37
p195
sVPartOfSpeech
p196
VNN
p197
sVLemma
p198
Vgrocery
p199
saa(lp200
Vstore
p201
a(dp202
VNamedEntityTag
p203
g111
sVCharacterOffsetEnd
p204
V50
p205
sVCharacterOffsetBegin
p206
V45
p207
sVPartOfSpeech
p208
VNN
p209
sVLemma
p210
Vstore
p211
saa(lp212
Vwhere
p213
a(dp214
VNamedEntityTag
p215
g111
sVCharacterOffsetEnd
p216
V56
p217
sVCharacterOffsetBegin
p218
V51
p219
sVPartOfSpeech
p220
VWRB
p221
sVLemma
p222
Vwhere
p223
saa(lp224
Vhe
p225
a(dp226
VNamedEntityTag
p227
g111
sVCharacterOffsetEnd
p228
V59
p229
sVCharacterOffsetBegin
p230
V57
p231
sVPartOfSpeech
p232
VPRP
p233
sVLemma
p234
Vhe
p235
saa(lp236
Vmade
p237
a(dp238
VNamedEntityTag
p239
g111
sVCharacterOffsetEnd
p240
V64
p241
sVCharacterOffsetBegin
p242
V60
p243
sVPartOfSpeech
p244
VVBD
p245
sVLemma
p246
Vmake
p247
saa(lp248
g79
a(dp249
VNormalizedNamedEntityTag
p250
V$6.0
p251
sVLemma
p252
g79
sVCharacterOffsetEnd
p253
V66
p254
sVPartOfSpeech
p255
VCD
p256
sVCharacterOffsetBegin
p257
V65
p258
sVNamedEntityTag
p259
VMONEY
p260
saa(lp261
Vdollars
p262
a(dp263
VNormalizedNamedEntityTag
p264
V$6.0
p265
sVLemma
p266
Vdollar
p267
sVCharacterOffsetEnd
p268
V74
p269
sVPartOfSpeech
p270
VNNS
p271
sVCharacterOffsetBegin
p272
V67
p273
sVNamedEntityTag
p274
VMONEY
p275
saa(lp276
Van
p277
a(dp278
VNormalizedNamedEntityTag
p279
VPT1H
p280
sVTimex
p281
V<TIMEX3 tid="t1" type="DURATION" value="PT1H">an hour</TIMEX3>
p282
sVLemma
p283
g48
sVCharacterOffsetEnd
p284
V77
p285
sVPartOfSpeech
p286
VDT
p287
sVCharacterOffsetBegin
p288
V75
p289
sVNamedEntityTag
p290
VDURATION
p291
saa(lp292
Vhour
p293
a(dp294
VNormalizedNamedEntityTag
p295
VPT1H
p296
sVTimex
p297
V<TIMEX3 tid="t1" type="DURATION" value="PT1H">an hour</TIMEX3>
p298
sVLemma
p299
Vhour
p300
sVCharacterOffsetEnd
p301
V82
p302
sVPartOfSpeech
p303
VNN
p304
sVCharacterOffsetBegin
p305
V78
p306
sVNamedEntityTag
p307
VDURATION
p308
saa(lp309
V.
p310
a(dp311
VNamedEntityTag
p312
g111
sVCharacterOffsetEnd
p313
V84
p314
sVCharacterOffsetBegin
p315
V83
p316
sVPartOfSpeech
p317
g310
sVLemma
p318
g310
saasVindexeddependencies
p319
(lp320
(lp321
Vroot
p322
aVROOT-0
p323
aVworking-3
p324
aa(lp325
Vnsubj
p326
aVworking-3
p327
aVEdward-1
p328
aa(lp329
Vaux
p330
aVworking-3
p331
aVwas-2
p332
aa(lp333
Vdet
p334
aVsacker-6
p335
aVa-5
p336
aa(lp337
Vprep_as
p338
aVworking-3
p339
aVsacker-6
p340
aa(lp341
Vdet
p342
aVstore-10
p343
aVa-8
p344
aa(lp345
Vnn
p346
aVstore-10
p347
aVgrocery-9
p348
aa(lp349
Vprep_at
p350
aVsacker-6
p351
aVstore-10
p352
aa(lp353
Vadvmod
p354
aVmade-13
p355
aVwhere-11
p356
aa(lp357
Vnsubj
p358
aVmade-13
p359
aVhe-12
p360
aa(lp361
Vadvcl
p362
aVworking-3
p363
aVmade-13
p364
aa(lp365
Vnum
p366
aVdollars-15
p367
aV6-14
p368
aa(lp369
Vdobj
p370
aVmade-13
p371
aVdollars-15
p372
aa(lp373
Vdet
p374
aVhour-17
p375
aVan-16
p376
aa(lp377
Vdep
p378
aVdollars-15
p379
aVhour-17
p380
aasa(dp381
Vparsetree
p382
V(ROOT (S (S (PP (IN On) (NP (NNP Monday))) (NP (PRP he)) (VP (VBD worked) (NP (CD 3) (NNS hours)))) (CC and) (S (PP (IN on) (NP (NNP Tuesday))) (NP (PRP he)) (VP (VBD worked) (NP (CD 5) (NNS hours)))) (. .)))
p383
sVtext
p384
VOn Monday he worked 3 hours and on Tuesday he worked 5 hours .
p385
sVdependencies
p386
(lp387
(lp388
Vroot
p389
aVROOT
p390
aVworked
p391
aa(lp392
Vprep_on
p393
aVworked
p394
aVMonday
p395
aa(lp396
Vnsubj
p397
aVworked
p398
aVhe
p399
aa(lp400
Vnum
p401
aVhours
p402
aV3
p403
aa(lp404
Vdobj
p405
aVworked
p406
aVhours
p407
aa(lp408
Vprep_on
p409
aVworked
p410
aVTuesday
p411
aa(lp412
Vnsubj
p413
aVworked
p414
aVhe
p415
aa(lp416
Vconj_and
p417
aVworked
p418
aVworked
p419
aa(lp420
Vnum
p421
aVhours
p422
aV5
p423
aa(lp424
Vdobj
p425
aVworked
p426
aVhours
p427
aasVwords
p428
(lp429
(lp430
VOn
p431
a(dp432
VNamedEntityTag
p433
g111
sVCharacterOffsetEnd
p434
V87
p435
sVCharacterOffsetBegin
p436
V85
p437
sVPartOfSpeech
p438
VIN
p439
sVLemma
p440
Von
p441
saa(lp442
VMonday
p443
a(dp444
VNormalizedNamedEntityTag
p445
VXXXX-WXX-1
p446
sVTimex
p447
V<TIMEX3 tid="t2" type="DATE" value="XXXX-WXX-1">Monday</TIMEX3>
p448
sVLemma
p449
VMonday
p450
sVCharacterOffsetEnd
p451
V94
p452
sVPartOfSpeech
p453
VNNP
p454
sVCharacterOffsetBegin
p455
V88
p456
sVNamedEntityTag
p457
VDATE
p458
saa(lp459
Vhe
p460
a(dp461
VNamedEntityTag
p462
g111
sVCharacterOffsetEnd
p463
V97
p464
sVCharacterOffsetBegin
p465
V95
p466
sVPartOfSpeech
p467
VPRP
p468
sVLemma
p469
Vhe
p470
saa(lp471
Vworked
p472
a(dp473
VNamedEntityTag
p474
g111
sVCharacterOffsetEnd
p475
V104
p476
sVCharacterOffsetBegin
p477
V98
p478
sVPartOfSpeech
p479
VVBD
p480
sVLemma
p481
Vwork
p482
saa(lp483
g403
a(dp484
VNormalizedNamedEntityTag
p485
VPT3H
p486
sVTimex
p487
V<TIMEX3 tid="t3" type="DURATION" value="PT3H">3 hours</TIMEX3>
p488
sVLemma
p489
g403
sVCharacterOffsetEnd
p490
V106
p491
sVPartOfSpeech
p492
VCD
p493
sVCharacterOffsetBegin
p494
V105
p495
sVNamedEntityTag
p496
VDURATION
p497
saa(lp498
Vhours
p499
a(dp500
VNormalizedNamedEntityTag
p501
VPT3H
p502
sVTimex
p503
V<TIMEX3 tid="t3" type="DURATION" value="PT3H">3 hours</TIMEX3>
p504
sVLemma
p505
Vhour
p506
sVCharacterOffsetEnd
p507
V112
p508
sVPartOfSpeech
p509
VNNS
p510
sVCharacterOffsetBegin
p511
V107
p512
sVNamedEntityTag
p513
VDURATION
p514
saa(lp515
Vand
p516
a(dp517
VNamedEntityTag
p518
g111
sVCharacterOffsetEnd
p519
V116
p520
sVCharacterOffsetBegin
p521
V113
p522
sVPartOfSpeech
p523
VCC
p524
sVLemma
p525
Vand
p526
saa(lp527
Von
p528
a(dp529
VNamedEntityTag
p530
g111
sVCharacterOffsetEnd
p531
V119
p532
sVCharacterOffsetBegin
p533
V117
p534
sVPartOfSpeech
p535
VIN
p536
sVLemma
p537
Von
p538
saa(lp539
VTuesday
p540
a(dp541
VNormalizedNamedEntityTag
p542
VXXXX-WXX-2
p543
sVTimex
p544
V<TIMEX3 tid="t4" type="DATE" value="XXXX-WXX-2">Tuesday</TIMEX3>
p545
sVLemma
p546
VTuesday
p547
sVCharacterOffsetEnd
p548
V127
p549
sVPartOfSpeech
p550
VNNP
p551
sVCharacterOffsetBegin
p552
V120
p553
sVNamedEntityTag
p554
VDATE
p555
saa(lp556
Vhe
p557
a(dp558
VNamedEntityTag
p559
g111
sVCharacterOffsetEnd
p560
V130
p561
sVCharacterOffsetBegin
p562
V128
p563
sVPartOfSpeech
p564
VPRP
p565
sVLemma
p566
Vhe
p567
saa(lp568
Vworked
p569
a(dp570
VNamedEntityTag
p571
g111
sVCharacterOffsetEnd
p572
V137
p573
sVCharacterOffsetBegin
p574
V131
p575
sVPartOfSpeech
p576
VVBD
p577
sVLemma
p578
Vwork
p579
saa(lp580
g423
a(dp581
VNormalizedNamedEntityTag
p582
VPT5H
p583
sVTimex
p584
V<TIMEX3 tid="t5" type="DURATION" value="PT5H">5 hours</TIMEX3>
p585
sVLemma
p586
g423
sVCharacterOffsetEnd
p587
V139
p588
sVPartOfSpeech
p589
VCD
p590
sVCharacterOffsetBegin
p591
V138
p592
sVNamedEntityTag
p593
VDURATION
p594
saa(lp595
Vhours
p596
a(dp597
VNormalizedNamedEntityTag
p598
VPT5H
p599
sVTimex
p600
V<TIMEX3 tid="t5" type="DURATION" value="PT5H">5 hours</TIMEX3>
p601
sVLemma
p602
Vhour
p603
sVCharacterOffsetEnd
p604
V145
p605
sVPartOfSpeech
p606
VNNS
p607
sVCharacterOffsetBegin
p608
V140
p609
sVNamedEntityTag
p610
VDURATION
p611
saa(lp612
g310
a(dp613
VNamedEntityTag
p614
g111
sVCharacterOffsetEnd
p615
V147
p616
sVCharacterOffsetBegin
p617
V146
p618
sVPartOfSpeech
p619
g310
sVLemma
p620
g310
saasVindexeddependencies
p621
(lp622
(lp623
Vroot
p624
aVROOT-0
p625
aVworked-4
p626
aa(lp627
Vprep_on
p628
aVworked-4
p629
aVMonday-2
p630
aa(lp631
Vnsubj
p632
aVworked-4
p633
aVhe-3
p634
aa(lp635
Vnum
p636
aVhours-6
p637
aV3-5
p638
aa(lp639
Vdobj
p640
aVworked-4
p641
aVhours-6
p642
aa(lp643
Vprep_on
p644
aVworked-11
p645
aVTuesday-9
p646
aa(lp647
Vnsubj
p648
aVworked-11
p649
aVhe-10
p650
aa(lp651
Vconj_and
p652
aVworked-4
p653
aVworked-11
p654
aa(lp655
Vnum
p656
aVhours-13
p657
aV5-12
p658
aa(lp659
Vdobj
p660
aVworked-11
p661
aVhours-13
p662
aasa(dp663
Vparsetree
p664
V(ROOT (SBARQ (WHNP (WHADJP (WRB How) (JJ much)) (NN money)) (SQ (VBD did) (NP (NNP Edward)) (VP (VB make) (PP (IN in) (NP (DT those) (CD two) (NNS days))))) (. ?)))
p665
sVtext
p666
VHow much money did Edward make in those two days ?
p667
sVdependencies
p668
(lp669
(lp670
Vroot
p671
aVROOT
p672
aVmake
p673
aa(lp674
Vadvmod
p675
aVmuch
p676
aVHow
p677
aa(lp678
Vamod
p679
aVmoney
p680
aVmuch
p681
aa(lp682
Vdobj
p683
aVmake
p684
aVmoney
p685
aa(lp686
Vaux
p687
aVmake
p688
aVdid
p689
aa(lp690
Vnsubj
p691
aVmake
p692
aVEdward
p693
aa(lp694
Vdet
p695
aVdays
p696
aVthose
p697
aa(lp698
Vnum
p699
aVdays
p700
aVtwo
p701
aa(lp702
Vprep_in
p703
aVmake
p704
aVdays
p705
aasVwords
p706
(lp707
(lp708
VHow
p709
a(dp710
VNamedEntityTag
p711
g111
sVCharacterOffsetEnd
p712
V151
p713
sVCharacterOffsetBegin
p714
V148
p715
sVPartOfSpeech
p716
VWRB
p717
sVLemma
p718
Vhow
p719
saa(lp720
Vmuch
p721
a(dp722
VNamedEntityTag
p723
g111
sVCharacterOffsetEnd
p724
V156
p725
sVCharacterOffsetBegin
p726
V152
p727
sVPartOfSpeech
p728
VJJ
p729
sVLemma
p730
Vmuch
p731
saa(lp732
Vmoney
p733
a(dp734
VNamedEntityTag
p735
g111
sVCharacterOffsetEnd
p736
V162
p737
sVCharacterOffsetBegin
p738
V157
p739
sVPartOfSpeech
p740
VNN
p741
sVLemma
p742
Vmoney
p743
saa(lp744
Vdid
p745
a(dp746
VNamedEntityTag
p747
g111
sVCharacterOffsetEnd
p748
V166
p749
sVCharacterOffsetBegin
p750
V163
p751
sVPartOfSpeech
p752
VVBD
p753
sVLemma
p754
Vdo
p755
saa(lp756
VEdward
p757
a(dp758
VNamedEntityTag
p759
VPERSON
p760
sVCharacterOffsetEnd
p761
V173
p762
sVCharacterOffsetBegin
p763
V167
p764
sVPartOfSpeech
p765
VNNP
p766
sVLemma
p767
VEdward
p768
saa(lp769
Vmake
p770
a(dp771
VNamedEntityTag
p772
g111
sVCharacterOffsetEnd
p773
V178
p774
sVCharacterOffsetBegin
p775
V174
p776
sVPartOfSpeech
p777
VVB
p778
sVLemma
p779
Vmake
p780
saa(lp781
Vin
p782
a(dp783
VNamedEntityTag
p784
g111
sVCharacterOffsetEnd
p785
V181
p786
sVCharacterOffsetBegin
p787
V179
p788
sVPartOfSpeech
p789
VIN
p790
sVLemma
p791
Vin
p792
saa(lp793
Vthose
p794
a(dp795
VNamedEntityTag
p796
g111
sVCharacterOffsetEnd
p797
V187
p798
sVCharacterOffsetBegin
p799
V182
p800
sVPartOfSpeech
p801
VDT
p802
sVLemma
p803
Vthose
p804
saa(lp805
Vtwo
p806
a(dp807
VNormalizedNamedEntityTag
p808
VP2D
p809
sVTimex
p810
V<TIMEX3 tid="t6" type="DURATION" value="P2D">two days</TIMEX3>
p811
sVLemma
p812
Vtwo
p813
sVCharacterOffsetEnd
p814
V191
p815
sVPartOfSpeech
p816
VCD
p817
sVCharacterOffsetBegin
p818
V188
p819
sVNamedEntityTag
p820
VDURATION
p821
saa(lp822
Vdays
p823
a(dp824
VNormalizedNamedEntityTag
p825
VP2D
p826
sVTimex
p827
V<TIMEX3 tid="t6" type="DURATION" value="P2D">two days</TIMEX3>
p828
sVLemma
p829
Vday
p830
sVCharacterOffsetEnd
p831
V196
p832
sVPartOfSpeech
p833
VNNS
p834
sVCharacterOffsetBegin
p835
V192
p836
sVNamedEntityTag
p837
VDURATION
p838
saa(lp839
V?
p840
a(dp841
VNamedEntityTag
p842
g111
sVCharacterOffsetEnd
p843
V198
p844
sVCharacterOffsetBegin
p845
V197
p846
sVPartOfSpeech
p847
g310
sVLemma
p848
g840
saasVindexeddependencies
p849
(lp850
(lp851
Vroot
p852
aVROOT-0
p853
aVmake-6
p854
aa(lp855
Vadvmod
p856
aVmuch-2
p857
aVHow-1
p858
aa(lp859
Vamod
p860
aVmoney-3
p861
aVmuch-2
p862
aa(lp863
Vdobj
p864
aVmake-6
p865
aVmoney-3
p866
aa(lp867
Vaux
p868
aVmake-6
p869
aVdid-4
p870
aa(lp871
Vnsubj
p872
aVmake-6
p873
aVEdward-5
p874
aa(lp875
Vdet
p876
aVdays-10
p877
aVthose-8
p878
aa(lp879
Vnum
p880
aVdays-10
p881
aVtwo-9
p882
aa(lp883
Vprep_in
p884
aVmake-6
p885
aVdays-10
p886
aasas.