(dp0
Vcoref
p1
(lp2
(lp3
(lp4
(lp5
Vher
p6
aI0
aI7
aI7
aI8
aa(lp7
VChristina
p8
aI0
aI0
aI0
aI1
aaaa(lp9
(lp10
(lp11
Vthe account
p12
aI1
aI5
aI4
aI6
aa(lp13
Vher bank account
p14
aI0
aI9
aI7
aI10
aaaa(lp15
(lp16
(lp17
Vit
p18
aI1
aI12
aI12
aI13
aa(lp19
Va result
p20
aI1
aI2
aI1
aI3
aaaasVsentences
p21
(lp22
(dp23
Vparsetree
p24
V(ROOT (S (NP (NNP Christina)) (ADVP (RB just)) (VP (VBD transferred) (ADVP (NP ($ $) (CD 69)) (IN out)) (PP (IN of) (NP (PRP$ her) (NN bank) (NN account)))) (. .)))
p25
sVtext
p26
VChristina just transferred $69 out of her bank account .
p27
sVdependencies
p28
(lp29
(lp30
Vroot
p31
aVROOT
p32
aVtransferred
p33
aa(lp34
Vnsubj
p35
aVtransferred
p36
aVChristina
p37
aa(lp38
Vadvmod
p39
aVtransferred
p40
aVjust
p41
aa(lp42
Vnpadvmod
p43
aVtransferred
p44
aV$
p45
aa(lp46
Vnum
p47
ag45
aV69
p48
aa(lp49
Vposs
p50
aVaccount
p51
aVher
p52
aa(lp53
Vnn
p54
aVaccount
p55
aVbank
p56
aa(lp57
Vprep_out_of
p58
aVtransferred
p59
aVaccount
p60
aasVwords
p61
(lp62
(lp63
VChristina
p64
a(dp65
VNamedEntityTag
p66
VPERSON
p67
sVCharacterOffsetEnd
p68
V10
p69
sVCharacterOffsetBegin
p70
V1
p71
sVPartOfSpeech
p72
VNNP
p73
sVLemma
p74
VChristina
p75
saa(lp76
Vjust
p77
a(dp78
VNamedEntityTag
p79
VO
p80
sVCharacterOffsetEnd
p81
V15
p82
sVCharacterOffsetBegin
p83
V11
p84
sVPartOfSpeech
p85
VRB
p86
sVLemma
p87
Vjust
p88
saa(lp89
Vtransferred
p90
a(dp91
VNamedEntityTag
p92
g80
sVCharacterOffsetEnd
p93
V27
p94
sVCharacterOffsetBegin
p95
V16
p96
sVPartOfSpeech
p97
VVBD
p98
sVLemma
p99
Vtransfer
p100
saa(lp101
g45
a(dp102
VNormalizedNamedEntityTag
p103
V$69.0
p104
sVLemma
p105
g45
sVCharacterOffsetEnd
p106
V29
p107
sVPartOfSpeech
p108
g45
sVCharacterOffsetBegin
p109
V28
p110
sVNamedEntityTag
p111
VMONEY
p112
saa(lp113
V69
p114
a(dp115
VNormalizedNamedEntityTag
p116
V$69.0
p117
sVLemma
p118
V69
p119
sVCharacterOffsetEnd
p120
V31
p121
sVPartOfSpeech
p122
VCD
p123
sVCharacterOffsetBegin
p124
V29
p125
sVNamedEntityTag
p126
VMONEY
p127
saa(lp128
Vout
p129
a(dp130
VNamedEntityTag
p131
g80
sVCharacterOffsetEnd
p132
V35
p133
sVCharacterOffsetBegin
p134
V32
p135
sVPartOfSpeech
p136
VIN
p137
sVLemma
p138
Vout
p139
saa(lp140
Vof
p141
a(dp142
VNamedEntityTag
p143
g80
sVCharacterOffsetEnd
p144
V38
p145
sVCharacterOffsetBegin
p146
V36
p147
sVPartOfSpeech
p148
VIN
p149
sVLemma
p150
Vof
p151
saa(lp152
Vher
p153
a(dp154
VNamedEntityTag
p155
g80
sVCharacterOffsetEnd
p156
V42
p157
sVCharacterOffsetBegin
p158
V39
p159
sVPartOfSpeech
p160
VPRP$
p161
sVLemma
p162
Vshe
p163
saa(lp164
Vbank
p165
a(dp166
VNamedEntityTag
p167
g80
sVCharacterOffsetEnd
p168
V47
p169
sVCharacterOffsetBegin
p170
V43
p171
sVPartOfSpeech
p172
VNN
p173
sVLemma
p174
Vbank
p175
saa(lp176
Vaccount
p177
a(dp178
VNamedEntityTag
p179
g80
sVCharacterOffsetEnd
p180
V55
p181
sVCharacterOffsetBegin
p182
V48
p183
sVPartOfSpeech
p184
VNN
p185
sVLemma
p186
Vaccount
p187
saa(lp188
V.
p189
a(dp190
VNamedEntityTag
p191
g80
sVCharacterOffsetEnd
p192
V57
p193
sVCharacterOffsetBegin
p194
V56
p195
sVPartOfSpeech
p196
g189
sVLemma
p197
g189
saasVindexeddependencies
p198
(lp199
(lp200
Vroot
p201
aVROOT-0
p202
aVtransferred-3
p203
aa(lp204
Vnsubj
p205
aVtransferred-3
p206
aVChristina-1
p207
aa(lp208
Vadvmod
p209
aVtransferred-3
p210
aVjust-2
p211
aa(lp212
Vnpadvmod
p213
aVtransferred-3
p214
aV$-4
p215
aa(lp216
Vnum
p217
aV$-4
p218
aV69-5
p219
aa(lp220
Vposs
p221
aVaccount-10
p222
aVher-8
p223
aa(lp224
Vnn
p225
aVaccount-10
p226
aVbank-9
p227
aa(lp228
Vprep_out_of
p229
aVtransferred-3
p230
aVaccount-10
p231
aasa(dp232
Vparsetree
p233
V(ROOT (S (PP (IN As) (NP (DT a) (NN result))) (, ,) (NP (DT the) (NN account)) (ADVP (RB now)) (VP (VBZ has) (NP (NP ($ $) (CD 26,935)) (VP (VBN left) (PP (IN in) (NP (PRP it)))))) (. .)))
p234
sVtext
p235
VAs a result , the account now has $26,935 left in it .
p236
sVdependencies
p237
(lp238
(lp239
Vroot
p240
aVROOT
p241
aVhas
p242
aa(lp243
Vdet
p244
aVresult
p245
aVa
p246
aa(lp247
Vprep_as
p248
aVhas
p249
aVresult
p250
aa(lp251
Vdet
p252
aVaccount
p253
aVthe
p254
aa(lp255
Vnsubj
p256
aVhas
p257
aVaccount
p258
aa(lp259
Vadvmod
p260
aVhas
p261
aVnow
p262
aa(lp263
Vdobj
p264
aVhas
p265
ag45
aa(lp266
Vnum
p267
ag45
aV26,935
p268
aa(lp269
Vvmod
p270
ag45
aVleft
p271
aa(lp272
Vprep_in
p273
aVleft
p274
aVit
p275
aasVwords
p276
(lp277
(lp278
VAs
p279
a(dp280
VNamedEntityTag
p281
g80
sVCharacterOffsetEnd
p282
V60
p283
sVCharacterOffsetBegin
p284
V58
p285
sVPartOfSpeech
p286
VIN
p287
sVLemma
p288
Vas
p289
saa(lp290
g246
a(dp291
VNamedEntityTag
p292
g80
sVCharacterOffsetEnd
p293
V62
p294
sVCharacterOffsetBegin
p295
V61
p296
sVPartOfSpeech
p297
VDT
p298
sVLemma
p299
g246
saa(lp300
Vresult
p301
a(dp302
VNamedEntityTag
p303
g80
sVCharacterOffsetEnd
p304
V69
p305
sVCharacterOffsetBegin
p306
V63
p307
sVPartOfSpeech
p308
VNN
p309
sVLemma
p310
Vresult
p311
saa(lp312
V,
p313
a(dp314
VNamedEntityTag
p315
g80
sVCharacterOffsetEnd
p316
V71
p317
sVCharacterOffsetBegin
p318
V70
p319
sVPartOfSpeech
p320
g313
sVLemma
p321
g313
saa(lp322
Vthe
p323
a(dp324
VNamedEntityTag
p325
g80
sVCharacterOffsetEnd
p326
V75
p327
sVCharacterOffsetBegin
p328
V72
p329
sVPartOfSpeech
p330
VDT
p331
sVLemma
p332
Vthe
p333
saa(lp334
Vaccount
p335
a(dp336
VNamedEntityTag
p337
g80
sVCharacterOffsetEnd
p338
V83
p339
sVCharacterOffsetBegin
p340
V76
p341
sVPartOfSpeech
p342
VNN
p343
sVLemma
p344
Vaccount
p345
saa(lp346
Vnow
p347
a(dp348
VNormalizedNamedEntityTag
p349
VPRESENT_REF
p350
sVTimex
p351
V<TIMEX3 tid="t1" type="DATE" value="PRESENT_REF">now</TIMEX3>
p352
sVLemma
p353
Vnow
p354
sVCharacterOffsetEnd
p355
V87
p356
sVPartOfSpeech
p357
VRB
p358
sVCharacterOffsetBegin
p359
V84
p360
sVNamedEntityTag
p361
VDATE
p362
saa(lp363
Vhas
p364
a(dp365
VNamedEntityTag
p366
g80
sVCharacterOffsetEnd
p367
V91
p368
sVCharacterOffsetBegin
p369
V88
p370
sVPartOfSpeech
p371
VVBZ
p372
sVLemma
p373
Vhave
p374
saa(lp375
g45
a(dp376
VNormalizedNamedEntityTag
p377
V$26935.0
p378
sVLemma
p379
g45
sVCharacterOffsetEnd
p380
V93
p381
sVPartOfSpeech
p382
g45
sVCharacterOffsetBegin
p383
V92
p384
sVNamedEntityTag
p385
VMONEY
p386
saa(lp387
V26,935
p388
a(dp389
VNormalizedNamedEntityTag
p390
V$26935.0
p391
sVLemma
p392
V26,935
p393
sVCharacterOffsetEnd
p394
V99
p395
sVPartOfSpeech
p396
VCD
p397
sVCharacterOffsetBegin
p398
V93
p399
sVNamedEntityTag
p400
VMONEY
p401
saa(lp402
Vleft
p403
a(dp404
VNamedEntityTag
p405
g80
sVCharacterOffsetEnd
p406
V104
p407
sVCharacterOffsetBegin
p408
V100
p409
sVPartOfSpeech
p410
VVBN
p411
sVLemma
p412
Vleave
p413
saa(lp414
Vin
p415
a(dp416
VNamedEntityTag
p417
g80
sVCharacterOffsetEnd
p418
V107
p419
sVCharacterOffsetBegin
p420
V105
p421
sVPartOfSpeech
p422
VIN
p423
sVLemma
p424
Vin
p425
saa(lp426
Vit
p427
a(dp428
VNamedEntityTag
p429
g80
sVCharacterOffsetEnd
p430
V110
p431
sVCharacterOffsetBegin
p432
V108
p433
sVPartOfSpeech
p434
VPRP
p435
sVLemma
p436
Vit
p437
saa(lp438
g189
a(dp439
VNamedEntityTag
p440
g80
sVCharacterOffsetEnd
p441
V112
p442
sVCharacterOffsetBegin
p443
V111
p444
sVPartOfSpeech
p445
g189
sVLemma
p446
g189
saasVindexeddependencies
p447
(lp448
(lp449
Vroot
p450
aVROOT-0
p451
aVhas-8
p452
aa(lp453
Vdet
p454
aVresult-3
p455
aVa-2
p456
aa(lp457
Vprep_as
p458
aVhas-8
p459
aVresult-3
p460
aa(lp461
Vdet
p462
aVaccount-6
p463
aVthe-5
p464
aa(lp465
Vnsubj
p466
aVhas-8
p467
aVaccount-6
p468
aa(lp469
Vadvmod
p470
aVhas-8
p471
aVnow-7
p472
aa(lp473
Vdobj
p474
aVhas-8
p475
aV$-9
p476
aa(lp477
Vnum
p478
aV$-9
p479
aV26,935-10
p480
aa(lp481
Vvmod
p482
aV$-9
p483
aVleft-11
p484
aa(lp485
Vprep_in
p486
aVleft-11
p487
aVit-13
p488
aasa(dp489
Vparsetree
p490
V(ROOT (SBARQ (WHNP (WHADJP (WRB How) (JJ much)) (NN money)) (SQ (VP (VBD was) (PP (IN in) (NP (NP (DT the) (NN account)) (PP (IN before) (NP (DT the) (NN transfer))))))) (. ?)))
p491
sVtext
p492
VHow much money was in the account before the transfer ?
p493
sVdependencies
p494
(lp495
(lp496
Vroot
p497
aVROOT
p498
aVwas
p499
aa(lp500
Vadvmod
p501
aVmuch
p502
aVHow
p503
aa(lp504
Vamod
p505
aVmoney
p506
aVmuch
p507
aa(lp508
Vnsubj
p509
aVwas
p510
aVmoney
p511
aa(lp512
Vdet
p513
aVaccount
p514
aVthe
p515
aa(lp516
Vprep_in
p517
aVwas
p518
aVaccount
p519
aa(lp520
Vdet
p521
aVtransfer
p522
aVthe
p523
aa(lp524
Vprep_before
p525
aVaccount
p526
aVtransfer
p527
aasVwords
p528
(lp529
(lp530
VHow
p531
a(dp532
VNamedEntityTag
p533
g80
sVCharacterOffsetEnd
p534
V116
p535
sVCharacterOffsetBegin
p536
V113
p537
sVPartOfSpeech
p538
VWRB
p539
sVLemma
p540
Vhow
p541
saa(lp542
Vmuch
p543
a(dp544
VNamedEntityTag
p545
g80
sVCharacterOffsetEnd
p546
V121
p547
sVCharacterOffsetBegin
p548
V117
p549
sVPartOfSpeech
p550
VJJ
p551
sVLemma
p552
Vmuch
p553
saa(lp554
Vmoney
p555
a(dp556
VNamedEntityTag
p557
g80
sVCharacterOffsetEnd
p558
V127
p559
sVCharacterOffsetBegin
p560
V122
p561
sVPartOfSpeech
p562
VNN
p563
sVLemma
p564
Vmoney
p565
saa(lp566
Vwas
p567
a(dp568
VNamedEntityTag
p569
g80
sVCharacterOffsetEnd
p570
V131
p571
sVCharacterOffsetBegin
p572
V128
p573
sVPartOfSpeech
p574
VVBD
p575
sVLemma
p576
Vbe
p577
saa(lp578
Vin
p579
a(dp580
VNamedEntityTag
p581
g80
sVCharacterOffsetEnd
p582
V134
p583
sVCharacterOffsetBegin
p584
V132
p585
sVPartOfSpeech
p586
VIN
p587
sVLemma
p588
Vin
p589
saa(lp590
Vthe
p591
a(dp592
VNamedEntityTag
p593
g80
sVCharacterOffsetEnd
p594
V138
p595
sVCharacterOffsetBegin
p596
V135
p597
sVPartOfSpeech
p598
VDT
p599
sVLemma
p600
Vthe
p601
saa(lp602
Vaccount
p603
a(dp604
VNamedEntityTag
p605
g80
sVCharacterOffsetEnd
p606
V146
p607
sVCharacterOffsetBegin
p608
V139
p609
sVPartOfSpeech
p610
VNN
p611
sVLemma
p612
Vaccount
p613
saa(lp614
Vbefore
p615
a(dp616
VNamedEntityTag
p617
g80
sVCharacterOffsetEnd
p618
V153
p619
sVCharacterOffsetBegin
p620
V147
p621
sVPartOfSpeech
p622
VIN
p623
sVLemma
p624
Vbefore
p625
saa(lp626
Vthe
p627
a(dp628
VNamedEntityTag
p629
g80
sVCharacterOffsetEnd
p630
V157
p631
sVCharacterOffsetBegin
p632
V154
p633
sVPartOfSpeech
p634
VDT
p635
sVLemma
p636
Vthe
p637
saa(lp638
Vtransfer
p639
a(dp640
VNamedEntityTag
p641
g80
sVCharacterOffsetEnd
p642
V166
p643
sVCharacterOffsetBegin
p644
V158
p645
sVPartOfSpeech
p646
VNN
p647
sVLemma
p648
Vtransfer
p649
saa(lp650
V?
p651
a(dp652
VNamedEntityTag
p653
g80
sVCharacterOffsetEnd
p654
V168
p655
sVCharacterOffsetBegin
p656
V167
p657
sVPartOfSpeech
p658
g189
sVLemma
p659
g651
saasVindexeddependencies
p660
(lp661
(lp662
Vroot
p663
aVROOT-0
p664
aVwas-4
p665
aa(lp666
Vadvmod
p667
aVmuch-2
p668
aVHow-1
p669
aa(lp670
Vamod
p671
aVmoney-3
p672
aVmuch-2
p673
aa(lp674
Vnsubj
p675
aVwas-4
p676
aVmoney-3
p677
aa(lp678
Vdet
p679
aVaccount-7
p680
aVthe-6
p681
aa(lp682
Vprep_in
p683
aVwas-4
p684
aVaccount-7
p685
aa(lp686
Vdet
p687
aVtransfer-10
p688
aVthe-9
p689
aa(lp690
Vprep_before
p691
aVaccount-7
p692
aVtransfer-10
p693
aasas.