(dp0
Vcoref
p1
(lp2
(lp3
(lp4
(lp5
Vthe home
p6
aI1
aI8
aI7
aI9
aa(lp7
Va home
p8
aI0
aI5
aI4
aI6
aaaa(lp9
(lp10
(lp11
Vits
p12
aI2
aI7
aI7
aI8
aa(lp13
Va few years
p14
aI1
aI4
aI2
aI5
aaaasVsentences
p15
(lp16
(dp17
Vparsetree
p18
V(ROOT (S (NP (DT A) (NN family)) (ADVP (RB originally)) (VP (VBD bought) (NP (DT a) (NN home)) (PP (IN for) (NP ($ $) (CD 98,700)))) (. .)))
p19
sVtext
p20
VA family originally bought a home for $98,700 .
p21
sVdependencies
p22
(lp23
(lp24
Vroot
p25
aVROOT
p26
aVbought
p27
aa(lp28
Vdet
p29
aVfamily
p30
aVA
p31
aa(lp32
Vnsubj
p33
aVbought
p34
aVfamily
p35
aa(lp36
Vadvmod
p37
aVbought
p38
aVoriginally
p39
aa(lp40
Vdet
p41
aVhome
p42
aVa
p43
aa(lp44
Vdobj
p45
aVbought
p46
aVhome
p47
aa(lp48
Vprep_for
p49
aVbought
p50
aV$
p51
aa(lp52
Vnum
p53
ag51
aV98,700
p54
aasVwords
p55
(lp56
(lp57
g31
a(dp58
VNamedEntityTag
p59
VO
p60
sVCharacterOffsetEnd
p61
V2
p62
sVCharacterOffsetBegin
p63
V1
p64
sVPartOfSpeech
p65
VDT
p66
sVLemma
p67
g43
saa(lp68
Vfamily
p69
a(dp70
VNamedEntityTag
p71
g60
sVCharacterOffsetEnd
p72
V9
p73
sVCharacterOffsetBegin
p74
V3
p75
sVPartOfSpeech
p76
VNN
p77
sVLemma
p78
Vfamily
p79
saa(lp80
Voriginally
p81
a(dp82
VNamedEntityTag
p83
g60
sVCharacterOffsetEnd
p84
V20
p85
sVCharacterOffsetBegin
p86
V10
p87
sVPartOfSpeech
p88
VRB
p89
sVLemma
p90
Voriginally
p91
saa(lp92
Vbought
p93
a(dp94
VNamedEntityTag
p95
g60
sVCharacterOffsetEnd
p96
V27
p97
sVCharacterOffsetBegin
p98
V21
p99
sVPartOfSpeech
p100
VVBD
p101
sVLemma
p102
Vbuy
p103
saa(lp104
g43
a(dp105
VNamedEntityTag
p106
g60
sVCharacterOffsetEnd
p107
V29
p108
sVCharacterOffsetBegin
p109
V28
p110
sVPartOfSpeech
p111
VDT
p112
sVLemma
p113
g43
saa(lp114
Vhome
p115
a(dp116
VNamedEntityTag
p117
g60
sVCharacterOffsetEnd
p118
V34
p119
sVCharacterOffsetBegin
p120
V30
p121
sVPartOfSpeech
p122
VNN
p123
sVLemma
p124
Vhome
p125
saa(lp126
Vfor
p127
a(dp128
VNamedEntityTag
p129
g60
sVCharacterOffsetEnd
p130
V38
p131
sVCharacterOffsetBegin
p132
V35
p133
sVPartOfSpeech
p134
VIN
p135
sVLemma
p136
Vfor
p137
saa(lp138
g51
a(dp139
VNormalizedNamedEntityTag
p140
V$98700.0
p141
sVLemma
p142
g51
sVCharacterOffsetEnd
p143
V40
p144
sVPartOfSpeech
p145
g51
sVCharacterOffsetBegin
p146
V39
p147
sVNamedEntityTag
p148
VMONEY
p149
saa(lp150
V98,700
p151
a(dp152
VNormalizedNamedEntityTag
p153
V$98700.0
p154
sVLemma
p155
V98,700
p156
sVCharacterOffsetEnd
p157
V46
p158
sVPartOfSpeech
p159
VCD
p160
sVCharacterOffsetBegin
p161
V40
p162
sVNamedEntityTag
p163
VMONEY
p164
saa(lp165
V.
p166
a(dp167
VNamedEntityTag
p168
g60
sVCharacterOffsetEnd
p169
V48
p170
sVCharacterOffsetBegin
p171
V47
p172
sVPartOfSpeech
p173
g166
sVLemma
p174
g166
saasVindexeddependencies
p175
(lp176
(lp177
Vroot
p178
aVROOT-0
p179
aVbought-4
p180
aa(lp181
Vdet
p182
aVfamily-2
p183
aVA-1
p184
aa(lp185
Vnsubj
p186
aVbought-4
p187
aVfamily-2
p188
aa(lp189
Vadvmod
p190
aVbought-4
p191
aVoriginally-3
p192
aa(lp193
Vdet
p194
aVhome-6
p195
aVa-5
p196
aa(lp197
Vdobj
p198
aVbought-4
p199
aVhome-6
p200
aa(lp201
Vprep_for
p202
aVbought-4
p203
aV$-8
p204
aa(lp205
Vnum
p206
aV$-8
p207
aV98,700-9
p208
aasa(dp209
Vparsetree
p210
V(ROOT (S (ADVP (RB Now)) (, ,) (ADVP (NP (DT a) (JJ few) (NNS years)) (RB later)) (, ,) (NP (DT the) (NN home)) (VP (VBZ is) (ADJP (JJ worth) (NP ($ $) (CD 108,570)))) (. .)))
p211
sVtext
p212
VNow , a few years later , the home is worth $108,570 .
p213
sVdependencies
p214
(lp215
(lp216
Vroot
p217
aVROOT
p218
aVworth
p219
aa(lp220
Vadvmod
p221
aVworth
p222
aVNow
p223
aa(lp224
Vdet
p225
aVyears
p226
ag43
aa(lp227
Vamod
p228
aVyears
p229
aVfew
p230
aa(lp231
Vnpadvmod
p232
aVlater
p233
aVyears
p234
aa(lp235
Vadvmod
p236
aVworth
p237
aVlater
p238
aa(lp239
Vdet
p240
aVhome
p241
aVthe
p242
aa(lp243
Vnsubj
p244
aVworth
p245
aVhome
p246
aa(lp247
Vcop
p248
aVworth
p249
aVis
p250
aa(lp251
Vdep
p252
aVworth
p253
ag51
aa(lp254
Vnum
p255
ag51
aV108,570
p256
aasVwords
p257
(lp258
(lp259
VNow
p260
a(dp261
VNormalizedNamedEntityTag
p262
VPRESENT_REF
p263
sVTimex
p264
V<TIMEX3 tid="t1" type="DATE" value="PRESENT_REF">Now</TIMEX3>
p265
sVLemma
p266
Vnow
p267
sVCharacterOffsetEnd
p268
V52
p269
sVPartOfSpeech
p270
VRB
p271
sVCharacterOffsetBegin
p272
V49
p273
sVNamedEntityTag
p274
VDATE
p275
saa(lp276
V,
p277
a(dp278
VNamedEntityTag
p279
g60
sVCharacterOffsetEnd
p280
V54
p281
sVCharacterOffsetBegin
p282
V53
p283
sVPartOfSpeech
p284
g277
sVLemma
p285
g277
saa(lp286
g43
a(dp287
VNormalizedNamedEntityTag
p288
VOFFSET
p289
sVTimex
p290
V<TIMEX3 alt_value="OFFSET PXY" anchorTimeID="t0" temporalFunction="true" tid="t2" type="DATE" valueFromFunction="tf0">a few years later</TIMEX3>
p291
sVLemma
p292
g43
sVCharacterOffsetEnd
p293
V56
p294
sVPartOfSpeech
p295
VDT
p296
sVCharacterOffsetBegin
p297
V55
p298
sVNamedEntityTag
p299
VDATE
p300
saa(lp301
Vfew
p302
a(dp303
VNormalizedNamedEntityTag
p304
VOFFSET
p305
sVTimex
p306
V<TIMEX3 alt_value="OFFSET PXY" anchorTimeID="t0" temporalFunction="true" tid="t2" type="DATE" valueFromFunction="tf0">a few years later</TIMEX3>
p307
sVLemma
p308
Vfew
p309
sVCharacterOffsetEnd
p310
V60
p311
sVPartOfSpeech
p312
VJJ
p313
sVCharacterOffsetBegin
p314
V57
p315
sVNamedEntityTag
p316
VDATE
p317
saa(lp318
Vyears
p319
a(dp320
VNormalizedNamedEntityTag
p321
VOFFSET
p322
sVTimex
p323
V<TIMEX3 alt_value="OFFSET PXY" anchorTimeID="t0" temporalFunction="true" tid="t2" type="DATE" valueFromFunction="tf0">a few years later</TIMEX3>
p324
sVLemma
p325
Vyear
p326
sVCharacterOffsetEnd
p327
V66
p328
sVPartOfSpeech
p329
VNNS
p330
sVCharacterOffsetBegin
p331
V61
p332
sVNamedEntityTag
p333
VDATE
p334
saa(lp335
Vlater
p336
a(dp337
VNormalizedNamedEntityTag
p338
VOFFSET
p339
sVTimex
p340
V<TIMEX3 alt_value="OFFSET PXY" anchorTimeID="t0" temporalFunction="true" tid="t2" type="DATE" valueFromFunction="tf0">a few years later</TIMEX3>
p341
sVLemma
p342
Vlater
p343
sVCharacterOffsetEnd
p344
V72
p345
sVPartOfSpeech
p346
VRB
p347
sVCharacterOffsetBegin
p348
V67
p349
sVNamedEntityTag
p350
VDATE
p351
saa(lp352
g277
a(dp353
VNamedEntityTag
p354
g60
sVCharacterOffsetEnd
p355
V74
p356
sVCharacterOffsetBegin
p357
V73
p358
sVPartOfSpeech
p359
g277
sVLemma
p360
g277
saa(lp361
Vthe
p362
a(dp363
VNamedEntityTag
p364
g60
sVCharacterOffsetEnd
p365
V78
p366
sVCharacterOffsetBegin
p367
V75
p368
sVPartOfSpeech
p369
VDT
p370
sVLemma
p371
Vthe
p372
saa(lp373
Vhome
p374
a(dp375
VNamedEntityTag
p376
g60
sVCharacterOffsetEnd
p377
V83
p378
sVCharacterOffsetBegin
p379
V79
p380
sVPartOfSpeech
p381
VNN
p382
sVLemma
p383
Vhome
p384
saa(lp385
Vis
p386
a(dp387
VNamedEntityTag
p388
g60
sVCharacterOffsetEnd
p389
V86
p390
sVCharacterOffsetBegin
p391
V84
p392
sVPartOfSpeech
p393
VVBZ
p394
sVLemma
p395
Vbe
p396
saa(lp397
Vworth
p398
a(dp399
VNamedEntityTag
p400
g60
sVCharacterOffsetEnd
p401
V92
p402
sVCharacterOffsetBegin
p403
V87
p404
sVPartOfSpeech
p405
VJJ
p406
sVLemma
p407
Vworth
p408
saa(lp409
g51
a(dp410
VNormalizedNamedEntityTag
p411
V$108570.0
p412
sVLemma
p413
g51
sVCharacterOffsetEnd
p414
V94
p415
sVPartOfSpeech
p416
g51
sVCharacterOffsetBegin
p417
V93
p418
sVNamedEntityTag
p419
VMONEY
p420
saa(lp421
V108,570
p422
a(dp423
VNormalizedNamedEntityTag
p424
V$108570.0
p425
sVLemma
p426
V108,570
p427
sVCharacterOffsetEnd
p428
V101
p429
sVPartOfSpeech
p430
VCD
p431
sVCharacterOffsetBegin
p432
V94
p433
sVNamedEntityTag
p434
VMONEY
p435
saa(lp436
g166
a(dp437
VNamedEntityTag
p438
g60
sVCharacterOffsetEnd
p439
V103
p440
sVCharacterOffsetBegin
p441
V102
p442
sVPartOfSpeech
p443
g166
sVLemma
p444
g166
saasVindexeddependencies
p445
(lp446
(lp447
Vroot
p448
aVROOT-0
p449
aVworth-11
p450
aa(lp451
Vadvmod
p452
aVworth-11
p453
aVNow-1
p454
aa(lp455
Vdet
p456
aVyears-5
p457
aVa-3
p458
aa(lp459
Vamod
p460
aVyears-5
p461
aVfew-4
p462
aa(lp463
Vnpadvmod
p464
aVlater-6
p465
aVyears-5
p466
aa(lp467
Vadvmod
p468
aVworth-11
p469
aVlater-6
p470
aa(lp471
Vdet
p472
aVhome-9
p473
aVthe-8
p474
aa(lp475
Vnsubj
p476
aVworth-11
p477
aVhome-9
p478
aa(lp479
Vcop
p480
aVworth-11
p481
aVis-10
p482
aa(lp483
Vdep
p484
aVworth-11
p485
aV$-12
p486
aa(lp487
Vnum
p488
aV$-12
p489
aV108,570-13
p490
aasa(dp491
Vparsetree
p492
V(ROOT (SBARQ (WHNP (WP What)) (SQ (VBD was) (NP (NP (DT the) (NNS times)) (PP (IN of) (NP (NP (NN increase)) (PP (IN in) (NP (PRP$ its) (NN value))))))) (. ?)))
p493
sVtext
p494
VWhat was the times of increase in its value ?
p495
sVdependencies
p496
(lp497
(lp498
Vroot
p499
aVROOT
p500
aVWhat
p501
aa(lp502
Vcop
p503
aVWhat
p504
aVwas
p505
aa(lp506
Vdet
p507
aVtimes
p508
aVthe
p509
aa(lp510
Vnsubj
p511
aVWhat
p512
aVtimes
p513
aa(lp514
Vprep_of
p515
aVtimes
p516
aVincrease
p517
aa(lp518
Vposs
p519
aVvalue
p520
aVits
p521
aa(lp522
Vprep_in
p523
aVincrease
p524
aVvalue
p525
aasVwords
p526
(lp527
(lp528
VWhat
p529
a(dp530
VNamedEntityTag
p531
g60
sVCharacterOffsetEnd
p532
V108
p533
sVCharacterOffsetBegin
p534
V104
p535
sVPartOfSpeech
p536
VWP
p537
sVLemma
p538
Vwhat
p539
saa(lp540
Vwas
p541
a(dp542
VNamedEntityTag
p543
g60
sVCharacterOffsetEnd
p544
V112
p545
sVCharacterOffsetBegin
p546
V109
p547
sVPartOfSpeech
p548
VVBD
p549
sVLemma
p550
Vbe
p551
saa(lp552
Vthe
p553
a(dp554
VNamedEntityTag
p555
g60
sVCharacterOffsetEnd
p556
V116
p557
sVCharacterOffsetBegin
p558
V113
p559
sVPartOfSpeech
p560
VDT
p561
sVLemma
p562
Vthe
p563
saa(lp564
Vtimes
p565
a(dp566
VNamedEntityTag
p567
g60
sVCharacterOffsetEnd
p568
V122
p569
sVCharacterOffsetBegin
p570
V117
p571
sVPartOfSpeech
p572
VNNS
p573
sVLemma
p574
Vtime
p575
saa(lp576
Vof
p577
a(dp578
VNamedEntityTag
p579
g60
sVCharacterOffsetEnd
p580
V125
p581
sVCharacterOffsetBegin
p582
V123
p583
sVPartOfSpeech
p584
VIN
p585
sVLemma
p586
Vof
p587
saa(lp588
Vincrease
p589
a(dp590
VNamedEntityTag
p591
g60
sVCharacterOffsetEnd
p592
V134
p593
sVCharacterOffsetBegin
p594
V126
p595
sVPartOfSpeech
p596
VNN
p597
sVLemma
p598
Vincrease
p599
saa(lp600
Vin
p601
a(dp602
VNamedEntityTag
p603
g60
sVCharacterOffsetEnd
p604
V137
p605
sVCharacterOffsetBegin
p606
V135
p607
sVPartOfSpeech
p608
VIN
p609
sVLemma
p610
Vin
p611
saa(lp612
Vits
p613
a(dp614
VNamedEntityTag
p615
g60
sVCharacterOffsetEnd
p616
V141
p617
sVCharacterOffsetBegin
p618
V138
p619
sVPartOfSpeech
p620
VPRP$
p621
sVLemma
p622
Vits
p623
saa(lp624
Vvalue
p625
a(dp626
VNamedEntityTag
p627
g60
sVCharacterOffsetEnd
p628
V147
p629
sVCharacterOffsetBegin
p630
V142
p631
sVPartOfSpeech
p632
VNN
p633
sVLemma
p634
Vvalue
p635
saa(lp636
V?
p637
a(dp638
VNamedEntityTag
p639
g60
sVCharacterOffsetEnd
p640
V149
p641
sVCharacterOffsetBegin
p642
V148
p643
sVPartOfSpeech
p644
g166
sVLemma
p645
g637
saasVindexeddependencies
p646
(lp647
(lp648
Vroot
p649
aVROOT-0
p650
aVWhat-1
p651
aa(lp652
Vcop
p653
aVWhat-1
p654
aVwas-2
p655
aa(lp656
Vdet
p657
aVtimes-4
p658
aVthe-3
p659
aa(lp660
Vnsubj
p661
aVWhat-1
p662
aVtimes-4
p663
aa(lp664
Vprep_of
p665
aVtimes-4
p666
aVincrease-6
p667
aa(lp668
Vposs
p669
aVvalue-9
p670
aVits-8
p671
aa(lp672
Vprep_in
p673
aVincrease-6
p674
aVvalue-9
p675
aasas.