(dp0
Vcoref
p1
(lp2
(lp3
(lp4
(lp5
VThis year
p6
aI1
aI1
aI0
aI2
aa(lp7
VLast year
p8
aI0
aI1
aI0
aI2
aaa(lp9
(lp10
Vit
p11
aI1
aI6
aI6
aI7
aa(lp12
VLast year
p13
aI0
aI1
aI0
aI2
aaa(lp14
(lp15
Vthis year
p16
aI2
aI7
aI6
aI8
aa(lp17
VLast year
p18
aI0
aI1
aI0
aI2
aaaasVsentences
p19
(lp20
(dp21
Vparsetree
p22
V(ROOT (S (NP-TMP (JJ Last) (NN year)) (, ,) (NP (NP (DT the) (NN student) (NN population)) (PP (IN at) (NP (NNP Russell) (NNP Elementary) (NNP School)))) (VP (VBD was) (NP (CD 410) (NNS students))) (. .)))
p23
sVtext
p24
VLast year , the student population at Russell Elementary School was 410 students .
p25
sVdependencies
p26
(lp27
(lp28
Vroot
p29
aVROOT
p30
aVstudents
p31
aa(lp32
Vamod
p33
aVyear
p34
aVLast
p35
aa(lp36
Vtmod
p37
aVstudents
p38
aVyear
p39
aa(lp40
Vdet
p41
aVpopulation
p42
aVthe
p43
aa(lp44
Vnn
p45
aVpopulation
p46
aVstudent
p47
aa(lp48
Vnsubj
p49
aVstudents
p50
aVpopulation
p51
aa(lp52
Vnn
p53
aVSchool
p54
aVRussell
p55
aa(lp56
Vnn
p57
aVSchool
p58
aVElementary
p59
aa(lp60
Vprep_at
p61
aVpopulation
p62
aVSchool
p63
aa(lp64
Vcop
p65
aVstudents
p66
aVwas
p67
aa(lp68
Vnum
p69
aVstudents
p70
aV410
p71
aasVwords
p72
(lp73
(lp74
VLast
p75
a(dp76
VNormalizedNamedEntityTag
p77
VTHIS
p78
sVTimex
p79
V<TIMEX3 alt_value="THIS P1Y OFFSET P-1Y" anchorTimeID="t2" temporalFunction="true" tid="t1" type="DATE" valueFromFunction="tf0">Last year</TIMEX3>
p80
sVLemma
p81
Vlast
p82
sVCharacterOffsetEnd
p83
V5
p84
sVPartOfSpeech
p85
VJJ
p86
sVCharacterOffsetBegin
p87
V1
p88
sVNamedEntityTag
p89
VDATE
p90
saa(lp91
Vyear
p92
a(dp93
VNormalizedNamedEntityTag
p94
VTHIS
p95
sVTimex
p96
V<TIMEX3 alt_value="THIS P1Y OFFSET P-1Y" anchorTimeID="t2" temporalFunction="true" tid="t1" type="DATE" valueFromFunction="tf0">Last year</TIMEX3>
p97
sVLemma
p98
Vyear
p99
sVCharacterOffsetEnd
p100
V10
p101
sVPartOfSpeech
p102
VNN
p103
sVCharacterOffsetBegin
p104
V6
p105
sVNamedEntityTag
p106
VDATE
p107
saa(lp108
V,
p109
a(dp110
VNamedEntityTag
p111
VO
p112
sVCharacterOffsetEnd
p113
V12
p114
sVCharacterOffsetBegin
p115
V11
p116
sVPartOfSpeech
p117
g109
sVLemma
p118
g109
saa(lp119
Vthe
p120
a(dp121
VNamedEntityTag
p122
g112
sVCharacterOffsetEnd
p123
V16
p124
sVCharacterOffsetBegin
p125
V13
p126
sVPartOfSpeech
p127
VDT
p128
sVLemma
p129
Vthe
p130
saa(lp131
Vstudent
p132
a(dp133
VNamedEntityTag
p134
g112
sVCharacterOffsetEnd
p135
V24
p136
sVCharacterOffsetBegin
p137
V17
p138
sVPartOfSpeech
p139
VNN
p140
sVLemma
p141
Vstudent
p142
saa(lp143
Vpopulation
p144
a(dp145
VNamedEntityTag
p146
g112
sVCharacterOffsetEnd
p147
V35
p148
sVCharacterOffsetBegin
p149
V25
p150
sVPartOfSpeech
p151
VNN
p152
sVLemma
p153
Vpopulation
p154
saa(lp155
Vat
p156
a(dp157
VNamedEntityTag
p158
g112
sVCharacterOffsetEnd
p159
V38
p160
sVCharacterOffsetBegin
p161
V36
p162
sVPartOfSpeech
p163
VIN
p164
sVLemma
p165
Vat
p166
saa(lp167
VRussell
p168
a(dp169
VNamedEntityTag
p170
VORGANIZATION
p171
sVCharacterOffsetEnd
p172
V46
p173
sVCharacterOffsetBegin
p174
V39
p175
sVPartOfSpeech
p176
VNNP
p177
sVLemma
p178
VRussell
p179
saa(lp180
VElementary
p181
a(dp182
VNamedEntityTag
p183
VORGANIZATION
p184
sVCharacterOffsetEnd
p185
V57
p186
sVCharacterOffsetBegin
p187
V47
p188
sVPartOfSpeech
p189
VNNP
p190
sVLemma
p191
VElementary
p192
saa(lp193
VSchool
p194
a(dp195
VNamedEntityTag
p196
VORGANIZATION
p197
sVCharacterOffsetEnd
p198
V64
p199
sVCharacterOffsetBegin
p200
V58
p201
sVPartOfSpeech
p202
VNNP
p203
sVLemma
p204
VSchool
p205
saa(lp206
Vwas
p207
a(dp208
VNamedEntityTag
p209
g112
sVCharacterOffsetEnd
p210
V68
p211
sVCharacterOffsetBegin
p212
V65
p213
sVPartOfSpeech
p214
VVBD
p215
sVLemma
p216
Vbe
p217
saa(lp218
V410
p219
a(dp220
VNormalizedNamedEntityTag
p221
V410.0
p222
sVLemma
p223
V410
p224
sVCharacterOffsetEnd
p225
V72
p226
sVPartOfSpeech
p227
VCD
p228
sVCharacterOffsetBegin
p229
V69
p230
sVNamedEntityTag
p231
VNUMBER
p232
saa(lp233
Vstudents
p234
a(dp235
VNamedEntityTag
p236
g112
sVCharacterOffsetEnd
p237
V81
p238
sVCharacterOffsetBegin
p239
V73
p240
sVPartOfSpeech
p241
VNNS
p242
sVLemma
p243
Vstudent
p244
saa(lp245
V.
p246
a(dp247
VNamedEntityTag
p248
g112
sVCharacterOffsetEnd
p249
V83
p250
sVCharacterOffsetBegin
p251
V82
p252
sVPartOfSpeech
p253
g246
sVLemma
p254
g246
saasVindexeddependencies
p255
(lp256
(lp257
Vroot
p258
aVROOT-0
p259
aVstudents-13
p260
aa(lp261
Vamod
p262
aVyear-2
p263
aVLast-1
p264
aa(lp265
Vtmod
p266
aVstudents-13
p267
aVyear-2
p268
aa(lp269
Vdet
p270
aVpopulation-6
p271
aVthe-4
p272
aa(lp273
Vnn
p274
aVpopulation-6
p275
aVstudent-5
p276
aa(lp277
Vnsubj
p278
aVstudents-13
p279
aVpopulation-6
p280
aa(lp281
Vnn
p282
aVSchool-10
p283
aVRussell-8
p284
aa(lp285
Vnn
p286
aVSchool-10
p287
aVElementary-9
p288
aa(lp289
Vprep_at
p290
aVpopulation-6
p291
aVSchool-10
p292
aa(lp293
Vcop
p294
aVstudents-13
p295
aVwas-11
p296
aa(lp297
Vnum
p298
aVstudents-13
p299
aV410-12
p300
aasa(dp301
Vparsetree
p302
V(ROOT (S (NP-TMP (DT This) (NN year)) (, ,) (PP (IN after) (S (VP (VBG rezoning)))) (, ,) (NP (PRP it)) (VP (VBZ is) (ADJP (NP (CD 0.3) (NNS times)) (JJR larger))) (. .)))
p303
sVtext
p304
VThis year , after rezoning , it is 0.3 times larger .
p305
sVdependencies
p306
(lp307
(lp308
Vroot
p309
aVROOT
p310
aVlarger
p311
aa(lp312
Vdet
p313
aVyear
p314
aVThis
p315
aa(lp316
Vtmod
p317
aVlarger
p318
aVyear
p319
aa(lp320
Vprepc_after
p321
aVlarger
p322
aVrezoning
p323
aa(lp324
Vnsubj
p325
aVlarger
p326
aVit
p327
aa(lp328
Vcop
p329
aVlarger
p330
aVis
p331
aa(lp332
Vnum
p333
aVtimes
p334
aV0.3
p335
aa(lp336
Vnpadvmod
p337
aVlarger
p338
aVtimes
p339
aasVwords
p340
(lp341
(lp342
VThis
p343
a(dp344
VNormalizedNamedEntityTag
p345
VTHIS
p346
sVTimex
p347
V<TIMEX3 alt_value="THIS P1Y" anchorTimeID="t0" temporalFunction="true" tid="t3" type="DATE" valueFromFunction="tf1">This year</TIMEX3>
p348
sVLemma
p349
Vthis
p350
sVCharacterOffsetEnd
p351
V88
p352
sVPartOfSpeech
p353
VDT
p354
sVCharacterOffsetBegin
p355
V84
p356
sVNamedEntityTag
p357
VDATE
p358
saa(lp359
Vyear
p360
a(dp361
VNormalizedNamedEntityTag
p362
VTHIS
p363
sVTimex
p364
V<TIMEX3 alt_value="THIS P1Y" anchorTimeID="t0" temporalFunction="true" tid="t3" type="DATE" valueFromFunction="tf1">This year</TIMEX3>
p365
sVLemma
p366
Vyear
p367
sVCharacterOffsetEnd
p368
V93
p369
sVPartOfSpeech
p370
VNN
p371
sVCharacterOffsetBegin
p372
V89
p373
sVNamedEntityTag
p374
VDATE
p375
saa(lp376
g109
a(dp377
VNamedEntityTag
p378
g112
sVCharacterOffsetEnd
p379
V95
p380
sVCharacterOffsetBegin
p381
V94
p382
sVPartOfSpeech
p383
g109
sVLemma
p384
g109
saa(lp385
Vafter
p386
a(dp387
VNamedEntityTag
p388
g112
sVCharacterOffsetEnd
p389
V101
p390
sVCharacterOffsetBegin
p391
V96
p392
sVPartOfSpeech
p393
VIN
p394
sVLemma
p395
Vafter
p396
saa(lp397
Vrezoning
p398
a(dp399
VNamedEntityTag
p400
g112
sVCharacterOffsetEnd
p401
V110
p402
sVCharacterOffsetBegin
p403
V102
p404
sVPartOfSpeech
p405
VVBG
p406
sVLemma
p407
Vrezon
p408
saa(lp409
g109
a(dp410
VNamedEntityTag
p411
g112
sVCharacterOffsetEnd
p412
V112
p413
sVCharacterOffsetBegin
p414
V111
p415
sVPartOfSpeech
p416
g109
sVLemma
p417
g109
saa(lp418
Vit
p419
a(dp420
VNamedEntityTag
p421
g112
sVCharacterOffsetEnd
p422
V115
p423
sVCharacterOffsetBegin
p424
V113
p425
sVPartOfSpeech
p426
VPRP
p427
sVLemma
p428
Vit
p429
saa(lp430
Vis
p431
a(dp432
VNamedEntityTag
p433
g112
sVCharacterOffsetEnd
p434
V118
p435
sVCharacterOffsetBegin
p436
V116
p437
sVPartOfSpeech
p438
VVBZ
p439
sVLemma
p440
Vbe
p441
saa(lp442
V0.3
p443
a(dp444
VNormalizedNamedEntityTag
p445
V0.3
p446
sVLemma
p447
V0.3
p448
sVCharacterOffsetEnd
p449
V122
p450
sVPartOfSpeech
p451
VCD
p452
sVCharacterOffsetBegin
p453
V119
p454
sVNamedEntityTag
p455
VNUMBER
p456
saa(lp457
Vtimes
p458
a(dp459
VNamedEntityTag
p460
g112
sVCharacterOffsetEnd
p461
V128
p462
sVCharacterOffsetBegin
p463
V123
p464
sVPartOfSpeech
p465
VNNS
p466
sVLemma
p467
Vtime
p468
saa(lp469
Vlarger
p470
a(dp471
VNamedEntityTag
p472
g112
sVCharacterOffsetEnd
p473
V135
p474
sVCharacterOffsetBegin
p475
V129
p476
sVPartOfSpeech
p477
VJJR
p478
sVLemma
p479
Vlarger
p480
saa(lp481
g246
a(dp482
VNamedEntityTag
p483
g112
sVCharacterOffsetEnd
p484
V137
p485
sVCharacterOffsetBegin
p486
V136
p487
sVPartOfSpeech
p488
g246
sVLemma
p489
g246
saasVindexeddependencies
p490
(lp491
(lp492
Vroot
p493
aVROOT-0
p494
aVlarger-11
p495
aa(lp496
Vdet
p497
aVyear-2
p498
aVThis-1
p499
aa(lp500
Vtmod
p501
aVlarger-11
p502
aVyear-2
p503
aa(lp504
Vprepc_after
p505
aVlarger-11
p506
aVrezoning-5
p507
aa(lp508
Vnsubj
p509
aVlarger-11
p510
aVit-7
p511
aa(lp512
Vcop
p513
aVlarger-11
p514
aVis-8
p515
aa(lp516
Vnum
p517
aVtimes-10
p518
aV0.3-9
p519
aa(lp520
Vnpadvmod
p521
aVlarger-11
p522
aVtimes-10
p523
aasa(dp524
Vparsetree
p525
V(ROOT (SBARQ (WHNP (WHADJP (WRB How) (JJ many)) (NNS students)) (SQ (VP (VBP attend) (NP (NP (NNP Russell) (NNP Elementary)) (NP (DT this) (NN year))))) (. ?)))
p526
sVtext
p527
VHow many students attend Russell Elementary this year ?
p528
sVdependencies
p529
(lp530
(lp531
Vroot
p532
aVROOT
p533
aVattend
p534
aa(lp535
Vadvmod
p536
aVmany
p537
aVHow
p538
aa(lp539
Vamod
p540
aVstudents
p541
aVmany
p542
aa(lp543
Vnsubj
p544
aVattend
p545
aVstudents
p546
aa(lp547
Vnn
p548
aVElementary
p549
aVRussell
p550
aa(lp551
Vdobj
p552
aVattend
p553
aVElementary
p554
aa(lp555
Vdet
p556
aVyear
p557
aVthis
p558
aa(lp559
Vdep
p560
aVElementary
p561
aVyear
p562
aasVwords
p563
(lp564
(lp565
VHow
p566
a(dp567
VNamedEntityTag
p568
g112
sVCharacterOffsetEnd
p569
V141
p570
sVCharacterOffsetBegin
p571
V138
p572
sVPartOfSpeech
p573
VWRB
p574
sVLemma
p575
Vhow
p576
saa(lp577
Vmany
p578
a(dp579
VNamedEntityTag
p580
g112
sVCharacterOffsetEnd
p581
V146
p582
sVCharacterOffsetBegin
p583
V142
p584
sVPartOfSpeech
p585
VJJ
p586
sVLemma
p587
Vmany
p588
saa(lp589
Vstudents
p590
a(dp591
VNamedEntityTag
p592
g112
sVCharacterOffsetEnd
p593
V155
p594
sVCharacterOffsetBegin
p595
V147
p596
sVPartOfSpeech
p597
VNNS
p598
sVLemma
p599
Vstudent
p600
saa(lp601
Vattend
p602
a(dp603
VNamedEntityTag
p604
g112
sVCharacterOffsetEnd
p605
V162
p606
sVCharacterOffsetBegin
p607
V156
p608
sVPartOfSpeech
p609
VVBP
p610
sVLemma
p611
Vattend
p612
saa(lp613
VRussell
p614
a(dp615
VNamedEntityTag
p616
VPERSON
p617
sVCharacterOffsetEnd
p618
V170
p619
sVCharacterOffsetBegin
p620
V163
p621
sVPartOfSpeech
p622
VNNP
p623
sVLemma
p624
VRussell
p625
saa(lp626
VElementary
p627
a(dp628
VNamedEntityTag
p629
VPERSON
p630
sVCharacterOffsetEnd
p631
V181
p632
sVCharacterOffsetBegin
p633
V171
p634
sVPartOfSpeech
p635
VNNP
p636
sVLemma
p637
VElementary
p638
saa(lp639
Vthis
p640
a(dp641
VNormalizedNamedEntityTag
p642
VTHIS
p643
sVTimex
p644
V<TIMEX3 alt_value="THIS P1Y" anchorTimeID="t0" temporalFunction="true" tid="t3" type="DATE" valueFromFunction="tf1">this year</TIMEX3>
p645
sVLemma
p646
Vthis
p647
sVCharacterOffsetEnd
p648
V186
p649
sVPartOfSpeech
p650
VDT
p651
sVCharacterOffsetBegin
p652
V182
p653
sVNamedEntityTag
p654
VDATE
p655
saa(lp656
Vyear
p657
a(dp658
VNormalizedNamedEntityTag
p659
VTHIS
p660
sVTimex
p661
V<TIMEX3 alt_value="THIS P1Y" anchorTimeID="t0" temporalFunction="true" tid="t3" type="DATE" valueFromFunction="tf1">this year</TIMEX3>
p662
sVLemma
p663
Vyear
p664
sVCharacterOffsetEnd
p665
V191
p666
sVPartOfSpeech
p667
VNN
p668
sVCharacterOffsetBegin
p669
V187
p670
sVNamedEntityTag
p671
VDATE
p672
saa(lp673
V?
p674
a(dp675
VNamedEntityTag
p676
g112
sVCharacterOffsetEnd
p677
V193
p678
sVCharacterOffsetBegin
p679
V192
p680
sVPartOfSpeech
p681
g246
sVLemma
p682
g674
saasVindexeddependencies
p683
(lp684
(lp685
Vroot
p686
aVROOT-0
p687
aVattend-4
p688
aa(lp689
Vadvmod
p690
aVmany-2
p691
aVHow-1
p692
aa(lp693
Vamod
p694
aVstudents-3
p695
aVmany-2
p696
aa(lp697
Vnsubj
p698
aVattend-4
p699
aVstudents-3
p700
aa(lp701
Vnn
p702
aVElementary-6
p703
aVRussell-5
p704
aa(lp705
Vdobj
p706
aVattend-4
p707
aVElementary-6
p708
aa(lp709
Vdet
p710
aVyear-8
p711
aVthis-7
p712
aa(lp713
Vdep
p714
aVElementary-6
p715
aVyear-8
p716
aasas.