(dp0
Vcoref
p1
(lp2
(lp3
(lp4
(lp5
VIt
p6
aI1
aI0
aI0
aI1
aa(lp7
VA dust storm
p8
aI0
aI2
aI0
aI3
aaaasVsentences
p9
(lp10
(dp11
Vparsetree
p12
V(ROOT (S (NP (DT A) (NN dust) (NN storm)) (VP (VBZ sweeps) (PP (IN across) (NP (DT the) (NN prairie)))) (. .)))
p13
sVtext
p14
VA dust storm sweeps across the prairie .
p15
sVdependencies
p16
(lp17
(lp18
Vroot
p19
aVROOT
p20
aVsweeps
p21
aa(lp22
Vdet
p23
aVstorm
p24
aVA
p25
aa(lp26
Vnn
p27
aVstorm
p28
aVdust
p29
aa(lp30
Vnsubj
p31
aVsweeps
p32
aVstorm
p33
aa(lp34
Vdet
p35
aVprairie
p36
aVthe
p37
aa(lp38
Vprep_across
p39
aVsweeps
p40
aVprairie
p41
aasVwords
p42
(lp43
(lp44
g25
a(dp45
VNamedEntityTag
p46
VO
p47
sVCharacterOffsetEnd
p48
V2
p49
sVCharacterOffsetBegin
p50
V1
p51
sVPartOfSpeech
p52
VDT
p53
sVLemma
p54
Va
p55
saa(lp56
Vdust
p57
a(dp58
VNamedEntityTag
p59
g47
sVCharacterOffsetEnd
p60
V7
p61
sVCharacterOffsetBegin
p62
V3
p63
sVPartOfSpeech
p64
VNN
p65
sVLemma
p66
Vdust
p67
saa(lp68
Vstorm
p69
a(dp70
VNamedEntityTag
p71
g47
sVCharacterOffsetEnd
p72
V13
p73
sVCharacterOffsetBegin
p74
V8
p75
sVPartOfSpeech
p76
VNN
p77
sVLemma
p78
Vstorm
p79
saa(lp80
Vsweeps
p81
a(dp82
VNamedEntityTag
p83
g47
sVCharacterOffsetEnd
p84
V20
p85
sVCharacterOffsetBegin
p86
V14
p87
sVPartOfSpeech
p88
VVBZ
p89
sVLemma
p90
Vsweep
p91
saa(lp92
Vacross
p93
a(dp94
VNamedEntityTag
p95
g47
sVCharacterOffsetEnd
p96
V27
p97
sVCharacterOffsetBegin
p98
V21
p99
sVPartOfSpeech
p100
VIN
p101
sVLemma
p102
Vacross
p103
saa(lp104
Vthe
p105
a(dp106
VNamedEntityTag
p107
g47
sVCharacterOffsetEnd
p108
V31
p109
sVCharacterOffsetBegin
p110
V28
p111
sVPartOfSpeech
p112
VDT
p113
sVLemma
p114
Vthe
p115
saa(lp116
Vprairie
p117
a(dp118
VNamedEntityTag
p119
g47
sVCharacterOffsetEnd
p120
V39
p121
sVCharacterOffsetBegin
p122
V32
p123
sVPartOfSpeech
p124
VNN
p125
sVLemma
p126
Vprairie
p127
saa(lp128
V.
p129
a(dp130
VNamedEntityTag
p131
g47
sVCharacterOffsetEnd
p132
V41
p133
sVCharacterOffsetBegin
p134
V40
p135
sVPartOfSpeech
p136
g129
sVLemma
p137
g129
saasVindexeddependencies
p138
(lp139
(lp140
Vroot
p141
aVROOT-0
p142
aVsweeps-4
p143
aa(lp144
Vdet
p145
aVstorm-3
p146
aVA-1
p147
aa(lp148
Vnn
p149
aVstorm-3
p150
aVdust-2
p151
aa(lp152
Vnsubj
p153
aVsweeps-4
p154
aVstorm-3
p155
aa(lp156
Vdet
p157
aVprairie-7
p158
aVthe-6
p159
aa(lp160
Vprep_across
p161
aVsweeps-4
p162
aVprairie-7
p163
aasa(dp164
Vparsetree
p165
V(ROOT (S (NP (PRP It)) (VP (VP (VBZ covers) (NP (NP (CD 64,535) (NNS acres)) (PP (IN of) (NP (NP (DT the) (NN prairie)) (PP (IN in) (NP (NN dust))))))) (, ,) (CC but) (VP (VBZ leaves) (ADJP (NP (CD 522) (NNS acres)) (JJ untouched)))) (. .)))
p166
sVtext
p167
VIt covers 64,535 acres of the prairie in dust , but leaves 522 acres untouched .
p168
sVdependencies
p169
(lp170
(lp171
Vroot
p172
aVROOT
p173
aVcovers
p174
aa(lp175
Vnsubj
p176
aVcovers
p177
aVIt
p178
aa(lp179
Vnum
p180
aVacres
p181
aV64,535
p182
aa(lp183
Vdobj
p184
aVcovers
p185
aVacres
p186
aa(lp187
Vdet
p188
aVprairie
p189
aVthe
p190
aa(lp191
Vprep_of
p192
aVacres
p193
aVprairie
p194
aa(lp195
Vprep_in
p196
aVprairie
p197
aVdust
p198
aa(lp199
Vconj_but
p200
aVcovers
p201
aVleaves
p202
aa(lp203
Vnum
p204
aVacres
p205
aV522
p206
aa(lp207
Vnpadvmod
p208
aVuntouched
p209
aVacres
p210
aa(lp211
Vacomp
p212
aVleaves
p213
aVuntouched
p214
aasVwords
p215
(lp216
(lp217
VIt
p218
a(dp219
VNamedEntityTag
p220
g47
sVCharacterOffsetEnd
p221
V44
p222
sVCharacterOffsetBegin
p223
V42
p224
sVPartOfSpeech
p225
VPRP
p226
sVLemma
p227
Vit
p228
saa(lp229
Vcovers
p230
a(dp231
VNamedEntityTag
p232
g47
sVCharacterOffsetEnd
p233
V51
p234
sVCharacterOffsetBegin
p235
V45
p236
sVPartOfSpeech
p237
VVBZ
p238
sVLemma
p239
Vcover
p240
saa(lp241
V64,535
p242
a(dp243
VNormalizedNamedEntityTag
p244
V64535.0
p245
sVLemma
p246
V64,535
p247
sVCharacterOffsetEnd
p248
V58
p249
sVPartOfSpeech
p250
VCD
p251
sVCharacterOffsetBegin
p252
V52
p253
sVNamedEntityTag
p254
VNUMBER
p255
saa(lp256
Vacres
p257
a(dp258
VNamedEntityTag
p259
g47
sVCharacterOffsetEnd
p260
V64
p261
sVCharacterOffsetBegin
p262
V59
p263
sVPartOfSpeech
p264
VNNS
p265
sVLemma
p266
Vacre
p267
saa(lp268
Vof
p269
a(dp270
VNamedEntityTag
p271
g47
sVCharacterOffsetEnd
p272
V67
p273
sVCharacterOffsetBegin
p274
V65
p275
sVPartOfSpeech
p276
VIN
p277
sVLemma
p278
Vof
p279
saa(lp280
Vthe
p281
a(dp282
VNamedEntityTag
p283
g47
sVCharacterOffsetEnd
p284
V71
p285
sVCharacterOffsetBegin
p286
V68
p287
sVPartOfSpeech
p288
VDT
p289
sVLemma
p290
Vthe
p291
saa(lp292
Vprairie
p293
a(dp294
VNamedEntityTag
p295
g47
sVCharacterOffsetEnd
p296
V79
p297
sVCharacterOffsetBegin
p298
V72
p299
sVPartOfSpeech
p300
VNN
p301
sVLemma
p302
Vprairie
p303
saa(lp304
Vin
p305
a(dp306
VNamedEntityTag
p307
g47
sVCharacterOffsetEnd
p308
V82
p309
sVCharacterOffsetBegin
p310
V80
p311
sVPartOfSpeech
p312
VIN
p313
sVLemma
p314
Vin
p315
saa(lp316
Vdust
p317
a(dp318
VNamedEntityTag
p319
g47
sVCharacterOffsetEnd
p320
V87
p321
sVCharacterOffsetBegin
p322
V83
p323
sVPartOfSpeech
p324
VNN
p325
sVLemma
p326
Vdust
p327
saa(lp328
V,
p329
a(dp330
VNamedEntityTag
p331
g47
sVCharacterOffsetEnd
p332
V89
p333
sVCharacterOffsetBegin
p334
V88
p335
sVPartOfSpeech
p336
g329
sVLemma
p337
g329
saa(lp338
Vbut
p339
a(dp340
VNamedEntityTag
p341
g47
sVCharacterOffsetEnd
p342
V93
p343
sVCharacterOffsetBegin
p344
V90
p345
sVPartOfSpeech
p346
VCC
p347
sVLemma
p348
Vbut
p349
saa(lp350
Vleaves
p351
a(dp352
VNamedEntityTag
p353
g47
sVCharacterOffsetEnd
p354
V100
p355
sVCharacterOffsetBegin
p356
V94
p357
sVPartOfSpeech
p358
VVBZ
p359
sVLemma
p360
Vleave
p361
saa(lp362
V522
p363
a(dp364
VNormalizedNamedEntityTag
p365
V522.0
p366
sVLemma
p367
V522
p368
sVCharacterOffsetEnd
p369
V104
p370
sVPartOfSpeech
p371
VCD
p372
sVCharacterOffsetBegin
p373
V101
p374
sVNamedEntityTag
p375
VNUMBER
p376
saa(lp377
Vacres
p378
a(dp379
VNamedEntityTag
p380
g47
sVCharacterOffsetEnd
p381
V110
p382
sVCharacterOffsetBegin
p383
V105
p384
sVPartOfSpeech
p385
VNNS
p386
sVLemma
p387
Vacre
p388
saa(lp389
Vuntouched
p390
a(dp391
VNamedEntityTag
p392
g47
sVCharacterOffsetEnd
p393
V120
p394
sVCharacterOffsetBegin
p395
V111
p396
sVPartOfSpeech
p397
VJJ
p398
sVLemma
p399
Vuntouched
p400
saa(lp401
g129
a(dp402
VNamedEntityTag
p403
g47
sVCharacterOffsetEnd
p404
V122
p405
sVCharacterOffsetBegin
p406
V121
p407
sVPartOfSpeech
p408
g129
sVLemma
p409
g129
saasVindexeddependencies
p410
(lp411
(lp412
Vroot
p413
aVROOT-0
p414
aVcovers-2
p415
aa(lp416
Vnsubj
p417
aVcovers-2
p418
aVIt-1
p419
aa(lp420
Vnum
p421
aVacres-4
p422
aV64,535-3
p423
aa(lp424
Vdobj
p425
aVcovers-2
p426
aVacres-4
p427
aa(lp428
Vdet
p429
aVprairie-7
p430
aVthe-6
p431
aa(lp432
Vprep_of
p433
aVacres-4
p434
aVprairie-7
p435
aa(lp436
Vprep_in
p437
aVprairie-7
p438
aVdust-9
p439
aa(lp440
Vconj_but
p441
aVcovers-2
p442
aVleaves-12
p443
aa(lp444
Vnum
p445
aVacres-14
p446
aV522-13
p447
aa(lp448
Vnpadvmod
p449
aVuntouched-15
p450
aVacres-14
p451
aa(lp452
Vacomp
p453
aVleaves-12
p454
aVuntouched-15
p455
aasa(dp456
Vparsetree
p457
V(ROOT (SBARQ (WHNP (WHADJP (WRB How) (JJ many)) (NNS acres)) (SQ (VP (VBZ does) (NP (DT the) (NN prairie) (NN cover)))) (. ?)))
p458
sVtext
p459
VHow many acres does the prairie cover ?
p460
sVdependencies
p461
(lp462
(lp463
Vroot
p464
aVROOT
p465
aVdoes
p466
aa(lp467
Vadvmod
p468
aVmany
p469
aVHow
p470
aa(lp471
Vamod
p472
aVacres
p473
aVmany
p474
aa(lp475
Vnsubj
p476
aVdoes
p477
aVacres
p478
aa(lp479
Vdet
p480
aVcover
p481
aVthe
p482
aa(lp483
Vnn
p484
aVcover
p485
aVprairie
p486
aa(lp487
Vdobj
p488
aVdoes
p489
aVcover
p490
aasVwords
p491
(lp492
(lp493
VHow
p494
a(dp495
VNamedEntityTag
p496
g47
sVCharacterOffsetEnd
p497
V126
p498
sVCharacterOffsetBegin
p499
V123
p500
sVPartOfSpeech
p501
VWRB
p502
sVLemma
p503
Vhow
p504
saa(lp505
Vmany
p506
a(dp507
VNamedEntityTag
p508
g47
sVCharacterOffsetEnd
p509
V131
p510
sVCharacterOffsetBegin
p511
V127
p512
sVPartOfSpeech
p513
VJJ
p514
sVLemma
p515
Vmany
p516
saa(lp517
Vacres
p518
a(dp519
VNamedEntityTag
p520
g47
sVCharacterOffsetEnd
p521
V137
p522
sVCharacterOffsetBegin
p523
V132
p524
sVPartOfSpeech
p525
VNNS
p526
sVLemma
p527
Vacre
p528
saa(lp529
Vdoes
p530
a(dp531
VNamedEntityTag
p532
g47
sVCharacterOffsetEnd
p533
V142
p534
sVCharacterOffsetBegin
p535
V138
p536
sVPartOfSpeech
p537
VVBZ
p538
sVLemma
p539
Vdo
p540
saa(lp541
Vthe
p542
a(dp543
VNamedEntityTag
p544
g47
sVCharacterOffsetEnd
p545
V146
p546
sVCharacterOffsetBegin
p547
V143
p548
sVPartOfSpeech
p549
VDT
p550
sVLemma
p551
Vthe
p552
saa(lp553
Vprairie
p554
a(dp555
VNamedEntityTag
p556
g47
sVCharacterOffsetEnd
p557
V154
p558
sVCharacterOffsetBegin
p559
V147
p560
sVPartOfSpeech
p561
VNN
p562
sVLemma
p563
Vprairie
p564
saa(lp565
Vcover
p566
a(dp567
VNamedEntityTag
p568
g47
sVCharacterOffsetEnd
p569
V160
p570
sVCharacterOffsetBegin
p571
V155
p572
sVPartOfSpeech
p573
VNN
p574
sVLemma
p575
Vcover
p576
saa(lp577
V?
p578
a(dp579
VNamedEntityTag
p580
g47
sVCharacterOffsetEnd
p581
V162
p582
sVCharacterOffsetBegin
p583
V161
p584
sVPartOfSpeech
p585
g129
sVLemma
p586
g578
saasVindexeddependencies
p587
(lp588
(lp589
Vroot
p590
aVROOT-0
p591
aVdoes-4
p592
aa(lp593
Vadvmod
p594
aVmany-2
p595
aVHow-1
p596
aa(lp597
Vamod
p598
aVacres-3
p599
aVmany-2
p600
aa(lp601
Vnsubj
p602
aVdoes-4
p603
aVacres-3
p604
aa(lp605
Vdet
p606
aVcover-7
p607
aVthe-5
p608
aa(lp609
Vnn
p610
aVcover-7
p611
aVprairie-6
p612
aa(lp613
Vdobj
p614
aVdoes-4
p615
aVcover-7
p616
aasas.