(dp0
Vcoref
p1
(lp2
(lp3
(lp4
(lp5
Vspots
p6
aI2
aI10
aI10
aI11
aa(lp7
Vspots
p8
aI2
aI5
aI5
aI6
aaaasVsentences
p9
(lp10
(dp11
Vparsetree
p12
V(ROOT (S (NP (NP (DT Some) (NNS insects)) (VP (VBN called) (NP (NNS aphids)))) (VP (VBP attack) (NP (DT a) (JJ large) (NN farm))) (. .)))
p13
sVtext
p14
VSome insects called aphids attack a large farm .
p15
sVdependencies
p16
(lp17
(lp18
Vroot
p19
aVROOT
p20
aVattack
p21
aa(lp22
Vdet
p23
aVinsects
p24
aVSome
p25
aa(lp26
Vnsubj
p27
aVattack
p28
aVinsects
p29
aa(lp30
Vvmod
p31
aVinsects
p32
aVcalled
p33
aa(lp34
Vdobj
p35
aVcalled
p36
aVaphids
p37
aa(lp38
Vdet
p39
aVfarm
p40
aVa
p41
aa(lp42
Vamod
p43
aVfarm
p44
aVlarge
p45
aa(lp46
Vdobj
p47
aVattack
p48
aVfarm
p49
aasVwords
p50
(lp51
(lp52
VSome
p53
a(dp54
VNamedEntityTag
p55
VO
p56
sVCharacterOffsetEnd
p57
V5
p58
sVCharacterOffsetBegin
p59
V1
p60
sVPartOfSpeech
p61
VDT
p62
sVLemma
p63
Vsome
p64
saa(lp65
Vinsects
p66
a(dp67
VNamedEntityTag
p68
g56
sVCharacterOffsetEnd
p69
V13
p70
sVCharacterOffsetBegin
p71
V6
p72
sVPartOfSpeech
p73
VNNS
p74
sVLemma
p75
Vinsect
p76
saa(lp77
Vcalled
p78
a(dp79
VNamedEntityTag
p80
g56
sVCharacterOffsetEnd
p81
V20
p82
sVCharacterOffsetBegin
p83
V14
p84
sVPartOfSpeech
p85
VVBN
p86
sVLemma
p87
Vcall
p88
saa(lp89
Vaphids
p90
a(dp91
VNamedEntityTag
p92
g56
sVCharacterOffsetEnd
p93
V27
p94
sVCharacterOffsetBegin
p95
V21
p96
sVPartOfSpeech
p97
VNNS
p98
sVLemma
p99
Vaphid
p100
saa(lp101
Vattack
p102
a(dp103
VNamedEntityTag
p104
g56
sVCharacterOffsetEnd
p105
V34
p106
sVCharacterOffsetBegin
p107
V28
p108
sVPartOfSpeech
p109
VVBP
p110
sVLemma
p111
Vattack
p112
saa(lp113
g41
a(dp114
VNamedEntityTag
p115
g56
sVCharacterOffsetEnd
p116
V36
p117
sVCharacterOffsetBegin
p118
V35
p119
sVPartOfSpeech
p120
VDT
p121
sVLemma
p122
g41
saa(lp123
Vlarge
p124
a(dp125
VNamedEntityTag
p126
g56
sVCharacterOffsetEnd
p127
V42
p128
sVCharacterOffsetBegin
p129
V37
p130
sVPartOfSpeech
p131
VJJ
p132
sVLemma
p133
Vlarge
p134
saa(lp135
Vfarm
p136
a(dp137
VNamedEntityTag
p138
g56
sVCharacterOffsetEnd
p139
V47
p140
sVCharacterOffsetBegin
p141
V43
p142
sVPartOfSpeech
p143
VNN
p144
sVLemma
p145
Vfarm
p146
saa(lp147
V.
p148
a(dp149
VNamedEntityTag
p150
g56
sVCharacterOffsetEnd
p151
V49
p152
sVCharacterOffsetBegin
p153
V48
p154
sVPartOfSpeech
p155
g148
sVLemma
p156
g148
saasVindexeddependencies
p157
(lp158
(lp159
Vroot
p160
aVROOT-0
p161
aVattack-5
p162
aa(lp163
Vdet
p164
aVinsects-2
p165
aVSome-1
p166
aa(lp167
Vnsubj
p168
aVattack-5
p169
aVinsects-2
p170
aa(lp171
Vvmod
p172
aVinsects-2
p173
aVcalled-3
p174
aa(lp175
Vdobj
p176
aVcalled-3
p177
aVaphids-4
p178
aa(lp179
Vdet
p180
aVfarm-8
p181
aVa-6
p182
aa(lp183
Vamod
p184
aVfarm-8
p185
aVlarge-7
p186
aa(lp187
Vdobj
p188
aVattack-5
p189
aVfarm-8
p190
aasa(dp191
Vparsetree
p192
V(ROOT (S (PP (IN In) (NP (NN response))) (, ,) (NP (DT the) (NN farmer)) (VP (VBZ releases) (NP (NNS ladybugs)) (PP (IN onto) (NP (DT the) (NNS fields)))) (. .)))
p193
sVtext
p194
VIn response , the farmer releases ladybugs onto the fields .
p195
sVdependencies
p196
(lp197
(lp198
Vroot
p199
aVROOT
p200
aVreleases
p201
aa(lp202
Vprep_in
p203
aVreleases
p204
aVresponse
p205
aa(lp206
Vdet
p207
aVfarmer
p208
aVthe
p209
aa(lp210
Vnsubj
p211
aVreleases
p212
aVfarmer
p213
aa(lp214
Vdobj
p215
aVreleases
p216
aVladybugs
p217
aa(lp218
Vdet
p219
aVfields
p220
aVthe
p221
aa(lp222
Vprep_onto
p223
aVreleases
p224
aVfields
p225
aasVwords
p226
(lp227
(lp228
VIn
p229
a(dp230
VNamedEntityTag
p231
g56
sVCharacterOffsetEnd
p232
V52
p233
sVCharacterOffsetBegin
p234
V50
p235
sVPartOfSpeech
p236
VIN
p237
sVLemma
p238
Vin
p239
saa(lp240
Vresponse
p241
a(dp242
VNamedEntityTag
p243
g56
sVCharacterOffsetEnd
p244
V61
p245
sVCharacterOffsetBegin
p246
V53
p247
sVPartOfSpeech
p248
VNN
p249
sVLemma
p250
Vresponse
p251
saa(lp252
V,
p253
a(dp254
VNamedEntityTag
p255
g56
sVCharacterOffsetEnd
p256
V63
p257
sVCharacterOffsetBegin
p258
V62
p259
sVPartOfSpeech
p260
g253
sVLemma
p261
g253
saa(lp262
Vthe
p263
a(dp264
VNamedEntityTag
p265
g56
sVCharacterOffsetEnd
p266
V67
p267
sVCharacterOffsetBegin
p268
V64
p269
sVPartOfSpeech
p270
VDT
p271
sVLemma
p272
Vthe
p273
saa(lp274
Vfarmer
p275
a(dp276
VNamedEntityTag
p277
g56
sVCharacterOffsetEnd
p278
V74
p279
sVCharacterOffsetBegin
p280
V68
p281
sVPartOfSpeech
p282
VNN
p283
sVLemma
p284
Vfarmer
p285
saa(lp286
Vreleases
p287
a(dp288
VNamedEntityTag
p289
g56
sVCharacterOffsetEnd
p290
V83
p291
sVCharacterOffsetBegin
p292
V75
p293
sVPartOfSpeech
p294
VVBZ
p295
sVLemma
p296
Vrelease
p297
saa(lp298
Vladybugs
p299
a(dp300
VNamedEntityTag
p301
g56
sVCharacterOffsetEnd
p302
V92
p303
sVCharacterOffsetBegin
p304
V84
p305
sVPartOfSpeech
p306
VNNS
p307
sVLemma
p308
Vladybug
p309
saa(lp310
Vonto
p311
a(dp312
VNamedEntityTag
p313
g56
sVCharacterOffsetEnd
p314
V97
p315
sVCharacterOffsetBegin
p316
V93
p317
sVPartOfSpeech
p318
VIN
p319
sVLemma
p320
Vonto
p321
saa(lp322
Vthe
p323
a(dp324
VNamedEntityTag
p325
g56
sVCharacterOffsetEnd
p326
V101
p327
sVCharacterOffsetBegin
p328
V98
p329
sVPartOfSpeech
p330
VDT
p331
sVLemma
p332
Vthe
p333
saa(lp334
Vfields
p335
a(dp336
VNamedEntityTag
p337
g56
sVCharacterOffsetEnd
p338
V108
p339
sVCharacterOffsetBegin
p340
V102
p341
sVPartOfSpeech
p342
VNNS
p343
sVLemma
p344
Vfield
p345
saa(lp346
g148
a(dp347
VNamedEntityTag
p348
g56
sVCharacterOffsetEnd
p349
V110
p350
sVCharacterOffsetBegin
p351
V109
p352
sVPartOfSpeech
p353
g148
sVLemma
p354
g148
saasVindexeddependencies
p355
(lp356
(lp357
Vroot
p358
aVROOT-0
p359
aVreleases-6
p360
aa(lp361
Vprep_in
p362
aVreleases-6
p363
aVresponse-2
p364
aa(lp365
Vdet
p366
aVfarmer-5
p367
aVthe-4
p368
aa(lp369
Vnsubj
p370
aVreleases-6
p371
aVfarmer-5
p372
aa(lp373
Vdobj
p374
aVreleases-6
p375
aVladybugs-7
p376
aa(lp377
Vdet
p378
aVfields-10
p379
aVthe-9
p380
aa(lp381
Vprep_onto
p382
aVreleases-6
p383
aVfields-10
p384
aasa(dp385
Vparsetree
p386
V(ROOT (S (NP (EX There)) (VP (VBP are) (NP (NP (CD 12,170) (NNS ladybugs)) (PP (IN with) (NP (NP (NNS spots)) (CC and) (NP (CD 54,912) (NNS ladybugs))))) (PP (IN without) (NP (NNS spots)))) (. .)))
p387
sVtext
p388
VThere are 12,170 ladybugs with spots and 54,912 ladybugs without spots .
p389
sVdependencies
p390
(lp391
(lp392
Vroot
p393
aVROOT
p394
aVare
p395
aa(lp396
Vexpl
p397
aVare
p398
aVThere
p399
aa(lp400
Vnum
p401
aVladybugs
p402
aV12,170
p403
aa(lp404
Vnsubj
p405
aVare
p406
aVladybugs
p407
aa(lp408
Vprep_with
p409
aVladybugs
p410
aVspots
p411
aa(lp412
Vnum
p413
aVladybugs
p414
aV54,912
p415
aa(lp416
Vconj_and
p417
aVspots
p418
aVladybugs
p419
aa(lp420
Vprep_without
p421
aVare
p422
aVspots
p423
aasVwords
p424
(lp425
(lp426
VThere
p427
a(dp428
VNamedEntityTag
p429
g56
sVCharacterOffsetEnd
p430
V116
p431
sVCharacterOffsetBegin
p432
V111
p433
sVPartOfSpeech
p434
VEX
p435
sVLemma
p436
Vthere
p437
saa(lp438
Vare
p439
a(dp440
VNamedEntityTag
p441
g56
sVCharacterOffsetEnd
p442
V120
p443
sVCharacterOffsetBegin
p444
V117
p445
sVPartOfSpeech
p446
VVBP
p447
sVLemma
p448
Vbe
p449
saa(lp450
V12,170
p451
a(dp452
VNormalizedNamedEntityTag
p453
V12170.0
p454
sVLemma
p455
V12,170
p456
sVCharacterOffsetEnd
p457
V127
p458
sVPartOfSpeech
p459
VCD
p460
sVCharacterOffsetBegin
p461
V121
p462
sVNamedEntityTag
p463
VNUMBER
p464
saa(lp465
Vladybugs
p466
a(dp467
VNamedEntityTag
p468
g56
sVCharacterOffsetEnd
p469
V136
p470
sVCharacterOffsetBegin
p471
V128
p472
sVPartOfSpeech
p473
VNNS
p474
sVLemma
p475
Vladybug
p476
saa(lp477
Vwith
p478
a(dp479
VNamedEntityTag
p480
g56
sVCharacterOffsetEnd
p481
V141
p482
sVCharacterOffsetBegin
p483
V137
p484
sVPartOfSpeech
p485
VIN
p486
sVLemma
p487
Vwith
p488
saa(lp489
Vspots
p490
a(dp491
VNamedEntityTag
p492
g56
sVCharacterOffsetEnd
p493
V147
p494
sVCharacterOffsetBegin
p495
V142
p496
sVPartOfSpeech
p497
VNNS
p498
sVLemma
p499
Vspot
p500
saa(lp501
Vand
p502
a(dp503
VNamedEntityTag
p504
g56
sVCharacterOffsetEnd
p505
V151
p506
sVCharacterOffsetBegin
p507
V148
p508
sVPartOfSpeech
p509
VCC
p510
sVLemma
p511
Vand
p512
saa(lp513
V54,912
p514
a(dp515
VNormalizedNamedEntityTag
p516
V54912.0
p517
sVLemma
p518
V54,912
p519
sVCharacterOffsetEnd
p520
V158
p521
sVPartOfSpeech
p522
VCD
p523
sVCharacterOffsetBegin
p524
V152
p525
sVNamedEntityTag
p526
VNUMBER
p527
saa(lp528
Vladybugs
p529
a(dp530
VNamedEntityTag
p531
g56
sVCharacterOffsetEnd
p532
V167
p533
sVCharacterOffsetBegin
p534
V159
p535
sVPartOfSpeech
p536
VNNS
p537
sVLemma
p538
Vladybug
p539
saa(lp540
Vwithout
p541
a(dp542
VNamedEntityTag
p543
g56
sVCharacterOffsetEnd
p544
V175
p545
sVCharacterOffsetBegin
p546
V168
p547
sVPartOfSpeech
p548
VIN
p549
sVLemma
p550
Vwithout
p551
saa(lp552
Vspots
p553
a(dp554
VNamedEntityTag
p555
g56
sVCharacterOffsetEnd
p556
V181
p557
sVCharacterOffsetBegin
p558
V176
p559
sVPartOfSpeech
p560
VNNS
p561
sVLemma
p562
Vspot
p563
saa(lp564
g148
a(dp565
VNamedEntityTag
p566
g56
sVCharacterOffsetEnd
p567
V183
p568
sVCharacterOffsetBegin
p569
V182
p570
sVPartOfSpeech
p571
g148
sVLemma
p572
g148
saasVindexeddependencies
p573
(lp574
(lp575
Vroot
p576
aVROOT-0
p577
aVare-2
p578
aa(lp579
Vexpl
p580
aVare-2
p581
aVThere-1
p582
aa(lp583
Vnum
p584
aVladybugs-4
p585
aV12,170-3
p586
aa(lp587
Vnsubj
p588
aVare-2
p589
aVladybugs-4
p590
aa(lp591
Vprep_with
p592
aVladybugs-4
p593
aVspots-6
p594
aa(lp595
Vnum
p596
aVladybugs-9
p597
aV54,912-8
p598
aa(lp599
Vconj_and
p600
aVspots-6
p601
aVladybugs-9
p602
aa(lp603
Vprep_without
p604
aVare-2
p605
aVspots-11
p606
aasa(dp607
Vparsetree
p608
V(ROOT (SBARQ (WHNP (WHADJP (WRB How) (JJ many)) (NNS ladybugs)) (SQ (VBP are) (NP (EX there)) (PP (IN in) (NP (DT all)))) (. ?)))
p609
sVtext
p610
VHow many ladybugs are there in all ?
p611
sVdependencies
p612
(lp613
(lp614
Vroot
p615
aVROOT
p616
aVare
p617
aa(lp618
Vadvmod
p619
aVmany
p620
aVHow
p621
aa(lp622
Vamod
p623
aVladybugs
p624
aVmany
p625
aa(lp626
Vnsubj
p627
aVare
p628
aVladybugs
p629
aa(lp630
Vexpl
p631
aVare
p632
aVthere
p633
aa(lp634
Vprep_in
p635
aVare
p636
aVall
p637
aasVwords
p638
(lp639
(lp640
VHow
p641
a(dp642
VNamedEntityTag
p643
g56
sVCharacterOffsetEnd
p644
V187
p645
sVCharacterOffsetBegin
p646
V184
p647
sVPartOfSpeech
p648
VWRB
p649
sVLemma
p650
Vhow
p651
saa(lp652
Vmany
p653
a(dp654
VNamedEntityTag
p655
g56
sVCharacterOffsetEnd
p656
V192
p657
sVCharacterOffsetBegin
p658
V188
p659
sVPartOfSpeech
p660
VJJ
p661
sVLemma
p662
Vmany
p663
saa(lp664
Vladybugs
p665
a(dp666
VNamedEntityTag
p667
g56
sVCharacterOffsetEnd
p668
V201
p669
sVCharacterOffsetBegin
p670
V193
p671
sVPartOfSpeech
p672
VNNS
p673
sVLemma
p674
Vladybug
p675
saa(lp676
Vare
p677
a(dp678
VNamedEntityTag
p679
g56
sVCharacterOffsetEnd
p680
V205
p681
sVCharacterOffsetBegin
p682
V202
p683
sVPartOfSpeech
p684
VVBP
p685
sVLemma
p686
Vbe
p687
saa(lp688
Vthere
p689
a(dp690
VNamedEntityTag
p691
g56
sVCharacterOffsetEnd
p692
V211
p693
sVCharacterOffsetBegin
p694
V206
p695
sVPartOfSpeech
p696
VEX
p697
sVLemma
p698
Vthere
p699
saa(lp700
Vin
p701
a(dp702
VNamedEntityTag
p703
g56
sVCharacterOffsetEnd
p704
V214
p705
sVCharacterOffsetBegin
p706
V212
p707
sVPartOfSpeech
p708
VIN
p709
sVLemma
p710
Vin
p711
saa(lp712
Vall
p713
a(dp714
VNamedEntityTag
p715
g56
sVCharacterOffsetEnd
p716
V218
p717
sVCharacterOffsetBegin
p718
V215
p719
sVPartOfSpeech
p720
VDT
p721
sVLemma
p722
Vall
p723
saa(lp724
V?
p725
a(dp726
VNamedEntityTag
p727
g56
sVCharacterOffsetEnd
p728
V220
p729
sVCharacterOffsetBegin
p730
V219
p731
sVPartOfSpeech
p732
g148
sVLemma
p733
g725
saasVindexeddependencies
p734
(lp735
(lp736
Vroot
p737
aVROOT-0
p738
aVare-4
p739
aa(lp740
Vadvmod
p741
aVmany-2
p742
aVHow-1
p743
aa(lp744
Vamod
p745
aVladybugs-3
p746
aVmany-2
p747
aa(lp748
Vnsubj
p749
aVare-4
p750
aVladybugs-3
p751
aa(lp752
Vexpl
p753
aVare-4
p754
aVthere-5
p755
aa(lp756
Vprep_in
p757
aVare-4
p758
aVall-7
p759
aasas.