(dp0
Vcoref
p1
(lp2
(lp3
(lp4
(lp5
VNate
p6
aI0
aI4
aI4
aI5
aa(lp7
VNate 's
p8
aI2
aI7
aI7
aI9
aaa(lp9
(lp10
Vhe
p11
aI1
aI1
aI1
aI2
aa(lp12
VNate 's
p13
aI2
aI7
aI7
aI9
aaa(lp14
(lp15
Vhe
p16
aI1
aI6
aI6
aI7
aa(lp17
VNate 's
p18
aI2
aI7
aI7
aI9
aaaa(lp19
(lp20
(lp21
Vnight
p22
aI1
aI11
aI11
aI12
aa(lp23
Vnight
p24
aI0
aI13
aI13
aI14
aaaasVsentences
p25
(lp26
(dp27
Vparsetree
p28
V(ROOT (S (PP (IN During) (NP (NN summer) (NN vacation))) (, ,) (NP (NNP Nate)) (VP (VBD read) (, ,) (PP (IN on) (NP (NN average))) (, ,) (NP (NP (CD 10) (NNS pages)) (PP (IN per) (NP (NN night))))) (. .)))
p29
sVtext
p30
VDuring summer vacation , Nate read , on average , 10 pages per night .
p31
sVdependencies
p32
(lp33
(lp34
Vroot
p35
aVROOT
p36
aVread
p37
aa(lp38
Vnn
p39
aVvacation
p40
aVsummer
p41
aa(lp42
Vprep_during
p43
aVread
p44
aVvacation
p45
aa(lp46
Vnsubj
p47
aVread
p48
aVNate
p49
aa(lp50
Vprep_on
p51
aVread
p52
aVaverage
p53
aa(lp54
Vnum
p55
aVpages
p56
aV10
p57
aa(lp58
Vdobj
p59
aVread
p60
aVpages
p61
aa(lp62
Vprep_per
p63
aVpages
p64
aVnight
p65
aasVwords
p66
(lp67
(lp68
VDuring
p69
a(dp70
VNamedEntityTag
p71
VO
p72
sVCharacterOffsetEnd
p73
V7
p74
sVCharacterOffsetBegin
p75
V1
p76
sVPartOfSpeech
p77
VIN
p78
sVLemma
p79
Vduring
p80
saa(lp81
Vsummer
p82
a(dp83
VNormalizedNamedEntityTag
p84
VXXXX-SU
p85
sVTimex
p86
V<TIMEX3 tid="t1" type="DATE" value="XXXX-SU">summer</TIMEX3>
p87
sVLemma
p88
Vsummer
p89
sVCharacterOffsetEnd
p90
V14
p91
sVPartOfSpeech
p92
VNN
p93
sVCharacterOffsetBegin
p94
V8
p95
sVNamedEntityTag
p96
VDATE
p97
saa(lp98
Vvacation
p99
a(dp100
VNamedEntityTag
p101
g72
sVCharacterOffsetEnd
p102
V23
p103
sVCharacterOffsetBegin
p104
V15
p105
sVPartOfSpeech
p106
VNN
p107
sVLemma
p108
Vvacation
p109
saa(lp110
V,
p111
a(dp112
VNamedEntityTag
p113
g72
sVCharacterOffsetEnd
p114
V25
p115
sVCharacterOffsetBegin
p116
V24
p117
sVPartOfSpeech
p118
g111
sVLemma
p119
g111
saa(lp120
VNate
p121
a(dp122
VNamedEntityTag
p123
VPERSON
p124
sVCharacterOffsetEnd
p125
V30
p126
sVCharacterOffsetBegin
p127
V26
p128
sVPartOfSpeech
p129
VNNP
p130
sVLemma
p131
VNate
p132
saa(lp133
Vread
p134
a(dp135
VNamedEntityTag
p136
g72
sVCharacterOffsetEnd
p137
V35
p138
sVCharacterOffsetBegin
p139
V31
p140
sVPartOfSpeech
p141
VVBD
p142
sVLemma
p143
Vread
p144
saa(lp145
g111
a(dp146
VNamedEntityTag
p147
g72
sVCharacterOffsetEnd
p148
V37
p149
sVCharacterOffsetBegin
p150
V36
p151
sVPartOfSpeech
p152
g111
sVLemma
p153
g111
saa(lp154
Von
p155
a(dp156
VNamedEntityTag
p157
g72
sVCharacterOffsetEnd
p158
V40
p159
sVCharacterOffsetBegin
p160
V38
p161
sVPartOfSpeech
p162
VIN
p163
sVLemma
p164
Von
p165
saa(lp166
Vaverage
p167
a(dp168
VNamedEntityTag
p169
g72
sVCharacterOffsetEnd
p170
V48
p171
sVCharacterOffsetBegin
p172
V41
p173
sVPartOfSpeech
p174
VNN
p175
sVLemma
p176
Vaverage
p177
saa(lp178
g111
a(dp179
VNamedEntityTag
p180
g72
sVCharacterOffsetEnd
p181
V50
p182
sVCharacterOffsetBegin
p183
V49
p184
sVPartOfSpeech
p185
g111
sVLemma
p186
g111
saa(lp187
V10
p188
a(dp189
VNormalizedNamedEntityTag
p190
V10.0
p191
sVLemma
p192
V10
p193
sVCharacterOffsetEnd
p194
V53
p195
sVPartOfSpeech
p196
VCD
p197
sVCharacterOffsetBegin
p198
V51
p199
sVNamedEntityTag
p200
VNUMBER
p201
saa(lp202
Vpages
p203
a(dp204
VNamedEntityTag
p205
g72
sVCharacterOffsetEnd
p206
V59
p207
sVCharacterOffsetBegin
p208
V54
p209
sVPartOfSpeech
p210
VNNS
p211
sVLemma
p212
Vpage
p213
saa(lp214
Vper
p215
a(dp216
VNamedEntityTag
p217
g72
sVCharacterOffsetEnd
p218
V63
p219
sVCharacterOffsetBegin
p220
V60
p221
sVPartOfSpeech
p222
VIN
p223
sVLemma
p224
Vper
p225
saa(lp226
Vnight
p227
a(dp228
VNormalizedNamedEntityTag
p229
VTNI
p230
sVTimex
p231
V<TIMEX3 tid="t2" type="TIME" value="TNI">night</TIMEX3>
p232
sVLemma
p233
Vnight
p234
sVCharacterOffsetEnd
p235
V69
p236
sVPartOfSpeech
p237
VNN
p238
sVCharacterOffsetBegin
p239
V64
p240
sVNamedEntityTag
p241
VTIME
p242
saa(lp243
V.
p244
a(dp245
VNamedEntityTag
p246
g72
sVCharacterOffsetEnd
p247
V71
p248
sVCharacterOffsetBegin
p249
V70
p250
sVPartOfSpeech
p251
g244
sVLemma
p252
g244
saasVindexeddependencies
p253
(lp254
(lp255
Vroot
p256
aVROOT-0
p257
aVread-6
p258
aa(lp259
Vnn
p260
aVvacation-3
p261
aVsummer-2
p262
aa(lp263
Vprep_during
p264
aVread-6
p265
aVvacation-3
p266
aa(lp267
Vnsubj
p268
aVread-6
p269
aVNate-5
p270
aa(lp271
Vprep_on
p272
aVread-6
p273
aVaverage-9
p274
aa(lp275
Vnum
p276
aVpages-12
p277
aV10-11
p278
aa(lp279
Vdobj
p280
aVread-6
p281
aVpages-12
p282
aa(lp283
Vprep_per
p284
aVpages-12
p285
aVnight-14
p286
aasa(dp287
Vparsetree
p288
V(ROOT (S (SBAR (RB Once) (S (NP (PRP he)) (VP (VBD returned) (PP (TO to) (NP (NN school)))))) (, ,) (NP (PRP he)) (VP (VBD averaged) (NP (NP (CD 12) (NNS pages)) (PP (IN per) (NP (NN night))))) (. .)))
p289
sVtext
p290
VOnce he returned to school , he averaged 12 pages per night .
p291
sVdependencies
p292
(lp293
(lp294
Vroot
p295
aVROOT
p296
aVaveraged
p297
aa(lp298
Vadvmod
p299
aVreturned
p300
aVOnce
p301
aa(lp302
Vnsubj
p303
aVreturned
p304
aVhe
p305
aa(lp306
Vadvcl
p307
aVaveraged
p308
aVreturned
p309
aa(lp310
Vprep_to
p311
aVreturned
p312
aVschool
p313
aa(lp314
Vnsubj
p315
aVaveraged
p316
aVhe
p317
aa(lp318
Vnum
p319
aVpages
p320
aV12
p321
aa(lp322
Vdobj
p323
aVaveraged
p324
aVpages
p325
aa(lp326
Vprep_per
p327
aVpages
p328
aVnight
p329
aasVwords
p330
(lp331
(lp332
VOnce
p333
a(dp334
VNormalizedNamedEntityTag
p335
VPAST_REF
p336
sVTimex
p337
V<TIMEX3 tid="t3" type="DATE" value="PAST_REF">Once</TIMEX3>
p338
sVLemma
p339
Vonce
p340
sVCharacterOffsetEnd
p341
V76
p342
sVPartOfSpeech
p343
VRB
p344
sVCharacterOffsetBegin
p345
V72
p346
sVNamedEntityTag
p347
VDATE
p348
saa(lp349
Vhe
p350
a(dp351
VNamedEntityTag
p352
g72
sVCharacterOffsetEnd
p353
V79
p354
sVCharacterOffsetBegin
p355
V77
p356
sVPartOfSpeech
p357
VPRP
p358
sVLemma
p359
Vhe
p360
saa(lp361
Vreturned
p362
a(dp363
VNamedEntityTag
p364
g72
sVCharacterOffsetEnd
p365
V88
p366
sVCharacterOffsetBegin
p367
V80
p368
sVPartOfSpeech
p369
VVBD
p370
sVLemma
p371
Vreturn
p372
saa(lp373
Vto
p374
a(dp375
VNamedEntityTag
p376
g72
sVCharacterOffsetEnd
p377
V91
p378
sVCharacterOffsetBegin
p379
V89
p380
sVPartOfSpeech
p381
VTO
p382
sVLemma
p383
Vto
p384
saa(lp385
Vschool
p386
a(dp387
VNamedEntityTag
p388
g72
sVCharacterOffsetEnd
p389
V98
p390
sVCharacterOffsetBegin
p391
V92
p392
sVPartOfSpeech
p393
VNN
p394
sVLemma
p395
Vschool
p396
saa(lp397
g111
a(dp398
VNamedEntityTag
p399
g72
sVCharacterOffsetEnd
p400
V100
p401
sVCharacterOffsetBegin
p402
V99
p403
sVPartOfSpeech
p404
g111
sVLemma
p405
g111
saa(lp406
Vhe
p407
a(dp408
VNamedEntityTag
p409
g72
sVCharacterOffsetEnd
p410
V103
p411
sVCharacterOffsetBegin
p412
V101
p413
sVPartOfSpeech
p414
VPRP
p415
sVLemma
p416
Vhe
p417
saa(lp418
Vaveraged
p419
a(dp420
VNamedEntityTag
p421
g72
sVCharacterOffsetEnd
p422
V112
p423
sVCharacterOffsetBegin
p424
V104
p425
sVPartOfSpeech
p426
VVBD
p427
sVLemma
p428
Vaverage
p429
saa(lp430
V12
p431
a(dp432
VNormalizedNamedEntityTag
p433
V12.0
p434
sVLemma
p435
V12
p436
sVCharacterOffsetEnd
p437
V115
p438
sVPartOfSpeech
p439
VCD
p440
sVCharacterOffsetBegin
p441
V113
p442
sVNamedEntityTag
p443
VNUMBER
p444
saa(lp445
Vpages
p446
a(dp447
VNamedEntityTag
p448
g72
sVCharacterOffsetEnd
p449
V121
p450
sVCharacterOffsetBegin
p451
V116
p452
sVPartOfSpeech
p453
VNNS
p454
sVLemma
p455
Vpage
p456
saa(lp457
Vper
p458
a(dp459
VNamedEntityTag
p460
g72
sVCharacterOffsetEnd
p461
V125
p462
sVCharacterOffsetBegin
p463
V122
p464
sVPartOfSpeech
p465
VIN
p466
sVLemma
p467
Vper
p468
saa(lp469
Vnight
p470
a(dp471
VNormalizedNamedEntityTag
p472
VTNI
p473
sVTimex
p474
V<TIMEX3 tid="t4" type="TIME" value="TNI">night</TIMEX3>
p475
sVLemma
p476
Vnight
p477
sVCharacterOffsetEnd
p478
V131
p479
sVPartOfSpeech
p480
VNN
p481
sVCharacterOffsetBegin
p482
V126
p483
sVNamedEntityTag
p484
VTIME
p485
saa(lp486
g244
a(dp487
VNamedEntityTag
p488
g72
sVCharacterOffsetEnd
p489
V133
p490
sVCharacterOffsetBegin
p491
V132
p492
sVPartOfSpeech
p493
g244
sVLemma
p494
g244
saasVindexeddependencies
p495
(lp496
(lp497
Vroot
p498
aVROOT-0
p499
aVaveraged-8
p500
aa(lp501
Vadvmod
p502
aVreturned-3
p503
aVOnce-1
p504
aa(lp505
Vnsubj
p506
aVreturned-3
p507
aVhe-2
p508
aa(lp509
Vadvcl
p510
aVaveraged-8
p511
aVreturned-3
p512
aa(lp513
Vprep_to
p514
aVreturned-3
p515
aVschool-5
p516
aa(lp517
Vnsubj
p518
aVaveraged-8
p519
aVhe-7
p520
aa(lp521
Vnum
p522
aVpages-10
p523
aV12-9
p524
aa(lp525
Vdobj
p526
aVaveraged-8
p527
aVpages-10
p528
aa(lp529
Vprep_per
p530
aVpages-10
p531
aVnight-12
p532
aasa(dp533
Vparsetree
p534
V(ROOT (SBARQ (WHNP (WP What)) (SQ (VBZ is) (NP (NP (DT the) (NNS times)) (PP (IN of) (NP (NP (NN increase)) (PP (IN in) (NP (NP (NNP Nate) (POS 's)) (NN reading))))))) (. ?)))
p535
sVtext
p536
VWhat is the times of increase in Nate's reading ?
p537
sVdependencies
p538
(lp539
(lp540
Vroot
p541
aVROOT
p542
aVWhat
p543
aa(lp544
Vcop
p545
aVWhat
p546
aVis
p547
aa(lp548
Vdet
p549
aVtimes
p550
aVthe
p551
aa(lp552
Vnsubj
p553
aVWhat
p554
aVtimes
p555
aa(lp556
Vprep_of
p557
aVtimes
p558
aVincrease
p559
aa(lp560
Vposs
p561
aVreading
p562
aVNate
p563
aa(lp564
Vprep_in
p565
aVincrease
p566
aVreading
p567
aasVwords
p568
(lp569
(lp570
VWhat
p571
a(dp572
VNamedEntityTag
p573
g72
sVCharacterOffsetEnd
p574
V138
p575
sVCharacterOffsetBegin
p576
V134
p577
sVPartOfSpeech
p578
VWP
p579
sVLemma
p580
Vwhat
p581
saa(lp582
Vis
p583
a(dp584
VNamedEntityTag
p585
g72
sVCharacterOffsetEnd
p586
V141
p587
sVCharacterOffsetBegin
p588
V139
p589
sVPartOfSpeech
p590
VVBZ
p591
sVLemma
p592
Vbe
p593
saa(lp594
Vthe
p595
a(dp596
VNamedEntityTag
p597
g72
sVCharacterOffsetEnd
p598
V145
p599
sVCharacterOffsetBegin
p600
V142
p601
sVPartOfSpeech
p602
VDT
p603
sVLemma
p604
Vthe
p605
saa(lp606
Vtimes
p607
a(dp608
VNamedEntityTag
p609
g72
sVCharacterOffsetEnd
p610
V151
p611
sVCharacterOffsetBegin
p612
V146
p613
sVPartOfSpeech
p614
VNNS
p615
sVLemma
p616
Vtime
p617
saa(lp618
Vof
p619
a(dp620
VNamedEntityTag
p621
g72
sVCharacterOffsetEnd
p622
V154
p623
sVCharacterOffsetBegin
p624
V152
p625
sVPartOfSpeech
p626
VIN
p627
sVLemma
p628
Vof
p629
saa(lp630
Vincrease
p631
a(dp632
VNamedEntityTag
p633
g72
sVCharacterOffsetEnd
p634
V163
p635
sVCharacterOffsetBegin
p636
V155
p637
sVPartOfSpeech
p638
VNN
p639
sVLemma
p640
Vincrease
p641
saa(lp642
Vin
p643
a(dp644
VNamedEntityTag
p645
g72
sVCharacterOffsetEnd
p646
V166
p647
sVCharacterOffsetBegin
p648
V164
p649
sVPartOfSpeech
p650
VIN
p651
sVLemma
p652
Vin
p653
saa(lp654
VNate
p655
a(dp656
VNamedEntityTag
p657
VPERSON
p658
sVCharacterOffsetEnd
p659
V171
p660
sVCharacterOffsetBegin
p661
V167
p662
sVPartOfSpeech
p663
VNNP
p664
sVLemma
p665
VNate
p666
saa(lp667
V's
p668
a(dp669
VNamedEntityTag
p670
g72
sVCharacterOffsetEnd
p671
V173
p672
sVCharacterOffsetBegin
p673
V171
p674
sVPartOfSpeech
p675
VPOS
p676
sVLemma
p677
V's
p678
saa(lp679
Vreading
p680
a(dp681
VNamedEntityTag
p682
g72
sVCharacterOffsetEnd
p683
V181
p684
sVCharacterOffsetBegin
p685
V174
p686
sVPartOfSpeech
p687
VNN
p688
sVLemma
p689
Vreading
p690
saa(lp691
V?
p692
a(dp693
VNamedEntityTag
p694
g72
sVCharacterOffsetEnd
p695
V183
p696
sVCharacterOffsetBegin
p697
V182
p698
sVPartOfSpeech
p699
g244
sVLemma
p700
g692
saasVindexeddependencies
p701
(lp702
(lp703
Vroot
p704
aVROOT-0
p705
aVWhat-1
p706
aa(lp707
Vcop
p708
aVWhat-1
p709
aVis-2
p710
aa(lp711
Vdet
p712
aVtimes-4
p713
aVthe-3
p714
aa(lp715
Vnsubj
p716
aVWhat-1
p717
aVtimes-4
p718
aa(lp719
Vprep_of
p720
aVtimes-4
p721
aVincrease-6
p722
aa(lp723
Vposs
p724
aVreading-10
p725
aVNate-8
p726
aa(lp727
Vprep_in
p728
aVincrease-6
p729
aVreading-10
p730
aasas.