(dp0
Vcoref
p1
(lp2
(lp3
(lp4
(lp5
VThis year
p6
aI1
aI1
aI0
aI2
aa(lp7
Vlast year
p8
aI0
aI6
aI5
aI7
aaaa(lp9
(lp10
(lp11
Vthe average
p12
aI1
aI4
aI3
aI5
aa(lp13
Van average of $ 11,890
p14
aI0
aI9
aI8
aI13
aaaasVsentences
p15
(lp16
(dp17
Vparsetree
p18
V(ROOT (S (NP (NP (NNP Engineering) (NNS students)) (PP (IN at) (NP (NNP Millersburg) (NNP College)))) (NP-TMP (JJ last) (NN year)) (VP (VBD received) (NP (NP (DT an) (NN average)) (PP (IN of) (NP ($ $) (CD 11,890)))) (PP (IN in) (NP (NNS scholarships) (CC and) (NNS grants)))) (. .)))
p19
sVtext
p20
VEngineering students at Millersburg College last year received an average of $11,890 in scholarships and grants .
p21
sVdependencies
p22
(lp23
(lp24
Vroot
p25
aVROOT
p26
aVreceived
p27
aa(lp28
Vnn
p29
aVstudents
p30
aVEngineering
p31
aa(lp32
Vnsubj
p33
aVreceived
p34
aVstudents
p35
aa(lp36
Vnn
p37
aVCollege
p38
aVMillersburg
p39
aa(lp40
Vprep_at
p41
aVstudents
p42
aVCollege
p43
aa(lp44
Vamod
p45
aVyear
p46
aVlast
p47
aa(lp48
Vtmod
p49
aVreceived
p50
aVyear
p51
aa(lp52
Vdet
p53
aVaverage
p54
aVan
p55
aa(lp56
Vdobj
p57
aVreceived
p58
aVaverage
p59
aa(lp60
Vprep_of
p61
aVaverage
p62
aV$
p63
aa(lp64
Vnum
p65
ag63
aV11,890
p66
aa(lp67
Vprep_in
p68
aVreceived
p69
aVscholarships
p70
aa(lp71
Vconj_and
p72
aVscholarships
p73
aVgrants
p74
aasVwords
p75
(lp76
(lp77
VEngineering
p78
a(dp79
VNamedEntityTag
p80
VO
p81
sVCharacterOffsetEnd
p82
V12
p83
sVCharacterOffsetBegin
p84
V1
p85
sVPartOfSpeech
p86
VNNP
p87
sVLemma
p88
VEngineering
p89
saa(lp90
Vstudents
p91
a(dp92
VNamedEntityTag
p93
g81
sVCharacterOffsetEnd
p94
V21
p95
sVCharacterOffsetBegin
p96
V13
p97
sVPartOfSpeech
p98
VNNS
p99
sVLemma
p100
Vstudent
p101
saa(lp102
Vat
p103
a(dp104
VNamedEntityTag
p105
g81
sVCharacterOffsetEnd
p106
V24
p107
sVCharacterOffsetBegin
p108
V22
p109
sVPartOfSpeech
p110
VIN
p111
sVLemma
p112
Vat
p113
saa(lp114
VMillersburg
p115
a(dp116
VNamedEntityTag
p117
VORGANIZATION
p118
sVCharacterOffsetEnd
p119
V36
p120
sVCharacterOffsetBegin
p121
V25
p122
sVPartOfSpeech
p123
VNNP
p124
sVLemma
p125
VMillersburg
p126
saa(lp127
VCollege
p128
a(dp129
VNamedEntityTag
p130
VORGANIZATION
p131
sVCharacterOffsetEnd
p132
V44
p133
sVCharacterOffsetBegin
p134
V37
p135
sVPartOfSpeech
p136
VNNP
p137
sVLemma
p138
VCollege
p139
saa(lp140
Vlast
p141
a(dp142
VNormalizedNamedEntityTag
p143
VTHIS
p144
sVTimex
p145
V<TIMEX3 alt_value="THIS P1Y OFFSET P-1Y" anchorTimeID="t2" temporalFunction="true" tid="t1" type="DATE" valueFromFunction="tf0">last year</TIMEX3>
p146
sVLemma
p147
Vlast
p148
sVCharacterOffsetEnd
p149
V49
p150
sVPartOfSpeech
p151
VJJ
p152
sVCharacterOffsetBegin
p153
V45
p154
sVNamedEntityTag
p155
VDATE
p156
saa(lp157
Vyear
p158
a(dp159
VNormalizedNamedEntityTag
p160
VTHIS
p161
sVTimex
p162
V<TIMEX3 alt_value="THIS P1Y OFFSET P-1Y" anchorTimeID="t2" temporalFunction="true" tid="t1" type="DATE" valueFromFunction="tf0">last year</TIMEX3>
p163
sVLemma
p164
Vyear
p165
sVCharacterOffsetEnd
p166
V54
p167
sVPartOfSpeech
p168
VNN
p169
sVCharacterOffsetBegin
p170
V50
p171
sVNamedEntityTag
p172
VDATE
p173
saa(lp174
Vreceived
p175
a(dp176
VNamedEntityTag
p177
g81
sVCharacterOffsetEnd
p178
V63
p179
sVCharacterOffsetBegin
p180
V55
p181
sVPartOfSpeech
p182
VVBD
p183
sVLemma
p184
Vreceive
p185
saa(lp186
Van
p187
a(dp188
VNamedEntityTag
p189
g81
sVCharacterOffsetEnd
p190
V66
p191
sVCharacterOffsetBegin
p192
V64
p193
sVPartOfSpeech
p194
VDT
p195
sVLemma
p196
Va
p197
saa(lp198
Vaverage
p199
a(dp200
VNamedEntityTag
p201
g81
sVCharacterOffsetEnd
p202
V74
p203
sVCharacterOffsetBegin
p204
V67
p205
sVPartOfSpeech
p206
VNN
p207
sVLemma
p208
Vaverage
p209
saa(lp210
Vof
p211
a(dp212
VNamedEntityTag
p213
g81
sVCharacterOffsetEnd
p214
V77
p215
sVCharacterOffsetBegin
p216
V75
p217
sVPartOfSpeech
p218
VIN
p219
sVLemma
p220
Vof
p221
saa(lp222
g63
a(dp223
VNormalizedNamedEntityTag
p224
V$11890.0
p225
sVLemma
p226
g63
sVCharacterOffsetEnd
p227
V79
p228
sVPartOfSpeech
p229
g63
sVCharacterOffsetBegin
p230
V78
p231
sVNamedEntityTag
p232
VMONEY
p233
saa(lp234
V11,890
p235
a(dp236
VNormalizedNamedEntityTag
p237
V$11890.0
p238
sVLemma
p239
V11,890
p240
sVCharacterOffsetEnd
p241
V85
p242
sVPartOfSpeech
p243
VCD
p244
sVCharacterOffsetBegin
p245
V79
p246
sVNamedEntityTag
p247
VMONEY
p248
saa(lp249
Vin
p250
a(dp251
VNamedEntityTag
p252
g81
sVCharacterOffsetEnd
p253
V88
p254
sVCharacterOffsetBegin
p255
V86
p256
sVPartOfSpeech
p257
VIN
p258
sVLemma
p259
Vin
p260
saa(lp261
Vscholarships
p262
a(dp263
VNamedEntityTag
p264
g81
sVCharacterOffsetEnd
p265
V101
p266
sVCharacterOffsetBegin
p267
V89
p268
sVPartOfSpeech
p269
VNNS
p270
sVLemma
p271
Vscholarship
p272
saa(lp273
Vand
p274
a(dp275
VNamedEntityTag
p276
g81
sVCharacterOffsetEnd
p277
V105
p278
sVCharacterOffsetBegin
p279
V102
p280
sVPartOfSpeech
p281
VCC
p282
sVLemma
p283
Vand
p284
saa(lp285
Vgrants
p286
a(dp287
VNamedEntityTag
p288
g81
sVCharacterOffsetEnd
p289
V112
p290
sVCharacterOffsetBegin
p291
V106
p292
sVPartOfSpeech
p293
VNNS
p294
sVLemma
p295
Vgrant
p296
saa(lp297
V.
p298
a(dp299
VNamedEntityTag
p300
g81
sVCharacterOffsetEnd
p301
V114
p302
sVCharacterOffsetBegin
p303
V113
p304
sVPartOfSpeech
p305
g298
sVLemma
p306
g298
saasVindexeddependencies
p307
(lp308
(lp309
Vroot
p310
aVROOT-0
p311
aVreceived-8
p312
aa(lp313
Vnn
p314
aVstudents-2
p315
aVEngineering-1
p316
aa(lp317
Vnsubj
p318
aVreceived-8
p319
aVstudents-2
p320
aa(lp321
Vnn
p322
aVCollege-5
p323
aVMillersburg-4
p324
aa(lp325
Vprep_at
p326
aVstudents-2
p327
aVCollege-5
p328
aa(lp329
Vamod
p330
aVyear-7
p331
aVlast-6
p332
aa(lp333
Vtmod
p334
aVreceived-8
p335
aVyear-7
p336
aa(lp337
Vdet
p338
aVaverage-10
p339
aVan-9
p340
aa(lp341
Vdobj
p342
aVreceived-8
p343
aVaverage-10
p344
aa(lp345
Vprep_of
p346
aVaverage-10
p347
aV$-12
p348
aa(lp349
Vnum
p350
aV$-12
p351
aV11,890-13
p352
aa(lp353
Vprep_in
p354
aVreceived-8
p355
aVscholarships-15
p356
aa(lp357
Vconj_and
p358
aVscholarships-15
p359
aVgrants-17
p360
aasa(dp361
Vparsetree
p362
V(ROOT (S (NP-TMP (DT This) (NN year)) (, ,) (NP (DT the) (NN average)) (VP (VBZ is) (NP ($ $) (CD 21,402))) (. .)))
p363
sVtext
p364
VThis year , the average is $21,402 .
p365
sVdependencies
p366
(lp367
(lp368
Vroot
p369
aVROOT
p370
ag63
aa(lp371
Vdet
p372
aVyear
p373
aVThis
p374
aa(lp375
Vtmod
p376
ag63
aVyear
p377
aa(lp378
Vdet
p379
aVaverage
p380
aVthe
p381
aa(lp382
Vnsubj
p383
ag63
aVaverage
p384
aa(lp385
Vcop
p386
ag63
aVis
p387
aa(lp388
Vnum
p389
ag63
aV21,402
p390
aasVwords
p391
(lp392
(lp393
VThis
p394
a(dp395
VNormalizedNamedEntityTag
p396
VTHIS
p397
sVTimex
p398
V<TIMEX3 alt_value="THIS P1Y" anchorTimeID="t0" temporalFunction="true" tid="t3" type="DATE" valueFromFunction="tf1">This year</TIMEX3>
p399
sVLemma
p400
Vthis
p401
sVCharacterOffsetEnd
p402
V119
p403
sVPartOfSpeech
p404
VDT
p405
sVCharacterOffsetBegin
p406
V115
p407
sVNamedEntityTag
p408
VDATE
p409
saa(lp410
Vyear
p411
a(dp412
VNormalizedNamedEntityTag
p413
VTHIS
p414
sVTimex
p415
V<TIMEX3 alt_value="THIS P1Y" anchorTimeID="t0" temporalFunction="true" tid="t3" type="DATE" valueFromFunction="tf1">This year</TIMEX3>
p416
sVLemma
p417
Vyear
p418
sVCharacterOffsetEnd
p419
V124
p420
sVPartOfSpeech
p421
VNN
p422
sVCharacterOffsetBegin
p423
V120
p424
sVNamedEntityTag
p425
VDATE
p426
saa(lp427
V,
p428
a(dp429
VNamedEntityTag
p430
g81
sVCharacterOffsetEnd
p431
V126
p432
sVCharacterOffsetBegin
p433
V125
p434
sVPartOfSpeech
p435
g428
sVLemma
p436
g428
saa(lp437
Vthe
p438
a(dp439
VNamedEntityTag
p440
g81
sVCharacterOffsetEnd
p441
V130
p442
sVCharacterOffsetBegin
p443
V127
p444
sVPartOfSpeech
p445
VDT
p446
sVLemma
p447
Vthe
p448
saa(lp449
Vaverage
p450
a(dp451
VNamedEntityTag
p452
g81
sVCharacterOffsetEnd
p453
V138
p454
sVCharacterOffsetBegin
p455
V131
p456
sVPartOfSpeech
p457
VNN
p458
sVLemma
p459
Vaverage
p460
saa(lp461
Vis
p462
a(dp463
VNamedEntityTag
p464
g81
sVCharacterOffsetEnd
p465
V141
p466
sVCharacterOffsetBegin
p467
V139
p468
sVPartOfSpeech
p469
VVBZ
p470
sVLemma
p471
Vbe
p472
saa(lp473
g63
a(dp474
VNormalizedNamedEntityTag
p475
V$21402.0
p476
sVLemma
p477
g63
sVCharacterOffsetEnd
p478
V143
p479
sVPartOfSpeech
p480
g63
sVCharacterOffsetBegin
p481
V142
p482
sVNamedEntityTag
p483
VMONEY
p484
saa(lp485
V21,402
p486
a(dp487
VNormalizedNamedEntityTag
p488
V$21402.0
p489
sVLemma
p490
V21,402
p491
sVCharacterOffsetEnd
p492
V149
p493
sVPartOfSpeech
p494
VCD
p495
sVCharacterOffsetBegin
p496
V143
p497
sVNamedEntityTag
p498
VMONEY
p499
saa(lp500
g298
a(dp501
VNamedEntityTag
p502
g81
sVCharacterOffsetEnd
p503
V151
p504
sVCharacterOffsetBegin
p505
V150
p506
sVPartOfSpeech
p507
g298
sVLemma
p508
g298
saasVindexeddependencies
p509
(lp510
(lp511
Vroot
p512
aVROOT-0
p513
aV$-7
p514
aa(lp515
Vdet
p516
aVyear-2
p517
aVThis-1
p518
aa(lp519
Vtmod
p520
aV$-7
p521
aVyear-2
p522
aa(lp523
Vdet
p524
aVaverage-5
p525
aVthe-4
p526
aa(lp527
Vnsubj
p528
aV$-7
p529
aVaverage-5
p530
aa(lp531
Vcop
p532
aV$-7
p533
aVis-6
p534
aa(lp535
Vnum
p536
aV$-7
p537
aV21,402-8
p538
aasa(dp539
Vparsetree
p540
V(ROOT (SBARQ (WHNP (WP What)) (SQ (VBZ is) (NP (NP (DT the) (NNS times)) (PP (IN of) (NP (NP (NN increase)) (PP (IN in) (NP (DT the) (JJ average) (NN amount))))))) (. ?)))
p541
sVtext
p542
VWhat is the times of increase in the average amount ?
p543
sVdependencies
p544
(lp545
(lp546
Vroot
p547
aVROOT
p548
aVWhat
p549
aa(lp550
Vcop
p551
aVWhat
p552
aVis
p553
aa(lp554
Vdet
p555
aVtimes
p556
aVthe
p557
aa(lp558
Vnsubj
p559
aVWhat
p560
aVtimes
p561
aa(lp562
Vprep_of
p563
aVtimes
p564
aVincrease
p565
aa(lp566
Vdet
p567
aVamount
p568
aVthe
p569
aa(lp570
Vamod
p571
aVamount
p572
aVaverage
p573
aa(lp574
Vprep_in
p575
aVincrease
p576
aVamount
p577
aasVwords
p578
(lp579
(lp580
VWhat
p581
a(dp582
VNamedEntityTag
p583
g81
sVCharacterOffsetEnd
p584
V156
p585
sVCharacterOffsetBegin
p586
V152
p587
sVPartOfSpeech
p588
VWP
p589
sVLemma
p590
Vwhat
p591
saa(lp592
Vis
p593
a(dp594
VNamedEntityTag
p595
g81
sVCharacterOffsetEnd
p596
V159
p597
sVCharacterOffsetBegin
p598
V157
p599
sVPartOfSpeech
p600
VVBZ
p601
sVLemma
p602
Vbe
p603
saa(lp604
Vthe
p605
a(dp606
VNamedEntityTag
p607
g81
sVCharacterOffsetEnd
p608
V163
p609
sVCharacterOffsetBegin
p610
V160
p611
sVPartOfSpeech
p612
VDT
p613
sVLemma
p614
Vthe
p615
saa(lp616
Vtimes
p617
a(dp618
VNamedEntityTag
p619
g81
sVCharacterOffsetEnd
p620
V169
p621
sVCharacterOffsetBegin
p622
V164
p623
sVPartOfSpeech
p624
VNNS
p625
sVLemma
p626
Vtime
p627
saa(lp628
Vof
p629
a(dp630
VNamedEntityTag
p631
g81
sVCharacterOffsetEnd
p632
V172
p633
sVCharacterOffsetBegin
p634
V170
p635
sVPartOfSpeech
p636
VIN
p637
sVLemma
p638
Vof
p639
saa(lp640
Vincrease
p641
a(dp642
VNamedEntityTag
p643
g81
sVCharacterOffsetEnd
p644
V181
p645
sVCharacterOffsetBegin
p646
V173
p647
sVPartOfSpeech
p648
VNN
p649
sVLemma
p650
Vincrease
p651
saa(lp652
Vin
p653
a(dp654
VNamedEntityTag
p655
g81
sVCharacterOffsetEnd
p656
V184
p657
sVCharacterOffsetBegin
p658
V182
p659
sVPartOfSpeech
p660
VIN
p661
sVLemma
p662
Vin
p663
saa(lp664
Vthe
p665
a(dp666
VNamedEntityTag
p667
g81
sVCharacterOffsetEnd
p668
V188
p669
sVCharacterOffsetBegin
p670
V185
p671
sVPartOfSpeech
p672
VDT
p673
sVLemma
p674
Vthe
p675
saa(lp676
Vaverage
p677
a(dp678
VNamedEntityTag
p679
g81
sVCharacterOffsetEnd
p680
V196
p681
sVCharacterOffsetBegin
p682
V189
p683
sVPartOfSpeech
p684
VJJ
p685
sVLemma
p686
Vaverage
p687
saa(lp688
Vamount
p689
a(dp690
VNamedEntityTag
p691
g81
sVCharacterOffsetEnd
p692
V203
p693
sVCharacterOffsetBegin
p694
V197
p695
sVPartOfSpeech
p696
VNN
p697
sVLemma
p698
Vamount
p699
saa(lp700
V?
p701
a(dp702
VNamedEntityTag
p703
g81
sVCharacterOffsetEnd
p704
V205
p705
sVCharacterOffsetBegin
p706
V204
p707
sVPartOfSpeech
p708
g298
sVLemma
p709
g701
saasVindexeddependencies
p710
(lp711
(lp712
Vroot
p713
aVROOT-0
p714
aVWhat-1
p715
aa(lp716
Vcop
p717
aVWhat-1
p718
aVis-2
p719
aa(lp720
Vdet
p721
aVtimes-4
p722
aVthe-3
p723
aa(lp724
Vnsubj
p725
aVWhat-1
p726
aVtimes-4
p727
aa(lp728
Vprep_of
p729
aVtimes-4
p730
aVincrease-6
p731
aa(lp732
Vdet
p733
aVamount-10
p734
aVthe-8
p735
aa(lp736
Vamod
p737
aVamount-10
p738
aVaverage-9
p739
aa(lp740
Vprep_in
p741
aVincrease-6
p742
aVamount-10
p743
aasas.