(dp0
Vcoref
p1
(lp2
(lp3
(lp4
(lp5
Vits height
p6
aI1
aI8
aI7
aI9
aa(lp7
VThe height of a mountain on a tropical island changes due to volcanic activity .
p8
aI0
aI1
aI0
aI15
aaaa(lp9
(lp10
(lp11
Vthe mountain
p12
aI1
aI2
aI1
aI3
aa(lp13
Va mountain on a tropical island changes
p14
aI0
aI4
aI3
aI10
aaa(lp15
(lp16
Vits
p17
aI1
aI7
aI7
aI8
aa(lp18
Va mountain on a tropical island changes
p19
aI0
aI4
aI3
aI10
aaa(lp20
(lp21
Vit
p22
aI2
aI1
aI1
aI2
aa(lp23
Va mountain on a tropical island changes
p24
aI0
aI4
aI3
aI10
aaa(lp25
(lp26
Vthe mountain
p27
aI3
aI4
aI3
aI5
aa(lp28
Va mountain on a tropical island changes
p29
aI0
aI4
aI3
aI10
aaaasVsentences
p30
(lp31
(dp32
Vparsetree
p33
V(ROOT (NP (NP (NP (DT The) (NN height)) (PP (IN of) (NP (NP (DT a) (NN mountain)) (PP (IN on) (NP (DT a) (JJ tropical) (NN island) (NNS changes)))))) (ADJP (JJ due) (PP (TO to) (NP (JJ volcanic) (NN activity)))) (. .)))
p34
sVtext
p35
VThe height of a mountain on a tropical island changes due to volcanic activity .
p36
sVdependencies
p37
(lp38
(lp39
Vroot
p40
aVROOT
p41
aVheight
p42
aa(lp43
Vdet
p44
aVheight
p45
aVThe
p46
aa(lp47
Vdet
p48
aVmountain
p49
aVa
p50
aa(lp51
Vprep_of
p52
aVheight
p53
aVmountain
p54
aa(lp55
Vdet
p56
aVchanges
p57
ag50
aa(lp58
Vamod
p59
aVchanges
p60
aVtropical
p61
aa(lp62
Vnn
p63
aVchanges
p64
aVisland
p65
aa(lp66
Vprep_on
p67
aVmountain
p68
aVchanges
p69
aa(lp70
Vamod
p71
aVactivity
p72
aVvolcanic
p73
aa(lp74
Vprep_due_to
p75
aVheight
p76
aVactivity
p77
aasVwords
p78
(lp79
(lp80
VThe
p81
a(dp82
VNamedEntityTag
p83
VO
p84
sVCharacterOffsetEnd
p85
V4
p86
sVCharacterOffsetBegin
p87
V1
p88
sVPartOfSpeech
p89
VDT
p90
sVLemma
p91
Vthe
p92
saa(lp93
Vheight
p94
a(dp95
VNamedEntityTag
p96
g84
sVCharacterOffsetEnd
p97
V11
p98
sVCharacterOffsetBegin
p99
V5
p100
sVPartOfSpeech
p101
VNN
p102
sVLemma
p103
Vheight
p104
saa(lp105
Vof
p106
a(dp107
VNamedEntityTag
p108
g84
sVCharacterOffsetEnd
p109
V14
p110
sVCharacterOffsetBegin
p111
V12
p112
sVPartOfSpeech
p113
VIN
p114
sVLemma
p115
Vof
p116
saa(lp117
g50
a(dp118
VNamedEntityTag
p119
g84
sVCharacterOffsetEnd
p120
V16
p121
sVCharacterOffsetBegin
p122
V15
p123
sVPartOfSpeech
p124
VDT
p125
sVLemma
p126
g50
saa(lp127
Vmountain
p128
a(dp129
VNamedEntityTag
p130
g84
sVCharacterOffsetEnd
p131
V25
p132
sVCharacterOffsetBegin
p133
V17
p134
sVPartOfSpeech
p135
VNN
p136
sVLemma
p137
Vmountain
p138
saa(lp139
Von
p140
a(dp141
VNamedEntityTag
p142
g84
sVCharacterOffsetEnd
p143
V28
p144
sVCharacterOffsetBegin
p145
V26
p146
sVPartOfSpeech
p147
VIN
p148
sVLemma
p149
Von
p150
saa(lp151
g50
a(dp152
VNamedEntityTag
p153
g84
sVCharacterOffsetEnd
p154
V30
p155
sVCharacterOffsetBegin
p156
V29
p157
sVPartOfSpeech
p158
VDT
p159
sVLemma
p160
g50
saa(lp161
Vtropical
p162
a(dp163
VNamedEntityTag
p164
g84
sVCharacterOffsetEnd
p165
V39
p166
sVCharacterOffsetBegin
p167
V31
p168
sVPartOfSpeech
p169
VJJ
p170
sVLemma
p171
Vtropical
p172
saa(lp173
Visland
p174
a(dp175
VNamedEntityTag
p176
g84
sVCharacterOffsetEnd
p177
V46
p178
sVCharacterOffsetBegin
p179
V40
p180
sVPartOfSpeech
p181
VNN
p182
sVLemma
p183
Visland
p184
saa(lp185
Vchanges
p186
a(dp187
VNamedEntityTag
p188
g84
sVCharacterOffsetEnd
p189
V54
p190
sVCharacterOffsetBegin
p191
V47
p192
sVPartOfSpeech
p193
VNNS
p194
sVLemma
p195
Vchange
p196
saa(lp197
Vdue
p198
a(dp199
VNamedEntityTag
p200
g84
sVCharacterOffsetEnd
p201
V58
p202
sVCharacterOffsetBegin
p203
V55
p204
sVPartOfSpeech
p205
VJJ
p206
sVLemma
p207
Vdue
p208
saa(lp209
Vto
p210
a(dp211
VNamedEntityTag
p212
g84
sVCharacterOffsetEnd
p213
V61
p214
sVCharacterOffsetBegin
p215
V59
p216
sVPartOfSpeech
p217
VTO
p218
sVLemma
p219
Vto
p220
saa(lp221
Vvolcanic
p222
a(dp223
VNamedEntityTag
p224
g84
sVCharacterOffsetEnd
p225
V70
p226
sVCharacterOffsetBegin
p227
V62
p228
sVPartOfSpeech
p229
VJJ
p230
sVLemma
p231
Vvolcanic
p232
saa(lp233
Vactivity
p234
a(dp235
VNamedEntityTag
p236
g84
sVCharacterOffsetEnd
p237
V79
p238
sVCharacterOffsetBegin
p239
V71
p240
sVPartOfSpeech
p241
VNN
p242
sVLemma
p243
Vactivity
p244
saa(lp245
V.
p246
a(dp247
VNamedEntityTag
p248
g84
sVCharacterOffsetEnd
p249
V81
p250
sVCharacterOffsetBegin
p251
V80
p252
sVPartOfSpeech
p253
g246
sVLemma
p254
g246
saasVindexeddependencies
p255
(lp256
(lp257
Vroot
p258
aVROOT-0
p259
aVheight-2
p260
aa(lp261
Vdet
p262
aVheight-2
p263
aVThe-1
p264
aa(lp265
Vdet
p266
aVmountain-5
p267
aVa-4
p268
aa(lp269
Vprep_of
p270
aVheight-2
p271
aVmountain-5
p272
aa(lp273
Vdet
p274
aVchanges-10
p275
aVa-7
p276
aa(lp277
Vamod
p278
aVchanges-10
p279
aVtropical-8
p280
aa(lp281
Vnn
p282
aVchanges-10
p283
aVisland-9
p284
aa(lp285
Vprep_on
p286
aVmountain-5
p287
aVchanges-10
p288
aa(lp289
Vamod
p290
aVactivity-14
p291
aVvolcanic-13
p292
aa(lp293
Vprep_due_to
p294
aVheight-2
p295
aVactivity-14
p296
aasa(dp297
Vparsetree
p298
V(ROOT (S (SBAR (WHADVP (WRB When)) (S (NP (DT the) (NN mountain)) (VP (VBD was) (VP (ADVP (JJ last)) (VBN measured))))) (, ,) (NP (PRP$ its) (NN height)) (VP (VBD was) (NP (CD 3,750) (NNS meters))) (. .)))
p299
sVtext
p300
VWhen the mountain was last measured , its height was 3,750 meters .
p301
sVdependencies
p302
(lp303
(lp304
Vroot
p305
aVROOT
p306
aVmeters
p307
aa(lp308
Vadvmod
p309
aVmeasured
p310
aVWhen
p311
aa(lp312
Vdet
p313
aVmountain
p314
aVthe
p315
aa(lp316
Vnsubjpass
p317
aVmeasured
p318
aVmountain
p319
aa(lp320
Vauxpass
p321
aVmeasured
p322
aVwas
p323
aa(lp324
Vadvmod
p325
aVmeasured
p326
aVlast
p327
aa(lp328
Vadvcl
p329
aVmeters
p330
aVmeasured
p331
aa(lp332
Vposs
p333
aVheight
p334
aVits
p335
aa(lp336
Vnsubj
p337
aVmeters
p338
aVheight
p339
aa(lp340
Vcop
p341
aVmeters
p342
aVwas
p343
aa(lp344
Vnum
p345
aVmeters
p346
aV3,750
p347
aasVwords
p348
(lp349
(lp350
VWhen
p351
a(dp352
VNamedEntityTag
p353
g84
sVCharacterOffsetEnd
p354
V86
p355
sVCharacterOffsetBegin
p356
V82
p357
sVPartOfSpeech
p358
VWRB
p359
sVLemma
p360
Vwhen
p361
saa(lp362
Vthe
p363
a(dp364
VNamedEntityTag
p365
g84
sVCharacterOffsetEnd
p366
V90
p367
sVCharacterOffsetBegin
p368
V87
p369
sVPartOfSpeech
p370
VDT
p371
sVLemma
p372
Vthe
p373
saa(lp374
Vmountain
p375
a(dp376
VNamedEntityTag
p377
g84
sVCharacterOffsetEnd
p378
V99
p379
sVCharacterOffsetBegin
p380
V91
p381
sVPartOfSpeech
p382
VNN
p383
sVLemma
p384
Vmountain
p385
saa(lp386
Vwas
p387
a(dp388
VNamedEntityTag
p389
g84
sVCharacterOffsetEnd
p390
V103
p391
sVCharacterOffsetBegin
p392
V100
p393
sVPartOfSpeech
p394
VVBD
p395
sVLemma
p396
Vbe
p397
saa(lp398
Vlast
p399
a(dp400
VNamedEntityTag
p401
g84
sVCharacterOffsetEnd
p402
V108
p403
sVCharacterOffsetBegin
p404
V104
p405
sVPartOfSpeech
p406
VJJ
p407
sVLemma
p408
Vlast
p409
saa(lp410
Vmeasured
p411
a(dp412
VNamedEntityTag
p413
g84
sVCharacterOffsetEnd
p414
V117
p415
sVCharacterOffsetBegin
p416
V109
p417
sVPartOfSpeech
p418
VVBN
p419
sVLemma
p420
Vmeasure
p421
saa(lp422
V,
p423
a(dp424
VNamedEntityTag
p425
g84
sVCharacterOffsetEnd
p426
V119
p427
sVCharacterOffsetBegin
p428
V118
p429
sVPartOfSpeech
p430
g423
sVLemma
p431
g423
saa(lp432
Vits
p433
a(dp434
VNamedEntityTag
p435
g84
sVCharacterOffsetEnd
p436
V123
p437
sVCharacterOffsetBegin
p438
V120
p439
sVPartOfSpeech
p440
VPRP$
p441
sVLemma
p442
Vits
p443
saa(lp444
Vheight
p445
a(dp446
VNamedEntityTag
p447
g84
sVCharacterOffsetEnd
p448
V130
p449
sVCharacterOffsetBegin
p450
V124
p451
sVPartOfSpeech
p452
VNN
p453
sVLemma
p454
Vheight
p455
saa(lp456
Vwas
p457
a(dp458
VNamedEntityTag
p459
g84
sVCharacterOffsetEnd
p460
V134
p461
sVCharacterOffsetBegin
p462
V131
p463
sVPartOfSpeech
p464
VVBD
p465
sVLemma
p466
Vbe
p467
saa(lp468
V3,750
p469
a(dp470
VNormalizedNamedEntityTag
p471
V3750.0
p472
sVLemma
p473
V3,750
p474
sVCharacterOffsetEnd
p475
V140
p476
sVPartOfSpeech
p477
VCD
p478
sVCharacterOffsetBegin
p479
V135
p480
sVNamedEntityTag
p481
VNUMBER
p482
saa(lp483
Vmeters
p484
a(dp485
VNamedEntityTag
p486
g84
sVCharacterOffsetEnd
p487
V147
p488
sVCharacterOffsetBegin
p489
V141
p490
sVPartOfSpeech
p491
VNNS
p492
sVLemma
p493
Vmeter
p494
saa(lp495
g246
a(dp496
VNamedEntityTag
p497
g84
sVCharacterOffsetEnd
p498
V149
p499
sVCharacterOffsetBegin
p500
V148
p501
sVPartOfSpeech
p502
g246
sVLemma
p503
g246
saasVindexeddependencies
p504
(lp505
(lp506
Vroot
p507
aVROOT-0
p508
aVmeters-12
p509
aa(lp510
Vadvmod
p511
aVmeasured-6
p512
aVWhen-1
p513
aa(lp514
Vdet
p515
aVmountain-3
p516
aVthe-2
p517
aa(lp518
Vnsubjpass
p519
aVmeasured-6
p520
aVmountain-3
p521
aa(lp522
Vauxpass
p523
aVmeasured-6
p524
aVwas-4
p525
aa(lp526
Vadvmod
p527
aVmeasured-6
p528
aVlast-5
p529
aa(lp530
Vadvcl
p531
aVmeters-12
p532
aVmeasured-6
p533
aa(lp534
Vposs
p535
aVheight-9
p536
aVits-8
p537
aa(lp538
Vnsubj
p539
aVmeters-12
p540
aVheight-9
p541
aa(lp542
Vcop
p543
aVmeters-12
p544
aVwas-10
p545
aa(lp546
Vnum
p547
aVmeters-12
p548
aV3,750-11
p549
aasa(dp550
Vparsetree
p551
V(ROOT (S (ADVP (RB Now)) (NP (PRP it)) (VP (VBZ is) (NP (ADJP (QP (CD 0.1) (NNS times))) (JJR taller))) (. .)))
p552
sVtext
p553
VNow it is 0.1 times taller .
p554
sVdependencies
p555
(lp556
(lp557
Vroot
p558
aVROOT
p559
aVtaller
p560
aa(lp561
Vadvmod
p562
aVtaller
p563
aVNow
p564
aa(lp565
Vnsubj
p566
aVtaller
p567
aVit
p568
aa(lp569
Vcop
p570
aVtaller
p571
aVis
p572
aa(lp573
Vnumber
p574
aVtimes
p575
aV0.1
p576
aa(lp577
Vnum
p578
aVtaller
p579
aVtimes
p580
aasVwords
p581
(lp582
(lp583
VNow
p584
a(dp585
VNormalizedNamedEntityTag
p586
VPRESENT_REF
p587
sVTimex
p588
V<TIMEX3 tid="t1" type="DATE" value="PRESENT_REF">Now</TIMEX3>
p589
sVLemma
p590
Vnow
p591
sVCharacterOffsetEnd
p592
V153
p593
sVPartOfSpeech
p594
VRB
p595
sVCharacterOffsetBegin
p596
V150
p597
sVNamedEntityTag
p598
VDATE
p599
saa(lp600
Vit
p601
a(dp602
VNamedEntityTag
p603
g84
sVCharacterOffsetEnd
p604
V156
p605
sVCharacterOffsetBegin
p606
V154
p607
sVPartOfSpeech
p608
VPRP
p609
sVLemma
p610
Vit
p611
saa(lp612
Vis
p613
a(dp614
VNamedEntityTag
p615
g84
sVCharacterOffsetEnd
p616
V159
p617
sVCharacterOffsetBegin
p618
V157
p619
sVPartOfSpeech
p620
VVBZ
p621
sVLemma
p622
Vbe
p623
saa(lp624
V0.1
p625
a(dp626
VNormalizedNamedEntityTag
p627
V0.1
p628
sVLemma
p629
V0.1
p630
sVCharacterOffsetEnd
p631
V163
p632
sVPartOfSpeech
p633
VCD
p634
sVCharacterOffsetBegin
p635
V160
p636
sVNamedEntityTag
p637
VNUMBER
p638
saa(lp639
Vtimes
p640
a(dp641
VNamedEntityTag
p642
g84
sVCharacterOffsetEnd
p643
V169
p644
sVCharacterOffsetBegin
p645
V164
p646
sVPartOfSpeech
p647
VNNS
p648
sVLemma
p649
Vtime
p650
saa(lp651
Vtaller
p652
a(dp653
VNamedEntityTag
p654
g84
sVCharacterOffsetEnd
p655
V176
p656
sVCharacterOffsetBegin
p657
V170
p658
sVPartOfSpeech
p659
VJJR
p660
sVLemma
p661
Vtaller
p662
saa(lp663
g246
a(dp664
VNamedEntityTag
p665
g84
sVCharacterOffsetEnd
p666
V178
p667
sVCharacterOffsetBegin
p668
V177
p669
sVPartOfSpeech
p670
g246
sVLemma
p671
g246
saasVindexeddependencies
p672
(lp673
(lp674
Vroot
p675
aVROOT-0
p676
aVtaller-6
p677
aa(lp678
Vadvmod
p679
aVtaller-6
p680
aVNow-1
p681
aa(lp682
Vnsubj
p683
aVtaller-6
p684
aVit-2
p685
aa(lp686
Vcop
p687
aVtaller-6
p688
aVis-3
p689
aa(lp690
Vnumber
p691
aVtimes-5
p692
aV0.1-4
p693
aa(lp694
Vnum
p695
aVtaller-6
p696
aVtimes-5
p697
aasa(dp698
Vparsetree
p699
V(ROOT (SBARQ (WHADJP (WRB How) (JJ tall)) (SQ (VBZ is) (NP (DT the) (NN mountain)) (ADVP (RB currently))) (. ?)))
p700
sVtext
p701
VHow tall is the mountain currently ?
p702
sVdependencies
p703
(lp704
(lp705
Vroot
p706
aVROOT
p707
aVis
p708
aa(lp709
Vadvmod
p710
aVtall
p711
aVHow
p712
aa(lp713
Vdep
p714
aVis
p715
aVtall
p716
aa(lp717
Vdet
p718
aVmountain
p719
aVthe
p720
aa(lp721
Vnsubj
p722
aVis
p723
aVmountain
p724
aa(lp725
Vadvmod
p726
aVis
p727
aVcurrently
p728
aasVwords
p729
(lp730
(lp731
VHow
p732
a(dp733
VNamedEntityTag
p734
g84
sVCharacterOffsetEnd
p735
V182
p736
sVCharacterOffsetBegin
p737
V179
p738
sVPartOfSpeech
p739
VWRB
p740
sVLemma
p741
Vhow
p742
saa(lp743
Vtall
p744
a(dp745
VNamedEntityTag
p746
g84
sVCharacterOffsetEnd
p747
V187
p748
sVCharacterOffsetBegin
p749
V183
p750
sVPartOfSpeech
p751
VJJ
p752
sVLemma
p753
Vtall
p754
saa(lp755
Vis
p756
a(dp757
VNamedEntityTag
p758
g84
sVCharacterOffsetEnd
p759
V190
p760
sVCharacterOffsetBegin
p761
V188
p762
sVPartOfSpeech
p763
VVBZ
p764
sVLemma
p765
Vbe
p766
saa(lp767
Vthe
p768
a(dp769
VNamedEntityTag
p770
g84
sVCharacterOffsetEnd
p771
V194
p772
sVCharacterOffsetBegin
p773
V191
p774
sVPartOfSpeech
p775
VDT
p776
sVLemma
p777
Vthe
p778
saa(lp779
Vmountain
p780
a(dp781
VNamedEntityTag
p782
g84
sVCharacterOffsetEnd
p783
V203
p784
sVCharacterOffsetBegin
p785
V195
p786
sVPartOfSpeech
p787
VNN
p788
sVLemma
p789
Vmountain
p790
saa(lp791
Vcurrently
p792
a(dp793
VNormalizedNamedEntityTag
p794
VPRESENT_REF
p795
sVTimex
p796
V<TIMEX3 tid="t2" type="DATE" value="PRESENT_REF">currently</TIMEX3>
p797
sVLemma
p798
Vcurrently
p799
sVCharacterOffsetEnd
p800
V213
p801
sVPartOfSpeech
p802
VRB
p803
sVCharacterOffsetBegin
p804
V204
p805
sVNamedEntityTag
p806
VDATE
p807
saa(lp808
V?
p809
a(dp810
VNamedEntityTag
p811
g84
sVCharacterOffsetEnd
p812
V215
p813
sVCharacterOffsetBegin
p814
V214
p815
sVPartOfSpeech
p816
g246
sVLemma
p817
g809
saasVindexeddependencies
p818
(lp819
(lp820
Vroot
p821
aVROOT-0
p822
aVis-3
p823
aa(lp824
Vadvmod
p825
aVtall-2
p826
aVHow-1
p827
aa(lp828
Vdep
p829
aVis-3
p830
aVtall-2
p831
aa(lp832
Vdet
p833
aVmountain-5
p834
aVthe-4
p835
aa(lp836
Vnsubj
p837
aVis-3
p838
aVmountain-5
p839
aa(lp840
Vadvmod
p841
aVis-3
p842
aVcurrently-6
p843
aasas.