(dp0
Vcoref
p1
(lp2
(lp3
(lp4
(lp5
Vshe
p6
aI1
aI12
aI12
aI13
aa(lp7
VRobin
p8
aI1
aI1
aI1
aI2
aaaasVsentences
p9
(lp10
(dp11
Vparsetree
p12
V(ROOT (S (NP (NP (NNP April) (POS 's)) (NN discount) (NNS flowers)) (VP (VBD was) (VP (VBG having) (NP (DT a) (NN sale)) (SBAR (WHADVP (WRB where)) (S (NP (DT each) (NN flower)) (VP (VBD was) (NP (CD 3) (NNS dollars))))))) (. .)))
p13
sVtext
p14
VApril's discount flowers was having a sale where each flower was 3 dollars .
p15
sVdependencies
p16
(lp17
(lp18
Vroot
p19
aVROOT
p20
aVhaving
p21
aa(lp22
Vposs
p23
aVflowers
p24
aVApril
p25
aa(lp26
Vnn
p27
aVflowers
p28
aVdiscount
p29
aa(lp30
Vnsubj
p31
aVhaving
p32
aVflowers
p33
aa(lp34
Vaux
p35
aVhaving
p36
aVwas
p37
aa(lp38
Vdet
p39
aVsale
p40
aVa
p41
aa(lp42
Vdobj
p43
aVhaving
p44
aVsale
p45
aa(lp46
Vadvmod
p47
aVdollars
p48
aVwhere
p49
aa(lp50
Vdet
p51
aVflower
p52
aVeach
p53
aa(lp54
Vnsubj
p55
aVdollars
p56
aVflower
p57
aa(lp58
Vcop
p59
aVdollars
p60
aVwas
p61
aa(lp62
Vnum
p63
aVdollars
p64
aV3
p65
aa(lp66
Vadvcl
p67
aVhaving
p68
aVdollars
p69
aasVwords
p70
(lp71
(lp72
VApril
p73
a(dp74
VNormalizedNamedEntityTag
p75
VXXXX-04
p76
sVTimex
p77
V<TIMEX3 tid="t1" type="DATE" value="XXXX-04">April</TIMEX3>
p78
sVLemma
p79
VApril
p80
sVCharacterOffsetEnd
p81
V6
p82
sVPartOfSpeech
p83
VNNP
p84
sVCharacterOffsetBegin
p85
V1
p86
sVNamedEntityTag
p87
VDATE
p88
saa(lp89
V's
p90
a(dp91
VNamedEntityTag
p92
VO
p93
sVCharacterOffsetEnd
p94
V8
p95
sVCharacterOffsetBegin
p96
g82
sVPartOfSpeech
p97
VPOS
p98
sVLemma
p99
V's
p100
saa(lp101
Vdiscount
p102
a(dp103
VNamedEntityTag
p104
g93
sVCharacterOffsetEnd
p105
V17
p106
sVCharacterOffsetBegin
p107
V9
p108
sVPartOfSpeech
p109
VNN
p110
sVLemma
p111
Vdiscount
p112
saa(lp113
Vflowers
p114
a(dp115
VNamedEntityTag
p116
g93
sVCharacterOffsetEnd
p117
V25
p118
sVCharacterOffsetBegin
p119
V18
p120
sVPartOfSpeech
p121
VNNS
p122
sVLemma
p123
Vflower
p124
saa(lp125
Vwas
p126
a(dp127
VNamedEntityTag
p128
g93
sVCharacterOffsetEnd
p129
V29
p130
sVCharacterOffsetBegin
p131
V26
p132
sVPartOfSpeech
p133
VVBD
p134
sVLemma
p135
Vbe
p136
saa(lp137
Vhaving
p138
a(dp139
VNamedEntityTag
p140
g93
sVCharacterOffsetEnd
p141
V36
p142
sVCharacterOffsetBegin
p143
V30
p144
sVPartOfSpeech
p145
VVBG
p146
sVLemma
p147
Vhave
p148
saa(lp149
g41
a(dp150
VNamedEntityTag
p151
g93
sVCharacterOffsetEnd
p152
V38
p153
sVCharacterOffsetBegin
p154
V37
p155
sVPartOfSpeech
p156
VDT
p157
sVLemma
p158
g41
saa(lp159
Vsale
p160
a(dp161
VNamedEntityTag
p162
g93
sVCharacterOffsetEnd
p163
V43
p164
sVCharacterOffsetBegin
p165
V39
p166
sVPartOfSpeech
p167
VNN
p168
sVLemma
p169
Vsale
p170
saa(lp171
Vwhere
p172
a(dp173
VNamedEntityTag
p174
g93
sVCharacterOffsetEnd
p175
V49
p176
sVCharacterOffsetBegin
p177
V44
p178
sVPartOfSpeech
p179
VWRB
p180
sVLemma
p181
Vwhere
p182
saa(lp183
Veach
p184
a(dp185
VNamedEntityTag
p186
g93
sVCharacterOffsetEnd
p187
V54
p188
sVCharacterOffsetBegin
p189
V50
p190
sVPartOfSpeech
p191
VDT
p192
sVLemma
p193
Veach
p194
saa(lp195
Vflower
p196
a(dp197
VNamedEntityTag
p198
g93
sVCharacterOffsetEnd
p199
V61
p200
sVCharacterOffsetBegin
p201
V55
p202
sVPartOfSpeech
p203
VNN
p204
sVLemma
p205
Vflower
p206
saa(lp207
Vwas
p208
a(dp209
VNamedEntityTag
p210
g93
sVCharacterOffsetEnd
p211
V65
p212
sVCharacterOffsetBegin
p213
V62
p214
sVPartOfSpeech
p215
VVBD
p216
sVLemma
p217
Vbe
p218
saa(lp219
g65
a(dp220
VNormalizedNamedEntityTag
p221
V$3.0
p222
sVLemma
p223
g65
sVCharacterOffsetEnd
p224
V67
p225
sVPartOfSpeech
p226
VCD
p227
sVCharacterOffsetBegin
p228
V66
p229
sVNamedEntityTag
p230
VMONEY
p231
saa(lp232
Vdollars
p233
a(dp234
VNormalizedNamedEntityTag
p235
V$3.0
p236
sVLemma
p237
Vdollar
p238
sVCharacterOffsetEnd
p239
V75
p240
sVPartOfSpeech
p241
VNNS
p242
sVCharacterOffsetBegin
p243
V68
p244
sVNamedEntityTag
p245
VMONEY
p246
saa(lp247
V.
p248
a(dp249
VNamedEntityTag
p250
g93
sVCharacterOffsetEnd
p251
V77
p252
sVCharacterOffsetBegin
p253
V76
p254
sVPartOfSpeech
p255
g248
sVLemma
p256
g248
saasVindexeddependencies
p257
(lp258
(lp259
Vroot
p260
aVROOT-0
p261
aVhaving-6
p262
aa(lp263
Vposs
p264
aVflowers-4
p265
aVApril-1
p266
aa(lp267
Vnn
p268
aVflowers-4
p269
aVdiscount-3
p270
aa(lp271
Vnsubj
p272
aVhaving-6
p273
aVflowers-4
p274
aa(lp275
Vaux
p276
aVhaving-6
p277
aVwas-5
p278
aa(lp279
Vdet
p280
aVsale-8
p281
aVa-7
p282
aa(lp283
Vdobj
p284
aVhaving-6
p285
aVsale-8
p286
aa(lp287
Vadvmod
p288
aVdollars-14
p289
aVwhere-9
p290
aa(lp291
Vdet
p292
aVflower-11
p293
aVeach-10
p294
aa(lp295
Vnsubj
p296
aVdollars-14
p297
aVflower-11
p298
aa(lp299
Vcop
p300
aVdollars-14
p301
aVwas-12
p302
aa(lp303
Vnum
p304
aVdollars-14
p305
aV3-13
p306
aa(lp307
Vadvcl
p308
aVhaving-6
p309
aVdollars-14
p310
aasa(dp311
Vparsetree
p312
V(ROOT (SBARQ (SBAR (IN If) (S (NP (NNP Robin)) (VP (VBD bought) (NP (NP (CD 5) (NNS roses)) (CC and) (NP (CD 4) (NNS daisies)))))) (, ,) (WHNP (WRB how) (JJ much)) (SQ (VBD did) (NP (PRP she)) (VP (VB spend))) (. ?)))
p313
sVtext
p314
VIf Robin bought 5 roses and 4 daisies , how much did she spend ?
p315
sVdependencies
p316
(lp317
(lp318
Vroot
p319
aVROOT
p320
aVspend
p321
aa(lp322
Vmark
p323
aVbought
p324
aVIf
p325
aa(lp326
Vnsubj
p327
aVbought
p328
aVRobin
p329
aa(lp330
Vadvcl
p331
aVspend
p332
aVbought
p333
aa(lp334
Vnum
p335
aVroses
p336
aV5
p337
aa(lp338
Vdobj
p339
aVbought
p340
aVroses
p341
aa(lp342
Vnum
p343
aVdaisies
p344
aV4
p345
aa(lp346
Vconj_and
p347
aVroses
p348
aVdaisies
p349
aa(lp350
Vadvmod
p351
aVmuch
p352
aVhow
p353
aa(lp354
Vdep
p355
aVspend
p356
aVmuch
p357
aa(lp358
Vaux
p359
aVspend
p360
aVdid
p361
aa(lp362
Vnsubj
p363
aVspend
p364
aVshe
p365
aasVwords
p366
(lp367
(lp368
VIf
p369
a(dp370
VNamedEntityTag
p371
g93
sVCharacterOffsetEnd
p372
V80
p373
sVCharacterOffsetBegin
p374
V78
p375
sVPartOfSpeech
p376
VIN
p377
sVLemma
p378
Vif
p379
saa(lp380
VRobin
p381
a(dp382
VNamedEntityTag
p383
VPERSON
p384
sVCharacterOffsetEnd
p385
V86
p386
sVCharacterOffsetBegin
p387
V81
p388
sVPartOfSpeech
p389
VNNP
p390
sVLemma
p391
VRobin
p392
saa(lp393
Vbought
p394
a(dp395
VNamedEntityTag
p396
g93
sVCharacterOffsetEnd
p397
V93
p398
sVCharacterOffsetBegin
p399
V87
p400
sVPartOfSpeech
p401
VVBD
p402
sVLemma
p403
Vbuy
p404
saa(lp405
g337
a(dp406
VNormalizedNamedEntityTag
p407
V5.0
p408
sVLemma
p409
g337
sVCharacterOffsetEnd
p410
V95
p411
sVPartOfSpeech
p412
VCD
p413
sVCharacterOffsetBegin
p414
V94
p415
sVNamedEntityTag
p416
VNUMBER
p417
saa(lp418
Vroses
p419
a(dp420
VNamedEntityTag
p421
g93
sVCharacterOffsetEnd
p422
V101
p423
sVCharacterOffsetBegin
p424
V96
p425
sVPartOfSpeech
p426
VNNS
p427
sVLemma
p428
Vrose
p429
saa(lp430
Vand
p431
a(dp432
VNamedEntityTag
p433
g93
sVCharacterOffsetEnd
p434
V105
p435
sVCharacterOffsetBegin
p436
V102
p437
sVPartOfSpeech
p438
VCC
p439
sVLemma
p440
Vand
p441
saa(lp442
g345
a(dp443
VNormalizedNamedEntityTag
p444
V4.0
p445
sVLemma
p446
g345
sVCharacterOffsetEnd
p447
V107
p448
sVPartOfSpeech
p449
VCD
p450
sVCharacterOffsetBegin
p451
V106
p452
sVNamedEntityTag
p453
VNUMBER
p454
saa(lp455
Vdaisies
p456
a(dp457
VNamedEntityTag
p458
g93
sVCharacterOffsetEnd
p459
V115
p460
sVCharacterOffsetBegin
p461
V108
p462
sVPartOfSpeech
p463
VNNS
p464
sVLemma
p465
Vdaisy
p466
saa(lp467
V,
p468
a(dp469
VNamedEntityTag
p470
g93
sVCharacterOffsetEnd
p471
V117
p472
sVCharacterOffsetBegin
p473
V116
p474
sVPartOfSpeech
p475
g468
sVLemma
p476
g468
saa(lp477
Vhow
p478
a(dp479
VNamedEntityTag
p480
g93
sVCharacterOffsetEnd
p481
V121
p482
sVCharacterOffsetBegin
p483
V118
p484
sVPartOfSpeech
p485
VWRB
p486
sVLemma
p487
Vhow
p488
saa(lp489
Vmuch
p490
a(dp491
VNamedEntityTag
p492
g93
sVCharacterOffsetEnd
p493
V126
p494
sVCharacterOffsetBegin
p495
V122
p496
sVPartOfSpeech
p497
VJJ
p498
sVLemma
p499
Vmuch
p500
saa(lp501
Vdid
p502
a(dp503
VNamedEntityTag
p504
g93
sVCharacterOffsetEnd
p505
V130
p506
sVCharacterOffsetBegin
p507
V127
p508
sVPartOfSpeech
p509
VVBD
p510
sVLemma
p511
Vdo
p512
saa(lp513
Vshe
p514
a(dp515
VNamedEntityTag
p516
g93
sVCharacterOffsetEnd
p517
V134
p518
sVCharacterOffsetBegin
p519
V131
p520
sVPartOfSpeech
p521
VPRP
p522
sVLemma
p523
Vshe
p524
saa(lp525
Vspend
p526
a(dp527
VNamedEntityTag
p528
g93
sVCharacterOffsetEnd
p529
V140
p530
sVCharacterOffsetBegin
p531
V135
p532
sVPartOfSpeech
p533
VVB
p534
sVLemma
p535
Vspend
p536
saa(lp537
V?
p538
a(dp539
VNamedEntityTag
p540
g93
sVCharacterOffsetEnd
p541
V142
p542
sVCharacterOffsetBegin
p543
V141
p544
sVPartOfSpeech
p545
g248
sVLemma
p546
g538
saasVindexeddependencies
p547
(lp548
(lp549
Vroot
p550
aVROOT-0
p551
aVspend-14
p552
aa(lp553
Vmark
p554
aVbought-3
p555
aVIf-1
p556
aa(lp557
Vnsubj
p558
aVbought-3
p559
aVRobin-2
p560
aa(lp561
Vadvcl
p562
aVspend-14
p563
aVbought-3
p564
aa(lp565
Vnum
p566
aVroses-5
p567
aV5-4
p568
aa(lp569
Vdobj
p570
aVbought-3
p571
aVroses-5
p572
aa(lp573
Vnum
p574
aVdaisies-8
p575
aV4-7
p576
aa(lp577
Vconj_and
p578
aVroses-5
p579
aVdaisies-8
p580
aa(lp581
Vadvmod
p582
aVmuch-11
p583
aVhow-10
p584
aa(lp585
Vdep
p586
aVspend-14
p587
aVmuch-11
p588
aa(lp589
Vaux
p590
aVspend-14
p591
aVdid-12
p592
aa(lp593
Vnsubj
p594
aVspend-14
p595
aVshe-13
p596
aasas.