(dp0
Vcoref
p1
(lp2
(lp3
(lp4
(lp5
Vthe corporation
p6
aI1
aI6
aI5
aI7
aa(lp7
VA multi-national corporation
p8
aI0
aI2
aI0
aI3
aaaasVsentences
p9
(lp10
(dp11
Vparsetree
p12
V(ROOT (S (NP (DT A) (JJ multi-national) (NN corporation)) (VP (VBZ has) (NP (NP (CD 2,041) (JJ part-time) (NNS employees)) (CC and) (NP (CD 63,093) (JJ full-time) (NNS employees)))) (. .)))
p13
sVtext
p14
VA multi-national corporation has 2,041 part-time employees and 63,093 full-time employees .
p15
sVdependencies
p16
(lp17
(lp18
Vroot
p19
aVROOT
p20
aVhas
p21
aa(lp22
Vdet
p23
aVcorporation
p24
aVA
p25
aa(lp26
Vamod
p27
aVcorporation
p28
aVmulti-national
p29
aa(lp30
Vnsubj
p31
aVhas
p32
aVcorporation
p33
aa(lp34
Vnum
p35
aVemployees
p36
aV2,041
p37
aa(lp38
Vamod
p39
aVemployees
p40
aVpart-time
p41
aa(lp42
Vdobj
p43
aVhas
p44
aVemployees
p45
aa(lp46
Vnum
p47
aVemployees
p48
aV63,093
p49
aa(lp50
Vamod
p51
aVemployees
p52
aVfull-time
p53
aa(lp54
Vconj_and
p55
aVemployees
p56
aVemployees
p57
aasVwords
p58
(lp59
(lp60
g25
a(dp61
VNamedEntityTag
p62
VO
p63
sVCharacterOffsetEnd
p64
V2
p65
sVCharacterOffsetBegin
p66
V1
p67
sVPartOfSpeech
p68
VDT
p69
sVLemma
p70
Va
p71
saa(lp72
Vmulti-national
p73
a(dp74
VNamedEntityTag
p75
g63
sVCharacterOffsetEnd
p76
V17
p77
sVCharacterOffsetBegin
p78
V3
p79
sVPartOfSpeech
p80
VJJ
p81
sVLemma
p82
Vmulti-national
p83
saa(lp84
Vcorporation
p85
a(dp86
VNamedEntityTag
p87
g63
sVCharacterOffsetEnd
p88
V29
p89
sVCharacterOffsetBegin
p90
V18
p91
sVPartOfSpeech
p92
VNN
p93
sVLemma
p94
Vcorporation
p95
saa(lp96
Vhas
p97
a(dp98
VNamedEntityTag
p99
g63
sVCharacterOffsetEnd
p100
V33
p101
sVCharacterOffsetBegin
p102
V30
p103
sVPartOfSpeech
p104
VVBZ
p105
sVLemma
p106
Vhave
p107
saa(lp108
V2,041
p109
a(dp110
VNormalizedNamedEntityTag
p111
V2041.0
p112
sVLemma
p113
V2,041
p114
sVCharacterOffsetEnd
p115
V39
p116
sVPartOfSpeech
p117
VCD
p118
sVCharacterOffsetBegin
p119
V34
p120
sVNamedEntityTag
p121
VNUMBER
p122
saa(lp123
Vpart-time
p124
a(dp125
VNamedEntityTag
p126
g63
sVCharacterOffsetEnd
p127
V49
p128
sVCharacterOffsetBegin
p129
V40
p130
sVPartOfSpeech
p131
VJJ
p132
sVLemma
p133
Vpart-time
p134
saa(lp135
Vemployees
p136
a(dp137
VNamedEntityTag
p138
g63
sVCharacterOffsetEnd
p139
V59
p140
sVCharacterOffsetBegin
p141
V50
p142
sVPartOfSpeech
p143
VNNS
p144
sVLemma
p145
Vemployee
p146
saa(lp147
Vand
p148
a(dp149
VNamedEntityTag
p150
g63
sVCharacterOffsetEnd
p151
V63
p152
sVCharacterOffsetBegin
p153
V60
p154
sVPartOfSpeech
p155
VCC
p156
sVLemma
p157
Vand
p158
saa(lp159
V63,093
p160
a(dp161
VNormalizedNamedEntityTag
p162
V63093.0
p163
sVLemma
p164
V63,093
p165
sVCharacterOffsetEnd
p166
V70
p167
sVPartOfSpeech
p168
VCD
p169
sVCharacterOffsetBegin
p170
V64
p171
sVNamedEntityTag
p172
VNUMBER
p173
saa(lp174
Vfull-time
p175
a(dp176
VNamedEntityTag
p177
g63
sVCharacterOffsetEnd
p178
V80
p179
sVCharacterOffsetBegin
p180
V71
p181
sVPartOfSpeech
p182
VJJ
p183
sVLemma
p184
Vfull-time
p185
saa(lp186
Vemployees
p187
a(dp188
VNamedEntityTag
p189
g63
sVCharacterOffsetEnd
p190
V90
p191
sVCharacterOffsetBegin
p192
V81
p193
sVPartOfSpeech
p194
VNNS
p195
sVLemma
p196
Vemployee
p197
saa(lp198
V.
p199
a(dp200
VNamedEntityTag
p201
g63
sVCharacterOffsetEnd
p202
V92
p203
sVCharacterOffsetBegin
p204
V91
p205
sVPartOfSpeech
p206
g199
sVLemma
p207
g199
saasVindexeddependencies
p208
(lp209
(lp210
Vroot
p211
aVROOT-0
p212
aVhas-4
p213
aa(lp214
Vdet
p215
aVcorporation-3
p216
aVA-1
p217
aa(lp218
Vamod
p219
aVcorporation-3
p220
aVmulti-national-2
p221
aa(lp222
Vnsubj
p223
aVhas-4
p224
aVcorporation-3
p225
aa(lp226
Vnum
p227
aVemployees-7
p228
aV2,041-5
p229
aa(lp230
Vamod
p231
aVemployees-7
p232
aVpart-time-6
p233
aa(lp234
Vdobj
p235
aVhas-4
p236
aVemployees-7
p237
aa(lp238
Vnum
p239
aVemployees-11
p240
aV63,093-9
p241
aa(lp242
Vamod
p243
aVemployees-11
p244
aVfull-time-10
p245
aa(lp246
Vconj_and
p247
aVemployees-7
p248
aVemployees-11
p249
aasa(dp250
Vparsetree
p251
V(ROOT (SBARQ (WHNP (WHADJP (WRB How) (JJ many)) (NNS employees)) (SQ (VP (VBP work) (PP (IN for) (NP (DT the) (NN corporation))))) (. ?)))
p252
sVtext
p253
VHow many employees work for the corporation ?
p254
sVdependencies
p255
(lp256
(lp257
Vroot
p258
aVROOT
p259
aVwork
p260
aa(lp261
Vadvmod
p262
aVmany
p263
aVHow
p264
aa(lp265
Vamod
p266
aVemployees
p267
aVmany
p268
aa(lp269
Vnsubj
p270
aVwork
p271
aVemployees
p272
aa(lp273
Vdet
p274
aVcorporation
p275
aVthe
p276
aa(lp277
Vprep_for
p278
aVwork
p279
aVcorporation
p280
aasVwords
p281
(lp282
(lp283
VHow
p284
a(dp285
VNamedEntityTag
p286
g63
sVCharacterOffsetEnd
p287
V96
p288
sVCharacterOffsetBegin
p289
V93
p290
sVPartOfSpeech
p291
VWRB
p292
sVLemma
p293
Vhow
p294
saa(lp295
Vmany
p296
a(dp297
VNamedEntityTag
p298
g63
sVCharacterOffsetEnd
p299
V101
p300
sVCharacterOffsetBegin
p301
V97
p302
sVPartOfSpeech
p303
VJJ
p304
sVLemma
p305
Vmany
p306
saa(lp307
Vemployees
p308
a(dp309
VNamedEntityTag
p310
g63
sVCharacterOffsetEnd
p311
V111
p312
sVCharacterOffsetBegin
p313
V102
p314
sVPartOfSpeech
p315
VNNS
p316
sVLemma
p317
Vemployee
p318
saa(lp319
Vwork
p320
a(dp321
VNamedEntityTag
p322
g63
sVCharacterOffsetEnd
p323
V116
p324
sVCharacterOffsetBegin
p325
V112
p326
sVPartOfSpeech
p327
VVBP
p328
sVLemma
p329
Vwork
p330
saa(lp331
Vfor
p332
a(dp333
VNamedEntityTag
p334
g63
sVCharacterOffsetEnd
p335
V120
p336
sVCharacterOffsetBegin
p337
V117
p338
sVPartOfSpeech
p339
VIN
p340
sVLemma
p341
Vfor
p342
saa(lp343
Vthe
p344
a(dp345
VNamedEntityTag
p346
g63
sVCharacterOffsetEnd
p347
V124
p348
sVCharacterOffsetBegin
p349
V121
p350
sVPartOfSpeech
p351
VDT
p352
sVLemma
p353
Vthe
p354
saa(lp355
Vcorporation
p356
a(dp357
VNamedEntityTag
p358
g63
sVCharacterOffsetEnd
p359
V136
p360
sVCharacterOffsetBegin
p361
V125
p362
sVPartOfSpeech
p363
VNN
p364
sVLemma
p365
Vcorporation
p366
saa(lp367
V?
p368
a(dp369
VNamedEntityTag
p370
g63
sVCharacterOffsetEnd
p371
V138
p372
sVCharacterOffsetBegin
p373
V137
p374
sVPartOfSpeech
p375
g199
sVLemma
p376
g368
saasVindexeddependencies
p377
(lp378
(lp379
Vroot
p380
aVROOT-0
p381
aVwork-4
p382
aa(lp383
Vadvmod
p384
aVmany-2
p385
aVHow-1
p386
aa(lp387
Vamod
p388
aVemployees-3
p389
aVmany-2
p390
aa(lp391
Vnsubj
p392
aVwork-4
p393
aVemployees-3
p394
aa(lp395
Vdet
p396
aVcorporation-7
p397
aVthe-6
p398
aa(lp399
Vprep_for
p400
aVwork-4
p401
aVcorporation-7
p402
aasas.