(dp0
Vcoref
p1
(lp2
(lp3
(lp4
(lp5
Vsalmon travel upstream
p6
aI0
aI4
aI3
aI6
aa(lp7
VEach year
p8
aI0
aI1
aI0
aI2
aaa(lp9
(lp10
VThis year
p11
aI1
aI1
aI0
aI2
aa(lp12
VEach year
p13
aI0
aI1
aI0
aI2
aaaa(lp14
(lp15
(lp16
Vtheir rivers
p17
aI1
aI12
aI11
aI13
aa(lp18
Vthe rivers where they were born
p19
aI0
aI13
aI12
aI18
aaaa(lp20
(lp21
(lp22
Vtheir
p23
aI1
aI11
aI11
aI12
aa(lp24
V712,261 male and 259,378 female salmon
p25
aI1
aI4
aI3
aI9
aaaasVsentences
p26
(lp27
(dp28
Vparsetree
p29
V(ROOT (S (NP (NP (DT Each) (NN year)) (, ,) (NP (NP (NN salmon) (NN travel)) (ADVP (RB upstream)))) (, ,) (VP (VBG going) (PP (IN from) (NP (DT the) (NN ocean))) (PP (TO to) (NP (NP (DT the) (NNS rivers)) (SBAR (WHADVP (WRB where)) (S (NP (PRP they)) (VP (VBD were) (VP (VBN born)))))))) (. .)))
p30
sVtext
p31
VEach year , salmon travel upstream , going from the ocean to the rivers where they were born .
p32
sVdependencies
p33
(lp34
(lp35
Vroot
p36
aVROOT
p37
aVgoing
p38
aa(lp39
Vdet
p40
aVyear
p41
aVEach
p42
aa(lp43
Vnsubj
p44
aVgoing
p45
aVyear
p46
aa(lp47
Vnn
p48
aVtravel
p49
aVsalmon
p50
aa(lp51
Vappos
p52
aVyear
p53
aVtravel
p54
aa(lp55
Vadvmod
p56
aVtravel
p57
aVupstream
p58
aa(lp59
Vdet
p60
aVocean
p61
aVthe
p62
aa(lp63
Vprep_from
p64
aVgoing
p65
aVocean
p66
aa(lp67
Vdet
p68
aVrivers
p69
aVthe
p70
aa(lp71
Vprep_to
p72
aVgoing
p73
aVrivers
p74
aa(lp75
Vadvmod
p76
aVborn
p77
aVwhere
p78
aa(lp79
Vnsubjpass
p80
aVborn
p81
aVthey
p82
aa(lp83
Vauxpass
p84
aVborn
p85
aVwere
p86
aa(lp87
Vrcmod
p88
aVrivers
p89
aVborn
p90
aasVwords
p91
(lp92
(lp93
VEach
p94
a(dp95
VTimex
p96
V<TIMEX3 periodicity="P1Y" quant="each" tid="t1" type="SET" value="P1Y">Each year</TIMEX3>
p97
sVCharacterOffsetEnd
p98
V5
p99
sVLemma
p100
Veach
p101
sVPartOfSpeech
p102
VDT
p103
sVCharacterOffsetBegin
p104
V1
p105
sVNamedEntityTag
p106
VSET
p107
saa(lp108
Vyear
p109
a(dp110
VTimex
p111
V<TIMEX3 periodicity="P1Y" quant="each" tid="t1" type="SET" value="P1Y">Each year</TIMEX3>
p112
sVCharacterOffsetEnd
p113
V10
p114
sVLemma
p115
Vyear
p116
sVPartOfSpeech
p117
VNN
p118
sVCharacterOffsetBegin
p119
V6
p120
sVNamedEntityTag
p121
VSET
p122
saa(lp123
V,
p124
a(dp125
VNamedEntityTag
p126
VO
p127
sVCharacterOffsetEnd
p128
V12
p129
sVCharacterOffsetBegin
p130
V11
p131
sVPartOfSpeech
p132
g124
sVLemma
p133
g124
saa(lp134
Vsalmon
p135
a(dp136
VNamedEntityTag
p137
g127
sVCharacterOffsetEnd
p138
V19
p139
sVCharacterOffsetBegin
p140
V13
p141
sVPartOfSpeech
p142
VNN
p143
sVLemma
p144
Vsalmon
p145
saa(lp146
Vtravel
p147
a(dp148
VNamedEntityTag
p149
g127
sVCharacterOffsetEnd
p150
V26
p151
sVCharacterOffsetBegin
p152
V20
p153
sVPartOfSpeech
p154
VNN
p155
sVLemma
p156
Vtravel
p157
saa(lp158
Vupstream
p159
a(dp160
VNamedEntityTag
p161
g127
sVCharacterOffsetEnd
p162
V35
p163
sVCharacterOffsetBegin
p164
V27
p165
sVPartOfSpeech
p166
VRB
p167
sVLemma
p168
Vupstream
p169
saa(lp170
g124
a(dp171
VNamedEntityTag
p172
g127
sVCharacterOffsetEnd
p173
V37
p174
sVCharacterOffsetBegin
p175
V36
p176
sVPartOfSpeech
p177
g124
sVLemma
p178
g124
saa(lp179
Vgoing
p180
a(dp181
VNamedEntityTag
p182
g127
sVCharacterOffsetEnd
p183
V43
p184
sVCharacterOffsetBegin
p185
V38
p186
sVPartOfSpeech
p187
VVBG
p188
sVLemma
p189
Vgo
p190
saa(lp191
Vfrom
p192
a(dp193
VNamedEntityTag
p194
g127
sVCharacterOffsetEnd
p195
V48
p196
sVCharacterOffsetBegin
p197
V44
p198
sVPartOfSpeech
p199
VIN
p200
sVLemma
p201
Vfrom
p202
saa(lp203
Vthe
p204
a(dp205
VNamedEntityTag
p206
g127
sVCharacterOffsetEnd
p207
V52
p208
sVCharacterOffsetBegin
p209
V49
p210
sVPartOfSpeech
p211
VDT
p212
sVLemma
p213
Vthe
p214
saa(lp215
Vocean
p216
a(dp217
VNamedEntityTag
p218
g127
sVCharacterOffsetEnd
p219
V58
p220
sVCharacterOffsetBegin
p221
V53
p222
sVPartOfSpeech
p223
VNN
p224
sVLemma
p225
Vocean
p226
saa(lp227
Vto
p228
a(dp229
VNamedEntityTag
p230
g127
sVCharacterOffsetEnd
p231
V61
p232
sVCharacterOffsetBegin
p233
V59
p234
sVPartOfSpeech
p235
VTO
p236
sVLemma
p237
Vto
p238
saa(lp239
Vthe
p240
a(dp241
VNamedEntityTag
p242
g127
sVCharacterOffsetEnd
p243
V65
p244
sVCharacterOffsetBegin
p245
V62
p246
sVPartOfSpeech
p247
VDT
p248
sVLemma
p249
Vthe
p250
saa(lp251
Vrivers
p252
a(dp253
VNamedEntityTag
p254
g127
sVCharacterOffsetEnd
p255
V72
p256
sVCharacterOffsetBegin
p257
V66
p258
sVPartOfSpeech
p259
VNNS
p260
sVLemma
p261
Vriver
p262
saa(lp263
Vwhere
p264
a(dp265
VNamedEntityTag
p266
g127
sVCharacterOffsetEnd
p267
V78
p268
sVCharacterOffsetBegin
p269
V73
p270
sVPartOfSpeech
p271
VWRB
p272
sVLemma
p273
Vwhere
p274
saa(lp275
Vthey
p276
a(dp277
VNamedEntityTag
p278
g127
sVCharacterOffsetEnd
p279
V83
p280
sVCharacterOffsetBegin
p281
V79
p282
sVPartOfSpeech
p283
VPRP
p284
sVLemma
p285
Vthey
p286
saa(lp287
Vwere
p288
a(dp289
VNamedEntityTag
p290
g127
sVCharacterOffsetEnd
p291
V88
p292
sVCharacterOffsetBegin
p293
V84
p294
sVPartOfSpeech
p295
VVBD
p296
sVLemma
p297
Vbe
p298
saa(lp299
Vborn
p300
a(dp301
VNamedEntityTag
p302
g127
sVCharacterOffsetEnd
p303
V93
p304
sVCharacterOffsetBegin
p305
V89
p306
sVPartOfSpeech
p307
VVBN
p308
sVLemma
p309
Vbear
p310
saa(lp311
V.
p312
a(dp313
VNamedEntityTag
p314
g127
sVCharacterOffsetEnd
p315
V95
p316
sVCharacterOffsetBegin
p317
V94
p318
sVPartOfSpeech
p319
g312
sVLemma
p320
g312
saasVindexeddependencies
p321
(lp322
(lp323
Vroot
p324
aVROOT-0
p325
aVgoing-8
p326
aa(lp327
Vdet
p328
aVyear-2
p329
aVEach-1
p330
aa(lp331
Vnsubj
p332
aVgoing-8
p333
aVyear-2
p334
aa(lp335
Vnn
p336
aVtravel-5
p337
aVsalmon-4
p338
aa(lp339
Vappos
p340
aVyear-2
p341
aVtravel-5
p342
aa(lp343
Vadvmod
p344
aVtravel-5
p345
aVupstream-6
p346
aa(lp347
Vdet
p348
aVocean-11
p349
aVthe-10
p350
aa(lp351
Vprep_from
p352
aVgoing-8
p353
aVocean-11
p354
aa(lp355
Vdet
p356
aVrivers-14
p357
aVthe-13
p358
aa(lp359
Vprep_to
p360
aVgoing-8
p361
aVrivers-14
p362
aa(lp363
Vadvmod
p364
aVborn-18
p365
aVwhere-15
p366
aa(lp367
Vnsubjpass
p368
aVborn-18
p369
aVthey-16
p370
aa(lp371
Vauxpass
p372
aVborn-18
p373
aVwere-17
p374
aa(lp375
Vrcmod
p376
aVrivers-14
p377
aVborn-18
p378
aasa(dp379
Vparsetree
p380
V(ROOT (S (NP-TMP (DT This) (NN year)) (, ,) (NP (NP (CD 712,261) (NN male)) (CC and) (NP (CD 259,378) (JJ female) (NN salmon))) (VP (VBD returned) (PP (TO to) (NP (PRP$ their) (NNS rivers)))) (. .)))
p381
sVtext
p382
VThis year , 712,261 male and 259,378 female salmon returned to their rivers .
p383
sVdependencies
p384
(lp385
(lp386
Vroot
p387
aVROOT
p388
aVreturned
p389
aa(lp390
Vdet
p391
aVyear
p392
aVThis
p393
aa(lp394
Vtmod
p395
aVreturned
p396
aVyear
p397
aa(lp398
Vnum
p399
aVmale
p400
aV712,261
p401
aa(lp402
Vnsubj
p403
aVreturned
p404
aVmale
p405
aa(lp406
Vnum
p407
aVsalmon
p408
aV259,378
p409
aa(lp410
Vamod
p411
aVsalmon
p412
aVfemale
p413
aa(lp414
Vconj_and
p415
aVmale
p416
aVsalmon
p417
aa(lp418
Vposs
p419
aVrivers
p420
aVtheir
p421
aa(lp422
Vprep_to
p423
aVreturned
p424
aVrivers
p425
aasVwords
p426
(lp427
(lp428
VThis
p429
a(dp430
VNormalizedNamedEntityTag
p431
VTHIS
p432
sVTimex
p433
V<TIMEX3 alt_value="THIS P1Y" anchorTimeID="t0" temporalFunction="true" tid="t2" type="DATE" valueFromFunction="tf0">This year</TIMEX3>
p434
sVLemma
p435
Vthis
p436
sVCharacterOffsetEnd
p437
V100
p438
sVPartOfSpeech
p439
VDT
p440
sVCharacterOffsetBegin
p441
V96
p442
sVNamedEntityTag
p443
VDATE
p444
saa(lp445
Vyear
p446
a(dp447
VNormalizedNamedEntityTag
p448
VTHIS
p449
sVTimex
p450
V<TIMEX3 alt_value="THIS P1Y" anchorTimeID="t0" temporalFunction="true" tid="t2" type="DATE" valueFromFunction="tf0">This year</TIMEX3>
p451
sVLemma
p452
Vyear
p453
sVCharacterOffsetEnd
p454
V105
p455
sVPartOfSpeech
p456
VNN
p457
sVCharacterOffsetBegin
p458
V101
p459
sVNamedEntityTag
p460
VDATE
p461
saa(lp462
g124
a(dp463
VNamedEntityTag
p464
g127
sVCharacterOffsetEnd
p465
V107
p466
sVCharacterOffsetBegin
p467
V106
p468
sVPartOfSpeech
p469
g124
sVLemma
p470
g124
saa(lp471
V712,261
p472
a(dp473
VNormalizedNamedEntityTag
p474
V712261.0
p475
sVLemma
p476
V712,261
p477
sVCharacterOffsetEnd
p478
V115
p479
sVPartOfSpeech
p480
VCD
p481
sVCharacterOffsetBegin
p482
V108
p483
sVNamedEntityTag
p484
VNUMBER
p485
saa(lp486
Vmale
p487
a(dp488
VNamedEntityTag
p489
g127
sVCharacterOffsetEnd
p490
V120
p491
sVCharacterOffsetBegin
p492
V116
p493
sVPartOfSpeech
p494
VNN
p495
sVLemma
p496
Vmale
p497
saa(lp498
Vand
p499
a(dp500
VNamedEntityTag
p501
g127
sVCharacterOffsetEnd
p502
V124
p503
sVCharacterOffsetBegin
p504
V121
p505
sVPartOfSpeech
p506
VCC
p507
sVLemma
p508
Vand
p509
saa(lp510
V259,378
p511
a(dp512
VNormalizedNamedEntityTag
p513
V259378.0
p514
sVLemma
p515
V259,378
p516
sVCharacterOffsetEnd
p517
V132
p518
sVPartOfSpeech
p519
VCD
p520
sVCharacterOffsetBegin
p521
V125
p522
sVNamedEntityTag
p523
VNUMBER
p524
saa(lp525
Vfemale
p526
a(dp527
VNamedEntityTag
p528
g127
sVCharacterOffsetEnd
p529
V139
p530
sVCharacterOffsetBegin
p531
V133
p532
sVPartOfSpeech
p533
VJJ
p534
sVLemma
p535
Vfemale
p536
saa(lp537
Vsalmon
p538
a(dp539
VNamedEntityTag
p540
g127
sVCharacterOffsetEnd
p541
V146
p542
sVCharacterOffsetBegin
p543
V140
p544
sVPartOfSpeech
p545
VNN
p546
sVLemma
p547
Vsalmon
p548
saa(lp549
Vreturned
p550
a(dp551
VNamedEntityTag
p552
g127
sVCharacterOffsetEnd
p553
V155
p554
sVCharacterOffsetBegin
p555
V147
p556
sVPartOfSpeech
p557
VVBD
p558
sVLemma
p559
Vreturn
p560
saa(lp561
Vto
p562
a(dp563
VNamedEntityTag
p564
g127
sVCharacterOffsetEnd
p565
V158
p566
sVCharacterOffsetBegin
p567
V156
p568
sVPartOfSpeech
p569
VTO
p570
sVLemma
p571
Vto
p572
saa(lp573
Vtheir
p574
a(dp575
VNamedEntityTag
p576
g127
sVCharacterOffsetEnd
p577
V164
p578
sVCharacterOffsetBegin
p579
V159
p580
sVPartOfSpeech
p581
VPRP$
p582
sVLemma
p583
Vthey
p584
saa(lp585
Vrivers
p586
a(dp587
VNamedEntityTag
p588
g127
sVCharacterOffsetEnd
p589
V171
p590
sVCharacterOffsetBegin
p591
V165
p592
sVPartOfSpeech
p593
VNNS
p594
sVLemma
p595
Vriver
p596
saa(lp597
g312
a(dp598
VNamedEntityTag
p599
g127
sVCharacterOffsetEnd
p600
V173
p601
sVCharacterOffsetBegin
p602
V172
p603
sVPartOfSpeech
p604
g312
sVLemma
p605
g312
saasVindexeddependencies
p606
(lp607
(lp608
Vroot
p609
aVROOT-0
p610
aVreturned-10
p611
aa(lp612
Vdet
p613
aVyear-2
p614
aVThis-1
p615
aa(lp616
Vtmod
p617
aVreturned-10
p618
aVyear-2
p619
aa(lp620
Vnum
p621
aVmale-5
p622
aV712,261-4
p623
aa(lp624
Vnsubj
p625
aVreturned-10
p626
aVmale-5
p627
aa(lp628
Vnum
p629
aVsalmon-9
p630
aV259,378-7
p631
aa(lp632
Vamod
p633
aVsalmon-9
p634
aVfemale-8
p635
aa(lp636
Vconj_and
p637
aVmale-5
p638
aVsalmon-9
p639
aa(lp640
Vposs
p641
aVrivers-13
p642
aVtheir-12
p643
aa(lp644
Vprep_to
p645
aVreturned-10
p646
aVrivers-13
p647
aasa(dp648
Vparsetree
p649
V(ROOT (SBARQ (WHNP (WHADJP (WRB How) (JJ many)) (NN salmon)) (SQ (VP (VBD made) (NP (DT the) (NN trip)))) (. ?)))
p650
sVtext
p651
VHow many salmon made the trip ?
p652
sVdependencies
p653
(lp654
(lp655
Vroot
p656
aVROOT
p657
aVmade
p658
aa(lp659
Vadvmod
p660
aVmany
p661
aVHow
p662
aa(lp663
Vamod
p664
aVsalmon
p665
aVmany
p666
aa(lp667
Vnsubj
p668
aVmade
p669
aVsalmon
p670
aa(lp671
Vdet
p672
aVtrip
p673
aVthe
p674
aa(lp675
Vdobj
p676
aVmade
p677
aVtrip
p678
aasVwords
p679
(lp680
(lp681
VHow
p682
a(dp683
VNamedEntityTag
p684
g127
sVCharacterOffsetEnd
p685
V177
p686
sVCharacterOffsetBegin
p687
V174
p688
sVPartOfSpeech
p689
VWRB
p690
sVLemma
p691
Vhow
p692
saa(lp693
Vmany
p694
a(dp695
VNamedEntityTag
p696
g127
sVCharacterOffsetEnd
p697
V182
p698
sVCharacterOffsetBegin
p699
V178
p700
sVPartOfSpeech
p701
VJJ
p702
sVLemma
p703
Vmany
p704
saa(lp705
Vsalmon
p706
a(dp707
VNamedEntityTag
p708
g127
sVCharacterOffsetEnd
p709
V189
p710
sVCharacterOffsetBegin
p711
V183
p712
sVPartOfSpeech
p713
VNN
p714
sVLemma
p715
Vsalmon
p716
saa(lp717
Vmade
p718
a(dp719
VNamedEntityTag
p720
g127
sVCharacterOffsetEnd
p721
V194
p722
sVCharacterOffsetBegin
p723
V190
p724
sVPartOfSpeech
p725
VVBD
p726
sVLemma
p727
Vmake
p728
saa(lp729
Vthe
p730
a(dp731
VNamedEntityTag
p732
g127
sVCharacterOffsetEnd
p733
V198
p734
sVCharacterOffsetBegin
p735
V195
p736
sVPartOfSpeech
p737
VDT
p738
sVLemma
p739
Vthe
p740
saa(lp741
Vtrip
p742
a(dp743
VNamedEntityTag
p744
g127
sVCharacterOffsetEnd
p745
V203
p746
sVCharacterOffsetBegin
p747
V199
p748
sVPartOfSpeech
p749
VNN
p750
sVLemma
p751
Vtrip
p752
saa(lp753
V?
p754
a(dp755
VNamedEntityTag
p756
g127
sVCharacterOffsetEnd
p757
V205
p758
sVCharacterOffsetBegin
p759
V204
p760
sVPartOfSpeech
p761
g312
sVLemma
p762
g754
saasVindexeddependencies
p763
(lp764
(lp765
Vroot
p766
aVROOT-0
p767
aVmade-4
p768
aa(lp769
Vadvmod
p770
aVmany-2
p771
aVHow-1
p772
aa(lp773
Vamod
p774
aVsalmon-3
p775
aVmany-2
p776
aa(lp777
Vnsubj
p778
aVmade-4
p779
aVsalmon-3
p780
aa(lp781
Vdet
p782
aVtrip-6
p783
aVthe-5
p784
aa(lp785
Vdobj
p786
aVmade-4
p787
aVtrip-6
p788
aasas.