(dp0
Vcoref
p1
(lp2
(lp3
(lp4
(lp5
VShe
p6
aI1
aI0
aI0
aI1
aa(lp7
Vsome of her old winter clothes
p8
aI0
aI3
aI3
aI9
aaaasVsentences
p9
(lp10
(dp11
Vparsetree
p12
V(ROOT (S (NP (NN Zoe)) (VP (VBD was) (VP (VBG unboxing) (NP (NP (DT some)) (PP (IN of) (NP (PRP$ her) (JJ old) (NN winter) (NNS clothes)))))) (. .)))
p13
sVtext
p14
VZoe was unboxing some of her old winter clothes .
p15
sVdependencies
p16
(lp17
(lp18
Vroot
p19
aVROOT
p20
aVunboxing
p21
aa(lp22
Vnsubj
p23
aVunboxing
p24
aVZoe
p25
aa(lp26
Vaux
p27
aVunboxing
p28
aVwas
p29
aa(lp30
Vdobj
p31
aVunboxing
p32
aVsome
p33
aa(lp34
Vposs
p35
aVclothes
p36
aVher
p37
aa(lp38
Vamod
p39
aVclothes
p40
aVold
p41
aa(lp42
Vnn
p43
aVclothes
p44
aVwinter
p45
aa(lp46
Vprep_of
p47
aVsome
p48
aVclothes
p49
aasVwords
p50
(lp51
(lp52
VZoe
p53
a(dp54
VNamedEntityTag
p55
VPERSON
p56
sVCharacterOffsetEnd
p57
V4
p58
sVCharacterOffsetBegin
p59
V1
p60
sVPartOfSpeech
p61
VNN
p62
sVLemma
p63
Vzoe
p64
saa(lp65
Vwas
p66
a(dp67
VNamedEntityTag
p68
VO
p69
sVCharacterOffsetEnd
p70
V8
p71
sVCharacterOffsetBegin
p72
V5
p73
sVPartOfSpeech
p74
VVBD
p75
sVLemma
p76
Vbe
p77
saa(lp78
Vunboxing
p79
a(dp80
VNamedEntityTag
p81
g69
sVCharacterOffsetEnd
p82
V17
p83
sVCharacterOffsetBegin
p84
V9
p85
sVPartOfSpeech
p86
VVBG
p87
sVLemma
p88
Vunbox
p89
saa(lp90
Vsome
p91
a(dp92
VNamedEntityTag
p93
g69
sVCharacterOffsetEnd
p94
V22
p95
sVCharacterOffsetBegin
p96
V18
p97
sVPartOfSpeech
p98
VDT
p99
sVLemma
p100
Vsome
p101
saa(lp102
Vof
p103
a(dp104
VNamedEntityTag
p105
g69
sVCharacterOffsetEnd
p106
V25
p107
sVCharacterOffsetBegin
p108
V23
p109
sVPartOfSpeech
p110
VIN
p111
sVLemma
p112
Vof
p113
saa(lp114
Vher
p115
a(dp116
VNamedEntityTag
p117
g69
sVCharacterOffsetEnd
p118
V29
p119
sVCharacterOffsetBegin
p120
V26
p121
sVPartOfSpeech
p122
VPRP$
p123
sVLemma
p124
Vshe
p125
saa(lp126
Vold
p127
a(dp128
VNamedEntityTag
p129
g69
sVCharacterOffsetEnd
p130
V33
p131
sVCharacterOffsetBegin
p132
V30
p133
sVPartOfSpeech
p134
VJJ
p135
sVLemma
p136
Vold
p137
saa(lp138
Vwinter
p139
a(dp140
VNormalizedNamedEntityTag
p141
VXXXX-WI
p142
sVTimex
p143
V<TIMEX3 tid="t1" type="DATE" value="XXXX-WI">winter</TIMEX3>
p144
sVLemma
p145
Vwinter
p146
sVCharacterOffsetEnd
p147
V40
p148
sVPartOfSpeech
p149
VNN
p150
sVCharacterOffsetBegin
p151
V34
p152
sVNamedEntityTag
p153
VDATE
p154
saa(lp155
Vclothes
p156
a(dp157
VNamedEntityTag
p158
g69
sVCharacterOffsetEnd
p159
V48
p160
sVCharacterOffsetBegin
p161
V41
p162
sVPartOfSpeech
p163
VNNS
p164
sVLemma
p165
Vclothes
p166
saa(lp167
V.
p168
a(dp169
VNamedEntityTag
p170
g69
sVCharacterOffsetEnd
p171
V50
p172
sVCharacterOffsetBegin
p173
V49
p174
sVPartOfSpeech
p175
g168
sVLemma
p176
g168
saasVindexeddependencies
p177
(lp178
(lp179
Vroot
p180
aVROOT-0
p181
aVunboxing-3
p182
aa(lp183
Vnsubj
p184
aVunboxing-3
p185
aVZoe-1
p186
aa(lp187
Vaux
p188
aVunboxing-3
p189
aVwas-2
p190
aa(lp191
Vdobj
p192
aVunboxing-3
p193
aVsome-4
p194
aa(lp195
Vposs
p196
aVclothes-9
p197
aVher-6
p198
aa(lp199
Vamod
p200
aVclothes-9
p201
aVold-7
p202
aa(lp203
Vnn
p204
aVclothes-9
p205
aVwinter-8
p206
aa(lp207
Vprep_of
p208
aVsome-4
p209
aVclothes-9
p210
aasa(dp211
Vparsetree
p212
V(ROOT (S (S (NP (PRP She)) (VP (VBD found) (NP (NP (CD 8) (NNS boxes)) (PP (IN of) (NP (NN clothing)))))) (CC and) (S (PP (IN inside) (NP (DT each) (NN box))) (NP (EX there)) (VP (VBD were) (NP (NP (CD 4) (NNS scarves)) (CC and) (NP (CD 6) (NNS mittens))))) (. .)))
p213
sVtext
p214
VShe found 8 boxes of clothing and inside each box there were 4 scarves and 6 mittens .
p215
sVdependencies
p216
(lp217
(lp218
Vroot
p219
aVROOT
p220
aVfound
p221
aa(lp222
Vnsubj
p223
aVfound
p224
aVShe
p225
aa(lp226
Vnum
p227
aVboxes
p228
ag71
aa(lp229
Vdobj
p230
aVfound
p231
aVboxes
p232
aa(lp233
Vprep_of
p234
aVboxes
p235
aVclothing
p236
aa(lp237
Vdet
p238
aVbox
p239
aVeach
p240
aa(lp241
Vprep_inside
p242
aVwere
p243
aVbox
p244
aa(lp245
Vexpl
p246
aVwere
p247
aVthere
p248
aa(lp249
Vconj_and
p250
aVfound
p251
aVwere
p252
aa(lp253
Vnum
p254
aVscarves
p255
ag58
aa(lp256
Vnsubj
p257
aVwere
p258
aVscarves
p259
aa(lp260
Vnum
p261
aVmittens
p262
aV6
p263
aa(lp264
Vconj_and
p265
aVscarves
p266
aVmittens
p267
aasVwords
p268
(lp269
(lp270
VShe
p271
a(dp272
VNamedEntityTag
p273
g69
sVCharacterOffsetEnd
p274
V54
p275
sVCharacterOffsetBegin
p276
V51
p277
sVPartOfSpeech
p278
VPRP
p279
sVLemma
p280
Vshe
p281
saa(lp282
Vfound
p283
a(dp284
VNamedEntityTag
p285
g69
sVCharacterOffsetEnd
p286
V60
p287
sVCharacterOffsetBegin
p288
V55
p289
sVPartOfSpeech
p290
VVBD
p291
sVLemma
p292
Vfind
p293
saa(lp294
g71
a(dp295
VNormalizedNamedEntityTag
p296
V8.0
p297
sVLemma
p298
g71
sVCharacterOffsetEnd
p299
V62
p300
sVPartOfSpeech
p301
VCD
p302
sVCharacterOffsetBegin
p303
V61
p304
sVNamedEntityTag
p305
VNUMBER
p306
saa(lp307
Vboxes
p308
a(dp309
VNamedEntityTag
p310
g69
sVCharacterOffsetEnd
p311
V68
p312
sVCharacterOffsetBegin
p313
V63
p314
sVPartOfSpeech
p315
VNNS
p316
sVLemma
p317
Vbox
p318
saa(lp319
Vof
p320
a(dp321
VNamedEntityTag
p322
g69
sVCharacterOffsetEnd
p323
V71
p324
sVCharacterOffsetBegin
p325
V69
p326
sVPartOfSpeech
p327
VIN
p328
sVLemma
p329
Vof
p330
saa(lp331
Vclothing
p332
a(dp333
VNamedEntityTag
p334
g69
sVCharacterOffsetEnd
p335
V80
p336
sVCharacterOffsetBegin
p337
V72
p338
sVPartOfSpeech
p339
VNN
p340
sVLemma
p341
Vclothing
p342
saa(lp343
Vand
p344
a(dp345
VNamedEntityTag
p346
g69
sVCharacterOffsetEnd
p347
V84
p348
sVCharacterOffsetBegin
p349
V81
p350
sVPartOfSpeech
p351
VCC
p352
sVLemma
p353
Vand
p354
saa(lp355
Vinside
p356
a(dp357
VNamedEntityTag
p358
g69
sVCharacterOffsetEnd
p359
V91
p360
sVCharacterOffsetBegin
p361
V85
p362
sVPartOfSpeech
p363
VIN
p364
sVLemma
p365
Vinside
p366
saa(lp367
Veach
p368
a(dp369
VNamedEntityTag
p370
g69
sVCharacterOffsetEnd
p371
V96
p372
sVCharacterOffsetBegin
p373
V92
p374
sVPartOfSpeech
p375
VDT
p376
sVLemma
p377
Veach
p378
saa(lp379
Vbox
p380
a(dp381
VNamedEntityTag
p382
g69
sVCharacterOffsetEnd
p383
V100
p384
sVCharacterOffsetBegin
p385
V97
p386
sVPartOfSpeech
p387
VNN
p388
sVLemma
p389
Vbox
p390
saa(lp391
Vthere
p392
a(dp393
VNamedEntityTag
p394
g69
sVCharacterOffsetEnd
p395
V106
p396
sVCharacterOffsetBegin
p397
V101
p398
sVPartOfSpeech
p399
VEX
p400
sVLemma
p401
Vthere
p402
saa(lp403
Vwere
p404
a(dp405
VNamedEntityTag
p406
g69
sVCharacterOffsetEnd
p407
V111
p408
sVCharacterOffsetBegin
p409
V107
p410
sVPartOfSpeech
p411
VVBD
p412
sVLemma
p413
Vbe
p414
saa(lp415
g58
a(dp416
VNormalizedNamedEntityTag
p417
V4.0
p418
sVLemma
p419
g58
sVCharacterOffsetEnd
p420
V113
p421
sVPartOfSpeech
p422
VCD
p423
sVCharacterOffsetBegin
p424
V112
p425
sVNamedEntityTag
p426
VNUMBER
p427
saa(lp428
Vscarves
p429
a(dp430
VNamedEntityTag
p431
g69
sVCharacterOffsetEnd
p432
V121
p433
sVCharacterOffsetBegin
p434
V114
p435
sVPartOfSpeech
p436
VNNS
p437
sVLemma
p438
Vscarf
p439
saa(lp440
Vand
p441
a(dp442
VNamedEntityTag
p443
g69
sVCharacterOffsetEnd
p444
V125
p445
sVCharacterOffsetBegin
p446
V122
p447
sVPartOfSpeech
p448
VCC
p449
sVLemma
p450
Vand
p451
saa(lp452
g263
a(dp453
VNormalizedNamedEntityTag
p454
V6.0
p455
sVLemma
p456
g263
sVCharacterOffsetEnd
p457
V127
p458
sVPartOfSpeech
p459
VCD
p460
sVCharacterOffsetBegin
p461
V126
p462
sVNamedEntityTag
p463
VNUMBER
p464
saa(lp465
Vmittens
p466
a(dp467
VNamedEntityTag
p468
g69
sVCharacterOffsetEnd
p469
V135
p470
sVCharacterOffsetBegin
p471
V128
p472
sVPartOfSpeech
p473
VNNS
p474
sVLemma
p475
Vmitten
p476
saa(lp477
g168
a(dp478
VNamedEntityTag
p479
g69
sVCharacterOffsetEnd
p480
V137
p481
sVCharacterOffsetBegin
p482
V136
p483
sVPartOfSpeech
p484
g168
sVLemma
p485
g168
saasVindexeddependencies
p486
(lp487
(lp488
Vroot
p489
aVROOT-0
p490
aVfound-2
p491
aa(lp492
Vnsubj
p493
aVfound-2
p494
aVShe-1
p495
aa(lp496
Vnum
p497
aVboxes-4
p498
aV8-3
p499
aa(lp500
Vdobj
p501
aVfound-2
p502
aVboxes-4
p503
aa(lp504
Vprep_of
p505
aVboxes-4
p506
aVclothing-6
p507
aa(lp508
Vdet
p509
aVbox-10
p510
aVeach-9
p511
aa(lp512
Vprep_inside
p513
aVwere-12
p514
aVbox-10
p515
aa(lp516
Vexpl
p517
aVwere-12
p518
aVthere-11
p519
aa(lp520
Vconj_and
p521
aVfound-2
p522
aVwere-12
p523
aa(lp524
Vnum
p525
aVscarves-14
p526
aV4-13
p527
aa(lp528
Vnsubj
p529
aVwere-12
p530
aVscarves-14
p531
aa(lp532
Vnum
p533
aVmittens-17
p534
aV6-16
p535
aa(lp536
Vconj_and
p537
aVscarves-14
p538
aVmittens-17
p539
aasa(dp540
Vparsetree
p541
V(ROOT (SBARQ (WHNP (WHADJP (WRB How) (JJ many)) (NP (NP (NNS pieces)) (PP (IN of) (NP (NN winter) (NN clothing))))) (SQ (VBD did) (NP (NNP Zoe)) (VP (VB have) (NP (NN total)))) (. ?)))
p542
sVtext
p543
VHow many pieces of winter clothing did Zoe have total ?
p544
sVdependencies
p545
(lp546
(lp547
Vroot
p548
aVROOT
p549
aVhave
p550
aa(lp551
Vadvmod
p552
aVmany
p553
aVHow
p554
aa(lp555
Vamod
p556
aVpieces
p557
aVmany
p558
aa(lp559
Vdep
p560
aVhave
p561
aVpieces
p562
aa(lp563
Vnn
p564
aVclothing
p565
aVwinter
p566
aa(lp567
Vprep_of
p568
aVpieces
p569
aVclothing
p570
aa(lp571
Vaux
p572
aVhave
p573
aVdid
p574
aa(lp575
Vnsubj
p576
aVhave
p577
aVZoe
p578
aa(lp579
Vdobj
p580
aVhave
p581
aVtotal
p582
aasVwords
p583
(lp584
(lp585
VHow
p586
a(dp587
VNamedEntityTag
p588
g69
sVCharacterOffsetEnd
p589
V141
p590
sVCharacterOffsetBegin
p591
V138
p592
sVPartOfSpeech
p593
VWRB
p594
sVLemma
p595
Vhow
p596
saa(lp597
Vmany
p598
a(dp599
VNamedEntityTag
p600
g69
sVCharacterOffsetEnd
p601
V146
p602
sVCharacterOffsetBegin
p603
V142
p604
sVPartOfSpeech
p605
VJJ
p606
sVLemma
p607
Vmany
p608
saa(lp609
Vpieces
p610
a(dp611
VNamedEntityTag
p612
g69
sVCharacterOffsetEnd
p613
V153
p614
sVCharacterOffsetBegin
p615
V147
p616
sVPartOfSpeech
p617
VNNS
p618
sVLemma
p619
Vpiece
p620
saa(lp621
Vof
p622
a(dp623
VNamedEntityTag
p624
g69
sVCharacterOffsetEnd
p625
V156
p626
sVCharacterOffsetBegin
p627
V154
p628
sVPartOfSpeech
p629
VIN
p630
sVLemma
p631
Vof
p632
saa(lp633
Vwinter
p634
a(dp635
VNormalizedNamedEntityTag
p636
VXXXX-WI
p637
sVTimex
p638
V<TIMEX3 tid="t2" type="DATE" value="XXXX-WI">winter</TIMEX3>
p639
sVLemma
p640
Vwinter
p641
sVCharacterOffsetEnd
p642
V163
p643
sVPartOfSpeech
p644
VNN
p645
sVCharacterOffsetBegin
p646
V157
p647
sVNamedEntityTag
p648
VDATE
p649
saa(lp650
Vclothing
p651
a(dp652
VNamedEntityTag
p653
g69
sVCharacterOffsetEnd
p654
V172
p655
sVCharacterOffsetBegin
p656
V164
p657
sVPartOfSpeech
p658
VNN
p659
sVLemma
p660
Vclothing
p661
saa(lp662
Vdid
p663
a(dp664
VNamedEntityTag
p665
g69
sVCharacterOffsetEnd
p666
V176
p667
sVCharacterOffsetBegin
p668
V173
p669
sVPartOfSpeech
p670
VVBD
p671
sVLemma
p672
Vdo
p673
saa(lp674
VZoe
p675
a(dp676
VNamedEntityTag
p677
VPERSON
p678
sVCharacterOffsetEnd
p679
V180
p680
sVCharacterOffsetBegin
p681
V177
p682
sVPartOfSpeech
p683
VNNP
p684
sVLemma
p685
VZoe
p686
saa(lp687
Vhave
p688
a(dp689
VNamedEntityTag
p690
g69
sVCharacterOffsetEnd
p691
V185
p692
sVCharacterOffsetBegin
p693
V181
p694
sVPartOfSpeech
p695
VVB
p696
sVLemma
p697
Vhave
p698
saa(lp699
Vtotal
p700
a(dp701
VNamedEntityTag
p702
g69
sVCharacterOffsetEnd
p703
V191
p704
sVCharacterOffsetBegin
p705
V186
p706
sVPartOfSpeech
p707
VNN
p708
sVLemma
p709
Vtotal
p710
saa(lp711
V?
p712
a(dp713
VNamedEntityTag
p714
g69
sVCharacterOffsetEnd
p715
V193
p716
sVCharacterOffsetBegin
p717
V192
p718
sVPartOfSpeech
p719
g168
sVLemma
p720
g712
saasVindexeddependencies
p721
(lp722
(lp723
Vroot
p724
aVROOT-0
p725
aVhave-9
p726
aa(lp727
Vadvmod
p728
aVmany-2
p729
aVHow-1
p730
aa(lp731
Vamod
p732
aVpieces-3
p733
aVmany-2
p734
aa(lp735
Vdep
p736
aVhave-9
p737
aVpieces-3
p738
aa(lp739
Vnn
p740
aVclothing-6
p741
aVwinter-5
p742
aa(lp743
Vprep_of
p744
aVpieces-3
p745
aVclothing-6
p746
aa(lp747
Vaux
p748
aVhave-9
p749
aVdid-7
p750
aa(lp751
Vnsubj
p752
aVhave-9
p753
aVZoe-8
p754
aa(lp755
Vdobj
p756
aVhave-9
p757
aVtotal-10
p758
aasas.