(dp0
Vcoref
p1
(lp2
(lp3
(lp4
(lp5
Vits
p6
aI0
aI17
aI17
aI18
aa(lp7
VA software company in Silvergrove
p8
aI0
aI2
aI0
aI5
aaa(lp9
(lp10
VThe company
p11
aI1
aI1
aI0
aI2
aa(lp12
VA software company in Silvergrove
p13
aI0
aI2
aI0
aI5
aaa(lp14
(lp15
Vits
p16
aI1
aI4
aI4
aI5
aa(lp17
VA software company in Silvergrove
p18
aI0
aI2
aI0
aI5
aaaa(lp19
(lp20
(lp21
Vhour
p22
aI1
aI12
aI12
aI13
aa(lp23
Vhour for work done by its consultants
p24
aI0
aI12
aI12
aI19
aaaasVsentences
p25
(lp26
(dp27
Vparsetree
p28
V(ROOT (S (NP (NP (DT A) (NN software) (NN company)) (PP (IN in) (NP (NNP Silvergrove)))) (VP (VBD used) (PP (TO to) (NP (NN bill) (NNS clients))) (NP (NP ($ $) (CD 280)) (PP (IN per) (NP (NP (NN hour)) (PP (IN for) (NP (NP (NN work)) (VP (VBN done) (PP (IN by) (NP (PRP$ its) (NNS consultants)))))))))) (. .)))
p29
sVtext
p30
VA software company in Silvergrove used to bill clients $280 per hour for work done by its consultants .
p31
sVdependencies
p32
(lp33
(lp34
Vroot
p35
aVROOT
p36
aVused
p37
aa(lp38
Vdet
p39
aVcompany
p40
aVA
p41
aa(lp42
Vnn
p43
aVcompany
p44
aVsoftware
p45
aa(lp46
Vnsubj
p47
aVused
p48
aVcompany
p49
aa(lp50
Vprep_in
p51
aVcompany
p52
aVSilvergrove
p53
aa(lp54
Vnn
p55
aVclients
p56
aVbill
p57
aa(lp58
Vprep_to
p59
aVused
p60
aVclients
p61
aa(lp62
Vdobj
p63
aVused
p64
aV$
p65
aa(lp66
Vnum
p67
ag65
aV280
p68
aa(lp69
Vprep_per
p70
ag65
aVhour
p71
aa(lp72
Vprep_for
p73
aVhour
p74
aVwork
p75
aa(lp76
Vvmod
p77
aVwork
p78
aVdone
p79
aa(lp80
Vposs
p81
aVconsultants
p82
aVits
p83
aa(lp84
Vagent
p85
aVdone
p86
aVconsultants
p87
aasVwords
p88
(lp89
(lp90
g41
a(dp91
VNamedEntityTag
p92
VO
p93
sVCharacterOffsetEnd
p94
V2
p95
sVCharacterOffsetBegin
p96
V1
p97
sVPartOfSpeech
p98
VDT
p99
sVLemma
p100
Va
p101
saa(lp102
Vsoftware
p103
a(dp104
VNamedEntityTag
p105
g93
sVCharacterOffsetEnd
p106
V11
p107
sVCharacterOffsetBegin
p108
V3
p109
sVPartOfSpeech
p110
VNN
p111
sVLemma
p112
Vsoftware
p113
saa(lp114
Vcompany
p115
a(dp116
VNamedEntityTag
p117
g93
sVCharacterOffsetEnd
p118
V19
p119
sVCharacterOffsetBegin
p120
V12
p121
sVPartOfSpeech
p122
VNN
p123
sVLemma
p124
Vcompany
p125
saa(lp126
Vin
p127
a(dp128
VNamedEntityTag
p129
g93
sVCharacterOffsetEnd
p130
V22
p131
sVCharacterOffsetBegin
p132
V20
p133
sVPartOfSpeech
p134
VIN
p135
sVLemma
p136
Vin
p137
saa(lp138
VSilvergrove
p139
a(dp140
VNamedEntityTag
p141
VLOCATION
p142
sVCharacterOffsetEnd
p143
V34
p144
sVCharacterOffsetBegin
p145
V23
p146
sVPartOfSpeech
p147
VNNP
p148
sVLemma
p149
VSilvergrove
p150
saa(lp151
Vused
p152
a(dp153
VNamedEntityTag
p154
g93
sVCharacterOffsetEnd
p155
V39
p156
sVCharacterOffsetBegin
p157
V35
p158
sVPartOfSpeech
p159
VVBD
p160
sVLemma
p161
Vuse
p162
saa(lp163
Vto
p164
a(dp165
VNamedEntityTag
p166
g93
sVCharacterOffsetEnd
p167
V42
p168
sVCharacterOffsetBegin
p169
V40
p170
sVPartOfSpeech
p171
VTO
p172
sVLemma
p173
Vto
p174
saa(lp175
Vbill
p176
a(dp177
VNamedEntityTag
p178
g93
sVCharacterOffsetEnd
p179
V47
p180
sVCharacterOffsetBegin
p181
V43
p182
sVPartOfSpeech
p183
VNN
p184
sVLemma
p185
Vbill
p186
saa(lp187
Vclients
p188
a(dp189
VNamedEntityTag
p190
g93
sVCharacterOffsetEnd
p191
V55
p192
sVCharacterOffsetBegin
p193
V48
p194
sVPartOfSpeech
p195
VNNS
p196
sVLemma
p197
Vclient
p198
saa(lp199
g65
a(dp200
VNormalizedNamedEntityTag
p201
V$280.0
p202
sVLemma
p203
g65
sVCharacterOffsetEnd
p204
V57
p205
sVPartOfSpeech
p206
g65
sVCharacterOffsetBegin
p207
V56
p208
sVNamedEntityTag
p209
VMONEY
p210
saa(lp211
V280
p212
a(dp213
VNormalizedNamedEntityTag
p214
V$280.0
p215
sVLemma
p216
V280
p217
sVCharacterOffsetEnd
p218
V60
p219
sVPartOfSpeech
p220
VCD
p221
sVCharacterOffsetBegin
p222
V57
p223
sVNamedEntityTag
p224
VMONEY
p225
saa(lp226
Vper
p227
a(dp228
VNamedEntityTag
p229
g93
sVCharacterOffsetEnd
p230
V64
p231
sVCharacterOffsetBegin
p232
V61
p233
sVPartOfSpeech
p234
VIN
p235
sVLemma
p236
Vper
p237
saa(lp238
Vhour
p239
a(dp240
VNormalizedNamedEntityTag
p241
VPT1H
p242
sVTimex
p243
V<TIMEX3 tid="t1" type="DURATION" value="PT1H">hour</TIMEX3>
p244
sVLemma
p245
Vhour
p246
sVCharacterOffsetEnd
p247
V69
p248
sVPartOfSpeech
p249
VNN
p250
sVCharacterOffsetBegin
p251
V65
p252
sVNamedEntityTag
p253
VDURATION
p254
saa(lp255
Vfor
p256
a(dp257
VNamedEntityTag
p258
g93
sVCharacterOffsetEnd
p259
V73
p260
sVCharacterOffsetBegin
p261
V70
p262
sVPartOfSpeech
p263
VIN
p264
sVLemma
p265
Vfor
p266
saa(lp267
Vwork
p268
a(dp269
VNamedEntityTag
p270
g93
sVCharacterOffsetEnd
p271
V78
p272
sVCharacterOffsetBegin
p273
V74
p274
sVPartOfSpeech
p275
VNN
p276
sVLemma
p277
Vwork
p278
saa(lp279
Vdone
p280
a(dp281
VNamedEntityTag
p282
g93
sVCharacterOffsetEnd
p283
V83
p284
sVCharacterOffsetBegin
p285
V79
p286
sVPartOfSpeech
p287
VVBN
p288
sVLemma
p289
Vdo
p290
saa(lp291
Vby
p292
a(dp293
VNamedEntityTag
p294
g93
sVCharacterOffsetEnd
p295
V86
p296
sVCharacterOffsetBegin
p297
V84
p298
sVPartOfSpeech
p299
VIN
p300
sVLemma
p301
Vby
p302
saa(lp303
Vits
p304
a(dp305
VNamedEntityTag
p306
g93
sVCharacterOffsetEnd
p307
V90
p308
sVCharacterOffsetBegin
p309
V87
p310
sVPartOfSpeech
p311
VPRP$
p312
sVLemma
p313
Vits
p314
saa(lp315
Vconsultants
p316
a(dp317
VNamedEntityTag
p318
g93
sVCharacterOffsetEnd
p319
V102
p320
sVCharacterOffsetBegin
p321
V91
p322
sVPartOfSpeech
p323
VNNS
p324
sVLemma
p325
Vconsultant
p326
saa(lp327
V.
p328
a(dp329
VNamedEntityTag
p330
g93
sVCharacterOffsetEnd
p331
V104
p332
sVCharacterOffsetBegin
p333
V103
p334
sVPartOfSpeech
p335
g328
sVLemma
p336
g328
saasVindexeddependencies
p337
(lp338
(lp339
Vroot
p340
aVROOT-0
p341
aVused-6
p342
aa(lp343
Vdet
p344
aVcompany-3
p345
aVA-1
p346
aa(lp347
Vnn
p348
aVcompany-3
p349
aVsoftware-2
p350
aa(lp351
Vnsubj
p352
aVused-6
p353
aVcompany-3
p354
aa(lp355
Vprep_in
p356
aVcompany-3
p357
aVSilvergrove-5
p358
aa(lp359
Vnn
p360
aVclients-9
p361
aVbill-8
p362
aa(lp363
Vprep_to
p364
aVused-6
p365
aVclients-9
p366
aa(lp367
Vdobj
p368
aVused-6
p369
aV$-10
p370
aa(lp371
Vnum
p372
aV$-10
p373
aV280-11
p374
aa(lp375
Vprep_per
p376
aV$-10
p377
aVhour-13
p378
aa(lp379
Vprep_for
p380
aVhour-13
p381
aVwork-15
p382
aa(lp383
Vvmod
p384
aVwork-15
p385
aVdone-16
p386
aa(lp387
Vposs
p388
aVconsultants-19
p389
aVits-18
p390
aa(lp391
Vagent
p392
aVdone-16
p393
aVconsultants-19
p394
aasa(dp395
Vparsetree
p396
V(ROOT (S (NP (DT The) (NN company)) (ADVP (RB recently)) (VP (VP (VBN adjusted) (NP (PRP$ its) (NNS rates))) (CC and) (VP (ADVP (RB now)) (VBZ charges) (NP (NP ($ $) (CD 196)) (PP (IN per) (NP (NN hour)))))) (. .)))
p397
sVtext
p398
VThe company recently adjusted its rates and now charges $196 per hour .
p399
sVdependencies
p400
(lp401
(lp402
Vroot
p403
aVROOT
p404
aVadjusted
p405
aa(lp406
Vdet
p407
aVcompany
p408
aVThe
p409
aa(lp410
Vnsubj
p411
aVadjusted
p412
aVcompany
p413
aa(lp414
Vadvmod
p415
aVadjusted
p416
aVrecently
p417
aa(lp418
Vposs
p419
aVrates
p420
aVits
p421
aa(lp422
Vdobj
p423
aVadjusted
p424
aVrates
p425
aa(lp426
Vadvmod
p427
aVcharges
p428
aVnow
p429
aa(lp430
Vconj_and
p431
aVadjusted
p432
aVcharges
p433
aa(lp434
Vdobj
p435
aVcharges
p436
ag65
aa(lp437
Vnum
p438
ag65
aV196
p439
aa(lp440
Vprep_per
p441
ag65
aVhour
p442
aasVwords
p443
(lp444
(lp445
VThe
p446
a(dp447
VNamedEntityTag
p448
g93
sVCharacterOffsetEnd
p449
V108
p450
sVCharacterOffsetBegin
p451
V105
p452
sVPartOfSpeech
p453
VDT
p454
sVLemma
p455
Vthe
p456
saa(lp457
Vcompany
p458
a(dp459
VNamedEntityTag
p460
g93
sVCharacterOffsetEnd
p461
V116
p462
sVCharacterOffsetBegin
p463
V109
p464
sVPartOfSpeech
p465
VNN
p466
sVLemma
p467
Vcompany
p468
saa(lp469
Vrecently
p470
a(dp471
VNormalizedNamedEntityTag
p472
VPAST_REF
p473
sVTimex
p474
V<TIMEX3 tid="t2" type="DATE" value="PAST_REF">recently</TIMEX3>
p475
sVLemma
p476
Vrecently
p477
sVCharacterOffsetEnd
p478
V125
p479
sVPartOfSpeech
p480
VRB
p481
sVCharacterOffsetBegin
p482
V117
p483
sVNamedEntityTag
p484
VDATE
p485
saa(lp486
Vadjusted
p487
a(dp488
VNamedEntityTag
p489
g93
sVCharacterOffsetEnd
p490
V134
p491
sVCharacterOffsetBegin
p492
V126
p493
sVPartOfSpeech
p494
VVBN
p495
sVLemma
p496
Vadjust
p497
saa(lp498
Vits
p499
a(dp500
VNamedEntityTag
p501
g93
sVCharacterOffsetEnd
p502
V138
p503
sVCharacterOffsetBegin
p504
V135
p505
sVPartOfSpeech
p506
VPRP$
p507
sVLemma
p508
Vits
p509
saa(lp510
Vrates
p511
a(dp512
VNamedEntityTag
p513
g93
sVCharacterOffsetEnd
p514
V144
p515
sVCharacterOffsetBegin
p516
V139
p517
sVPartOfSpeech
p518
VNNS
p519
sVLemma
p520
Vrate
p521
saa(lp522
Vand
p523
a(dp524
VNamedEntityTag
p525
g93
sVCharacterOffsetEnd
p526
V148
p527
sVCharacterOffsetBegin
p528
V145
p529
sVPartOfSpeech
p530
VCC
p531
sVLemma
p532
Vand
p533
saa(lp534
Vnow
p535
a(dp536
VNormalizedNamedEntityTag
p537
VPRESENT_REF
p538
sVTimex
p539
V<TIMEX3 tid="t3" type="DATE" value="PRESENT_REF">now</TIMEX3>
p540
sVLemma
p541
Vnow
p542
sVCharacterOffsetEnd
p543
V152
p544
sVPartOfSpeech
p545
VRB
p546
sVCharacterOffsetBegin
p547
V149
p548
sVNamedEntityTag
p549
VDATE
p550
saa(lp551
Vcharges
p552
a(dp553
VNamedEntityTag
p554
g93
sVCharacterOffsetEnd
p555
V160
p556
sVCharacterOffsetBegin
p557
V153
p558
sVPartOfSpeech
p559
VVBZ
p560
sVLemma
p561
Vcharge
p562
saa(lp563
g65
a(dp564
VNormalizedNamedEntityTag
p565
V$196.0
p566
sVLemma
p567
g65
sVCharacterOffsetEnd
p568
V162
p569
sVPartOfSpeech
p570
g65
sVCharacterOffsetBegin
p571
V161
p572
sVNamedEntityTag
p573
VMONEY
p574
saa(lp575
V196
p576
a(dp577
VNormalizedNamedEntityTag
p578
V$196.0
p579
sVLemma
p580
V196
p581
sVCharacterOffsetEnd
p582
V165
p583
sVPartOfSpeech
p584
VCD
p585
sVCharacterOffsetBegin
p586
V162
p587
sVNamedEntityTag
p588
VMONEY
p589
saa(lp590
Vper
p591
a(dp592
VNamedEntityTag
p593
g93
sVCharacterOffsetEnd
p594
V169
p595
sVCharacterOffsetBegin
p596
V166
p597
sVPartOfSpeech
p598
VIN
p599
sVLemma
p600
Vper
p601
saa(lp602
Vhour
p603
a(dp604
VNormalizedNamedEntityTag
p605
VPT1H
p606
sVTimex
p607
V<TIMEX3 tid="t1" type="DURATION" value="PT1H">hour</TIMEX3>
p608
sVLemma
p609
Vhour
p610
sVCharacterOffsetEnd
p611
V174
p612
sVPartOfSpeech
p613
VNN
p614
sVCharacterOffsetBegin
p615
V170
p616
sVNamedEntityTag
p617
VDURATION
p618
saa(lp619
g328
a(dp620
VNamedEntityTag
p621
g93
sVCharacterOffsetEnd
p622
V176
p623
sVCharacterOffsetBegin
p624
V175
p625
sVPartOfSpeech
p626
g328
sVLemma
p627
g328
saasVindexeddependencies
p628
(lp629
(lp630
Vroot
p631
aVROOT-0
p632
aVadjusted-4
p633
aa(lp634
Vdet
p635
aVcompany-2
p636
aVThe-1
p637
aa(lp638
Vnsubj
p639
aVadjusted-4
p640
aVcompany-2
p641
aa(lp642
Vadvmod
p643
aVadjusted-4
p644
aVrecently-3
p645
aa(lp646
Vposs
p647
aVrates-6
p648
aVits-5
p649
aa(lp650
Vdobj
p651
aVadjusted-4
p652
aVrates-6
p653
aa(lp654
Vadvmod
p655
aVcharges-9
p656
aVnow-8
p657
aa(lp658
Vconj_and
p659
aVadjusted-4
p660
aVcharges-9
p661
aa(lp662
Vdobj
p663
aVcharges-9
p664
aV$-10
p665
aa(lp666
Vnum
p667
aV$-10
p668
aV196-11
p669
aa(lp670
Vprep_per
p671
aV$-10
p672
aVhour-13
p673
aasa(dp674
Vparsetree
p675
V(ROOT (SBARQ (WHNP (WP What)) (SQ (VBD was) (NP (NP (DT the) (NNS times)) (PP (IN of) (NP (NP (NN decrease)) (PP (IN in) (NP (DT the) (NN billing) (NN rate))))))) (. ?)))
p676
sVtext
p677
VWhat was the times of decrease in the billing rate ?
p678
sVdependencies
p679
(lp680
(lp681
Vroot
p682
aVROOT
p683
aVWhat
p684
aa(lp685
Vcop
p686
aVWhat
p687
aVwas
p688
aa(lp689
Vdet
p690
aVtimes
p691
aVthe
p692
aa(lp693
Vnsubj
p694
aVWhat
p695
aVtimes
p696
aa(lp697
Vprep_of
p698
aVtimes
p699
aVdecrease
p700
aa(lp701
Vdet
p702
aVrate
p703
aVthe
p704
aa(lp705
Vnn
p706
aVrate
p707
aVbilling
p708
aa(lp709
Vprep_in
p710
aVdecrease
p711
aVrate
p712
aasVwords
p713
(lp714
(lp715
VWhat
p716
a(dp717
VNamedEntityTag
p718
g93
sVCharacterOffsetEnd
p719
V181
p720
sVCharacterOffsetBegin
p721
V177
p722
sVPartOfSpeech
p723
VWP
p724
sVLemma
p725
Vwhat
p726
saa(lp727
Vwas
p728
a(dp729
VNamedEntityTag
p730
g93
sVCharacterOffsetEnd
p731
V185
p732
sVCharacterOffsetBegin
p733
V182
p734
sVPartOfSpeech
p735
VVBD
p736
sVLemma
p737
Vbe
p738
saa(lp739
Vthe
p740
a(dp741
VNamedEntityTag
p742
g93
sVCharacterOffsetEnd
p743
V189
p744
sVCharacterOffsetBegin
p745
V186
p746
sVPartOfSpeech
p747
VDT
p748
sVLemma
p749
Vthe
p750
saa(lp751
Vtimes
p752
a(dp753
VNamedEntityTag
p754
g93
sVCharacterOffsetEnd
p755
V195
p756
sVCharacterOffsetBegin
p757
V190
p758
sVPartOfSpeech
p759
VNNS
p760
sVLemma
p761
Vtime
p762
saa(lp763
Vof
p764
a(dp765
VNamedEntityTag
p766
g93
sVCharacterOffsetEnd
p767
V198
p768
sVCharacterOffsetBegin
p769
V196
p770
sVPartOfSpeech
p771
VIN
p772
sVLemma
p773
Vof
p774
saa(lp775
Vdecrease
p776
a(dp777
VNamedEntityTag
p778
g93
sVCharacterOffsetEnd
p779
V207
p780
sVCharacterOffsetBegin
p781
V199
p782
sVPartOfSpeech
p783
VNN
p784
sVLemma
p785
Vdecrease
p786
saa(lp787
Vin
p788
a(dp789
VNamedEntityTag
p790
g93
sVCharacterOffsetEnd
p791
V210
p792
sVCharacterOffsetBegin
p793
V208
p794
sVPartOfSpeech
p795
VIN
p796
sVLemma
p797
Vin
p798
saa(lp799
Vthe
p800
a(dp801
VNamedEntityTag
p802
g93
sVCharacterOffsetEnd
p803
V214
p804
sVCharacterOffsetBegin
p805
V211
p806
sVPartOfSpeech
p807
VDT
p808
sVLemma
p809
Vthe
p810
saa(lp811
Vbilling
p812
a(dp813
VNamedEntityTag
p814
g93
sVCharacterOffsetEnd
p815
V222
p816
sVCharacterOffsetBegin
p817
V215
p818
sVPartOfSpeech
p819
VNN
p820
sVLemma
p821
Vbilling
p822
saa(lp823
Vrate
p824
a(dp825
VNamedEntityTag
p826
g93
sVCharacterOffsetEnd
p827
V227
p828
sVCharacterOffsetBegin
p829
V223
p830
sVPartOfSpeech
p831
VNN
p832
sVLemma
p833
Vrate
p834
saa(lp835
V?
p836
a(dp837
VNamedEntityTag
p838
g93
sVCharacterOffsetEnd
p839
V229
p840
sVCharacterOffsetBegin
p841
V228
p842
sVPartOfSpeech
p843
g328
sVLemma
p844
g836
saasVindexeddependencies
p845
(lp846
(lp847
Vroot
p848
aVROOT-0
p849
aVWhat-1
p850
aa(lp851
Vcop
p852
aVWhat-1
p853
aVwas-2
p854
aa(lp855
Vdet
p856
aVtimes-4
p857
aVthe-3
p858
aa(lp859
Vnsubj
p860
aVWhat-1
p861
aVtimes-4
p862
aa(lp863
Vprep_of
p864
aVtimes-4
p865
aVdecrease-6
p866
aa(lp867
Vdet
p868
aVrate-10
p869
aVthe-8
p870
aa(lp871
Vnn
p872
aVrate-10
p873
aVbilling-9
p874
aa(lp875
Vprep_in
p876
aVdecrease-6
p877
aVrate-10
p878
aasas.