(dp0
Vcoref
p1
(lp2
(lp3
(lp4
(lp5
Vthe graduating class
p6
aI2
aI8
aI6
aI9
aa(lp7
Vthe graduating class at Kensington High School
p8
aI0
aI6
aI4
aI11
aaaa(lp9
(lp10
(lp11
Vit
p12
aI1
aI3
aI3
aI4
aa(lp13
VThis year
p14
aI1
aI1
aI0
aI2
aaaasVsentences
p15
(lp16
(dp17
Vparsetree
p18
V(ROOT (S (ADVP (NP (DT A) (NN generation)) (RB ago)) (, ,) (NP (NP (DT the) (VBG graduating) (NN class)) (PP (IN at) (NP (NNP Kensington) (NNP High) (NNP School)))) (VP (VBD was) (NP (CD 150) (NNS students))) (. .)))
p19
sVtext
p20
VA generation ago , the graduating class at Kensington High School was 150 students .
p21
sVdependencies
p22
(lp23
(lp24
Vroot
p25
aVROOT
p26
aVstudents
p27
aa(lp28
Vdet
p29
aVgeneration
p30
aVA
p31
aa(lp32
Vnpadvmod
p33
aVago
p34
aVgeneration
p35
aa(lp36
Vadvmod
p37
aVstudents
p38
aVago
p39
aa(lp40
Vdet
p41
aVclass
p42
aVthe
p43
aa(lp44
Vamod
p45
aVclass
p46
aVgraduating
p47
aa(lp48
Vnsubj
p49
aVstudents
p50
aVclass
p51
aa(lp52
Vnn
p53
aVSchool
p54
aVKensington
p55
aa(lp56
Vnn
p57
aVSchool
p58
aVHigh
p59
aa(lp60
Vprep_at
p61
aVclass
p62
aVSchool
p63
aa(lp64
Vcop
p65
aVstudents
p66
aVwas
p67
aa(lp68
Vnum
p69
aVstudents
p70
aV150
p71
aasVwords
p72
(lp73
(lp74
g31
a(dp75
VNamedEntityTag
p76
VO
p77
sVCharacterOffsetEnd
p78
V2
p79
sVCharacterOffsetBegin
p80
V1
p81
sVPartOfSpeech
p82
VDT
p83
sVLemma
p84
Va
p85
saa(lp86
Vgeneration
p87
a(dp88
VNamedEntityTag
p89
g77
sVCharacterOffsetEnd
p90
V13
p91
sVCharacterOffsetBegin
p92
V3
p93
sVPartOfSpeech
p94
VNN
p95
sVLemma
p96
Vgeneration
p97
saa(lp98
Vago
p99
a(dp100
VNamedEntityTag
p101
g77
sVCharacterOffsetEnd
p102
V17
p103
sVCharacterOffsetBegin
p104
V14
p105
sVPartOfSpeech
p106
VRB
p107
sVLemma
p108
Vago
p109
saa(lp110
V,
p111
a(dp112
VNamedEntityTag
p113
g77
sVCharacterOffsetEnd
p114
V19
p115
sVCharacterOffsetBegin
p116
V18
p117
sVPartOfSpeech
p118
g111
sVLemma
p119
g111
saa(lp120
Vthe
p121
a(dp122
VNamedEntityTag
p123
g77
sVCharacterOffsetEnd
p124
V23
p125
sVCharacterOffsetBegin
p126
V20
p127
sVPartOfSpeech
p128
VDT
p129
sVLemma
p130
Vthe
p131
saa(lp132
Vgraduating
p133
a(dp134
VNamedEntityTag
p135
g77
sVCharacterOffsetEnd
p136
V34
p137
sVCharacterOffsetBegin
p138
V24
p139
sVPartOfSpeech
p140
VVBG
p141
sVLemma
p142
Vgraduate
p143
saa(lp144
Vclass
p145
a(dp146
VNamedEntityTag
p147
g77
sVCharacterOffsetEnd
p148
V40
p149
sVCharacterOffsetBegin
p150
V35
p151
sVPartOfSpeech
p152
VNN
p153
sVLemma
p154
Vclass
p155
saa(lp156
Vat
p157
a(dp158
VNamedEntityTag
p159
g77
sVCharacterOffsetEnd
p160
V43
p161
sVCharacterOffsetBegin
p162
V41
p163
sVPartOfSpeech
p164
VIN
p165
sVLemma
p166
Vat
p167
saa(lp168
VKensington
p169
a(dp170
VNamedEntityTag
p171
VORGANIZATION
p172
sVCharacterOffsetEnd
p173
V54
p174
sVCharacterOffsetBegin
p175
V44
p176
sVPartOfSpeech
p177
VNNP
p178
sVLemma
p179
VKensington
p180
saa(lp181
VHigh
p182
a(dp183
VNamedEntityTag
p184
VORGANIZATION
p185
sVCharacterOffsetEnd
p186
V59
p187
sVCharacterOffsetBegin
p188
V55
p189
sVPartOfSpeech
p190
VNNP
p191
sVLemma
p192
VHigh
p193
saa(lp194
VSchool
p195
a(dp196
VNamedEntityTag
p197
VORGANIZATION
p198
sVCharacterOffsetEnd
p199
V66
p200
sVCharacterOffsetBegin
p201
V60
p202
sVPartOfSpeech
p203
VNNP
p204
sVLemma
p205
VSchool
p206
saa(lp207
Vwas
p208
a(dp209
VNamedEntityTag
p210
g77
sVCharacterOffsetEnd
p211
V70
p212
sVCharacterOffsetBegin
p213
V67
p214
sVPartOfSpeech
p215
VVBD
p216
sVLemma
p217
Vbe
p218
saa(lp219
V150
p220
a(dp221
VNormalizedNamedEntityTag
p222
V150.0
p223
sVLemma
p224
V150
p225
sVCharacterOffsetEnd
p226
V74
p227
sVPartOfSpeech
p228
VCD
p229
sVCharacterOffsetBegin
p230
V71
p231
sVNamedEntityTag
p232
VNUMBER
p233
saa(lp234
Vstudents
p235
a(dp236
VNamedEntityTag
p237
g77
sVCharacterOffsetEnd
p238
V83
p239
sVCharacterOffsetBegin
p240
V75
p241
sVPartOfSpeech
p242
VNNS
p243
sVLemma
p244
Vstudent
p245
saa(lp246
V.
p247
a(dp248
VNamedEntityTag
p249
g77
sVCharacterOffsetEnd
p250
V85
p251
sVCharacterOffsetBegin
p252
V84
p253
sVPartOfSpeech
p254
g247
sVLemma
p255
g247
saasVindexeddependencies
p256
(lp257
(lp258
Vroot
p259
aVROOT-0
p260
aVstudents-14
p261
aa(lp262
Vdet
p263
aVgeneration-2
p264
aVA-1
p265
aa(lp266
Vnpadvmod
p267
aVago-3
p268
aVgeneration-2
p269
aa(lp270
Vadvmod
p271
aVstudents-14
p272
aVago-3
p273
aa(lp274
Vdet
p275
aVclass-7
p276
aVthe-5
p277
aa(lp278
Vamod
p279
aVclass-7
p280
aVgraduating-6
p281
aa(lp282
Vnsubj
p283
aVstudents-14
p284
aVclass-7
p285
aa(lp286
Vnn
p287
aVSchool-11
p288
aVKensington-9
p289
aa(lp290
Vnn
p291
aVSchool-11
p292
aVHigh-10
p293
aa(lp294
Vprep_at
p295
aVclass-7
p296
aVSchool-11
p297
aa(lp298
Vcop
p299
aVstudents-14
p300
aVwas-12
p301
aa(lp302
Vnum
p303
aVstudents-14
p304
aV150-13
p305
aasa(dp306
Vparsetree
p307
V(ROOT (S (NP-TMP (DT This) (NN year)) (, ,) (NP (PRP it)) (VP (VBZ is) (ADJP (NP (CD 0.54) (NNS times)) (JJR larger))) (. .)))
p308
sVtext
p309
VThis year , it is 0.54 times larger .
p310
sVdependencies
p311
(lp312
(lp313
Vroot
p314
aVROOT
p315
aVlarger
p316
aa(lp317
Vdet
p318
aVyear
p319
aVThis
p320
aa(lp321
Vtmod
p322
aVlarger
p323
aVyear
p324
aa(lp325
Vnsubj
p326
aVlarger
p327
aVit
p328
aa(lp329
Vcop
p330
aVlarger
p331
aVis
p332
aa(lp333
Vnum
p334
aVtimes
p335
aV0.54
p336
aa(lp337
Vnpadvmod
p338
aVlarger
p339
aVtimes
p340
aasVwords
p341
(lp342
(lp343
VThis
p344
a(dp345
VNormalizedNamedEntityTag
p346
VTHIS
p347
sVTimex
p348
V<TIMEX3 alt_value="THIS P1Y" anchorTimeID="t0" temporalFunction="true" tid="t1" type="DATE" valueFromFunction="tf0">This year</TIMEX3>
p349
sVLemma
p350
Vthis
p351
sVCharacterOffsetEnd
p352
V90
p353
sVPartOfSpeech
p354
VDT
p355
sVCharacterOffsetBegin
p356
V86
p357
sVNamedEntityTag
p358
VDATE
p359
saa(lp360
Vyear
p361
a(dp362
VNormalizedNamedEntityTag
p363
VTHIS
p364
sVTimex
p365
V<TIMEX3 alt_value="THIS P1Y" anchorTimeID="t0" temporalFunction="true" tid="t1" type="DATE" valueFromFunction="tf0">This year</TIMEX3>
p366
sVLemma
p367
Vyear
p368
sVCharacterOffsetEnd
p369
V95
p370
sVPartOfSpeech
p371
VNN
p372
sVCharacterOffsetBegin
p373
V91
p374
sVNamedEntityTag
p375
VDATE
p376
saa(lp377
g111
a(dp378
VNamedEntityTag
p379
g77
sVCharacterOffsetEnd
p380
V97
p381
sVCharacterOffsetBegin
p382
V96
p383
sVPartOfSpeech
p384
g111
sVLemma
p385
g111
saa(lp386
Vit
p387
a(dp388
VNamedEntityTag
p389
g77
sVCharacterOffsetEnd
p390
V100
p391
sVCharacterOffsetBegin
p392
V98
p393
sVPartOfSpeech
p394
VPRP
p395
sVLemma
p396
Vit
p397
saa(lp398
Vis
p399
a(dp400
VNamedEntityTag
p401
g77
sVCharacterOffsetEnd
p402
V103
p403
sVCharacterOffsetBegin
p404
V101
p405
sVPartOfSpeech
p406
VVBZ
p407
sVLemma
p408
Vbe
p409
saa(lp410
V0.54
p411
a(dp412
VNormalizedNamedEntityTag
p413
V0.54
p414
sVLemma
p415
V0.54
p416
sVCharacterOffsetEnd
p417
V108
p418
sVPartOfSpeech
p419
VCD
p420
sVCharacterOffsetBegin
p421
V104
p422
sVNamedEntityTag
p423
VNUMBER
p424
saa(lp425
Vtimes
p426
a(dp427
VNamedEntityTag
p428
g77
sVCharacterOffsetEnd
p429
V114
p430
sVCharacterOffsetBegin
p431
V109
p432
sVPartOfSpeech
p433
VNNS
p434
sVLemma
p435
Vtime
p436
saa(lp437
Vlarger
p438
a(dp439
VNamedEntityTag
p440
g77
sVCharacterOffsetEnd
p441
V121
p442
sVCharacterOffsetBegin
p443
V115
p444
sVPartOfSpeech
p445
VJJR
p446
sVLemma
p447
Vlarger
p448
saa(lp449
g247
a(dp450
VNamedEntityTag
p451
g77
sVCharacterOffsetEnd
p452
V123
p453
sVCharacterOffsetBegin
p454
V122
p455
sVPartOfSpeech
p456
g247
sVLemma
p457
g247
saasVindexeddependencies
p458
(lp459
(lp460
Vroot
p461
aVROOT-0
p462
aVlarger-8
p463
aa(lp464
Vdet
p465
aVyear-2
p466
aVThis-1
p467
aa(lp468
Vtmod
p469
aVlarger-8
p470
aVyear-2
p471
aa(lp472
Vnsubj
p473
aVlarger-8
p474
aVit-4
p475
aa(lp476
Vcop
p477
aVlarger-8
p478
aVis-5
p479
aa(lp480
Vnum
p481
aVtimes-7
p482
aV0.54-6
p483
aa(lp484
Vnpadvmod
p485
aVlarger-8
p486
aVtimes-7
p487
aasa(dp488
Vparsetree
p489
V(ROOT (SBARQ (WHNP (WP What)) (SQ (VBZ is) (NP (NP (DT the) (JJ current) (NN size)) (PP (IN of) (NP (DT the) (VBG graduating) (NN class))))) (. ?)))
p490
sVtext
p491
VWhat is the current size of the graduating class ?
p492
sVdependencies
p493
(lp494
(lp495
Vroot
p496
aVROOT
p497
aVWhat
p498
aa(lp499
Vcop
p500
aVWhat
p501
aVis
p502
aa(lp503
Vdet
p504
aVsize
p505
aVthe
p506
aa(lp507
Vamod
p508
aVsize
p509
aVcurrent
p510
aa(lp511
Vnsubj
p512
aVWhat
p513
aVsize
p514
aa(lp515
Vdet
p516
aVclass
p517
aVthe
p518
aa(lp519
Vamod
p520
aVclass
p521
aVgraduating
p522
aa(lp523
Vprep_of
p524
aVsize
p525
aVclass
p526
aasVwords
p527
(lp528
(lp529
VWhat
p530
a(dp531
VNamedEntityTag
p532
g77
sVCharacterOffsetEnd
p533
V128
p534
sVCharacterOffsetBegin
p535
V124
p536
sVPartOfSpeech
p537
VWP
p538
sVLemma
p539
Vwhat
p540
saa(lp541
Vis
p542
a(dp543
VNamedEntityTag
p544
g77
sVCharacterOffsetEnd
p545
V131
p546
sVCharacterOffsetBegin
p547
V129
p548
sVPartOfSpeech
p549
VVBZ
p550
sVLemma
p551
Vbe
p552
saa(lp553
Vthe
p554
a(dp555
VNamedEntityTag
p556
g77
sVCharacterOffsetEnd
p557
V135
p558
sVCharacterOffsetBegin
p559
V132
p560
sVPartOfSpeech
p561
VDT
p562
sVLemma
p563
Vthe
p564
saa(lp565
Vcurrent
p566
a(dp567
VNormalizedNamedEntityTag
p568
VPRESENT_REF
p569
sVTimex
p570
V<TIMEX3 tid="t2" type="DATE" value="PRESENT_REF">current</TIMEX3>
p571
sVLemma
p572
Vcurrent
p573
sVCharacterOffsetEnd
p574
V143
p575
sVPartOfSpeech
p576
VJJ
p577
sVCharacterOffsetBegin
p578
V136
p579
sVNamedEntityTag
p580
VDATE
p581
saa(lp582
Vsize
p583
a(dp584
VNamedEntityTag
p585
g77
sVCharacterOffsetEnd
p586
V148
p587
sVCharacterOffsetBegin
p588
V144
p589
sVPartOfSpeech
p590
VNN
p591
sVLemma
p592
Vsize
p593
saa(lp594
Vof
p595
a(dp596
VNamedEntityTag
p597
g77
sVCharacterOffsetEnd
p598
V151
p599
sVCharacterOffsetBegin
p600
V149
p601
sVPartOfSpeech
p602
VIN
p603
sVLemma
p604
Vof
p605
saa(lp606
Vthe
p607
a(dp608
VNamedEntityTag
p609
g77
sVCharacterOffsetEnd
p610
V155
p611
sVCharacterOffsetBegin
p612
V152
p613
sVPartOfSpeech
p614
VDT
p615
sVLemma
p616
Vthe
p617
saa(lp618
Vgraduating
p619
a(dp620
VNamedEntityTag
p621
g77
sVCharacterOffsetEnd
p622
V166
p623
sVCharacterOffsetBegin
p624
V156
p625
sVPartOfSpeech
p626
VVBG
p627
sVLemma
p628
Vgraduate
p629
saa(lp630
Vclass
p631
a(dp632
VNamedEntityTag
p633
g77
sVCharacterOffsetEnd
p634
V172
p635
sVCharacterOffsetBegin
p636
V167
p637
sVPartOfSpeech
p638
VNN
p639
sVLemma
p640
Vclass
p641
saa(lp642
V?
p643
a(dp644
VNamedEntityTag
p645
g77
sVCharacterOffsetEnd
p646
V174
p647
sVCharacterOffsetBegin
p648
V173
p649
sVPartOfSpeech
p650
g247
sVLemma
p651
g643
saasVindexeddependencies
p652
(lp653
(lp654
Vroot
p655
aVROOT-0
p656
aVWhat-1
p657
aa(lp658
Vcop
p659
aVWhat-1
p660
aVis-2
p661
aa(lp662
Vdet
p663
aVsize-5
p664
aVthe-3
p665
aa(lp666
Vamod
p667
aVsize-5
p668
aVcurrent-4
p669
aa(lp670
Vnsubj
p671
aVWhat-1
p672
aVsize-5
p673
aa(lp674
Vdet
p675
aVclass-9
p676
aVthe-7
p677
aa(lp678
Vamod
p679
aVclass-9
p680
aVgraduating-8
p681
aa(lp682
Vprep_of
p683
aVsize-5
p684
aVclass-9
p685
aasas.