(dp0
Vcoref
p1
(lp2
(lp3
(lp4
(lp5
Vthe housing boom
p6
aI2
aI9
aI7
aI10
aa(lp7
Vthe recent housing boom
p8
aI0
aI4
aI1
aI5
aaaasVsentences
p9
(lp10
(dp11
Vparsetree
p12
V(ROOT (S (PP (IN Before) (NP (DT the) (JJ recent) (NN housing) (NN boom))) (, ,) (NP (EX there)) (VP (VBD were) (NP (NP (CD 1,426) (NNS houses)) (PP (IN in) (NP (NNP Lawrence) (NNP County))))) (. .)))
p13
sVtext
p14
VBefore the recent housing boom , there were 1,426 houses in Lawrence County .
p15
sVdependencies
p16
(lp17
(lp18
Vroot
p19
aVROOT
p20
aVwere
p21
aa(lp22
Vdet
p23
aVboom
p24
aVthe
p25
aa(lp26
Vamod
p27
aVboom
p28
aVrecent
p29
aa(lp30
Vnn
p31
aVboom
p32
aVhousing
p33
aa(lp34
Vprep_before
p35
aVwere
p36
aVboom
p37
aa(lp38
Vexpl
p39
aVwere
p40
aVthere
p41
aa(lp42
Vnum
p43
aVhouses
p44
aV1,426
p45
aa(lp46
Vnsubj
p47
aVwere
p48
aVhouses
p49
aa(lp50
Vnn
p51
aVCounty
p52
aVLawrence
p53
aa(lp54
Vprep_in
p55
aVhouses
p56
aVCounty
p57
aasVwords
p58
(lp59
(lp60
VBefore
p61
a(dp62
VNamedEntityTag
p63
VO
p64
sVCharacterOffsetEnd
p65
V7
p66
sVCharacterOffsetBegin
p67
V1
p68
sVPartOfSpeech
p69
VIN
p70
sVLemma
p71
Vbefore
p72
saa(lp73
Vthe
p74
a(dp75
VNamedEntityTag
p76
g64
sVCharacterOffsetEnd
p77
V11
p78
sVCharacterOffsetBegin
p79
V8
p80
sVPartOfSpeech
p81
VDT
p82
sVLemma
p83
Vthe
p84
saa(lp85
Vrecent
p86
a(dp87
VNamedEntityTag
p88
g64
sVCharacterOffsetEnd
p89
V18
p90
sVCharacterOffsetBegin
p91
V12
p92
sVPartOfSpeech
p93
VJJ
p94
sVLemma
p95
Vrecent
p96
saa(lp97
Vhousing
p98
a(dp99
VNamedEntityTag
p100
g64
sVCharacterOffsetEnd
p101
V26
p102
sVCharacterOffsetBegin
p103
V19
p104
sVPartOfSpeech
p105
VNN
p106
sVLemma
p107
Vhousing
p108
saa(lp109
Vboom
p110
a(dp111
VNamedEntityTag
p112
g64
sVCharacterOffsetEnd
p113
V31
p114
sVCharacterOffsetBegin
p115
V27
p116
sVPartOfSpeech
p117
VNN
p118
sVLemma
p119
Vboom
p120
saa(lp121
V,
p122
a(dp123
VNamedEntityTag
p124
g64
sVCharacterOffsetEnd
p125
V33
p126
sVCharacterOffsetBegin
p127
V32
p128
sVPartOfSpeech
p129
g122
sVLemma
p130
g122
saa(lp131
Vthere
p132
a(dp133
VNamedEntityTag
p134
g64
sVCharacterOffsetEnd
p135
V39
p136
sVCharacterOffsetBegin
p137
V34
p138
sVPartOfSpeech
p139
VEX
p140
sVLemma
p141
Vthere
p142
saa(lp143
Vwere
p144
a(dp145
VNamedEntityTag
p146
g64
sVCharacterOffsetEnd
p147
V44
p148
sVCharacterOffsetBegin
p149
V40
p150
sVPartOfSpeech
p151
VVBD
p152
sVLemma
p153
Vbe
p154
saa(lp155
V1,426
p156
a(dp157
VNormalizedNamedEntityTag
p158
V1426.0
p159
sVLemma
p160
V1,426
p161
sVCharacterOffsetEnd
p162
V50
p163
sVPartOfSpeech
p164
VCD
p165
sVCharacterOffsetBegin
p166
V45
p167
sVNamedEntityTag
p168
VNUMBER
p169
saa(lp170
Vhouses
p171
a(dp172
VNamedEntityTag
p173
g64
sVCharacterOffsetEnd
p174
V57
p175
sVCharacterOffsetBegin
p176
V51
p177
sVPartOfSpeech
p178
VNNS
p179
sVLemma
p180
Vhouse
p181
saa(lp182
Vin
p183
a(dp184
VNamedEntityTag
p185
g64
sVCharacterOffsetEnd
p186
V60
p187
sVCharacterOffsetBegin
p188
V58
p189
sVPartOfSpeech
p190
VIN
p191
sVLemma
p192
Vin
p193
saa(lp194
VLawrence
p195
a(dp196
VNamedEntityTag
p197
VLOCATION
p198
sVCharacterOffsetEnd
p199
V69
p200
sVCharacterOffsetBegin
p201
V61
p202
sVPartOfSpeech
p203
VNNP
p204
sVLemma
p205
VLawrence
p206
saa(lp207
VCounty
p208
a(dp209
VNamedEntityTag
p210
VLOCATION
p211
sVCharacterOffsetEnd
p212
V76
p213
sVCharacterOffsetBegin
p214
V70
p215
sVPartOfSpeech
p216
VNNP
p217
sVLemma
p218
VCounty
p219
saa(lp220
V.
p221
a(dp222
VNamedEntityTag
p223
g64
sVCharacterOffsetEnd
p224
V78
p225
sVCharacterOffsetBegin
p226
V77
p227
sVPartOfSpeech
p228
g221
sVLemma
p229
g221
saasVindexeddependencies
p230
(lp231
(lp232
Vroot
p233
aVROOT-0
p234
aVwere-8
p235
aa(lp236
Vdet
p237
aVboom-5
p238
aVthe-2
p239
aa(lp240
Vamod
p241
aVboom-5
p242
aVrecent-3
p243
aa(lp244
Vnn
p245
aVboom-5
p246
aVhousing-4
p247
aa(lp248
Vprep_before
p249
aVwere-8
p250
aVboom-5
p251
aa(lp252
Vexpl
p253
aVwere-8
p254
aVthere-7
p255
aa(lp256
Vnum
p257
aVhouses-10
p258
aV1,426-9
p259
aa(lp260
Vnsubj
p261
aVwere-8
p262
aVhouses-10
p263
aa(lp264
Vnn
p265
aVCounty-13
p266
aVLawrence-12
p267
aa(lp268
Vprep_in
p269
aVhouses-10
p270
aVCounty-13
p271
aasa(dp272
Vparsetree
p273
V(ROOT (S (ADVP (RB Now)) (, ,) (NP (EX there)) (VP (VBP are) (NP (CD 2,000) (NNS houses))) (. .)))
p274
sVtext
p275
VNow , there are 2,000 houses .
p276
sVdependencies
p277
(lp278
(lp279
Vroot
p280
aVROOT
p281
aVare
p282
aa(lp283
Vadvmod
p284
aVare
p285
aVNow
p286
aa(lp287
Vexpl
p288
aVare
p289
aVthere
p290
aa(lp291
Vnum
p292
aVhouses
p293
aV2,000
p294
aa(lp295
Vnsubj
p296
aVare
p297
aVhouses
p298
aasVwords
p299
(lp300
(lp301
VNow
p302
a(dp303
VNormalizedNamedEntityTag
p304
VPRESENT_REF
p305
sVTimex
p306
V<TIMEX3 tid="t1" type="DATE" value="PRESENT_REF">Now</TIMEX3>
p307
sVLemma
p308
Vnow
p309
sVCharacterOffsetEnd
p310
V82
p311
sVPartOfSpeech
p312
VRB
p313
sVCharacterOffsetBegin
p314
V79
p315
sVNamedEntityTag
p316
VDATE
p317
saa(lp318
g122
a(dp319
VNamedEntityTag
p320
g64
sVCharacterOffsetEnd
p321
V84
p322
sVCharacterOffsetBegin
p323
V83
p324
sVPartOfSpeech
p325
g122
sVLemma
p326
g122
saa(lp327
Vthere
p328
a(dp329
VNamedEntityTag
p330
g64
sVCharacterOffsetEnd
p331
V90
p332
sVCharacterOffsetBegin
p333
V85
p334
sVPartOfSpeech
p335
VEX
p336
sVLemma
p337
Vthere
p338
saa(lp339
Vare
p340
a(dp341
VNamedEntityTag
p342
g64
sVCharacterOffsetEnd
p343
V94
p344
sVCharacterOffsetBegin
p345
V91
p346
sVPartOfSpeech
p347
VVBP
p348
sVLemma
p349
Vbe
p350
saa(lp351
V2,000
p352
a(dp353
VNormalizedNamedEntityTag
p354
V2000.0
p355
sVLemma
p356
V2,000
p357
sVCharacterOffsetEnd
p358
V100
p359
sVPartOfSpeech
p360
VCD
p361
sVCharacterOffsetBegin
p362
V95
p363
sVNamedEntityTag
p364
VNUMBER
p365
saa(lp366
Vhouses
p367
a(dp368
VNamedEntityTag
p369
g64
sVCharacterOffsetEnd
p370
V107
p371
sVCharacterOffsetBegin
p372
V101
p373
sVPartOfSpeech
p374
VNNS
p375
sVLemma
p376
Vhouse
p377
saa(lp378
g221
a(dp379
VNamedEntityTag
p380
g64
sVCharacterOffsetEnd
p381
V109
p382
sVCharacterOffsetBegin
p383
V108
p384
sVPartOfSpeech
p385
g221
sVLemma
p386
g221
saasVindexeddependencies
p387
(lp388
(lp389
Vroot
p390
aVROOT-0
p391
aVare-4
p392
aa(lp393
Vadvmod
p394
aVare-4
p395
aVNow-1
p396
aa(lp397
Vexpl
p398
aVare-4
p399
aVthere-3
p400
aa(lp401
Vnum
p402
aVhouses-6
p403
aV2,000-5
p404
aa(lp405
Vnsubj
p406
aVare-4
p407
aVhouses-6
p408
aasa(dp409
Vparsetree
p410
V(ROOT (SBARQ (WHNP (WHADJP (WRB How) (JJ many)) (NNS houses)) (SQ (VBD did) (NP (NNS developers)) (VP (VB build) (PP (IN during) (NP (DT the) (NN housing) (NN boom))))) (. ?)))
p411
sVtext
p412
VHow many houses did developers build during the housing boom ?
p413
sVdependencies
p414
(lp415
(lp416
Vroot
p417
aVROOT
p418
aVbuild
p419
aa(lp420
Vadvmod
p421
aVmany
p422
aVHow
p423
aa(lp424
Vamod
p425
aVhouses
p426
aVmany
p427
aa(lp428
Vdobj
p429
aVbuild
p430
aVhouses
p431
aa(lp432
Vaux
p433
aVbuild
p434
aVdid
p435
aa(lp436
Vnsubj
p437
aVbuild
p438
aVdevelopers
p439
aa(lp440
Vdet
p441
aVboom
p442
aVthe
p443
aa(lp444
Vnn
p445
aVboom
p446
aVhousing
p447
aa(lp448
Vprep_during
p449
aVbuild
p450
aVboom
p451
aasVwords
p452
(lp453
(lp454
VHow
p455
a(dp456
VNamedEntityTag
p457
g64
sVCharacterOffsetEnd
p458
V113
p459
sVCharacterOffsetBegin
p460
V110
p461
sVPartOfSpeech
p462
VWRB
p463
sVLemma
p464
Vhow
p465
saa(lp466
Vmany
p467
a(dp468
VNamedEntityTag
p469
g64
sVCharacterOffsetEnd
p470
V118
p471
sVCharacterOffsetBegin
p472
V114
p473
sVPartOfSpeech
p474
VJJ
p475
sVLemma
p476
Vmany
p477
saa(lp478
Vhouses
p479
a(dp480
VNamedEntityTag
p481
g64
sVCharacterOffsetEnd
p482
V125
p483
sVCharacterOffsetBegin
p484
V119
p485
sVPartOfSpeech
p486
VNNS
p487
sVLemma
p488
Vhouse
p489
saa(lp490
Vdid
p491
a(dp492
VNamedEntityTag
p493
g64
sVCharacterOffsetEnd
p494
V129
p495
sVCharacterOffsetBegin
p496
V126
p497
sVPartOfSpeech
p498
VVBD
p499
sVLemma
p500
Vdo
p501
saa(lp502
Vdevelopers
p503
a(dp504
VNamedEntityTag
p505
g64
sVCharacterOffsetEnd
p506
V140
p507
sVCharacterOffsetBegin
p508
V130
p509
sVPartOfSpeech
p510
VNNS
p511
sVLemma
p512
Vdeveloper
p513
saa(lp514
Vbuild
p515
a(dp516
VNamedEntityTag
p517
g64
sVCharacterOffsetEnd
p518
V146
p519
sVCharacterOffsetBegin
p520
V141
p521
sVPartOfSpeech
p522
VVB
p523
sVLemma
p524
Vbuild
p525
saa(lp526
Vduring
p527
a(dp528
VNamedEntityTag
p529
g64
sVCharacterOffsetEnd
p530
V153
p531
sVCharacterOffsetBegin
p532
V147
p533
sVPartOfSpeech
p534
VIN
p535
sVLemma
p536
Vduring
p537
saa(lp538
Vthe
p539
a(dp540
VNamedEntityTag
p541
g64
sVCharacterOffsetEnd
p542
V157
p543
sVCharacterOffsetBegin
p544
V154
p545
sVPartOfSpeech
p546
VDT
p547
sVLemma
p548
Vthe
p549
saa(lp550
Vhousing
p551
a(dp552
VNamedEntityTag
p553
g64
sVCharacterOffsetEnd
p554
V165
p555
sVCharacterOffsetBegin
p556
V158
p557
sVPartOfSpeech
p558
VNN
p559
sVLemma
p560
Vhousing
p561
saa(lp562
Vboom
p563
a(dp564
VNamedEntityTag
p565
g64
sVCharacterOffsetEnd
p566
V170
p567
sVCharacterOffsetBegin
p568
V166
p569
sVPartOfSpeech
p570
VNN
p571
sVLemma
p572
Vboom
p573
saa(lp574
V?
p575
a(dp576
VNamedEntityTag
p577
g64
sVCharacterOffsetEnd
p578
V172
p579
sVCharacterOffsetBegin
p580
V171
p581
sVPartOfSpeech
p582
g221
sVLemma
p583
g575
saasVindexeddependencies
p584
(lp585
(lp586
Vroot
p587
aVROOT-0
p588
aVbuild-6
p589
aa(lp590
Vadvmod
p591
aVmany-2
p592
aVHow-1
p593
aa(lp594
Vamod
p595
aVhouses-3
p596
aVmany-2
p597
aa(lp598
Vdobj
p599
aVbuild-6
p600
aVhouses-3
p601
aa(lp602
Vaux
p603
aVbuild-6
p604
aVdid-4
p605
aa(lp606
Vnsubj
p607
aVbuild-6
p608
aVdevelopers-5
p609
aa(lp610
Vdet
p611
aVboom-10
p612
aVthe-8
p613
aa(lp614
Vnn
p615
aVboom-10
p616
aVhousing-9
p617
aa(lp618
Vprep_during
p619
aVbuild-6
p620
aVboom-10
p621
aasas.