(dp0
Vcoref
p1
(lp2
(lp3
(lp4
(lp5
Vthe pet store
p6
aI1
aI18
aI16
aI19
aa(lp7
VA pet store
p8
aI0
aI2
aI0
aI3
aaaa(lp9
(lp10
(lp11
Vit
p12
aI1
aI10
aI10
aI11
aa(lp13
V2
p14
aI1
aI4
aI4
aI5
aaaasVsentences
p15
(lp16
(dp17
Vparsetree
p18
V(ROOT (S (NP (DT A) (JJ pet) (NN store)) (VP (VBZ has) (NP (CD 8) (NN bird) (NNS cages))) (. .)))
p19
sVtext
p20
VA pet store has 8 bird cages .
p21
sVdependencies
p22
(lp23
(lp24
Vroot
p25
aVROOT
p26
aVhas
p27
aa(lp28
Vdet
p29
aVstore
p30
aVA
p31
aa(lp32
Vamod
p33
aVstore
p34
aVpet
p35
aa(lp36
Vnsubj
p37
aVhas
p38
aVstore
p39
aa(lp40
Vnum
p41
aVcages
p42
aV8
p43
aa(lp44
Vnn
p45
aVcages
p46
aVbird
p47
aa(lp48
Vdobj
p49
aVhas
p50
aVcages
p51
aasVwords
p52
(lp53
(lp54
g31
a(dp55
VNamedEntityTag
p56
VO
p57
sVCharacterOffsetEnd
p58
g14
sVCharacterOffsetBegin
p59
V1
p60
sVPartOfSpeech
p61
VDT
p62
sVLemma
p63
Va
p64
saa(lp65
Vpet
p66
a(dp67
VNamedEntityTag
p68
g57
sVCharacterOffsetEnd
p69
V6
p70
sVCharacterOffsetBegin
p71
V3
p72
sVPartOfSpeech
p73
VJJ
p74
sVLemma
p75
Vpet
p76
saa(lp77
Vstore
p78
a(dp79
VNamedEntityTag
p80
g57
sVCharacterOffsetEnd
p81
V12
p82
sVCharacterOffsetBegin
p83
V7
p84
sVPartOfSpeech
p85
VNN
p86
sVLemma
p87
Vstore
p88
saa(lp89
Vhas
p90
a(dp91
VNamedEntityTag
p92
g57
sVCharacterOffsetEnd
p93
V16
p94
sVCharacterOffsetBegin
p95
V13
p96
sVPartOfSpeech
p97
VVBZ
p98
sVLemma
p99
Vhave
p100
saa(lp101
g43
a(dp102
VNormalizedNamedEntityTag
p103
V8.0
p104
sVLemma
p105
g43
sVCharacterOffsetEnd
p106
V18
p107
sVPartOfSpeech
p108
VCD
p109
sVCharacterOffsetBegin
p110
V17
p111
sVNamedEntityTag
p112
VNUMBER
p113
saa(lp114
Vbird
p115
a(dp116
VNamedEntityTag
p117
g57
sVCharacterOffsetEnd
p118
V23
p119
sVCharacterOffsetBegin
p120
V19
p121
sVPartOfSpeech
p122
VNN
p123
sVLemma
p124
Vbird
p125
saa(lp126
Vcages
p127
a(dp128
VNamedEntityTag
p129
g57
sVCharacterOffsetEnd
p130
V29
p131
sVCharacterOffsetBegin
p132
V24
p133
sVPartOfSpeech
p134
VNNS
p135
sVLemma
p136
Vcage
p137
saa(lp138
V.
p139
a(dp140
VNamedEntityTag
p141
g57
sVCharacterOffsetEnd
p142
V31
p143
sVCharacterOffsetBegin
p144
V30
p145
sVPartOfSpeech
p146
g139
sVLemma
p147
g139
saasVindexeddependencies
p148
(lp149
(lp150
Vroot
p151
aVROOT-0
p152
aVhas-4
p153
aa(lp154
Vdet
p155
aVstore-3
p156
aVA-1
p157
aa(lp158
Vamod
p159
aVstore-3
p160
aVpet-2
p161
aa(lp162
Vnsubj
p163
aVhas-4
p164
aVstore-3
p165
aa(lp166
Vnum
p167
aVcages-7
p168
aV8-5
p169
aa(lp170
Vnn
p171
aVcages-7
p172
aVbird-6
p173
aa(lp174
Vdobj
p175
aVhas-4
p176
aVcages-7
p177
aasa(dp178
Vparsetree
p179
V(ROOT (SBARQ (SBAR (IN If) (S (NP (DT each) (NN cage)) (VP (VBZ has) (NP (NP (CD 2) (NNS parrots)) (CC and) (NP (NP (CD 7) (NNS parakeets)) (PP (IN in) (NP (PRP it)))))))) (, ,) (WHNP (WHADJP (WRB how) (JJ many)) (NNS birds)) (SQ (VBZ does) (NP (DT the) (NN pet) (NN store)) (VP (VBP have) (NP (NN total)))) (. ?)))
p180
sVtext
p181
VIf each cage has 2 parrots and 7 parakeets in it , how many birds does the pet store have total ?
p182
sVdependencies
p183
(lp184
(lp185
Vroot
p186
aVROOT
p187
aVhave
p188
aa(lp189
Vmark
p190
aVhas
p191
aVIf
p192
aa(lp193
Vdet
p194
aVcage
p195
aVeach
p196
aa(lp197
Vnsubj
p198
aVhas
p199
aVcage
p200
aa(lp201
Vadvcl
p202
aVhave
p203
aVhas
p204
aa(lp205
Vnum
p206
aVparrots
p207
ag14
aa(lp208
Vdobj
p209
aVhas
p210
aVparrots
p211
aa(lp212
Vnum
p213
aVparakeets
p214
ag84
aa(lp215
Vconj_and
p216
aVparrots
p217
aVparakeets
p218
aa(lp219
Vprep_in
p220
aVparakeets
p221
aVit
p222
aa(lp223
Vadvmod
p224
aVmany
p225
aVhow
p226
aa(lp227
Vamod
p228
aVbirds
p229
aVmany
p230
aa(lp231
Vdep
p232
aVhave
p233
aVbirds
p234
aa(lp235
Vaux
p236
aVhave
p237
aVdoes
p238
aa(lp239
Vdet
p240
aVstore
p241
aVthe
p242
aa(lp243
Vnn
p244
aVstore
p245
aVpet
p246
aa(lp247
Vnsubj
p248
aVhave
p249
aVstore
p250
aa(lp251
Vdobj
p252
aVhave
p253
aVtotal
p254
aasVwords
p255
(lp256
(lp257
VIf
p258
a(dp259
VNamedEntityTag
p260
g57
sVCharacterOffsetEnd
p261
V34
p262
sVCharacterOffsetBegin
p263
V32
p264
sVPartOfSpeech
p265
VIN
p266
sVLemma
p267
Vif
p268
saa(lp269
Veach
p270
a(dp271
VNamedEntityTag
p272
g57
sVCharacterOffsetEnd
p273
V39
p274
sVCharacterOffsetBegin
p275
V35
p276
sVPartOfSpeech
p277
VDT
p278
sVLemma
p279
Veach
p280
saa(lp281
Vcage
p282
a(dp283
VNamedEntityTag
p284
g57
sVCharacterOffsetEnd
p285
V44
p286
sVCharacterOffsetBegin
p287
V40
p288
sVPartOfSpeech
p289
VNN
p290
sVLemma
p291
Vcage
p292
saa(lp293
Vhas
p294
a(dp295
VNamedEntityTag
p296
g57
sVCharacterOffsetEnd
p297
V48
p298
sVCharacterOffsetBegin
p299
V45
p300
sVPartOfSpeech
p301
VVBZ
p302
sVLemma
p303
Vhave
p304
saa(lp305
g14
a(dp306
VNormalizedNamedEntityTag
p307
V2.0
p308
sVLemma
p309
g14
sVCharacterOffsetEnd
p310
V50
p311
sVPartOfSpeech
p312
VCD
p313
sVCharacterOffsetBegin
p314
V49
p315
sVNamedEntityTag
p316
VNUMBER
p317
saa(lp318
Vparrots
p319
a(dp320
VNamedEntityTag
p321
g57
sVCharacterOffsetEnd
p322
V58
p323
sVCharacterOffsetBegin
p324
V51
p325
sVPartOfSpeech
p326
VNNS
p327
sVLemma
p328
Vparrot
p329
saa(lp330
Vand
p331
a(dp332
VNamedEntityTag
p333
g57
sVCharacterOffsetEnd
p334
V62
p335
sVCharacterOffsetBegin
p336
V59
p337
sVPartOfSpeech
p338
VCC
p339
sVLemma
p340
Vand
p341
saa(lp342
g84
a(dp343
VNormalizedNamedEntityTag
p344
V7.0
p345
sVLemma
p346
g84
sVCharacterOffsetEnd
p347
V64
p348
sVPartOfSpeech
p349
VCD
p350
sVCharacterOffsetBegin
p351
V63
p352
sVNamedEntityTag
p353
VNUMBER
p354
saa(lp355
Vparakeets
p356
a(dp357
VNamedEntityTag
p358
g57
sVCharacterOffsetEnd
p359
V74
p360
sVCharacterOffsetBegin
p361
V65
p362
sVPartOfSpeech
p363
VNNS
p364
sVLemma
p365
Vparakeet
p366
saa(lp367
Vin
p368
a(dp369
VNamedEntityTag
p370
g57
sVCharacterOffsetEnd
p371
V77
p372
sVCharacterOffsetBegin
p373
V75
p374
sVPartOfSpeech
p375
VIN
p376
sVLemma
p377
Vin
p378
saa(lp379
Vit
p380
a(dp381
VNamedEntityTag
p382
g57
sVCharacterOffsetEnd
p383
V80
p384
sVCharacterOffsetBegin
p385
V78
p386
sVPartOfSpeech
p387
VPRP
p388
sVLemma
p389
Vit
p390
saa(lp391
V,
p392
a(dp393
VNamedEntityTag
p394
g57
sVCharacterOffsetEnd
p395
V82
p396
sVCharacterOffsetBegin
p397
V81
p398
sVPartOfSpeech
p399
g392
sVLemma
p400
g392
saa(lp401
Vhow
p402
a(dp403
VNamedEntityTag
p404
g57
sVCharacterOffsetEnd
p405
V86
p406
sVCharacterOffsetBegin
p407
V83
p408
sVPartOfSpeech
p409
VWRB
p410
sVLemma
p411
Vhow
p412
saa(lp413
Vmany
p414
a(dp415
VNamedEntityTag
p416
g57
sVCharacterOffsetEnd
p417
V91
p418
sVCharacterOffsetBegin
p419
V87
p420
sVPartOfSpeech
p421
VJJ
p422
sVLemma
p423
Vmany
p424
saa(lp425
Vbirds
p426
a(dp427
VNamedEntityTag
p428
g57
sVCharacterOffsetEnd
p429
V97
p430
sVCharacterOffsetBegin
p431
V92
p432
sVPartOfSpeech
p433
VNNS
p434
sVLemma
p435
Vbird
p436
saa(lp437
Vdoes
p438
a(dp439
VNamedEntityTag
p440
g57
sVCharacterOffsetEnd
p441
V102
p442
sVCharacterOffsetBegin
p443
V98
p444
sVPartOfSpeech
p445
VVBZ
p446
sVLemma
p447
Vdo
p448
saa(lp449
Vthe
p450
a(dp451
VNamedEntityTag
p452
g57
sVCharacterOffsetEnd
p453
V106
p454
sVCharacterOffsetBegin
p455
V103
p456
sVPartOfSpeech
p457
VDT
p458
sVLemma
p459
Vthe
p460
saa(lp461
Vpet
p462
a(dp463
VNamedEntityTag
p464
g57
sVCharacterOffsetEnd
p465
V110
p466
sVCharacterOffsetBegin
p467
V107
p468
sVPartOfSpeech
p469
VNN
p470
sVLemma
p471
Vpet
p472
saa(lp473
Vstore
p474
a(dp475
VNamedEntityTag
p476
g57
sVCharacterOffsetEnd
p477
V116
p478
sVCharacterOffsetBegin
p479
V111
p480
sVPartOfSpeech
p481
VNN
p482
sVLemma
p483
Vstore
p484
saa(lp485
Vhave
p486
a(dp487
VNamedEntityTag
p488
g57
sVCharacterOffsetEnd
p489
V121
p490
sVCharacterOffsetBegin
p491
V117
p492
sVPartOfSpeech
p493
VVBP
p494
sVLemma
p495
Vhave
p496
saa(lp497
Vtotal
p498
a(dp499
VNamedEntityTag
p500
g57
sVCharacterOffsetEnd
p501
V127
p502
sVCharacterOffsetBegin
p503
V122
p504
sVPartOfSpeech
p505
VNN
p506
sVLemma
p507
Vtotal
p508
saa(lp509
V?
p510
a(dp511
VNamedEntityTag
p512
g57
sVCharacterOffsetEnd
p513
V129
p514
sVCharacterOffsetBegin
p515
V128
p516
sVPartOfSpeech
p517
g139
sVLemma
p518
g510
saasVindexeddependencies
p519
(lp520
(lp521
Vroot
p522
aVROOT-0
p523
aVhave-20
p524
aa(lp525
Vmark
p526
aVhas-4
p527
aVIf-1
p528
aa(lp529
Vdet
p530
aVcage-3
p531
aVeach-2
p532
aa(lp533
Vnsubj
p534
aVhas-4
p535
aVcage-3
p536
aa(lp537
Vadvcl
p538
aVhave-20
p539
aVhas-4
p540
aa(lp541
Vnum
p542
aVparrots-6
p543
aV2-5
p544
aa(lp545
Vdobj
p546
aVhas-4
p547
aVparrots-6
p548
aa(lp549
Vnum
p550
aVparakeets-9
p551
aV7-8
p552
aa(lp553
Vconj_and
p554
aVparrots-6
p555
aVparakeets-9
p556
aa(lp557
Vprep_in
p558
aVparakeets-9
p559
aVit-11
p560
aa(lp561
Vadvmod
p562
aVmany-14
p563
aVhow-13
p564
aa(lp565
Vamod
p566
aVbirds-15
p567
aVmany-14
p568
aa(lp569
Vdep
p570
aVhave-20
p571
aVbirds-15
p572
aa(lp573
Vaux
p574
aVhave-20
p575
aVdoes-16
p576
aa(lp577
Vdet
p578
aVstore-19
p579
aVthe-17
p580
aa(lp581
Vnn
p582
aVstore-19
p583
aVpet-18
p584
aa(lp585
Vnsubj
p586
aVhave-20
p587
aVstore-19
p588
aa(lp589
Vdobj
p590
aVhave-20
p591
aVtotal-21
p592
aasas.