(dp0
Vcoref
p1
(lp2
(lp3
(lp4
(lp5
VThis year
p6
aI1
aI1
aI0
aI2
aa(lp7
Vlast year
p8
aI0
aI7
aI6
aI8
aaa(lp9
(lp10
Vthis year
p11
aI2
aI8
aI7
aI9
aa(lp12
Vlast year
p13
aI0
aI7
aI6
aI8
aaaa(lp14
(lp15
(lp16
Vthe store
p17
aI2
aI5
aI4
aI6
aa(lp18
Vthe store
p19
aI1
aI4
aI3
aI5
aaaasVsentences
p20
(lp21
(dp22
Vparsetree
p23
V(ROOT (S (NP (NP (NNP Hoffman) (POS 's)) (NNPS Books)) (VP (VBD sold) (NP (CD 930) (NNS bookmarks)) (NP-TMP (JJ last) (NN year))) (. .)))
p24
sVtext
p25
VHoffman's Books sold 930 bookmarks last year .
p26
sVdependencies
p27
(lp28
(lp29
Vroot
p30
aVROOT
p31
aVsold
p32
aa(lp33
Vposs
p34
aVBooks
p35
aVHoffman
p36
aa(lp37
Vnsubj
p38
aVsold
p39
aVBooks
p40
aa(lp41
Vnum
p42
aVbookmarks
p43
aV930
p44
aa(lp45
Vdobj
p46
aVsold
p47
aVbookmarks
p48
aa(lp49
Vamod
p50
aVyear
p51
aVlast
p52
aa(lp53
Vtmod
p54
aVsold
p55
aVyear
p56
aasVwords
p57
(lp58
(lp59
VHoffman
p60
a(dp61
VNamedEntityTag
p62
VPERSON
p63
sVCharacterOffsetEnd
p64
V8
p65
sVCharacterOffsetBegin
p66
V1
p67
sVPartOfSpeech
p68
VNNP
p69
sVLemma
p70
VHoffman
p71
saa(lp72
V's
p73
a(dp74
VNamedEntityTag
p75
VO
p76
sVCharacterOffsetEnd
p77
V10
p78
sVCharacterOffsetBegin
p79
g65
sVPartOfSpeech
p80
VPOS
p81
sVLemma
p82
V's
p83
saa(lp84
VBooks
p85
a(dp86
VNamedEntityTag
p87
g76
sVCharacterOffsetEnd
p88
V16
p89
sVCharacterOffsetBegin
p90
V11
p91
sVPartOfSpeech
p92
VNNPS
p93
sVLemma
p94
VBooks
p95
saa(lp96
Vsold
p97
a(dp98
VNamedEntityTag
p99
g76
sVCharacterOffsetEnd
p100
V21
p101
sVCharacterOffsetBegin
p102
V17
p103
sVPartOfSpeech
p104
VVBD
p105
sVLemma
p106
Vsell
p107
saa(lp108
V930
p109
a(dp110
VNormalizedNamedEntityTag
p111
V930.0
p112
sVLemma
p113
V930
p114
sVCharacterOffsetEnd
p115
V25
p116
sVPartOfSpeech
p117
VCD
p118
sVCharacterOffsetBegin
p119
V22
p120
sVNamedEntityTag
p121
VNUMBER
p122
saa(lp123
Vbookmarks
p124
a(dp125
VNamedEntityTag
p126
g76
sVCharacterOffsetEnd
p127
V35
p128
sVCharacterOffsetBegin
p129
V26
p130
sVPartOfSpeech
p131
VNNS
p132
sVLemma
p133
Vbookmark
p134
saa(lp135
Vlast
p136
a(dp137
VNormalizedNamedEntityTag
p138
VTHIS
p139
sVTimex
p140
V<TIMEX3 alt_value="THIS P1Y OFFSET P-1Y" anchorTimeID="t2" temporalFunction="true" tid="t1" type="DATE" valueFromFunction="tf0">last year</TIMEX3>
p141
sVLemma
p142
Vlast
p143
sVCharacterOffsetEnd
p144
V40
p145
sVPartOfSpeech
p146
VJJ
p147
sVCharacterOffsetBegin
p148
V36
p149
sVNamedEntityTag
p150
VDATE
p151
saa(lp152
Vyear
p153
a(dp154
VNormalizedNamedEntityTag
p155
VTHIS
p156
sVTimex
p157
V<TIMEX3 alt_value="THIS P1Y OFFSET P-1Y" anchorTimeID="t2" temporalFunction="true" tid="t1" type="DATE" valueFromFunction="tf0">last year</TIMEX3>
p158
sVLemma
p159
Vyear
p160
sVCharacterOffsetEnd
p161
V45
p162
sVPartOfSpeech
p163
VNN
p164
sVCharacterOffsetBegin
p165
V41
p166
sVNamedEntityTag
p167
VDATE
p168
saa(lp169
V.
p170
a(dp171
VNamedEntityTag
p172
g76
sVCharacterOffsetEnd
p173
V47
p174
sVCharacterOffsetBegin
p175
V46
p176
sVPartOfSpeech
p177
g170
sVLemma
p178
g170
saasVindexeddependencies
p179
(lp180
(lp181
Vroot
p182
aVROOT-0
p183
aVsold-4
p184
aa(lp185
Vposs
p186
aVBooks-3
p187
aVHoffman-1
p188
aa(lp189
Vnsubj
p190
aVsold-4
p191
aVBooks-3
p192
aa(lp193
Vnum
p194
aVbookmarks-6
p195
aV930-5
p196
aa(lp197
Vdobj
p198
aVsold-4
p199
aVbookmarks-6
p200
aa(lp201
Vamod
p202
aVyear-8
p203
aVlast-7
p204
aa(lp205
Vtmod
p206
aVsold-4
p207
aVyear-8
p208
aasa(dp209
Vparsetree
p210
V(ROOT (S (NP-TMP (DT This) (NN year)) (, ,) (NP (DT the) (NN store)) (VP (VBD sold) (NP (QP (CD 0.1) (NNS times) (RBR more)) (NNS bookmarks))) (. .)))
p211
sVtext
p212
VThis year , the store sold 0.1 times more bookmarks .
p213
sVdependencies
p214
(lp215
(lp216
Vroot
p217
aVROOT
p218
aVsold
p219
aa(lp220
Vdet
p221
aVyear
p222
aVThis
p223
aa(lp224
Vtmod
p225
aVsold
p226
aVyear
p227
aa(lp228
Vdet
p229
aVstore
p230
aVthe
p231
aa(lp232
Vnsubj
p233
aVsold
p234
aVstore
p235
aa(lp236
Vnumber
p237
aVtimes
p238
aV0.1
p239
aa(lp240
Vnum
p241
aVbookmarks
p242
aVtimes
p243
aa(lp244
Vquantmod
p245
aVtimes
p246
aVmore
p247
aa(lp248
Vdobj
p249
aVsold
p250
aVbookmarks
p251
aasVwords
p252
(lp253
(lp254
VThis
p255
a(dp256
VNormalizedNamedEntityTag
p257
VTHIS
p258
sVTimex
p259
V<TIMEX3 alt_value="THIS P1Y" anchorTimeID="t0" temporalFunction="true" tid="t3" type="DATE" valueFromFunction="tf1">This year</TIMEX3>
p260
sVLemma
p261
Vthis
p262
sVCharacterOffsetEnd
p263
V52
p264
sVPartOfSpeech
p265
VDT
p266
sVCharacterOffsetBegin
p267
V48
p268
sVNamedEntityTag
p269
VDATE
p270
saa(lp271
Vyear
p272
a(dp273
VNormalizedNamedEntityTag
p274
VTHIS
p275
sVTimex
p276
V<TIMEX3 alt_value="THIS P1Y" anchorTimeID="t0" temporalFunction="true" tid="t3" type="DATE" valueFromFunction="tf1">This year</TIMEX3>
p277
sVLemma
p278
Vyear
p279
sVCharacterOffsetEnd
p280
V57
p281
sVPartOfSpeech
p282
VNN
p283
sVCharacterOffsetBegin
p284
V53
p285
sVNamedEntityTag
p286
VDATE
p287
saa(lp288
V,
p289
a(dp290
VNamedEntityTag
p291
g76
sVCharacterOffsetEnd
p292
V59
p293
sVCharacterOffsetBegin
p294
V58
p295
sVPartOfSpeech
p296
g289
sVLemma
p297
g289
saa(lp298
Vthe
p299
a(dp300
VNamedEntityTag
p301
g76
sVCharacterOffsetEnd
p302
V63
p303
sVCharacterOffsetBegin
p304
V60
p305
sVPartOfSpeech
p306
VDT
p307
sVLemma
p308
Vthe
p309
saa(lp310
Vstore
p311
a(dp312
VNamedEntityTag
p313
g76
sVCharacterOffsetEnd
p314
V69
p315
sVCharacterOffsetBegin
p316
V64
p317
sVPartOfSpeech
p318
VNN
p319
sVLemma
p320
Vstore
p321
saa(lp322
Vsold
p323
a(dp324
VNamedEntityTag
p325
g76
sVCharacterOffsetEnd
p326
V74
p327
sVCharacterOffsetBegin
p328
V70
p329
sVPartOfSpeech
p330
VVBD
p331
sVLemma
p332
Vsell
p333
saa(lp334
V0.1
p335
a(dp336
VNormalizedNamedEntityTag
p337
V0.1
p338
sVLemma
p339
V0.1
p340
sVCharacterOffsetEnd
p341
V78
p342
sVPartOfSpeech
p343
VCD
p344
sVCharacterOffsetBegin
p345
V75
p346
sVNamedEntityTag
p347
VNUMBER
p348
saa(lp349
Vtimes
p350
a(dp351
VNamedEntityTag
p352
g76
sVCharacterOffsetEnd
p353
V84
p354
sVCharacterOffsetBegin
p355
V79
p356
sVPartOfSpeech
p357
VNNS
p358
sVLemma
p359
Vtime
p360
saa(lp361
Vmore
p362
a(dp363
VNamedEntityTag
p364
g76
sVCharacterOffsetEnd
p365
V89
p366
sVCharacterOffsetBegin
p367
V85
p368
sVPartOfSpeech
p369
VRBR
p370
sVLemma
p371
Vmore
p372
saa(lp373
Vbookmarks
p374
a(dp375
VNamedEntityTag
p376
g76
sVCharacterOffsetEnd
p377
V99
p378
sVCharacterOffsetBegin
p379
V90
p380
sVPartOfSpeech
p381
VNNS
p382
sVLemma
p383
Vbookmark
p384
saa(lp385
g170
a(dp386
VNamedEntityTag
p387
g76
sVCharacterOffsetEnd
p388
V101
p389
sVCharacterOffsetBegin
p390
V100
p391
sVPartOfSpeech
p392
g170
sVLemma
p393
g170
saasVindexeddependencies
p394
(lp395
(lp396
Vroot
p397
aVROOT-0
p398
aVsold-6
p399
aa(lp400
Vdet
p401
aVyear-2
p402
aVThis-1
p403
aa(lp404
Vtmod
p405
aVsold-6
p406
aVyear-2
p407
aa(lp408
Vdet
p409
aVstore-5
p410
aVthe-4
p411
aa(lp412
Vnsubj
p413
aVsold-6
p414
aVstore-5
p415
aa(lp416
Vnumber
p417
aVtimes-8
p418
aV0.1-7
p419
aa(lp420
Vnum
p421
aVbookmarks-10
p422
aVtimes-8
p423
aa(lp424
Vquantmod
p425
aVtimes-8
p426
aVmore-9
p427
aa(lp428
Vdobj
p429
aVsold-6
p430
aVbookmarks-10
p431
aasa(dp432
Vparsetree
p433
V(ROOT (SBARQ (WHADVP (WRB How) (NP (JJ many) (NNS bookmarks))) (SQ (VBD did) (NP (DT the) (NN store)) (VP (VB sell) (NP (DT this) (NN year)))) (. ?)))
p434
sVtext
p435
VHow many bookmarks did the store sell this year ?
p436
sVdependencies
p437
(lp438
(lp439
Vroot
p440
aVROOT
p441
aVsell
p442
aa(lp443
Vadvmod
p444
aVsell
p445
aVHow
p446
aa(lp447
Vamod
p448
aVbookmarks
p449
aVmany
p450
aa(lp451
Vdep
p452
aVHow
p453
aVbookmarks
p454
aa(lp455
Vaux
p456
aVsell
p457
aVdid
p458
aa(lp459
Vdet
p460
aVstore
p461
aVthe
p462
aa(lp463
Vnsubj
p464
aVsell
p465
aVstore
p466
aa(lp467
Vdet
p468
aVyear
p469
aVthis
p470
aa(lp471
Vtmod
p472
aVsell
p473
aVyear
p474
aasVwords
p475
(lp476
(lp477
VHow
p478
a(dp479
VNamedEntityTag
p480
g76
sVCharacterOffsetEnd
p481
V105
p482
sVCharacterOffsetBegin
p483
V102
p484
sVPartOfSpeech
p485
VWRB
p486
sVLemma
p487
Vhow
p488
saa(lp489
Vmany
p490
a(dp491
VNamedEntityTag
p492
g76
sVCharacterOffsetEnd
p493
V110
p494
sVCharacterOffsetBegin
p495
V106
p496
sVPartOfSpeech
p497
VJJ
p498
sVLemma
p499
Vmany
p500
saa(lp501
Vbookmarks
p502
a(dp503
VNamedEntityTag
p504
g76
sVCharacterOffsetEnd
p505
V120
p506
sVCharacterOffsetBegin
p507
V111
p508
sVPartOfSpeech
p509
VNNS
p510
sVLemma
p511
Vbookmark
p512
saa(lp513
Vdid
p514
a(dp515
VNamedEntityTag
p516
g76
sVCharacterOffsetEnd
p517
V124
p518
sVCharacterOffsetBegin
p519
V121
p520
sVPartOfSpeech
p521
VVBD
p522
sVLemma
p523
Vdo
p524
saa(lp525
Vthe
p526
a(dp527
VNamedEntityTag
p528
g76
sVCharacterOffsetEnd
p529
V128
p530
sVCharacterOffsetBegin
p531
V125
p532
sVPartOfSpeech
p533
VDT
p534
sVLemma
p535
Vthe
p536
saa(lp537
Vstore
p538
a(dp539
VNamedEntityTag
p540
g76
sVCharacterOffsetEnd
p541
V134
p542
sVCharacterOffsetBegin
p543
V129
p544
sVPartOfSpeech
p545
VNN
p546
sVLemma
p547
Vstore
p548
saa(lp549
Vsell
p550
a(dp551
VNamedEntityTag
p552
g76
sVCharacterOffsetEnd
p553
V139
p554
sVCharacterOffsetBegin
p555
V135
p556
sVPartOfSpeech
p557
VVB
p558
sVLemma
p559
Vsell
p560
saa(lp561
Vthis
p562
a(dp563
VNormalizedNamedEntityTag
p564
VTHIS
p565
sVTimex
p566
V<TIMEX3 alt_value="THIS P1Y" anchorTimeID="t0" temporalFunction="true" tid="t3" type="DATE" valueFromFunction="tf1">this year</TIMEX3>
p567
sVLemma
p568
Vthis
p569
sVCharacterOffsetEnd
p570
V144
p571
sVPartOfSpeech
p572
VDT
p573
sVCharacterOffsetBegin
p574
V140
p575
sVNamedEntityTag
p576
VDATE
p577
saa(lp578
Vyear
p579
a(dp580
VNormalizedNamedEntityTag
p581
VTHIS
p582
sVTimex
p583
V<TIMEX3 alt_value="THIS P1Y" anchorTimeID="t0" temporalFunction="true" tid="t3" type="DATE" valueFromFunction="tf1">this year</TIMEX3>
p584
sVLemma
p585
Vyear
p586
sVCharacterOffsetEnd
p587
V149
p588
sVPartOfSpeech
p589
VNN
p590
sVCharacterOffsetBegin
p591
V145
p592
sVNamedEntityTag
p593
VDATE
p594
saa(lp595
V?
p596
a(dp597
VNamedEntityTag
p598
g76
sVCharacterOffsetEnd
p599
V151
p600
sVCharacterOffsetBegin
p601
V150
p602
sVPartOfSpeech
p603
g170
sVLemma
p604
g596
saasVindexeddependencies
p605
(lp606
(lp607
Vroot
p608
aVROOT-0
p609
aVsell-7
p610
aa(lp611
Vadvmod
p612
aVsell-7
p613
aVHow-1
p614
aa(lp615
Vamod
p616
aVbookmarks-3
p617
aVmany-2
p618
aa(lp619
Vdep
p620
aVHow-1
p621
aVbookmarks-3
p622
aa(lp623
Vaux
p624
aVsell-7
p625
aVdid-4
p626
aa(lp627
Vdet
p628
aVstore-6
p629
aVthe-5
p630
aa(lp631
Vnsubj
p632
aVsell-7
p633
aVstore-6
p634
aa(lp635
Vdet
p636
aVyear-9
p637
aVthis-8
p638
aa(lp639
Vtmod
p640
aVsell-7
p641
aVyear-9
p642
aasas.