(dp0
Vcoref
p1
(lp2
(lp3
(lp4
(lp5
VLana
p6
aI1
aI0
aI0
aI1
aa(lp7
VLana 's
p8
aI0
aI0
aI0
aI2
aaa(lp9
(lp10
Vherself
p11
aI1
aI5
aI5
aI6
aa(lp12
VLana 's
p13
aI0
aI0
aI0
aI2
aaa(lp14
(lp15
Vher
p16
aI1
aI7
aI7
aI8
aa(lp17
VLana 's
p18
aI0
aI0
aI0
aI2
aaa(lp19
(lp20
Vshe
p21
aI2
aI3
aI3
aI4
aa(lp22
VLana 's
p23
aI0
aI0
aI0
aI2
aaaasVsentences
p24
(lp25
(dp26
Vparsetree
p27
V(ROOT (S (NP (NP (NNP Lana) (POS 's)) (JJ favorite) (NN band)) (VP (VBD was) (VP (VBG holding) (NP (NP (DT a) (NN concert)) (SBAR (WHADVP (WRB where)) (S (NP (NNS tickets)) (VP (VBD were) (NP (NP (CD 6) (NNS dollars)) (NP (DT each))))))))) (. .)))
p28
sVtext
p29
VLana's favorite band was holding a concert where tickets were 6 dollars each .
p30
sVdependencies
p31
(lp32
(lp33
Vroot
p34
aVROOT
p35
aVholding
p36
aa(lp37
Vposs
p38
aVband
p39
aVLana
p40
aa(lp41
Vamod
p42
aVband
p43
aVfavorite
p44
aa(lp45
Vnsubj
p46
aVholding
p47
aVband
p48
aa(lp49
Vaux
p50
aVholding
p51
aVwas
p52
aa(lp53
Vdet
p54
aVconcert
p55
aVa
p56
aa(lp57
Vdobj
p58
aVholding
p59
aVconcert
p60
aa(lp61
Vadvmod
p62
aVdollars
p63
aVwhere
p64
aa(lp65
Vnsubj
p66
aVdollars
p67
aVtickets
p68
aa(lp69
Vcop
p70
aVdollars
p71
aVwere
p72
aa(lp73
Vnum
p74
aVdollars
p75
aV6
p76
aa(lp77
Vrcmod
p78
aVconcert
p79
aVdollars
p80
aa(lp81
Vdep
p82
aVdollars
p83
aVeach
p84
aasVwords
p85
(lp86
(lp87
VLana
p88
a(dp89
VNamedEntityTag
p90
VPERSON
p91
sVCharacterOffsetEnd
p92
V5
p93
sVCharacterOffsetBegin
p94
V1
p95
sVPartOfSpeech
p96
VNNP
p97
sVLemma
p98
VLana
p99
saa(lp100
V's
p101
a(dp102
VNamedEntityTag
p103
VO
p104
sVCharacterOffsetEnd
p105
V7
p106
sVCharacterOffsetBegin
p107
g93
sVPartOfSpeech
p108
VPOS
p109
sVLemma
p110
V's
p111
saa(lp112
Vfavorite
p113
a(dp114
VNamedEntityTag
p115
g104
sVCharacterOffsetEnd
p116
V16
p117
sVCharacterOffsetBegin
p118
V8
p119
sVPartOfSpeech
p120
VJJ
p121
sVLemma
p122
Vfavorite
p123
saa(lp124
Vband
p125
a(dp126
VNamedEntityTag
p127
g104
sVCharacterOffsetEnd
p128
V21
p129
sVCharacterOffsetBegin
p130
V17
p131
sVPartOfSpeech
p132
VNN
p133
sVLemma
p134
Vband
p135
saa(lp136
Vwas
p137
a(dp138
VNamedEntityTag
p139
g104
sVCharacterOffsetEnd
p140
V25
p141
sVCharacterOffsetBegin
p142
V22
p143
sVPartOfSpeech
p144
VVBD
p145
sVLemma
p146
Vbe
p147
saa(lp148
Vholding
p149
a(dp150
VNamedEntityTag
p151
g104
sVCharacterOffsetEnd
p152
V33
p153
sVCharacterOffsetBegin
p154
V26
p155
sVPartOfSpeech
p156
VVBG
p157
sVLemma
p158
Vhold
p159
saa(lp160
g56
a(dp161
VNamedEntityTag
p162
g104
sVCharacterOffsetEnd
p163
V35
p164
sVCharacterOffsetBegin
p165
V34
p166
sVPartOfSpeech
p167
VDT
p168
sVLemma
p169
g56
saa(lp170
Vconcert
p171
a(dp172
VNamedEntityTag
p173
g104
sVCharacterOffsetEnd
p174
V43
p175
sVCharacterOffsetBegin
p176
V36
p177
sVPartOfSpeech
p178
VNN
p179
sVLemma
p180
Vconcert
p181
saa(lp182
Vwhere
p183
a(dp184
VNamedEntityTag
p185
g104
sVCharacterOffsetEnd
p186
V49
p187
sVCharacterOffsetBegin
p188
V44
p189
sVPartOfSpeech
p190
VWRB
p191
sVLemma
p192
Vwhere
p193
saa(lp194
Vtickets
p195
a(dp196
VNamedEntityTag
p197
g104
sVCharacterOffsetEnd
p198
V57
p199
sVCharacterOffsetBegin
p200
V50
p201
sVPartOfSpeech
p202
VNNS
p203
sVLemma
p204
Vticket
p205
saa(lp206
Vwere
p207
a(dp208
VNamedEntityTag
p209
g104
sVCharacterOffsetEnd
p210
V62
p211
sVCharacterOffsetBegin
p212
V58
p213
sVPartOfSpeech
p214
VVBD
p215
sVLemma
p216
Vbe
p217
saa(lp218
g76
a(dp219
VNormalizedNamedEntityTag
p220
V$6.0
p221
sVLemma
p222
g76
sVCharacterOffsetEnd
p223
V64
p224
sVPartOfSpeech
p225
VCD
p226
sVCharacterOffsetBegin
p227
V63
p228
sVNamedEntityTag
p229
VMONEY
p230
saa(lp231
Vdollars
p232
a(dp233
VNormalizedNamedEntityTag
p234
V$6.0
p235
sVLemma
p236
Vdollar
p237
sVCharacterOffsetEnd
p238
V72
p239
sVPartOfSpeech
p240
VNNS
p241
sVCharacterOffsetBegin
p242
V65
p243
sVNamedEntityTag
p244
VMONEY
p245
saa(lp246
Veach
p247
a(dp248
VNamedEntityTag
p249
g104
sVCharacterOffsetEnd
p250
V77
p251
sVCharacterOffsetBegin
p252
V73
p253
sVPartOfSpeech
p254
VDT
p255
sVLemma
p256
Veach
p257
saa(lp258
V.
p259
a(dp260
VNamedEntityTag
p261
g104
sVCharacterOffsetEnd
p262
V79
p263
sVCharacterOffsetBegin
p264
V78
p265
sVPartOfSpeech
p266
g259
sVLemma
p267
g259
saasVindexeddependencies
p268
(lp269
(lp270
Vroot
p271
aVROOT-0
p272
aVholding-6
p273
aa(lp274
Vposs
p275
aVband-4
p276
aVLana-1
p277
aa(lp278
Vamod
p279
aVband-4
p280
aVfavorite-3
p281
aa(lp282
Vnsubj
p283
aVholding-6
p284
aVband-4
p285
aa(lp286
Vaux
p287
aVholding-6
p288
aVwas-5
p289
aa(lp290
Vdet
p291
aVconcert-8
p292
aVa-7
p293
aa(lp294
Vdobj
p295
aVholding-6
p296
aVconcert-8
p297
aa(lp298
Vadvmod
p299
aVdollars-13
p300
aVwhere-9
p301
aa(lp302
Vnsubj
p303
aVdollars-13
p304
aVtickets-10
p305
aa(lp306
Vcop
p307
aVdollars-13
p308
aVwere-11
p309
aa(lp310
Vnum
p311
aVdollars-13
p312
aV6-12
p313
aa(lp314
Vrcmod
p315
aVconcert-8
p316
aVdollars-13
p317
aa(lp318
Vdep
p319
aVdollars-13
p320
aVeach-14
p321
aasa(dp322
Vparsetree
p323
V(ROOT (S (NP (NNP Lana)) (VP (VBD bought) (SBAR (S (NP (NP (CD 8) (NNS tickets)) (PP (IN for) (NP (NP (NP (PRP herself)) (CC and) (NP (PRP$ her) (NNS friends))) (CC and) (NP (NP (CD 2) (JJ extra) (NNS tickets)) (PP (IN in) (NP (NN case) (NN anyone))))))) (ADVP (RB else)) (VP (VBD wanted) (S (VP (TO to) (VP (VB go)))))))) (. .)))
p324
sVtext
p325
VLana bought 8 tickets for herself and her friends and 2 extra tickets in case anyone else wanted to go .
p326
sVdependencies
p327
(lp328
(lp329
Vroot
p330
aVROOT
p331
aVbought
p332
aa(lp333
Vnsubj
p334
aVbought
p335
aVLana
p336
aa(lp337
Vnum
p338
aVtickets
p339
ag119
aa(lp340
Vnsubj
p341
aVwanted
p342
aVtickets
p343
aa(lp344
Vprep_for
p345
aVtickets
p346
aVherself
p347
aa(lp348
Vposs
p349
aVfriends
p350
aVher
p351
aa(lp352
Vconj_and
p353
aVherself
p354
aVfriends
p355
aa(lp356
Vnum
p357
aVtickets
p358
aV2
p359
aa(lp360
Vamod
p361
aVtickets
p362
aVextra
p363
aa(lp364
Vconj_and
p365
aVherself
p366
aVtickets
p367
aa(lp368
Vnn
p369
aVanyone
p370
aVcase
p371
aa(lp372
Vprep_in
p373
aVtickets
p374
aVanyone
p375
aa(lp376
Vadvmod
p377
aVwanted
p378
aVelse
p379
aa(lp380
Vccomp
p381
aVbought
p382
aVwanted
p383
aa(lp384
Vaux
p385
aVgo
p386
aVto
p387
aa(lp388
Vxcomp
p389
aVwanted
p390
aVgo
p391
aasVwords
p392
(lp393
(lp394
VLana
p395
a(dp396
VNamedEntityTag
p397
VPERSON
p398
sVCharacterOffsetEnd
p399
V84
p400
sVCharacterOffsetBegin
p401
V80
p402
sVPartOfSpeech
p403
VNNP
p404
sVLemma
p405
VLana
p406
saa(lp407
Vbought
p408
a(dp409
VNamedEntityTag
p410
g104
sVCharacterOffsetEnd
p411
V91
p412
sVCharacterOffsetBegin
p413
V85
p414
sVPartOfSpeech
p415
VVBD
p416
sVLemma
p417
Vbuy
p418
saa(lp419
g119
a(dp420
VNormalizedNamedEntityTag
p421
V8.0
p422
sVLemma
p423
g119
sVCharacterOffsetEnd
p424
V93
p425
sVPartOfSpeech
p426
VCD
p427
sVCharacterOffsetBegin
p428
V92
p429
sVNamedEntityTag
p430
VNUMBER
p431
saa(lp432
Vtickets
p433
a(dp434
VNamedEntityTag
p435
g104
sVCharacterOffsetEnd
p436
V101
p437
sVCharacterOffsetBegin
p438
V94
p439
sVPartOfSpeech
p440
VNNS
p441
sVLemma
p442
Vticket
p443
saa(lp444
Vfor
p445
a(dp446
VNamedEntityTag
p447
g104
sVCharacterOffsetEnd
p448
V105
p449
sVCharacterOffsetBegin
p450
V102
p451
sVPartOfSpeech
p452
VIN
p453
sVLemma
p454
Vfor
p455
saa(lp456
Vherself
p457
a(dp458
VNamedEntityTag
p459
g104
sVCharacterOffsetEnd
p460
V113
p461
sVCharacterOffsetBegin
p462
V106
p463
sVPartOfSpeech
p464
VPRP
p465
sVLemma
p466
Vherself
p467
saa(lp468
Vand
p469
a(dp470
VNamedEntityTag
p471
g104
sVCharacterOffsetEnd
p472
V117
p473
sVCharacterOffsetBegin
p474
V114
p475
sVPartOfSpeech
p476
VCC
p477
sVLemma
p478
Vand
p479
saa(lp480
Vher
p481
a(dp482
VNamedEntityTag
p483
g104
sVCharacterOffsetEnd
p484
V121
p485
sVCharacterOffsetBegin
p486
V118
p487
sVPartOfSpeech
p488
VPRP$
p489
sVLemma
p490
Vshe
p491
saa(lp492
Vfriends
p493
a(dp494
VNamedEntityTag
p495
g104
sVCharacterOffsetEnd
p496
V129
p497
sVCharacterOffsetBegin
p498
V122
p499
sVPartOfSpeech
p500
VNNS
p501
sVLemma
p502
Vfriend
p503
saa(lp504
Vand
p505
a(dp506
VNamedEntityTag
p507
g104
sVCharacterOffsetEnd
p508
V133
p509
sVCharacterOffsetBegin
p510
V130
p511
sVPartOfSpeech
p512
VCC
p513
sVLemma
p514
Vand
p515
saa(lp516
g359
a(dp517
VNormalizedNamedEntityTag
p518
V2.0
p519
sVLemma
p520
g359
sVCharacterOffsetEnd
p521
V135
p522
sVPartOfSpeech
p523
VCD
p524
sVCharacterOffsetBegin
p525
V134
p526
sVNamedEntityTag
p527
VNUMBER
p528
saa(lp529
Vextra
p530
a(dp531
VNamedEntityTag
p532
g104
sVCharacterOffsetEnd
p533
V141
p534
sVCharacterOffsetBegin
p535
V136
p536
sVPartOfSpeech
p537
VJJ
p538
sVLemma
p539
Vextra
p540
saa(lp541
Vtickets
p542
a(dp543
VNamedEntityTag
p544
g104
sVCharacterOffsetEnd
p545
V149
p546
sVCharacterOffsetBegin
p547
V142
p548
sVPartOfSpeech
p549
VNNS
p550
sVLemma
p551
Vticket
p552
saa(lp553
Vin
p554
a(dp555
VNamedEntityTag
p556
g104
sVCharacterOffsetEnd
p557
V152
p558
sVCharacterOffsetBegin
p559
V150
p560
sVPartOfSpeech
p561
VIN
p562
sVLemma
p563
Vin
p564
saa(lp565
Vcase
p566
a(dp567
VNamedEntityTag
p568
g104
sVCharacterOffsetEnd
p569
V157
p570
sVCharacterOffsetBegin
p571
V153
p572
sVPartOfSpeech
p573
VNN
p574
sVLemma
p575
Vcase
p576
saa(lp577
Vanyone
p578
a(dp579
VNamedEntityTag
p580
g104
sVCharacterOffsetEnd
p581
V164
p582
sVCharacterOffsetBegin
p583
V158
p584
sVPartOfSpeech
p585
VNN
p586
sVLemma
p587
Vanyone
p588
saa(lp589
Velse
p590
a(dp591
VNamedEntityTag
p592
g104
sVCharacterOffsetEnd
p593
V169
p594
sVCharacterOffsetBegin
p595
V165
p596
sVPartOfSpeech
p597
VRB
p598
sVLemma
p599
Velse
p600
saa(lp601
Vwanted
p602
a(dp603
VNamedEntityTag
p604
g104
sVCharacterOffsetEnd
p605
V176
p606
sVCharacterOffsetBegin
p607
V170
p608
sVPartOfSpeech
p609
VVBD
p610
sVLemma
p611
Vwant
p612
saa(lp613
Vto
p614
a(dp615
VNamedEntityTag
p616
g104
sVCharacterOffsetEnd
p617
V179
p618
sVCharacterOffsetBegin
p619
V177
p620
sVPartOfSpeech
p621
VTO
p622
sVLemma
p623
Vto
p624
saa(lp625
Vgo
p626
a(dp627
VNamedEntityTag
p628
g104
sVCharacterOffsetEnd
p629
V182
p630
sVCharacterOffsetBegin
p631
V180
p632
sVPartOfSpeech
p633
VVB
p634
sVLemma
p635
Vgo
p636
saa(lp637
g259
a(dp638
VNamedEntityTag
p639
g104
sVCharacterOffsetEnd
p640
V184
p641
sVCharacterOffsetBegin
p642
V183
p643
sVPartOfSpeech
p644
g259
sVLemma
p645
g259
saasVindexeddependencies
p646
(lp647
(lp648
Vroot
p649
aVROOT-0
p650
aVbought-2
p651
aa(lp652
Vnsubj
p653
aVbought-2
p654
aVLana-1
p655
aa(lp656
Vnum
p657
aVtickets-4
p658
aV8-3
p659
aa(lp660
Vnsubj
p661
aVwanted-18
p662
aVtickets-4
p663
aa(lp664
Vprep_for
p665
aVtickets-4
p666
aVherself-6
p667
aa(lp668
Vposs
p669
aVfriends-9
p670
aVher-8
p671
aa(lp672
Vconj_and
p673
aVherself-6
p674
aVfriends-9
p675
aa(lp676
Vnum
p677
aVtickets-13
p678
aV2-11
p679
aa(lp680
Vamod
p681
aVtickets-13
p682
aVextra-12
p683
aa(lp684
Vconj_and
p685
aVherself-6
p686
aVtickets-13
p687
aa(lp688
Vnn
p689
aVanyone-16
p690
aVcase-15
p691
aa(lp692
Vprep_in
p693
aVtickets-13
p694
aVanyone-16
p695
aa(lp696
Vadvmod
p697
aVwanted-18
p698
aVelse-17
p699
aa(lp700
Vccomp
p701
aVbought-2
p702
aVwanted-18
p703
aa(lp704
Vaux
p705
aVgo-20
p706
aVto-19
p707
aa(lp708
Vxcomp
p709
aVwanted-18
p710
aVgo-20
p711
aasa(dp712
Vparsetree
p713
V(ROOT (SBARQ (WHNP (WRB How) (RB much)) (SQ (VBD did) (NP (PRP she)) (VP (VB spend))) (. ?)))
p714
sVtext
p715
VHow much did she spend ?
p716
sVdependencies
p717
(lp718
(lp719
Vroot
p720
aVROOT
p721
aVspend
p722
aa(lp723
Vadvmod
p724
aVmuch
p725
aVHow
p726
aa(lp727
Vdep
p728
aVspend
p729
aVmuch
p730
aa(lp731
Vaux
p732
aVspend
p733
aVdid
p734
aa(lp735
Vnsubj
p736
aVspend
p737
aVshe
p738
aasVwords
p739
(lp740
(lp741
VHow
p742
a(dp743
VNamedEntityTag
p744
g104
sVCharacterOffsetEnd
p745
V188
p746
sVCharacterOffsetBegin
p747
V185
p748
sVPartOfSpeech
p749
VWRB
p750
sVLemma
p751
Vhow
p752
saa(lp753
Vmuch
p754
a(dp755
VNamedEntityTag
p756
g104
sVCharacterOffsetEnd
p757
V193
p758
sVCharacterOffsetBegin
p759
V189
p760
sVPartOfSpeech
p761
VRB
p762
sVLemma
p763
Vmuch
p764
saa(lp765
Vdid
p766
a(dp767
VNamedEntityTag
p768
g104
sVCharacterOffsetEnd
p769
V197
p770
sVCharacterOffsetBegin
p771
V194
p772
sVPartOfSpeech
p773
VVBD
p774
sVLemma
p775
Vdo
p776
saa(lp777
Vshe
p778
a(dp779
VNamedEntityTag
p780
g104
sVCharacterOffsetEnd
p781
V201
p782
sVCharacterOffsetBegin
p783
V198
p784
sVPartOfSpeech
p785
VPRP
p786
sVLemma
p787
Vshe
p788
saa(lp789
Vspend
p790
a(dp791
VNamedEntityTag
p792
g104
sVCharacterOffsetEnd
p793
V207
p794
sVCharacterOffsetBegin
p795
V202
p796
sVPartOfSpeech
p797
VVB
p798
sVLemma
p799
Vspend
p800
saa(lp801
V?
p802
a(dp803
VNamedEntityTag
p804
g104
sVCharacterOffsetEnd
p805
V209
p806
sVCharacterOffsetBegin
p807
V208
p808
sVPartOfSpeech
p809
g259
sVLemma
p810
g802
saasVindexeddependencies
p811
(lp812
(lp813
Vroot
p814
aVROOT-0
p815
aVspend-5
p816
aa(lp817
Vadvmod
p818
aVmuch-2
p819
aVHow-1
p820
aa(lp821
Vdep
p822
aVspend-5
p823
aVmuch-2
p824
aa(lp825
Vaux
p826
aVspend-5
p827
aVdid-3
p828
aa(lp829
Vnsubj
p830
aVspend-5
p831
aVshe-4
p832
aasas.