(dp0
Vcoref
p1
(lp2
(lp3
(lp4
(lp5
Vhis
p6
aI0
aI3
aI3
aI4
aa(lp7
VCooper
p8
aI0
aI0
aI0
aI1
aaa(lp9
(lp10
Vhe
p11
aI1
aI3
aI3
aI4
aa(lp12
VCooper
p13
aI0
aI0
aI0
aI1
aaaa(lp14
(lp15
(lp16
Vthe dog
p17
aI1
aI7
aI6
aI8
aa(lp18
Vhis dog
p19
aI0
aI4
aI3
aI5
aaa(lp20
(lp21
Vthe dog
p22
aI2
aI5
aI4
aI6
aa(lp23
Vhis dog
p24
aI0
aI4
aI3
aI5
aaaasVsentences
p25
(lp26
(dp27
Vparsetree
p28
V(ROOT (S (NP (NNP Cooper)) (ADVP (RB just)) (VP (VP (VBD measured) (NP (PRP$ his) (NN dog))) (CC and) (VP (VBN found) (PP (IN out) (S (NP (PRP it)) (VP (VBZ weighs) (NP (CD 74) (NNS kilograms))))))) (. .)))
p29
sVtext
p30
VCooper just measured his dog and found out it weighs 74 kilograms .
p31
sVdependencies
p32
(lp33
(lp34
Vroot
p35
aVROOT
p36
aVmeasured
p37
aa(lp38
Vnsubj
p39
aVmeasured
p40
aVCooper
p41
aa(lp42
Vadvmod
p43
aVmeasured
p44
aVjust
p45
aa(lp46
Vposs
p47
aVdog
p48
aVhis
p49
aa(lp50
Vdobj
p51
aVmeasured
p52
aVdog
p53
aa(lp54
Vconj_and
p55
aVmeasured
p56
aVfound
p57
aa(lp58
Vnsubj
p59
aVweighs
p60
aVit
p61
aa(lp62
Vprepc_out
p63
aVfound
p64
aVweighs
p65
aa(lp66
Vnum
p67
aVkilograms
p68
aV74
p69
aa(lp70
Vdobj
p71
aVweighs
p72
aVkilograms
p73
aasVwords
p74
(lp75
(lp76
VCooper
p77
a(dp78
VNamedEntityTag
p79
VPERSON
p80
sVCharacterOffsetEnd
p81
V7
p82
sVCharacterOffsetBegin
p83
V1
p84
sVPartOfSpeech
p85
VNNP
p86
sVLemma
p87
VCooper
p88
saa(lp89
Vjust
p90
a(dp91
VNamedEntityTag
p92
VO
p93
sVCharacterOffsetEnd
p94
V12
p95
sVCharacterOffsetBegin
p96
V8
p97
sVPartOfSpeech
p98
VRB
p99
sVLemma
p100
Vjust
p101
saa(lp102
Vmeasured
p103
a(dp104
VNamedEntityTag
p105
g93
sVCharacterOffsetEnd
p106
V21
p107
sVCharacterOffsetBegin
p108
V13
p109
sVPartOfSpeech
p110
VVBD
p111
sVLemma
p112
Vmeasure
p113
saa(lp114
Vhis
p115
a(dp116
VNamedEntityTag
p117
g93
sVCharacterOffsetEnd
p118
V25
p119
sVCharacterOffsetBegin
p120
V22
p121
sVPartOfSpeech
p122
VPRP$
p123
sVLemma
p124
Vhe
p125
saa(lp126
Vdog
p127
a(dp128
VNamedEntityTag
p129
g93
sVCharacterOffsetEnd
p130
V29
p131
sVCharacterOffsetBegin
p132
V26
p133
sVPartOfSpeech
p134
VNN
p135
sVLemma
p136
Vdog
p137
saa(lp138
Vand
p139
a(dp140
VNamedEntityTag
p141
g93
sVCharacterOffsetEnd
p142
V33
p143
sVCharacterOffsetBegin
p144
V30
p145
sVPartOfSpeech
p146
VCC
p147
sVLemma
p148
Vand
p149
saa(lp150
Vfound
p151
a(dp152
VNamedEntityTag
p153
g93
sVCharacterOffsetEnd
p154
V39
p155
sVCharacterOffsetBegin
p156
V34
p157
sVPartOfSpeech
p158
VVBN
p159
sVLemma
p160
Vfind
p161
saa(lp162
Vout
p163
a(dp164
VNamedEntityTag
p165
g93
sVCharacterOffsetEnd
p166
V43
p167
sVCharacterOffsetBegin
p168
V40
p169
sVPartOfSpeech
p170
VIN
p171
sVLemma
p172
Vout
p173
saa(lp174
Vit
p175
a(dp176
VNamedEntityTag
p177
g93
sVCharacterOffsetEnd
p178
V46
p179
sVCharacterOffsetBegin
p180
V44
p181
sVPartOfSpeech
p182
VPRP
p183
sVLemma
p184
Vit
p185
saa(lp186
Vweighs
p187
a(dp188
VNamedEntityTag
p189
g93
sVCharacterOffsetEnd
p190
V53
p191
sVCharacterOffsetBegin
p192
V47
p193
sVPartOfSpeech
p194
VVBZ
p195
sVLemma
p196
Vweigh
p197
saa(lp198
V74
p199
a(dp200
VNormalizedNamedEntityTag
p201
V74.0
p202
sVLemma
p203
V74
p204
sVCharacterOffsetEnd
p205
V56
p206
sVPartOfSpeech
p207
VCD
p208
sVCharacterOffsetBegin
p209
V54
p210
sVNamedEntityTag
p211
VNUMBER
p212
saa(lp213
Vkilograms
p214
a(dp215
VNamedEntityTag
p216
g93
sVCharacterOffsetEnd
p217
V66
p218
sVCharacterOffsetBegin
p219
V57
p220
sVPartOfSpeech
p221
VNNS
p222
sVLemma
p223
Vkilogram
p224
saa(lp225
V.
p226
a(dp227
VNamedEntityTag
p228
g93
sVCharacterOffsetEnd
p229
V68
p230
sVCharacterOffsetBegin
p231
V67
p232
sVPartOfSpeech
p233
g226
sVLemma
p234
g226
saasVindexeddependencies
p235
(lp236
(lp237
Vroot
p238
aVROOT-0
p239
aVmeasured-3
p240
aa(lp241
Vnsubj
p242
aVmeasured-3
p243
aVCooper-1
p244
aa(lp245
Vadvmod
p246
aVmeasured-3
p247
aVjust-2
p248
aa(lp249
Vposs
p250
aVdog-5
p251
aVhis-4
p252
aa(lp253
Vdobj
p254
aVmeasured-3
p255
aVdog-5
p256
aa(lp257
Vconj_and
p258
aVmeasured-3
p259
aVfound-7
p260
aa(lp261
Vnsubj
p262
aVweighs-10
p263
aVit-9
p264
aa(lp265
Vprepc_out
p266
aVfound-7
p267
aVweighs-10
p268
aa(lp269
Vnum
p270
aVkilograms-12
p271
aV74-11
p272
aa(lp273
Vdobj
p274
aVweighs-10
p275
aVkilograms-12
p276
aasa(dp277
Vparsetree
p278
V(ROOT (S (NP-TMP (NP (DT The) (JJ last) (NN time)) (SBAR (S (NP (PRP he)) (VP (VBD measured))))) (, ,) (NP (DT the) (NN dog)) (VP (VBD weighed) (NP (CD 40) (NNS kilograms))) (. .)))
p279
sVtext
p280
VThe last time he measured , the dog weighed 40 kilograms .
p281
sVdependencies
p282
(lp283
(lp284
Vroot
p285
aVROOT
p286
aVweighed
p287
aa(lp288
Vdet
p289
aVtime
p290
aVThe
p291
aa(lp292
Vamod
p293
aVtime
p294
aVlast
p295
aa(lp296
Vtmod
p297
aVweighed
p298
aVtime
p299
aa(lp300
Vnsubj
p301
aVmeasured
p302
aVhe
p303
aa(lp304
Vrcmod
p305
aVtime
p306
aVmeasured
p307
aa(lp308
Vdet
p309
aVdog
p310
aVthe
p311
aa(lp312
Vnsubj
p313
aVweighed
p314
aVdog
p315
aa(lp316
Vnum
p317
aVkilograms
p318
aV40
p319
aa(lp320
Vdobj
p321
aVweighed
p322
aVkilograms
p323
aasVwords
p324
(lp325
(lp326
VThe
p327
a(dp328
VNamedEntityTag
p329
g93
sVCharacterOffsetEnd
p330
V72
p331
sVCharacterOffsetBegin
p332
V69
p333
sVPartOfSpeech
p334
VDT
p335
sVLemma
p336
Vthe
p337
saa(lp338
Vlast
p339
a(dp340
VNamedEntityTag
p341
g93
sVCharacterOffsetEnd
p342
V77
p343
sVCharacterOffsetBegin
p344
V73
p345
sVPartOfSpeech
p346
VJJ
p347
sVLemma
p348
Vlast
p349
saa(lp350
Vtime
p351
a(dp352
VNamedEntityTag
p353
g93
sVCharacterOffsetEnd
p354
V82
p355
sVCharacterOffsetBegin
p356
V78
p357
sVPartOfSpeech
p358
VNN
p359
sVLemma
p360
Vtime
p361
saa(lp362
Vhe
p363
a(dp364
VNamedEntityTag
p365
g93
sVCharacterOffsetEnd
p366
V85
p367
sVCharacterOffsetBegin
p368
V83
p369
sVPartOfSpeech
p370
VPRP
p371
sVLemma
p372
Vhe
p373
saa(lp374
Vmeasured
p375
a(dp376
VNamedEntityTag
p377
g93
sVCharacterOffsetEnd
p378
V94
p379
sVCharacterOffsetBegin
p380
V86
p381
sVPartOfSpeech
p382
VVBD
p383
sVLemma
p384
Vmeasure
p385
saa(lp386
V,
p387
a(dp388
VNamedEntityTag
p389
g93
sVCharacterOffsetEnd
p390
V96
p391
sVCharacterOffsetBegin
p392
V95
p393
sVPartOfSpeech
p394
g387
sVLemma
p395
g387
saa(lp396
Vthe
p397
a(dp398
VNamedEntityTag
p399
g93
sVCharacterOffsetEnd
p400
V100
p401
sVCharacterOffsetBegin
p402
V97
p403
sVPartOfSpeech
p404
VDT
p405
sVLemma
p406
Vthe
p407
saa(lp408
Vdog
p409
a(dp410
VNamedEntityTag
p411
g93
sVCharacterOffsetEnd
p412
V104
p413
sVCharacterOffsetBegin
p414
V101
p415
sVPartOfSpeech
p416
VNN
p417
sVLemma
p418
Vdog
p419
saa(lp420
Vweighed
p421
a(dp422
VNamedEntityTag
p423
g93
sVCharacterOffsetEnd
p424
V112
p425
sVCharacterOffsetBegin
p426
V105
p427
sVPartOfSpeech
p428
VVBD
p429
sVLemma
p430
Vweigh
p431
saa(lp432
V40
p433
a(dp434
VNormalizedNamedEntityTag
p435
V40.0
p436
sVLemma
p437
V40
p438
sVCharacterOffsetEnd
p439
V115
p440
sVPartOfSpeech
p441
VCD
p442
sVCharacterOffsetBegin
p443
V113
p444
sVNamedEntityTag
p445
VNUMBER
p446
saa(lp447
Vkilograms
p448
a(dp449
VNamedEntityTag
p450
g93
sVCharacterOffsetEnd
p451
V125
p452
sVCharacterOffsetBegin
p453
V116
p454
sVPartOfSpeech
p455
VNNS
p456
sVLemma
p457
Vkilogram
p458
saa(lp459
g226
a(dp460
VNamedEntityTag
p461
g93
sVCharacterOffsetEnd
p462
V127
p463
sVCharacterOffsetBegin
p464
V126
p465
sVPartOfSpeech
p466
g226
sVLemma
p467
g226
saasVindexeddependencies
p468
(lp469
(lp470
Vroot
p471
aVROOT-0
p472
aVweighed-9
p473
aa(lp474
Vdet
p475
aVtime-3
p476
aVThe-1
p477
aa(lp478
Vamod
p479
aVtime-3
p480
aVlast-2
p481
aa(lp482
Vtmod
p483
aVweighed-9
p484
aVtime-3
p485
aa(lp486
Vnsubj
p487
aVmeasured-5
p488
aVhe-4
p489
aa(lp490
Vrcmod
p491
aVtime-3
p492
aVmeasured-5
p493
aa(lp494
Vdet
p495
aVdog-8
p496
aVthe-7
p497
aa(lp498
Vnsubj
p499
aVweighed-9
p500
aVdog-8
p501
aa(lp502
Vnum
p503
aVkilograms-11
p504
aV40-10
p505
aa(lp506
Vdobj
p507
aVweighed-9
p508
aVkilograms-11
p509
aasa(dp510
Vparsetree
p511
V(ROOT (SBARQ (WHNP (WHNP (WDT What) (NNS times)) (ADJP (JJR heavier))) (SQ (VBZ is) (NP (DT the) (NN dog)) (ADVP (RB now))) (. ?)))
p512
sVtext
p513
VWhat times heavier is the dog now ?
p514
sVdependencies
p515
(lp516
(lp517
Vroot
p518
aVROOT
p519
aVis
p520
aa(lp521
Vdet
p522
aVtimes
p523
aVWhat
p524
aa(lp525
Vdep
p526
aVis
p527
aVtimes
p528
aa(lp529
Vamod
p530
aVtimes
p531
aVheavier
p532
aa(lp533
Vdet
p534
aVdog
p535
aVthe
p536
aa(lp537
Vnsubj
p538
aVis
p539
aVdog
p540
aa(lp541
Vadvmod
p542
aVis
p543
aVnow
p544
aasVwords
p545
(lp546
(lp547
VWhat
p548
a(dp549
VNamedEntityTag
p550
g93
sVCharacterOffsetEnd
p551
V132
p552
sVCharacterOffsetBegin
p553
V128
p554
sVPartOfSpeech
p555
VWDT
p556
sVLemma
p557
Vwhat
p558
saa(lp559
Vtimes
p560
a(dp561
VNamedEntityTag
p562
g93
sVCharacterOffsetEnd
p563
V138
p564
sVCharacterOffsetBegin
p565
V133
p566
sVPartOfSpeech
p567
VNNS
p568
sVLemma
p569
Vtime
p570
saa(lp571
Vheavier
p572
a(dp573
VNamedEntityTag
p574
g93
sVCharacterOffsetEnd
p575
V146
p576
sVCharacterOffsetBegin
p577
V139
p578
sVPartOfSpeech
p579
VJJR
p580
sVLemma
p581
Vheavier
p582
saa(lp583
Vis
p584
a(dp585
VNamedEntityTag
p586
g93
sVCharacterOffsetEnd
p587
V149
p588
sVCharacterOffsetBegin
p589
V147
p590
sVPartOfSpeech
p591
VVBZ
p592
sVLemma
p593
Vbe
p594
saa(lp595
Vthe
p596
a(dp597
VNamedEntityTag
p598
g93
sVCharacterOffsetEnd
p599
V153
p600
sVCharacterOffsetBegin
p601
V150
p602
sVPartOfSpeech
p603
VDT
p604
sVLemma
p605
Vthe
p606
saa(lp607
Vdog
p608
a(dp609
VNamedEntityTag
p610
g93
sVCharacterOffsetEnd
p611
V157
p612
sVCharacterOffsetBegin
p613
V154
p614
sVPartOfSpeech
p615
VNN
p616
sVLemma
p617
Vdog
p618
saa(lp619
Vnow
p620
a(dp621
VNormalizedNamedEntityTag
p622
VPRESENT_REF
p623
sVTimex
p624
V<TIMEX3 tid="t1" type="DATE" value="PRESENT_REF">now</TIMEX3>
p625
sVLemma
p626
Vnow
p627
sVCharacterOffsetEnd
p628
V161
p629
sVPartOfSpeech
p630
VRB
p631
sVCharacterOffsetBegin
p632
V158
p633
sVNamedEntityTag
p634
VDATE
p635
saa(lp636
V?
p637
a(dp638
VNamedEntityTag
p639
g93
sVCharacterOffsetEnd
p640
V163
p641
sVCharacterOffsetBegin
p642
V162
p643
sVPartOfSpeech
p644
g226
sVLemma
p645
g637
saasVindexeddependencies
p646
(lp647
(lp648
Vroot
p649
aVROOT-0
p650
aVis-4
p651
aa(lp652
Vdet
p653
aVtimes-2
p654
aVWhat-1
p655
aa(lp656
Vdep
p657
aVis-4
p658
aVtimes-2
p659
aa(lp660
Vamod
p661
aVtimes-2
p662
aVheavier-3
p663
aa(lp664
Vdet
p665
aVdog-6
p666
aVthe-5
p667
aa(lp668
Vnsubj
p669
aVis-4
p670
aVdog-6
p671
aa(lp672
Vadvmod
p673
aVis-4
p674
aVnow-7
p675
aasas.