(dp0
Vcoref
p1
(lp2
(lp3
(lp4
(lp5
Vher
p6
aI0
aI3
aI3
aI4
aa(lp7
VGwen
p8
aI0
aI0
aI0
aI1
aaa(lp9
(lp10
Vshe
p11
aI1
aI1
aI1
aI2
aa(lp12
VGwen
p13
aI0
aI0
aI0
aI1
aaa(lp14
(lp15
Vshe
p16
aI1
aI19
aI19
aI20
aa(lp17
VGwen
p18
aI0
aI0
aI0
aI1
aaaa(lp19
(lp20
(lp21
Vit
p22
aI0
aI17
aI17
aI18
aa(lp23
Veach of the shelves
p24
aI0
aI8
aI8
aI12
aaaasVsentences
p25
(lp26
(dp27
Vparsetree
p28
V(ROOT (S (NP (NNP Gwen)) (VP (VBD was) (VP (VBG organizing) (NP (PRP$ her) (NN book) (NN case)) (S (VP (VBG making) (ADJP (JJ sure) (SBAR (S (NP (NP (DT each)) (PP (IN of) (NP (DT the) (NNS shelves)))) (VP (VBD had) (NP (NP (RB exactly) (CD 4) (NNS books)) (PP (IN on) (NP (PRP it)))))))))))) (. .)))
p29
sVtext
p30
VGwen was organizing her book case making sure each of the shelves had exactly 4 books on it .
p31
sVdependencies
p32
(lp33
(lp34
Vroot
p35
aVROOT
p36
aVorganizing
p37
aa(lp38
Vnsubj
p39
aVorganizing
p40
aVGwen
p41
aa(lp42
Vaux
p43
aVorganizing
p44
aVwas
p45
aa(lp46
Vposs
p47
aVcase
p48
aVher
p49
aa(lp50
Vnn
p51
aVcase
p52
aVbook
p53
aa(lp54
Vdobj
p55
aVorganizing
p56
aVcase
p57
aa(lp58
Vvmod
p59
aVorganizing
p60
aVmaking
p61
aa(lp62
Vacomp
p63
aVmaking
p64
aVsure
p65
aa(lp66
Vnsubj
p67
aVhad
p68
aVeach
p69
aa(lp70
Vdet
p71
aVshelves
p72
aVthe
p73
aa(lp74
Vprep_of
p75
aVeach
p76
aVshelves
p77
aa(lp78
Vccomp
p79
aVsure
p80
aVhad
p81
aa(lp82
Vadvmod
p83
aVbooks
p84
aVexactly
p85
aa(lp86
Vnum
p87
aVbooks
p88
aV4
p89
aa(lp90
Vdobj
p91
aVhad
p92
aVbooks
p93
aa(lp94
Vprep_on
p95
aVbooks
p96
aVit
p97
aasVwords
p98
(lp99
(lp100
VGwen
p101
a(dp102
VNamedEntityTag
p103
VPERSON
p104
sVCharacterOffsetEnd
p105
V5
p106
sVCharacterOffsetBegin
p107
V1
p108
sVPartOfSpeech
p109
VNNP
p110
sVLemma
p111
VGwen
p112
saa(lp113
Vwas
p114
a(dp115
VNamedEntityTag
p116
VO
p117
sVCharacterOffsetEnd
p118
V9
p119
sVCharacterOffsetBegin
p120
V6
p121
sVPartOfSpeech
p122
VVBD
p123
sVLemma
p124
Vbe
p125
saa(lp126
Vorganizing
p127
a(dp128
VNamedEntityTag
p129
g117
sVCharacterOffsetEnd
p130
V20
p131
sVCharacterOffsetBegin
p132
V10
p133
sVPartOfSpeech
p134
VVBG
p135
sVLemma
p136
Vorganize
p137
saa(lp138
Vher
p139
a(dp140
VNamedEntityTag
p141
g117
sVCharacterOffsetEnd
p142
V24
p143
sVCharacterOffsetBegin
p144
V21
p145
sVPartOfSpeech
p146
VPRP$
p147
sVLemma
p148
Vshe
p149
saa(lp150
Vbook
p151
a(dp152
VNamedEntityTag
p153
g117
sVCharacterOffsetEnd
p154
V29
p155
sVCharacterOffsetBegin
p156
V25
p157
sVPartOfSpeech
p158
VNN
p159
sVLemma
p160
Vbook
p161
saa(lp162
Vcase
p163
a(dp164
VNamedEntityTag
p165
g117
sVCharacterOffsetEnd
p166
V34
p167
sVCharacterOffsetBegin
p168
V30
p169
sVPartOfSpeech
p170
VNN
p171
sVLemma
p172
Vcase
p173
saa(lp174
Vmaking
p175
a(dp176
VNamedEntityTag
p177
g117
sVCharacterOffsetEnd
p178
V41
p179
sVCharacterOffsetBegin
p180
V35
p181
sVPartOfSpeech
p182
VVBG
p183
sVLemma
p184
Vmake
p185
saa(lp186
Vsure
p187
a(dp188
VNamedEntityTag
p189
g117
sVCharacterOffsetEnd
p190
V46
p191
sVCharacterOffsetBegin
p192
V42
p193
sVPartOfSpeech
p194
VJJ
p195
sVLemma
p196
Vsure
p197
saa(lp198
Veach
p199
a(dp200
VNamedEntityTag
p201
g117
sVCharacterOffsetEnd
p202
V51
p203
sVCharacterOffsetBegin
p204
V47
p205
sVPartOfSpeech
p206
VDT
p207
sVLemma
p208
Veach
p209
saa(lp210
Vof
p211
a(dp212
VNamedEntityTag
p213
g117
sVCharacterOffsetEnd
p214
V54
p215
sVCharacterOffsetBegin
p216
V52
p217
sVPartOfSpeech
p218
VIN
p219
sVLemma
p220
Vof
p221
saa(lp222
Vthe
p223
a(dp224
VNamedEntityTag
p225
g117
sVCharacterOffsetEnd
p226
V58
p227
sVCharacterOffsetBegin
p228
V55
p229
sVPartOfSpeech
p230
VDT
p231
sVLemma
p232
Vthe
p233
saa(lp234
Vshelves
p235
a(dp236
VNamedEntityTag
p237
g117
sVCharacterOffsetEnd
p238
V66
p239
sVCharacterOffsetBegin
p240
V59
p241
sVPartOfSpeech
p242
VNNS
p243
sVLemma
p244
Vshelf
p245
saa(lp246
Vhad
p247
a(dp248
VNamedEntityTag
p249
g117
sVCharacterOffsetEnd
p250
V70
p251
sVCharacterOffsetBegin
p252
V67
p253
sVPartOfSpeech
p254
VVBD
p255
sVLemma
p256
Vhave
p257
saa(lp258
Vexactly
p259
a(dp260
VNamedEntityTag
p261
g117
sVCharacterOffsetEnd
p262
V78
p263
sVCharacterOffsetBegin
p264
V71
p265
sVPartOfSpeech
p266
VRB
p267
sVLemma
p268
Vexactly
p269
saa(lp270
g89
a(dp271
VNormalizedNamedEntityTag
p272
V4.0
p273
sVLemma
p274
g89
sVCharacterOffsetEnd
p275
V80
p276
sVPartOfSpeech
p277
VCD
p278
sVCharacterOffsetBegin
p279
V79
p280
sVNamedEntityTag
p281
VNUMBER
p282
saa(lp283
Vbooks
p284
a(dp285
VNamedEntityTag
p286
g117
sVCharacterOffsetEnd
p287
V86
p288
sVCharacterOffsetBegin
p289
V81
p290
sVPartOfSpeech
p291
VNNS
p292
sVLemma
p293
Vbook
p294
saa(lp295
Von
p296
a(dp297
VNamedEntityTag
p298
g117
sVCharacterOffsetEnd
p299
V89
p300
sVCharacterOffsetBegin
p301
V87
p302
sVPartOfSpeech
p303
VIN
p304
sVLemma
p305
Von
p306
saa(lp307
Vit
p308
a(dp309
VNamedEntityTag
p310
g117
sVCharacterOffsetEnd
p311
V92
p312
sVCharacterOffsetBegin
p313
V90
p314
sVPartOfSpeech
p315
VPRP
p316
sVLemma
p317
Vit
p318
saa(lp319
V.
p320
a(dp321
VNamedEntityTag
p322
g117
sVCharacterOffsetEnd
p323
V94
p324
sVCharacterOffsetBegin
p325
V93
p326
sVPartOfSpeech
p327
g320
sVLemma
p328
g320
saasVindexeddependencies
p329
(lp330
(lp331
Vroot
p332
aVROOT-0
p333
aVorganizing-3
p334
aa(lp335
Vnsubj
p336
aVorganizing-3
p337
aVGwen-1
p338
aa(lp339
Vaux
p340
aVorganizing-3
p341
aVwas-2
p342
aa(lp343
Vposs
p344
aVcase-6
p345
aVher-4
p346
aa(lp347
Vnn
p348
aVcase-6
p349
aVbook-5
p350
aa(lp351
Vdobj
p352
aVorganizing-3
p353
aVcase-6
p354
aa(lp355
Vvmod
p356
aVorganizing-3
p357
aVmaking-7
p358
aa(lp359
Vacomp
p360
aVmaking-7
p361
aVsure-8
p362
aa(lp363
Vnsubj
p364
aVhad-13
p365
aVeach-9
p366
aa(lp367
Vdet
p368
aVshelves-12
p369
aVthe-11
p370
aa(lp371
Vprep_of
p372
aVeach-9
p373
aVshelves-12
p374
aa(lp375
Vccomp
p376
aVsure-8
p377
aVhad-13
p378
aa(lp379
Vadvmod
p380
aVbooks-16
p381
aVexactly-14
p382
aa(lp383
Vnum
p384
aVbooks-16
p385
aV4-15
p386
aa(lp387
Vdobj
p388
aVhad-13
p389
aVbooks-16
p390
aa(lp391
Vprep_on
p392
aVbooks-16
p393
aVit-18
p394
aasa(dp395
Vparsetree
p396
V(ROOT (SBARQ (SBAR (IN If) (S (NP (PRP she)) (VP (VBD had) (NP (NP (NP (CD 5) (NNS shelves)) (PP (IN of) (NP (NN mystery) (NNS books)))) (CC and) (NP (NP (CD 3) (NNS shelves)) (PP (IN of) (NP (NN picture) (NNS books)))))))) (, ,) (WHNP (WHADJP (WRB how) (JJ many)) (NNS books)) (SQ (VBD did) (NP (PRP she)) (VP (VB have) (NP (NN total)))) (. ?)))
p397
sVtext
p398
VIf she had 5 shelves of mystery books and 3 shelves of picture books , how many books did she have total ?
p399
sVdependencies
p400
(lp401
(lp402
Vroot
p403
aVROOT
p404
aVhave
p405
aa(lp406
Vmark
p407
aVhad
p408
aVIf
p409
aa(lp410
Vnsubj
p411
aVhad
p412
aVshe
p413
aa(lp414
Vadvcl
p415
aVhave
p416
aVhad
p417
aa(lp418
Vnum
p419
aVshelves
p420
ag106
aa(lp421
Vdobj
p422
aVhad
p423
aVshelves
p424
aa(lp425
Vnn
p426
aVbooks
p427
aVmystery
p428
aa(lp429
Vprep_of
p430
aVshelves
p431
aVbooks
p432
aa(lp433
Vnum
p434
aVshelves
p435
aV3
p436
aa(lp437
Vconj_and
p438
aVshelves
p439
aVshelves
p440
aa(lp441
Vnn
p442
aVbooks
p443
aVpicture
p444
aa(lp445
Vprep_of
p446
aVshelves
p447
aVbooks
p448
aa(lp449
Vadvmod
p450
aVmany
p451
aVhow
p452
aa(lp453
Vamod
p454
aVbooks
p455
aVmany
p456
aa(lp457
Vdep
p458
aVhave
p459
aVbooks
p460
aa(lp461
Vaux
p462
aVhave
p463
aVdid
p464
aa(lp465
Vnsubj
p466
aVhave
p467
aVshe
p468
aa(lp469
Vdobj
p470
aVhave
p471
aVtotal
p472
aasVwords
p473
(lp474
(lp475
VIf
p476
a(dp477
VNamedEntityTag
p478
g117
sVCharacterOffsetEnd
p479
V97
p480
sVCharacterOffsetBegin
p481
V95
p482
sVPartOfSpeech
p483
VIN
p484
sVLemma
p485
Vif
p486
saa(lp487
Vshe
p488
a(dp489
VNamedEntityTag
p490
g117
sVCharacterOffsetEnd
p491
V101
p492
sVCharacterOffsetBegin
p493
V98
p494
sVPartOfSpeech
p495
VPRP
p496
sVLemma
p497
Vshe
p498
saa(lp499
Vhad
p500
a(dp501
VNamedEntityTag
p502
g117
sVCharacterOffsetEnd
p503
V105
p504
sVCharacterOffsetBegin
p505
V102
p506
sVPartOfSpeech
p507
VVBD
p508
sVLemma
p509
Vhave
p510
saa(lp511
g106
a(dp512
VNormalizedNamedEntityTag
p513
V5.0
p514
sVLemma
p515
g106
sVCharacterOffsetEnd
p516
V107
p517
sVPartOfSpeech
p518
VCD
p519
sVCharacterOffsetBegin
p520
V106
p521
sVNamedEntityTag
p522
VNUMBER
p523
saa(lp524
Vshelves
p525
a(dp526
VNamedEntityTag
p527
g117
sVCharacterOffsetEnd
p528
V115
p529
sVCharacterOffsetBegin
p530
V108
p531
sVPartOfSpeech
p532
VNNS
p533
sVLemma
p534
Vshelf
p535
saa(lp536
Vof
p537
a(dp538
VNamedEntityTag
p539
g117
sVCharacterOffsetEnd
p540
V118
p541
sVCharacterOffsetBegin
p542
V116
p543
sVPartOfSpeech
p544
VIN
p545
sVLemma
p546
Vof
p547
saa(lp548
Vmystery
p549
a(dp550
VNamedEntityTag
p551
g117
sVCharacterOffsetEnd
p552
V126
p553
sVCharacterOffsetBegin
p554
V119
p555
sVPartOfSpeech
p556
VNN
p557
sVLemma
p558
Vmystery
p559
saa(lp560
Vbooks
p561
a(dp562
VNamedEntityTag
p563
g117
sVCharacterOffsetEnd
p564
V132
p565
sVCharacterOffsetBegin
p566
V127
p567
sVPartOfSpeech
p568
VNNS
p569
sVLemma
p570
Vbook
p571
saa(lp572
Vand
p573
a(dp574
VNamedEntityTag
p575
g117
sVCharacterOffsetEnd
p576
V136
p577
sVCharacterOffsetBegin
p578
V133
p579
sVPartOfSpeech
p580
VCC
p581
sVLemma
p582
Vand
p583
saa(lp584
g436
a(dp585
VNormalizedNamedEntityTag
p586
V3.0
p587
sVLemma
p588
g436
sVCharacterOffsetEnd
p589
V138
p590
sVPartOfSpeech
p591
VCD
p592
sVCharacterOffsetBegin
p593
V137
p594
sVNamedEntityTag
p595
VNUMBER
p596
saa(lp597
Vshelves
p598
a(dp599
VNamedEntityTag
p600
g117
sVCharacterOffsetEnd
p601
V146
p602
sVCharacterOffsetBegin
p603
V139
p604
sVPartOfSpeech
p605
VNNS
p606
sVLemma
p607
Vshelf
p608
saa(lp609
Vof
p610
a(dp611
VNamedEntityTag
p612
g117
sVCharacterOffsetEnd
p613
V149
p614
sVCharacterOffsetBegin
p615
V147
p616
sVPartOfSpeech
p617
VIN
p618
sVLemma
p619
Vof
p620
saa(lp621
Vpicture
p622
a(dp623
VNamedEntityTag
p624
g117
sVCharacterOffsetEnd
p625
V157
p626
sVCharacterOffsetBegin
p627
V150
p628
sVPartOfSpeech
p629
VNN
p630
sVLemma
p631
Vpicture
p632
saa(lp633
Vbooks
p634
a(dp635
VNamedEntityTag
p636
g117
sVCharacterOffsetEnd
p637
V163
p638
sVCharacterOffsetBegin
p639
V158
p640
sVPartOfSpeech
p641
VNNS
p642
sVLemma
p643
Vbook
p644
saa(lp645
V,
p646
a(dp647
VNamedEntityTag
p648
g117
sVCharacterOffsetEnd
p649
V165
p650
sVCharacterOffsetBegin
p651
V164
p652
sVPartOfSpeech
p653
g646
sVLemma
p654
g646
saa(lp655
Vhow
p656
a(dp657
VNamedEntityTag
p658
g117
sVCharacterOffsetEnd
p659
V169
p660
sVCharacterOffsetBegin
p661
V166
p662
sVPartOfSpeech
p663
VWRB
p664
sVLemma
p665
Vhow
p666
saa(lp667
Vmany
p668
a(dp669
VNamedEntityTag
p670
g117
sVCharacterOffsetEnd
p671
V174
p672
sVCharacterOffsetBegin
p673
V170
p674
sVPartOfSpeech
p675
VJJ
p676
sVLemma
p677
Vmany
p678
saa(lp679
Vbooks
p680
a(dp681
VNamedEntityTag
p682
g117
sVCharacterOffsetEnd
p683
V180
p684
sVCharacterOffsetBegin
p685
V175
p686
sVPartOfSpeech
p687
VNNS
p688
sVLemma
p689
Vbook
p690
saa(lp691
Vdid
p692
a(dp693
VNamedEntityTag
p694
g117
sVCharacterOffsetEnd
p695
V184
p696
sVCharacterOffsetBegin
p697
V181
p698
sVPartOfSpeech
p699
VVBD
p700
sVLemma
p701
Vdo
p702
saa(lp703
Vshe
p704
a(dp705
VNamedEntityTag
p706
g117
sVCharacterOffsetEnd
p707
V188
p708
sVCharacterOffsetBegin
p709
V185
p710
sVPartOfSpeech
p711
VPRP
p712
sVLemma
p713
Vshe
p714
saa(lp715
Vhave
p716
a(dp717
VNamedEntityTag
p718
g117
sVCharacterOffsetEnd
p719
V193
p720
sVCharacterOffsetBegin
p721
V189
p722
sVPartOfSpeech
p723
VVB
p724
sVLemma
p725
Vhave
p726
saa(lp727
Vtotal
p728
a(dp729
VNamedEntityTag
p730
g117
sVCharacterOffsetEnd
p731
V199
p732
sVCharacterOffsetBegin
p733
V194
p734
sVPartOfSpeech
p735
VNN
p736
sVLemma
p737
Vtotal
p738
saa(lp739
V?
p740
a(dp741
VNamedEntityTag
p742
g117
sVCharacterOffsetEnd
p743
V201
p744
sVCharacterOffsetBegin
p745
V200
p746
sVPartOfSpeech
p747
g320
sVLemma
p748
g740
saasVindexeddependencies
p749
(lp750
(lp751
Vroot
p752
aVROOT-0
p753
aVhave-21
p754
aa(lp755
Vmark
p756
aVhad-3
p757
aVIf-1
p758
aa(lp759
Vnsubj
p760
aVhad-3
p761
aVshe-2
p762
aa(lp763
Vadvcl
p764
aVhave-21
p765
aVhad-3
p766
aa(lp767
Vnum
p768
aVshelves-5
p769
aV5-4
p770
aa(lp771
Vdobj
p772
aVhad-3
p773
aVshelves-5
p774
aa(lp775
Vnn
p776
aVbooks-8
p777
aVmystery-7
p778
aa(lp779
Vprep_of
p780
aVshelves-5
p781
aVbooks-8
p782
aa(lp783
Vnum
p784
aVshelves-11
p785
aV3-10
p786
aa(lp787
Vconj_and
p788
aVshelves-5
p789
aVshelves-11
p790
aa(lp791
Vnn
p792
aVbooks-14
p793
aVpicture-13
p794
aa(lp795
Vprep_of
p796
aVshelves-11
p797
aVbooks-14
p798
aa(lp799
Vadvmod
p800
aVmany-17
p801
aVhow-16
p802
aa(lp803
Vamod
p804
aVbooks-18
p805
aVmany-17
p806
aa(lp807
Vdep
p808
aVhave-21
p809
aVbooks-18
p810
aa(lp811
Vaux
p812
aVhave-21
p813
aVdid-19
p814
aa(lp815
Vnsubj
p816
aVhave-21
p817
aVshe-20
p818
aa(lp819
Vdobj
p820
aVhave-21
p821
aVtotal-22
p822
aasas.