(dp0
Vcoref
p1
(lp2
(lp3
(lp4
(lp5
VHe
p6
aI1
aI0
aI0
aI1
aa(lp7
VJonathan
p8
aI0
aI0
aI0
aI1
aaa(lp9
(lp10
Vhis
p11
aI1
aI6
aI6
aI7
aa(lp12
VJonathan
p13
aI0
aI0
aI0
aI1
aaa(lp14
(lp15
VJonathan
p16
aI2
aI5
aI5
aI6
aa(lp17
VJonathan
p18
aI0
aI0
aI0
aI1
aaaasVsentences
p19
(lp20
(dp21
Vparsetree
p22
V(ROOT (S (NP (NNP Jonathan)) (VP (VBZ wants) (S (VP (TO to) (VP (VB buy) (NP (NP (NP (DT a) (NN dictionary)) (SBAR (WHNP (WDT that)) (S (VP (VBZ costs) (NP ($ $) (CD 11)))))) (, ,) (NP (NP (DT a) (NN dinosaur) (NN book)) (SBAR (WHNP (WDT that)) (S (VP (VBZ costs) (NP ($ $) (CD 19)))))) (, ,) (CC and) (NP (NP (NP (DT a) (NNS children) (POS 's)) (NN cookbook)) (SBAR (IN that) (FRAG (NP (NP (NNS costs)) (ADJP ($ $) (CD 7))))))))))) (. .)))
p23
sVtext
p24
VJonathan wants to buy a dictionary that costs $11 , a dinosaur book that costs $19 , and a children's cookbook that costs $7 .
p25
sVdependencies
p26
(lp27
(lp28
Vroot
p29
aVROOT
p30
aVwants
p31
aa(lp32
Vnsubj
p33
aVwants
p34
aVJonathan
p35
aa(lp36
Vaux
p37
aVbuy
p38
aVto
p39
aa(lp40
Vxcomp
p41
aVwants
p42
aVbuy
p43
aa(lp44
Vdet
p45
aVdictionary
p46
aVa
p47
aa(lp48
Vdobj
p49
aVbuy
p50
aVdictionary
p51
aa(lp52
Vnsubj
p53
aVcosts
p54
aVthat
p55
aa(lp56
Vrcmod
p57
aVdictionary
p58
aVcosts
p59
aa(lp60
Vdobj
p61
aVcosts
p62
aV$
p63
aa(lp64
Vnum
p65
ag63
aV11
p66
aa(lp67
Vdet
p68
aVbook
p69
ag47
aa(lp70
Vnn
p71
aVbook
p72
aVdinosaur
p73
aa(lp74
Vconj_and
p75
aVdictionary
p76
aVbook
p77
aa(lp78
Vnsubj
p79
aVcosts
p80
aVthat
p81
aa(lp82
Vrcmod
p83
aVbook
p84
aVcosts
p85
aa(lp86
Vdobj
p87
aVcosts
p88
ag63
aa(lp89
Vnum
p90
ag63
aV19
p91
aa(lp92
Vdet
p93
aVchildren
p94
ag47
aa(lp95
Vposs
p96
aVcookbook
p97
aVchildren
p98
aa(lp99
Vconj_and
p100
aVdictionary
p101
aVcookbook
p102
aa(lp103
Vmark
p104
aVcosts
p105
aVthat
p106
aa(lp107
Vdep
p108
aVcookbook
p109
aVcosts
p110
aa(lp111
Vamod
p112
aVcosts
p113
ag63
aa(lp114
Vnumber
p115
ag63
aV7
p116
aasVwords
p117
(lp118
(lp119
VJonathan
p120
a(dp121
VNamedEntityTag
p122
VPERSON
p123
sVCharacterOffsetEnd
p124
V9
p125
sVCharacterOffsetBegin
p126
V1
p127
sVPartOfSpeech
p128
VNNP
p129
sVLemma
p130
VJonathan
p131
saa(lp132
Vwants
p133
a(dp134
VNamedEntityTag
p135
VO
p136
sVCharacterOffsetEnd
p137
V15
p138
sVCharacterOffsetBegin
p139
V10
p140
sVPartOfSpeech
p141
VVBZ
p142
sVLemma
p143
Vwant
p144
saa(lp145
Vto
p146
a(dp147
VNamedEntityTag
p148
g136
sVCharacterOffsetEnd
p149
V18
p150
sVCharacterOffsetBegin
p151
V16
p152
sVPartOfSpeech
p153
VTO
p154
sVLemma
p155
Vto
p156
saa(lp157
Vbuy
p158
a(dp159
VNamedEntityTag
p160
g136
sVCharacterOffsetEnd
p161
V22
p162
sVCharacterOffsetBegin
p163
V19
p164
sVPartOfSpeech
p165
VVB
p166
sVLemma
p167
Vbuy
p168
saa(lp169
g47
a(dp170
VNamedEntityTag
p171
g136
sVCharacterOffsetEnd
p172
V24
p173
sVCharacterOffsetBegin
p174
V23
p175
sVPartOfSpeech
p176
VDT
p177
sVLemma
p178
g47
saa(lp179
Vdictionary
p180
a(dp181
VNamedEntityTag
p182
g136
sVCharacterOffsetEnd
p183
V35
p184
sVCharacterOffsetBegin
p185
V25
p186
sVPartOfSpeech
p187
VNN
p188
sVLemma
p189
Vdictionary
p190
saa(lp191
Vthat
p192
a(dp193
VNamedEntityTag
p194
g136
sVCharacterOffsetEnd
p195
V40
p196
sVCharacterOffsetBegin
p197
V36
p198
sVPartOfSpeech
p199
VWDT
p200
sVLemma
p201
Vthat
p202
saa(lp203
Vcosts
p204
a(dp205
VNamedEntityTag
p206
g136
sVCharacterOffsetEnd
p207
V46
p208
sVCharacterOffsetBegin
p209
V41
p210
sVPartOfSpeech
p211
VVBZ
p212
sVLemma
p213
Vcost
p214
saa(lp215
g63
a(dp216
VNormalizedNamedEntityTag
p217
V$11.0
p218
sVLemma
p219
g63
sVCharacterOffsetEnd
p220
V48
p221
sVPartOfSpeech
p222
g63
sVCharacterOffsetBegin
p223
V47
p224
sVNamedEntityTag
p225
VMONEY
p226
saa(lp227
V11
p228
a(dp229
VNormalizedNamedEntityTag
p230
V$11.0
p231
sVLemma
p232
V11
p233
sVCharacterOffsetEnd
p234
V50
p235
sVPartOfSpeech
p236
VCD
p237
sVCharacterOffsetBegin
p238
V48
p239
sVNamedEntityTag
p240
VMONEY
p241
saa(lp242
V,
p243
a(dp244
VNamedEntityTag
p245
g136
sVCharacterOffsetEnd
p246
V52
p247
sVCharacterOffsetBegin
p248
V51
p249
sVPartOfSpeech
p250
g243
sVLemma
p251
g243
saa(lp252
g47
a(dp253
VNamedEntityTag
p254
g136
sVCharacterOffsetEnd
p255
V54
p256
sVCharacterOffsetBegin
p257
V53
p258
sVPartOfSpeech
p259
VDT
p260
sVLemma
p261
g47
saa(lp262
Vdinosaur
p263
a(dp264
VNamedEntityTag
p265
g136
sVCharacterOffsetEnd
p266
V63
p267
sVCharacterOffsetBegin
p268
V55
p269
sVPartOfSpeech
p270
VNN
p271
sVLemma
p272
Vdinosaur
p273
saa(lp274
Vbook
p275
a(dp276
VNamedEntityTag
p277
g136
sVCharacterOffsetEnd
p278
V68
p279
sVCharacterOffsetBegin
p280
V64
p281
sVPartOfSpeech
p282
VNN
p283
sVLemma
p284
Vbook
p285
saa(lp286
Vthat
p287
a(dp288
VNamedEntityTag
p289
g136
sVCharacterOffsetEnd
p290
V73
p291
sVCharacterOffsetBegin
p292
V69
p293
sVPartOfSpeech
p294
VWDT
p295
sVLemma
p296
Vthat
p297
saa(lp298
Vcosts
p299
a(dp300
VNamedEntityTag
p301
g136
sVCharacterOffsetEnd
p302
V79
p303
sVCharacterOffsetBegin
p304
V74
p305
sVPartOfSpeech
p306
VVBZ
p307
sVLemma
p308
Vcost
p309
saa(lp310
g63
a(dp311
VNormalizedNamedEntityTag
p312
V$19.0
p313
sVLemma
p314
g63
sVCharacterOffsetEnd
p315
V81
p316
sVPartOfSpeech
p317
g63
sVCharacterOffsetBegin
p318
V80
p319
sVNamedEntityTag
p320
VMONEY
p321
saa(lp322
V19
p323
a(dp324
VNormalizedNamedEntityTag
p325
V$19.0
p326
sVLemma
p327
V19
p328
sVCharacterOffsetEnd
p329
V83
p330
sVPartOfSpeech
p331
VCD
p332
sVCharacterOffsetBegin
p333
V81
p334
sVNamedEntityTag
p335
VMONEY
p336
saa(lp337
g243
a(dp338
VNamedEntityTag
p339
g136
sVCharacterOffsetEnd
p340
V85
p341
sVCharacterOffsetBegin
p342
V84
p343
sVPartOfSpeech
p344
g243
sVLemma
p345
g243
saa(lp346
Vand
p347
a(dp348
VNamedEntityTag
p349
g136
sVCharacterOffsetEnd
p350
V89
p351
sVCharacterOffsetBegin
p352
V86
p353
sVPartOfSpeech
p354
VCC
p355
sVLemma
p356
Vand
p357
saa(lp358
g47
a(dp359
VNamedEntityTag
p360
g136
sVCharacterOffsetEnd
p361
V91
p362
sVCharacterOffsetBegin
p363
V90
p364
sVPartOfSpeech
p365
VDT
p366
sVLemma
p367
g47
saa(lp368
Vchildren
p369
a(dp370
VNamedEntityTag
p371
g136
sVCharacterOffsetEnd
p372
V100
p373
sVCharacterOffsetBegin
p374
V92
p375
sVPartOfSpeech
p376
VNNS
p377
sVLemma
p378
Vchild
p379
saa(lp380
V's
p381
a(dp382
VNamedEntityTag
p383
g136
sVCharacterOffsetEnd
p384
V102
p385
sVCharacterOffsetBegin
p386
V100
p387
sVPartOfSpeech
p388
VPOS
p389
sVLemma
p390
V's
p391
saa(lp392
Vcookbook
p393
a(dp394
VNamedEntityTag
p395
g136
sVCharacterOffsetEnd
p396
V111
p397
sVCharacterOffsetBegin
p398
V103
p399
sVPartOfSpeech
p400
VNN
p401
sVLemma
p402
Vcookbook
p403
saa(lp404
Vthat
p405
a(dp406
VNamedEntityTag
p407
g136
sVCharacterOffsetEnd
p408
V116
p409
sVCharacterOffsetBegin
p410
V112
p411
sVPartOfSpeech
p412
VIN
p413
sVLemma
p414
Vthat
p415
saa(lp416
Vcosts
p417
a(dp418
VNamedEntityTag
p419
g136
sVCharacterOffsetEnd
p420
V122
p421
sVCharacterOffsetBegin
p422
V117
p423
sVPartOfSpeech
p424
VNNS
p425
sVLemma
p426
Vcost
p427
saa(lp428
g63
a(dp429
VNormalizedNamedEntityTag
p430
V$7.0
p431
sVLemma
p432
g63
sVCharacterOffsetEnd
p433
V124
p434
sVPartOfSpeech
p435
g63
sVCharacterOffsetBegin
p436
V123
p437
sVNamedEntityTag
p438
VMONEY
p439
saa(lp440
g116
a(dp441
VNormalizedNamedEntityTag
p442
V$7.0
p443
sVLemma
p444
g116
sVCharacterOffsetEnd
p445
V125
p446
sVPartOfSpeech
p447
VCD
p448
sVCharacterOffsetBegin
p449
V124
p450
sVNamedEntityTag
p451
VMONEY
p452
saa(lp453
V.
p454
a(dp455
VNamedEntityTag
p456
g136
sVCharacterOffsetEnd
p457
V127
p458
sVCharacterOffsetBegin
p459
V126
p460
sVPartOfSpeech
p461
g454
sVLemma
p462
g454
saasVindexeddependencies
p463
(lp464
(lp465
Vroot
p466
aVROOT-0
p467
aVwants-2
p468
aa(lp469
Vnsubj
p470
aVwants-2
p471
aVJonathan-1
p472
aa(lp473
Vaux
p474
aVbuy-4
p475
aVto-3
p476
aa(lp477
Vxcomp
p478
aVwants-2
p479
aVbuy-4
p480
aa(lp481
Vdet
p482
aVdictionary-6
p483
aVa-5
p484
aa(lp485
Vdobj
p486
aVbuy-4
p487
aVdictionary-6
p488
aa(lp489
Vnsubj
p490
aVcosts-8
p491
aVthat-7
p492
aa(lp493
Vrcmod
p494
aVdictionary-6
p495
aVcosts-8
p496
aa(lp497
Vdobj
p498
aVcosts-8
p499
aV$-9
p500
aa(lp501
Vnum
p502
aV$-9
p503
aV11-10
p504
aa(lp505
Vdet
p506
aVbook-14
p507
aVa-12
p508
aa(lp509
Vnn
p510
aVbook-14
p511
aVdinosaur-13
p512
aa(lp513
Vconj_and
p514
aVdictionary-6
p515
aVbook-14
p516
aa(lp517
Vnsubj
p518
aVcosts-16
p519
aVthat-15
p520
aa(lp521
Vrcmod
p522
aVbook-14
p523
aVcosts-16
p524
aa(lp525
Vdobj
p526
aVcosts-16
p527
aV$-17
p528
aa(lp529
Vnum
p530
aV$-17
p531
aV19-18
p532
aa(lp533
Vdet
p534
aVchildren-22
p535
aVa-21
p536
aa(lp537
Vposs
p538
aVcookbook-24
p539
aVchildren-22
p540
aa(lp541
Vconj_and
p542
aVdictionary-6
p543
aVcookbook-24
p544
aa(lp545
Vmark
p546
aVcosts-26
p547
aVthat-25
p548
aa(lp549
Vdep
p550
aVcookbook-24
p551
aVcosts-26
p552
aa(lp553
Vamod
p554
aVcosts-26
p555
aV$-27
p556
aa(lp557
Vnumber
p558
aV$-27
p559
aV7-28
p560
aasa(dp561
Vparsetree
p562
V(ROOT (S (NP (PRP He)) (VP (VBZ has) (VP (VBN saved) (NP ($ $) (CD 8)) (PP (IN from) (NP (PRP$ his) (NN allowance))))) (. .)))
p563
sVtext
p564
VHe has saved $8 from his allowance .
p565
sVdependencies
p566
(lp567
(lp568
Vroot
p569
aVROOT
p570
aVsaved
p571
aa(lp572
Vnsubj
p573
aVsaved
p574
aVHe
p575
aa(lp576
Vaux
p577
aVsaved
p578
aVhas
p579
aa(lp580
Vdobj
p581
aVsaved
p582
ag63
aa(lp583
Vnum
p584
ag63
aV8
p585
aa(lp586
Vposs
p587
aVallowance
p588
aVhis
p589
aa(lp590
Vprep_from
p591
aVsaved
p592
aVallowance
p593
aasVwords
p594
(lp595
(lp596
VHe
p597
a(dp598
VNamedEntityTag
p599
g136
sVCharacterOffsetEnd
p600
V130
p601
sVCharacterOffsetBegin
p602
V128
p603
sVPartOfSpeech
p604
VPRP
p605
sVLemma
p606
Vhe
p607
saa(lp608
Vhas
p609
a(dp610
VNamedEntityTag
p611
g136
sVCharacterOffsetEnd
p612
V134
p613
sVCharacterOffsetBegin
p614
V131
p615
sVPartOfSpeech
p616
VVBZ
p617
sVLemma
p618
Vhave
p619
saa(lp620
Vsaved
p621
a(dp622
VNamedEntityTag
p623
g136
sVCharacterOffsetEnd
p624
V140
p625
sVCharacterOffsetBegin
p626
V135
p627
sVPartOfSpeech
p628
VVBN
p629
sVLemma
p630
Vsave
p631
saa(lp632
g63
a(dp633
VNormalizedNamedEntityTag
p634
V$8.0
p635
sVLemma
p636
g63
sVCharacterOffsetEnd
p637
V142
p638
sVPartOfSpeech
p639
g63
sVCharacterOffsetBegin
p640
V141
p641
sVNamedEntityTag
p642
VMONEY
p643
saa(lp644
g585
a(dp645
VNormalizedNamedEntityTag
p646
V$8.0
p647
sVLemma
p648
g585
sVCharacterOffsetEnd
p649
V143
p650
sVPartOfSpeech
p651
VCD
p652
sVCharacterOffsetBegin
p653
V142
p654
sVNamedEntityTag
p655
VMONEY
p656
saa(lp657
Vfrom
p658
a(dp659
VNamedEntityTag
p660
g136
sVCharacterOffsetEnd
p661
V148
p662
sVCharacterOffsetBegin
p663
V144
p664
sVPartOfSpeech
p665
VIN
p666
sVLemma
p667
Vfrom
p668
saa(lp669
Vhis
p670
a(dp671
VNamedEntityTag
p672
g136
sVCharacterOffsetEnd
p673
V152
p674
sVCharacterOffsetBegin
p675
V149
p676
sVPartOfSpeech
p677
VPRP$
p678
sVLemma
p679
Vhe
p680
saa(lp681
Vallowance
p682
a(dp683
VNamedEntityTag
p684
g136
sVCharacterOffsetEnd
p685
V162
p686
sVCharacterOffsetBegin
p687
V153
p688
sVPartOfSpeech
p689
VNN
p690
sVLemma
p691
Vallowance
p692
saa(lp693
g454
a(dp694
VNamedEntityTag
p695
g136
sVCharacterOffsetEnd
p696
V164
p697
sVCharacterOffsetBegin
p698
V163
p699
sVPartOfSpeech
p700
g454
sVLemma
p701
g454
saasVindexeddependencies
p702
(lp703
(lp704
Vroot
p705
aVROOT-0
p706
aVsaved-3
p707
aa(lp708
Vnsubj
p709
aVsaved-3
p710
aVHe-1
p711
aa(lp712
Vaux
p713
aVsaved-3
p714
aVhas-2
p715
aa(lp716
Vdobj
p717
aVsaved-3
p718
aV$-4
p719
aa(lp720
Vnum
p721
aV$-4
p722
aV8-5
p723
aa(lp724
Vposs
p725
aVallowance-8
p726
aVhis-7
p727
aa(lp728
Vprep_from
p729
aVsaved-3
p730
aVallowance-8
p731
aasa(dp732
Vparsetree
p733
V(ROOT (SBARQ (WHNP (WHADJP (WHADJP (WRB How) (RB much)) (JJR more)) (NN money)) (SQ (VBZ does) (NP (NNP Jonathan)) (VP (VB need) (S (VP (TO to) (VP (VB buy) (NP (DT all) (CD three) (NNS books))))))) (. ?)))
p734
sVtext
p735
VHow much more money does Jonathan need to buy all three books ?
p736
sVdependencies
p737
(lp738
(lp739
Vroot
p740
aVROOT
p741
aVneed
p742
aa(lp743
Vadvmod
p744
aVmuch
p745
aVHow
p746
aa(lp747
Vdep
p748
aVmore
p749
aVmuch
p750
aa(lp751
Vamod
p752
aVmoney
p753
aVmore
p754
aa(lp755
Vdep
p756
aVneed
p757
aVmoney
p758
aa(lp759
Vaux
p760
aVneed
p761
aVdoes
p762
aa(lp763
Vnsubj
p764
aVneed
p765
aVJonathan
p766
aa(lp767
Vaux
p768
aVbuy
p769
aVto
p770
aa(lp771
Vxcomp
p772
aVneed
p773
aVbuy
p774
aa(lp775
Vdet
p776
aVbooks
p777
aVall
p778
aa(lp779
Vnum
p780
aVbooks
p781
aVthree
p782
aa(lp783
Vdobj
p784
aVbuy
p785
aVbooks
p786
aasVwords
p787
(lp788
(lp789
VHow
p790
a(dp791
VNamedEntityTag
p792
g136
sVCharacterOffsetEnd
p793
V168
p794
sVCharacterOffsetBegin
p795
V165
p796
sVPartOfSpeech
p797
VWRB
p798
sVLemma
p799
Vhow
p800
saa(lp801
Vmuch
p802
a(dp803
VNamedEntityTag
p804
g136
sVCharacterOffsetEnd
p805
V173
p806
sVCharacterOffsetBegin
p807
V169
p808
sVPartOfSpeech
p809
VRB
p810
sVLemma
p811
Vmuch
p812
saa(lp813
Vmore
p814
a(dp815
VNamedEntityTag
p816
g136
sVCharacterOffsetEnd
p817
V178
p818
sVCharacterOffsetBegin
p819
V174
p820
sVPartOfSpeech
p821
VJJR
p822
sVLemma
p823
Vmore
p824
saa(lp825
Vmoney
p826
a(dp827
VNamedEntityTag
p828
g136
sVCharacterOffsetEnd
p829
V184
p830
sVCharacterOffsetBegin
p831
V179
p832
sVPartOfSpeech
p833
VNN
p834
sVLemma
p835
Vmoney
p836
saa(lp837
Vdoes
p838
a(dp839
VNamedEntityTag
p840
g136
sVCharacterOffsetEnd
p841
V189
p842
sVCharacterOffsetBegin
p843
V185
p844
sVPartOfSpeech
p845
VVBZ
p846
sVLemma
p847
Vdo
p848
saa(lp849
VJonathan
p850
a(dp851
VNamedEntityTag
p852
VPERSON
p853
sVCharacterOffsetEnd
p854
V198
p855
sVCharacterOffsetBegin
p856
V190
p857
sVPartOfSpeech
p858
VNNP
p859
sVLemma
p860
VJonathan
p861
saa(lp862
Vneed
p863
a(dp864
VNamedEntityTag
p865
g136
sVCharacterOffsetEnd
p866
V203
p867
sVCharacterOffsetBegin
p868
V199
p869
sVPartOfSpeech
p870
VVB
p871
sVLemma
p872
Vneed
p873
saa(lp874
Vto
p875
a(dp876
VNamedEntityTag
p877
g136
sVCharacterOffsetEnd
p878
V206
p879
sVCharacterOffsetBegin
p880
V204
p881
sVPartOfSpeech
p882
VTO
p883
sVLemma
p884
Vto
p885
saa(lp886
Vbuy
p887
a(dp888
VNamedEntityTag
p889
g136
sVCharacterOffsetEnd
p890
V210
p891
sVCharacterOffsetBegin
p892
V207
p893
sVPartOfSpeech
p894
VVB
p895
sVLemma
p896
Vbuy
p897
saa(lp898
Vall
p899
a(dp900
VNamedEntityTag
p901
g136
sVCharacterOffsetEnd
p902
V214
p903
sVCharacterOffsetBegin
p904
V211
p905
sVPartOfSpeech
p906
VDT
p907
sVLemma
p908
Vall
p909
saa(lp910
Vthree
p911
a(dp912
VNormalizedNamedEntityTag
p913
V3.0
p914
sVLemma
p915
Vthree
p916
sVCharacterOffsetEnd
p917
V220
p918
sVPartOfSpeech
p919
VCD
p920
sVCharacterOffsetBegin
p921
V215
p922
sVNamedEntityTag
p923
VNUMBER
p924
saa(lp925
Vbooks
p926
a(dp927
VNamedEntityTag
p928
g136
sVCharacterOffsetEnd
p929
V226
p930
sVCharacterOffsetBegin
p931
V221
p932
sVPartOfSpeech
p933
VNNS
p934
sVLemma
p935
Vbook
p936
saa(lp937
V?
p938
a(dp939
VNamedEntityTag
p940
g136
sVCharacterOffsetEnd
p941
V228
p942
sVCharacterOffsetBegin
p943
V227
p944
sVPartOfSpeech
p945
g454
sVLemma
p946
g938
saasVindexeddependencies
p947
(lp948
(lp949
Vroot
p950
aVROOT-0
p951
aVneed-7
p952
aa(lp953
Vadvmod
p954
aVmuch-2
p955
aVHow-1
p956
aa(lp957
Vdep
p958
aVmore-3
p959
aVmuch-2
p960
aa(lp961
Vamod
p962
aVmoney-4
p963
aVmore-3
p964
aa(lp965
Vdep
p966
aVneed-7
p967
aVmoney-4
p968
aa(lp969
Vaux
p970
aVneed-7
p971
aVdoes-5
p972
aa(lp973
Vnsubj
p974
aVneed-7
p975
aVJonathan-6
p976
aa(lp977
Vaux
p978
aVbuy-9
p979
aVto-8
p980
aa(lp981
Vxcomp
p982
aVneed-7
p983
aVbuy-9
p984
aa(lp985
Vdet
p986
aVbooks-12
p987
aVall-10
p988
aa(lp989
Vnum
p990
aVbooks-12
p991
aVthree-11
p992
aa(lp993
Vdobj
p994
aVbuy-9
p995
aVbooks-12
p996
aasas.