(dp0
Vcoref
p1
(lp2
(lp3
(lp4
(lp5
VMika
p6
aI2
aI1
aI1
aI2
aa(lp7
VMika
p8
aI0
aI0
aI0
aI1
aaa(lp9
(lp10
VMika
p11
aI3
aI4
aI4
aI5
aa(lp12
VMika
p13
aI0
aI0
aI0
aI1
aaaa(lp14
(lp15
(lp16
V20
p17
aI1
aI12
aI12
aI13
aa(lp18
V20
p19
aI0
aI2
aI2
aI3
aaaa(lp20
(lp21
(lp22
V20 stickers
p23
aI1
aI13
aI12
aI14
aa(lp24
V20 stickers
p25
aI0
aI3
aI2
aI4
aaaa(lp26
(lp27
(lp28
Vher
p29
aI1
aI15
aI15
aI16
aa(lp30
VShe
p31
aI1
aI0
aI0
aI1
aaa(lp32
(lp33
Vher
p34
aI2
aI8
aI8
aI9
aa(lp35
VShe
p36
aI1
aI0
aI0
aI1
aaaa(lp37
(lp38
(lp39
Vthe stickers
p40
aI2
aI6
aI5
aI7
aa(lp41
V26 stickers
p42
aI1
aI3
aI2
aI4
aaaasVsentences
p43
(lp44
(dp45
Vparsetree
p46
V(ROOT (S (NP (NNP Mika)) (VP (VBD had) (NP (CD 20) (NNS stickers))) (. .)))
p47
sVtext
p48
VMika had 20 stickers .
p49
sVdependencies
p50
(lp51
(lp52
Vroot
p53
aVROOT
p54
aVhad
p55
aa(lp56
Vnsubj
p57
aVhad
p58
aVMika
p59
aa(lp60
Vnum
p61
aVstickers
p62
aV20
p63
aa(lp64
Vdobj
p65
aVhad
p66
aVstickers
p67
aasVwords
p68
(lp69
(lp70
VMika
p71
a(dp72
VNamedEntityTag
p73
VPERSON
p74
sVCharacterOffsetEnd
p75
V5
p76
sVCharacterOffsetBegin
p77
V1
p78
sVPartOfSpeech
p79
VNNP
p80
sVLemma
p81
VMika
p82
saa(lp83
Vhad
p84
a(dp85
VNamedEntityTag
p86
VO
p87
sVCharacterOffsetEnd
p88
V9
p89
sVCharacterOffsetBegin
p90
V6
p91
sVPartOfSpeech
p92
VVBD
p93
sVLemma
p94
Vhave
p95
saa(lp96
V20
p97
a(dp98
VNormalizedNamedEntityTag
p99
V20.0
p100
sVLemma
p101
V20
p102
sVCharacterOffsetEnd
p103
V12
p104
sVPartOfSpeech
p105
VCD
p106
sVCharacterOffsetBegin
p107
V10
p108
sVNamedEntityTag
p109
VNUMBER
p110
saa(lp111
Vstickers
p112
a(dp113
VNamedEntityTag
p114
g87
sVCharacterOffsetEnd
p115
V21
p116
sVCharacterOffsetBegin
p117
V13
p118
sVPartOfSpeech
p119
VNNS
p120
sVLemma
p121
Vsticker
p122
saa(lp123
V.
p124
a(dp125
VNamedEntityTag
p126
g87
sVCharacterOffsetEnd
p127
V23
p128
sVCharacterOffsetBegin
p129
V22
p130
sVPartOfSpeech
p131
g124
sVLemma
p132
g124
saasVindexeddependencies
p133
(lp134
(lp135
Vroot
p136
aVROOT-0
p137
aVhad-2
p138
aa(lp139
Vnsubj
p140
aVhad-2
p141
aVMika-1
p142
aa(lp143
Vnum
p144
aVstickers-4
p145
aV20-3
p146
aa(lp147
Vdobj
p148
aVhad-2
p149
aVstickers-4
p150
aasa(dp151
Vparsetree
p152
V(ROOT (S (NP (PRP She)) (VP (VP (VBD bought) (NP (CD 26) (NNS stickers)) (PP (IN from) (NP (NP (DT a) (NN store)) (PP (IN in) (NP (DT the) (NN mall)))))) (CC and) (VP (VBD got) (NP (CD 20) (NNS stickers)) (PP (IN for) (NP (PRP$ her) (NN birthday))))) (. .)))
p153
sVtext
p154
VShe bought 26 stickers from a store in the mall and got 20 stickers for her birthday .
p155
sVdependencies
p156
(lp157
(lp158
Vroot
p159
aVROOT
p160
aVbought
p161
aa(lp162
Vnsubj
p163
aVbought
p164
aVShe
p165
aa(lp166
Vnum
p167
aVstickers
p168
aV26
p169
aa(lp170
Vdobj
p171
aVbought
p172
aVstickers
p173
aa(lp174
Vdet
p175
aVstore
p176
aVa
p177
aa(lp178
Vprep_from
p179
aVbought
p180
aVstore
p181
aa(lp182
Vdet
p183
aVmall
p184
aVthe
p185
aa(lp186
Vprep_in
p187
aVstore
p188
aVmall
p189
aa(lp190
Vconj_and
p191
aVbought
p192
aVgot
p193
aa(lp194
Vnum
p195
aVstickers
p196
aV20
p197
aa(lp198
Vdobj
p199
aVgot
p200
aVstickers
p201
aa(lp202
Vposs
p203
aVbirthday
p204
aVher
p205
aa(lp206
Vprep_for
p207
aVgot
p208
aVbirthday
p209
aasVwords
p210
(lp211
(lp212
VShe
p213
a(dp214
VNamedEntityTag
p215
g87
sVCharacterOffsetEnd
p216
V27
p217
sVCharacterOffsetBegin
p218
V24
p219
sVPartOfSpeech
p220
VPRP
p221
sVLemma
p222
Vshe
p223
saa(lp224
Vbought
p225
a(dp226
VNamedEntityTag
p227
g87
sVCharacterOffsetEnd
p228
V34
p229
sVCharacterOffsetBegin
p230
V28
p231
sVPartOfSpeech
p232
VVBD
p233
sVLemma
p234
Vbuy
p235
saa(lp236
V26
p237
a(dp238
VNormalizedNamedEntityTag
p239
V26.0
p240
sVLemma
p241
V26
p242
sVCharacterOffsetEnd
p243
V37
p244
sVPartOfSpeech
p245
VCD
p246
sVCharacterOffsetBegin
p247
V35
p248
sVNamedEntityTag
p249
VNUMBER
p250
saa(lp251
Vstickers
p252
a(dp253
VNamedEntityTag
p254
g87
sVCharacterOffsetEnd
p255
V46
p256
sVCharacterOffsetBegin
p257
V38
p258
sVPartOfSpeech
p259
VNNS
p260
sVLemma
p261
Vsticker
p262
saa(lp263
Vfrom
p264
a(dp265
VNamedEntityTag
p266
g87
sVCharacterOffsetEnd
p267
V51
p268
sVCharacterOffsetBegin
p269
V47
p270
sVPartOfSpeech
p271
VIN
p272
sVLemma
p273
Vfrom
p274
saa(lp275
g177
a(dp276
VNamedEntityTag
p277
g87
sVCharacterOffsetEnd
p278
V53
p279
sVCharacterOffsetBegin
p280
V52
p281
sVPartOfSpeech
p282
VDT
p283
sVLemma
p284
g177
saa(lp285
Vstore
p286
a(dp287
VNamedEntityTag
p288
g87
sVCharacterOffsetEnd
p289
V59
p290
sVCharacterOffsetBegin
p291
V54
p292
sVPartOfSpeech
p293
VNN
p294
sVLemma
p295
Vstore
p296
saa(lp297
Vin
p298
a(dp299
VNamedEntityTag
p300
g87
sVCharacterOffsetEnd
p301
V62
p302
sVCharacterOffsetBegin
p303
V60
p304
sVPartOfSpeech
p305
VIN
p306
sVLemma
p307
Vin
p308
saa(lp309
Vthe
p310
a(dp311
VNamedEntityTag
p312
g87
sVCharacterOffsetEnd
p313
V66
p314
sVCharacterOffsetBegin
p315
V63
p316
sVPartOfSpeech
p317
VDT
p318
sVLemma
p319
Vthe
p320
saa(lp321
Vmall
p322
a(dp323
VNamedEntityTag
p324
g87
sVCharacterOffsetEnd
p325
V71
p326
sVCharacterOffsetBegin
p327
V67
p328
sVPartOfSpeech
p329
VNN
p330
sVLemma
p331
Vmall
p332
saa(lp333
Vand
p334
a(dp335
VNamedEntityTag
p336
g87
sVCharacterOffsetEnd
p337
V75
p338
sVCharacterOffsetBegin
p339
V72
p340
sVPartOfSpeech
p341
VCC
p342
sVLemma
p343
Vand
p344
saa(lp345
Vgot
p346
a(dp347
VNamedEntityTag
p348
g87
sVCharacterOffsetEnd
p349
V79
p350
sVCharacterOffsetBegin
p351
V76
p352
sVPartOfSpeech
p353
VVBD
p354
sVLemma
p355
Vget
p356
saa(lp357
V20
p358
a(dp359
VNormalizedNamedEntityTag
p360
V20.0
p361
sVLemma
p362
V20
p363
sVCharacterOffsetEnd
p364
V82
p365
sVPartOfSpeech
p366
VCD
p367
sVCharacterOffsetBegin
p368
V80
p369
sVNamedEntityTag
p370
VNUMBER
p371
saa(lp372
Vstickers
p373
a(dp374
VNamedEntityTag
p375
g87
sVCharacterOffsetEnd
p376
V91
p377
sVCharacterOffsetBegin
p378
V83
p379
sVPartOfSpeech
p380
VNNS
p381
sVLemma
p382
Vsticker
p383
saa(lp384
Vfor
p385
a(dp386
VNamedEntityTag
p387
g87
sVCharacterOffsetEnd
p388
V95
p389
sVCharacterOffsetBegin
p390
V92
p391
sVPartOfSpeech
p392
VIN
p393
sVLemma
p394
Vfor
p395
saa(lp396
Vher
p397
a(dp398
VNamedEntityTag
p399
g87
sVCharacterOffsetEnd
p400
V99
p401
sVCharacterOffsetBegin
p402
V96
p403
sVPartOfSpeech
p404
VPRP$
p405
sVLemma
p406
Vshe
p407
saa(lp408
Vbirthday
p409
a(dp410
VNamedEntityTag
p411
g87
sVCharacterOffsetEnd
p412
V108
p413
sVCharacterOffsetBegin
p414
V100
p415
sVPartOfSpeech
p416
VNN
p417
sVLemma
p418
Vbirthday
p419
saa(lp420
g124
a(dp421
VNamedEntityTag
p422
g87
sVCharacterOffsetEnd
p423
V110
p424
sVCharacterOffsetBegin
p425
V109
p426
sVPartOfSpeech
p427
g124
sVLemma
p428
g124
saasVindexeddependencies
p429
(lp430
(lp431
Vroot
p432
aVROOT-0
p433
aVbought-2
p434
aa(lp435
Vnsubj
p436
aVbought-2
p437
aVShe-1
p438
aa(lp439
Vnum
p440
aVstickers-4
p441
aV26-3
p442
aa(lp443
Vdobj
p444
aVbought-2
p445
aVstickers-4
p446
aa(lp447
Vdet
p448
aVstore-7
p449
aVa-6
p450
aa(lp451
Vprep_from
p452
aVbought-2
p453
aVstore-7
p454
aa(lp455
Vdet
p456
aVmall-10
p457
aVthe-9
p458
aa(lp459
Vprep_in
p460
aVstore-7
p461
aVmall-10
p462
aa(lp463
Vconj_and
p464
aVbought-2
p465
aVgot-12
p466
aa(lp467
Vnum
p468
aVstickers-14
p469
aV20-13
p470
aa(lp471
Vdobj
p472
aVgot-12
p473
aVstickers-14
p474
aa(lp475
Vposs
p476
aVbirthday-17
p477
aVher-16
p478
aa(lp479
Vprep_for
p480
aVgot-12
p481
aVbirthday-17
p482
aasa(dp483
Vparsetree
p484
V(ROOT (S (RB Then) (NP (NNP Mika)) (VP (VP (VBD gave) (NP (NP (CD 6)) (PP (IN of) (NP (DT the) (NNS stickers)))) (PP (TO to) (NP (PRP$ her) (NN sister)))) (CC and) (VP (VBN used) (NP (CD 58)) (S (VP (TO to) (VP (VB decorate) (NP (DT a) (VBG greeting) (NN card))))))) (. .)))
p485
sVtext
p486
VThen Mika gave 6 of the stickers to her sister and used 58 to decorate a greeting card .
p487
sVdependencies
p488
(lp489
(lp490
Vroot
p491
aVROOT
p492
aVgave
p493
aa(lp494
Vadvmod
p495
aVgave
p496
aVThen
p497
aa(lp498
Vnsubj
p499
aVgave
p500
aVMika
p501
aa(lp502
Vdobj
p503
aVgave
p504
ag91
aa(lp505
Vdet
p506
aVstickers
p507
aVthe
p508
aa(lp509
Vprep_of
p510
ag91
aVstickers
p511
aa(lp512
Vposs
p513
aVsister
p514
aVher
p515
aa(lp516
Vprep_to
p517
aVgave
p518
aVsister
p519
aa(lp520
Vconj_and
p521
aVgave
p522
aVused
p523
aa(lp524
Vdobj
p525
aVused
p526
aV58
p527
aa(lp528
Vaux
p529
aVdecorate
p530
aVto
p531
aa(lp532
Vvmod
p533
aVused
p534
aVdecorate
p535
aa(lp536
Vdet
p537
aVcard
p538
ag177
aa(lp539
Vamod
p540
aVcard
p541
aVgreeting
p542
aa(lp543
Vdobj
p544
aVdecorate
p545
aVcard
p546
aasVwords
p547
(lp548
(lp549
VThen
p550
a(dp551
VNamedEntityTag
p552
g87
sVCharacterOffsetEnd
p553
V115
p554
sVCharacterOffsetBegin
p555
V111
p556
sVPartOfSpeech
p557
VRB
p558
sVLemma
p559
Vthen
p560
saa(lp561
VMika
p562
a(dp563
VNamedEntityTag
p564
VPERSON
p565
sVCharacterOffsetEnd
p566
V120
p567
sVCharacterOffsetBegin
p568
V116
p569
sVPartOfSpeech
p570
VNNP
p571
sVLemma
p572
VMika
p573
saa(lp574
Vgave
p575
a(dp576
VNamedEntityTag
p577
g87
sVCharacterOffsetEnd
p578
V125
p579
sVCharacterOffsetBegin
p580
V121
p581
sVPartOfSpeech
p582
VVBD
p583
sVLemma
p584
Vgive
p585
saa(lp586
g91
a(dp587
VNormalizedNamedEntityTag
p588
V6.0
p589
sVLemma
p590
g91
sVCharacterOffsetEnd
p591
V127
p592
sVPartOfSpeech
p593
VCD
p594
sVCharacterOffsetBegin
p595
V126
p596
sVNamedEntityTag
p597
VNUMBER
p598
saa(lp599
Vof
p600
a(dp601
VNamedEntityTag
p602
g87
sVCharacterOffsetEnd
p603
V130
p604
sVCharacterOffsetBegin
p605
V128
p606
sVPartOfSpeech
p607
VIN
p608
sVLemma
p609
Vof
p610
saa(lp611
Vthe
p612
a(dp613
VNamedEntityTag
p614
g87
sVCharacterOffsetEnd
p615
V134
p616
sVCharacterOffsetBegin
p617
V131
p618
sVPartOfSpeech
p619
VDT
p620
sVLemma
p621
Vthe
p622
saa(lp623
Vstickers
p624
a(dp625
VNamedEntityTag
p626
g87
sVCharacterOffsetEnd
p627
V143
p628
sVCharacterOffsetBegin
p629
V135
p630
sVPartOfSpeech
p631
VNNS
p632
sVLemma
p633
Vsticker
p634
saa(lp635
Vto
p636
a(dp637
VNamedEntityTag
p638
g87
sVCharacterOffsetEnd
p639
V146
p640
sVCharacterOffsetBegin
p641
V144
p642
sVPartOfSpeech
p643
VTO
p644
sVLemma
p645
Vto
p646
saa(lp647
Vher
p648
a(dp649
VNamedEntityTag
p650
g87
sVCharacterOffsetEnd
p651
V150
p652
sVCharacterOffsetBegin
p653
V147
p654
sVPartOfSpeech
p655
VPRP$
p656
sVLemma
p657
Vshe
p658
saa(lp659
Vsister
p660
a(dp661
VNamedEntityTag
p662
g87
sVCharacterOffsetEnd
p663
V157
p664
sVCharacterOffsetBegin
p665
V151
p666
sVPartOfSpeech
p667
VNN
p668
sVLemma
p669
Vsister
p670
saa(lp671
Vand
p672
a(dp673
VNamedEntityTag
p674
g87
sVCharacterOffsetEnd
p675
V161
p676
sVCharacterOffsetBegin
p677
V158
p678
sVPartOfSpeech
p679
VCC
p680
sVLemma
p681
Vand
p682
saa(lp683
Vused
p684
a(dp685
VNamedEntityTag
p686
g87
sVCharacterOffsetEnd
p687
V166
p688
sVCharacterOffsetBegin
p689
V162
p690
sVPartOfSpeech
p691
VVBN
p692
sVLemma
p693
Vuse
p694
saa(lp695
V58
p696
a(dp697
VNormalizedNamedEntityTag
p698
V58.0
p699
sVLemma
p700
V58
p701
sVCharacterOffsetEnd
p702
V169
p703
sVPartOfSpeech
p704
VCD
p705
sVCharacterOffsetBegin
p706
V167
p707
sVNamedEntityTag
p708
VNUMBER
p709
saa(lp710
Vto
p711
a(dp712
VNamedEntityTag
p713
g87
sVCharacterOffsetEnd
p714
V172
p715
sVCharacterOffsetBegin
p716
V170
p717
sVPartOfSpeech
p718
VTO
p719
sVLemma
p720
Vto
p721
saa(lp722
Vdecorate
p723
a(dp724
VNamedEntityTag
p725
g87
sVCharacterOffsetEnd
p726
V181
p727
sVCharacterOffsetBegin
p728
V173
p729
sVPartOfSpeech
p730
VVB
p731
sVLemma
p732
Vdecorate
p733
saa(lp734
g177
a(dp735
VNamedEntityTag
p736
g87
sVCharacterOffsetEnd
p737
V183
p738
sVCharacterOffsetBegin
p739
V182
p740
sVPartOfSpeech
p741
VDT
p742
sVLemma
p743
g177
saa(lp744
Vgreeting
p745
a(dp746
VNamedEntityTag
p747
g87
sVCharacterOffsetEnd
p748
V192
p749
sVCharacterOffsetBegin
p750
V184
p751
sVPartOfSpeech
p752
VVBG
p753
sVLemma
p754
Vgreet
p755
saa(lp756
Vcard
p757
a(dp758
VNamedEntityTag
p759
g87
sVCharacterOffsetEnd
p760
V197
p761
sVCharacterOffsetBegin
p762
V193
p763
sVPartOfSpeech
p764
VNN
p765
sVLemma
p766
Vcard
p767
saa(lp768
g124
a(dp769
VNamedEntityTag
p770
g87
sVCharacterOffsetEnd
p771
V199
p772
sVCharacterOffsetBegin
p773
V198
p774
sVPartOfSpeech
p775
g124
sVLemma
p776
g124
saasVindexeddependencies
p777
(lp778
(lp779
Vroot
p780
aVROOT-0
p781
aVgave-3
p782
aa(lp783
Vadvmod
p784
aVgave-3
p785
aVThen-1
p786
aa(lp787
Vnsubj
p788
aVgave-3
p789
aVMika-2
p790
aa(lp791
Vdobj
p792
aVgave-3
p793
aV6-4
p794
aa(lp795
Vdet
p796
aVstickers-7
p797
aVthe-6
p798
aa(lp799
Vprep_of
p800
aV6-4
p801
aVstickers-7
p802
aa(lp803
Vposs
p804
aVsister-10
p805
aVher-9
p806
aa(lp807
Vprep_to
p808
aVgave-3
p809
aVsister-10
p810
aa(lp811
Vconj_and
p812
aVgave-3
p813
aVused-12
p814
aa(lp815
Vdobj
p816
aVused-12
p817
aV58-13
p818
aa(lp819
Vaux
p820
aVdecorate-15
p821
aVto-14
p822
aa(lp823
Vvmod
p824
aVused-12
p825
aVdecorate-15
p826
aa(lp827
Vdet
p828
aVcard-18
p829
aVa-16
p830
aa(lp831
Vamod
p832
aVcard-18
p833
aVgreeting-17
p834
aa(lp835
Vdobj
p836
aVdecorate-15
p837
aVcard-18
p838
aasa(dp839
Vparsetree
p840
V(ROOT (SBARQ (WHNP (WHADJP (WRB How) (JJ many)) (NNS stickers)) (SQ (VBZ does) (NP (NNP Mika)) (VP (VB have) (VP (VBN left)))) (. ?)))
p841
sVtext
p842
VHow many stickers does Mika have left ?
p843
sVdependencies
p844
(lp845
(lp846
Vroot
p847
aVROOT
p848
aVleft
p849
aa(lp850
Vadvmod
p851
aVmany
p852
aVHow
p853
aa(lp854
Vamod
p855
aVstickers
p856
aVmany
p857
aa(lp858
Vdobj
p859
aVleft
p860
aVstickers
p861
aa(lp862
Vaux
p863
aVleft
p864
aVdoes
p865
aa(lp866
Vnsubj
p867
aVleft
p868
aVMika
p869
aa(lp870
Vaux
p871
aVleft
p872
aVhave
p873
aasVwords
p874
(lp875
(lp876
VHow
p877
a(dp878
VNamedEntityTag
p879
g87
sVCharacterOffsetEnd
p880
V203
p881
sVCharacterOffsetBegin
p882
V200
p883
sVPartOfSpeech
p884
VWRB
p885
sVLemma
p886
Vhow
p887
saa(lp888
Vmany
p889
a(dp890
VNamedEntityTag
p891
g87
sVCharacterOffsetEnd
p892
V208
p893
sVCharacterOffsetBegin
p894
V204
p895
sVPartOfSpeech
p896
VJJ
p897
sVLemma
p898
Vmany
p899
saa(lp900
Vstickers
p901
a(dp902
VNamedEntityTag
p903
g87
sVCharacterOffsetEnd
p904
V217
p905
sVCharacterOffsetBegin
p906
V209
p907
sVPartOfSpeech
p908
VNNS
p909
sVLemma
p910
Vsticker
p911
saa(lp912
Vdoes
p913
a(dp914
VNamedEntityTag
p915
g87
sVCharacterOffsetEnd
p916
V222
p917
sVCharacterOffsetBegin
p918
V218
p919
sVPartOfSpeech
p920
VVBZ
p921
sVLemma
p922
Vdo
p923
saa(lp924
VMika
p925
a(dp926
VNamedEntityTag
p927
VPERSON
p928
sVCharacterOffsetEnd
p929
V227
p930
sVCharacterOffsetBegin
p931
V223
p932
sVPartOfSpeech
p933
VNNP
p934
sVLemma
p935
VMika
p936
saa(lp937
Vhave
p938
a(dp939
VNamedEntityTag
p940
g87
sVCharacterOffsetEnd
p941
V232
p942
sVCharacterOffsetBegin
p943
V228
p944
sVPartOfSpeech
p945
VVB
p946
sVLemma
p947
Vhave
p948
saa(lp949
Vleft
p950
a(dp951
VNamedEntityTag
p952
g87
sVCharacterOffsetEnd
p953
V237
p954
sVCharacterOffsetBegin
p955
V233
p956
sVPartOfSpeech
p957
VVBN
p958
sVLemma
p959
Vleave
p960
saa(lp961
V?
p962
a(dp963
VNamedEntityTag
p964
g87
sVCharacterOffsetEnd
p965
V239
p966
sVCharacterOffsetBegin
p967
V238
p968
sVPartOfSpeech
p969
g124
sVLemma
p970
g962
saasVindexeddependencies
p971
(lp972
(lp973
Vroot
p974
aVROOT-0
p975
aVleft-7
p976
aa(lp977
Vadvmod
p978
aVmany-2
p979
aVHow-1
p980
aa(lp981
Vamod
p982
aVstickers-3
p983
aVmany-2
p984
aa(lp985
Vdobj
p986
aVleft-7
p987
aVstickers-3
p988
aa(lp989
Vaux
p990
aVleft-7
p991
aVdoes-4
p992
aa(lp993
Vnsubj
p994
aVleft-7
p995
aVMika-5
p996
aa(lp997
Vaux
p998
aVleft-7
p999
aVhave-6
p1000
aasas.