(dp0
Vcoref
p1
(lp2
(lp3
(lp4
(lp5
V20
p6
aI1
aI5
aI5
aI6
aa(lp7
V20
p8
aI0
aI8
aI8
aI9
aaaa(lp9
(lp10
(lp11
V20 cats
p12
aI1
aI6
aI5
aI7
aa(lp13
V12 siamese cats and 20 house cats
p14
aI0
aI6
aI4
aI11
aaaa(lp15
(lp16
(lp17
Vthey
p18
aI1
aI3
aI3
aI4
aa(lp19
V12 siamese cats
p20
aI0
aI6
aI4
aI7
aaa(lp21
(lp22
Vthey
p23
aI2
aI4
aI4
aI5
aa(lp24
V12 siamese cats
p25
aI0
aI6
aI4
aI7
aaaasVsentences
p26
(lp27
(dp28
Vparsetree
p29
V(ROOT (S (NP (DT A) (JJ pet) (NN store)) (VP (VBD had) (NP (NP (CD 12) (NN siamese) (NNS cats)) (CC and) (NP (CD 20) (NN house) (NNS cats)))) (. .)))
p30
sVtext
p31
VA pet store had 12 siamese cats and 20 house cats .
p32
sVdependencies
p33
(lp34
(lp35
Vroot
p36
aVROOT
p37
aVhad
p38
aa(lp39
Vdet
p40
aVstore
p41
aVA
p42
aa(lp43
Vamod
p44
aVstore
p45
aVpet
p46
aa(lp47
Vnsubj
p48
aVhad
p49
aVstore
p50
aa(lp51
Vnum
p52
aVcats
p53
aV12
p54
aa(lp55
Vnn
p56
aVcats
p57
aVsiamese
p58
aa(lp59
Vdobj
p60
aVhad
p61
aVcats
p62
aa(lp63
Vnum
p64
aVcats
p65
aV20
p66
aa(lp67
Vnn
p68
aVcats
p69
aVhouse
p70
aa(lp71
Vconj_and
p72
aVcats
p73
aVcats
p74
aasVwords
p75
(lp76
(lp77
g42
a(dp78
VNamedEntityTag
p79
VO
p80
sVCharacterOffsetEnd
p81
V2
p82
sVCharacterOffsetBegin
p83
V1
p84
sVPartOfSpeech
p85
VDT
p86
sVLemma
p87
Va
p88
saa(lp89
Vpet
p90
a(dp91
VNamedEntityTag
p92
g80
sVCharacterOffsetEnd
p93
V6
p94
sVCharacterOffsetBegin
p95
V3
p96
sVPartOfSpeech
p97
VJJ
p98
sVLemma
p99
Vpet
p100
saa(lp101
Vstore
p102
a(dp103
VNamedEntityTag
p104
g80
sVCharacterOffsetEnd
p105
V12
p106
sVCharacterOffsetBegin
p107
V7
p108
sVPartOfSpeech
p109
VNN
p110
sVLemma
p111
Vstore
p112
saa(lp113
Vhad
p114
a(dp115
VNamedEntityTag
p116
g80
sVCharacterOffsetEnd
p117
V16
p118
sVCharacterOffsetBegin
p119
V13
p120
sVPartOfSpeech
p121
VVBD
p122
sVLemma
p123
Vhave
p124
saa(lp125
V12
p126
a(dp127
VNormalizedNamedEntityTag
p128
V12.0
p129
sVLemma
p130
V12
p131
sVCharacterOffsetEnd
p132
V19
p133
sVPartOfSpeech
p134
VCD
p135
sVCharacterOffsetBegin
p136
V17
p137
sVNamedEntityTag
p138
VNUMBER
p139
saa(lp140
Vsiamese
p141
a(dp142
VNamedEntityTag
p143
g80
sVCharacterOffsetEnd
p144
V27
p145
sVCharacterOffsetBegin
p146
V20
p147
sVPartOfSpeech
p148
VNN
p149
sVLemma
p150
Vsiamese
p151
saa(lp152
Vcats
p153
a(dp154
VNamedEntityTag
p155
g80
sVCharacterOffsetEnd
p156
V32
p157
sVCharacterOffsetBegin
p158
V28
p159
sVPartOfSpeech
p160
VNNS
p161
sVLemma
p162
Vcat
p163
saa(lp164
Vand
p165
a(dp166
VNamedEntityTag
p167
g80
sVCharacterOffsetEnd
p168
V36
p169
sVCharacterOffsetBegin
p170
V33
p171
sVPartOfSpeech
p172
VCC
p173
sVLemma
p174
Vand
p175
saa(lp176
V20
p177
a(dp178
VNormalizedNamedEntityTag
p179
V20.0
p180
sVLemma
p181
V20
p182
sVCharacterOffsetEnd
p183
V39
p184
sVPartOfSpeech
p185
VCD
p186
sVCharacterOffsetBegin
p187
V37
p188
sVNamedEntityTag
p189
VNUMBER
p190
saa(lp191
Vhouse
p192
a(dp193
VNamedEntityTag
p194
g80
sVCharacterOffsetEnd
p195
V45
p196
sVCharacterOffsetBegin
p197
V40
p198
sVPartOfSpeech
p199
VNN
p200
sVLemma
p201
Vhouse
p202
saa(lp203
Vcats
p204
a(dp205
VNamedEntityTag
p206
g80
sVCharacterOffsetEnd
p207
V50
p208
sVCharacterOffsetBegin
p209
V46
p210
sVPartOfSpeech
p211
VNNS
p212
sVLemma
p213
Vcat
p214
saa(lp215
V.
p216
a(dp217
VNamedEntityTag
p218
g80
sVCharacterOffsetEnd
p219
V52
p220
sVCharacterOffsetBegin
p221
V51
p222
sVPartOfSpeech
p223
g216
sVLemma
p224
g216
saasVindexeddependencies
p225
(lp226
(lp227
Vroot
p228
aVROOT-0
p229
aVhad-4
p230
aa(lp231
Vdet
p232
aVstore-3
p233
aVA-1
p234
aa(lp235
Vamod
p236
aVstore-3
p237
aVpet-2
p238
aa(lp239
Vnsubj
p240
aVhad-4
p241
aVstore-3
p242
aa(lp243
Vnum
p244
aVcats-7
p245
aV12-5
p246
aa(lp247
Vnn
p248
aVcats-7
p249
aVsiamese-6
p250
aa(lp251
Vdobj
p252
aVhad-4
p253
aVcats-7
p254
aa(lp255
Vnum
p256
aVcats-11
p257
aV20-9
p258
aa(lp259
Vnn
p260
aVcats-11
p261
aVhouse-10
p262
aa(lp263
Vconj_and
p264
aVcats-7
p265
aVcats-11
p266
aasa(dp267
Vparsetree
p268
V(ROOT (S (PP (IN During) (NP (DT a) (NN sale))) (NP (PRP they)) (VP (VBD sold) (NP (CD 20) (NNS cats))) (. .)))
p269
sVtext
p270
VDuring a sale they sold 20 cats .
p271
sVdependencies
p272
(lp273
(lp274
Vroot
p275
aVROOT
p276
aVsold
p277
aa(lp278
Vdet
p279
aVsale
p280
ag88
aa(lp281
Vprep_during
p282
aVsold
p283
aVsale
p284
aa(lp285
Vnsubj
p286
aVsold
p287
aVthey
p288
aa(lp289
Vnum
p290
aVcats
p291
aV20
p292
aa(lp293
Vdobj
p294
aVsold
p295
aVcats
p296
aasVwords
p297
(lp298
(lp299
VDuring
p300
a(dp301
VNamedEntityTag
p302
g80
sVCharacterOffsetEnd
p303
V59
p304
sVCharacterOffsetBegin
p305
V53
p306
sVPartOfSpeech
p307
VIN
p308
sVLemma
p309
Vduring
p310
saa(lp311
g88
a(dp312
VNamedEntityTag
p313
g80
sVCharacterOffsetEnd
p314
V61
p315
sVCharacterOffsetBegin
p316
V60
p317
sVPartOfSpeech
p318
VDT
p319
sVLemma
p320
g88
saa(lp321
Vsale
p322
a(dp323
VNamedEntityTag
p324
g80
sVCharacterOffsetEnd
p325
V66
p326
sVCharacterOffsetBegin
p327
V62
p328
sVPartOfSpeech
p329
VNN
p330
sVLemma
p331
Vsale
p332
saa(lp333
Vthey
p334
a(dp335
VNamedEntityTag
p336
g80
sVCharacterOffsetEnd
p337
V71
p338
sVCharacterOffsetBegin
p339
V67
p340
sVPartOfSpeech
p341
VPRP
p342
sVLemma
p343
Vthey
p344
saa(lp345
Vsold
p346
a(dp347
VNamedEntityTag
p348
g80
sVCharacterOffsetEnd
p349
V76
p350
sVCharacterOffsetBegin
p351
V72
p352
sVPartOfSpeech
p353
VVBD
p354
sVLemma
p355
Vsell
p356
saa(lp357
V20
p358
a(dp359
VNormalizedNamedEntityTag
p360
V20.0
p361
sVLemma
p362
V20
p363
sVCharacterOffsetEnd
p364
V79
p365
sVPartOfSpeech
p366
VCD
p367
sVCharacterOffsetBegin
p368
V77
p369
sVNamedEntityTag
p370
VNUMBER
p371
saa(lp372
Vcats
p373
a(dp374
VNamedEntityTag
p375
g80
sVCharacterOffsetEnd
p376
V84
p377
sVCharacterOffsetBegin
p378
V80
p379
sVPartOfSpeech
p380
VNNS
p381
sVLemma
p382
Vcat
p383
saa(lp384
g216
a(dp385
VNamedEntityTag
p386
g80
sVCharacterOffsetEnd
p387
V86
p388
sVCharacterOffsetBegin
p389
V85
p390
sVPartOfSpeech
p391
g216
sVLemma
p392
g216
saasVindexeddependencies
p393
(lp394
(lp395
Vroot
p396
aVROOT-0
p397
aVsold-5
p398
aa(lp399
Vdet
p400
aVsale-3
p401
aVa-2
p402
aa(lp403
Vprep_during
p404
aVsold-5
p405
aVsale-3
p406
aa(lp407
Vnsubj
p408
aVsold-5
p409
aVthey-4
p410
aa(lp411
Vnum
p412
aVcats-7
p413
aV20-6
p414
aa(lp415
Vdobj
p416
aVsold-5
p417
aVcats-7
p418
aasa(dp419
Vparsetree
p420
V(ROOT (SBARQ (WHNP (WHADJP (WRB How) (JJ many)) (NNS cats)) (SQ (VBP do) (NP (PRP they)) (VP (VBP have) (VP (VBN left)))) (. ?)))
p421
sVtext
p422
VHow many cats do they have left ?
p423
sVdependencies
p424
(lp425
(lp426
Vroot
p427
aVROOT
p428
aVleft
p429
aa(lp430
Vadvmod
p431
aVmany
p432
aVHow
p433
aa(lp434
Vamod
p435
aVcats
p436
aVmany
p437
aa(lp438
Vdobj
p439
aVleft
p440
aVcats
p441
aa(lp442
Vaux
p443
aVleft
p444
aVdo
p445
aa(lp446
Vnsubj
p447
aVleft
p448
aVthey
p449
aa(lp450
Vaux
p451
aVleft
p452
aVhave
p453
aasVwords
p454
(lp455
(lp456
VHow
p457
a(dp458
VNamedEntityTag
p459
g80
sVCharacterOffsetEnd
p460
V90
p461
sVCharacterOffsetBegin
p462
V87
p463
sVPartOfSpeech
p464
VWRB
p465
sVLemma
p466
Vhow
p467
saa(lp468
Vmany
p469
a(dp470
VNamedEntityTag
p471
g80
sVCharacterOffsetEnd
p472
V95
p473
sVCharacterOffsetBegin
p474
V91
p475
sVPartOfSpeech
p476
VJJ
p477
sVLemma
p478
Vmany
p479
saa(lp480
Vcats
p481
a(dp482
VNamedEntityTag
p483
g80
sVCharacterOffsetEnd
p484
V100
p485
sVCharacterOffsetBegin
p486
V96
p487
sVPartOfSpeech
p488
VNNS
p489
sVLemma
p490
Vcat
p491
saa(lp492
Vdo
p493
a(dp494
VNamedEntityTag
p495
g80
sVCharacterOffsetEnd
p496
V103
p497
sVCharacterOffsetBegin
p498
V101
p499
sVPartOfSpeech
p500
VVBP
p501
sVLemma
p502
Vdo
p503
saa(lp504
Vthey
p505
a(dp506
VNamedEntityTag
p507
g80
sVCharacterOffsetEnd
p508
V108
p509
sVCharacterOffsetBegin
p510
V104
p511
sVPartOfSpeech
p512
VPRP
p513
sVLemma
p514
Vthey
p515
saa(lp516
Vhave
p517
a(dp518
VNamedEntityTag
p519
g80
sVCharacterOffsetEnd
p520
V113
p521
sVCharacterOffsetBegin
p522
V109
p523
sVPartOfSpeech
p524
VVBP
p525
sVLemma
p526
Vhave
p527
saa(lp528
Vleft
p529
a(dp530
VNamedEntityTag
p531
g80
sVCharacterOffsetEnd
p532
V118
p533
sVCharacterOffsetBegin
p534
V114
p535
sVPartOfSpeech
p536
VVBN
p537
sVLemma
p538
Vleave
p539
saa(lp540
V?
p541
a(dp542
VNamedEntityTag
p543
g80
sVCharacterOffsetEnd
p544
V120
p545
sVCharacterOffsetBegin
p546
V119
p547
sVPartOfSpeech
p548
g216
sVLemma
p549
g541
saasVindexeddependencies
p550
(lp551
(lp552
Vroot
p553
aVROOT-0
p554
aVleft-7
p555
aa(lp556
Vadvmod
p557
aVmany-2
p558
aVHow-1
p559
aa(lp560
Vamod
p561
aVcats-3
p562
aVmany-2
p563
aa(lp564
Vdobj
p565
aVleft-7
p566
aVcats-3
p567
aa(lp568
Vaux
p569
aVleft-7
p570
aVdo-4
p571
aa(lp572
Vnsubj
p573
aVleft-7
p574
aVthey-5
p575
aa(lp576
Vaux
p577
aVleft-7
p578
aVhave-6
p579
aasas.