(dp0
Vcoref
p1
(lp2
(lp3
(lp4
(lp5
Vthe field trip
p6
aI3
aI7
aI5
aI8
aa(lp7
Va field trip
p8
aI0
aI9
aI7
aI10
aaaa(lp9
(lp10
(lp11
V6
p12
aI2
aI2
aI2
aI3
aa(lp13
g12
aI1
aI2
aI2
aI3
aaaasVsentences
p14
(lp15
(dp16
Vparsetree
p17
V(ROOT (S (NP (NP (DT A) (NN group)) (PP (IN of) (NP (NN science) (NNS students)))) (VP (VBD went) (PP (IN on) (NP (DT a) (NN field) (NN trip)))) (. .)))
p18
sVtext
p19
VA group of science students went on a field trip .
p20
sVdependencies
p21
(lp22
(lp23
Vroot
p24
aVROOT
p25
aVwent
p26
aa(lp27
Vdet
p28
aVgroup
p29
aVA
p30
aa(lp31
Vnsubj
p32
aVwent
p33
aVgroup
p34
aa(lp35
Vnn
p36
aVstudents
p37
aVscience
p38
aa(lp39
Vprep_of
p40
aVgroup
p41
aVstudents
p42
aa(lp43
Vdet
p44
aVtrip
p45
aVa
p46
aa(lp47
Vnn
p48
aVtrip
p49
aVfield
p50
aa(lp51
Vprep_on
p52
aVwent
p53
aVtrip
p54
aasVwords
p55
(lp56
(lp57
g30
a(dp58
VNamedEntityTag
p59
VO
p60
sVCharacterOffsetEnd
p61
V2
p62
sVCharacterOffsetBegin
p63
V1
p64
sVPartOfSpeech
p65
VDT
p66
sVLemma
p67
g46
saa(lp68
Vgroup
p69
a(dp70
VNamedEntityTag
p71
g60
sVCharacterOffsetEnd
p72
V8
p73
sVCharacterOffsetBegin
p74
V3
p75
sVPartOfSpeech
p76
VNN
p77
sVLemma
p78
Vgroup
p79
saa(lp80
Vof
p81
a(dp82
VNamedEntityTag
p83
g60
sVCharacterOffsetEnd
p84
V11
p85
sVCharacterOffsetBegin
p86
V9
p87
sVPartOfSpeech
p88
VIN
p89
sVLemma
p90
Vof
p91
saa(lp92
Vscience
p93
a(dp94
VNamedEntityTag
p95
g60
sVCharacterOffsetEnd
p96
V19
p97
sVCharacterOffsetBegin
p98
V12
p99
sVPartOfSpeech
p100
VNN
p101
sVLemma
p102
Vscience
p103
saa(lp104
Vstudents
p105
a(dp106
VNamedEntityTag
p107
g60
sVCharacterOffsetEnd
p108
V28
p109
sVCharacterOffsetBegin
p110
V20
p111
sVPartOfSpeech
p112
VNNS
p113
sVLemma
p114
Vstudent
p115
saa(lp116
Vwent
p117
a(dp118
VNamedEntityTag
p119
g60
sVCharacterOffsetEnd
p120
V33
p121
sVCharacterOffsetBegin
p122
V29
p123
sVPartOfSpeech
p124
VVBD
p125
sVLemma
p126
Vgo
p127
saa(lp128
Von
p129
a(dp130
VNamedEntityTag
p131
g60
sVCharacterOffsetEnd
p132
V36
p133
sVCharacterOffsetBegin
p134
V34
p135
sVPartOfSpeech
p136
VIN
p137
sVLemma
p138
Von
p139
saa(lp140
g46
a(dp141
VNamedEntityTag
p142
g60
sVCharacterOffsetEnd
p143
V38
p144
sVCharacterOffsetBegin
p145
V37
p146
sVPartOfSpeech
p147
VDT
p148
sVLemma
p149
g46
saa(lp150
Vfield
p151
a(dp152
VNamedEntityTag
p153
g60
sVCharacterOffsetEnd
p154
V44
p155
sVCharacterOffsetBegin
p156
V39
p157
sVPartOfSpeech
p158
VNN
p159
sVLemma
p160
Vfield
p161
saa(lp162
Vtrip
p163
a(dp164
VNamedEntityTag
p165
g60
sVCharacterOffsetEnd
p166
V49
p167
sVCharacterOffsetBegin
p168
V45
p169
sVPartOfSpeech
p170
VNN
p171
sVLemma
p172
Vtrip
p173
saa(lp174
V.
p175
a(dp176
VNamedEntityTag
p177
g60
sVCharacterOffsetEnd
p178
V51
p179
sVCharacterOffsetBegin
p180
V50
p181
sVPartOfSpeech
p182
g175
sVLemma
p183
g175
saasVindexeddependencies
p184
(lp185
(lp186
Vroot
p187
aVROOT-0
p188
aVwent-6
p189
aa(lp190
Vdet
p191
aVgroup-2
p192
aVA-1
p193
aa(lp194
Vnsubj
p195
aVwent-6
p196
aVgroup-2
p197
aa(lp198
Vnn
p199
aVstudents-5
p200
aVscience-4
p201
aa(lp202
Vprep_of
p203
aVgroup-2
p204
aVstudents-5
p205
aa(lp206
Vdet
p207
aVtrip-10
p208
aVa-8
p209
aa(lp210
Vnn
p211
aVtrip-10
p212
aVfield-9
p213
aa(lp214
Vprep_on
p215
aVwent-6
p216
aVtrip-10
p217
aasa(dp218
Vparsetree
p219
V(ROOT (S (NP (PRP They)) (VP (VBD took) (NP (NP (CD 6) (NNS vans)) (CC and) (NP (CD 8) (NNS buses)))) (. .)))
p220
sVtext
p221
VThey took 6 vans and 8 buses .
p222
sVdependencies
p223
(lp224
(lp225
Vroot
p226
aVROOT
p227
aVtook
p228
aa(lp229
Vnsubj
p230
aVtook
p231
aVThey
p232
aa(lp233
Vnum
p234
aVvans
p235
ag12
aa(lp236
Vdobj
p237
aVtook
p238
aVvans
p239
aa(lp240
Vnum
p241
aVbuses
p242
ag73
aa(lp243
Vconj_and
p244
aVvans
p245
aVbuses
p246
aasVwords
p247
(lp248
(lp249
VThey
p250
a(dp251
VNamedEntityTag
p252
g60
sVCharacterOffsetEnd
p253
V56
p254
sVCharacterOffsetBegin
p255
V52
p256
sVPartOfSpeech
p257
VPRP
p258
sVLemma
p259
Vthey
p260
saa(lp261
Vtook
p262
a(dp263
VNamedEntityTag
p264
g60
sVCharacterOffsetEnd
p265
V61
p266
sVCharacterOffsetBegin
p267
V57
p268
sVPartOfSpeech
p269
VVBD
p270
sVLemma
p271
Vtake
p272
saa(lp273
g12
a(dp274
VNormalizedNamedEntityTag
p275
V6.0
p276
sVLemma
p277
g12
sVCharacterOffsetEnd
p278
V63
p279
sVPartOfSpeech
p280
VCD
p281
sVCharacterOffsetBegin
p282
V62
p283
sVNamedEntityTag
p284
VNUMBER
p285
saa(lp286
Vvans
p287
a(dp288
VNamedEntityTag
p289
g60
sVCharacterOffsetEnd
p290
V68
p291
sVCharacterOffsetBegin
p292
V64
p293
sVPartOfSpeech
p294
VNNS
p295
sVLemma
p296
Vvan
p297
saa(lp298
Vand
p299
a(dp300
VNamedEntityTag
p301
g60
sVCharacterOffsetEnd
p302
V72
p303
sVCharacterOffsetBegin
p304
V69
p305
sVPartOfSpeech
p306
VCC
p307
sVLemma
p308
Vand
p309
saa(lp310
g73
a(dp311
VNormalizedNamedEntityTag
p312
V8.0
p313
sVLemma
p314
g73
sVCharacterOffsetEnd
p315
V74
p316
sVPartOfSpeech
p317
VCD
p318
sVCharacterOffsetBegin
p319
V73
p320
sVNamedEntityTag
p321
VNUMBER
p322
saa(lp323
Vbuses
p324
a(dp325
VNamedEntityTag
p326
g60
sVCharacterOffsetEnd
p327
V80
p328
sVCharacterOffsetBegin
p329
V75
p330
sVPartOfSpeech
p331
VNNS
p332
sVLemma
p333
Vbus
p334
saa(lp335
g175
a(dp336
VNamedEntityTag
p337
g60
sVCharacterOffsetEnd
p338
V82
p339
sVCharacterOffsetBegin
p340
V81
p341
sVPartOfSpeech
p342
g175
sVLemma
p343
g175
saasVindexeddependencies
p344
(lp345
(lp346
Vroot
p347
aVROOT-0
p348
aVtook-2
p349
aa(lp350
Vnsubj
p351
aVtook-2
p352
aVThey-1
p353
aa(lp354
Vnum
p355
aVvans-4
p356
aV6-3
p357
aa(lp358
Vdobj
p359
aVtook-2
p360
aVvans-4
p361
aa(lp362
Vnum
p363
aVbuses-7
p364
aV8-6
p365
aa(lp366
Vconj_and
p367
aVvans-4
p368
aVbuses-7
p369
aasa(dp370
Vparsetree
p371
V(ROOT (S (NP (EX There)) (VP (VBD were) (NP (NP (NP (CD 6) (NNS people)) (PP (IN in) (NP (DT each) (NN van)))) (CC and) (NP (NP (CD 18) (NNS people)) (PP (IN in) (NP (DT each) (NN bus)))))) (. .)))
p372
sVtext
p373
VThere were 6 people in each van and 18 people in each bus .
p374
sVdependencies
p375
(lp376
(lp377
Vroot
p378
aVROOT
p379
aVwere
p380
aa(lp381
Vexpl
p382
aVwere
p383
aVThere
p384
aa(lp385
Vnum
p386
aVpeople
p387
ag12
aa(lp388
Vnsubj
p389
aVwere
p390
aVpeople
p391
aa(lp392
Vdet
p393
aVvan
p394
aVeach
p395
aa(lp396
Vprep_in
p397
aVpeople
p398
aVvan
p399
aa(lp400
Vnum
p401
aVpeople
p402
aV18
p403
aa(lp404
Vconj_and
p405
aVpeople
p406
aVpeople
p407
aa(lp408
Vdet
p409
aVbus
p410
aVeach
p411
aa(lp412
Vprep_in
p413
aVpeople
p414
aVbus
p415
aasVwords
p416
(lp417
(lp418
VThere
p419
a(dp420
VNamedEntityTag
p421
g60
sVCharacterOffsetEnd
p422
V88
p423
sVCharacterOffsetBegin
p424
V83
p425
sVPartOfSpeech
p426
VEX
p427
sVLemma
p428
Vthere
p429
saa(lp430
Vwere
p431
a(dp432
VNamedEntityTag
p433
g60
sVCharacterOffsetEnd
p434
V93
p435
sVCharacterOffsetBegin
p436
V89
p437
sVPartOfSpeech
p438
VVBD
p439
sVLemma
p440
Vbe
p441
saa(lp442
g12
a(dp443
VNormalizedNamedEntityTag
p444
V6.0
p445
sVLemma
p446
g12
sVCharacterOffsetEnd
p447
V95
p448
sVPartOfSpeech
p449
VCD
p450
sVCharacterOffsetBegin
p451
V94
p452
sVNamedEntityTag
p453
VNUMBER
p454
saa(lp455
Vpeople
p456
a(dp457
VNamedEntityTag
p458
g60
sVCharacterOffsetEnd
p459
V102
p460
sVCharacterOffsetBegin
p461
V96
p462
sVPartOfSpeech
p463
VNNS
p464
sVLemma
p465
Vpeople
p466
saa(lp467
Vin
p468
a(dp469
VNamedEntityTag
p470
g60
sVCharacterOffsetEnd
p471
V105
p472
sVCharacterOffsetBegin
p473
V103
p474
sVPartOfSpeech
p475
VIN
p476
sVLemma
p477
Vin
p478
saa(lp479
Veach
p480
a(dp481
VNamedEntityTag
p482
g60
sVCharacterOffsetEnd
p483
V110
p484
sVCharacterOffsetBegin
p485
V106
p486
sVPartOfSpeech
p487
VDT
p488
sVLemma
p489
Veach
p490
saa(lp491
Vvan
p492
a(dp493
VNamedEntityTag
p494
g60
sVCharacterOffsetEnd
p495
V114
p496
sVCharacterOffsetBegin
p497
V111
p498
sVPartOfSpeech
p499
VNN
p500
sVLemma
p501
Vvan
p502
saa(lp503
Vand
p504
a(dp505
VNamedEntityTag
p506
g60
sVCharacterOffsetEnd
p507
V118
p508
sVCharacterOffsetBegin
p509
V115
p510
sVPartOfSpeech
p511
VCC
p512
sVLemma
p513
Vand
p514
saa(lp515
V18
p516
a(dp517
VNormalizedNamedEntityTag
p518
V18.0
p519
sVLemma
p520
V18
p521
sVCharacterOffsetEnd
p522
V121
p523
sVPartOfSpeech
p524
VCD
p525
sVCharacterOffsetBegin
p526
V119
p527
sVNamedEntityTag
p528
VNUMBER
p529
saa(lp530
Vpeople
p531
a(dp532
VNamedEntityTag
p533
g60
sVCharacterOffsetEnd
p534
V128
p535
sVCharacterOffsetBegin
p536
V122
p537
sVPartOfSpeech
p538
VNNS
p539
sVLemma
p540
Vpeople
p541
saa(lp542
Vin
p543
a(dp544
VNamedEntityTag
p545
g60
sVCharacterOffsetEnd
p546
V131
p547
sVCharacterOffsetBegin
p548
V129
p549
sVPartOfSpeech
p550
VIN
p551
sVLemma
p552
Vin
p553
saa(lp554
Veach
p555
a(dp556
VNamedEntityTag
p557
g60
sVCharacterOffsetEnd
p558
V136
p559
sVCharacterOffsetBegin
p560
V132
p561
sVPartOfSpeech
p562
VDT
p563
sVLemma
p564
Veach
p565
saa(lp566
Vbus
p567
a(dp568
VNamedEntityTag
p569
g60
sVCharacterOffsetEnd
p570
V140
p571
sVCharacterOffsetBegin
p572
V137
p573
sVPartOfSpeech
p574
VNN
p575
sVLemma
p576
Vbus
p577
saa(lp578
g175
a(dp579
VNamedEntityTag
p580
g60
sVCharacterOffsetEnd
p581
V142
p582
sVCharacterOffsetBegin
p583
V141
p584
sVPartOfSpeech
p585
g175
sVLemma
p586
g175
saasVindexeddependencies
p587
(lp588
(lp589
Vroot
p590
aVROOT-0
p591
aVwere-2
p592
aa(lp593
Vexpl
p594
aVwere-2
p595
aVThere-1
p596
aa(lp597
Vnum
p598
aVpeople-4
p599
aV6-3
p600
aa(lp601
Vnsubj
p602
aVwere-2
p603
aVpeople-4
p604
aa(lp605
Vdet
p606
aVvan-7
p607
aVeach-6
p608
aa(lp609
Vprep_in
p610
aVpeople-4
p611
aVvan-7
p612
aa(lp613
Vnum
p614
aVpeople-10
p615
aV18-9
p616
aa(lp617
Vconj_and
p618
aVpeople-4
p619
aVpeople-10
p620
aa(lp621
Vdet
p622
aVbus-13
p623
aVeach-12
p624
aa(lp625
Vprep_in
p626
aVpeople-10
p627
aVbus-13
p628
aasa(dp629
Vparsetree
p630
V(ROOT (SBARQ (WHNP (WHADJP (WRB How) (JJ many)) (NNS people)) (SQ (VP (VBD went) (PP (IN on) (NP (DT the) (NN field) (NN trip))))) (. ?)))
p631
sVtext
p632
VHow many people went on the field trip ?
p633
sVdependencies
p634
(lp635
(lp636
Vroot
p637
aVROOT
p638
aVwent
p639
aa(lp640
Vadvmod
p641
aVmany
p642
aVHow
p643
aa(lp644
Vamod
p645
aVpeople
p646
aVmany
p647
aa(lp648
Vnsubj
p649
aVwent
p650
aVpeople
p651
aa(lp652
Vdet
p653
aVtrip
p654
aVthe
p655
aa(lp656
Vnn
p657
aVtrip
p658
aVfield
p659
aa(lp660
Vprep_on
p661
aVwent
p662
aVtrip
p663
aasVwords
p664
(lp665
(lp666
VHow
p667
a(dp668
VNamedEntityTag
p669
g60
sVCharacterOffsetEnd
p670
V146
p671
sVCharacterOffsetBegin
p672
V143
p673
sVPartOfSpeech
p674
VWRB
p675
sVLemma
p676
Vhow
p677
saa(lp678
Vmany
p679
a(dp680
VNamedEntityTag
p681
g60
sVCharacterOffsetEnd
p682
V151
p683
sVCharacterOffsetBegin
p684
V147
p685
sVPartOfSpeech
p686
VJJ
p687
sVLemma
p688
Vmany
p689
saa(lp690
Vpeople
p691
a(dp692
VNamedEntityTag
p693
g60
sVCharacterOffsetEnd
p694
V158
p695
sVCharacterOffsetBegin
p696
V152
p697
sVPartOfSpeech
p698
VNNS
p699
sVLemma
p700
Vpeople
p701
saa(lp702
Vwent
p703
a(dp704
VNamedEntityTag
p705
g60
sVCharacterOffsetEnd
p706
V163
p707
sVCharacterOffsetBegin
p708
V159
p709
sVPartOfSpeech
p710
VVBD
p711
sVLemma
p712
Vgo
p713
saa(lp714
Von
p715
a(dp716
VNamedEntityTag
p717
g60
sVCharacterOffsetEnd
p718
V166
p719
sVCharacterOffsetBegin
p720
V164
p721
sVPartOfSpeech
p722
VIN
p723
sVLemma
p724
Von
p725
saa(lp726
Vthe
p727
a(dp728
VNamedEntityTag
p729
g60
sVCharacterOffsetEnd
p730
V170
p731
sVCharacterOffsetBegin
p732
V167
p733
sVPartOfSpeech
p734
VDT
p735
sVLemma
p736
Vthe
p737
saa(lp738
Vfield
p739
a(dp740
VNamedEntityTag
p741
g60
sVCharacterOffsetEnd
p742
V176
p743
sVCharacterOffsetBegin
p744
V171
p745
sVPartOfSpeech
p746
VNN
p747
sVLemma
p748
Vfield
p749
saa(lp750
Vtrip
p751
a(dp752
VNamedEntityTag
p753
g60
sVCharacterOffsetEnd
p754
V181
p755
sVCharacterOffsetBegin
p756
V177
p757
sVPartOfSpeech
p758
VNN
p759
sVLemma
p760
Vtrip
p761
saa(lp762
V?
p763
a(dp764
VNamedEntityTag
p765
g60
sVCharacterOffsetEnd
p766
V183
p767
sVCharacterOffsetBegin
p768
V182
p769
sVPartOfSpeech
p770
g175
sVLemma
p771
g763
saasVindexeddependencies
p772
(lp773
(lp774
Vroot
p775
aVROOT-0
p776
aVwent-4
p777
aa(lp778
Vadvmod
p779
aVmany-2
p780
aVHow-1
p781
aa(lp782
Vamod
p783
aVpeople-3
p784
aVmany-2
p785
aa(lp786
Vnsubj
p787
aVwent-4
p788
aVpeople-3
p789
aa(lp790
Vdet
p791
aVtrip-8
p792
aVthe-6
p793
aa(lp794
Vnn
p795
aVtrip-8
p796
aVfield-7
p797
aa(lp798
Vprep_on
p799
aVwent-4
p800
aVtrip-8
p801
aasas.