(dp0
Vcoref
p1
(lp2
(lp3
(lp4
(lp5
V5 ounces
p6
aI0
aI14
aI13
aI15
aa(lp7
Vthe average serving size of beef at restaurants
p8
aI0
aI5
aI4
aI12
aaaa(lp9
(lp10
(lp11
V8 ounces
p12
aI1
aI13
aI12
aI14
aa(lp13
Vthe average serving size
p14
aI1
aI7
aI6
aI10
aaa(lp15
(lp16
Vthe average
p17
aI2
aI8
aI7
aI9
aa(lp18
Vthe average serving size
p19
aI1
aI7
aI6
aI10
aaaasVsentences
p20
(lp21
(dp22
Vparsetree
p23
V(ROOT (S (ADVP (NP (JJ Several) (NNS years)) (RB ago)) (, ,) (NP (NP (DT the) (JJ average)) (VP (VBG serving) (NP (NP (NN size)) (PP (IN of) (NP (NN beef)))) (PP (IN at) (NP (NNS restaurants))))) (VP (VBD was) (NP (CD 5) (NNS ounces))) (. .)))
p24
sVtext
p25
VSeveral years ago , the average serving size of beef at restaurants was 5 ounces .
p26
sVdependencies
p27
(lp28
(lp29
Vroot
p30
aVROOT
p31
aVounces
p32
aa(lp33
Vamod
p34
aVyears
p35
aVSeveral
p36
aa(lp37
Vnpadvmod
p38
aVago
p39
aVyears
p40
aa(lp41
Vadvmod
p42
aVounces
p43
aVago
p44
aa(lp45
Vdet
p46
aVaverage
p47
aVthe
p48
aa(lp49
Vnsubj
p50
aVounces
p51
aVaverage
p52
aa(lp53
Vvmod
p54
aVaverage
p55
aVserving
p56
aa(lp57
Vdobj
p58
aVserving
p59
aVsize
p60
aa(lp61
Vprep_of
p62
aVsize
p63
aVbeef
p64
aa(lp65
Vprep_at
p66
aVserving
p67
aVrestaurants
p68
aa(lp69
Vcop
p70
aVounces
p71
aVwas
p72
aa(lp73
Vnum
p74
aVounces
p75
aV5
p76
aasVwords
p77
(lp78
(lp79
VSeveral
p80
a(dp81
VNormalizedNamedEntityTag
p82
VOFFSET
p83
sVTimex
p84
V<TIMEX3 alt_value="OFFSET P-1Y" anchorTimeID="t0" temporalFunction="true" tid="t1" type="DATE" valueFromFunction="tf0">Several years ago</TIMEX3>
p85
sVLemma
p86
Vseveral
p87
sVCharacterOffsetEnd
p88
V8
p89
sVPartOfSpeech
p90
VJJ
p91
sVCharacterOffsetBegin
p92
V1
p93
sVNamedEntityTag
p94
VDATE
p95
saa(lp96
Vyears
p97
a(dp98
VNormalizedNamedEntityTag
p99
VOFFSET
p100
sVTimex
p101
V<TIMEX3 alt_value="OFFSET P-1Y" anchorTimeID="t0" temporalFunction="true" tid="t1" type="DATE" valueFromFunction="tf0">Several years ago</TIMEX3>
p102
sVLemma
p103
Vyear
p104
sVCharacterOffsetEnd
p105
V14
p106
sVPartOfSpeech
p107
VNNS
p108
sVCharacterOffsetBegin
p109
V9
p110
sVNamedEntityTag
p111
VDATE
p112
saa(lp113
Vago
p114
a(dp115
VNormalizedNamedEntityTag
p116
VOFFSET
p117
sVTimex
p118
V<TIMEX3 alt_value="OFFSET P-1Y" anchorTimeID="t0" temporalFunction="true" tid="t1" type="DATE" valueFromFunction="tf0">Several years ago</TIMEX3>
p119
sVLemma
p120
Vago
p121
sVCharacterOffsetEnd
p122
V18
p123
sVPartOfSpeech
p124
VRB
p125
sVCharacterOffsetBegin
p126
V15
p127
sVNamedEntityTag
p128
VDATE
p129
saa(lp130
V,
p131
a(dp132
VNamedEntityTag
p133
VO
p134
sVCharacterOffsetEnd
p135
V20
p136
sVCharacterOffsetBegin
p137
V19
p138
sVPartOfSpeech
p139
g131
sVLemma
p140
g131
saa(lp141
Vthe
p142
a(dp143
VNamedEntityTag
p144
g134
sVCharacterOffsetEnd
p145
V24
p146
sVCharacterOffsetBegin
p147
V21
p148
sVPartOfSpeech
p149
VDT
p150
sVLemma
p151
Vthe
p152
saa(lp153
Vaverage
p154
a(dp155
VNamedEntityTag
p156
g134
sVCharacterOffsetEnd
p157
V32
p158
sVCharacterOffsetBegin
p159
V25
p160
sVPartOfSpeech
p161
VJJ
p162
sVLemma
p163
Vaverage
p164
saa(lp165
Vserving
p166
a(dp167
VNamedEntityTag
p168
g134
sVCharacterOffsetEnd
p169
V40
p170
sVCharacterOffsetBegin
p171
V33
p172
sVPartOfSpeech
p173
VVBG
p174
sVLemma
p175
Vserve
p176
saa(lp177
Vsize
p178
a(dp179
VNamedEntityTag
p180
g134
sVCharacterOffsetEnd
p181
V45
p182
sVCharacterOffsetBegin
p183
V41
p184
sVPartOfSpeech
p185
VNN
p186
sVLemma
p187
Vsize
p188
saa(lp189
Vof
p190
a(dp191
VNamedEntityTag
p192
g134
sVCharacterOffsetEnd
p193
V48
p194
sVCharacterOffsetBegin
p195
V46
p196
sVPartOfSpeech
p197
VIN
p198
sVLemma
p199
Vof
p200
saa(lp201
Vbeef
p202
a(dp203
VNamedEntityTag
p204
g134
sVCharacterOffsetEnd
p205
V53
p206
sVCharacterOffsetBegin
p207
V49
p208
sVPartOfSpeech
p209
VNN
p210
sVLemma
p211
Vbeef
p212
saa(lp213
Vat
p214
a(dp215
VNamedEntityTag
p216
g134
sVCharacterOffsetEnd
p217
V56
p218
sVCharacterOffsetBegin
p219
V54
p220
sVPartOfSpeech
p221
VIN
p222
sVLemma
p223
Vat
p224
saa(lp225
Vrestaurants
p226
a(dp227
VNamedEntityTag
p228
g134
sVCharacterOffsetEnd
p229
V68
p230
sVCharacterOffsetBegin
p231
V57
p232
sVPartOfSpeech
p233
VNNS
p234
sVLemma
p235
Vrestaurant
p236
saa(lp237
Vwas
p238
a(dp239
VNamedEntityTag
p240
g134
sVCharacterOffsetEnd
p241
V72
p242
sVCharacterOffsetBegin
p243
V69
p244
sVPartOfSpeech
p245
VVBD
p246
sVLemma
p247
Vbe
p248
saa(lp249
g76
a(dp250
VNormalizedNamedEntityTag
p251
V5.0
p252
sVLemma
p253
g76
sVCharacterOffsetEnd
p254
V74
p255
sVPartOfSpeech
p256
VCD
p257
sVCharacterOffsetBegin
p258
V73
p259
sVNamedEntityTag
p260
VNUMBER
p261
saa(lp262
Vounces
p263
a(dp264
VNamedEntityTag
p265
g134
sVCharacterOffsetEnd
p266
V81
p267
sVCharacterOffsetBegin
p268
V75
p269
sVPartOfSpeech
p270
VNNS
p271
sVLemma
p272
Vounce
p273
saa(lp274
V.
p275
a(dp276
VNamedEntityTag
p277
g134
sVCharacterOffsetEnd
p278
V83
p279
sVCharacterOffsetBegin
p280
V82
p281
sVPartOfSpeech
p282
g275
sVLemma
p283
g275
saasVindexeddependencies
p284
(lp285
(lp286
Vroot
p287
aVROOT-0
p288
aVounces-15
p289
aa(lp290
Vamod
p291
aVyears-2
p292
aVSeveral-1
p293
aa(lp294
Vnpadvmod
p295
aVago-3
p296
aVyears-2
p297
aa(lp298
Vadvmod
p299
aVounces-15
p300
aVago-3
p301
aa(lp302
Vdet
p303
aVaverage-6
p304
aVthe-5
p305
aa(lp306
Vnsubj
p307
aVounces-15
p308
aVaverage-6
p309
aa(lp310
Vvmod
p311
aVaverage-6
p312
aVserving-7
p313
aa(lp314
Vdobj
p315
aVserving-7
p316
aVsize-8
p317
aa(lp318
Vprep_of
p319
aVsize-8
p320
aVbeef-10
p321
aa(lp322
Vprep_at
p323
aVserving-7
p324
aVrestaurants-12
p325
aa(lp326
Vcop
p327
aVounces-15
p328
aVwas-13
p329
aa(lp330
Vnum
p331
aVounces-15
p332
aV5-14
p333
aasa(dp334
Vparsetree
p335
V(ROOT (S (PP (JJ Due) (TO to) (NP (NP (VBG changing) (NN restaurant)) (NP (NNS trends)))) (, ,) (NP (NP (DT the) (JJ average)) (VP (VBG serving) (NP (NN size)))) (VP (VBZ is) (ADVP (RB now)) (NP (CD 8) (NNS ounces))) (. .)))
p336
sVtext
p337
VDue to changing restaurant trends , the average serving size is now 8 ounces .
p338
sVdependencies
p339
(lp340
(lp341
Vroot
p342
aVROOT
p343
aVounces
p344
aa(lp345
Vamod
p346
aVrestaurant
p347
aVchanging
p348
aa(lp349
Vprep_due_to
p350
aVounces
p351
aVrestaurant
p352
aa(lp353
Vdep
p354
aVrestaurant
p355
aVtrends
p356
aa(lp357
Vdet
p358
aVaverage
p359
aVthe
p360
aa(lp361
Vnsubj
p362
aVounces
p363
aVaverage
p364
aa(lp365
Vvmod
p366
aVaverage
p367
aVserving
p368
aa(lp369
Vdobj
p370
aVserving
p371
aVsize
p372
aa(lp373
Vcop
p374
aVounces
p375
aVis
p376
aa(lp377
Vadvmod
p378
aVounces
p379
aVnow
p380
aa(lp381
Vnum
p382
aVounces
p383
ag89
aasVwords
p384
(lp385
(lp386
VDue
p387
a(dp388
VNamedEntityTag
p389
g134
sVCharacterOffsetEnd
p390
V87
p391
sVCharacterOffsetBegin
p392
V84
p393
sVPartOfSpeech
p394
VJJ
p395
sVLemma
p396
Vdue
p397
saa(lp398
Vto
p399
a(dp400
VNamedEntityTag
p401
g134
sVCharacterOffsetEnd
p402
V90
p403
sVCharacterOffsetBegin
p404
V88
p405
sVPartOfSpeech
p406
VTO
p407
sVLemma
p408
Vto
p409
saa(lp410
Vchanging
p411
a(dp412
VNamedEntityTag
p413
g134
sVCharacterOffsetEnd
p414
V99
p415
sVCharacterOffsetBegin
p416
V91
p417
sVPartOfSpeech
p418
VVBG
p419
sVLemma
p420
Vchange
p421
saa(lp422
Vrestaurant
p423
a(dp424
VNamedEntityTag
p425
g134
sVCharacterOffsetEnd
p426
V110
p427
sVCharacterOffsetBegin
p428
V100
p429
sVPartOfSpeech
p430
VNN
p431
sVLemma
p432
Vrestaurant
p433
saa(lp434
Vtrends
p435
a(dp436
VNamedEntityTag
p437
g134
sVCharacterOffsetEnd
p438
V117
p439
sVCharacterOffsetBegin
p440
V111
p441
sVPartOfSpeech
p442
VNNS
p443
sVLemma
p444
Vtrend
p445
saa(lp446
g131
a(dp447
VNamedEntityTag
p448
g134
sVCharacterOffsetEnd
p449
V119
p450
sVCharacterOffsetBegin
p451
V118
p452
sVPartOfSpeech
p453
g131
sVLemma
p454
g131
saa(lp455
Vthe
p456
a(dp457
VNamedEntityTag
p458
g134
sVCharacterOffsetEnd
p459
V123
p460
sVCharacterOffsetBegin
p461
V120
p462
sVPartOfSpeech
p463
VDT
p464
sVLemma
p465
Vthe
p466
saa(lp467
Vaverage
p468
a(dp469
VNamedEntityTag
p470
g134
sVCharacterOffsetEnd
p471
V131
p472
sVCharacterOffsetBegin
p473
V124
p474
sVPartOfSpeech
p475
VJJ
p476
sVLemma
p477
Vaverage
p478
saa(lp479
Vserving
p480
a(dp481
VNamedEntityTag
p482
g134
sVCharacterOffsetEnd
p483
V139
p484
sVCharacterOffsetBegin
p485
V132
p486
sVPartOfSpeech
p487
VVBG
p488
sVLemma
p489
Vserve
p490
saa(lp491
Vsize
p492
a(dp493
VNamedEntityTag
p494
g134
sVCharacterOffsetEnd
p495
V144
p496
sVCharacterOffsetBegin
p497
V140
p498
sVPartOfSpeech
p499
VNN
p500
sVLemma
p501
Vsize
p502
saa(lp503
Vis
p504
a(dp505
VNamedEntityTag
p506
g134
sVCharacterOffsetEnd
p507
V147
p508
sVCharacterOffsetBegin
p509
V145
p510
sVPartOfSpeech
p511
VVBZ
p512
sVLemma
p513
Vbe
p514
saa(lp515
Vnow
p516
a(dp517
VNormalizedNamedEntityTag
p518
VPRESENT_REF
p519
sVTimex
p520
V<TIMEX3 tid="t2" type="DATE" value="PRESENT_REF">now</TIMEX3>
p521
sVLemma
p522
Vnow
p523
sVCharacterOffsetEnd
p524
V151
p525
sVPartOfSpeech
p526
VRB
p527
sVCharacterOffsetBegin
p528
V148
p529
sVNamedEntityTag
p530
VDATE
p531
saa(lp532
g89
a(dp533
VNormalizedNamedEntityTag
p534
V8.0
p535
sVLemma
p536
g89
sVCharacterOffsetEnd
p537
V153
p538
sVPartOfSpeech
p539
VCD
p540
sVCharacterOffsetBegin
p541
V152
p542
sVNamedEntityTag
p543
VNUMBER
p544
saa(lp545
Vounces
p546
a(dp547
VNamedEntityTag
p548
g134
sVCharacterOffsetEnd
p549
V160
p550
sVCharacterOffsetBegin
p551
V154
p552
sVPartOfSpeech
p553
VNNS
p554
sVLemma
p555
Vounce
p556
saa(lp557
g275
a(dp558
VNamedEntityTag
p559
g134
sVCharacterOffsetEnd
p560
V162
p561
sVCharacterOffsetBegin
p562
V161
p563
sVPartOfSpeech
p564
g275
sVLemma
p565
g275
saasVindexeddependencies
p566
(lp567
(lp568
Vroot
p569
aVROOT-0
p570
aVounces-14
p571
aa(lp572
Vamod
p573
aVrestaurant-4
p574
aVchanging-3
p575
aa(lp576
Vprep_due_to
p577
aVounces-14
p578
aVrestaurant-4
p579
aa(lp580
Vdep
p581
aVrestaurant-4
p582
aVtrends-5
p583
aa(lp584
Vdet
p585
aVaverage-8
p586
aVthe-7
p587
aa(lp588
Vnsubj
p589
aVounces-14
p590
aVaverage-8
p591
aa(lp592
Vvmod
p593
aVaverage-8
p594
aVserving-9
p595
aa(lp596
Vdobj
p597
aVserving-9
p598
aVsize-10
p599
aa(lp600
Vcop
p601
aVounces-14
p602
aVis-11
p603
aa(lp604
Vadvmod
p605
aVounces-14
p606
aVnow-12
p607
aa(lp608
Vnum
p609
aVounces-14
p610
aV8-13
p611
aasa(dp612
Vparsetree
p613
V(ROOT (SBARQ (WHNP (WP What)) (SQ (VBZ is) (NP (NP (DT the) (NNS times)) (PP (IN of) (NP (NP (NN increase)) (PP (IN in) (NP (DT the) (JJ average)))))) (VP (VBG serving) (NP (NN size)))) (. ?)))
p614
sVtext
p615
VWhat is the times of increase in the average serving size ?
p616
sVdependencies
p617
(lp618
(lp619
Vroot
p620
aVROOT
p621
aVserving
p622
aa(lp623
Vdep
p624
aVserving
p625
aVWhat
p626
aa(lp627
Vaux
p628
aVserving
p629
aVis
p630
aa(lp631
Vdet
p632
aVtimes
p633
aVthe
p634
aa(lp635
Vnsubj
p636
aVserving
p637
aVtimes
p638
aa(lp639
Vprep_of
p640
aVtimes
p641
aVincrease
p642
aa(lp643
Vdet
p644
aVaverage
p645
aVthe
p646
aa(lp647
Vprep_in
p648
aVincrease
p649
aVaverage
p650
aa(lp651
Vdobj
p652
aVserving
p653
aVsize
p654
aasVwords
p655
(lp656
(lp657
VWhat
p658
a(dp659
VNamedEntityTag
p660
g134
sVCharacterOffsetEnd
p661
V167
p662
sVCharacterOffsetBegin
p663
V163
p664
sVPartOfSpeech
p665
VWP
p666
sVLemma
p667
Vwhat
p668
saa(lp669
Vis
p670
a(dp671
VNamedEntityTag
p672
g134
sVCharacterOffsetEnd
p673
V170
p674
sVCharacterOffsetBegin
p675
V168
p676
sVPartOfSpeech
p677
VVBZ
p678
sVLemma
p679
Vbe
p680
saa(lp681
Vthe
p682
a(dp683
VNamedEntityTag
p684
g134
sVCharacterOffsetEnd
p685
V174
p686
sVCharacterOffsetBegin
p687
V171
p688
sVPartOfSpeech
p689
VDT
p690
sVLemma
p691
Vthe
p692
saa(lp693
Vtimes
p694
a(dp695
VNamedEntityTag
p696
g134
sVCharacterOffsetEnd
p697
V180
p698
sVCharacterOffsetBegin
p699
V175
p700
sVPartOfSpeech
p701
VNNS
p702
sVLemma
p703
Vtime
p704
saa(lp705
Vof
p706
a(dp707
VNamedEntityTag
p708
g134
sVCharacterOffsetEnd
p709
V183
p710
sVCharacterOffsetBegin
p711
V181
p712
sVPartOfSpeech
p713
VIN
p714
sVLemma
p715
Vof
p716
saa(lp717
Vincrease
p718
a(dp719
VNamedEntityTag
p720
g134
sVCharacterOffsetEnd
p721
V192
p722
sVCharacterOffsetBegin
p723
V184
p724
sVPartOfSpeech
p725
VNN
p726
sVLemma
p727
Vincrease
p728
saa(lp729
Vin
p730
a(dp731
VNamedEntityTag
p732
g134
sVCharacterOffsetEnd
p733
V195
p734
sVCharacterOffsetBegin
p735
V193
p736
sVPartOfSpeech
p737
VIN
p738
sVLemma
p739
Vin
p740
saa(lp741
Vthe
p742
a(dp743
VNamedEntityTag
p744
g134
sVCharacterOffsetEnd
p745
V199
p746
sVCharacterOffsetBegin
p747
V196
p748
sVPartOfSpeech
p749
VDT
p750
sVLemma
p751
Vthe
p752
saa(lp753
Vaverage
p754
a(dp755
VNamedEntityTag
p756
g134
sVCharacterOffsetEnd
p757
V207
p758
sVCharacterOffsetBegin
p759
V200
p760
sVPartOfSpeech
p761
VJJ
p762
sVLemma
p763
Vaverage
p764
saa(lp765
Vserving
p766
a(dp767
VNamedEntityTag
p768
g134
sVCharacterOffsetEnd
p769
V215
p770
sVCharacterOffsetBegin
p771
V208
p772
sVPartOfSpeech
p773
VVBG
p774
sVLemma
p775
Vserve
p776
saa(lp777
Vsize
p778
a(dp779
VNamedEntityTag
p780
g134
sVCharacterOffsetEnd
p781
V220
p782
sVCharacterOffsetBegin
p783
V216
p784
sVPartOfSpeech
p785
VNN
p786
sVLemma
p787
Vsize
p788
saa(lp789
V?
p790
a(dp791
VNamedEntityTag
p792
g134
sVCharacterOffsetEnd
p793
V222
p794
sVCharacterOffsetBegin
p795
V221
p796
sVPartOfSpeech
p797
g275
sVLemma
p798
g790
saasVindexeddependencies
p799
(lp800
(lp801
Vroot
p802
aVROOT-0
p803
aVserving-10
p804
aa(lp805
Vdep
p806
aVserving-10
p807
aVWhat-1
p808
aa(lp809
Vaux
p810
aVserving-10
p811
aVis-2
p812
aa(lp813
Vdet
p814
aVtimes-4
p815
aVthe-3
p816
aa(lp817
Vnsubj
p818
aVserving-10
p819
aVtimes-4
p820
aa(lp821
Vprep_of
p822
aVtimes-4
p823
aVincrease-6
p824
aa(lp825
Vdet
p826
aVaverage-9
p827
aVthe-8
p828
aa(lp829
Vprep_in
p830
aVincrease-6
p831
aVaverage-9
p832
aa(lp833
Vdobj
p834
aVserving-10
p835
aVsize-11
p836
aasas.