(dp0
Vcoref
p1
(lp2
(lp3
(lp4
(lp5
VShe
p6
aI1
aI0
aI0
aI1
aa(lp7
VKylie
p8
aI0
aI0
aI0
aI1
aaa(lp9
(lp10
Vher
p11
aI1
aI5
aI5
aI6
aa(lp12
VKylie
p13
aI0
aI0
aI0
aI1
aaa(lp14
(lp15
Vher
p16
aI1
aI12
aI12
aI13
aa(lp17
VKylie
p18
aI0
aI0
aI0
aI1
aaa(lp19
(lp20
VHer
p21
aI2
aI0
aI0
aI1
aa(lp22
VKylie
p23
aI0
aI0
aI0
aI1
aaa(lp24
(lp25
VKylie
p26
aI2
aI3
aI3
aI4
aa(lp27
VKylie
p28
aI0
aI0
aI0
aI1
aaa(lp29
(lp30
VKylie
p31
aI3
aI0
aI0
aI1
aa(lp32
VKylie
p33
aI0
aI0
aI0
aI1
aaa(lp34
(lp35
Vher
p36
aI3
aI7
aI7
aI8
aa(lp37
VKylie
p38
aI0
aI0
aI0
aI1
aaa(lp39
(lp40
VKylie
p41
aI4
aI4
aI4
aI5
aa(lp42
VKylie
p43
aI0
aI0
aI0
aI1
aaaa(lp44
(lp45
(lp46
Vthe coins
p47
aI3
aI5
aI4
aI6
aa(lp48
V8 coins
p49
aI2
aI5
aI4
aI6
aaaasVsentences
p50
(lp51
(dp52
Vparsetree
p53
V(ROOT (S (NP (NNP Kylie)) (VP (VBD was) (VP (VBG collecting) (NP (NNS coins)))) (. .)))
p54
sVtext
p55
VKylie was collecting coins .
p56
sVdependencies
p57
(lp58
(lp59
Vroot
p60
aVROOT
p61
aVcollecting
p62
aa(lp63
Vnsubj
p64
aVcollecting
p65
aVKylie
p66
aa(lp67
Vaux
p68
aVcollecting
p69
aVwas
p70
aa(lp71
Vdobj
p72
aVcollecting
p73
aVcoins
p74
aasVwords
p75
(lp76
(lp77
VKylie
p78
a(dp79
VNamedEntityTag
p80
VPERSON
p81
sVCharacterOffsetEnd
p82
V6
p83
sVCharacterOffsetBegin
p84
V1
p85
sVPartOfSpeech
p86
VNNP
p87
sVLemma
p88
VKylie
p89
saa(lp90
Vwas
p91
a(dp92
VNamedEntityTag
p93
VO
p94
sVCharacterOffsetEnd
p95
V10
p96
sVCharacterOffsetBegin
p97
V7
p98
sVPartOfSpeech
p99
VVBD
p100
sVLemma
p101
Vbe
p102
saa(lp103
Vcollecting
p104
a(dp105
VNamedEntityTag
p106
g94
sVCharacterOffsetEnd
p107
V21
p108
sVCharacterOffsetBegin
p109
V11
p110
sVPartOfSpeech
p111
VVBG
p112
sVLemma
p113
Vcollect
p114
saa(lp115
Vcoins
p116
a(dp117
VNamedEntityTag
p118
g94
sVCharacterOffsetEnd
p119
V27
p120
sVCharacterOffsetBegin
p121
V22
p122
sVPartOfSpeech
p123
VNNS
p124
sVLemma
p125
Vcoin
p126
saa(lp127
V.
p128
a(dp129
VNamedEntityTag
p130
g94
sVCharacterOffsetEnd
p131
V29
p132
sVCharacterOffsetBegin
p133
V28
p134
sVPartOfSpeech
p135
g128
sVLemma
p136
g128
saasVindexeddependencies
p137
(lp138
(lp139
Vroot
p140
aVROOT-0
p141
aVcollecting-3
p142
aa(lp143
Vnsubj
p144
aVcollecting-3
p145
aVKylie-1
p146
aa(lp147
Vaux
p148
aVcollecting-3
p149
aVwas-2
p150
aa(lp151
Vdobj
p152
aVcollecting-3
p153
aVcoins-4
p154
aasa(dp155
Vparsetree
p156
V(ROOT (S (NP (PRP She)) (VP (VBD got) (NP (CD 15) (NNS coins)) (PP (IN from) (NP (NP (PRP$ her) (NN piggy) (NN bank)) (CC and) (NP (CD 13) (NNS coins)))) (PP (IN from) (NP (PRP$ her) (NN brother)))) (. .)))
p157
sVtext
p158
VShe got 15 coins from her piggy bank and 13 coins from her brother .
p159
sVdependencies
p160
(lp161
(lp162
Vroot
p163
aVROOT
p164
aVgot
p165
aa(lp166
Vnsubj
p167
aVgot
p168
aVShe
p169
aa(lp170
Vnum
p171
aVcoins
p172
aV15
p173
aa(lp174
Vdobj
p175
aVgot
p176
aVcoins
p177
aa(lp178
Vposs
p179
aVbank
p180
aVher
p181
aa(lp182
Vnn
p183
aVbank
p184
aVpiggy
p185
aa(lp186
Vprep_from
p187
aVgot
p188
aVbank
p189
aa(lp190
Vnum
p191
aVcoins
p192
aV13
p193
aa(lp194
Vconj_and
p195
aVbank
p196
aVcoins
p197
aa(lp198
Vposs
p199
aVbrother
p200
aVher
p201
aa(lp202
Vprep_from
p203
aVgot
p204
aVbrother
p205
aasVwords
p206
(lp207
(lp208
VShe
p209
a(dp210
VNamedEntityTag
p211
g94
sVCharacterOffsetEnd
p212
V33
p213
sVCharacterOffsetBegin
p214
V30
p215
sVPartOfSpeech
p216
VPRP
p217
sVLemma
p218
Vshe
p219
saa(lp220
Vgot
p221
a(dp222
VNamedEntityTag
p223
g94
sVCharacterOffsetEnd
p224
V37
p225
sVCharacterOffsetBegin
p226
V34
p227
sVPartOfSpeech
p228
VVBD
p229
sVLemma
p230
Vget
p231
saa(lp232
V15
p233
a(dp234
VNormalizedNamedEntityTag
p235
V15.0
p236
sVLemma
p237
V15
p238
sVCharacterOffsetEnd
p239
V40
p240
sVPartOfSpeech
p241
VCD
p242
sVCharacterOffsetBegin
p243
V38
p244
sVNamedEntityTag
p245
VNUMBER
p246
saa(lp247
Vcoins
p248
a(dp249
VNamedEntityTag
p250
g94
sVCharacterOffsetEnd
p251
V46
p252
sVCharacterOffsetBegin
p253
V41
p254
sVPartOfSpeech
p255
VNNS
p256
sVLemma
p257
Vcoin
p258
saa(lp259
Vfrom
p260
a(dp261
VNamedEntityTag
p262
g94
sVCharacterOffsetEnd
p263
V51
p264
sVCharacterOffsetBegin
p265
V47
p266
sVPartOfSpeech
p267
VIN
p268
sVLemma
p269
Vfrom
p270
saa(lp271
Vher
p272
a(dp273
VNamedEntityTag
p274
g94
sVCharacterOffsetEnd
p275
V55
p276
sVCharacterOffsetBegin
p277
V52
p278
sVPartOfSpeech
p279
VPRP$
p280
sVLemma
p281
Vshe
p282
saa(lp283
Vpiggy
p284
a(dp285
VNamedEntityTag
p286
g94
sVCharacterOffsetEnd
p287
V61
p288
sVCharacterOffsetBegin
p289
V56
p290
sVPartOfSpeech
p291
VNN
p292
sVLemma
p293
Vpiggy
p294
saa(lp295
Vbank
p296
a(dp297
VNamedEntityTag
p298
g94
sVCharacterOffsetEnd
p299
V66
p300
sVCharacterOffsetBegin
p301
V62
p302
sVPartOfSpeech
p303
VNN
p304
sVLemma
p305
Vbank
p306
saa(lp307
Vand
p308
a(dp309
VNamedEntityTag
p310
g94
sVCharacterOffsetEnd
p311
V70
p312
sVCharacterOffsetBegin
p313
V67
p314
sVPartOfSpeech
p315
VCC
p316
sVLemma
p317
Vand
p318
saa(lp319
V13
p320
a(dp321
VNormalizedNamedEntityTag
p322
V13.0
p323
sVLemma
p324
V13
p325
sVCharacterOffsetEnd
p326
V73
p327
sVPartOfSpeech
p328
VCD
p329
sVCharacterOffsetBegin
p330
V71
p331
sVNamedEntityTag
p332
VNUMBER
p333
saa(lp334
Vcoins
p335
a(dp336
VNamedEntityTag
p337
g94
sVCharacterOffsetEnd
p338
V79
p339
sVCharacterOffsetBegin
p340
V74
p341
sVPartOfSpeech
p342
VNNS
p343
sVLemma
p344
Vcoin
p345
saa(lp346
Vfrom
p347
a(dp348
VNamedEntityTag
p349
g94
sVCharacterOffsetEnd
p350
V84
p351
sVCharacterOffsetBegin
p352
V80
p353
sVPartOfSpeech
p354
VIN
p355
sVLemma
p356
Vfrom
p357
saa(lp358
Vher
p359
a(dp360
VNamedEntityTag
p361
g94
sVCharacterOffsetEnd
p362
V88
p363
sVCharacterOffsetBegin
p364
V85
p365
sVPartOfSpeech
p366
VPRP$
p367
sVLemma
p368
Vshe
p369
saa(lp370
Vbrother
p371
a(dp372
VNamedEntityTag
p373
g94
sVCharacterOffsetEnd
p374
V96
p375
sVCharacterOffsetBegin
p376
V89
p377
sVPartOfSpeech
p378
VNN
p379
sVLemma
p380
Vbrother
p381
saa(lp382
g128
a(dp383
VNamedEntityTag
p384
g94
sVCharacterOffsetEnd
p385
V98
p386
sVCharacterOffsetBegin
p387
V97
p388
sVPartOfSpeech
p389
g128
sVLemma
p390
g128
saasVindexeddependencies
p391
(lp392
(lp393
Vroot
p394
aVROOT-0
p395
aVgot-2
p396
aa(lp397
Vnsubj
p398
aVgot-2
p399
aVShe-1
p400
aa(lp401
Vnum
p402
aVcoins-4
p403
aV15-3
p404
aa(lp405
Vdobj
p406
aVgot-2
p407
aVcoins-4
p408
aa(lp409
Vposs
p410
aVbank-8
p411
aVher-6
p412
aa(lp413
Vnn
p414
aVbank-8
p415
aVpiggy-7
p416
aa(lp417
Vprep_from
p418
aVgot-2
p419
aVbank-8
p420
aa(lp421
Vnum
p422
aVcoins-11
p423
aV13-10
p424
aa(lp425
Vconj_and
p426
aVbank-8
p427
aVcoins-11
p428
aa(lp429
Vposs
p430
aVbrother-14
p431
aVher-13
p432
aa(lp433
Vprep_from
p434
aVgot-2
p435
aVbrother-14
p436
aasa(dp437
Vparsetree
p438
V(ROOT (S (NP (PRP$ Her) (NN father)) (VP (VBD gave) (NP (NNP Kylie)) (NP (CD 8) (NNS coins))) (. .)))
p439
sVtext
p440
VHer father gave Kylie 8 coins .
p441
sVdependencies
p442
(lp443
(lp444
Vroot
p445
aVROOT
p446
aVgave
p447
aa(lp448
Vposs
p449
aVfather
p450
aVHer
p451
aa(lp452
Vnsubj
p453
aVgave
p454
aVfather
p455
aa(lp456
Viobj
p457
aVgave
p458
aVKylie
p459
aa(lp460
Vnum
p461
aVcoins
p462
aV8
p463
aa(lp464
Vdobj
p465
aVgave
p466
aVcoins
p467
aasVwords
p468
(lp469
(lp470
VHer
p471
a(dp472
VNamedEntityTag
p473
g94
sVCharacterOffsetEnd
p474
V102
p475
sVCharacterOffsetBegin
p476
V99
p477
sVPartOfSpeech
p478
VPRP$
p479
sVLemma
p480
Vshe
p481
saa(lp482
Vfather
p483
a(dp484
VNamedEntityTag
p485
g94
sVCharacterOffsetEnd
p486
V109
p487
sVCharacterOffsetBegin
p488
V103
p489
sVPartOfSpeech
p490
VNN
p491
sVLemma
p492
Vfather
p493
saa(lp494
Vgave
p495
a(dp496
VNamedEntityTag
p497
g94
sVCharacterOffsetEnd
p498
V114
p499
sVCharacterOffsetBegin
p500
V110
p501
sVPartOfSpeech
p502
VVBD
p503
sVLemma
p504
Vgive
p505
saa(lp506
VKylie
p507
a(dp508
VNamedEntityTag
p509
VPERSON
p510
sVCharacterOffsetEnd
p511
V120
p512
sVCharacterOffsetBegin
p513
V115
p514
sVPartOfSpeech
p515
VNNP
p516
sVLemma
p517
VKylie
p518
saa(lp519
g463
a(dp520
VNormalizedNamedEntityTag
p521
V8.0
p522
sVLemma
p523
g463
sVCharacterOffsetEnd
p524
V122
p525
sVPartOfSpeech
p526
VCD
p527
sVCharacterOffsetBegin
p528
V121
p529
sVNamedEntityTag
p530
VNUMBER
p531
saa(lp532
Vcoins
p533
a(dp534
VNamedEntityTag
p535
g94
sVCharacterOffsetEnd
p536
V128
p537
sVCharacterOffsetBegin
p538
V123
p539
sVPartOfSpeech
p540
VNNS
p541
sVLemma
p542
Vcoin
p543
saa(lp544
g128
a(dp545
VNamedEntityTag
p546
g94
sVCharacterOffsetEnd
p547
V130
p548
sVCharacterOffsetBegin
p549
V129
p550
sVPartOfSpeech
p551
g128
sVLemma
p552
g128
saasVindexeddependencies
p553
(lp554
(lp555
Vroot
p556
aVROOT-0
p557
aVgave-3
p558
aa(lp559
Vposs
p560
aVfather-2
p561
aVHer-1
p562
aa(lp563
Vnsubj
p564
aVgave-3
p565
aVfather-2
p566
aa(lp567
Viobj
p568
aVgave-3
p569
aVKylie-4
p570
aa(lp571
Vnum
p572
aVcoins-6
p573
aV8-5
p574
aa(lp575
Vdobj
p576
aVgave-3
p577
aVcoins-6
p578
aasa(dp579
Vparsetree
p580
V(ROOT (S (NP (NNP Kylie)) (VP (VBD gave) (NP (NP (CD 21)) (PP (IN of) (NP (DT the) (NNS coins)))) (PP (TO to) (NP (NP (PRP$ her) (NN friend)) (NP (NNP Laura))))) (. .)))
p581
sVtext
p582
VKylie gave 21 of the coins to her friend Laura .
p583
sVdependencies
p584
(lp585
(lp586
Vroot
p587
aVROOT
p588
aVgave
p589
aa(lp590
Vnsubj
p591
aVgave
p592
aVKylie
p593
aa(lp594
Vdobj
p595
aVgave
p596
aV21
p597
aa(lp598
Vdet
p599
aVcoins
p600
aVthe
p601
aa(lp602
Vprep_of
p603
aV21
p604
aVcoins
p605
aa(lp606
Vposs
p607
aVfriend
p608
aVher
p609
aa(lp610
Vprep_to
p611
aVgave
p612
aVfriend
p613
aa(lp614
Vappos
p615
aVfriend
p616
aVLaura
p617
aasVwords
p618
(lp619
(lp620
VKylie
p621
a(dp622
VNamedEntityTag
p623
VPERSON
p624
sVCharacterOffsetEnd
p625
V136
p626
sVCharacterOffsetBegin
p627
V131
p628
sVPartOfSpeech
p629
VNNP
p630
sVLemma
p631
VKylie
p632
saa(lp633
Vgave
p634
a(dp635
VNamedEntityTag
p636
g94
sVCharacterOffsetEnd
p637
V141
p638
sVCharacterOffsetBegin
p639
V137
p640
sVPartOfSpeech
p641
VVBD
p642
sVLemma
p643
Vgive
p644
saa(lp645
V21
p646
a(dp647
VNormalizedNamedEntityTag
p648
V21.0
p649
sVLemma
p650
V21
p651
sVCharacterOffsetEnd
p652
V144
p653
sVPartOfSpeech
p654
VCD
p655
sVCharacterOffsetBegin
p656
V142
p657
sVNamedEntityTag
p658
VNUMBER
p659
saa(lp660
Vof
p661
a(dp662
VNamedEntityTag
p663
g94
sVCharacterOffsetEnd
p664
V147
p665
sVCharacterOffsetBegin
p666
V145
p667
sVPartOfSpeech
p668
VIN
p669
sVLemma
p670
Vof
p671
saa(lp672
Vthe
p673
a(dp674
VNamedEntityTag
p675
g94
sVCharacterOffsetEnd
p676
V151
p677
sVCharacterOffsetBegin
p678
V148
p679
sVPartOfSpeech
p680
VDT
p681
sVLemma
p682
Vthe
p683
saa(lp684
Vcoins
p685
a(dp686
VNamedEntityTag
p687
g94
sVCharacterOffsetEnd
p688
V157
p689
sVCharacterOffsetBegin
p690
V152
p691
sVPartOfSpeech
p692
VNNS
p693
sVLemma
p694
Vcoin
p695
saa(lp696
Vto
p697
a(dp698
VNamedEntityTag
p699
g94
sVCharacterOffsetEnd
p700
V160
p701
sVCharacterOffsetBegin
p702
V158
p703
sVPartOfSpeech
p704
VTO
p705
sVLemma
p706
Vto
p707
saa(lp708
Vher
p709
a(dp710
VNamedEntityTag
p711
g94
sVCharacterOffsetEnd
p712
V164
p713
sVCharacterOffsetBegin
p714
V161
p715
sVPartOfSpeech
p716
VPRP$
p717
sVLemma
p718
Vshe
p719
saa(lp720
Vfriend
p721
a(dp722
VNamedEntityTag
p723
g94
sVCharacterOffsetEnd
p724
V171
p725
sVCharacterOffsetBegin
p726
V165
p727
sVPartOfSpeech
p728
VNN
p729
sVLemma
p730
Vfriend
p731
saa(lp732
VLaura
p733
a(dp734
VNamedEntityTag
p735
VPERSON
p736
sVCharacterOffsetEnd
p737
V177
p738
sVCharacterOffsetBegin
p739
V172
p740
sVPartOfSpeech
p741
VNNP
p742
sVLemma
p743
VLaura
p744
saa(lp745
g128
a(dp746
VNamedEntityTag
p747
g94
sVCharacterOffsetEnd
p748
V179
p749
sVCharacterOffsetBegin
p750
V178
p751
sVPartOfSpeech
p752
g128
sVLemma
p753
g128
saasVindexeddependencies
p754
(lp755
(lp756
Vroot
p757
aVROOT-0
p758
aVgave-2
p759
aa(lp760
Vnsubj
p761
aVgave-2
p762
aVKylie-1
p763
aa(lp764
Vdobj
p765
aVgave-2
p766
aV21-3
p767
aa(lp768
Vdet
p769
aVcoins-6
p770
aVthe-5
p771
aa(lp772
Vprep_of
p773
aV21-3
p774
aVcoins-6
p775
aa(lp776
Vposs
p777
aVfriend-9
p778
aVher-8
p779
aa(lp780
Vprep_to
p781
aVgave-2
p782
aVfriend-9
p783
aa(lp784
Vappos
p785
aVfriend-9
p786
aVLaura-10
p787
aasa(dp788
Vparsetree
p789
V(ROOT (SBARQ (WHNP (WHADJP (WRB How) (JJ many)) (NNS coins)) (SQ (VBD did) (NP (NNP Kylie)) (VP (VB have) (VP (VBN left)))) (. ?)))
p790
sVtext
p791
VHow many coins did Kylie have left ?
p792
sVdependencies
p793
(lp794
(lp795
Vroot
p796
aVROOT
p797
aVleft
p798
aa(lp799
Vadvmod
p800
aVmany
p801
aVHow
p802
aa(lp803
Vamod
p804
aVcoins
p805
aVmany
p806
aa(lp807
Vdobj
p808
aVleft
p809
aVcoins
p810
aa(lp811
Vaux
p812
aVleft
p813
aVdid
p814
aa(lp815
Vnsubj
p816
aVleft
p817
aVKylie
p818
aa(lp819
Vaux
p820
aVleft
p821
aVhave
p822
aasVwords
p823
(lp824
(lp825
VHow
p826
a(dp827
VNamedEntityTag
p828
g94
sVCharacterOffsetEnd
p829
V183
p830
sVCharacterOffsetBegin
p831
V180
p832
sVPartOfSpeech
p833
VWRB
p834
sVLemma
p835
Vhow
p836
saa(lp837
Vmany
p838
a(dp839
VNamedEntityTag
p840
g94
sVCharacterOffsetEnd
p841
V188
p842
sVCharacterOffsetBegin
p843
V184
p844
sVPartOfSpeech
p845
VJJ
p846
sVLemma
p847
Vmany
p848
saa(lp849
Vcoins
p850
a(dp851
VNamedEntityTag
p852
g94
sVCharacterOffsetEnd
p853
V194
p854
sVCharacterOffsetBegin
p855
V189
p856
sVPartOfSpeech
p857
VNNS
p858
sVLemma
p859
Vcoin
p860
saa(lp861
Vdid
p862
a(dp863
VNamedEntityTag
p864
g94
sVCharacterOffsetEnd
p865
V198
p866
sVCharacterOffsetBegin
p867
V195
p868
sVPartOfSpeech
p869
VVBD
p870
sVLemma
p871
Vdo
p872
saa(lp873
VKylie
p874
a(dp875
VNamedEntityTag
p876
VPERSON
p877
sVCharacterOffsetEnd
p878
V204
p879
sVCharacterOffsetBegin
p880
V199
p881
sVPartOfSpeech
p882
VNNP
p883
sVLemma
p884
VKylie
p885
saa(lp886
Vhave
p887
a(dp888
VNamedEntityTag
p889
g94
sVCharacterOffsetEnd
p890
V209
p891
sVCharacterOffsetBegin
p892
V205
p893
sVPartOfSpeech
p894
VVB
p895
sVLemma
p896
Vhave
p897
saa(lp898
Vleft
p899
a(dp900
VNamedEntityTag
p901
g94
sVCharacterOffsetEnd
p902
V214
p903
sVCharacterOffsetBegin
p904
V210
p905
sVPartOfSpeech
p906
VVBN
p907
sVLemma
p908
Vleave
p909
saa(lp910
V?
p911
a(dp912
VNamedEntityTag
p913
g94
sVCharacterOffsetEnd
p914
V216
p915
sVCharacterOffsetBegin
p916
V215
p917
sVPartOfSpeech
p918
g128
sVLemma
p919
g911
saasVindexeddependencies
p920
(lp921
(lp922
Vroot
p923
aVROOT-0
p924
aVleft-7
p925
aa(lp926
Vadvmod
p927
aVmany-2
p928
aVHow-1
p929
aa(lp930
Vamod
p931
aVcoins-3
p932
aVmany-2
p933
aa(lp934
Vdobj
p935
aVleft-7
p936
aVcoins-3
p937
aa(lp938
Vaux
p939
aVleft-7
p940
aVdid-4
p941
aa(lp942
Vnsubj
p943
aVleft-7
p944
aVKylie-5
p945
aa(lp946
Vaux
p947
aVleft-7
p948
aVhave-6
p949
aasas.