(dp0
Vcoref
p1
(lp2
(lp3
(lp4
(lp5
Vhis
p6
aI0
aI3
aI3
aI4
aa(lp7
VRoger
p8
aI0
aI0
aI0
aI1
aaa(lp9
(lp10
VHe
p11
aI1
aI0
aI0
aI1
aa(lp12
VRoger
p13
aI0
aI0
aI0
aI1
aaa(lp14
(lp15
Vhe
p16
aI2
aI13
aI13
aI14
aa(lp17
VRoger
p18
aI0
aI0
aI0
aI1
aaaa(lp19
(lp20
(lp21
V3
p22
aI1
aI7
aI7
aI8
aa(lp23
g22
aI1
aI2
aI2
aI3
aaaa(lp24
(lp25
(lp26
Vit
p27
aI2
aI7
aI7
aI8
aa(lp28
Veach pile
p29
aI2
aI2
aI1
aI3
aaaasVsentences
p30
(lp31
(dp32
Vparsetree
p33
V(ROOT (S (NP (NNP Roger)) (VP (VBD was) (VP (VBG putting) (NP (PRP$ his) (JJ spare) (NN change)) (PP (IN into) (NP (NNS piles))))) (. .)))
p34
sVtext
p35
VRoger was putting his spare change into piles .
p36
sVdependencies
p37
(lp38
(lp39
Vroot
p40
aVROOT
p41
aVputting
p42
aa(lp43
Vnsubj
p44
aVputting
p45
aVRoger
p46
aa(lp47
Vaux
p48
aVputting
p49
aVwas
p50
aa(lp51
Vposs
p52
aVchange
p53
aVhis
p54
aa(lp55
Vamod
p56
aVchange
p57
aVspare
p58
aa(lp59
Vdobj
p60
aVputting
p61
aVchange
p62
aa(lp63
Vprep_into
p64
aVputting
p65
aVpiles
p66
aasVwords
p67
(lp68
(lp69
VRoger
p70
a(dp71
VNamedEntityTag
p72
VPERSON
p73
sVCharacterOffsetEnd
p74
V6
p75
sVCharacterOffsetBegin
p76
V1
p77
sVPartOfSpeech
p78
VNNP
p79
sVLemma
p80
VRoger
p81
saa(lp82
Vwas
p83
a(dp84
VNamedEntityTag
p85
VO
p86
sVCharacterOffsetEnd
p87
V10
p88
sVCharacterOffsetBegin
p89
V7
p90
sVPartOfSpeech
p91
VVBD
p92
sVLemma
p93
Vbe
p94
saa(lp95
Vputting
p96
a(dp97
VNamedEntityTag
p98
g86
sVCharacterOffsetEnd
p99
V18
p100
sVCharacterOffsetBegin
p101
V11
p102
sVPartOfSpeech
p103
VVBG
p104
sVLemma
p105
Vput
p106
saa(lp107
Vhis
p108
a(dp109
VNamedEntityTag
p110
g86
sVCharacterOffsetEnd
p111
V22
p112
sVCharacterOffsetBegin
p113
V19
p114
sVPartOfSpeech
p115
VPRP$
p116
sVLemma
p117
Vhe
p118
saa(lp119
Vspare
p120
a(dp121
VNamedEntityTag
p122
g86
sVCharacterOffsetEnd
p123
V28
p124
sVCharacterOffsetBegin
p125
V23
p126
sVPartOfSpeech
p127
VJJ
p128
sVLemma
p129
Vspare
p130
saa(lp131
Vchange
p132
a(dp133
VNamedEntityTag
p134
g86
sVCharacterOffsetEnd
p135
V35
p136
sVCharacterOffsetBegin
p137
V29
p138
sVPartOfSpeech
p139
VNN
p140
sVLemma
p141
Vchange
p142
saa(lp143
Vinto
p144
a(dp145
VNamedEntityTag
p146
g86
sVCharacterOffsetEnd
p147
V40
p148
sVCharacterOffsetBegin
p149
V36
p150
sVPartOfSpeech
p151
VIN
p152
sVLemma
p153
Vinto
p154
saa(lp155
Vpiles
p156
a(dp157
VNamedEntityTag
p158
g86
sVCharacterOffsetEnd
p159
V46
p160
sVCharacterOffsetBegin
p161
V41
p162
sVPartOfSpeech
p163
VNNS
p164
sVLemma
p165
Vpile
p166
saa(lp167
V.
p168
a(dp169
VNamedEntityTag
p170
g86
sVCharacterOffsetEnd
p171
V48
p172
sVCharacterOffsetBegin
p173
V47
p174
sVPartOfSpeech
p175
g168
sVLemma
p176
g168
saasVindexeddependencies
p177
(lp178
(lp179
Vroot
p180
aVROOT-0
p181
aVputting-3
p182
aa(lp183
Vnsubj
p184
aVputting-3
p185
aVRoger-1
p186
aa(lp187
Vaux
p188
aVputting-3
p189
aVwas-2
p190
aa(lp191
Vposs
p192
aVchange-6
p193
aVhis-4
p194
aa(lp195
Vamod
p196
aVchange-6
p197
aVspare-5
p198
aa(lp199
Vdobj
p200
aVputting-3
p201
aVchange-6
p202
aa(lp203
Vprep_into
p204
aVputting-3
p205
aVpiles-8
p206
aasa(dp207
Vparsetree
p208
V(ROOT (S (NP (PRP He)) (VP (VBD had) (NP (NP (NP (CD 3) (NNS piles)) (PP (IN of) (NP (NNS quarters)))) (CC and) (NP (NP (CD 3) (NNS piles)) (PP (IN of) (NP (NNS dimes)))))) (. .)))
p209
sVtext
p210
VHe had 3 piles of quarters and 3 piles of dimes .
p211
sVdependencies
p212
(lp213
(lp214
Vroot
p215
aVROOT
p216
aVhad
p217
aa(lp218
Vnsubj
p219
aVhad
p220
aVHe
p221
aa(lp222
Vnum
p223
aVpiles
p224
ag22
aa(lp225
Vdobj
p226
aVhad
p227
aVpiles
p228
aa(lp229
Vprep_of
p230
aVpiles
p231
aVquarters
p232
aa(lp233
Vnum
p234
aVpiles
p235
ag22
aa(lp236
Vconj_and
p237
aVpiles
p238
aVpiles
p239
aa(lp240
Vprep_of
p241
aVpiles
p242
aVdimes
p243
aasVwords
p244
(lp245
(lp246
VHe
p247
a(dp248
VNamedEntityTag
p249
g86
sVCharacterOffsetEnd
p250
V51
p251
sVCharacterOffsetBegin
p252
V49
p253
sVPartOfSpeech
p254
VPRP
p255
sVLemma
p256
Vhe
p257
saa(lp258
Vhad
p259
a(dp260
VNamedEntityTag
p261
g86
sVCharacterOffsetEnd
p262
V55
p263
sVCharacterOffsetBegin
p264
V52
p265
sVPartOfSpeech
p266
VVBD
p267
sVLemma
p268
Vhave
p269
saa(lp270
g22
a(dp271
VNormalizedNamedEntityTag
p272
V3.0
p273
sVLemma
p274
g22
sVCharacterOffsetEnd
p275
V57
p276
sVPartOfSpeech
p277
VCD
p278
sVCharacterOffsetBegin
p279
V56
p280
sVNamedEntityTag
p281
VNUMBER
p282
saa(lp283
Vpiles
p284
a(dp285
VNamedEntityTag
p286
g86
sVCharacterOffsetEnd
p287
V63
p288
sVCharacterOffsetBegin
p289
V58
p290
sVPartOfSpeech
p291
VNNS
p292
sVLemma
p293
Vpile
p294
saa(lp295
Vof
p296
a(dp297
VNamedEntityTag
p298
g86
sVCharacterOffsetEnd
p299
V66
p300
sVCharacterOffsetBegin
p301
V64
p302
sVPartOfSpeech
p303
VIN
p304
sVLemma
p305
Vof
p306
saa(lp307
Vquarters
p308
a(dp309
VNamedEntityTag
p310
g86
sVCharacterOffsetEnd
p311
V75
p312
sVCharacterOffsetBegin
p313
V67
p314
sVPartOfSpeech
p315
VNNS
p316
sVLemma
p317
Vquarter
p318
saa(lp319
Vand
p320
a(dp321
VNamedEntityTag
p322
g86
sVCharacterOffsetEnd
p323
V79
p324
sVCharacterOffsetBegin
p325
V76
p326
sVPartOfSpeech
p327
VCC
p328
sVLemma
p329
Vand
p330
saa(lp331
g22
a(dp332
VNormalizedNamedEntityTag
p333
V3.0
p334
sVLemma
p335
g22
sVCharacterOffsetEnd
p336
V81
p337
sVPartOfSpeech
p338
VCD
p339
sVCharacterOffsetBegin
p340
V80
p341
sVNamedEntityTag
p342
VNUMBER
p343
saa(lp344
Vpiles
p345
a(dp346
VNamedEntityTag
p347
g86
sVCharacterOffsetEnd
p348
V87
p349
sVCharacterOffsetBegin
p350
V82
p351
sVPartOfSpeech
p352
VNNS
p353
sVLemma
p354
Vpile
p355
saa(lp356
Vof
p357
a(dp358
VNamedEntityTag
p359
g86
sVCharacterOffsetEnd
p360
V90
p361
sVCharacterOffsetBegin
p362
V88
p363
sVPartOfSpeech
p364
VIN
p365
sVLemma
p366
Vof
p367
saa(lp368
Vdimes
p369
a(dp370
VNamedEntityTag
p371
g86
sVCharacterOffsetEnd
p372
V96
p373
sVCharacterOffsetBegin
p374
V91
p375
sVPartOfSpeech
p376
VNNS
p377
sVLemma
p378
Vdime
p379
saa(lp380
g168
a(dp381
VNamedEntityTag
p382
g86
sVCharacterOffsetEnd
p383
V98
p384
sVCharacterOffsetBegin
p385
V97
p386
sVPartOfSpeech
p387
g168
sVLemma
p388
g168
saasVindexeddependencies
p389
(lp390
(lp391
Vroot
p392
aVROOT-0
p393
aVhad-2
p394
aa(lp395
Vnsubj
p396
aVhad-2
p397
aVHe-1
p398
aa(lp399
Vnum
p400
aVpiles-4
p401
aV3-3
p402
aa(lp403
Vdobj
p404
aVhad-2
p405
aVpiles-4
p406
aa(lp407
Vprep_of
p408
aVpiles-4
p409
aVquarters-6
p410
aa(lp411
Vnum
p412
aVpiles-9
p413
aV3-8
p414
aa(lp415
Vconj_and
p416
aVpiles-4
p417
aVpiles-9
p418
aa(lp419
Vprep_of
p420
aVpiles-9
p421
aVdimes-11
p422
aasa(dp423
Vparsetree
p424
V(ROOT (SBARQ (SBAR (IN If) (S (NP (DT each) (NN pile)) (VP (VBD had) (NP (NP (CD 7) (NNS coins)) (PP (IN in) (NP (PRP it))))))) (, ,) (WHNP (WHADJP (WRB how) (JJ many)) (NNS coins)) (SQ (VBD did) (NP (PRP he)) (VP (VB have) (NP (NN total)))) (. ?)))
p425
sVtext
p426
VIf each pile had 7 coins in it , how many coins did he have total ?
p427
sVdependencies
p428
(lp429
(lp430
Vroot
p431
aVROOT
p432
aVhave
p433
aa(lp434
Vmark
p435
aVhad
p436
aVIf
p437
aa(lp438
Vdet
p439
aVpile
p440
aVeach
p441
aa(lp442
Vnsubj
p443
aVhad
p444
aVpile
p445
aa(lp446
Vadvcl
p447
aVhave
p448
aVhad
p449
aa(lp450
Vnum
p451
aVcoins
p452
ag90
aa(lp453
Vdobj
p454
aVhad
p455
aVcoins
p456
aa(lp457
Vprep_in
p458
aVcoins
p459
aVit
p460
aa(lp461
Vadvmod
p462
aVmany
p463
aVhow
p464
aa(lp465
Vamod
p466
aVcoins
p467
aVmany
p468
aa(lp469
Vdep
p470
aVhave
p471
aVcoins
p472
aa(lp473
Vaux
p474
aVhave
p475
aVdid
p476
aa(lp477
Vnsubj
p478
aVhave
p479
aVhe
p480
aa(lp481
Vdobj
p482
aVhave
p483
aVtotal
p484
aasVwords
p485
(lp486
(lp487
VIf
p488
a(dp489
VNamedEntityTag
p490
g86
sVCharacterOffsetEnd
p491
V101
p492
sVCharacterOffsetBegin
p493
V99
p494
sVPartOfSpeech
p495
VIN
p496
sVLemma
p497
Vif
p498
saa(lp499
Veach
p500
a(dp501
VNamedEntityTag
p502
g86
sVCharacterOffsetEnd
p503
V106
p504
sVCharacterOffsetBegin
p505
V102
p506
sVPartOfSpeech
p507
VDT
p508
sVLemma
p509
Veach
p510
saa(lp511
Vpile
p512
a(dp513
VNamedEntityTag
p514
g86
sVCharacterOffsetEnd
p515
V111
p516
sVCharacterOffsetBegin
p517
V107
p518
sVPartOfSpeech
p519
VNN
p520
sVLemma
p521
Vpile
p522
saa(lp523
Vhad
p524
a(dp525
VNamedEntityTag
p526
g86
sVCharacterOffsetEnd
p527
V115
p528
sVCharacterOffsetBegin
p529
V112
p530
sVPartOfSpeech
p531
VVBD
p532
sVLemma
p533
Vhave
p534
saa(lp535
g90
a(dp536
VNormalizedNamedEntityTag
p537
V7.0
p538
sVLemma
p539
g90
sVCharacterOffsetEnd
p540
V117
p541
sVPartOfSpeech
p542
VCD
p543
sVCharacterOffsetBegin
p544
V116
p545
sVNamedEntityTag
p546
VNUMBER
p547
saa(lp548
Vcoins
p549
a(dp550
VNamedEntityTag
p551
g86
sVCharacterOffsetEnd
p552
V123
p553
sVCharacterOffsetBegin
p554
V118
p555
sVPartOfSpeech
p556
VNNS
p557
sVLemma
p558
Vcoin
p559
saa(lp560
Vin
p561
a(dp562
VNamedEntityTag
p563
g86
sVCharacterOffsetEnd
p564
V126
p565
sVCharacterOffsetBegin
p566
V124
p567
sVPartOfSpeech
p568
VIN
p569
sVLemma
p570
Vin
p571
saa(lp572
Vit
p573
a(dp574
VNamedEntityTag
p575
g86
sVCharacterOffsetEnd
p576
V129
p577
sVCharacterOffsetBegin
p578
V127
p579
sVPartOfSpeech
p580
VPRP
p581
sVLemma
p582
Vit
p583
saa(lp584
V,
p585
a(dp586
VNamedEntityTag
p587
g86
sVCharacterOffsetEnd
p588
V131
p589
sVCharacterOffsetBegin
p590
V130
p591
sVPartOfSpeech
p592
g585
sVLemma
p593
g585
saa(lp594
Vhow
p595
a(dp596
VNamedEntityTag
p597
g86
sVCharacterOffsetEnd
p598
V135
p599
sVCharacterOffsetBegin
p600
V132
p601
sVPartOfSpeech
p602
VWRB
p603
sVLemma
p604
Vhow
p605
saa(lp606
Vmany
p607
a(dp608
VNamedEntityTag
p609
g86
sVCharacterOffsetEnd
p610
V140
p611
sVCharacterOffsetBegin
p612
V136
p613
sVPartOfSpeech
p614
VJJ
p615
sVLemma
p616
Vmany
p617
saa(lp618
Vcoins
p619
a(dp620
VNamedEntityTag
p621
g86
sVCharacterOffsetEnd
p622
V146
p623
sVCharacterOffsetBegin
p624
V141
p625
sVPartOfSpeech
p626
VNNS
p627
sVLemma
p628
Vcoin
p629
saa(lp630
Vdid
p631
a(dp632
VNamedEntityTag
p633
g86
sVCharacterOffsetEnd
p634
V150
p635
sVCharacterOffsetBegin
p636
V147
p637
sVPartOfSpeech
p638
VVBD
p639
sVLemma
p640
Vdo
p641
saa(lp642
Vhe
p643
a(dp644
VNamedEntityTag
p645
g86
sVCharacterOffsetEnd
p646
V153
p647
sVCharacterOffsetBegin
p648
V151
p649
sVPartOfSpeech
p650
VPRP
p651
sVLemma
p652
Vhe
p653
saa(lp654
Vhave
p655
a(dp656
VNamedEntityTag
p657
g86
sVCharacterOffsetEnd
p658
V158
p659
sVCharacterOffsetBegin
p660
V154
p661
sVPartOfSpeech
p662
VVB
p663
sVLemma
p664
Vhave
p665
saa(lp666
Vtotal
p667
a(dp668
VNamedEntityTag
p669
g86
sVCharacterOffsetEnd
p670
V164
p671
sVCharacterOffsetBegin
p672
V159
p673
sVPartOfSpeech
p674
VNN
p675
sVLemma
p676
Vtotal
p677
saa(lp678
V?
p679
a(dp680
VNamedEntityTag
p681
g86
sVCharacterOffsetEnd
p682
V166
p683
sVCharacterOffsetBegin
p684
V165
p685
sVPartOfSpeech
p686
g168
sVLemma
p687
g679
saasVindexeddependencies
p688
(lp689
(lp690
Vroot
p691
aVROOT-0
p692
aVhave-15
p693
aa(lp694
Vmark
p695
aVhad-4
p696
aVIf-1
p697
aa(lp698
Vdet
p699
aVpile-3
p700
aVeach-2
p701
aa(lp702
Vnsubj
p703
aVhad-4
p704
aVpile-3
p705
aa(lp706
Vadvcl
p707
aVhave-15
p708
aVhad-4
p709
aa(lp710
Vnum
p711
aVcoins-6
p712
aV7-5
p713
aa(lp714
Vdobj
p715
aVhad-4
p716
aVcoins-6
p717
aa(lp718
Vprep_in
p719
aVcoins-6
p720
aVit-8
p721
aa(lp722
Vadvmod
p723
aVmany-11
p724
aVhow-10
p725
aa(lp726
Vamod
p727
aVcoins-12
p728
aVmany-11
p729
aa(lp730
Vdep
p731
aVhave-15
p732
aVcoins-12
p733
aa(lp734
Vaux
p735
aVhave-15
p736
aVdid-13
p737
aa(lp738
Vnsubj
p739
aVhave-15
p740
aVhe-14
p741
aa(lp742
Vdobj
p743
aVhave-15
p744
aVtotal-16
p745
aasas.