(dp0
Vcoref
p1
(lp2
(lp3
(lp4
(lp5
VHe
p6
aI1
aI0
aI0
aI1
aa(lp7
VJustin
p8
aI0
aI0
aI0
aI1
aaa(lp9
(lp10
VJustin
p11
aI2
aI5
aI5
aI6
aa(lp12
VJustin
p13
aI0
aI0
aI0
aI1
aaaa(lp14
(lp15
(lp16
Vplates
p17
aI2
aI3
aI3
aI4
aa(lp18
V26 blue plates
p19
aI1
aI5
aI3
aI6
aaaasVsentences
p20
(lp21
(dp22
Vparsetree
p23
V(ROOT (S (NP (NNP Justin)) (VP (VBZ needs) (NP (NP (CD 61) (NN paper) (NNS plates)) (PP (IN for) (NP (DT a) (NN birthday) (NN party))))) (. .)))
p24
sVtext
p25
VJustin needs 61 paper plates for a birthday party .
p26
sVdependencies
p27
(lp28
(lp29
Vroot
p30
aVROOT
p31
aVneeds
p32
aa(lp33
Vnsubj
p34
aVneeds
p35
aVJustin
p36
aa(lp37
Vnum
p38
aVplates
p39
aV61
p40
aa(lp41
Vnn
p42
aVplates
p43
aVpaper
p44
aa(lp45
Vdobj
p46
aVneeds
p47
aVplates
p48
aa(lp49
Vdet
p50
aVparty
p51
aVa
p52
aa(lp53
Vnn
p54
aVparty
p55
aVbirthday
p56
aa(lp57
Vprep_for
p58
aVplates
p59
aVparty
p60
aasVwords
p61
(lp62
(lp63
VJustin
p64
a(dp65
VNamedEntityTag
p66
VPERSON
p67
sVCharacterOffsetEnd
p68
V7
p69
sVCharacterOffsetBegin
p70
V1
p71
sVPartOfSpeech
p72
VNNP
p73
sVLemma
p74
VJustin
p75
saa(lp76
Vneeds
p77
a(dp78
VNamedEntityTag
p79
VO
p80
sVCharacterOffsetEnd
p81
V13
p82
sVCharacterOffsetBegin
p83
V8
p84
sVPartOfSpeech
p85
VVBZ
p86
sVLemma
p87
Vneed
p88
saa(lp89
V61
p90
a(dp91
VNormalizedNamedEntityTag
p92
V61.0
p93
sVLemma
p94
V61
p95
sVCharacterOffsetEnd
p96
V16
p97
sVPartOfSpeech
p98
VCD
p99
sVCharacterOffsetBegin
p100
V14
p101
sVNamedEntityTag
p102
VNUMBER
p103
saa(lp104
Vpaper
p105
a(dp106
VNamedEntityTag
p107
g80
sVCharacterOffsetEnd
p108
V22
p109
sVCharacterOffsetBegin
p110
V17
p111
sVPartOfSpeech
p112
VNN
p113
sVLemma
p114
Vpaper
p115
saa(lp116
Vplates
p117
a(dp118
VNamedEntityTag
p119
g80
sVCharacterOffsetEnd
p120
V29
p121
sVCharacterOffsetBegin
p122
V23
p123
sVPartOfSpeech
p124
VNNS
p125
sVLemma
p126
Vplate
p127
saa(lp128
Vfor
p129
a(dp130
VNamedEntityTag
p131
g80
sVCharacterOffsetEnd
p132
V33
p133
sVCharacterOffsetBegin
p134
V30
p135
sVPartOfSpeech
p136
VIN
p137
sVLemma
p138
Vfor
p139
saa(lp140
g52
a(dp141
VNamedEntityTag
p142
g80
sVCharacterOffsetEnd
p143
V35
p144
sVCharacterOffsetBegin
p145
V34
p146
sVPartOfSpeech
p147
VDT
p148
sVLemma
p149
g52
saa(lp150
Vbirthday
p151
a(dp152
VNamedEntityTag
p153
g80
sVCharacterOffsetEnd
p154
V44
p155
sVCharacterOffsetBegin
p156
V36
p157
sVPartOfSpeech
p158
VNN
p159
sVLemma
p160
Vbirthday
p161
saa(lp162
Vparty
p163
a(dp164
VNamedEntityTag
p165
g80
sVCharacterOffsetEnd
p166
V50
p167
sVCharacterOffsetBegin
p168
V45
p169
sVPartOfSpeech
p170
VNN
p171
sVLemma
p172
Vparty
p173
saa(lp174
V.
p175
a(dp176
VNamedEntityTag
p177
g80
sVCharacterOffsetEnd
p178
V52
p179
sVCharacterOffsetBegin
p180
V51
p181
sVPartOfSpeech
p182
g175
sVLemma
p183
g175
saasVindexeddependencies
p184
(lp185
(lp186
Vroot
p187
aVROOT-0
p188
aVneeds-2
p189
aa(lp190
Vnsubj
p191
aVneeds-2
p192
aVJustin-1
p193
aa(lp194
Vnum
p195
aVplates-5
p196
aV61-3
p197
aa(lp198
Vnn
p199
aVplates-5
p200
aVpaper-4
p201
aa(lp202
Vdobj
p203
aVneeds-2
p204
aVplates-5
p205
aa(lp206
Vdet
p207
aVparty-9
p208
aVa-7
p209
aa(lp210
Vnn
p211
aVparty-9
p212
aVbirthday-8
p213
aa(lp214
Vprep_for
p215
aVplates-5
p216
aVparty-9
p217
aasa(dp218
Vparsetree
p219
V(ROOT (S (NP (PRP He)) (ADVP (RB already)) (VP (VBZ has) (NP (NP (CD 26) (JJ blue) (NNS plates)) (CC and) (NP (CD 7) (JJ red) (NNS plates)))) (. .)))
p220
sVtext
p221
VHe already has 26 blue plates and 7 red plates .
p222
sVdependencies
p223
(lp224
(lp225
Vroot
p226
aVROOT
p227
aVhas
p228
aa(lp229
Vnsubj
p230
aVhas
p231
aVHe
p232
aa(lp233
Vadvmod
p234
aVhas
p235
aValready
p236
aa(lp237
Vnum
p238
aVplates
p239
aV26
p240
aa(lp241
Vamod
p242
aVplates
p243
aVblue
p244
aa(lp245
Vdobj
p246
aVhas
p247
aVplates
p248
aa(lp249
Vnum
p250
aVplates
p251
ag69
aa(lp252
Vamod
p253
aVplates
p254
aVred
p255
aa(lp256
Vconj_and
p257
aVplates
p258
aVplates
p259
aasVwords
p260
(lp261
(lp262
VHe
p263
a(dp264
VNamedEntityTag
p265
g80
sVCharacterOffsetEnd
p266
V55
p267
sVCharacterOffsetBegin
p268
V53
p269
sVPartOfSpeech
p270
VPRP
p271
sVLemma
p272
Vhe
p273
saa(lp274
Valready
p275
a(dp276
VNamedEntityTag
p277
g80
sVCharacterOffsetEnd
p278
V63
p279
sVCharacterOffsetBegin
p280
V56
p281
sVPartOfSpeech
p282
VRB
p283
sVLemma
p284
Valready
p285
saa(lp286
Vhas
p287
a(dp288
VNamedEntityTag
p289
g80
sVCharacterOffsetEnd
p290
V67
p291
sVCharacterOffsetBegin
p292
V64
p293
sVPartOfSpeech
p294
VVBZ
p295
sVLemma
p296
Vhave
p297
saa(lp298
V26
p299
a(dp300
VNormalizedNamedEntityTag
p301
V26.0
p302
sVLemma
p303
V26
p304
sVCharacterOffsetEnd
p305
V70
p306
sVPartOfSpeech
p307
VCD
p308
sVCharacterOffsetBegin
p309
V68
p310
sVNamedEntityTag
p311
VNUMBER
p312
saa(lp313
Vblue
p314
a(dp315
VNamedEntityTag
p316
g80
sVCharacterOffsetEnd
p317
V75
p318
sVCharacterOffsetBegin
p319
V71
p320
sVPartOfSpeech
p321
VJJ
p322
sVLemma
p323
Vblue
p324
saa(lp325
Vplates
p326
a(dp327
VNamedEntityTag
p328
g80
sVCharacterOffsetEnd
p329
V82
p330
sVCharacterOffsetBegin
p331
V76
p332
sVPartOfSpeech
p333
VNNS
p334
sVLemma
p335
Vplate
p336
saa(lp337
Vand
p338
a(dp339
VNamedEntityTag
p340
g80
sVCharacterOffsetEnd
p341
V86
p342
sVCharacterOffsetBegin
p343
V83
p344
sVPartOfSpeech
p345
VCC
p346
sVLemma
p347
Vand
p348
saa(lp349
g69
a(dp350
VNormalizedNamedEntityTag
p351
V7.0
p352
sVLemma
p353
g69
sVCharacterOffsetEnd
p354
V88
p355
sVPartOfSpeech
p356
VCD
p357
sVCharacterOffsetBegin
p358
V87
p359
sVNamedEntityTag
p360
VNUMBER
p361
saa(lp362
Vred
p363
a(dp364
VNamedEntityTag
p365
g80
sVCharacterOffsetEnd
p366
V92
p367
sVCharacterOffsetBegin
p368
V89
p369
sVPartOfSpeech
p370
VJJ
p371
sVLemma
p372
Vred
p373
saa(lp374
Vplates
p375
a(dp376
VNamedEntityTag
p377
g80
sVCharacterOffsetEnd
p378
V99
p379
sVCharacterOffsetBegin
p380
V93
p381
sVPartOfSpeech
p382
VNNS
p383
sVLemma
p384
Vplate
p385
saa(lp386
g175
a(dp387
VNamedEntityTag
p388
g80
sVCharacterOffsetEnd
p389
V101
p390
sVCharacterOffsetBegin
p391
V100
p392
sVPartOfSpeech
p393
g175
sVLemma
p394
g175
saasVindexeddependencies
p395
(lp396
(lp397
Vroot
p398
aVROOT-0
p399
aVhas-3
p400
aa(lp401
Vnsubj
p402
aVhas-3
p403
aVHe-1
p404
aa(lp405
Vadvmod
p406
aVhas-3
p407
aValready-2
p408
aa(lp409
Vnum
p410
aVplates-6
p411
aV26-4
p412
aa(lp413
Vamod
p414
aVplates-6
p415
aVblue-5
p416
aa(lp417
Vdobj
p418
aVhas-3
p419
aVplates-6
p420
aa(lp421
Vnum
p422
aVplates-10
p423
aV7-8
p424
aa(lp425
Vamod
p426
aVplates-10
p427
aVred-9
p428
aa(lp429
Vconj_and
p430
aVplates-6
p431
aVplates-10
p432
aasa(dp433
Vparsetree
p434
V(ROOT (SBARQ (WHNP (WHADJP (WRB How) (JJ many)) (NP (NP (JJR more)) (NP (NNS plates)))) (SQ (MD should) (NP (NNP Justin)) (VP (VB buy))) (. ?)))
p435
sVtext
p436
VHow many more plates should Justin buy ?
p437
sVdependencies
p438
(lp439
(lp440
Vroot
p441
aVROOT
p442
aVbuy
p443
aa(lp444
Vadvmod
p445
aVmany
p446
aVHow
p447
aa(lp448
Vamod
p449
aVmore
p450
aVmany
p451
aa(lp452
Vdobj
p453
aVbuy
p454
aVmore
p455
aa(lp456
Vdep
p457
aVmore
p458
aVplates
p459
aa(lp460
Vaux
p461
aVbuy
p462
aVshould
p463
aa(lp464
Vnsubj
p465
aVbuy
p466
aVJustin
p467
aasVwords
p468
(lp469
(lp470
VHow
p471
a(dp472
VNamedEntityTag
p473
g80
sVCharacterOffsetEnd
p474
V105
p475
sVCharacterOffsetBegin
p476
V102
p477
sVPartOfSpeech
p478
VWRB
p479
sVLemma
p480
Vhow
p481
saa(lp482
Vmany
p483
a(dp484
VNamedEntityTag
p485
g80
sVCharacterOffsetEnd
p486
V110
p487
sVCharacterOffsetBegin
p488
V106
p489
sVPartOfSpeech
p490
VJJ
p491
sVLemma
p492
Vmany
p493
saa(lp494
Vmore
p495
a(dp496
VNamedEntityTag
p497
g80
sVCharacterOffsetEnd
p498
V115
p499
sVCharacterOffsetBegin
p500
V111
p501
sVPartOfSpeech
p502
VJJR
p503
sVLemma
p504
Vmore
p505
saa(lp506
Vplates
p507
a(dp508
VNamedEntityTag
p509
g80
sVCharacterOffsetEnd
p510
V122
p511
sVCharacterOffsetBegin
p512
V116
p513
sVPartOfSpeech
p514
VNNS
p515
sVLemma
p516
Vplate
p517
saa(lp518
Vshould
p519
a(dp520
VNamedEntityTag
p521
g80
sVCharacterOffsetEnd
p522
V129
p523
sVCharacterOffsetBegin
p524
V123
p525
sVPartOfSpeech
p526
VMD
p527
sVLemma
p528
Vshould
p529
saa(lp530
VJustin
p531
a(dp532
VNamedEntityTag
p533
VPERSON
p534
sVCharacterOffsetEnd
p535
V136
p536
sVCharacterOffsetBegin
p537
V130
p538
sVPartOfSpeech
p539
VNNP
p540
sVLemma
p541
VJustin
p542
saa(lp543
Vbuy
p544
a(dp545
VNamedEntityTag
p546
g80
sVCharacterOffsetEnd
p547
V140
p548
sVCharacterOffsetBegin
p549
V137
p550
sVPartOfSpeech
p551
VVB
p552
sVLemma
p553
Vbuy
p554
saa(lp555
V?
p556
a(dp557
VNamedEntityTag
p558
g80
sVCharacterOffsetEnd
p559
V142
p560
sVCharacterOffsetBegin
p561
V141
p562
sVPartOfSpeech
p563
g175
sVLemma
p564
g556
saasVindexeddependencies
p565
(lp566
(lp567
Vroot
p568
aVROOT-0
p569
aVbuy-7
p570
aa(lp571
Vadvmod
p572
aVmany-2
p573
aVHow-1
p574
aa(lp575
Vamod
p576
aVmore-3
p577
aVmany-2
p578
aa(lp579
Vdobj
p580
aVbuy-7
p581
aVmore-3
p582
aa(lp583
Vdep
p584
aVmore-3
p585
aVplates-4
p586
aa(lp587
Vaux
p588
aVbuy-7
p589
aVshould-5
p590
aa(lp591
Vnsubj
p592
aVbuy-7
p593
aVJustin-6
p594
aasas.