(dp0
Vcoref
p1
(lp2
(lp3
(lp4
(lp5
V2
p6
aI0
aI10
aI10
aI11
aa(lp7
g6
aI0
aI2
aI2
aI3
aaaa(lp8
(lp9
(lp10
Vthey
p11
aI1
aI11
aI11
aI12
aa(lp12
V2 friends playing a video game online when 2 more players joined the game
p13
aI0
aI3
aI2
aI16
aaaa(lp14
(lp15
(lp16
Vthe game
p17
aI0
aI15
aI14
aI16
aa(lp18
Va video game
p19
aI0
aI7
aI5
aI8
aaaasVsentences
p20
(lp21
(dp22
Vparsetree
p23
V(ROOT (S (NP (EX There)) (VP (VBD were) (NP (NP (CD 2) (NNS friends)) (VP (VBG playing) (NP (DT a) (NN video) (NN game)) (PP (NN online)) (SBAR (WHADVP (WRB when)) (S (NP (CD 2) (JJR more) (NNS players)) (VP (VBD joined) (NP (DT the) (NN game)))))))) (. .)))
p24
sVtext
p25
VThere were 2 friends playing a video game online when 2 more players joined the game .
p26
sVdependencies
p27
(lp28
(lp29
Vroot
p30
aVROOT
p31
aVwere
p32
aa(lp33
Vexpl
p34
aVwere
p35
aVThere
p36
aa(lp37
Vnum
p38
aVfriends
p39
ag6
aa(lp40
Vnsubj
p41
aVwere
p42
aVfriends
p43
aa(lp44
Vvmod
p45
aVfriends
p46
aVplaying
p47
aa(lp48
Vdet
p49
aVgame
p50
aVa
p51
aa(lp52
Vnn
p53
aVgame
p54
aVvideo
p55
aa(lp56
Vdobj
p57
aVplaying
p58
aVgame
p59
aa(lp60
Vprep
p61
aVplaying
p62
aVonline
p63
aa(lp64
Vadvmod
p65
aVjoined
p66
aVwhen
p67
aa(lp68
Vnum
p69
aVplayers
p70
ag6
aa(lp71
Vamod
p72
aVplayers
p73
aVmore
p74
aa(lp75
Vnsubj
p76
aVjoined
p77
aVplayers
p78
aa(lp79
Vadvcl
p80
aVplaying
p81
aVjoined
p82
aa(lp83
Vdet
p84
aVgame
p85
aVthe
p86
aa(lp87
Vdobj
p88
aVjoined
p89
aVgame
p90
aasVwords
p91
(lp92
(lp93
VThere
p94
a(dp95
VNamedEntityTag
p96
VO
p97
sVCharacterOffsetEnd
p98
V6
p99
sVCharacterOffsetBegin
p100
V1
p101
sVPartOfSpeech
p102
VEX
p103
sVLemma
p104
Vthere
p105
saa(lp106
Vwere
p107
a(dp108
VNamedEntityTag
p109
g97
sVCharacterOffsetEnd
p110
V11
p111
sVCharacterOffsetBegin
p112
V7
p113
sVPartOfSpeech
p114
VVBD
p115
sVLemma
p116
Vbe
p117
saa(lp118
g6
a(dp119
VNormalizedNamedEntityTag
p120
V2.0
p121
sVLemma
p122
g6
sVCharacterOffsetEnd
p123
V13
p124
sVPartOfSpeech
p125
VCD
p126
sVCharacterOffsetBegin
p127
V12
p128
sVNamedEntityTag
p129
VNUMBER
p130
saa(lp131
Vfriends
p132
a(dp133
VNamedEntityTag
p134
g97
sVCharacterOffsetEnd
p135
V21
p136
sVCharacterOffsetBegin
p137
V14
p138
sVPartOfSpeech
p139
VNNS
p140
sVLemma
p141
Vfriend
p142
saa(lp143
Vplaying
p144
a(dp145
VNamedEntityTag
p146
g97
sVCharacterOffsetEnd
p147
V29
p148
sVCharacterOffsetBegin
p149
V22
p150
sVPartOfSpeech
p151
VVBG
p152
sVLemma
p153
Vplay
p154
saa(lp155
g51
a(dp156
VNamedEntityTag
p157
g97
sVCharacterOffsetEnd
p158
V31
p159
sVCharacterOffsetBegin
p160
V30
p161
sVPartOfSpeech
p162
VDT
p163
sVLemma
p164
g51
saa(lp165
Vvideo
p166
a(dp167
VNamedEntityTag
p168
g97
sVCharacterOffsetEnd
p169
V37
p170
sVCharacterOffsetBegin
p171
V32
p172
sVPartOfSpeech
p173
VNN
p174
sVLemma
p175
Vvideo
p176
saa(lp177
Vgame
p178
a(dp179
VNamedEntityTag
p180
g97
sVCharacterOffsetEnd
p181
V42
p182
sVCharacterOffsetBegin
p183
V38
p184
sVPartOfSpeech
p185
VNN
p186
sVLemma
p187
Vgame
p188
saa(lp189
Vonline
p190
a(dp191
VNamedEntityTag
p192
g97
sVCharacterOffsetEnd
p193
V49
p194
sVCharacterOffsetBegin
p195
V43
p196
sVPartOfSpeech
p197
VNN
p198
sVLemma
p199
Vonline
p200
saa(lp201
Vwhen
p202
a(dp203
VNamedEntityTag
p204
g97
sVCharacterOffsetEnd
p205
V54
p206
sVCharacterOffsetBegin
p207
V50
p208
sVPartOfSpeech
p209
VWRB
p210
sVLemma
p211
Vwhen
p212
saa(lp213
g6
a(dp214
VNormalizedNamedEntityTag
p215
V2.0
p216
sVLemma
p217
g6
sVCharacterOffsetEnd
p218
V56
p219
sVPartOfSpeech
p220
VCD
p221
sVCharacterOffsetBegin
p222
V55
p223
sVNamedEntityTag
p224
VNUMBER
p225
saa(lp226
Vmore
p227
a(dp228
VNamedEntityTag
p229
g97
sVCharacterOffsetEnd
p230
V61
p231
sVCharacterOffsetBegin
p232
V57
p233
sVPartOfSpeech
p234
VJJR
p235
sVLemma
p236
Vmore
p237
saa(lp238
Vplayers
p239
a(dp240
VNamedEntityTag
p241
g97
sVCharacterOffsetEnd
p242
V69
p243
sVCharacterOffsetBegin
p244
V62
p245
sVPartOfSpeech
p246
VNNS
p247
sVLemma
p248
Vplayer
p249
saa(lp250
Vjoined
p251
a(dp252
VNamedEntityTag
p253
g97
sVCharacterOffsetEnd
p254
V76
p255
sVCharacterOffsetBegin
p256
V70
p257
sVPartOfSpeech
p258
VVBD
p259
sVLemma
p260
Vjoin
p261
saa(lp262
Vthe
p263
a(dp264
VNamedEntityTag
p265
g97
sVCharacterOffsetEnd
p266
V80
p267
sVCharacterOffsetBegin
p268
V77
p269
sVPartOfSpeech
p270
VDT
p271
sVLemma
p272
Vthe
p273
saa(lp274
Vgame
p275
a(dp276
VNamedEntityTag
p277
g97
sVCharacterOffsetEnd
p278
V85
p279
sVCharacterOffsetBegin
p280
V81
p281
sVPartOfSpeech
p282
VNN
p283
sVLemma
p284
Vgame
p285
saa(lp286
V.
p287
a(dp288
VNamedEntityTag
p289
g97
sVCharacterOffsetEnd
p290
V87
p291
sVCharacterOffsetBegin
p292
V86
p293
sVPartOfSpeech
p294
g287
sVLemma
p295
g287
saasVindexeddependencies
p296
(lp297
(lp298
Vroot
p299
aVROOT-0
p300
aVwere-2
p301
aa(lp302
Vexpl
p303
aVwere-2
p304
aVThere-1
p305
aa(lp306
Vnum
p307
aVfriends-4
p308
aV2-3
p309
aa(lp310
Vnsubj
p311
aVwere-2
p312
aVfriends-4
p313
aa(lp314
Vvmod
p315
aVfriends-4
p316
aVplaying-5
p317
aa(lp318
Vdet
p319
aVgame-8
p320
aVa-6
p321
aa(lp322
Vnn
p323
aVgame-8
p324
aVvideo-7
p325
aa(lp326
Vdobj
p327
aVplaying-5
p328
aVgame-8
p329
aa(lp330
Vprep
p331
aVplaying-5
p332
aVonline-9
p333
aa(lp334
Vadvmod
p335
aVjoined-14
p336
aVwhen-10
p337
aa(lp338
Vnum
p339
aVplayers-13
p340
aV2-11
p341
aa(lp342
Vamod
p343
aVplayers-13
p344
aVmore-12
p345
aa(lp346
Vnsubj
p347
aVjoined-14
p348
aVplayers-13
p349
aa(lp350
Vadvcl
p351
aVplaying-5
p352
aVjoined-14
p353
aa(lp354
Vdet
p355
aVgame-16
p356
aVthe-15
p357
aa(lp358
Vdobj
p359
aVjoined-14
p360
aVgame-16
p361
aasa(dp362
Vparsetree
p363
V(ROOT (SBARQ (SBAR (IN If) (S (NP (DT each) (NN player)) (VP (VBD had) (NP (CD 8) (NNS lives))))) (, ,) (WHNP (WHADJP (WRB how) (JJ many)) (NNS lives)) (SQ (VBD did) (NP (PRP they)) (VP (VBP have) (NP (JJ total)))) (. ?)))
p364
sVtext
p365
VIf each player had 8 lives , how many lives did they have total ?
p366
sVdependencies
p367
(lp368
(lp369
Vroot
p370
aVROOT
p371
aVhave
p372
aa(lp373
Vmark
p374
aVhad
p375
aVIf
p376
aa(lp377
Vdet
p378
aVplayer
p379
aVeach
p380
aa(lp381
Vnsubj
p382
aVhad
p383
aVplayer
p384
aa(lp385
Vadvcl
p386
aVhave
p387
aVhad
p388
aa(lp389
Vnum
p390
aVlives
p391
aV8
p392
aa(lp393
Vdobj
p394
aVhad
p395
aVlives
p396
aa(lp397
Vadvmod
p398
aVmany
p399
aVhow
p400
aa(lp401
Vamod
p402
aVlives
p403
aVmany
p404
aa(lp405
Vdep
p406
aVhave
p407
aVlives
p408
aa(lp409
Vaux
p410
aVhave
p411
aVdid
p412
aa(lp413
Vnsubj
p414
aVhave
p415
aVthey
p416
aa(lp417
Vdobj
p418
aVhave
p419
aVtotal
p420
aasVwords
p421
(lp422
(lp423
VIf
p424
a(dp425
VNamedEntityTag
p426
g97
sVCharacterOffsetEnd
p427
V90
p428
sVCharacterOffsetBegin
p429
V88
p430
sVPartOfSpeech
p431
VIN
p432
sVLemma
p433
Vif
p434
saa(lp435
Veach
p436
a(dp437
VNamedEntityTag
p438
g97
sVCharacterOffsetEnd
p439
V95
p440
sVCharacterOffsetBegin
p441
V91
p442
sVPartOfSpeech
p443
VDT
p444
sVLemma
p445
Veach
p446
saa(lp447
Vplayer
p448
a(dp449
VNamedEntityTag
p450
g97
sVCharacterOffsetEnd
p451
V102
p452
sVCharacterOffsetBegin
p453
V96
p454
sVPartOfSpeech
p455
VNN
p456
sVLemma
p457
Vplayer
p458
saa(lp459
Vhad
p460
a(dp461
VNamedEntityTag
p462
g97
sVCharacterOffsetEnd
p463
V106
p464
sVCharacterOffsetBegin
p465
V103
p466
sVPartOfSpeech
p467
VVBD
p468
sVLemma
p469
Vhave
p470
saa(lp471
g392
a(dp472
VNormalizedNamedEntityTag
p473
V8.0
p474
sVLemma
p475
g392
sVCharacterOffsetEnd
p476
V108
p477
sVPartOfSpeech
p478
VCD
p479
sVCharacterOffsetBegin
p480
V107
p481
sVNamedEntityTag
p482
VNUMBER
p483
saa(lp484
Vlives
p485
a(dp486
VNamedEntityTag
p487
g97
sVCharacterOffsetEnd
p488
V114
p489
sVCharacterOffsetBegin
p490
V109
p491
sVPartOfSpeech
p492
VNNS
p493
sVLemma
p494
Vlife
p495
saa(lp496
V,
p497
a(dp498
VNamedEntityTag
p499
g97
sVCharacterOffsetEnd
p500
V116
p501
sVCharacterOffsetBegin
p502
V115
p503
sVPartOfSpeech
p504
g497
sVLemma
p505
g497
saa(lp506
Vhow
p507
a(dp508
VNamedEntityTag
p509
g97
sVCharacterOffsetEnd
p510
V120
p511
sVCharacterOffsetBegin
p512
V117
p513
sVPartOfSpeech
p514
VWRB
p515
sVLemma
p516
Vhow
p517
saa(lp518
Vmany
p519
a(dp520
VNamedEntityTag
p521
g97
sVCharacterOffsetEnd
p522
V125
p523
sVCharacterOffsetBegin
p524
V121
p525
sVPartOfSpeech
p526
VJJ
p527
sVLemma
p528
Vmany
p529
saa(lp530
Vlives
p531
a(dp532
VNamedEntityTag
p533
g97
sVCharacterOffsetEnd
p534
V131
p535
sVCharacterOffsetBegin
p536
V126
p537
sVPartOfSpeech
p538
VNNS
p539
sVLemma
p540
Vlife
p541
saa(lp542
Vdid
p543
a(dp544
VNamedEntityTag
p545
g97
sVCharacterOffsetEnd
p546
V135
p547
sVCharacterOffsetBegin
p548
V132
p549
sVPartOfSpeech
p550
VVBD
p551
sVLemma
p552
Vdo
p553
saa(lp554
Vthey
p555
a(dp556
VNamedEntityTag
p557
g97
sVCharacterOffsetEnd
p558
V140
p559
sVCharacterOffsetBegin
p560
V136
p561
sVPartOfSpeech
p562
VPRP
p563
sVLemma
p564
Vthey
p565
saa(lp566
Vhave
p567
a(dp568
VNamedEntityTag
p569
g97
sVCharacterOffsetEnd
p570
V145
p571
sVCharacterOffsetBegin
p572
V141
p573
sVPartOfSpeech
p574
VVBP
p575
sVLemma
p576
Vhave
p577
saa(lp578
Vtotal
p579
a(dp580
VNamedEntityTag
p581
g97
sVCharacterOffsetEnd
p582
V151
p583
sVCharacterOffsetBegin
p584
V146
p585
sVPartOfSpeech
p586
VJJ
p587
sVLemma
p588
Vtotal
p589
saa(lp590
V?
p591
a(dp592
VNamedEntityTag
p593
g97
sVCharacterOffsetEnd
p594
V153
p595
sVCharacterOffsetBegin
p596
V152
p597
sVPartOfSpeech
p598
g287
sVLemma
p599
g591
saasVindexeddependencies
p600
(lp601
(lp602
Vroot
p603
aVROOT-0
p604
aVhave-13
p605
aa(lp606
Vmark
p607
aVhad-4
p608
aVIf-1
p609
aa(lp610
Vdet
p611
aVplayer-3
p612
aVeach-2
p613
aa(lp614
Vnsubj
p615
aVhad-4
p616
aVplayer-3
p617
aa(lp618
Vadvcl
p619
aVhave-13
p620
aVhad-4
p621
aa(lp622
Vnum
p623
aVlives-6
p624
aV8-5
p625
aa(lp626
Vdobj
p627
aVhad-4
p628
aVlives-6
p629
aa(lp630
Vadvmod
p631
aVmany-9
p632
aVhow-8
p633
aa(lp634
Vamod
p635
aVlives-10
p636
aVmany-9
p637
aa(lp638
Vdep
p639
aVhave-13
p640
aVlives-10
p641
aa(lp642
Vaux
p643
aVhave-13
p644
aVdid-11
p645
aa(lp646
Vnsubj
p647
aVhave-13
p648
aVthey-12
p649
aa(lp650
Vdobj
p651
aVhave-13
p652
aVtotal-14
p653
aasas.