(dp0
Vcoref
p1
(lp2
(lp3
(lp4
(lp5
VMark
p6
aI1
aI0
aI0
aI1
aa(lp7
VMark 's
p8
aI0
aI0
aI0
aI2
aaa(lp9
(lp10
VMark
p11
aI2
aI4
aI4
aI5
aa(lp12
VMark 's
p13
aI0
aI0
aI0
aI2
aaaa(lp14
(lp15
(lp16
Vhim
p17
aI0
aI4
aI4
aI5
aa(lp18
VMark 's father
p19
aI0
aI2
aI0
aI3
aaaasVsentences
p20
(lp21
(dp22
Vparsetree
p23
V(ROOT (S (NP (NP (NNP Mark) (POS 's)) (NN father)) (VP (VBD gave) (NP (PRP him)) (NP ($ $) (CD 85))) (. .)))
p24
sVtext
p25
VMark's father gave him $85 .
p26
sVdependencies
p27
(lp28
(lp29
Vroot
p30
aVROOT
p31
aVgave
p32
aa(lp33
Vposs
p34
aVfather
p35
aVMark
p36
aa(lp37
Vnsubj
p38
aVgave
p39
aVfather
p40
aa(lp41
Viobj
p42
aVgave
p43
aVhim
p44
aa(lp45
Vdobj
p46
aVgave
p47
aV$
p48
aa(lp49
Vnum
p50
ag48
aV85
p51
aasVwords
p52
(lp53
(lp54
VMark
p55
a(dp56
VNamedEntityTag
p57
VPERSON
p58
sVCharacterOffsetEnd
p59
V5
p60
sVCharacterOffsetBegin
p61
V1
p62
sVPartOfSpeech
p63
VNNP
p64
sVLemma
p65
VMark
p66
saa(lp67
V's
p68
a(dp69
VNamedEntityTag
p70
VO
p71
sVCharacterOffsetEnd
p72
V7
p73
sVCharacterOffsetBegin
p74
g60
sVPartOfSpeech
p75
VPOS
p76
sVLemma
p77
V's
p78
saa(lp79
Vfather
p80
a(dp81
VNamedEntityTag
p82
g71
sVCharacterOffsetEnd
p83
V14
p84
sVCharacterOffsetBegin
p85
V8
p86
sVPartOfSpeech
p87
VNN
p88
sVLemma
p89
Vfather
p90
saa(lp91
Vgave
p92
a(dp93
VNamedEntityTag
p94
g71
sVCharacterOffsetEnd
p95
V19
p96
sVCharacterOffsetBegin
p97
V15
p98
sVPartOfSpeech
p99
VVBD
p100
sVLemma
p101
Vgive
p102
saa(lp103
Vhim
p104
a(dp105
VNamedEntityTag
p106
g71
sVCharacterOffsetEnd
p107
V23
p108
sVCharacterOffsetBegin
p109
V20
p110
sVPartOfSpeech
p111
VPRP
p112
sVLemma
p113
Vhe
p114
saa(lp115
g48
a(dp116
VNormalizedNamedEntityTag
p117
V$85.0
p118
sVLemma
p119
g48
sVCharacterOffsetEnd
p120
V25
p121
sVPartOfSpeech
p122
g48
sVCharacterOffsetBegin
p123
V24
p124
sVNamedEntityTag
p125
VMONEY
p126
saa(lp127
V85
p128
a(dp129
VNormalizedNamedEntityTag
p130
V$85.0
p131
sVLemma
p132
V85
p133
sVCharacterOffsetEnd
p134
V27
p135
sVPartOfSpeech
p136
VCD
p137
sVCharacterOffsetBegin
p138
V25
p139
sVNamedEntityTag
p140
VMONEY
p141
saa(lp142
V.
p143
a(dp144
VNamedEntityTag
p145
g71
sVCharacterOffsetEnd
p146
V29
p147
sVCharacterOffsetBegin
p148
V28
p149
sVPartOfSpeech
p150
g143
sVLemma
p151
g143
saasVindexeddependencies
p152
(lp153
(lp154
Vroot
p155
aVROOT-0
p156
aVgave-4
p157
aa(lp158
Vposs
p159
aVfather-3
p160
aVMark-1
p161
aa(lp162
Vnsubj
p163
aVgave-4
p164
aVfather-3
p165
aa(lp166
Viobj
p167
aVgave-4
p168
aVhim-5
p169
aa(lp170
Vdobj
p171
aVgave-4
p172
aV$-6
p173
aa(lp174
Vnum
p175
aV$-6
p176
aV85-7
p177
aasa(dp178
Vparsetree
p179
V(ROOT (S (NP (NNP Mark)) (VP (VBD bought) (NP (NP (CD 10) (NNS books)) (, ,) (NP (NP (NP (DT each)) (PP (IN of) (NP (WDT which) (NN cost)))) (NP ($ $) (CD 5))))) (. .)))
p180
sVtext
p181
VMark bought 10 books , each of which cost $5 .
p182
sVdependencies
p183
(lp184
(lp185
Vroot
p186
aVROOT
p187
aVbought
p188
aa(lp189
Vnsubj
p190
aVbought
p191
aVMark
p192
aa(lp193
Vnum
p194
aVbooks
p195
aV10
p196
aa(lp197
Vdobj
p198
aVbought
p199
aVbooks
p200
aa(lp201
Vappos
p202
aVbooks
p203
aVeach
p204
aa(lp205
Vdet
p206
aVcost
p207
aVwhich
p208
aa(lp209
Vprep_of
p210
aVeach
p211
aVcost
p212
aa(lp213
Vdep
p214
aVeach
p215
ag48
aa(lp216
Vnum
p217
ag48
ag60
aasVwords
p218
(lp219
(lp220
VMark
p221
a(dp222
VNamedEntityTag
p223
VPERSON
p224
sVCharacterOffsetEnd
p225
V34
p226
sVCharacterOffsetBegin
p227
V30
p228
sVPartOfSpeech
p229
VNNP
p230
sVLemma
p231
VMark
p232
saa(lp233
Vbought
p234
a(dp235
VNamedEntityTag
p236
g71
sVCharacterOffsetEnd
p237
V41
p238
sVCharacterOffsetBegin
p239
V35
p240
sVPartOfSpeech
p241
VVBD
p242
sVLemma
p243
Vbuy
p244
saa(lp245
V10
p246
a(dp247
VNormalizedNamedEntityTag
p248
V10.0
p249
sVLemma
p250
V10
p251
sVCharacterOffsetEnd
p252
V44
p253
sVPartOfSpeech
p254
VCD
p255
sVCharacterOffsetBegin
p256
V42
p257
sVNamedEntityTag
p258
VNUMBER
p259
saa(lp260
Vbooks
p261
a(dp262
VNamedEntityTag
p263
g71
sVCharacterOffsetEnd
p264
V50
p265
sVCharacterOffsetBegin
p266
V45
p267
sVPartOfSpeech
p268
VNNS
p269
sVLemma
p270
Vbook
p271
saa(lp272
V,
p273
a(dp274
VNamedEntityTag
p275
g71
sVCharacterOffsetEnd
p276
V52
p277
sVCharacterOffsetBegin
p278
V51
p279
sVPartOfSpeech
p280
g273
sVLemma
p281
g273
saa(lp282
Veach
p283
a(dp284
VNamedEntityTag
p285
g71
sVCharacterOffsetEnd
p286
V57
p287
sVCharacterOffsetBegin
p288
V53
p289
sVPartOfSpeech
p290
VDT
p291
sVLemma
p292
Veach
p293
saa(lp294
Vof
p295
a(dp296
VNamedEntityTag
p297
g71
sVCharacterOffsetEnd
p298
V60
p299
sVCharacterOffsetBegin
p300
V58
p301
sVPartOfSpeech
p302
VIN
p303
sVLemma
p304
Vof
p305
saa(lp306
Vwhich
p307
a(dp308
VNamedEntityTag
p309
g71
sVCharacterOffsetEnd
p310
V66
p311
sVCharacterOffsetBegin
p312
V61
p313
sVPartOfSpeech
p314
VWDT
p315
sVLemma
p316
Vwhich
p317
saa(lp318
Vcost
p319
a(dp320
VNamedEntityTag
p321
g71
sVCharacterOffsetEnd
p322
V71
p323
sVCharacterOffsetBegin
p324
V67
p325
sVPartOfSpeech
p326
VNN
p327
sVLemma
p328
Vcost
p329
saa(lp330
g48
a(dp331
VNormalizedNamedEntityTag
p332
V$5.0
p333
sVLemma
p334
g48
sVCharacterOffsetEnd
p335
V73
p336
sVPartOfSpeech
p337
g48
sVCharacterOffsetBegin
p338
V72
p339
sVNamedEntityTag
p340
VMONEY
p341
saa(lp342
g60
a(dp343
VNormalizedNamedEntityTag
p344
V$5.0
p345
sVLemma
p346
g60
sVCharacterOffsetEnd
p347
V74
p348
sVPartOfSpeech
p349
VCD
p350
sVCharacterOffsetBegin
p351
V73
p352
sVNamedEntityTag
p353
VMONEY
p354
saa(lp355
g143
a(dp356
VNamedEntityTag
p357
g71
sVCharacterOffsetEnd
p358
V76
p359
sVCharacterOffsetBegin
p360
V75
p361
sVPartOfSpeech
p362
g143
sVLemma
p363
g143
saasVindexeddependencies
p364
(lp365
(lp366
Vroot
p367
aVROOT-0
p368
aVbought-2
p369
aa(lp370
Vnsubj
p371
aVbought-2
p372
aVMark-1
p373
aa(lp374
Vnum
p375
aVbooks-4
p376
aV10-3
p377
aa(lp378
Vdobj
p379
aVbought-2
p380
aVbooks-4
p381
aa(lp382
Vappos
p383
aVbooks-4
p384
aVeach-6
p385
aa(lp386
Vdet
p387
aVcost-9
p388
aVwhich-8
p389
aa(lp390
Vprep_of
p391
aVeach-6
p392
aVcost-9
p393
aa(lp394
Vdep
p395
aVeach-6
p396
aV$-10
p397
aa(lp398
Vnum
p399
aV$-10
p400
aV5-11
p401
aasa(dp402
Vparsetree
p403
V(ROOT (SBARQ (WHNP (WHADJP (WRB How) (JJ much)) (NN money)) (SQ (VBZ does) (NP (NNP Mark)) (VP (VB have) (VP (VBN left)))) (. ?)))
p404
sVtext
p405
VHow much money does Mark have left ?
p406
sVdependencies
p407
(lp408
(lp409
Vroot
p410
aVROOT
p411
aVleft
p412
aa(lp413
Vadvmod
p414
aVmuch
p415
aVHow
p416
aa(lp417
Vamod
p418
aVmoney
p419
aVmuch
p420
aa(lp421
Vdobj
p422
aVleft
p423
aVmoney
p424
aa(lp425
Vaux
p426
aVleft
p427
aVdoes
p428
aa(lp429
Vnsubj
p430
aVleft
p431
aVMark
p432
aa(lp433
Vaux
p434
aVleft
p435
aVhave
p436
aasVwords
p437
(lp438
(lp439
VHow
p440
a(dp441
VNamedEntityTag
p442
g71
sVCharacterOffsetEnd
p443
V80
p444
sVCharacterOffsetBegin
p445
V77
p446
sVPartOfSpeech
p447
VWRB
p448
sVLemma
p449
Vhow
p450
saa(lp451
Vmuch
p452
a(dp453
VNamedEntityTag
p454
g71
sVCharacterOffsetEnd
p455
V85
p456
sVCharacterOffsetBegin
p457
V81
p458
sVPartOfSpeech
p459
VJJ
p460
sVLemma
p461
Vmuch
p462
saa(lp463
Vmoney
p464
a(dp465
VNamedEntityTag
p466
g71
sVCharacterOffsetEnd
p467
V91
p468
sVCharacterOffsetBegin
p469
V86
p470
sVPartOfSpeech
p471
VNN
p472
sVLemma
p473
Vmoney
p474
saa(lp475
Vdoes
p476
a(dp477
VNamedEntityTag
p478
g71
sVCharacterOffsetEnd
p479
V96
p480
sVCharacterOffsetBegin
p481
V92
p482
sVPartOfSpeech
p483
VVBZ
p484
sVLemma
p485
Vdo
p486
saa(lp487
VMark
p488
a(dp489
VNamedEntityTag
p490
VPERSON
p491
sVCharacterOffsetEnd
p492
V101
p493
sVCharacterOffsetBegin
p494
V97
p495
sVPartOfSpeech
p496
VNNP
p497
sVLemma
p498
VMark
p499
saa(lp500
Vhave
p501
a(dp502
VNamedEntityTag
p503
g71
sVCharacterOffsetEnd
p504
V106
p505
sVCharacterOffsetBegin
p506
V102
p507
sVPartOfSpeech
p508
VVB
p509
sVLemma
p510
Vhave
p511
saa(lp512
Vleft
p513
a(dp514
VNamedEntityTag
p515
g71
sVCharacterOffsetEnd
p516
V111
p517
sVCharacterOffsetBegin
p518
V107
p519
sVPartOfSpeech
p520
VVBN
p521
sVLemma
p522
Vleave
p523
saa(lp524
V?
p525
a(dp526
VNamedEntityTag
p527
g71
sVCharacterOffsetEnd
p528
V113
p529
sVCharacterOffsetBegin
p530
V112
p531
sVPartOfSpeech
p532
g143
sVLemma
p533
g525
saasVindexeddependencies
p534
(lp535
(lp536
Vroot
p537
aVROOT-0
p538
aVleft-7
p539
aa(lp540
Vadvmod
p541
aVmuch-2
p542
aVHow-1
p543
aa(lp544
Vamod
p545
aVmoney-3
p546
aVmuch-2
p547
aa(lp548
Vdobj
p549
aVleft-7
p550
aVmoney-3
p551
aa(lp552
Vaux
p553
aVleft-7
p554
aVdoes-4
p555
aa(lp556
Vnsubj
p557
aVleft-7
p558
aVMark-5
p559
aa(lp560
Vaux
p561
aVleft-7
p562
aVhave-6
p563
aasas.