(dp0
Vcoref
p1
(lp2
(lp3
(lp4
(lp5
V7
p6
aI0
aI11
aI11
aI12
aa(lp7
g6
aI0
aI3
aI3
aI4
aaaa(lp8
(lp9
(lp10
Vhe
p11
aI0
aI5
aI5
aI6
aa(lp12
VA waiter
p13
aI0
aI1
aI0
aI2
aaa(lp14
(lp15
Vthe waiter
p16
aI1
aI6
aI5
aI7
aa(lp17
VA waiter
p18
aI0
aI1
aI0
aI2
aaaasVsentences
p19
(lp20
(dp21
Vparsetree
p22
V(ROOT (S (NP (DT A) (NN waiter)) (VP (VBD had) (NP (NP (CD 7) (NNS tables)) (SBAR (S (NP (PRP he)) (VP (VBD was) (VP (VBG waiting) (PP (IN on))))))) (, ,) (PP (IN with) (NP (NP (CD 7) (NNS women)) (CC and) (NP (NP (CD 2) (NNS men)) (PP (IN at) (NP (DT each) (NN table))))))) (. .)))
p23
sVtext
p24
VA waiter had 7 tables he was waiting on , with 7 women and 2 men at each table .
p25
sVdependencies
p26
(lp27
(lp28
Vroot
p29
aVROOT
p30
aVhad
p31
aa(lp32
Vdet
p33
aVwaiter
p34
aVA
p35
aa(lp36
Vnsubj
p37
aVhad
p38
aVwaiter
p39
aa(lp40
Vnum
p41
aVtables
p42
ag6
aa(lp43
Vdobj
p44
aVhad
p45
aVtables
p46
aa(lp47
Vnsubj
p48
aVwaiting
p49
aVhe
p50
aa(lp51
Vaux
p52
aVwaiting
p53
aVwas
p54
aa(lp55
Vrcmod
p56
aVtables
p57
aVwaiting
p58
aa(lp59
Vprep
p60
aVwaiting
p61
aVon
p62
aa(lp63
Vnum
p64
aVwomen
p65
ag6
aa(lp66
Vprep_with
p67
aVhad
p68
aVwomen
p69
aa(lp70
Vnum
p71
aVmen
p72
aV2
p73
aa(lp74
Vconj_and
p75
aVwomen
p76
aVmen
p77
aa(lp78
Vdet
p79
aVtable
p80
aVeach
p81
aa(lp82
Vprep_at
p83
aVmen
p84
aVtable
p85
aasVwords
p86
(lp87
(lp88
g35
a(dp89
VNamedEntityTag
p90
VO
p91
sVCharacterOffsetEnd
p92
g73
sVCharacterOffsetBegin
p93
V1
p94
sVPartOfSpeech
p95
VDT
p96
sVLemma
p97
Va
p98
saa(lp99
Vwaiter
p100
a(dp101
VNamedEntityTag
p102
g91
sVCharacterOffsetEnd
p103
V9
p104
sVCharacterOffsetBegin
p105
V3
p106
sVPartOfSpeech
p107
VNN
p108
sVLemma
p109
Vwaiter
p110
saa(lp111
Vhad
p112
a(dp113
VNamedEntityTag
p114
g91
sVCharacterOffsetEnd
p115
V13
p116
sVCharacterOffsetBegin
p117
V10
p118
sVPartOfSpeech
p119
VVBD
p120
sVLemma
p121
Vhave
p122
saa(lp123
g6
a(dp124
VNormalizedNamedEntityTag
p125
V7.0
p126
sVLemma
p127
g6
sVCharacterOffsetEnd
p128
V15
p129
sVPartOfSpeech
p130
VCD
p131
sVCharacterOffsetBegin
p132
V14
p133
sVNamedEntityTag
p134
VNUMBER
p135
saa(lp136
Vtables
p137
a(dp138
VNamedEntityTag
p139
g91
sVCharacterOffsetEnd
p140
V22
p141
sVCharacterOffsetBegin
p142
V16
p143
sVPartOfSpeech
p144
VNNS
p145
sVLemma
p146
Vtable
p147
saa(lp148
Vhe
p149
a(dp150
VNamedEntityTag
p151
g91
sVCharacterOffsetEnd
p152
V25
p153
sVCharacterOffsetBegin
p154
V23
p155
sVPartOfSpeech
p156
VPRP
p157
sVLemma
p158
Vhe
p159
saa(lp160
Vwas
p161
a(dp162
VNamedEntityTag
p163
g91
sVCharacterOffsetEnd
p164
V29
p165
sVCharacterOffsetBegin
p166
V26
p167
sVPartOfSpeech
p168
VVBD
p169
sVLemma
p170
Vbe
p171
saa(lp172
Vwaiting
p173
a(dp174
VNamedEntityTag
p175
g91
sVCharacterOffsetEnd
p176
V37
p177
sVCharacterOffsetBegin
p178
V30
p179
sVPartOfSpeech
p180
VVBG
p181
sVLemma
p182
Vwait
p183
saa(lp184
Von
p185
a(dp186
VNamedEntityTag
p187
g91
sVCharacterOffsetEnd
p188
V40
p189
sVCharacterOffsetBegin
p190
V38
p191
sVPartOfSpeech
p192
VIN
p193
sVLemma
p194
Von
p195
saa(lp196
V,
p197
a(dp198
VNamedEntityTag
p199
g91
sVCharacterOffsetEnd
p200
V42
p201
sVCharacterOffsetBegin
p202
V41
p203
sVPartOfSpeech
p204
g197
sVLemma
p205
g197
saa(lp206
Vwith
p207
a(dp208
VNamedEntityTag
p209
g91
sVCharacterOffsetEnd
p210
V47
p211
sVCharacterOffsetBegin
p212
V43
p213
sVPartOfSpeech
p214
VIN
p215
sVLemma
p216
Vwith
p217
saa(lp218
g6
a(dp219
VNormalizedNamedEntityTag
p220
V7.0
p221
sVLemma
p222
g6
sVCharacterOffsetEnd
p223
V49
p224
sVPartOfSpeech
p225
VCD
p226
sVCharacterOffsetBegin
p227
V48
p228
sVNamedEntityTag
p229
VNUMBER
p230
saa(lp231
Vwomen
p232
a(dp233
VNamedEntityTag
p234
g91
sVCharacterOffsetEnd
p235
V55
p236
sVCharacterOffsetBegin
p237
V50
p238
sVPartOfSpeech
p239
VNNS
p240
sVLemma
p241
Vwoman
p242
saa(lp243
Vand
p244
a(dp245
VNamedEntityTag
p246
g91
sVCharacterOffsetEnd
p247
V59
p248
sVCharacterOffsetBegin
p249
V56
p250
sVPartOfSpeech
p251
VCC
p252
sVLemma
p253
Vand
p254
saa(lp255
g73
a(dp256
VNormalizedNamedEntityTag
p257
V2.0
p258
sVLemma
p259
g73
sVCharacterOffsetEnd
p260
V61
p261
sVPartOfSpeech
p262
VCD
p263
sVCharacterOffsetBegin
p264
V60
p265
sVNamedEntityTag
p266
VNUMBER
p267
saa(lp268
Vmen
p269
a(dp270
VNamedEntityTag
p271
g91
sVCharacterOffsetEnd
p272
V65
p273
sVCharacterOffsetBegin
p274
V62
p275
sVPartOfSpeech
p276
VNNS
p277
sVLemma
p278
Vman
p279
saa(lp280
Vat
p281
a(dp282
VNamedEntityTag
p283
g91
sVCharacterOffsetEnd
p284
V68
p285
sVCharacterOffsetBegin
p286
V66
p287
sVPartOfSpeech
p288
VIN
p289
sVLemma
p290
Vat
p291
saa(lp292
Veach
p293
a(dp294
VNamedEntityTag
p295
g91
sVCharacterOffsetEnd
p296
V73
p297
sVCharacterOffsetBegin
p298
V69
p299
sVPartOfSpeech
p300
VDT
p301
sVLemma
p302
Veach
p303
saa(lp304
Vtable
p305
a(dp306
VNamedEntityTag
p307
g91
sVCharacterOffsetEnd
p308
V79
p309
sVCharacterOffsetBegin
p310
V74
p311
sVPartOfSpeech
p312
VNN
p313
sVLemma
p314
Vtable
p315
saa(lp316
V.
p317
a(dp318
VNamedEntityTag
p319
g91
sVCharacterOffsetEnd
p320
V81
p321
sVCharacterOffsetBegin
p322
V80
p323
sVPartOfSpeech
p324
g317
sVLemma
p325
g317
saasVindexeddependencies
p326
(lp327
(lp328
Vroot
p329
aVROOT-0
p330
aVhad-3
p331
aa(lp332
Vdet
p333
aVwaiter-2
p334
aVA-1
p335
aa(lp336
Vnsubj
p337
aVhad-3
p338
aVwaiter-2
p339
aa(lp340
Vnum
p341
aVtables-5
p342
aV7-4
p343
aa(lp344
Vdobj
p345
aVhad-3
p346
aVtables-5
p347
aa(lp348
Vnsubj
p349
aVwaiting-8
p350
aVhe-6
p351
aa(lp352
Vaux
p353
aVwaiting-8
p354
aVwas-7
p355
aa(lp356
Vrcmod
p357
aVtables-5
p358
aVwaiting-8
p359
aa(lp360
Vprep
p361
aVwaiting-8
p362
aVon-9
p363
aa(lp364
Vnum
p365
aVwomen-13
p366
aV7-12
p367
aa(lp368
Vprep_with
p369
aVhad-3
p370
aVwomen-13
p371
aa(lp372
Vnum
p373
aVmen-16
p374
aV2-15
p375
aa(lp376
Vconj_and
p377
aVwomen-13
p378
aVmen-16
p379
aa(lp380
Vdet
p381
aVtable-19
p382
aVeach-18
p383
aa(lp384
Vprep_at
p385
aVmen-16
p386
aVtable-19
p387
aasa(dp388
Vparsetree
p389
V(ROOT (SBARQ (WHNP (WHADJP (WRB How) (JJ many)) (NNS customers)) (SQ (VP (VBP total) (SBAR (SINV (VBD did) (NP (DT the) (NN waiter)) (VP (VB have)))))) (. ?)))
p390
sVtext
p391
VHow many customers total did the waiter have ?
p392
sVdependencies
p393
(lp394
(lp395
Vroot
p396
aVROOT
p397
aVtotal
p398
aa(lp399
Vadvmod
p400
aVmany
p401
aVHow
p402
aa(lp403
Vamod
p404
aVcustomers
p405
aVmany
p406
aa(lp407
Vnsubj
p408
aVtotal
p409
aVcustomers
p410
aa(lp411
Vaux
p412
aVhave
p413
aVdid
p414
aa(lp415
Vdet
p416
aVwaiter
p417
aVthe
p418
aa(lp419
Vnsubj
p420
aVhave
p421
aVwaiter
p422
aa(lp423
Vadvcl
p424
aVtotal
p425
aVhave
p426
aasVwords
p427
(lp428
(lp429
VHow
p430
a(dp431
VNamedEntityTag
p432
g91
sVCharacterOffsetEnd
p433
V85
p434
sVCharacterOffsetBegin
p435
V82
p436
sVPartOfSpeech
p437
VWRB
p438
sVLemma
p439
Vhow
p440
saa(lp441
Vmany
p442
a(dp443
VNamedEntityTag
p444
g91
sVCharacterOffsetEnd
p445
V90
p446
sVCharacterOffsetBegin
p447
V86
p448
sVPartOfSpeech
p449
VJJ
p450
sVLemma
p451
Vmany
p452
saa(lp453
Vcustomers
p454
a(dp455
VNamedEntityTag
p456
g91
sVCharacterOffsetEnd
p457
V100
p458
sVCharacterOffsetBegin
p459
V91
p460
sVPartOfSpeech
p461
VNNS
p462
sVLemma
p463
Vcustomer
p464
saa(lp465
Vtotal
p466
a(dp467
VNamedEntityTag
p468
g91
sVCharacterOffsetEnd
p469
V106
p470
sVCharacterOffsetBegin
p471
V101
p472
sVPartOfSpeech
p473
VVBP
p474
sVLemma
p475
Vtotal
p476
saa(lp477
Vdid
p478
a(dp479
VNamedEntityTag
p480
g91
sVCharacterOffsetEnd
p481
V110
p482
sVCharacterOffsetBegin
p483
V107
p484
sVPartOfSpeech
p485
VVBD
p486
sVLemma
p487
Vdo
p488
saa(lp489
Vthe
p490
a(dp491
VNamedEntityTag
p492
g91
sVCharacterOffsetEnd
p493
V114
p494
sVCharacterOffsetBegin
p495
V111
p496
sVPartOfSpeech
p497
VDT
p498
sVLemma
p499
Vthe
p500
saa(lp501
Vwaiter
p502
a(dp503
VNamedEntityTag
p504
g91
sVCharacterOffsetEnd
p505
V121
p506
sVCharacterOffsetBegin
p507
V115
p508
sVPartOfSpeech
p509
VNN
p510
sVLemma
p511
Vwaiter
p512
saa(lp513
Vhave
p514
a(dp515
VNamedEntityTag
p516
g91
sVCharacterOffsetEnd
p517
V126
p518
sVCharacterOffsetBegin
p519
V122
p520
sVPartOfSpeech
p521
VVB
p522
sVLemma
p523
Vhave
p524
saa(lp525
V?
p526
a(dp527
VNamedEntityTag
p528
g91
sVCharacterOffsetEnd
p529
V128
p530
sVCharacterOffsetBegin
p531
V127
p532
sVPartOfSpeech
p533
g317
sVLemma
p534
g526
saasVindexeddependencies
p535
(lp536
(lp537
Vroot
p538
aVROOT-0
p539
aVtotal-4
p540
aa(lp541
Vadvmod
p542
aVmany-2
p543
aVHow-1
p544
aa(lp545
Vamod
p546
aVcustomers-3
p547
aVmany-2
p548
aa(lp549
Vnsubj
p550
aVtotal-4
p551
aVcustomers-3
p552
aa(lp553
Vaux
p554
aVhave-8
p555
aVdid-5
p556
aa(lp557
Vdet
p558
aVwaiter-7
p559
aVthe-6
p560
aa(lp561
Vnsubj
p562
aVhave-8
p563
aVwaiter-7
p564
aa(lp565
Vadvcl
p566
aVtotal-4
p567
aVhave-8
p568
aasas.