(dp0
Vcoref
p1
(lp2
(lp3
(lp4
(lp5
Vshe
p6
aI0
aI7
aI7
aI8
aa(lp7
VTiffany
p8
aI0
aI0
aI0
aI1
aaa(lp9
(lp10
Vshe
p11
aI0
aI14
aI14
aI15
aa(lp12
VTiffany
p13
aI0
aI0
aI0
aI1
aaa(lp14
(lp15
Vshe
p16
aI1
aI1
aI1
aI2
aa(lp17
VTiffany
p18
aI0
aI0
aI0
aI1
aaa(lp19
(lp20
Vher
p21
aI1
aI17
aI17
aI18
aa(lp22
VTiffany
p23
aI0
aI0
aI0
aI1
aaaasVsentences
p24
(lp25
(dp26
Vparsetree
p27
V(ROOT (S (NP (NNP Tiffany)) (VP (VBD was) (VP (VBG playing) (NP (NP (DT a) (NN video) (NN game)) (SBAR (WHADVP (WRB where)) (S (NP (PRP she)) (NP (NNS scores))))) (PP (NP (CD 6) (NNS points)) (IN for) (NP (NP (DT each) (NN treasure)) (SBAR (S (NP (PRP she)) (VP (VBZ finds)))))))) (. .)))
p28
sVtext
p29
VTiffany was playing a video game where she scores 6 points for each treasure she finds .
p30
sVdependencies
p31
(lp32
(lp33
Vroot
p34
aVROOT
p35
aVplaying
p36
aa(lp37
Vnsubj
p38
aVplaying
p39
aVTiffany
p40
aa(lp41
Vaux
p42
aVplaying
p43
aVwas
p44
aa(lp45
Vdet
p46
aVgame
p47
aVa
p48
aa(lp49
Vnn
p50
aVgame
p51
aVvideo
p52
aa(lp53
Vdobj
p54
aVplaying
p55
aVgame
p56
aa(lp57
Vadvmod
p58
aVscores
p59
aVwhere
p60
aa(lp61
Vdep
p62
aVscores
p63
aVshe
p64
aa(lp65
Vrcmod
p66
aVgame
p67
aVscores
p68
aa(lp69
Vnum
p70
aVpoints
p71
aV6
p72
aa(lp73
Vnpadvmod
p74
aVplaying
p75
aVpoints
p76
aa(lp77
Vdet
p78
aVtreasure
p79
aVeach
p80
aa(lp81
Vprep_for
p82
aVplaying
p83
aVtreasure
p84
aa(lp85
Vnsubj
p86
aVfinds
p87
aVshe
p88
aa(lp89
Vrcmod
p90
aVtreasure
p91
aVfinds
p92
aasVwords
p93
(lp94
(lp95
VTiffany
p96
a(dp97
VNamedEntityTag
p98
VPERSON
p99
sVCharacterOffsetEnd
p100
V8
p101
sVCharacterOffsetBegin
p102
V1
p103
sVPartOfSpeech
p104
VNNP
p105
sVLemma
p106
VTiffany
p107
saa(lp108
Vwas
p109
a(dp110
VNamedEntityTag
p111
VO
p112
sVCharacterOffsetEnd
p113
V12
p114
sVCharacterOffsetBegin
p115
V9
p116
sVPartOfSpeech
p117
VVBD
p118
sVLemma
p119
Vbe
p120
saa(lp121
Vplaying
p122
a(dp123
VNamedEntityTag
p124
g112
sVCharacterOffsetEnd
p125
V20
p126
sVCharacterOffsetBegin
p127
V13
p128
sVPartOfSpeech
p129
VVBG
p130
sVLemma
p131
Vplay
p132
saa(lp133
g48
a(dp134
VNamedEntityTag
p135
g112
sVCharacterOffsetEnd
p136
V22
p137
sVCharacterOffsetBegin
p138
V21
p139
sVPartOfSpeech
p140
VDT
p141
sVLemma
p142
g48
saa(lp143
Vvideo
p144
a(dp145
VNamedEntityTag
p146
g112
sVCharacterOffsetEnd
p147
V28
p148
sVCharacterOffsetBegin
p149
V23
p150
sVPartOfSpeech
p151
VNN
p152
sVLemma
p153
Vvideo
p154
saa(lp155
Vgame
p156
a(dp157
VNamedEntityTag
p158
g112
sVCharacterOffsetEnd
p159
V33
p160
sVCharacterOffsetBegin
p161
V29
p162
sVPartOfSpeech
p163
VNN
p164
sVLemma
p165
Vgame
p166
saa(lp167
Vwhere
p168
a(dp169
VNamedEntityTag
p170
g112
sVCharacterOffsetEnd
p171
V39
p172
sVCharacterOffsetBegin
p173
V34
p174
sVPartOfSpeech
p175
VWRB
p176
sVLemma
p177
Vwhere
p178
saa(lp179
Vshe
p180
a(dp181
VNamedEntityTag
p182
g112
sVCharacterOffsetEnd
p183
V43
p184
sVCharacterOffsetBegin
p185
V40
p186
sVPartOfSpeech
p187
VPRP
p188
sVLemma
p189
Vshe
p190
saa(lp191
Vscores
p192
a(dp193
VNamedEntityTag
p194
g112
sVCharacterOffsetEnd
p195
V50
p196
sVCharacterOffsetBegin
p197
V44
p198
sVPartOfSpeech
p199
VNNS
p200
sVLemma
p201
Vscore
p202
saa(lp203
g72
a(dp204
VNormalizedNamedEntityTag
p205
V6.0
p206
sVLemma
p207
g72
sVCharacterOffsetEnd
p208
V52
p209
sVPartOfSpeech
p210
VCD
p211
sVCharacterOffsetBegin
p212
V51
p213
sVNamedEntityTag
p214
VNUMBER
p215
saa(lp216
Vpoints
p217
a(dp218
VNamedEntityTag
p219
g112
sVCharacterOffsetEnd
p220
V59
p221
sVCharacterOffsetBegin
p222
V53
p223
sVPartOfSpeech
p224
VNNS
p225
sVLemma
p226
Vpoint
p227
saa(lp228
Vfor
p229
a(dp230
VNamedEntityTag
p231
g112
sVCharacterOffsetEnd
p232
V63
p233
sVCharacterOffsetBegin
p234
V60
p235
sVPartOfSpeech
p236
VIN
p237
sVLemma
p238
Vfor
p239
saa(lp240
Veach
p241
a(dp242
VNamedEntityTag
p243
g112
sVCharacterOffsetEnd
p244
V68
p245
sVCharacterOffsetBegin
p246
V64
p247
sVPartOfSpeech
p248
VDT
p249
sVLemma
p250
Veach
p251
saa(lp252
Vtreasure
p253
a(dp254
VNamedEntityTag
p255
g112
sVCharacterOffsetEnd
p256
V77
p257
sVCharacterOffsetBegin
p258
V69
p259
sVPartOfSpeech
p260
VNN
p261
sVLemma
p262
Vtreasure
p263
saa(lp264
Vshe
p265
a(dp266
VNamedEntityTag
p267
g112
sVCharacterOffsetEnd
p268
V81
p269
sVCharacterOffsetBegin
p270
V78
p271
sVPartOfSpeech
p272
VPRP
p273
sVLemma
p274
Vshe
p275
saa(lp276
Vfinds
p277
a(dp278
VNamedEntityTag
p279
g112
sVCharacterOffsetEnd
p280
V87
p281
sVCharacterOffsetBegin
p282
V82
p283
sVPartOfSpeech
p284
VVBZ
p285
sVLemma
p286
Vfind
p287
saa(lp288
V.
p289
a(dp290
VNamedEntityTag
p291
g112
sVCharacterOffsetEnd
p292
V89
p293
sVCharacterOffsetBegin
p294
V88
p295
sVPartOfSpeech
p296
g289
sVLemma
p297
g289
saasVindexeddependencies
p298
(lp299
(lp300
Vroot
p301
aVROOT-0
p302
aVplaying-3
p303
aa(lp304
Vnsubj
p305
aVplaying-3
p306
aVTiffany-1
p307
aa(lp308
Vaux
p309
aVplaying-3
p310
aVwas-2
p311
aa(lp312
Vdet
p313
aVgame-6
p314
aVa-4
p315
aa(lp316
Vnn
p317
aVgame-6
p318
aVvideo-5
p319
aa(lp320
Vdobj
p321
aVplaying-3
p322
aVgame-6
p323
aa(lp324
Vadvmod
p325
aVscores-9
p326
aVwhere-7
p327
aa(lp328
Vdep
p329
aVscores-9
p330
aVshe-8
p331
aa(lp332
Vrcmod
p333
aVgame-6
p334
aVscores-9
p335
aa(lp336
Vnum
p337
aVpoints-11
p338
aV6-10
p339
aa(lp340
Vnpadvmod
p341
aVplaying-3
p342
aVpoints-11
p343
aa(lp344
Vdet
p345
aVtreasure-14
p346
aVeach-13
p347
aa(lp348
Vprep_for
p349
aVplaying-3
p350
aVtreasure-14
p351
aa(lp352
Vnsubj
p353
aVfinds-16
p354
aVshe-15
p355
aa(lp356
Vrcmod
p357
aVtreasure-14
p358
aVfinds-16
p359
aasa(dp360
Vparsetree
p361
V(ROOT (SBARQ (SBAR (IN If) (S (NP (PRP she)) (VP (VBD found) (NP (CD 3) (NNS treasures)) (PP (IN on) (NP (NP (DT the) (JJ first) (NN level)) (CC and) (NP (CD 5)))) (PP (IN on) (NP (DT the) (JJ second)))))) (, ,) (WHNP (WP what)) (SQ (MD would) (NP (PRP$ her) (NN score)) (VP (VB be))) (. ?)))
p362
sVtext
p363
VIf she found 3 treasures on the first level and 5 on the second , what would her score be ?
p364
sVdependencies
p365
(lp366
(lp367
Vroot
p368
aVROOT
p369
aVbe
p370
aa(lp371
Vmark
p372
aVfound
p373
aVIf
p374
aa(lp375
Vnsubj
p376
aVfound
p377
aVshe
p378
aa(lp379
Vadvcl
p380
aVbe
p381
aVfound
p382
aa(lp383
Vnum
p384
aVtreasures
p385
aV3
p386
aa(lp387
Vdobj
p388
aVfound
p389
aVtreasures
p390
aa(lp391
Vdet
p392
aVlevel
p393
aVthe
p394
aa(lp395
Vamod
p396
aVlevel
p397
aVfirst
p398
aa(lp399
Vprep_on
p400
aVfound
p401
aVlevel
p402
aa(lp403
Vconj_and
p404
aVlevel
p405
aV5
p406
aa(lp407
Vdet
p408
aVsecond
p409
aVthe
p410
aa(lp411
Vprep_on
p412
aVfound
p413
aVsecond
p414
aa(lp415
Vdobj
p416
aVbe
p417
aVwhat
p418
aa(lp419
Vaux
p420
aVbe
p421
aVwould
p422
aa(lp423
Vposs
p424
aVscore
p425
aVher
p426
aa(lp427
Vnsubj
p428
aVbe
p429
aVscore
p430
aasVwords
p431
(lp432
(lp433
VIf
p434
a(dp435
VNamedEntityTag
p436
g112
sVCharacterOffsetEnd
p437
V92
p438
sVCharacterOffsetBegin
p439
V90
p440
sVPartOfSpeech
p441
VIN
p442
sVLemma
p443
Vif
p444
saa(lp445
Vshe
p446
a(dp447
VNamedEntityTag
p448
g112
sVCharacterOffsetEnd
p449
V96
p450
sVCharacterOffsetBegin
p451
V93
p452
sVPartOfSpeech
p453
VPRP
p454
sVLemma
p455
Vshe
p456
saa(lp457
Vfound
p458
a(dp459
VNamedEntityTag
p460
g112
sVCharacterOffsetEnd
p461
V102
p462
sVCharacterOffsetBegin
p463
V97
p464
sVPartOfSpeech
p465
VVBD
p466
sVLemma
p467
Vfind
p468
saa(lp469
g386
a(dp470
VNormalizedNamedEntityTag
p471
V3.0
p472
sVLemma
p473
g386
sVCharacterOffsetEnd
p474
V104
p475
sVPartOfSpeech
p476
VCD
p477
sVCharacterOffsetBegin
p478
V103
p479
sVNamedEntityTag
p480
VNUMBER
p481
saa(lp482
Vtreasures
p483
a(dp484
VNamedEntityTag
p485
g112
sVCharacterOffsetEnd
p486
V114
p487
sVCharacterOffsetBegin
p488
V105
p489
sVPartOfSpeech
p490
VNNS
p491
sVLemma
p492
Vtreasure
p493
saa(lp494
Von
p495
a(dp496
VNamedEntityTag
p497
g112
sVCharacterOffsetEnd
p498
V117
p499
sVCharacterOffsetBegin
p500
V115
p501
sVPartOfSpeech
p502
VIN
p503
sVLemma
p504
Von
p505
saa(lp506
Vthe
p507
a(dp508
VNamedEntityTag
p509
g112
sVCharacterOffsetEnd
p510
V121
p511
sVCharacterOffsetBegin
p512
V118
p513
sVPartOfSpeech
p514
VDT
p515
sVLemma
p516
Vthe
p517
saa(lp518
Vfirst
p519
a(dp520
VNormalizedNamedEntityTag
p521
V1.0
p522
sVLemma
p523
Vfirst
p524
sVCharacterOffsetEnd
p525
V127
p526
sVPartOfSpeech
p527
VJJ
p528
sVCharacterOffsetBegin
p529
V122
p530
sVNamedEntityTag
p531
VORDINAL
p532
saa(lp533
Vlevel
p534
a(dp535
VNamedEntityTag
p536
g112
sVCharacterOffsetEnd
p537
V133
p538
sVCharacterOffsetBegin
p539
V128
p540
sVPartOfSpeech
p541
VNN
p542
sVLemma
p543
Vlevel
p544
saa(lp545
Vand
p546
a(dp547
VNamedEntityTag
p548
g112
sVCharacterOffsetEnd
p549
V137
p550
sVCharacterOffsetBegin
p551
V134
p552
sVPartOfSpeech
p553
VCC
p554
sVLemma
p555
Vand
p556
saa(lp557
g406
a(dp558
VNormalizedNamedEntityTag
p559
V5.0
p560
sVLemma
p561
g406
sVCharacterOffsetEnd
p562
V139
p563
sVPartOfSpeech
p564
VCD
p565
sVCharacterOffsetBegin
p566
V138
p567
sVNamedEntityTag
p568
VNUMBER
p569
saa(lp570
Von
p571
a(dp572
VNamedEntityTag
p573
g112
sVCharacterOffsetEnd
p574
V142
p575
sVCharacterOffsetBegin
p576
V140
p577
sVPartOfSpeech
p578
VIN
p579
sVLemma
p580
Von
p581
saa(lp582
Vthe
p583
a(dp584
VNamedEntityTag
p585
g112
sVCharacterOffsetEnd
p586
V146
p587
sVCharacterOffsetBegin
p588
V143
p589
sVPartOfSpeech
p590
VDT
p591
sVLemma
p592
Vthe
p593
saa(lp594
Vsecond
p595
a(dp596
VNormalizedNamedEntityTag
p597
V2.0
p598
sVLemma
p599
Vsecond
p600
sVCharacterOffsetEnd
p601
V153
p602
sVPartOfSpeech
p603
VJJ
p604
sVCharacterOffsetBegin
p605
V147
p606
sVNamedEntityTag
p607
VORDINAL
p608
saa(lp609
V,
p610
a(dp611
VNamedEntityTag
p612
g112
sVCharacterOffsetEnd
p613
V155
p614
sVCharacterOffsetBegin
p615
V154
p616
sVPartOfSpeech
p617
g610
sVLemma
p618
g610
saa(lp619
Vwhat
p620
a(dp621
VNamedEntityTag
p622
g112
sVCharacterOffsetEnd
p623
V160
p624
sVCharacterOffsetBegin
p625
V156
p626
sVPartOfSpeech
p627
VWP
p628
sVLemma
p629
Vwhat
p630
saa(lp631
Vwould
p632
a(dp633
VNamedEntityTag
p634
g112
sVCharacterOffsetEnd
p635
V166
p636
sVCharacterOffsetBegin
p637
V161
p638
sVPartOfSpeech
p639
VMD
p640
sVLemma
p641
Vwould
p642
saa(lp643
Vher
p644
a(dp645
VNamedEntityTag
p646
g112
sVCharacterOffsetEnd
p647
V170
p648
sVCharacterOffsetBegin
p649
V167
p650
sVPartOfSpeech
p651
VPRP$
p652
sVLemma
p653
Vshe
p654
saa(lp655
Vscore
p656
a(dp657
VNormalizedNamedEntityTag
p658
V20.0
p659
sVLemma
p660
Vscore
p661
sVCharacterOffsetEnd
p662
V176
p663
sVPartOfSpeech
p664
VNN
p665
sVCharacterOffsetBegin
p666
V171
p667
sVNamedEntityTag
p668
VNUMBER
p669
saa(lp670
Vbe
p671
a(dp672
VNamedEntityTag
p673
g112
sVCharacterOffsetEnd
p674
V179
p675
sVCharacterOffsetBegin
p676
V177
p677
sVPartOfSpeech
p678
VVB
p679
sVLemma
p680
Vbe
p681
saa(lp682
V?
p683
a(dp684
VNamedEntityTag
p685
g112
sVCharacterOffsetEnd
p686
V181
p687
sVCharacterOffsetBegin
p688
V180
p689
sVPartOfSpeech
p690
g289
sVLemma
p691
g683
saasVindexeddependencies
p692
(lp693
(lp694
Vroot
p695
aVROOT-0
p696
aVbe-20
p697
aa(lp698
Vmark
p699
aVfound-3
p700
aVIf-1
p701
aa(lp702
Vnsubj
p703
aVfound-3
p704
aVshe-2
p705
aa(lp706
Vadvcl
p707
aVbe-20
p708
aVfound-3
p709
aa(lp710
Vnum
p711
aVtreasures-5
p712
aV3-4
p713
aa(lp714
Vdobj
p715
aVfound-3
p716
aVtreasures-5
p717
aa(lp718
Vdet
p719
aVlevel-9
p720
aVthe-7
p721
aa(lp722
Vamod
p723
aVlevel-9
p724
aVfirst-8
p725
aa(lp726
Vprep_on
p727
aVfound-3
p728
aVlevel-9
p729
aa(lp730
Vconj_and
p731
aVlevel-9
p732
aV5-11
p733
aa(lp734
Vdet
p735
aVsecond-14
p736
aVthe-13
p737
aa(lp738
Vprep_on
p739
aVfound-3
p740
aVsecond-14
p741
aa(lp742
Vdobj
p743
aVbe-20
p744
aVwhat-16
p745
aa(lp746
Vaux
p747
aVbe-20
p748
aVwould-17
p749
aa(lp750
Vposs
p751
aVscore-19
p752
aVher-18
p753
aa(lp754
Vnsubj
p755
aVbe-20
p756
aVscore-19
p757
aasas.