(dp0
Vcoref
p1
(lp2
(lp3
(lp4
(lp5
VHe
p6
aI1
aI0
aI0
aI1
aa(lp7
VJohnny
p8
aI0
aI0
aI0
aI1
aaa(lp9
(lp10
VJohnny
p11
aI2
aI1
aI1
aI2
aa(lp12
VJohnny
p13
aI0
aI0
aI0
aI1
aaa(lp14
(lp15
VJohnny
p16
aI3
aI4
aI4
aI5
aa(lp17
VJohnny
p18
aI0
aI0
aI0
aI1
aaaasVsentences
p19
(lp20
(dp21
Vparsetree
p22
V(ROOT (S (NP (NNP Johnny)) (VP (VBD saved) (NP (NP ($ $) (CD 30)) (PP (IN in) (NP (NNP September))))) (. .)))
p23
sVtext
p24
VJohnny saved $30 in September .
p25
sVdependencies
p26
(lp27
(lp28
Vroot
p29
aVROOT
p30
aVsaved
p31
aa(lp32
Vnsubj
p33
aVsaved
p34
aVJohnny
p35
aa(lp36
Vdobj
p37
aVsaved
p38
aV$
p39
aa(lp40
Vnum
p41
ag39
aV30
p42
aa(lp43
Vprep_in
p44
ag39
aVSeptember
p45
aasVwords
p46
(lp47
(lp48
VJohnny
p49
a(dp50
VNamedEntityTag
p51
VPERSON
p52
sVCharacterOffsetEnd
p53
V7
p54
sVCharacterOffsetBegin
p55
V1
p56
sVPartOfSpeech
p57
VNNP
p58
sVLemma
p59
VJohnny
p60
saa(lp61
Vsaved
p62
a(dp63
VNamedEntityTag
p64
VO
p65
sVCharacterOffsetEnd
p66
V13
p67
sVCharacterOffsetBegin
p68
V8
p69
sVPartOfSpeech
p70
VVBD
p71
sVLemma
p72
Vsave
p73
saa(lp74
g39
a(dp75
VNormalizedNamedEntityTag
p76
V$30.0
p77
sVLemma
p78
g39
sVCharacterOffsetEnd
p79
V15
p80
sVPartOfSpeech
p81
g39
sVCharacterOffsetBegin
p82
V14
p83
sVNamedEntityTag
p84
VMONEY
p85
saa(lp86
V30
p87
a(dp88
VNormalizedNamedEntityTag
p89
V$30.0
p90
sVLemma
p91
V30
p92
sVCharacterOffsetEnd
p93
V17
p94
sVPartOfSpeech
p95
VCD
p96
sVCharacterOffsetBegin
p97
V15
p98
sVNamedEntityTag
p99
VMONEY
p100
saa(lp101
Vin
p102
a(dp103
VNamedEntityTag
p104
g65
sVCharacterOffsetEnd
p105
V20
p106
sVCharacterOffsetBegin
p107
V18
p108
sVPartOfSpeech
p109
VIN
p110
sVLemma
p111
Vin
p112
saa(lp113
VSeptember
p114
a(dp115
VNormalizedNamedEntityTag
p116
VXXXX-09
p117
sVTimex
p118
V<TIMEX3 tid="t1" type="DATE" value="XXXX-09">September</TIMEX3>
p119
sVLemma
p120
VSeptember
p121
sVCharacterOffsetEnd
p122
V30
p123
sVPartOfSpeech
p124
VNNP
p125
sVCharacterOffsetBegin
p126
V21
p127
sVNamedEntityTag
p128
VDATE
p129
saa(lp130
V.
p131
a(dp132
VNamedEntityTag
p133
g65
sVCharacterOffsetEnd
p134
V32
p135
sVCharacterOffsetBegin
p136
V31
p137
sVPartOfSpeech
p138
g131
sVLemma
p139
g131
saasVindexeddependencies
p140
(lp141
(lp142
Vroot
p143
aVROOT-0
p144
aVsaved-2
p145
aa(lp146
Vnsubj
p147
aVsaved-2
p148
aVJohnny-1
p149
aa(lp150
Vdobj
p151
aVsaved-2
p152
aV$-3
p153
aa(lp154
Vnum
p155
aV$-3
p156
aV30-4
p157
aa(lp158
Vprep_in
p159
aV$-3
p160
aVSeptember-6
p161
aasa(dp162
Vparsetree
p163
V(ROOT (S (NP (PRP He)) (VP (VBD saved) (NP ($ $) (CD 49)) (PP (IN in) (NP (NP (NNP October)) (CC and) (NP ($ $) (CD 46)))) (PP (IN in) (NP (NNP November)))) (. .)))
p164
sVtext
p165
VHe saved $49 in October and $46 in November .
p166
sVdependencies
p167
(lp168
(lp169
Vroot
p170
aVROOT
p171
aVsaved
p172
aa(lp173
Vnsubj
p174
aVsaved
p175
aVHe
p176
aa(lp177
Vdobj
p178
aVsaved
p179
ag39
aa(lp180
Vnum
p181
ag39
aV49
p182
aa(lp183
Vprep_in
p184
aVsaved
p185
aVOctober
p186
aa(lp187
Vconj_and
p188
aVOctober
p189
ag39
aa(lp190
Vnum
p191
ag39
aV46
p192
aa(lp193
Vprep_in
p194
aVsaved
p195
aVNovember
p196
aasVwords
p197
(lp198
(lp199
VHe
p200
a(dp201
VNamedEntityTag
p202
g65
sVCharacterOffsetEnd
p203
V35
p204
sVCharacterOffsetBegin
p205
V33
p206
sVPartOfSpeech
p207
VPRP
p208
sVLemma
p209
Vhe
p210
saa(lp211
Vsaved
p212
a(dp213
VNamedEntityTag
p214
g65
sVCharacterOffsetEnd
p215
V41
p216
sVCharacterOffsetBegin
p217
V36
p218
sVPartOfSpeech
p219
VVBD
p220
sVLemma
p221
Vsave
p222
saa(lp223
g39
a(dp224
VNormalizedNamedEntityTag
p225
V$49.0
p226
sVLemma
p227
g39
sVCharacterOffsetEnd
p228
V43
p229
sVPartOfSpeech
p230
g39
sVCharacterOffsetBegin
p231
V42
p232
sVNamedEntityTag
p233
VMONEY
p234
saa(lp235
V49
p236
a(dp237
VNormalizedNamedEntityTag
p238
V$49.0
p239
sVLemma
p240
V49
p241
sVCharacterOffsetEnd
p242
V45
p243
sVPartOfSpeech
p244
VCD
p245
sVCharacterOffsetBegin
p246
V43
p247
sVNamedEntityTag
p248
VMONEY
p249
saa(lp250
Vin
p251
a(dp252
VNamedEntityTag
p253
g65
sVCharacterOffsetEnd
p254
V48
p255
sVCharacterOffsetBegin
p256
V46
p257
sVPartOfSpeech
p258
VIN
p259
sVLemma
p260
Vin
p261
saa(lp262
VOctober
p263
a(dp264
VNormalizedNamedEntityTag
p265
VXXXX-10
p266
sVTimex
p267
V<TIMEX3 tid="t2" type="DATE" value="XXXX-10">October</TIMEX3>
p268
sVLemma
p269
VOctober
p270
sVCharacterOffsetEnd
p271
V56
p272
sVPartOfSpeech
p273
VNNP
p274
sVCharacterOffsetBegin
p275
V49
p276
sVNamedEntityTag
p277
VDATE
p278
saa(lp279
Vand
p280
a(dp281
VNamedEntityTag
p282
g65
sVCharacterOffsetEnd
p283
V60
p284
sVCharacterOffsetBegin
p285
V57
p286
sVPartOfSpeech
p287
VCC
p288
sVLemma
p289
Vand
p290
saa(lp291
g39
a(dp292
VNormalizedNamedEntityTag
p293
V$46.0
p294
sVLemma
p295
g39
sVCharacterOffsetEnd
p296
V62
p297
sVPartOfSpeech
p298
g39
sVCharacterOffsetBegin
p299
V61
p300
sVNamedEntityTag
p301
VMONEY
p302
saa(lp303
V46
p304
a(dp305
VNormalizedNamedEntityTag
p306
V$46.0
p307
sVLemma
p308
V46
p309
sVCharacterOffsetEnd
p310
V64
p311
sVPartOfSpeech
p312
VCD
p313
sVCharacterOffsetBegin
p314
V62
p315
sVNamedEntityTag
p316
VMONEY
p317
saa(lp318
Vin
p319
a(dp320
VNamedEntityTag
p321
g65
sVCharacterOffsetEnd
p322
V67
p323
sVCharacterOffsetBegin
p324
V65
p325
sVPartOfSpeech
p326
VIN
p327
sVLemma
p328
Vin
p329
saa(lp330
VNovember
p331
a(dp332
VNormalizedNamedEntityTag
p333
VXXXX-11
p334
sVTimex
p335
V<TIMEX3 tid="t3" type="DATE" value="XXXX-11">November</TIMEX3>
p336
sVLemma
p337
VNovember
p338
sVCharacterOffsetEnd
p339
V76
p340
sVPartOfSpeech
p341
VNNP
p342
sVCharacterOffsetBegin
p343
V68
p344
sVNamedEntityTag
p345
VDATE
p346
saa(lp347
g131
a(dp348
VNamedEntityTag
p349
g65
sVCharacterOffsetEnd
p350
V78
p351
sVCharacterOffsetBegin
p352
V77
p353
sVPartOfSpeech
p354
g131
sVLemma
p355
g131
saasVindexeddependencies
p356
(lp357
(lp358
Vroot
p359
aVROOT-0
p360
aVsaved-2
p361
aa(lp362
Vnsubj
p363
aVsaved-2
p364
aVHe-1
p365
aa(lp366
Vdobj
p367
aVsaved-2
p368
aV$-3
p369
aa(lp370
Vnum
p371
aV$-3
p372
aV49-4
p373
aa(lp374
Vprep_in
p375
aVsaved-2
p376
aVOctober-6
p377
aa(lp378
Vconj_and
p379
aVOctober-6
p380
aV$-8
p381
aa(lp382
Vnum
p383
aV$-8
p384
aV46-9
p385
aa(lp386
Vprep_in
p387
aVsaved-2
p388
aVNovember-11
p389
aasa(dp390
Vparsetree
p391
V(ROOT (S (RB Then) (NP (NNP Johnny)) (VP (VBD spent) (NP ($ $) (CD 58)) (PP (IN on) (NP (DT a) (NN video) (NN game)))) (. .)))
p392
sVtext
p393
VThen Johnny spent $58 on a video game .
p394
sVdependencies
p395
(lp396
(lp397
Vroot
p398
aVROOT
p399
aVspent
p400
aa(lp401
Vadvmod
p402
aVspent
p403
aVThen
p404
aa(lp405
Vnsubj
p406
aVspent
p407
aVJohnny
p408
aa(lp409
Vdobj
p410
aVspent
p411
ag39
aa(lp412
Vnum
p413
ag39
aV58
p414
aa(lp415
Vdet
p416
aVgame
p417
aVa
p418
aa(lp419
Vnn
p420
aVgame
p421
aVvideo
p422
aa(lp423
Vprep_on
p424
aVspent
p425
aVgame
p426
aasVwords
p427
(lp428
(lp429
VThen
p430
a(dp431
VNamedEntityTag
p432
g65
sVCharacterOffsetEnd
p433
V83
p434
sVCharacterOffsetBegin
p435
V79
p436
sVPartOfSpeech
p437
VRB
p438
sVLemma
p439
Vthen
p440
saa(lp441
VJohnny
p442
a(dp443
VNamedEntityTag
p444
VPERSON
p445
sVCharacterOffsetEnd
p446
V90
p447
sVCharacterOffsetBegin
p448
V84
p449
sVPartOfSpeech
p450
VNNP
p451
sVLemma
p452
VJohnny
p453
saa(lp454
Vspent
p455
a(dp456
VNamedEntityTag
p457
g65
sVCharacterOffsetEnd
p458
V96
p459
sVCharacterOffsetBegin
p460
V91
p461
sVPartOfSpeech
p462
VVBD
p463
sVLemma
p464
Vspend
p465
saa(lp466
g39
a(dp467
VNormalizedNamedEntityTag
p468
V$58.0
p469
sVLemma
p470
g39
sVCharacterOffsetEnd
p471
V98
p472
sVPartOfSpeech
p473
g39
sVCharacterOffsetBegin
p474
V97
p475
sVNamedEntityTag
p476
VMONEY
p477
saa(lp478
V58
p479
a(dp480
VNormalizedNamedEntityTag
p481
V$58.0
p482
sVLemma
p483
V58
p484
sVCharacterOffsetEnd
p485
V100
p486
sVPartOfSpeech
p487
VCD
p488
sVCharacterOffsetBegin
p489
V98
p490
sVNamedEntityTag
p491
VMONEY
p492
saa(lp493
Von
p494
a(dp495
VNamedEntityTag
p496
g65
sVCharacterOffsetEnd
p497
V103
p498
sVCharacterOffsetBegin
p499
V101
p500
sVPartOfSpeech
p501
VIN
p502
sVLemma
p503
Von
p504
saa(lp505
g418
a(dp506
VNamedEntityTag
p507
g65
sVCharacterOffsetEnd
p508
V105
p509
sVCharacterOffsetBegin
p510
V104
p511
sVPartOfSpeech
p512
VDT
p513
sVLemma
p514
g418
saa(lp515
Vvideo
p516
a(dp517
VNamedEntityTag
p518
g65
sVCharacterOffsetEnd
p519
V111
p520
sVCharacterOffsetBegin
p521
V106
p522
sVPartOfSpeech
p523
VNN
p524
sVLemma
p525
Vvideo
p526
saa(lp527
Vgame
p528
a(dp529
VNamedEntityTag
p530
g65
sVCharacterOffsetEnd
p531
V116
p532
sVCharacterOffsetBegin
p533
V112
p534
sVPartOfSpeech
p535
VNN
p536
sVLemma
p537
Vgame
p538
saa(lp539
g131
a(dp540
VNamedEntityTag
p541
g65
sVCharacterOffsetEnd
p542
V118
p543
sVCharacterOffsetBegin
p544
V117
p545
sVPartOfSpeech
p546
g131
sVLemma
p547
g131
saasVindexeddependencies
p548
(lp549
(lp550
Vroot
p551
aVROOT-0
p552
aVspent-3
p553
aa(lp554
Vadvmod
p555
aVspent-3
p556
aVThen-1
p557
aa(lp558
Vnsubj
p559
aVspent-3
p560
aVJohnny-2
p561
aa(lp562
Vdobj
p563
aVspent-3
p564
aV$-4
p565
aa(lp566
Vnum
p567
aV$-4
p568
aV58-5
p569
aa(lp570
Vdet
p571
aVgame-9
p572
aVa-7
p573
aa(lp574
Vnn
p575
aVgame-9
p576
aVvideo-8
p577
aa(lp578
Vprep_on
p579
aVspent-3
p580
aVgame-9
p581
aasa(dp582
Vparsetree
p583
V(ROOT (SBARQ (WHNP (WHADJP (WRB How) (JJ much)) (NN money)) (SQ (VBZ does) (NP (NNP Johnny)) (VP (VB have) (VP (VBN left)))) (. ?)))
p584
sVtext
p585
VHow much money does Johnny have left ?
p586
sVdependencies
p587
(lp588
(lp589
Vroot
p590
aVROOT
p591
aVleft
p592
aa(lp593
Vadvmod
p594
aVmuch
p595
aVHow
p596
aa(lp597
Vamod
p598
aVmoney
p599
aVmuch
p600
aa(lp601
Vdobj
p602
aVleft
p603
aVmoney
p604
aa(lp605
Vaux
p606
aVleft
p607
aVdoes
p608
aa(lp609
Vnsubj
p610
aVleft
p611
aVJohnny
p612
aa(lp613
Vaux
p614
aVleft
p615
aVhave
p616
aasVwords
p617
(lp618
(lp619
VHow
p620
a(dp621
VNamedEntityTag
p622
g65
sVCharacterOffsetEnd
p623
V122
p624
sVCharacterOffsetBegin
p625
V119
p626
sVPartOfSpeech
p627
VWRB
p628
sVLemma
p629
Vhow
p630
saa(lp631
Vmuch
p632
a(dp633
VNamedEntityTag
p634
g65
sVCharacterOffsetEnd
p635
V127
p636
sVCharacterOffsetBegin
p637
V123
p638
sVPartOfSpeech
p639
VJJ
p640
sVLemma
p641
Vmuch
p642
saa(lp643
Vmoney
p644
a(dp645
VNamedEntityTag
p646
g65
sVCharacterOffsetEnd
p647
V133
p648
sVCharacterOffsetBegin
p649
V128
p650
sVPartOfSpeech
p651
VNN
p652
sVLemma
p653
Vmoney
p654
saa(lp655
Vdoes
p656
a(dp657
VNamedEntityTag
p658
g65
sVCharacterOffsetEnd
p659
V138
p660
sVCharacterOffsetBegin
p661
V134
p662
sVPartOfSpeech
p663
VVBZ
p664
sVLemma
p665
Vdo
p666
saa(lp667
VJohnny
p668
a(dp669
VNamedEntityTag
p670
VPERSON
p671
sVCharacterOffsetEnd
p672
V145
p673
sVCharacterOffsetBegin
p674
V139
p675
sVPartOfSpeech
p676
VNNP
p677
sVLemma
p678
VJohnny
p679
saa(lp680
Vhave
p681
a(dp682
VNamedEntityTag
p683
g65
sVCharacterOffsetEnd
p684
V150
p685
sVCharacterOffsetBegin
p686
V146
p687
sVPartOfSpeech
p688
VVB
p689
sVLemma
p690
Vhave
p691
saa(lp692
Vleft
p693
a(dp694
VNamedEntityTag
p695
g65
sVCharacterOffsetEnd
p696
V155
p697
sVCharacterOffsetBegin
p698
V151
p699
sVPartOfSpeech
p700
VVBN
p701
sVLemma
p702
Vleave
p703
saa(lp704
V?
p705
a(dp706
VNamedEntityTag
p707
g65
sVCharacterOffsetEnd
p708
V157
p709
sVCharacterOffsetBegin
p710
V156
p711
sVPartOfSpeech
p712
g131
sVLemma
p713
g705
saasVindexeddependencies
p714
(lp715
(lp716
Vroot
p717
aVROOT-0
p718
aVleft-7
p719
aa(lp720
Vadvmod
p721
aVmuch-2
p722
aVHow-1
p723
aa(lp724
Vamod
p725
aVmoney-3
p726
aVmuch-2
p727
aa(lp728
Vdobj
p729
aVleft-7
p730
aVmoney-3
p731
aa(lp732
Vaux
p733
aVleft-7
p734
aVdoes-4
p735
aa(lp736
Vnsubj
p737
aVleft-7
p738
aVJohnny-5
p739
aa(lp740
Vaux
p741
aVleft-7
p742
aVhave-6
p743
aasas.