(dp0
Vcoref
p1
(lp2
(lp3
(lp4
(lp5
Vthe test
p6
aI1
aI5
aI4
aI6
aa(lp7
Van algebra test
p8
aI0
aI8
aI6
aI9
aaaasVsentences
p9
(lp10
(dp11
Vparsetree
p12
V(ROOT (S (NP (NP (CD 24) (NNS students)) (PP (IN in) (NP (DT a) (NN class)))) (VP (VBD took) (NP (DT an) (NN algebra) (NN test))) (. .)))
p13
sVtext
p14
V24 students in a class took an algebra test .
p15
sVdependencies
p16
(lp17
(lp18
Vroot
p19
aVROOT
p20
aVtook
p21
aa(lp22
Vnum
p23
aVstudents
p24
aV24
p25
aa(lp26
Vnsubj
p27
aVtook
p28
aVstudents
p29
aa(lp30
Vdet
p31
aVclass
p32
aVa
p33
aa(lp34
Vprep_in
p35
aVstudents
p36
aVclass
p37
aa(lp38
Vdet
p39
aVtest
p40
aVan
p41
aa(lp42
Vnn
p43
aVtest
p44
aValgebra
p45
aa(lp46
Vdobj
p47
aVtook
p48
aVtest
p49
aasVwords
p50
(lp51
(lp52
V24
p53
a(dp54
VNormalizedNamedEntityTag
p55
V24.0
p56
sVLemma
p57
V24
p58
sVCharacterOffsetEnd
p59
V3
p60
sVPartOfSpeech
p61
VCD
p62
sVCharacterOffsetBegin
p63
V1
p64
sVNamedEntityTag
p65
VNUMBER
p66
saa(lp67
Vstudents
p68
a(dp69
VNamedEntityTag
p70
VO
p71
sVCharacterOffsetEnd
p72
V12
p73
sVCharacterOffsetBegin
p74
V4
p75
sVPartOfSpeech
p76
VNNS
p77
sVLemma
p78
Vstudent
p79
saa(lp80
Vin
p81
a(dp82
VNamedEntityTag
p83
g71
sVCharacterOffsetEnd
p84
V15
p85
sVCharacterOffsetBegin
p86
V13
p87
sVPartOfSpeech
p88
VIN
p89
sVLemma
p90
Vin
p91
saa(lp92
g33
a(dp93
VNamedEntityTag
p94
g71
sVCharacterOffsetEnd
p95
V17
p96
sVCharacterOffsetBegin
p97
V16
p98
sVPartOfSpeech
p99
VDT
p100
sVLemma
p101
g33
saa(lp102
Vclass
p103
a(dp104
VNamedEntityTag
p105
g71
sVCharacterOffsetEnd
p106
V23
p107
sVCharacterOffsetBegin
p108
V18
p109
sVPartOfSpeech
p110
VNN
p111
sVLemma
p112
Vclass
p113
saa(lp114
Vtook
p115
a(dp116
VNamedEntityTag
p117
g71
sVCharacterOffsetEnd
p118
V28
p119
sVCharacterOffsetBegin
p120
V24
p121
sVPartOfSpeech
p122
VVBD
p123
sVLemma
p124
Vtake
p125
saa(lp126
Van
p127
a(dp128
VNamedEntityTag
p129
g71
sVCharacterOffsetEnd
p130
V31
p131
sVCharacterOffsetBegin
p132
V29
p133
sVPartOfSpeech
p134
VDT
p135
sVLemma
p136
g33
saa(lp137
Valgebra
p138
a(dp139
VNamedEntityTag
p140
g71
sVCharacterOffsetEnd
p141
V39
p142
sVCharacterOffsetBegin
p143
V32
p144
sVPartOfSpeech
p145
VNN
p146
sVLemma
p147
Valgebra
p148
saa(lp149
Vtest
p150
a(dp151
VNamedEntityTag
p152
g71
sVCharacterOffsetEnd
p153
V44
p154
sVCharacterOffsetBegin
p155
V40
p156
sVPartOfSpeech
p157
VNN
p158
sVLemma
p159
Vtest
p160
saa(lp161
V.
p162
a(dp163
VNamedEntityTag
p164
g71
sVCharacterOffsetEnd
p165
V46
p166
sVCharacterOffsetBegin
p167
V45
p168
sVPartOfSpeech
p169
g162
sVLemma
p170
g162
saasVindexeddependencies
p171
(lp172
(lp173
Vroot
p174
aVROOT-0
p175
aVtook-6
p176
aa(lp177
Vnum
p178
aVstudents-2
p179
aV24-1
p180
aa(lp181
Vnsubj
p182
aVtook-6
p183
aVstudents-2
p184
aa(lp185
Vdet
p186
aVclass-5
p187
aVa-4
p188
aa(lp189
Vprep_in
p190
aVstudents-2
p191
aVclass-5
p192
aa(lp193
Vdet
p194
aVtest-9
p195
aVan-7
p196
aa(lp197
Vnn
p198
aVtest-9
p199
aValgebra-8
p200
aa(lp201
Vdobj
p202
aVtook-6
p203
aVtest-9
p204
aasa(dp205
Vparsetree
p206
V(ROOT (SBARQ (SBAR (IN If) (S (NP (CD 18) (NNS students)) (VP (VBD passed) (NP (DT the) (NN test))))) (, ,) (WHNP (WDT what) (NNS times)) (SQ (VP (VBP do) (RB not) (VP (VB pass)))) (. ?)))
p207
sVtext
p208
VIf 18 students passed the test , what times do not pass ?
p209
sVdependencies
p210
(lp211
(lp212
Vroot
p213
aVROOT
p214
aVpass
p215
aa(lp216
Vmark
p217
aVpassed
p218
aVIf
p219
aa(lp220
Vnum
p221
aVstudents
p222
aV18
p223
aa(lp224
Vnsubj
p225
aVpassed
p226
aVstudents
p227
aa(lp228
Vadvcl
p229
aVpass
p230
aVpassed
p231
aa(lp232
Vdet
p233
aVtest
p234
aVthe
p235
aa(lp236
Vdobj
p237
aVpassed
p238
aVtest
p239
aa(lp240
Vdet
p241
aVtimes
p242
aVwhat
p243
aa(lp244
Vnsubj
p245
aVpass
p246
aVtimes
p247
aa(lp248
Vaux
p249
aVpass
p250
aVdo
p251
aa(lp252
Vneg
p253
aVpass
p254
aVnot
p255
aasVwords
p256
(lp257
(lp258
VIf
p259
a(dp260
VNamedEntityTag
p261
g71
sVCharacterOffsetEnd
p262
V49
p263
sVCharacterOffsetBegin
p264
V47
p265
sVPartOfSpeech
p266
VIN
p267
sVLemma
p268
Vif
p269
saa(lp270
V18
p271
a(dp272
VNormalizedNamedEntityTag
p273
V18.0
p274
sVLemma
p275
V18
p276
sVCharacterOffsetEnd
p277
V52
p278
sVPartOfSpeech
p279
VCD
p280
sVCharacterOffsetBegin
p281
V50
p282
sVNamedEntityTag
p283
VNUMBER
p284
saa(lp285
Vstudents
p286
a(dp287
VNamedEntityTag
p288
g71
sVCharacterOffsetEnd
p289
V61
p290
sVCharacterOffsetBegin
p291
V53
p292
sVPartOfSpeech
p293
VNNS
p294
sVLemma
p295
Vstudent
p296
saa(lp297
Vpassed
p298
a(dp299
VNamedEntityTag
p300
g71
sVCharacterOffsetEnd
p301
V68
p302
sVCharacterOffsetBegin
p303
V62
p304
sVPartOfSpeech
p305
VVBD
p306
sVLemma
p307
Vpass
p308
saa(lp309
Vthe
p310
a(dp311
VNamedEntityTag
p312
g71
sVCharacterOffsetEnd
p313
V72
p314
sVCharacterOffsetBegin
p315
V69
p316
sVPartOfSpeech
p317
VDT
p318
sVLemma
p319
Vthe
p320
saa(lp321
Vtest
p322
a(dp323
VNamedEntityTag
p324
g71
sVCharacterOffsetEnd
p325
V77
p326
sVCharacterOffsetBegin
p327
V73
p328
sVPartOfSpeech
p329
VNN
p330
sVLemma
p331
Vtest
p332
saa(lp333
V,
p334
a(dp335
VNamedEntityTag
p336
g71
sVCharacterOffsetEnd
p337
V79
p338
sVCharacterOffsetBegin
p339
V78
p340
sVPartOfSpeech
p341
g334
sVLemma
p342
g334
saa(lp343
Vwhat
p344
a(dp345
VNamedEntityTag
p346
g71
sVCharacterOffsetEnd
p347
V84
p348
sVCharacterOffsetBegin
p349
V80
p350
sVPartOfSpeech
p351
VWDT
p352
sVLemma
p353
Vwhat
p354
saa(lp355
Vtimes
p356
a(dp357
VNamedEntityTag
p358
g71
sVCharacterOffsetEnd
p359
V90
p360
sVCharacterOffsetBegin
p361
V85
p362
sVPartOfSpeech
p363
VNNS
p364
sVLemma
p365
Vtime
p366
saa(lp367
Vdo
p368
a(dp369
VNamedEntityTag
p370
g71
sVCharacterOffsetEnd
p371
V93
p372
sVCharacterOffsetBegin
p373
V91
p374
sVPartOfSpeech
p375
VVBP
p376
sVLemma
p377
Vdo
p378
saa(lp379
Vnot
p380
a(dp381
VNamedEntityTag
p382
g71
sVCharacterOffsetEnd
p383
V97
p384
sVCharacterOffsetBegin
p385
V94
p386
sVPartOfSpeech
p387
VRB
p388
sVLemma
p389
Vnot
p390
saa(lp391
Vpass
p392
a(dp393
VNamedEntityTag
p394
g71
sVCharacterOffsetEnd
p395
V102
p396
sVCharacterOffsetBegin
p397
V98
p398
sVPartOfSpeech
p399
VVB
p400
sVLemma
p401
Vpass
p402
saa(lp403
V?
p404
a(dp405
VNamedEntityTag
p406
g71
sVCharacterOffsetEnd
p407
V104
p408
sVCharacterOffsetBegin
p409
V103
p410
sVPartOfSpeech
p411
g162
sVLemma
p412
g404
saasVindexeddependencies
p413
(lp414
(lp415
Vroot
p416
aVROOT-0
p417
aVpass-12
p418
aa(lp419
Vmark
p420
aVpassed-4
p421
aVIf-1
p422
aa(lp423
Vnum
p424
aVstudents-3
p425
aV18-2
p426
aa(lp427
Vnsubj
p428
aVpassed-4
p429
aVstudents-3
p430
aa(lp431
Vadvcl
p432
aVpass-12
p433
aVpassed-4
p434
aa(lp435
Vdet
p436
aVtest-6
p437
aVthe-5
p438
aa(lp439
Vdobj
p440
aVpassed-4
p441
aVtest-6
p442
aa(lp443
Vdet
p444
aVtimes-9
p445
aVwhat-8
p446
aa(lp447
Vnsubj
p448
aVpass-12
p449
aVtimes-9
p450
aa(lp451
Vaux
p452
aVpass-12
p453
aVdo-10
p454
aa(lp455
Vneg
p456
aVpass-12
p457
aVnot-11
p458
aasas.