(dp0
Vcoref
p1
(lp2
(lp3
(lp4
(lp5
Vher
p6
aI0
aI9
aI9
aI10
aa(lp7
VLauren
p8
aI0
aI0
aI0
aI1
aaaa(lp9
(lp10
(lp11
Vchocolate cake
p12
aI1
aI15
aI14
aI16
aa(lp13
Vboth chocolate cake and coconut cake at her birthday party
p14
aI0
aI7
aI2
aI12
aaa(lp15
(lp16
Vchocolate cake
p17
aI2
aI5
aI4
aI6
aa(lp18
Vboth chocolate cake and coconut cake at her birthday party
p19
aI0
aI7
aI2
aI12
aaaa(lp20
(lp21
(lp22
Vthe party
p23
aI1
aI6
aI5
aI7
aa(lp24
Vher birthday party
p25
aI0
aI11
aI9
aI12
aaaa(lp26
(lp27
(lp28
Vthem
p29
aI1
aI12
aI12
aI13
aa(lp30
V10 people at the party
p31
aI1
aI3
aI2
aI7
aaaasVsentences
p32
(lp33
(dp34
Vparsetree
p35
V(ROOT (S (NP (NNP Lauren)) (VP (VBD had) (NP (NP (DT both) (NN chocolate) (NN cake) (CC and) (NN coconut) (NN cake)) (PP (IN at) (NP (PRP$ her) (NN birthday) (NN party))))) (. .)))
p36
sVtext
p37
VLauren had both chocolate cake and coconut cake at her birthday party .
p38
sVdependencies
p39
(lp40
(lp41
Vroot
p42
aVROOT
p43
aVhad
p44
aa(lp45
Vnsubj
p46
aVhad
p47
aVLauren
p48
aa(lp49
Vpreconj
p50
aVcake
p51
aVboth
p52
aa(lp53
Vnn
p54
aVcake
p55
aVchocolate
p56
aa(lp57
Vdobj
p58
aVhad
p59
aVcake
p60
aa(lp61
Vnn
p62
aVcake
p63
aVcoconut
p64
aa(lp65
Vconj_and
p66
aVcake
p67
aVcake
p68
aa(lp69
Vposs
p70
aVparty
p71
aVher
p72
aa(lp73
Vnn
p74
aVparty
p75
aVbirthday
p76
aa(lp77
Vprep_at
p78
aVcake
p79
aVparty
p80
aasVwords
p81
(lp82
(lp83
VLauren
p84
a(dp85
VNamedEntityTag
p86
VPERSON
p87
sVCharacterOffsetEnd
p88
V7
p89
sVCharacterOffsetBegin
p90
V1
p91
sVPartOfSpeech
p92
VNNP
p93
sVLemma
p94
VLauren
p95
saa(lp96
Vhad
p97
a(dp98
VNamedEntityTag
p99
VO
p100
sVCharacterOffsetEnd
p101
V11
p102
sVCharacterOffsetBegin
p103
V8
p104
sVPartOfSpeech
p105
VVBD
p106
sVLemma
p107
Vhave
p108
saa(lp109
Vboth
p110
a(dp111
VNamedEntityTag
p112
g100
sVCharacterOffsetEnd
p113
V16
p114
sVCharacterOffsetBegin
p115
V12
p116
sVPartOfSpeech
p117
VDT
p118
sVLemma
p119
Vboth
p120
saa(lp121
Vchocolate
p122
a(dp123
VNamedEntityTag
p124
g100
sVCharacterOffsetEnd
p125
V26
p126
sVCharacterOffsetBegin
p127
V17
p128
sVPartOfSpeech
p129
VNN
p130
sVLemma
p131
Vchocolate
p132
saa(lp133
Vcake
p134
a(dp135
VNamedEntityTag
p136
g100
sVCharacterOffsetEnd
p137
V31
p138
sVCharacterOffsetBegin
p139
V27
p140
sVPartOfSpeech
p141
VNN
p142
sVLemma
p143
Vcake
p144
saa(lp145
Vand
p146
a(dp147
VNamedEntityTag
p148
g100
sVCharacterOffsetEnd
p149
V35
p150
sVCharacterOffsetBegin
p151
V32
p152
sVPartOfSpeech
p153
VCC
p154
sVLemma
p155
Vand
p156
saa(lp157
Vcoconut
p158
a(dp159
VNamedEntityTag
p160
g100
sVCharacterOffsetEnd
p161
V43
p162
sVCharacterOffsetBegin
p163
V36
p164
sVPartOfSpeech
p165
VNN
p166
sVLemma
p167
Vcoconut
p168
saa(lp169
Vcake
p170
a(dp171
VNamedEntityTag
p172
g100
sVCharacterOffsetEnd
p173
V48
p174
sVCharacterOffsetBegin
p175
V44
p176
sVPartOfSpeech
p177
VNN
p178
sVLemma
p179
Vcake
p180
saa(lp181
Vat
p182
a(dp183
VNamedEntityTag
p184
g100
sVCharacterOffsetEnd
p185
V51
p186
sVCharacterOffsetBegin
p187
V49
p188
sVPartOfSpeech
p189
VIN
p190
sVLemma
p191
Vat
p192
saa(lp193
Vher
p194
a(dp195
VNamedEntityTag
p196
g100
sVCharacterOffsetEnd
p197
V55
p198
sVCharacterOffsetBegin
p199
V52
p200
sVPartOfSpeech
p201
VPRP$
p202
sVLemma
p203
Vshe
p204
saa(lp205
Vbirthday
p206
a(dp207
VNamedEntityTag
p208
g100
sVCharacterOffsetEnd
p209
V64
p210
sVCharacterOffsetBegin
p211
V56
p212
sVPartOfSpeech
p213
VNN
p214
sVLemma
p215
Vbirthday
p216
saa(lp217
Vparty
p218
a(dp219
VNamedEntityTag
p220
g100
sVCharacterOffsetEnd
p221
V70
p222
sVCharacterOffsetBegin
p223
V65
p224
sVPartOfSpeech
p225
VNN
p226
sVLemma
p227
Vparty
p228
saa(lp229
V.
p230
a(dp231
VNamedEntityTag
p232
g100
sVCharacterOffsetEnd
p233
V72
p234
sVCharacterOffsetBegin
p235
V71
p236
sVPartOfSpeech
p237
g230
sVLemma
p238
g230
saasVindexeddependencies
p239
(lp240
(lp241
Vroot
p242
aVROOT-0
p243
aVhad-2
p244
aa(lp245
Vnsubj
p246
aVhad-2
p247
aVLauren-1
p248
aa(lp249
Vpreconj
p250
aVcake-5
p251
aVboth-3
p252
aa(lp253
Vnn
p254
aVcake-5
p255
aVchocolate-4
p256
aa(lp257
Vdobj
p258
aVhad-2
p259
aVcake-5
p260
aa(lp261
Vnn
p262
aVcake-8
p263
aVcoconut-7
p264
aa(lp265
Vconj_and
p266
aVcake-5
p267
aVcake-8
p268
aa(lp269
Vposs
p270
aVparty-12
p271
aVher-10
p272
aa(lp273
Vnn
p274
aVparty-12
p275
aVbirthday-11
p276
aa(lp277
Vprep_at
p278
aVcake-5
p279
aVparty-12
p280
aasa(dp281
Vparsetree
p282
V(ROOT (S (S (NP (EX There)) (VP (VBD were) (NP (NP (CD 10) (NNS people)) (PP (IN at) (NP (DT the) (NN party)))))) (, ,) (CC and) (S (NP (NP (CD 0.4) (NNS times)) (PP (IN of) (NP (PRP them)))) (VP (VBD picked) (NP (NN chocolate) (NN cake)))) (. .)))
p283
sVtext
p284
VThere were 10 people at the party , and 0.4 times of them picked chocolate cake .
p285
sVdependencies
p286
(lp287
(lp288
Vroot
p289
aVROOT
p290
aVwere
p291
aa(lp292
Vexpl
p293
aVwere
p294
aVThere
p295
aa(lp296
Vnum
p297
aVpeople
p298
aV10
p299
aa(lp300
Vnsubj
p301
aVwere
p302
aVpeople
p303
aa(lp304
Vdet
p305
aVparty
p306
aVthe
p307
aa(lp308
Vprep_at
p309
aVpeople
p310
aVparty
p311
aa(lp312
Vnum
p313
aVtimes
p314
aV0.4
p315
aa(lp316
Vnsubj
p317
aVpicked
p318
aVtimes
p319
aa(lp320
Vprep_of
p321
aVtimes
p322
aVthem
p323
aa(lp324
Vconj_and
p325
aVwere
p326
aVpicked
p327
aa(lp328
Vnn
p329
aVcake
p330
aVchocolate
p331
aa(lp332
Vdobj
p333
aVpicked
p334
aVcake
p335
aasVwords
p336
(lp337
(lp338
VThere
p339
a(dp340
VNamedEntityTag
p341
g100
sVCharacterOffsetEnd
p342
V78
p343
sVCharacterOffsetBegin
p344
V73
p345
sVPartOfSpeech
p346
VEX
p347
sVLemma
p348
Vthere
p349
saa(lp350
Vwere
p351
a(dp352
VNamedEntityTag
p353
g100
sVCharacterOffsetEnd
p354
V83
p355
sVCharacterOffsetBegin
p356
V79
p357
sVPartOfSpeech
p358
VVBD
p359
sVLemma
p360
Vbe
p361
saa(lp362
V10
p363
a(dp364
VNormalizedNamedEntityTag
p365
V10.0
p366
sVLemma
p367
V10
p368
sVCharacterOffsetEnd
p369
V86
p370
sVPartOfSpeech
p371
VCD
p372
sVCharacterOffsetBegin
p373
V84
p374
sVNamedEntityTag
p375
VNUMBER
p376
saa(lp377
Vpeople
p378
a(dp379
VNamedEntityTag
p380
g100
sVCharacterOffsetEnd
p381
V93
p382
sVCharacterOffsetBegin
p383
V87
p384
sVPartOfSpeech
p385
VNNS
p386
sVLemma
p387
Vpeople
p388
saa(lp389
Vat
p390
a(dp391
VNamedEntityTag
p392
g100
sVCharacterOffsetEnd
p393
V96
p394
sVCharacterOffsetBegin
p395
V94
p396
sVPartOfSpeech
p397
VIN
p398
sVLemma
p399
Vat
p400
saa(lp401
Vthe
p402
a(dp403
VNamedEntityTag
p404
g100
sVCharacterOffsetEnd
p405
V100
p406
sVCharacterOffsetBegin
p407
V97
p408
sVPartOfSpeech
p409
VDT
p410
sVLemma
p411
Vthe
p412
saa(lp413
Vparty
p414
a(dp415
VNamedEntityTag
p416
g100
sVCharacterOffsetEnd
p417
V106
p418
sVCharacterOffsetBegin
p419
V101
p420
sVPartOfSpeech
p421
VNN
p422
sVLemma
p423
Vparty
p424
saa(lp425
V,
p426
a(dp427
VNamedEntityTag
p428
g100
sVCharacterOffsetEnd
p429
V108
p430
sVCharacterOffsetBegin
p431
V107
p432
sVPartOfSpeech
p433
g426
sVLemma
p434
g426
saa(lp435
Vand
p436
a(dp437
VNamedEntityTag
p438
g100
sVCharacterOffsetEnd
p439
V112
p440
sVCharacterOffsetBegin
p441
V109
p442
sVPartOfSpeech
p443
VCC
p444
sVLemma
p445
Vand
p446
saa(lp447
V0.4
p448
a(dp449
VNormalizedNamedEntityTag
p450
V0.4
p451
sVLemma
p452
V0.4
p453
sVCharacterOffsetEnd
p454
V116
p455
sVPartOfSpeech
p456
VCD
p457
sVCharacterOffsetBegin
p458
V113
p459
sVNamedEntityTag
p460
VNUMBER
p461
saa(lp462
Vtimes
p463
a(dp464
VNamedEntityTag
p465
g100
sVCharacterOffsetEnd
p466
V122
p467
sVCharacterOffsetBegin
p468
V117
p469
sVPartOfSpeech
p470
VNNS
p471
sVLemma
p472
Vtime
p473
saa(lp474
Vof
p475
a(dp476
VNamedEntityTag
p477
g100
sVCharacterOffsetEnd
p478
V125
p479
sVCharacterOffsetBegin
p480
V123
p481
sVPartOfSpeech
p482
VIN
p483
sVLemma
p484
Vof
p485
saa(lp486
Vthem
p487
a(dp488
VNamedEntityTag
p489
g100
sVCharacterOffsetEnd
p490
V130
p491
sVCharacterOffsetBegin
p492
V126
p493
sVPartOfSpeech
p494
VPRP
p495
sVLemma
p496
Vthey
p497
saa(lp498
Vpicked
p499
a(dp500
VNamedEntityTag
p501
g100
sVCharacterOffsetEnd
p502
V137
p503
sVCharacterOffsetBegin
p504
V131
p505
sVPartOfSpeech
p506
VVBD
p507
sVLemma
p508
Vpick
p509
saa(lp510
Vchocolate
p511
a(dp512
VNamedEntityTag
p513
g100
sVCharacterOffsetEnd
p514
V147
p515
sVCharacterOffsetBegin
p516
V138
p517
sVPartOfSpeech
p518
VNN
p519
sVLemma
p520
Vchocolate
p521
saa(lp522
Vcake
p523
a(dp524
VNamedEntityTag
p525
g100
sVCharacterOffsetEnd
p526
V152
p527
sVCharacterOffsetBegin
p528
V148
p529
sVPartOfSpeech
p530
VNN
p531
sVLemma
p532
Vcake
p533
saa(lp534
g230
a(dp535
VNamedEntityTag
p536
g100
sVCharacterOffsetEnd
p537
V154
p538
sVCharacterOffsetBegin
p539
V153
p540
sVPartOfSpeech
p541
g230
sVLemma
p542
g230
saasVindexeddependencies
p543
(lp544
(lp545
Vroot
p546
aVROOT-0
p547
aVwere-2
p548
aa(lp549
Vexpl
p550
aVwere-2
p551
aVThere-1
p552
aa(lp553
Vnum
p554
aVpeople-4
p555
aV10-3
p556
aa(lp557
Vnsubj
p558
aVwere-2
p559
aVpeople-4
p560
aa(lp561
Vdet
p562
aVparty-7
p563
aVthe-6
p564
aa(lp565
Vprep_at
p566
aVpeople-4
p567
aVparty-7
p568
aa(lp569
Vnum
p570
aVtimes-11
p571
aV0.4-10
p572
aa(lp573
Vnsubj
p574
aVpicked-14
p575
aVtimes-11
p576
aa(lp577
Vprep_of
p578
aVtimes-11
p579
aVthem-13
p580
aa(lp581
Vconj_and
p582
aVwere-2
p583
aVpicked-14
p584
aa(lp585
Vnn
p586
aVcake-16
p587
aVchocolate-15
p588
aa(lp589
Vdobj
p590
aVpicked-14
p591
aVcake-16
p592
aasa(dp593
Vparsetree
p594
V(ROOT (SBARQ (WHNP (WHADJP (WRB How) (JJ many)) (NNS people)) (SQ (VP (VBD picked) (NP (NN chocolate) (NN cake)))) (. ?)))
p595
sVtext
p596
VHow many people picked chocolate cake ?
p597
sVdependencies
p598
(lp599
(lp600
Vroot
p601
aVROOT
p602
aVpicked
p603
aa(lp604
Vadvmod
p605
aVmany
p606
aVHow
p607
aa(lp608
Vamod
p609
aVpeople
p610
aVmany
p611
aa(lp612
Vnsubj
p613
aVpicked
p614
aVpeople
p615
aa(lp616
Vnn
p617
aVcake
p618
aVchocolate
p619
aa(lp620
Vdobj
p621
aVpicked
p622
aVcake
p623
aasVwords
p624
(lp625
(lp626
VHow
p627
a(dp628
VNamedEntityTag
p629
g100
sVCharacterOffsetEnd
p630
V158
p631
sVCharacterOffsetBegin
p632
V155
p633
sVPartOfSpeech
p634
VWRB
p635
sVLemma
p636
Vhow
p637
saa(lp638
Vmany
p639
a(dp640
VNamedEntityTag
p641
g100
sVCharacterOffsetEnd
p642
V163
p643
sVCharacterOffsetBegin
p644
V159
p645
sVPartOfSpeech
p646
VJJ
p647
sVLemma
p648
Vmany
p649
saa(lp650
Vpeople
p651
a(dp652
VNamedEntityTag
p653
g100
sVCharacterOffsetEnd
p654
V170
p655
sVCharacterOffsetBegin
p656
V164
p657
sVPartOfSpeech
p658
VNNS
p659
sVLemma
p660
Vpeople
p661
saa(lp662
Vpicked
p663
a(dp664
VNamedEntityTag
p665
g100
sVCharacterOffsetEnd
p666
V177
p667
sVCharacterOffsetBegin
p668
V171
p669
sVPartOfSpeech
p670
VVBD
p671
sVLemma
p672
Vpick
p673
saa(lp674
Vchocolate
p675
a(dp676
VNamedEntityTag
p677
g100
sVCharacterOffsetEnd
p678
V187
p679
sVCharacterOffsetBegin
p680
V178
p681
sVPartOfSpeech
p682
VNN
p683
sVLemma
p684
Vchocolate
p685
saa(lp686
Vcake
p687
a(dp688
VNamedEntityTag
p689
g100
sVCharacterOffsetEnd
p690
V192
p691
sVCharacterOffsetBegin
p692
V188
p693
sVPartOfSpeech
p694
VNN
p695
sVLemma
p696
Vcake
p697
saa(lp698
V?
p699
a(dp700
VNamedEntityTag
p701
g100
sVCharacterOffsetEnd
p702
V194
p703
sVCharacterOffsetBegin
p704
V193
p705
sVPartOfSpeech
p706
g230
sVLemma
p707
g699
saasVindexeddependencies
p708
(lp709
(lp710
Vroot
p711
aVROOT-0
p712
aVpicked-4
p713
aa(lp714
Vadvmod
p715
aVmany-2
p716
aVHow-1
p717
aa(lp718
Vamod
p719
aVpeople-3
p720
aVmany-2
p721
aa(lp722
Vnsubj
p723
aVpicked-4
p724
aVpeople-3
p725
aa(lp726
Vnn
p727
aVcake-6
p728
aVchocolate-5
p729
aa(lp730
Vdobj
p731
aVpicked-4
p732
aVcake-6
p733
aasas.