(dp0
Vcoref
p1
(lp2
(lp3
(lp4
(lp5
Vher
p6
aI0
aI2
aI2
aI3
aa(lp7
VFaye
p8
aI0
aI0
aI0
aI1
aaa(lp9
(lp10
VFaye
p11
aI1
aI0
aI0
aI1
aa(lp12
VFaye
p13
aI0
aI0
aI0
aI1
aaa(lp14
(lp15
Vher
p16
aI1
aI4
aI4
aI5
aa(lp17
VFaye
p18
aI0
aI0
aI0
aI1
aaaa(lp19
(lp20
(lp21
Vtheir
p22
aI0
aI8
aI8
aI9
aa(lp23
VFaye and her mom
p24
aI0
aI0
aI0
aI4
aaa(lp25
(lp26
Vthey
p27
aI2
aI14
aI14
aI15
aa(lp28
VFaye and her mom
p29
aI0
aI0
aI0
aI4
aaaa(lp30
(lp31
(lp32
Vcarrots
p33
aI0
aI6
aI6
aI7
aa(lp34
Vthe carrots
p35
aI2
aI5
aI4
aI6
aaa(lp36
(lp37
Vcarrots
p38
aI2
aI12
aI12
aI13
aa(lp39
Vthe carrots
p40
aI2
aI5
aI4
aI6
aaaasVsentences
p41
(lp42
(dp43
Vparsetree
p44
V(ROOT (S (NP (NP (NNP Faye)) (CC and) (NP (PRP$ her) (NN mom))) (VP (VBD were) (VP (VBG picking) (NP (NNS carrots)) (PP (IN from) (NP (PRP$ their) (NN garden))))) (. .)))
p45
sVtext
p46
VFaye and her mom were picking carrots from their garden .
p47
sVdependencies
p48
(lp49
(lp50
Vroot
p51
aVROOT
p52
aVpicking
p53
aa(lp54
Vnsubj
p55
aVpicking
p56
aVFaye
p57
aa(lp58
Vposs
p59
aVmom
p60
aVher
p61
aa(lp62
Vconj_and
p63
aVFaye
p64
aVmom
p65
aa(lp66
Vaux
p67
aVpicking
p68
aVwere
p69
aa(lp70
Vdobj
p71
aVpicking
p72
aVcarrots
p73
aa(lp74
Vposs
p75
aVgarden
p76
aVtheir
p77
aa(lp78
Vprep_from
p79
aVpicking
p80
aVgarden
p81
aasVwords
p82
(lp83
(lp84
VFaye
p85
a(dp86
VNamedEntityTag
p87
VPERSON
p88
sVCharacterOffsetEnd
p89
V5
p90
sVCharacterOffsetBegin
p91
V1
p92
sVPartOfSpeech
p93
VNNP
p94
sVLemma
p95
VFaye
p96
saa(lp97
Vand
p98
a(dp99
VNamedEntityTag
p100
VO
p101
sVCharacterOffsetEnd
p102
V9
p103
sVCharacterOffsetBegin
p104
V6
p105
sVPartOfSpeech
p106
VCC
p107
sVLemma
p108
Vand
p109
saa(lp110
Vher
p111
a(dp112
VNamedEntityTag
p113
g101
sVCharacterOffsetEnd
p114
V13
p115
sVCharacterOffsetBegin
p116
V10
p117
sVPartOfSpeech
p118
VPRP$
p119
sVLemma
p120
Vshe
p121
saa(lp122
Vmom
p123
a(dp124
VNamedEntityTag
p125
g101
sVCharacterOffsetEnd
p126
V17
p127
sVCharacterOffsetBegin
p128
V14
p129
sVPartOfSpeech
p130
VNN
p131
sVLemma
p132
Vmom
p133
saa(lp134
Vwere
p135
a(dp136
VNamedEntityTag
p137
g101
sVCharacterOffsetEnd
p138
V22
p139
sVCharacterOffsetBegin
p140
V18
p141
sVPartOfSpeech
p142
VVBD
p143
sVLemma
p144
Vbe
p145
saa(lp146
Vpicking
p147
a(dp148
VNamedEntityTag
p149
g101
sVCharacterOffsetEnd
p150
V30
p151
sVCharacterOffsetBegin
p152
V23
p153
sVPartOfSpeech
p154
VVBG
p155
sVLemma
p156
Vpick
p157
saa(lp158
Vcarrots
p159
a(dp160
VNamedEntityTag
p161
g101
sVCharacterOffsetEnd
p162
V38
p163
sVCharacterOffsetBegin
p164
V31
p165
sVPartOfSpeech
p166
VNNS
p167
sVLemma
p168
Vcarrot
p169
saa(lp170
Vfrom
p171
a(dp172
VNamedEntityTag
p173
g101
sVCharacterOffsetEnd
p174
V43
p175
sVCharacterOffsetBegin
p176
V39
p177
sVPartOfSpeech
p178
VIN
p179
sVLemma
p180
Vfrom
p181
saa(lp182
Vtheir
p183
a(dp184
VNamedEntityTag
p185
g101
sVCharacterOffsetEnd
p186
V49
p187
sVCharacterOffsetBegin
p188
V44
p189
sVPartOfSpeech
p190
VPRP$
p191
sVLemma
p192
Vthey
p193
saa(lp194
Vgarden
p195
a(dp196
VNamedEntityTag
p197
g101
sVCharacterOffsetEnd
p198
V56
p199
sVCharacterOffsetBegin
p200
V50
p201
sVPartOfSpeech
p202
VNN
p203
sVLemma
p204
Vgarden
p205
saa(lp206
V.
p207
a(dp208
VNamedEntityTag
p209
g101
sVCharacterOffsetEnd
p210
V58
p211
sVCharacterOffsetBegin
p212
V57
p213
sVPartOfSpeech
p214
g207
sVLemma
p215
g207
saasVindexeddependencies
p216
(lp217
(lp218
Vroot
p219
aVROOT-0
p220
aVpicking-6
p221
aa(lp222
Vnsubj
p223
aVpicking-6
p224
aVFaye-1
p225
aa(lp226
Vposs
p227
aVmom-4
p228
aVher-3
p229
aa(lp230
Vconj_and
p231
aVFaye-1
p232
aVmom-4
p233
aa(lp234
Vaux
p235
aVpicking-6
p236
aVwere-5
p237
aa(lp238
Vdobj
p239
aVpicking-6
p240
aVcarrots-7
p241
aa(lp242
Vposs
p243
aVgarden-10
p244
aVtheir-9
p245
aa(lp246
Vprep_from
p247
aVpicking-6
p248
aVgarden-10
p249
aasa(dp250
Vparsetree
p251
V(ROOT (S (NP (NNP Faye)) (VP (VBD picked) (SBAR (S (NP (NP (CD 23)) (CC and) (NP (PRP$ her) (NN mother))) (VP (VBD picked) (NP (CD 5)))))) (. .)))
p252
sVtext
p253
VFaye picked 23 and her mother picked 5 .
p254
sVdependencies
p255
(lp256
(lp257
Vroot
p258
aVROOT
p259
aVpicked
p260
aa(lp261
Vnsubj
p262
aVpicked
p263
aVFaye
p264
aa(lp265
Vnsubj
p266
aVpicked
p267
aV23
p268
aa(lp269
Vposs
p270
aVmother
p271
aVher
p272
aa(lp273
Vconj_and
p274
aV23
p275
aVmother
p276
aa(lp277
Vccomp
p278
aVpicked
p279
aVpicked
p280
aa(lp281
Vdobj
p282
aVpicked
p283
ag90
aasVwords
p284
(lp285
(lp286
VFaye
p287
a(dp288
VNamedEntityTag
p289
VPERSON
p290
sVCharacterOffsetEnd
p291
V63
p292
sVCharacterOffsetBegin
p293
V59
p294
sVPartOfSpeech
p295
VNNP
p296
sVLemma
p297
VFaye
p298
saa(lp299
Vpicked
p300
a(dp301
VNamedEntityTag
p302
g101
sVCharacterOffsetEnd
p303
V70
p304
sVCharacterOffsetBegin
p305
V64
p306
sVPartOfSpeech
p307
VVBD
p308
sVLemma
p309
Vpick
p310
saa(lp311
V23
p312
a(dp313
VNormalizedNamedEntityTag
p314
V23.0
p315
sVLemma
p316
V23
p317
sVCharacterOffsetEnd
p318
V73
p319
sVPartOfSpeech
p320
VCD
p321
sVCharacterOffsetBegin
p322
V71
p323
sVNamedEntityTag
p324
VNUMBER
p325
saa(lp326
Vand
p327
a(dp328
VNamedEntityTag
p329
g101
sVCharacterOffsetEnd
p330
V77
p331
sVCharacterOffsetBegin
p332
V74
p333
sVPartOfSpeech
p334
VCC
p335
sVLemma
p336
Vand
p337
saa(lp338
Vher
p339
a(dp340
VNamedEntityTag
p341
g101
sVCharacterOffsetEnd
p342
V81
p343
sVCharacterOffsetBegin
p344
V78
p345
sVPartOfSpeech
p346
VPRP$
p347
sVLemma
p348
Vshe
p349
saa(lp350
Vmother
p351
a(dp352
VNamedEntityTag
p353
g101
sVCharacterOffsetEnd
p354
V88
p355
sVCharacterOffsetBegin
p356
V82
p357
sVPartOfSpeech
p358
VNN
p359
sVLemma
p360
Vmother
p361
saa(lp362
Vpicked
p363
a(dp364
VNamedEntityTag
p365
g101
sVCharacterOffsetEnd
p366
V95
p367
sVCharacterOffsetBegin
p368
V89
p369
sVPartOfSpeech
p370
VVBD
p371
sVLemma
p372
Vpick
p373
saa(lp374
g90
a(dp375
VNormalizedNamedEntityTag
p376
V5.0
p377
sVLemma
p378
g90
sVCharacterOffsetEnd
p379
V97
p380
sVPartOfSpeech
p381
VCD
p382
sVCharacterOffsetBegin
p383
V96
p384
sVNamedEntityTag
p385
VNUMBER
p386
saa(lp387
g207
a(dp388
VNamedEntityTag
p389
g101
sVCharacterOffsetEnd
p390
V99
p391
sVCharacterOffsetBegin
p392
V98
p393
sVPartOfSpeech
p394
g207
sVLemma
p395
g207
saasVindexeddependencies
p396
(lp397
(lp398
Vroot
p399
aVROOT-0
p400
aVpicked-2
p401
aa(lp402
Vnsubj
p403
aVpicked-2
p404
aVFaye-1
p405
aa(lp406
Vnsubj
p407
aVpicked-7
p408
aV23-3
p409
aa(lp410
Vposs
p411
aVmother-6
p412
aVher-5
p413
aa(lp414
Vconj_and
p415
aV23-3
p416
aVmother-6
p417
aa(lp418
Vccomp
p419
aVpicked-2
p420
aVpicked-7
p421
aa(lp422
Vdobj
p423
aVpicked-7
p424
aV5-8
p425
aasa(dp426
Vparsetree
p427
V(ROOT (SBARQ (SBAR (IN If) (S (NP (NP (QP (RB only) (CD 12))) (PP (IN of) (NP (DT the) (NNS carrots)))) (VP (VBD were) (ADJP (JJ good))))) (, ,) (WHNP (WHADJP (WRB how) (JJ many)) (NP (NP (JJ bad)) (NP (NNS carrots)))) (SQ (VBD did) (NP (PRP they)) (VP (VB have))) (. ?)))
p428
sVtext
p429
VIf only 12 of the carrots were good , how many bad carrots did they have ?
p430
sVdependencies
p431
(lp432
(lp433
Vroot
p434
aVROOT
p435
aVhave
p436
aa(lp437
Vmark
p438
aVgood
p439
aVIf
p440
aa(lp441
Vquantmod
p442
aV12
p443
aVonly
p444
aa(lp445
Vnsubj
p446
aVgood
p447
aV12
p448
aa(lp449
Vdet
p450
aVcarrots
p451
aVthe
p452
aa(lp453
Vprep_of
p454
aV12
p455
aVcarrots
p456
aa(lp457
Vcop
p458
aVgood
p459
aVwere
p460
aa(lp461
Vadvcl
p462
aVhave
p463
aVgood
p464
aa(lp465
Vadvmod
p466
aVmany
p467
aVhow
p468
aa(lp469
Vamod
p470
aVbad
p471
aVmany
p472
aa(lp473
Vdobj
p474
aVhave
p475
aVbad
p476
aa(lp477
Vdep
p478
aVbad
p479
aVcarrots
p480
aa(lp481
Vaux
p482
aVhave
p483
aVdid
p484
aa(lp485
Vnsubj
p486
aVhave
p487
aVthey
p488
aasVwords
p489
(lp490
(lp491
VIf
p492
a(dp493
VNamedEntityTag
p494
g101
sVCharacterOffsetEnd
p495
V102
p496
sVCharacterOffsetBegin
p497
V100
p498
sVPartOfSpeech
p499
VIN
p500
sVLemma
p501
Vif
p502
saa(lp503
Vonly
p504
a(dp505
VNamedEntityTag
p506
g101
sVCharacterOffsetEnd
p507
V107
p508
sVCharacterOffsetBegin
p509
V103
p510
sVPartOfSpeech
p511
VRB
p512
sVLemma
p513
Vonly
p514
saa(lp515
V12
p516
a(dp517
VNormalizedNamedEntityTag
p518
V12.0
p519
sVLemma
p520
V12
p521
sVCharacterOffsetEnd
p522
V110
p523
sVPartOfSpeech
p524
VCD
p525
sVCharacterOffsetBegin
p526
V108
p527
sVNamedEntityTag
p528
VNUMBER
p529
saa(lp530
Vof
p531
a(dp532
VNamedEntityTag
p533
g101
sVCharacterOffsetEnd
p534
V113
p535
sVCharacterOffsetBegin
p536
V111
p537
sVPartOfSpeech
p538
VIN
p539
sVLemma
p540
Vof
p541
saa(lp542
Vthe
p543
a(dp544
VNamedEntityTag
p545
g101
sVCharacterOffsetEnd
p546
V117
p547
sVCharacterOffsetBegin
p548
V114
p549
sVPartOfSpeech
p550
VDT
p551
sVLemma
p552
Vthe
p553
saa(lp554
Vcarrots
p555
a(dp556
VNamedEntityTag
p557
g101
sVCharacterOffsetEnd
p558
V125
p559
sVCharacterOffsetBegin
p560
V118
p561
sVPartOfSpeech
p562
VNNS
p563
sVLemma
p564
Vcarrot
p565
saa(lp566
Vwere
p567
a(dp568
VNamedEntityTag
p569
g101
sVCharacterOffsetEnd
p570
V130
p571
sVCharacterOffsetBegin
p572
V126
p573
sVPartOfSpeech
p574
VVBD
p575
sVLemma
p576
Vbe
p577
saa(lp578
Vgood
p579
a(dp580
VNamedEntityTag
p581
g101
sVCharacterOffsetEnd
p582
V135
p583
sVCharacterOffsetBegin
p584
V131
p585
sVPartOfSpeech
p586
VJJ
p587
sVLemma
p588
Vgood
p589
saa(lp590
V,
p591
a(dp592
VNamedEntityTag
p593
g101
sVCharacterOffsetEnd
p594
V137
p595
sVCharacterOffsetBegin
p596
V136
p597
sVPartOfSpeech
p598
g591
sVLemma
p599
g591
saa(lp600
Vhow
p601
a(dp602
VNamedEntityTag
p603
g101
sVCharacterOffsetEnd
p604
V141
p605
sVCharacterOffsetBegin
p606
V138
p607
sVPartOfSpeech
p608
VWRB
p609
sVLemma
p610
Vhow
p611
saa(lp612
Vmany
p613
a(dp614
VNamedEntityTag
p615
g101
sVCharacterOffsetEnd
p616
V146
p617
sVCharacterOffsetBegin
p618
V142
p619
sVPartOfSpeech
p620
VJJ
p621
sVLemma
p622
Vmany
p623
saa(lp624
Vbad
p625
a(dp626
VNamedEntityTag
p627
g101
sVCharacterOffsetEnd
p628
V150
p629
sVCharacterOffsetBegin
p630
V147
p631
sVPartOfSpeech
p632
VJJ
p633
sVLemma
p634
Vbad
p635
saa(lp636
Vcarrots
p637
a(dp638
VNamedEntityTag
p639
g101
sVCharacterOffsetEnd
p640
V158
p641
sVCharacterOffsetBegin
p642
V151
p643
sVPartOfSpeech
p644
VNNS
p645
sVLemma
p646
Vcarrot
p647
saa(lp648
Vdid
p649
a(dp650
VNamedEntityTag
p651
g101
sVCharacterOffsetEnd
p652
V162
p653
sVCharacterOffsetBegin
p654
V159
p655
sVPartOfSpeech
p656
VVBD
p657
sVLemma
p658
Vdo
p659
saa(lp660
Vthey
p661
a(dp662
VNamedEntityTag
p663
g101
sVCharacterOffsetEnd
p664
V167
p665
sVCharacterOffsetBegin
p666
V163
p667
sVPartOfSpeech
p668
VPRP
p669
sVLemma
p670
Vthey
p671
saa(lp672
Vhave
p673
a(dp674
VNamedEntityTag
p675
g101
sVCharacterOffsetEnd
p676
V172
p677
sVCharacterOffsetBegin
p678
V168
p679
sVPartOfSpeech
p680
VVB
p681
sVLemma
p682
Vhave
p683
saa(lp684
V?
p685
a(dp686
VNamedEntityTag
p687
g101
sVCharacterOffsetEnd
p688
V174
p689
sVCharacterOffsetBegin
p690
V173
p691
sVPartOfSpeech
p692
g207
sVLemma
p693
g685
saasVindexeddependencies
p694
(lp695
(lp696
Vroot
p697
aVROOT-0
p698
aVhave-16
p699
aa(lp700
Vmark
p701
aVgood-8
p702
aVIf-1
p703
aa(lp704
Vquantmod
p705
aV12-3
p706
aVonly-2
p707
aa(lp708
Vnsubj
p709
aVgood-8
p710
aV12-3
p711
aa(lp712
Vdet
p713
aVcarrots-6
p714
aVthe-5
p715
aa(lp716
Vprep_of
p717
aV12-3
p718
aVcarrots-6
p719
aa(lp720
Vcop
p721
aVgood-8
p722
aVwere-7
p723
aa(lp724
Vadvcl
p725
aVhave-16
p726
aVgood-8
p727
aa(lp728
Vadvmod
p729
aVmany-11
p730
aVhow-10
p731
aa(lp732
Vamod
p733
aVbad-12
p734
aVmany-11
p735
aa(lp736
Vdobj
p737
aVhave-16
p738
aVbad-12
p739
aa(lp740
Vdep
p741
aVbad-12
p742
aVcarrots-13
p743
aa(lp744
Vaux
p745
aVhave-16
p746
aVdid-14
p747
aa(lp748
Vnsubj
p749
aVhave-16
p750
aVthey-15
p751
aasas.