(dp0
Vcoref
p1
(lp2
(lp3
(lp4
(lp5
VShe
p6
aI1
aI0
aI0
aI1
aa(lp7
VMaria
p8
aI0
aI0
aI0
aI1
aaa(lp9
(lp10
VMaria
p11
aI2
aI7
aI7
aI8
aa(lp12
VMaria
p13
aI0
aI0
aI0
aI1
aaaa(lp14
(lp15
(lp16
Vberries
p17
aI2
aI5
aI5
aI6
aa(lp18
Vberries
p19
aI0
aI5
aI5
aI6
aaaasVsentences
p20
(lp21
(dp22
Vparsetree
p23
V(ROOT (S (NP (NNP Maria)) (VP (VBZ needs) (S (NP (NP (CD 21) (NNS cartons)) (PP (IN of) (NP (NNS berries)))) (VP (TO to) (VP (VB make) (NP (DT a) (NN berry) (NN cobbler)))))) (. .)))
p24
sVtext
p25
VMaria needs 21 cartons of berries to make a berry cobbler .
p26
sVdependencies
p27
(lp28
(lp29
Vroot
p30
aVROOT
p31
aVneeds
p32
aa(lp33
Vnsubj
p34
aVneeds
p35
aVMaria
p36
aa(lp37
Vnum
p38
aVcartons
p39
aV21
p40
aa(lp41
Vdobj
p42
aVneeds
p43
aVcartons
p44
aa(lp45
Vprep_of
p46
aVcartons
p47
aVberries
p48
aa(lp49
Vaux
p50
aVmake
p51
aVto
p52
aa(lp53
Vxcomp
p54
aVneeds
p55
aVmake
p56
aa(lp57
Vdet
p58
aVcobbler
p59
aVa
p60
aa(lp61
Vnn
p62
aVcobbler
p63
aVberry
p64
aa(lp65
Vdobj
p66
aVmake
p67
aVcobbler
p68
aasVwords
p69
(lp70
(lp71
VMaria
p72
a(dp73
VNamedEntityTag
p74
VPERSON
p75
sVCharacterOffsetEnd
p76
V6
p77
sVCharacterOffsetBegin
p78
V1
p79
sVPartOfSpeech
p80
VNNP
p81
sVLemma
p82
VMaria
p83
saa(lp84
Vneeds
p85
a(dp86
VNamedEntityTag
p87
VO
p88
sVCharacterOffsetEnd
p89
V12
p90
sVCharacterOffsetBegin
p91
V7
p92
sVPartOfSpeech
p93
VVBZ
p94
sVLemma
p95
Vneed
p96
saa(lp97
V21
p98
a(dp99
VNormalizedNamedEntityTag
p100
V21.0
p101
sVLemma
p102
V21
p103
sVCharacterOffsetEnd
p104
V15
p105
sVPartOfSpeech
p106
VCD
p107
sVCharacterOffsetBegin
p108
V13
p109
sVNamedEntityTag
p110
VNUMBER
p111
saa(lp112
Vcartons
p113
a(dp114
VNamedEntityTag
p115
g88
sVCharacterOffsetEnd
p116
V23
p117
sVCharacterOffsetBegin
p118
V16
p119
sVPartOfSpeech
p120
VNNS
p121
sVLemma
p122
Vcarton
p123
saa(lp124
Vof
p125
a(dp126
VNamedEntityTag
p127
g88
sVCharacterOffsetEnd
p128
V26
p129
sVCharacterOffsetBegin
p130
V24
p131
sVPartOfSpeech
p132
VIN
p133
sVLemma
p134
Vof
p135
saa(lp136
Vberries
p137
a(dp138
VNamedEntityTag
p139
g88
sVCharacterOffsetEnd
p140
V34
p141
sVCharacterOffsetBegin
p142
V27
p143
sVPartOfSpeech
p144
VNNS
p145
sVLemma
p146
Vberry
p147
saa(lp148
Vto
p149
a(dp150
VNamedEntityTag
p151
g88
sVCharacterOffsetEnd
p152
V37
p153
sVCharacterOffsetBegin
p154
V35
p155
sVPartOfSpeech
p156
VTO
p157
sVLemma
p158
Vto
p159
saa(lp160
Vmake
p161
a(dp162
VNamedEntityTag
p163
g88
sVCharacterOffsetEnd
p164
V42
p165
sVCharacterOffsetBegin
p166
V38
p167
sVPartOfSpeech
p168
VVB
p169
sVLemma
p170
Vmake
p171
saa(lp172
g60
a(dp173
VNamedEntityTag
p174
g88
sVCharacterOffsetEnd
p175
V44
p176
sVCharacterOffsetBegin
p177
V43
p178
sVPartOfSpeech
p179
VDT
p180
sVLemma
p181
g60
saa(lp182
Vberry
p183
a(dp184
VNamedEntityTag
p185
g88
sVCharacterOffsetEnd
p186
V50
p187
sVCharacterOffsetBegin
p188
V45
p189
sVPartOfSpeech
p190
VNN
p191
sVLemma
p192
Vberry
p193
saa(lp194
Vcobbler
p195
a(dp196
VNamedEntityTag
p197
g88
sVCharacterOffsetEnd
p198
V58
p199
sVCharacterOffsetBegin
p200
V51
p201
sVPartOfSpeech
p202
VNN
p203
sVLemma
p204
Vcobbler
p205
saa(lp206
V.
p207
a(dp208
VNamedEntityTag
p209
g88
sVCharacterOffsetEnd
p210
V60
p211
sVCharacterOffsetBegin
p212
V59
p213
sVPartOfSpeech
p214
g207
sVLemma
p215
g207
saasVindexeddependencies
p216
(lp217
(lp218
Vroot
p219
aVROOT-0
p220
aVneeds-2
p221
aa(lp222
Vnsubj
p223
aVneeds-2
p224
aVMaria-1
p225
aa(lp226
Vnum
p227
aVcartons-4
p228
aV21-3
p229
aa(lp230
Vdobj
p231
aVneeds-2
p232
aVcartons-4
p233
aa(lp234
Vprep_of
p235
aVcartons-4
p236
aVberries-6
p237
aa(lp238
Vaux
p239
aVmake-8
p240
aVto-7
p241
aa(lp242
Vxcomp
p243
aVneeds-2
p244
aVmake-8
p245
aa(lp246
Vdet
p247
aVcobbler-11
p248
aVa-9
p249
aa(lp250
Vnn
p251
aVcobbler-11
p252
aVberry-10
p253
aa(lp254
Vdobj
p255
aVmake-8
p256
aVcobbler-11
p257
aasa(dp258
Vparsetree
p259
V(ROOT (S (NP (PRP She)) (ADVP (RB already)) (VP (VBZ has) (NP (NP (NP (CD 4) (NNS cartons)) (PP (IN of) (NP (NNS strawberries)))) (CC and) (NP (NP (CD 8) (NNS cartons)) (PP (IN of) (NP (NNS blueberries)))))) (. .)))
p260
sVtext
p261
VShe already has 4 cartons of strawberries and 8 cartons of blueberries .
p262
sVdependencies
p263
(lp264
(lp265
Vroot
p266
aVROOT
p267
aVhas
p268
aa(lp269
Vnsubj
p270
aVhas
p271
aVShe
p272
aa(lp273
Vadvmod
p274
aVhas
p275
aValready
p276
aa(lp277
Vnum
p278
aVcartons
p279
aV4
p280
aa(lp281
Vdobj
p282
aVhas
p283
aVcartons
p284
aa(lp285
Vprep_of
p286
aVcartons
p287
aVstrawberries
p288
aa(lp289
Vnum
p290
aVcartons
p291
aV8
p292
aa(lp293
Vconj_and
p294
aVcartons
p295
aVcartons
p296
aa(lp297
Vprep_of
p298
aVcartons
p299
aVblueberries
p300
aasVwords
p301
(lp302
(lp303
VShe
p304
a(dp305
VNamedEntityTag
p306
g88
sVCharacterOffsetEnd
p307
V64
p308
sVCharacterOffsetBegin
p309
V61
p310
sVPartOfSpeech
p311
VPRP
p312
sVLemma
p313
Vshe
p314
saa(lp315
Valready
p316
a(dp317
VNamedEntityTag
p318
g88
sVCharacterOffsetEnd
p319
V72
p320
sVCharacterOffsetBegin
p321
V65
p322
sVPartOfSpeech
p323
VRB
p324
sVLemma
p325
Valready
p326
saa(lp327
Vhas
p328
a(dp329
VNamedEntityTag
p330
g88
sVCharacterOffsetEnd
p331
V76
p332
sVCharacterOffsetBegin
p333
V73
p334
sVPartOfSpeech
p335
VVBZ
p336
sVLemma
p337
Vhave
p338
saa(lp339
g280
a(dp340
VNormalizedNamedEntityTag
p341
V4.0
p342
sVLemma
p343
g280
sVCharacterOffsetEnd
p344
V78
p345
sVPartOfSpeech
p346
VCD
p347
sVCharacterOffsetBegin
p348
V77
p349
sVNamedEntityTag
p350
VNUMBER
p351
saa(lp352
Vcartons
p353
a(dp354
VNamedEntityTag
p355
g88
sVCharacterOffsetEnd
p356
V86
p357
sVCharacterOffsetBegin
p358
V79
p359
sVPartOfSpeech
p360
VNNS
p361
sVLemma
p362
Vcarton
p363
saa(lp364
Vof
p365
a(dp366
VNamedEntityTag
p367
g88
sVCharacterOffsetEnd
p368
V89
p369
sVCharacterOffsetBegin
p370
V87
p371
sVPartOfSpeech
p372
VIN
p373
sVLemma
p374
Vof
p375
saa(lp376
Vstrawberries
p377
a(dp378
VNamedEntityTag
p379
g88
sVCharacterOffsetEnd
p380
V102
p381
sVCharacterOffsetBegin
p382
V90
p383
sVPartOfSpeech
p384
VNNS
p385
sVLemma
p386
Vstrawberry
p387
saa(lp388
Vand
p389
a(dp390
VNamedEntityTag
p391
g88
sVCharacterOffsetEnd
p392
V106
p393
sVCharacterOffsetBegin
p394
V103
p395
sVPartOfSpeech
p396
VCC
p397
sVLemma
p398
Vand
p399
saa(lp400
g292
a(dp401
VNormalizedNamedEntityTag
p402
V8.0
p403
sVLemma
p404
g292
sVCharacterOffsetEnd
p405
V108
p406
sVPartOfSpeech
p407
VCD
p408
sVCharacterOffsetBegin
p409
V107
p410
sVNamedEntityTag
p411
VNUMBER
p412
saa(lp413
Vcartons
p414
a(dp415
VNamedEntityTag
p416
g88
sVCharacterOffsetEnd
p417
V116
p418
sVCharacterOffsetBegin
p419
V109
p420
sVPartOfSpeech
p421
VNNS
p422
sVLemma
p423
Vcarton
p424
saa(lp425
Vof
p426
a(dp427
VNamedEntityTag
p428
g88
sVCharacterOffsetEnd
p429
V119
p430
sVCharacterOffsetBegin
p431
V117
p432
sVPartOfSpeech
p433
VIN
p434
sVLemma
p435
Vof
p436
saa(lp437
Vblueberries
p438
a(dp439
VNamedEntityTag
p440
g88
sVCharacterOffsetEnd
p441
V131
p442
sVCharacterOffsetBegin
p443
V120
p444
sVPartOfSpeech
p445
VNNS
p446
sVLemma
p447
Vblueberry
p448
saa(lp449
g207
a(dp450
VNamedEntityTag
p451
g88
sVCharacterOffsetEnd
p452
V133
p453
sVCharacterOffsetBegin
p454
V132
p455
sVPartOfSpeech
p456
g207
sVLemma
p457
g207
saasVindexeddependencies
p458
(lp459
(lp460
Vroot
p461
aVROOT-0
p462
aVhas-3
p463
aa(lp464
Vnsubj
p465
aVhas-3
p466
aVShe-1
p467
aa(lp468
Vadvmod
p469
aVhas-3
p470
aValready-2
p471
aa(lp472
Vnum
p473
aVcartons-5
p474
aV4-4
p475
aa(lp476
Vdobj
p477
aVhas-3
p478
aVcartons-5
p479
aa(lp480
Vprep_of
p481
aVcartons-5
p482
aVstrawberries-7
p483
aa(lp484
Vnum
p485
aVcartons-10
p486
aV8-9
p487
aa(lp488
Vconj_and
p489
aVcartons-5
p490
aVcartons-10
p491
aa(lp492
Vprep_of
p493
aVcartons-10
p494
aVblueberries-12
p495
aasa(dp496
Vparsetree
p497
V(ROOT (SBARQ (WHNP (WHADJP (WRB How) (JJ many)) (NP (NP (JJR more) (NNS cartons)) (PP (IN of) (NP (NNS berries))))) (SQ (MD should) (NP (NNP Maria)) (VP (VB buy))) (. ?)))
p498
sVtext
p499
VHow many more cartons of berries should Maria buy ?
p500
sVdependencies
p501
(lp502
(lp503
Vroot
p504
aVROOT
p505
aVbuy
p506
aa(lp507
Vadvmod
p508
aVmany
p509
aVHow
p510
aa(lp511
Vamod
p512
aVcartons
p513
aVmany
p514
aa(lp515
Vamod
p516
aVcartons
p517
aVmore
p518
aa(lp519
Vdobj
p520
aVbuy
p521
aVcartons
p522
aa(lp523
Vprep_of
p524
aVcartons
p525
aVberries
p526
aa(lp527
Vaux
p528
aVbuy
p529
aVshould
p530
aa(lp531
Vnsubj
p532
aVbuy
p533
aVMaria
p534
aasVwords
p535
(lp536
(lp537
VHow
p538
a(dp539
VNamedEntityTag
p540
g88
sVCharacterOffsetEnd
p541
V137
p542
sVCharacterOffsetBegin
p543
V134
p544
sVPartOfSpeech
p545
VWRB
p546
sVLemma
p547
Vhow
p548
saa(lp549
Vmany
p550
a(dp551
VNamedEntityTag
p552
g88
sVCharacterOffsetEnd
p553
V142
p554
sVCharacterOffsetBegin
p555
V138
p556
sVPartOfSpeech
p557
VJJ
p558
sVLemma
p559
Vmany
p560
saa(lp561
Vmore
p562
a(dp563
VNamedEntityTag
p564
g88
sVCharacterOffsetEnd
p565
V147
p566
sVCharacterOffsetBegin
p567
V143
p568
sVPartOfSpeech
p569
VJJR
p570
sVLemma
p571
Vmore
p572
saa(lp573
Vcartons
p574
a(dp575
VNamedEntityTag
p576
g88
sVCharacterOffsetEnd
p577
V155
p578
sVCharacterOffsetBegin
p579
V148
p580
sVPartOfSpeech
p581
VNNS
p582
sVLemma
p583
Vcarton
p584
saa(lp585
Vof
p586
a(dp587
VNamedEntityTag
p588
g88
sVCharacterOffsetEnd
p589
V158
p590
sVCharacterOffsetBegin
p591
V156
p592
sVPartOfSpeech
p593
VIN
p594
sVLemma
p595
Vof
p596
saa(lp597
Vberries
p598
a(dp599
VNamedEntityTag
p600
g88
sVCharacterOffsetEnd
p601
V166
p602
sVCharacterOffsetBegin
p603
V159
p604
sVPartOfSpeech
p605
VNNS
p606
sVLemma
p607
Vberry
p608
saa(lp609
Vshould
p610
a(dp611
VNamedEntityTag
p612
g88
sVCharacterOffsetEnd
p613
V173
p614
sVCharacterOffsetBegin
p615
V167
p616
sVPartOfSpeech
p617
VMD
p618
sVLemma
p619
Vshould
p620
saa(lp621
VMaria
p622
a(dp623
VNamedEntityTag
p624
VPERSON
p625
sVCharacterOffsetEnd
p626
V179
p627
sVCharacterOffsetBegin
p628
V174
p629
sVPartOfSpeech
p630
VNNP
p631
sVLemma
p632
VMaria
p633
saa(lp634
Vbuy
p635
a(dp636
VNamedEntityTag
p637
g88
sVCharacterOffsetEnd
p638
V183
p639
sVCharacterOffsetBegin
p640
V180
p641
sVPartOfSpeech
p642
VVB
p643
sVLemma
p644
Vbuy
p645
saa(lp646
V?
p647
a(dp648
VNamedEntityTag
p649
g88
sVCharacterOffsetEnd
p650
V185
p651
sVCharacterOffsetBegin
p652
V184
p653
sVPartOfSpeech
p654
g207
sVLemma
p655
g647
saasVindexeddependencies
p656
(lp657
(lp658
Vroot
p659
aVROOT-0
p660
aVbuy-9
p661
aa(lp662
Vadvmod
p663
aVmany-2
p664
aVHow-1
p665
aa(lp666
Vamod
p667
aVcartons-4
p668
aVmany-2
p669
aa(lp670
Vamod
p671
aVcartons-4
p672
aVmore-3
p673
aa(lp674
Vdobj
p675
aVbuy-9
p676
aVcartons-4
p677
aa(lp678
Vprep_of
p679
aVcartons-4
p680
aVberries-6
p681
aa(lp682
Vaux
p683
aVbuy-9
p684
aVshould-7
p685
aa(lp686
Vnsubj
p687
aVbuy-9
p688
aVMaria-8
p689
aasas.