(dp0
Vsentences
p1
(lp2
(dp3
Vparsetree
p4
V(ROOT (S (NP (EX There)) (VP (VBP are) (NP (NP (CD 24) (NNS bicycles)) (CC and) (NP (NP (CD 14) (NNS tricycles)) (PP (IN in) (NP (NP (DT the) (NN storage) (NN area)) (PP (IN at) (NP (NP (NNP Danny) (POS 's)) (NN apartment) (NN building)))))))) (. .)))
p5
sVtext
p6
VThere are 24 bicycles and 14 tricycles in the storage area at Danny's apartment building .
p7
sVdependencies
p8
(lp9
(lp10
Vroot
p11
aVROOT
p12
aVare
p13
aa(lp14
Vexpl
p15
aVare
p16
aVThere
p17
aa(lp18
Vnum
p19
aVbicycles
p20
aV24
p21
aa(lp22
Vnsubj
p23
aVare
p24
aVbicycles
p25
aa(lp26
Vnum
p27
aVtricycles
p28
aV14
p29
aa(lp30
Vconj_and
p31
aVbicycles
p32
aVtricycles
p33
aa(lp34
Vdet
p35
aVarea
p36
aVthe
p37
aa(lp38
Vnn
p39
aVarea
p40
aVstorage
p41
aa(lp42
Vprep_in
p43
aVtricycles
p44
aVarea
p45
aa(lp46
Vposs
p47
aVbuilding
p48
aVDanny
p49
aa(lp50
Vnn
p51
aVbuilding
p52
aVapartment
p53
aa(lp54
Vprep_at
p55
aVarea
p56
aVbuilding
p57
aasVwords
p58
(lp59
(lp60
VThere
p61
a(dp62
VNamedEntityTag
p63
VO
p64
sVCharacterOffsetEnd
p65
V6
p66
sVCharacterOffsetBegin
p67
V1
p68
sVPartOfSpeech
p69
VEX
p70
sVLemma
p71
Vthere
p72
saa(lp73
Vare
p74
a(dp75
VNamedEntityTag
p76
g64
sVCharacterOffsetEnd
p77
V10
p78
sVCharacterOffsetBegin
p79
V7
p80
sVPartOfSpeech
p81
VVBP
p82
sVLemma
p83
Vbe
p84
saa(lp85
V24
p86
a(dp87
VNormalizedNamedEntityTag
p88
V24.0
p89
sVLemma
p90
V24
p91
sVCharacterOffsetEnd
p92
V13
p93
sVPartOfSpeech
p94
VCD
p95
sVCharacterOffsetBegin
p96
V11
p97
sVNamedEntityTag
p98
VNUMBER
p99
saa(lp100
Vbicycles
p101
a(dp102
VNamedEntityTag
p103
g64
sVCharacterOffsetEnd
p104
V22
p105
sVCharacterOffsetBegin
p106
V14
p107
sVPartOfSpeech
p108
VNNS
p109
sVLemma
p110
Vbicycle
p111
saa(lp112
Vand
p113
a(dp114
VNamedEntityTag
p115
g64
sVCharacterOffsetEnd
p116
V26
p117
sVCharacterOffsetBegin
p118
V23
p119
sVPartOfSpeech
p120
VCC
p121
sVLemma
p122
Vand
p123
saa(lp124
V14
p125
a(dp126
VNormalizedNamedEntityTag
p127
V14.0
p128
sVLemma
p129
V14
p130
sVCharacterOffsetEnd
p131
V29
p132
sVPartOfSpeech
p133
VCD
p134
sVCharacterOffsetBegin
p135
V27
p136
sVNamedEntityTag
p137
VNUMBER
p138
saa(lp139
Vtricycles
p140
a(dp141
VNamedEntityTag
p142
g64
sVCharacterOffsetEnd
p143
V39
p144
sVCharacterOffsetBegin
p145
V30
p146
sVPartOfSpeech
p147
VNNS
p148
sVLemma
p149
Vtricycle
p150
saa(lp151
Vin
p152
a(dp153
VNamedEntityTag
p154
g64
sVCharacterOffsetEnd
p155
V42
p156
sVCharacterOffsetBegin
p157
V40
p158
sVPartOfSpeech
p159
VIN
p160
sVLemma
p161
Vin
p162
saa(lp163
Vthe
p164
a(dp165
VNamedEntityTag
p166
g64
sVCharacterOffsetEnd
p167
V46
p168
sVCharacterOffsetBegin
p169
V43
p170
sVPartOfSpeech
p171
VDT
p172
sVLemma
p173
Vthe
p174
saa(lp175
Vstorage
p176
a(dp177
VNamedEntityTag
p178
g64
sVCharacterOffsetEnd
p179
V54
p180
sVCharacterOffsetBegin
p181
V47
p182
sVPartOfSpeech
p183
VNN
p184
sVLemma
p185
Vstorage
p186
saa(lp187
Varea
p188
a(dp189
VNamedEntityTag
p190
g64
sVCharacterOffsetEnd
p191
V59
p192
sVCharacterOffsetBegin
p193
V55
p194
sVPartOfSpeech
p195
VNN
p196
sVLemma
p197
Varea
p198
saa(lp199
Vat
p200
a(dp201
VNamedEntityTag
p202
g64
sVCharacterOffsetEnd
p203
V62
p204
sVCharacterOffsetBegin
p205
V60
p206
sVPartOfSpeech
p207
VIN
p208
sVLemma
p209
Vat
p210
saa(lp211
VDanny
p212
a(dp213
VNamedEntityTag
p214
VPERSON
p215
sVCharacterOffsetEnd
p216
V68
p217
sVCharacterOffsetBegin
p218
V63
p219
sVPartOfSpeech
p220
VNNP
p221
sVLemma
p222
VDanny
p223
saa(lp224
V's
p225
a(dp226
VNamedEntityTag
p227
g64
sVCharacterOffsetEnd
p228
V70
p229
sVCharacterOffsetBegin
p230
V68
p231
sVPartOfSpeech
p232
VPOS
p233
sVLemma
p234
V's
p235
saa(lp236
Vapartment
p237
a(dp238
VNamedEntityTag
p239
g64
sVCharacterOffsetEnd
p240
V80
p241
sVCharacterOffsetBegin
p242
V71
p243
sVPartOfSpeech
p244
VNN
p245
sVLemma
p246
Vapartment
p247
saa(lp248
Vbuilding
p249
a(dp250
VNamedEntityTag
p251
g64
sVCharacterOffsetEnd
p252
V89
p253
sVCharacterOffsetBegin
p254
V81
p255
sVPartOfSpeech
p256
VNN
p257
sVLemma
p258
Vbuilding
p259
saa(lp260
V.
p261
a(dp262
VNamedEntityTag
p263
g64
sVCharacterOffsetEnd
p264
V91
p265
sVCharacterOffsetBegin
p266
V90
p267
sVPartOfSpeech
p268
g261
sVLemma
p269
g261
saasVindexeddependencies
p270
(lp271
(lp272
Vroot
p273
aVROOT-0
p274
aVare-2
p275
aa(lp276
Vexpl
p277
aVare-2
p278
aVThere-1
p279
aa(lp280
Vnum
p281
aVbicycles-4
p282
aV24-3
p283
aa(lp284
Vnsubj
p285
aVare-2
p286
aVbicycles-4
p287
aa(lp288
Vnum
p289
aVtricycles-7
p290
aV14-6
p291
aa(lp292
Vconj_and
p293
aVbicycles-4
p294
aVtricycles-7
p295
aa(lp296
Vdet
p297
aVarea-11
p298
aVthe-9
p299
aa(lp300
Vnn
p301
aVarea-11
p302
aVstorage-10
p303
aa(lp304
Vprep_in
p305
aVtricycles-7
p306
aVarea-11
p307
aa(lp308
Vposs
p309
aVbuilding-16
p310
aVDanny-13
p311
aa(lp312
Vnn
p313
aVbuilding-16
p314
aVapartment-15
p315
aa(lp316
Vprep_at
p317
aVarea-11
p318
aVbuilding-16
p319
aasa(dp320
Vparsetree
p321
V(ROOT (S (S (NP (DT Each) (NN bicycle)) (VP (VBZ has) (NP (CD 2) (NNS wheels)))) (CC and) (S (NP (DT each) (NN tricycle)) (VP (VBZ has) (NP (CD 3) (NNS wheels)))) (. .)))
p322
sVtext
p323
VEach bicycle has 2 wheels and each tricycle has 3 wheels .
p324
sVdependencies
p325
(lp326
(lp327
Vroot
p328
aVROOT
p329
aVhas
p330
aa(lp331
Vdet
p332
aVbicycle
p333
aVEach
p334
aa(lp335
Vnsubj
p336
aVhas
p337
aVbicycle
p338
aa(lp339
Vnum
p340
aVwheels
p341
aV2
p342
aa(lp343
Vdobj
p344
aVhas
p345
aVwheels
p346
aa(lp347
Vdet
p348
aVtricycle
p349
aVeach
p350
aa(lp351
Vnsubj
p352
aVhas
p353
aVtricycle
p354
aa(lp355
Vconj_and
p356
aVhas
p357
aVhas
p358
aa(lp359
Vnum
p360
aVwheels
p361
aV3
p362
aa(lp363
Vdobj
p364
aVhas
p365
aVwheels
p366
aasVwords
p367
(lp368
(lp369
VEach
p370
a(dp371
VNamedEntityTag
p372
g64
sVCharacterOffsetEnd
p373
V96
p374
sVCharacterOffsetBegin
p375
V92
p376
sVPartOfSpeech
p377
VDT
p378
sVLemma
p379
Veach
p380
saa(lp381
Vbicycle
p382
a(dp383
VNamedEntityTag
p384
g64
sVCharacterOffsetEnd
p385
V104
p386
sVCharacterOffsetBegin
p387
V97
p388
sVPartOfSpeech
p389
VNN
p390
sVLemma
p391
Vbicycle
p392
saa(lp393
Vhas
p394
a(dp395
VNamedEntityTag
p396
g64
sVCharacterOffsetEnd
p397
V108
p398
sVCharacterOffsetBegin
p399
V105
p400
sVPartOfSpeech
p401
VVBZ
p402
sVLemma
p403
Vhave
p404
saa(lp405
g342
a(dp406
VNormalizedNamedEntityTag
p407
V2.0
p408
sVLemma
p409
g342
sVCharacterOffsetEnd
p410
V110
p411
sVPartOfSpeech
p412
VCD
p413
sVCharacterOffsetBegin
p414
V109
p415
sVNamedEntityTag
p416
VNUMBER
p417
saa(lp418
Vwheels
p419
a(dp420
VNamedEntityTag
p421
g64
sVCharacterOffsetEnd
p422
V117
p423
sVCharacterOffsetBegin
p424
V111
p425
sVPartOfSpeech
p426
VNNS
p427
sVLemma
p428
Vwheel
p429
saa(lp430
Vand
p431
a(dp432
VNamedEntityTag
p433
g64
sVCharacterOffsetEnd
p434
V121
p435
sVCharacterOffsetBegin
p436
V118
p437
sVPartOfSpeech
p438
VCC
p439
sVLemma
p440
Vand
p441
saa(lp442
Veach
p443
a(dp444
VNamedEntityTag
p445
g64
sVCharacterOffsetEnd
p446
V126
p447
sVCharacterOffsetBegin
p448
V122
p449
sVPartOfSpeech
p450
VDT
p451
sVLemma
p452
Veach
p453
saa(lp454
Vtricycle
p455
a(dp456
VNamedEntityTag
p457
g64
sVCharacterOffsetEnd
p458
V135
p459
sVCharacterOffsetBegin
p460
V127
p461
sVPartOfSpeech
p462
VNN
p463
sVLemma
p464
Vtricycle
p465
saa(lp466
Vhas
p467
a(dp468
VNamedEntityTag
p469
g64
sVCharacterOffsetEnd
p470
V139
p471
sVCharacterOffsetBegin
p472
V136
p473
sVPartOfSpeech
p474
VVBZ
p475
sVLemma
p476
Vhave
p477
saa(lp478
g362
a(dp479
VNormalizedNamedEntityTag
p480
V3.0
p481
sVLemma
p482
g362
sVCharacterOffsetEnd
p483
V141
p484
sVPartOfSpeech
p485
VCD
p486
sVCharacterOffsetBegin
p487
V140
p488
sVNamedEntityTag
p489
VNUMBER
p490
saa(lp491
Vwheels
p492
a(dp493
VNamedEntityTag
p494
g64
sVCharacterOffsetEnd
p495
V148
p496
sVCharacterOffsetBegin
p497
V142
p498
sVPartOfSpeech
p499
VNNS
p500
sVLemma
p501
Vwheel
p502
saa(lp503
g261
a(dp504
VNamedEntityTag
p505
g64
sVCharacterOffsetEnd
p506
V150
p507
sVCharacterOffsetBegin
p508
V149
p509
sVPartOfSpeech
p510
g261
sVLemma
p511
g261
saasVindexeddependencies
p512
(lp513
(lp514
Vroot
p515
aVROOT-0
p516
aVhas-3
p517
aa(lp518
Vdet
p519
aVbicycle-2
p520
aVEach-1
p521
aa(lp522
Vnsubj
p523
aVhas-3
p524
aVbicycle-2
p525
aa(lp526
Vnum
p527
aVwheels-5
p528
aV2-4
p529
aa(lp530
Vdobj
p531
aVhas-3
p532
aVwheels-5
p533
aa(lp534
Vdet
p535
aVtricycle-8
p536
aVeach-7
p537
aa(lp538
Vnsubj
p539
aVhas-9
p540
aVtricycle-8
p541
aa(lp542
Vconj_and
p543
aVhas-3
p544
aVhas-9
p545
aa(lp546
Vnum
p547
aVwheels-11
p548
aV3-10
p549
aa(lp550
Vdobj
p551
aVhas-9
p552
aVwheels-11
p553
aasa(dp554
Vparsetree
p555
V(ROOT (SBARQ (WHNP (WHADJP (WRB How) (JJ many)) (NNS wheels)) (SQ (VBP are) (NP (EX there)) (PP (IN in) (NP (DT all)))) (. ?)))
p556
sVtext
p557
VHow many wheels are there in all ?
p558
sVdependencies
p559
(lp560
(lp561
Vroot
p562
aVROOT
p563
aVare
p564
aa(lp565
Vadvmod
p566
aVmany
p567
aVHow
p568
aa(lp569
Vamod
p570
aVwheels
p571
aVmany
p572
aa(lp573
Vnsubj
p574
aVare
p575
aVwheels
p576
aa(lp577
Vexpl
p578
aVare
p579
aVthere
p580
aa(lp581
Vprep_in
p582
aVare
p583
aVall
p584
aasVwords
p585
(lp586
(lp587
VHow
p588
a(dp589
VNamedEntityTag
p590
g64
sVCharacterOffsetEnd
p591
V154
p592
sVCharacterOffsetBegin
p593
V151
p594
sVPartOfSpeech
p595
VWRB
p596
sVLemma
p597
Vhow
p598
saa(lp599
Vmany
p600
a(dp601
VNamedEntityTag
p602
g64
sVCharacterOffsetEnd
p603
V159
p604
sVCharacterOffsetBegin
p605
V155
p606
sVPartOfSpeech
p607
VJJ
p608
sVLemma
p609
Vmany
p610
saa(lp611
Vwheels
p612
a(dp613
VNamedEntityTag
p614
g64
sVCharacterOffsetEnd
p615
V166
p616
sVCharacterOffsetBegin
p617
V160
p618
sVPartOfSpeech
p619
VNNS
p620
sVLemma
p621
Vwheel
p622
saa(lp623
Vare
p624
a(dp625
VNamedEntityTag
p626
g64
sVCharacterOffsetEnd
p627
V170
p628
sVCharacterOffsetBegin
p629
V167
p630
sVPartOfSpeech
p631
VVBP
p632
sVLemma
p633
Vbe
p634
saa(lp635
Vthere
p636
a(dp637
VNamedEntityTag
p638
g64
sVCharacterOffsetEnd
p639
V176
p640
sVCharacterOffsetBegin
p641
V171
p642
sVPartOfSpeech
p643
VEX
p644
sVLemma
p645
Vthere
p646
saa(lp647
Vin
p648
a(dp649
VNamedEntityTag
p650
g64
sVCharacterOffsetEnd
p651
V179
p652
sVCharacterOffsetBegin
p653
V177
p654
sVPartOfSpeech
p655
VIN
p656
sVLemma
p657
Vin
p658
saa(lp659
Vall
p660
a(dp661
VNamedEntityTag
p662
g64
sVCharacterOffsetEnd
p663
V183
p664
sVCharacterOffsetBegin
p665
V180
p666
sVPartOfSpeech
p667
VDT
p668
sVLemma
p669
Vall
p670
saa(lp671
V?
p672
a(dp673
VNamedEntityTag
p674
g64
sVCharacterOffsetEnd
p675
V185
p676
sVCharacterOffsetBegin
p677
V184
p678
sVPartOfSpeech
p679
g261
sVLemma
p680
g672
saasVindexeddependencies
p681
(lp682
(lp683
Vroot
p684
aVROOT-0
p685
aVare-4
p686
aa(lp687
Vadvmod
p688
aVmany-2
p689
aVHow-1
p690
aa(lp691
Vamod
p692
aVwheels-3
p693
aVmany-2
p694
aa(lp695
Vnsubj
p696
aVare-4
p697
aVwheels-3
p698
aa(lp699
Vexpl
p700
aVare-4
p701
aVthere-5
p702
aa(lp703
Vprep_in
p704
aVare-4
p705
aVall-7
p706
aasas.