(dp0
Vcoref
p1
(lp2
(lp3
(lp4
(lp5
VPaula
p6
aI2
aI4
aI4
aI5
aa(lp7
VPaula 's
p8
aI0
aI0
aI0
aI2
aaaa(lp9
(lp10
(lp11
Vher
p12
aI0
aI4
aI4
aI5
aa(lp13
VPaula 's aunt
p14
aI0
aI2
aI0
aI3
aaa(lp15
(lp16
VShe
p17
aI1
aI0
aI0
aI1
aa(lp18
VPaula 's aunt
p19
aI0
aI2
aI0
aI3
aaaasVsentences
p20
(lp21
(dp22
Vparsetree
p23
V(ROOT (S (NP (NP (NNP Paula) (POS 's)) (NN aunt)) (VP (VBD gave) (NP (PRP$ her)) (NP ($ $) (CD 109)) (S (VP (TO to) (VP (VB spend) (PP (IN on) (NP (NP (NNS clothes)) (PP (IN at) (NP (DT the) (NN mall))))))))) (. .)))
p24
sVtext
p25
VPaula's aunt gave her $109 to spend on clothes at the mall .
p26
sVdependencies
p27
(lp28
(lp29
Vroot
p30
aVROOT
p31
aVgave
p32
aa(lp33
Vposs
p34
aVaunt
p35
aVPaula
p36
aa(lp37
Vnsubj
p38
aVgave
p39
aVaunt
p40
aa(lp41
Vdep
p42
aVgave
p43
aVher
p44
aa(lp45
Vdobj
p46
aVgave
p47
aV$
p48
aa(lp49
Vnum
p50
ag48
aV109
p51
aa(lp52
Vaux
p53
aVspend
p54
aVto
p55
aa(lp56
Vvmod
p57
aVgave
p58
aVspend
p59
aa(lp60
Vprep_on
p61
aVspend
p62
aVclothes
p63
aa(lp64
Vdet
p65
aVmall
p66
aVthe
p67
aa(lp68
Vprep_at
p69
aVclothes
p70
aVmall
p71
aasVwords
p72
(lp73
(lp74
VPaula
p75
a(dp76
VNamedEntityTag
p77
VPERSON
p78
sVCharacterOffsetEnd
p79
V6
p80
sVCharacterOffsetBegin
p81
V1
p82
sVPartOfSpeech
p83
VNNP
p84
sVLemma
p85
VPaula
p86
saa(lp87
V's
p88
a(dp89
VNamedEntityTag
p90
VO
p91
sVCharacterOffsetEnd
p92
V8
p93
sVCharacterOffsetBegin
p94
g80
sVPartOfSpeech
p95
VPOS
p96
sVLemma
p97
V's
p98
saa(lp99
Vaunt
p100
a(dp101
VNamedEntityTag
p102
g91
sVCharacterOffsetEnd
p103
V13
p104
sVCharacterOffsetBegin
p105
V9
p106
sVPartOfSpeech
p107
VNN
p108
sVLemma
p109
Vaunt
p110
saa(lp111
Vgave
p112
a(dp113
VNamedEntityTag
p114
g91
sVCharacterOffsetEnd
p115
V18
p116
sVCharacterOffsetBegin
p117
V14
p118
sVPartOfSpeech
p119
VVBD
p120
sVLemma
p121
Vgive
p122
saa(lp123
Vher
p124
a(dp125
VNamedEntityTag
p126
g91
sVCharacterOffsetEnd
p127
V22
p128
sVCharacterOffsetBegin
p129
V19
p130
sVPartOfSpeech
p131
VPRP$
p132
sVLemma
p133
Vshe
p134
saa(lp135
g48
a(dp136
VNormalizedNamedEntityTag
p137
V$109.0
p138
sVLemma
p139
g48
sVCharacterOffsetEnd
p140
V24
p141
sVPartOfSpeech
p142
g48
sVCharacterOffsetBegin
p143
V23
p144
sVNamedEntityTag
p145
VMONEY
p146
saa(lp147
V109
p148
a(dp149
VNormalizedNamedEntityTag
p150
V$109.0
p151
sVLemma
p152
V109
p153
sVCharacterOffsetEnd
p154
V27
p155
sVPartOfSpeech
p156
VCD
p157
sVCharacterOffsetBegin
p158
V24
p159
sVNamedEntityTag
p160
VMONEY
p161
saa(lp162
Vto
p163
a(dp164
VNamedEntityTag
p165
g91
sVCharacterOffsetEnd
p166
V30
p167
sVCharacterOffsetBegin
p168
V28
p169
sVPartOfSpeech
p170
VTO
p171
sVLemma
p172
Vto
p173
saa(lp174
Vspend
p175
a(dp176
VNamedEntityTag
p177
g91
sVCharacterOffsetEnd
p178
V36
p179
sVCharacterOffsetBegin
p180
V31
p181
sVPartOfSpeech
p182
VVB
p183
sVLemma
p184
Vspend
p185
saa(lp186
Von
p187
a(dp188
VNamedEntityTag
p189
g91
sVCharacterOffsetEnd
p190
V39
p191
sVCharacterOffsetBegin
p192
V37
p193
sVPartOfSpeech
p194
VIN
p195
sVLemma
p196
Von
p197
saa(lp198
Vclothes
p199
a(dp200
VNamedEntityTag
p201
g91
sVCharacterOffsetEnd
p202
V47
p203
sVCharacterOffsetBegin
p204
V40
p205
sVPartOfSpeech
p206
VNNS
p207
sVLemma
p208
Vclothes
p209
saa(lp210
Vat
p211
a(dp212
VNamedEntityTag
p213
g91
sVCharacterOffsetEnd
p214
V50
p215
sVCharacterOffsetBegin
p216
V48
p217
sVPartOfSpeech
p218
VIN
p219
sVLemma
p220
Vat
p221
saa(lp222
Vthe
p223
a(dp224
VNamedEntityTag
p225
g91
sVCharacterOffsetEnd
p226
V54
p227
sVCharacterOffsetBegin
p228
V51
p229
sVPartOfSpeech
p230
VDT
p231
sVLemma
p232
Vthe
p233
saa(lp234
Vmall
p235
a(dp236
VNamedEntityTag
p237
g91
sVCharacterOffsetEnd
p238
V59
p239
sVCharacterOffsetBegin
p240
V55
p241
sVPartOfSpeech
p242
VNN
p243
sVLemma
p244
Vmall
p245
saa(lp246
V.
p247
a(dp248
VNamedEntityTag
p249
g91
sVCharacterOffsetEnd
p250
V61
p251
sVCharacterOffsetBegin
p252
V60
p253
sVPartOfSpeech
p254
g247
sVLemma
p255
g247
saasVindexeddependencies
p256
(lp257
(lp258
Vroot
p259
aVROOT-0
p260
aVgave-4
p261
aa(lp262
Vposs
p263
aVaunt-3
p264
aVPaula-1
p265
aa(lp266
Vnsubj
p267
aVgave-4
p268
aVaunt-3
p269
aa(lp270
Vdep
p271
aVgave-4
p272
aVher-5
p273
aa(lp274
Vdobj
p275
aVgave-4
p276
aV$-6
p277
aa(lp278
Vnum
p279
aV$-6
p280
aV109-7
p281
aa(lp282
Vaux
p283
aVspend-9
p284
aVto-8
p285
aa(lp286
Vvmod
p287
aVgave-4
p288
aVspend-9
p289
aa(lp290
Vprep_on
p291
aVspend-9
p292
aVclothes-11
p293
aa(lp294
Vdet
p295
aVmall-14
p296
aVthe-13
p297
aa(lp298
Vprep_at
p299
aVclothes-11
p300
aVmall-14
p301
aasa(dp302
Vparsetree
p303
V(ROOT (S (NP (PRP She)) (VP (VBD bought) (NP (NP (CD 2) (NNS shirts)) (SBAR (WHNP (WDT that)) (S (VP (VBD cost) (NP (NP (NP ($ $) (CD 11)) (NP (DT each))) (CC and) (NP (NP (DT a) (NN pair)) (PP (IN of) (NP (NP (NNS pants)) (SBAR (WHNP (WDT that)) (S (VP (VBD cost) (NP ($ $) (CD 13)))))))))))))) (. .)))
p304
sVtext
p305
VShe bought 2 shirts that cost $11 each and a pair of pants that cost $13 .
p306
sVdependencies
p307
(lp308
(lp309
Vroot
p310
aVROOT
p311
aVbought
p312
aa(lp313
Vnsubj
p314
aVbought
p315
aVShe
p316
aa(lp317
Vnum
p318
aVshirts
p319
aV2
p320
aa(lp321
Vdobj
p322
aVbought
p323
aVshirts
p324
aa(lp325
Vnsubj
p326
aVcost
p327
aVthat
p328
aa(lp329
Vrcmod
p330
aVshirts
p331
aVcost
p332
aa(lp333
Vdobj
p334
aVcost
p335
ag48
aa(lp336
Vnum
p337
ag48
aV11
p338
aa(lp339
Vdep
p340
ag48
aVeach
p341
aa(lp342
Vdet
p343
aVpair
p344
aVa
p345
aa(lp346
Vconj_and
p347
ag48
aVpair
p348
aa(lp349
Vprep_of
p350
aVpair
p351
aVpants
p352
aa(lp353
Vnsubj
p354
aVcost
p355
aVthat
p356
aa(lp357
Vrcmod
p358
aVpants
p359
aVcost
p360
aa(lp361
Vdobj
p362
aVcost
p363
ag48
aa(lp364
Vnum
p365
ag48
aV13
p366
aasVwords
p367
(lp368
(lp369
VShe
p370
a(dp371
VNamedEntityTag
p372
g91
sVCharacterOffsetEnd
p373
V65
p374
sVCharacterOffsetBegin
p375
V62
p376
sVPartOfSpeech
p377
VPRP
p378
sVLemma
p379
Vshe
p380
saa(lp381
Vbought
p382
a(dp383
VNamedEntityTag
p384
g91
sVCharacterOffsetEnd
p385
V72
p386
sVCharacterOffsetBegin
p387
V66
p388
sVPartOfSpeech
p389
VVBD
p390
sVLemma
p391
Vbuy
p392
saa(lp393
g320
a(dp394
VNormalizedNamedEntityTag
p395
V2.0
p396
sVLemma
p397
g320
sVCharacterOffsetEnd
p398
V74
p399
sVPartOfSpeech
p400
VCD
p401
sVCharacterOffsetBegin
p402
V73
p403
sVNamedEntityTag
p404
VNUMBER
p405
saa(lp406
Vshirts
p407
a(dp408
VNamedEntityTag
p409
g91
sVCharacterOffsetEnd
p410
V81
p411
sVCharacterOffsetBegin
p412
V75
p413
sVPartOfSpeech
p414
VNNS
p415
sVLemma
p416
Vshirt
p417
saa(lp418
Vthat
p419
a(dp420
VNamedEntityTag
p421
g91
sVCharacterOffsetEnd
p422
V86
p423
sVCharacterOffsetBegin
p424
V82
p425
sVPartOfSpeech
p426
VWDT
p427
sVLemma
p428
Vthat
p429
saa(lp430
Vcost
p431
a(dp432
VNamedEntityTag
p433
g91
sVCharacterOffsetEnd
p434
V91
p435
sVCharacterOffsetBegin
p436
V87
p437
sVPartOfSpeech
p438
VVBD
p439
sVLemma
p440
Vcost
p441
saa(lp442
g48
a(dp443
VNormalizedNamedEntityTag
p444
V$11.0
p445
sVLemma
p446
g48
sVCharacterOffsetEnd
p447
V93
p448
sVPartOfSpeech
p449
g48
sVCharacterOffsetBegin
p450
V92
p451
sVNamedEntityTag
p452
VMONEY
p453
saa(lp454
V11
p455
a(dp456
VNormalizedNamedEntityTag
p457
V$11.0
p458
sVLemma
p459
V11
p460
sVCharacterOffsetEnd
p461
V95
p462
sVPartOfSpeech
p463
VCD
p464
sVCharacterOffsetBegin
p465
V93
p466
sVNamedEntityTag
p467
VMONEY
p468
saa(lp469
Veach
p470
a(dp471
VNamedEntityTag
p472
g91
sVCharacterOffsetEnd
p473
V100
p474
sVCharacterOffsetBegin
p475
V96
p476
sVPartOfSpeech
p477
VDT
p478
sVLemma
p479
Veach
p480
saa(lp481
Vand
p482
a(dp483
VNamedEntityTag
p484
g91
sVCharacterOffsetEnd
p485
V104
p486
sVCharacterOffsetBegin
p487
V101
p488
sVPartOfSpeech
p489
VCC
p490
sVLemma
p491
Vand
p492
saa(lp493
g345
a(dp494
VNamedEntityTag
p495
g91
sVCharacterOffsetEnd
p496
V106
p497
sVCharacterOffsetBegin
p498
V105
p499
sVPartOfSpeech
p500
VDT
p501
sVLemma
p502
g345
saa(lp503
Vpair
p504
a(dp505
VNamedEntityTag
p506
g91
sVCharacterOffsetEnd
p507
V111
p508
sVCharacterOffsetBegin
p509
V107
p510
sVPartOfSpeech
p511
VNN
p512
sVLemma
p513
Vpair
p514
saa(lp515
Vof
p516
a(dp517
VNamedEntityTag
p518
g91
sVCharacterOffsetEnd
p519
V114
p520
sVCharacterOffsetBegin
p521
V112
p522
sVPartOfSpeech
p523
VIN
p524
sVLemma
p525
Vof
p526
saa(lp527
Vpants
p528
a(dp529
VNamedEntityTag
p530
g91
sVCharacterOffsetEnd
p531
V120
p532
sVCharacterOffsetBegin
p533
V115
p534
sVPartOfSpeech
p535
VNNS
p536
sVLemma
p537
Vpants
p538
saa(lp539
Vthat
p540
a(dp541
VNamedEntityTag
p542
g91
sVCharacterOffsetEnd
p543
V125
p544
sVCharacterOffsetBegin
p545
V121
p546
sVPartOfSpeech
p547
VWDT
p548
sVLemma
p549
Vthat
p550
saa(lp551
Vcost
p552
a(dp553
VNamedEntityTag
p554
g91
sVCharacterOffsetEnd
p555
V130
p556
sVCharacterOffsetBegin
p557
V126
p558
sVPartOfSpeech
p559
VVBD
p560
sVLemma
p561
Vcost
p562
saa(lp563
g48
a(dp564
VNormalizedNamedEntityTag
p565
V$13.0
p566
sVLemma
p567
g48
sVCharacterOffsetEnd
p568
V132
p569
sVPartOfSpeech
p570
g48
sVCharacterOffsetBegin
p571
V131
p572
sVNamedEntityTag
p573
VMONEY
p574
saa(lp575
V13
p576
a(dp577
VNormalizedNamedEntityTag
p578
V$13.0
p579
sVLemma
p580
V13
p581
sVCharacterOffsetEnd
p582
V134
p583
sVPartOfSpeech
p584
VCD
p585
sVCharacterOffsetBegin
p586
V132
p587
sVNamedEntityTag
p588
VMONEY
p589
saa(lp590
g247
a(dp591
VNamedEntityTag
p592
g91
sVCharacterOffsetEnd
p593
V136
p594
sVCharacterOffsetBegin
p595
V135
p596
sVPartOfSpeech
p597
g247
sVLemma
p598
g247
saasVindexeddependencies
p599
(lp600
(lp601
Vroot
p602
aVROOT-0
p603
aVbought-2
p604
aa(lp605
Vnsubj
p606
aVbought-2
p607
aVShe-1
p608
aa(lp609
Vnum
p610
aVshirts-4
p611
aV2-3
p612
aa(lp613
Vdobj
p614
aVbought-2
p615
aVshirts-4
p616
aa(lp617
Vnsubj
p618
aVcost-6
p619
aVthat-5
p620
aa(lp621
Vrcmod
p622
aVshirts-4
p623
aVcost-6
p624
aa(lp625
Vdobj
p626
aVcost-6
p627
aV$-7
p628
aa(lp629
Vnum
p630
aV$-7
p631
aV11-8
p632
aa(lp633
Vdep
p634
aV$-7
p635
aVeach-9
p636
aa(lp637
Vdet
p638
aVpair-12
p639
aVa-11
p640
aa(lp641
Vconj_and
p642
aV$-7
p643
aVpair-12
p644
aa(lp645
Vprep_of
p646
aVpair-12
p647
aVpants-14
p648
aa(lp649
Vnsubj
p650
aVcost-16
p651
aVthat-15
p652
aa(lp653
Vrcmod
p654
aVpants-14
p655
aVcost-16
p656
aa(lp657
Vdobj
p658
aVcost-16
p659
aV$-17
p660
aa(lp661
Vnum
p662
aV$-17
p663
aV13-18
p664
aasa(dp665
Vparsetree
p666
V(ROOT (SBARQ (WHNP (WHADJP (WRB How) (JJ much)) (NN money)) (SQ (VBZ does) (NP (NNP Paula)) (VP (VB have) (VP (VBN left) (S (VP (TO to) (VP (VB buy) (NP (JJR more) (NNS clothes)))))))) (. ?)))
p667
sVtext
p668
VHow much money does Paula have left to buy more clothes ?
p669
sVdependencies
p670
(lp671
(lp672
Vroot
p673
aVROOT
p674
aVleft
p675
aa(lp676
Vadvmod
p677
aVmuch
p678
aVHow
p679
aa(lp680
Vamod
p681
aVmoney
p682
aVmuch
p683
aa(lp684
Vdobj
p685
aVleft
p686
aVmoney
p687
aa(lp688
Vaux
p689
aVleft
p690
aVdoes
p691
aa(lp692
Vnsubj
p693
aVleft
p694
aVPaula
p695
aa(lp696
Vaux
p697
aVleft
p698
aVhave
p699
aa(lp700
Vaux
p701
aVbuy
p702
aVto
p703
aa(lp704
Vxcomp
p705
aVleft
p706
aVbuy
p707
aa(lp708
Vamod
p709
aVclothes
p710
aVmore
p711
aa(lp712
Vdobj
p713
aVbuy
p714
aVclothes
p715
aasVwords
p716
(lp717
(lp718
VHow
p719
a(dp720
VNamedEntityTag
p721
g91
sVCharacterOffsetEnd
p722
V140
p723
sVCharacterOffsetBegin
p724
V137
p725
sVPartOfSpeech
p726
VWRB
p727
sVLemma
p728
Vhow
p729
saa(lp730
Vmuch
p731
a(dp732
VNamedEntityTag
p733
g91
sVCharacterOffsetEnd
p734
V145
p735
sVCharacterOffsetBegin
p736
V141
p737
sVPartOfSpeech
p738
VJJ
p739
sVLemma
p740
Vmuch
p741
saa(lp742
Vmoney
p743
a(dp744
VNamedEntityTag
p745
g91
sVCharacterOffsetEnd
p746
V151
p747
sVCharacterOffsetBegin
p748
V146
p749
sVPartOfSpeech
p750
VNN
p751
sVLemma
p752
Vmoney
p753
saa(lp754
Vdoes
p755
a(dp756
VNamedEntityTag
p757
g91
sVCharacterOffsetEnd
p758
V156
p759
sVCharacterOffsetBegin
p760
V152
p761
sVPartOfSpeech
p762
VVBZ
p763
sVLemma
p764
Vdo
p765
saa(lp766
VPaula
p767
a(dp768
VNamedEntityTag
p769
VPERSON
p770
sVCharacterOffsetEnd
p771
V162
p772
sVCharacterOffsetBegin
p773
V157
p774
sVPartOfSpeech
p775
VNNP
p776
sVLemma
p777
VPaula
p778
saa(lp779
Vhave
p780
a(dp781
VNamedEntityTag
p782
g91
sVCharacterOffsetEnd
p783
V167
p784
sVCharacterOffsetBegin
p785
V163
p786
sVPartOfSpeech
p787
VVB
p788
sVLemma
p789
Vhave
p790
saa(lp791
Vleft
p792
a(dp793
VNamedEntityTag
p794
g91
sVCharacterOffsetEnd
p795
V172
p796
sVCharacterOffsetBegin
p797
V168
p798
sVPartOfSpeech
p799
VVBN
p800
sVLemma
p801
Vleave
p802
saa(lp803
Vto
p804
a(dp805
VNamedEntityTag
p806
g91
sVCharacterOffsetEnd
p807
V175
p808
sVCharacterOffsetBegin
p809
V173
p810
sVPartOfSpeech
p811
VTO
p812
sVLemma
p813
Vto
p814
saa(lp815
Vbuy
p816
a(dp817
VNamedEntityTag
p818
g91
sVCharacterOffsetEnd
p819
V179
p820
sVCharacterOffsetBegin
p821
V176
p822
sVPartOfSpeech
p823
VVB
p824
sVLemma
p825
Vbuy
p826
saa(lp827
Vmore
p828
a(dp829
VNamedEntityTag
p830
g91
sVCharacterOffsetEnd
p831
V184
p832
sVCharacterOffsetBegin
p833
V180
p834
sVPartOfSpeech
p835
VJJR
p836
sVLemma
p837
Vmore
p838
saa(lp839
Vclothes
p840
a(dp841
VNamedEntityTag
p842
g91
sVCharacterOffsetEnd
p843
V192
p844
sVCharacterOffsetBegin
p845
V185
p846
sVPartOfSpeech
p847
VNNS
p848
sVLemma
p849
Vclothes
p850
saa(lp851
V?
p852
a(dp853
VNamedEntityTag
p854
g91
sVCharacterOffsetEnd
p855
V194
p856
sVCharacterOffsetBegin
p857
V193
p858
sVPartOfSpeech
p859
g247
sVLemma
p860
g852
saasVindexeddependencies
p861
(lp862
(lp863
Vroot
p864
aVROOT-0
p865
aVleft-7
p866
aa(lp867
Vadvmod
p868
aVmuch-2
p869
aVHow-1
p870
aa(lp871
Vamod
p872
aVmoney-3
p873
aVmuch-2
p874
aa(lp875
Vdobj
p876
aVleft-7
p877
aVmoney-3
p878
aa(lp879
Vaux
p880
aVleft-7
p881
aVdoes-4
p882
aa(lp883
Vnsubj
p884
aVleft-7
p885
aVPaula-5
p886
aa(lp887
Vaux
p888
aVleft-7
p889
aVhave-6
p890
aa(lp891
Vaux
p892
aVbuy-9
p893
aVto-8
p894
aa(lp895
Vxcomp
p896
aVleft-7
p897
aVbuy-9
p898
aa(lp899
Vamod
p900
aVclothes-11
p901
aVmore-10
p902
aa(lp903
Vdobj
p904
aVbuy-9
p905
aVclothes-11
p906
aasas.