(dp0
Vcoref
p1
(lp2
(lp3
(lp4
(lp5
VSally
p6
aI1
aI0
aI0
aI1
aa(lp7
VSally
p8
aI0
aI0
aI0
aI1
aaa(lp9
(lp10
VSally
p11
aI2
aI18
aI18
aI19
aa(lp12
VSally
p13
aI0
aI0
aI0
aI1
aaaa(lp14
(lp15
(lp16
Va new truck
p17
aI2
aI16
aI14
aI17
aa(lp18
VA new truck
p19
aI2
aI2
aI0
aI3
aaaasVsentences
p20
(lp21
(dp22
Vparsetree
p23
V(ROOT (S (NP (NNP Sally)) (VP (VBD decided) (S (VP (TO to) (VP (VB look) (PP (IN at) (NP (JJ new) (CC and) (JJ used) (NNS trucks))))))) (. .)))
p24
sVtext
p25
VSally decided to look at new and used trucks .
p26
sVdependencies
p27
(lp28
(lp29
Vroot
p30
aVROOT
p31
aVdecided
p32
aa(lp33
Vnsubj
p34
aVdecided
p35
aVSally
p36
aa(lp37
Vaux
p38
aVlook
p39
aVto
p40
aa(lp41
Vxcomp
p42
aVdecided
p43
aVlook
p44
aa(lp45
Vamod
p46
aVtrucks
p47
aVnew
p48
aa(lp49
Vconj_and
p50
aVnew
p51
aVused
p52
aa(lp53
Vprep_at
p54
aVlook
p55
aVtrucks
p56
aasVwords
p57
(lp58
(lp59
VSally
p60
a(dp61
VNamedEntityTag
p62
VPERSON
p63
sVCharacterOffsetEnd
p64
V6
p65
sVCharacterOffsetBegin
p66
V1
p67
sVPartOfSpeech
p68
VNNP
p69
sVLemma
p70
VSally
p71
saa(lp72
Vdecided
p73
a(dp74
VNamedEntityTag
p75
VO
p76
sVCharacterOffsetEnd
p77
V14
p78
sVCharacterOffsetBegin
p79
V7
p80
sVPartOfSpeech
p81
VVBD
p82
sVLemma
p83
Vdecide
p84
saa(lp85
Vto
p86
a(dp87
VNamedEntityTag
p88
g76
sVCharacterOffsetEnd
p89
V17
p90
sVCharacterOffsetBegin
p91
V15
p92
sVPartOfSpeech
p93
VTO
p94
sVLemma
p95
Vto
p96
saa(lp97
Vlook
p98
a(dp99
VNamedEntityTag
p100
g76
sVCharacterOffsetEnd
p101
V22
p102
sVCharacterOffsetBegin
p103
V18
p104
sVPartOfSpeech
p105
VVB
p106
sVLemma
p107
Vlook
p108
saa(lp109
Vat
p110
a(dp111
VNamedEntityTag
p112
g76
sVCharacterOffsetEnd
p113
V25
p114
sVCharacterOffsetBegin
p115
V23
p116
sVPartOfSpeech
p117
VIN
p118
sVLemma
p119
Vat
p120
saa(lp121
Vnew
p122
a(dp123
VNamedEntityTag
p124
g76
sVCharacterOffsetEnd
p125
V29
p126
sVCharacterOffsetBegin
p127
V26
p128
sVPartOfSpeech
p129
VJJ
p130
sVLemma
p131
Vnew
p132
saa(lp133
Vand
p134
a(dp135
VNamedEntityTag
p136
g76
sVCharacterOffsetEnd
p137
V33
p138
sVCharacterOffsetBegin
p139
V30
p140
sVPartOfSpeech
p141
VCC
p142
sVLemma
p143
Vand
p144
saa(lp145
Vused
p146
a(dp147
VNamedEntityTag
p148
g76
sVCharacterOffsetEnd
p149
V38
p150
sVCharacterOffsetBegin
p151
V34
p152
sVPartOfSpeech
p153
VJJ
p154
sVLemma
p155
Vused
p156
saa(lp157
Vtrucks
p158
a(dp159
VNamedEntityTag
p160
g76
sVCharacterOffsetEnd
p161
V45
p162
sVCharacterOffsetBegin
p163
V39
p164
sVPartOfSpeech
p165
VNNS
p166
sVLemma
p167
Vtruck
p168
saa(lp169
V.
p170
a(dp171
VNamedEntityTag
p172
g76
sVCharacterOffsetEnd
p173
V47
p174
sVCharacterOffsetBegin
p175
V46
p176
sVPartOfSpeech
p177
g170
sVLemma
p178
g170
saasVindexeddependencies
p179
(lp180
(lp181
Vroot
p182
aVROOT-0
p183
aVdecided-2
p184
aa(lp185
Vnsubj
p186
aVdecided-2
p187
aVSally-1
p188
aa(lp189
Vaux
p190
aVlook-4
p191
aVto-3
p192
aa(lp193
Vxcomp
p194
aVdecided-2
p195
aVlook-4
p196
aa(lp197
Vamod
p198
aVtrucks-9
p199
aVnew-6
p200
aa(lp201
Vconj_and
p202
aVnew-6
p203
aVused-8
p204
aa(lp205
Vprep_at
p206
aVlook-4
p207
aVtrucks-9
p208
aasa(dp209
Vparsetree
p210
V(ROOT (S (NP (NNP Sally)) (VP (VBD found) (NP (NP (DT a) (VBN used) (NN truck)) (PP (IN for) (NP ($ $) (CD 12000))))) (. .)))
p211
sVtext
p212
VSally found a used truck for $12000 .
p213
sVdependencies
p214
(lp215
(lp216
Vroot
p217
aVROOT
p218
aVfound
p219
aa(lp220
Vnsubj
p221
aVfound
p222
aVSally
p223
aa(lp224
Vdet
p225
aVtruck
p226
aVa
p227
aa(lp228
Vamod
p229
aVtruck
p230
aVused
p231
aa(lp232
Vdobj
p233
aVfound
p234
aVtruck
p235
aa(lp236
Vprep_for
p237
aVtruck
p238
aV$
p239
aa(lp240
Vnum
p241
ag239
aV12000
p242
aasVwords
p243
(lp244
(lp245
VSally
p246
a(dp247
VNamedEntityTag
p248
VPERSON
p249
sVCharacterOffsetEnd
p250
V53
p251
sVCharacterOffsetBegin
p252
V48
p253
sVPartOfSpeech
p254
VNNP
p255
sVLemma
p256
VSally
p257
saa(lp258
Vfound
p259
a(dp260
VNamedEntityTag
p261
g76
sVCharacterOffsetEnd
p262
V59
p263
sVCharacterOffsetBegin
p264
V54
p265
sVPartOfSpeech
p266
VVBD
p267
sVLemma
p268
Vfind
p269
saa(lp270
g227
a(dp271
VNamedEntityTag
p272
g76
sVCharacterOffsetEnd
p273
V61
p274
sVCharacterOffsetBegin
p275
V60
p276
sVPartOfSpeech
p277
VDT
p278
sVLemma
p279
g227
saa(lp280
Vused
p281
a(dp282
VNamedEntityTag
p283
g76
sVCharacterOffsetEnd
p284
V66
p285
sVCharacterOffsetBegin
p286
V62
p287
sVPartOfSpeech
p288
VVBN
p289
sVLemma
p290
Vuse
p291
saa(lp292
Vtruck
p293
a(dp294
VNamedEntityTag
p295
g76
sVCharacterOffsetEnd
p296
V72
p297
sVCharacterOffsetBegin
p298
V67
p299
sVPartOfSpeech
p300
VNN
p301
sVLemma
p302
Vtruck
p303
saa(lp304
Vfor
p305
a(dp306
VNamedEntityTag
p307
g76
sVCharacterOffsetEnd
p308
V76
p309
sVCharacterOffsetBegin
p310
V73
p311
sVPartOfSpeech
p312
VIN
p313
sVLemma
p314
Vfor
p315
saa(lp316
g239
a(dp317
VNormalizedNamedEntityTag
p318
V$12000.0
p319
sVLemma
p320
g239
sVCharacterOffsetEnd
p321
V78
p322
sVPartOfSpeech
p323
g239
sVCharacterOffsetBegin
p324
V77
p325
sVNamedEntityTag
p326
VMONEY
p327
saa(lp328
V12000
p329
a(dp330
VNormalizedNamedEntityTag
p331
V$12000.0
p332
sVLemma
p333
V12000
p334
sVCharacterOffsetEnd
p335
V83
p336
sVPartOfSpeech
p337
VCD
p338
sVCharacterOffsetBegin
p339
V78
p340
sVNamedEntityTag
p341
VMONEY
p342
saa(lp343
g170
a(dp344
VNamedEntityTag
p345
g76
sVCharacterOffsetEnd
p346
V85
p347
sVCharacterOffsetBegin
p348
V84
p349
sVPartOfSpeech
p350
g170
sVLemma
p351
g170
saasVindexeddependencies
p352
(lp353
(lp354
Vroot
p355
aVROOT-0
p356
aVfound-2
p357
aa(lp358
Vnsubj
p359
aVfound-2
p360
aVSally-1
p361
aa(lp362
Vdet
p363
aVtruck-5
p364
aVa-3
p365
aa(lp366
Vamod
p367
aVtruck-5
p368
aVused-4
p369
aa(lp370
Vdobj
p371
aVfound-2
p372
aVtruck-5
p373
aa(lp374
Vprep_for
p375
aVtruck-5
p376
aV$-7
p377
aa(lp378
Vnum
p379
aV$-7
p380
aV12000-8
p381
aasa(dp382
Vparsetree
p383
V(ROOT (S (NP (DT A) (JJ new) (NN truck)) (VP (VBZ is) (NP ($ $) (CD 16000)) (, ,) (SBAR (ADVP (RB so)) (WHNP (WP what)) (S (NP (NP (NNS times)) (PP (IN of) (NP (NP (DT the) (NN price)) (PP (IN of) (NP (DT a) (JJ new) (NN truck)))))) (VP (VBZ does) (S (NP (NNP Sally)) (VP (VB pay) (PP (IN for) (NP (DT a) (VBN used) (NN truck))))))))) (. ?)))
p384
sVtext
p385
VA new truck is $16000 , so what times of the price of a new truck does Sally pay for a used truck ?
p386
sVdependencies
p387
(lp388
(lp389
Vroot
p390
aVROOT
p391
ag239
aa(lp392
Vdet
p393
aVtruck
p394
aVA
p395
aa(lp396
Vamod
p397
aVtruck
p398
aVnew
p399
aa(lp400
Vnsubj
p401
ag239
aVtruck
p402
aa(lp403
Vcop
p404
ag239
aVis
p405
aa(lp406
Vnum
p407
ag239
aV16000
p408
aa(lp409
Vadvmod
p410
aVdoes
p411
aVso
p412
aa(lp413
Vdobj
p414
aVdoes
p415
aVwhat
p416
aa(lp417
Vnsubj
p418
aVdoes
p419
aVtimes
p420
aa(lp421
Vdet
p422
aVprice
p423
aVthe
p424
aa(lp425
Vprep_of
p426
aVtimes
p427
aVprice
p428
aa(lp429
Vdet
p430
aVtruck
p431
ag227
aa(lp432
Vamod
p433
aVtruck
p434
aVnew
p435
aa(lp436
Vprep_of
p437
aVprice
p438
aVtruck
p439
aa(lp440
Vdep
p441
ag239
aVdoes
p442
aa(lp443
Vnsubj
p444
aVpay
p445
aVSally
p446
aa(lp447
Vccomp
p448
aVdoes
p449
aVpay
p450
aa(lp451
Vdet
p452
aVtruck
p453
ag227
aa(lp454
Vamod
p455
aVtruck
p456
aVused
p457
aa(lp458
Vprep_for
p459
aVpay
p460
aVtruck
p461
aasVwords
p462
(lp463
(lp464
g395
a(dp465
VNamedEntityTag
p466
g76
sVCharacterOffsetEnd
p467
V87
p468
sVCharacterOffsetBegin
p469
V86
p470
sVPartOfSpeech
p471
VDT
p472
sVLemma
p473
g227
saa(lp474
Vnew
p475
a(dp476
VNamedEntityTag
p477
g76
sVCharacterOffsetEnd
p478
V91
p479
sVCharacterOffsetBegin
p480
V88
p481
sVPartOfSpeech
p482
VJJ
p483
sVLemma
p484
Vnew
p485
saa(lp486
Vtruck
p487
a(dp488
VNamedEntityTag
p489
g76
sVCharacterOffsetEnd
p490
V97
p491
sVCharacterOffsetBegin
p492
V92
p493
sVPartOfSpeech
p494
VNN
p495
sVLemma
p496
Vtruck
p497
saa(lp498
Vis
p499
a(dp500
VNamedEntityTag
p501
g76
sVCharacterOffsetEnd
p502
V100
p503
sVCharacterOffsetBegin
p504
V98
p505
sVPartOfSpeech
p506
VVBZ
p507
sVLemma
p508
Vbe
p509
saa(lp510
g239
a(dp511
VNormalizedNamedEntityTag
p512
V$16000.0
p513
sVLemma
p514
g239
sVCharacterOffsetEnd
p515
V102
p516
sVPartOfSpeech
p517
g239
sVCharacterOffsetBegin
p518
V101
p519
sVNamedEntityTag
p520
VMONEY
p521
saa(lp522
V16000
p523
a(dp524
VNormalizedNamedEntityTag
p525
V$16000.0
p526
sVLemma
p527
V16000
p528
sVCharacterOffsetEnd
p529
V107
p530
sVPartOfSpeech
p531
VCD
p532
sVCharacterOffsetBegin
p533
V102
p534
sVNamedEntityTag
p535
VMONEY
p536
saa(lp537
V,
p538
a(dp539
VNamedEntityTag
p540
g76
sVCharacterOffsetEnd
p541
V109
p542
sVCharacterOffsetBegin
p543
V108
p544
sVPartOfSpeech
p545
g538
sVLemma
p546
g538
saa(lp547
Vso
p548
a(dp549
VNamedEntityTag
p550
g76
sVCharacterOffsetEnd
p551
V112
p552
sVCharacterOffsetBegin
p553
V110
p554
sVPartOfSpeech
p555
VRB
p556
sVLemma
p557
Vso
p558
saa(lp559
Vwhat
p560
a(dp561
VNamedEntityTag
p562
g76
sVCharacterOffsetEnd
p563
V117
p564
sVCharacterOffsetBegin
p565
V113
p566
sVPartOfSpeech
p567
VWP
p568
sVLemma
p569
Vwhat
p570
saa(lp571
Vtimes
p572
a(dp573
VNamedEntityTag
p574
g76
sVCharacterOffsetEnd
p575
V123
p576
sVCharacterOffsetBegin
p577
V118
p578
sVPartOfSpeech
p579
VNNS
p580
sVLemma
p581
Vtime
p582
saa(lp583
Vof
p584
a(dp585
VNamedEntityTag
p586
g76
sVCharacterOffsetEnd
p587
V126
p588
sVCharacterOffsetBegin
p589
V124
p590
sVPartOfSpeech
p591
VIN
p592
sVLemma
p593
Vof
p594
saa(lp595
Vthe
p596
a(dp597
VNamedEntityTag
p598
g76
sVCharacterOffsetEnd
p599
V130
p600
sVCharacterOffsetBegin
p601
V127
p602
sVPartOfSpeech
p603
VDT
p604
sVLemma
p605
Vthe
p606
saa(lp607
Vprice
p608
a(dp609
VNamedEntityTag
p610
g76
sVCharacterOffsetEnd
p611
V136
p612
sVCharacterOffsetBegin
p613
V131
p614
sVPartOfSpeech
p615
VNN
p616
sVLemma
p617
Vprice
p618
saa(lp619
Vof
p620
a(dp621
VNamedEntityTag
p622
g76
sVCharacterOffsetEnd
p623
V139
p624
sVCharacterOffsetBegin
p625
V137
p626
sVPartOfSpeech
p627
VIN
p628
sVLemma
p629
Vof
p630
saa(lp631
g227
a(dp632
VNamedEntityTag
p633
g76
sVCharacterOffsetEnd
p634
V141
p635
sVCharacterOffsetBegin
p636
V140
p637
sVPartOfSpeech
p638
VDT
p639
sVLemma
p640
g227
saa(lp641
Vnew
p642
a(dp643
VNamedEntityTag
p644
g76
sVCharacterOffsetEnd
p645
V145
p646
sVCharacterOffsetBegin
p647
V142
p648
sVPartOfSpeech
p649
VJJ
p650
sVLemma
p651
Vnew
p652
saa(lp653
Vtruck
p654
a(dp655
VNamedEntityTag
p656
g76
sVCharacterOffsetEnd
p657
V151
p658
sVCharacterOffsetBegin
p659
V146
p660
sVPartOfSpeech
p661
VNN
p662
sVLemma
p663
Vtruck
p664
saa(lp665
Vdoes
p666
a(dp667
VNamedEntityTag
p668
g76
sVCharacterOffsetEnd
p669
V156
p670
sVCharacterOffsetBegin
p671
V152
p672
sVPartOfSpeech
p673
VVBZ
p674
sVLemma
p675
Vdo
p676
saa(lp677
VSally
p678
a(dp679
VNamedEntityTag
p680
VPERSON
p681
sVCharacterOffsetEnd
p682
V162
p683
sVCharacterOffsetBegin
p684
V157
p685
sVPartOfSpeech
p686
VNNP
p687
sVLemma
p688
VSally
p689
saa(lp690
Vpay
p691
a(dp692
VNamedEntityTag
p693
g76
sVCharacterOffsetEnd
p694
V166
p695
sVCharacterOffsetBegin
p696
V163
p697
sVPartOfSpeech
p698
VVB
p699
sVLemma
p700
Vpay
p701
saa(lp702
Vfor
p703
a(dp704
VNamedEntityTag
p705
g76
sVCharacterOffsetEnd
p706
V170
p707
sVCharacterOffsetBegin
p708
V167
p709
sVPartOfSpeech
p710
VIN
p711
sVLemma
p712
Vfor
p713
saa(lp714
g227
a(dp715
VNamedEntityTag
p716
g76
sVCharacterOffsetEnd
p717
V172
p718
sVCharacterOffsetBegin
p719
V171
p720
sVPartOfSpeech
p721
VDT
p722
sVLemma
p723
g227
saa(lp724
Vused
p725
a(dp726
VNamedEntityTag
p727
g76
sVCharacterOffsetEnd
p728
V177
p729
sVCharacterOffsetBegin
p730
V173
p731
sVPartOfSpeech
p732
VVBN
p733
sVLemma
p734
Vuse
p735
saa(lp736
Vtruck
p737
a(dp738
VNamedEntityTag
p739
g76
sVCharacterOffsetEnd
p740
V183
p741
sVCharacterOffsetBegin
p742
V178
p743
sVPartOfSpeech
p744
VNN
p745
sVLemma
p746
Vtruck
p747
saa(lp748
V?
p749
a(dp750
VNamedEntityTag
p751
g76
sVCharacterOffsetEnd
p752
V185
p753
sVCharacterOffsetBegin
p754
V184
p755
sVPartOfSpeech
p756
g170
sVLemma
p757
g749
saasVindexeddependencies
p758
(lp759
(lp760
Vroot
p761
aVROOT-0
p762
aV$-5
p763
aa(lp764
Vdet
p765
aVtruck-3
p766
aVA-1
p767
aa(lp768
Vamod
p769
aVtruck-3
p770
aVnew-2
p771
aa(lp772
Vnsubj
p773
aV$-5
p774
aVtruck-3
p775
aa(lp776
Vcop
p777
aV$-5
p778
aVis-4
p779
aa(lp780
Vnum
p781
aV$-5
p782
aV16000-6
p783
aa(lp784
Vadvmod
p785
aVdoes-18
p786
aVso-8
p787
aa(lp788
Vdobj
p789
aVdoes-18
p790
aVwhat-9
p791
aa(lp792
Vnsubj
p793
aVdoes-18
p794
aVtimes-10
p795
aa(lp796
Vdet
p797
aVprice-13
p798
aVthe-12
p799
aa(lp800
Vprep_of
p801
aVtimes-10
p802
aVprice-13
p803
aa(lp804
Vdet
p805
aVtruck-17
p806
aVa-15
p807
aa(lp808
Vamod
p809
aVtruck-17
p810
aVnew-16
p811
aa(lp812
Vprep_of
p813
aVprice-13
p814
aVtruck-17
p815
aa(lp816
Vdep
p817
aV$-5
p818
aVdoes-18
p819
aa(lp820
Vnsubj
p821
aVpay-20
p822
aVSally-19
p823
aa(lp824
Vccomp
p825
aVdoes-18
p826
aVpay-20
p827
aa(lp828
Vdet
p829
aVtruck-24
p830
aVa-22
p831
aa(lp832
Vamod
p833
aVtruck-24
p834
aVused-23
p835
aa(lp836
Vprep_for
p837
aVpay-20
p838
aVtruck-24
p839
aasas.