(dp0
Vcoref
p1
(lp2
(lp3
(lp4
(lp5
Vthis team
p6
aI1
aI6
aI5
aI7
aa(lp7
VOne baseball team
p8
aI0
aI2
aI0
aI3
aaa(lp9
(lp10
Vthis baseball team
p11
aI2
aI11
aI9
aI12
aa(lp12
VOne baseball team
p13
aI0
aI2
aI0
aI3
aaaa(lp14
(lp15
(lp16
Vtheir
p17
aI1
aI2
aI2
aI3
aa(lp18
Vtheir
p19
aI0
aI7
aI7
aI8
aaa(lp20
(lp21
Vthem
p22
aI1
aI11
aI11
aI12
aa(lp23
Vtheir
p24
aI0
aI7
aI7
aI8
aaaasVsentences
p25
(lp26
(dp27
Vparsetree
p28
V(ROOT (S (NP (CD One) (NN baseball) (NN team)) (VP (VBD won) (NP (CD 10) (NNS games)) (PP (IN throughout) (NP (PRP$ their) (JJ entire) (NN season)))) (. .)))
p29
sVtext
p30
VOne baseball team won 10 games throughout their entire season .
p31
sVdependencies
p32
(lp33
(lp34
Vroot
p35
aVROOT
p36
aVwon
p37
aa(lp38
Vnum
p39
aVteam
p40
aVOne
p41
aa(lp42
Vnn
p43
aVteam
p44
aVbaseball
p45
aa(lp46
Vnsubj
p47
aVwon
p48
aVteam
p49
aa(lp50
Vnum
p51
aVgames
p52
aV10
p53
aa(lp54
Vdobj
p55
aVwon
p56
aVgames
p57
aa(lp58
Vposs
p59
aVseason
p60
aVtheir
p61
aa(lp62
Vamod
p63
aVseason
p64
aVentire
p65
aa(lp66
Vprep_throughout
p67
aVwon
p68
aVseason
p69
aasVwords
p70
(lp71
(lp72
VOne
p73
a(dp74
VNormalizedNamedEntityTag
p75
V1.0
p76
sVLemma
p77
Vone
p78
sVCharacterOffsetEnd
p79
V4
p80
sVPartOfSpeech
p81
VCD
p82
sVCharacterOffsetBegin
p83
V1
p84
sVNamedEntityTag
p85
VNUMBER
p86
saa(lp87
Vbaseball
p88
a(dp89
VNamedEntityTag
p90
VO
p91
sVCharacterOffsetEnd
p92
V13
p93
sVCharacterOffsetBegin
p94
V5
p95
sVPartOfSpeech
p96
VNN
p97
sVLemma
p98
Vbaseball
p99
saa(lp100
Vteam
p101
a(dp102
VNamedEntityTag
p103
g91
sVCharacterOffsetEnd
p104
V18
p105
sVCharacterOffsetBegin
p106
V14
p107
sVPartOfSpeech
p108
VNN
p109
sVLemma
p110
Vteam
p111
saa(lp112
Vwon
p113
a(dp114
VNamedEntityTag
p115
g91
sVCharacterOffsetEnd
p116
V22
p117
sVCharacterOffsetBegin
p118
V19
p119
sVPartOfSpeech
p120
VVBD
p121
sVLemma
p122
Vwin
p123
saa(lp124
V10
p125
a(dp126
VNormalizedNamedEntityTag
p127
V10.0
p128
sVLemma
p129
V10
p130
sVCharacterOffsetEnd
p131
V25
p132
sVPartOfSpeech
p133
VCD
p134
sVCharacterOffsetBegin
p135
V23
p136
sVNamedEntityTag
p137
VNUMBER
p138
saa(lp139
Vgames
p140
a(dp141
VNamedEntityTag
p142
g91
sVCharacterOffsetEnd
p143
V31
p144
sVCharacterOffsetBegin
p145
V26
p146
sVPartOfSpeech
p147
VNNS
p148
sVLemma
p149
Vgame
p150
saa(lp151
Vthroughout
p152
a(dp153
VNamedEntityTag
p154
g91
sVCharacterOffsetEnd
p155
V42
p156
sVCharacterOffsetBegin
p157
V32
p158
sVPartOfSpeech
p159
VIN
p160
sVLemma
p161
Vthroughout
p162
saa(lp163
Vtheir
p164
a(dp165
VNamedEntityTag
p166
g91
sVCharacterOffsetEnd
p167
V48
p168
sVCharacterOffsetBegin
p169
V43
p170
sVPartOfSpeech
p171
VPRP$
p172
sVLemma
p173
Vthey
p174
saa(lp175
Ventire
p176
a(dp177
VNamedEntityTag
p178
g91
sVCharacterOffsetEnd
p179
V55
p180
sVCharacterOffsetBegin
p181
V49
p182
sVPartOfSpeech
p183
VJJ
p184
sVLemma
p185
Ventire
p186
saa(lp187
Vseason
p188
a(dp189
VNamedEntityTag
p190
g91
sVCharacterOffsetEnd
p191
V62
p192
sVCharacterOffsetBegin
p193
V56
p194
sVPartOfSpeech
p195
VNN
p196
sVLemma
p197
Vseason
p198
saa(lp199
V.
p200
a(dp201
VNamedEntityTag
p202
g91
sVCharacterOffsetEnd
p203
V64
p204
sVCharacterOffsetBegin
p205
V63
p206
sVPartOfSpeech
p207
g200
sVLemma
p208
g200
saasVindexeddependencies
p209
(lp210
(lp211
Vroot
p212
aVROOT-0
p213
aVwon-4
p214
aa(lp215
Vnum
p216
aVteam-3
p217
aVOne-1
p218
aa(lp219
Vnn
p220
aVteam-3
p221
aVbaseball-2
p222
aa(lp223
Vnsubj
p224
aVwon-4
p225
aVteam-3
p226
aa(lp227
Vnum
p228
aVgames-6
p229
aV10-5
p230
aa(lp231
Vdobj
p232
aVwon-4
p233
aVgames-6
p234
aa(lp235
Vposs
p236
aVseason-10
p237
aVtheir-8
p238
aa(lp239
Vamod
p240
aVseason-10
p241
aVentire-9
p242
aa(lp243
Vprep_throughout
p244
aVwon-4
p245
aVseason-10
p246
aasa(dp247
Vparsetree
p248
V(ROOT (S (PP (IN Of) (NP (DT all) (PRP$ their) (NNS games))) (, ,) (NP (DT this) (NN team)) (VP (VBD won) (NP (NP (QP (CD 0.5) (NNS times))) (PP (IN of) (NP (PRP them))))) (. .)))
p249
sVtext
p250
VOf all their games , this team won 0.5 times of them .
p251
sVdependencies
p252
(lp253
(lp254
Vroot
p255
aVROOT
p256
aVwon
p257
aa(lp258
Vpredet
p259
aVgames
p260
aVall
p261
aa(lp262
Vposs
p263
aVgames
p264
aVtheir
p265
aa(lp266
Vprep_of
p267
aVwon
p268
aVgames
p269
aa(lp270
Vdet
p271
aVteam
p272
aVthis
p273
aa(lp274
Vnsubj
p275
aVwon
p276
aVteam
p277
aa(lp278
Vnumber
p279
aVtimes
p280
aV0.5
p281
aa(lp282
Vdobj
p283
aVwon
p284
aVtimes
p285
aa(lp286
Vprep_of
p287
aVtimes
p288
aVthem
p289
aasVwords
p290
(lp291
(lp292
VOf
p293
a(dp294
VNamedEntityTag
p295
g91
sVCharacterOffsetEnd
p296
V67
p297
sVCharacterOffsetBegin
p298
V65
p299
sVPartOfSpeech
p300
VIN
p301
sVLemma
p302
Vof
p303
saa(lp304
Vall
p305
a(dp306
VNamedEntityTag
p307
g91
sVCharacterOffsetEnd
p308
V71
p309
sVCharacterOffsetBegin
p310
V68
p311
sVPartOfSpeech
p312
VDT
p313
sVLemma
p314
Vall
p315
saa(lp316
Vtheir
p317
a(dp318
VNamedEntityTag
p319
g91
sVCharacterOffsetEnd
p320
V77
p321
sVCharacterOffsetBegin
p322
V72
p323
sVPartOfSpeech
p324
VPRP$
p325
sVLemma
p326
Vthey
p327
saa(lp328
Vgames
p329
a(dp330
VNamedEntityTag
p331
g91
sVCharacterOffsetEnd
p332
V83
p333
sVCharacterOffsetBegin
p334
V78
p335
sVPartOfSpeech
p336
VNNS
p337
sVLemma
p338
Vgame
p339
saa(lp340
V,
p341
a(dp342
VNamedEntityTag
p343
g91
sVCharacterOffsetEnd
p344
V85
p345
sVCharacterOffsetBegin
p346
V84
p347
sVPartOfSpeech
p348
g341
sVLemma
p349
g341
saa(lp350
Vthis
p351
a(dp352
VNamedEntityTag
p353
g91
sVCharacterOffsetEnd
p354
V90
p355
sVCharacterOffsetBegin
p356
V86
p357
sVPartOfSpeech
p358
VDT
p359
sVLemma
p360
Vthis
p361
saa(lp362
Vteam
p363
a(dp364
VNamedEntityTag
p365
g91
sVCharacterOffsetEnd
p366
V95
p367
sVCharacterOffsetBegin
p368
V91
p369
sVPartOfSpeech
p370
VNN
p371
sVLemma
p372
Vteam
p373
saa(lp374
Vwon
p375
a(dp376
VNamedEntityTag
p377
g91
sVCharacterOffsetEnd
p378
V99
p379
sVCharacterOffsetBegin
p380
V96
p381
sVPartOfSpeech
p382
VVBD
p383
sVLemma
p384
Vwin
p385
saa(lp386
V0.5
p387
a(dp388
VNormalizedNamedEntityTag
p389
V0.5
p390
sVLemma
p391
V0.5
p392
sVCharacterOffsetEnd
p393
V103
p394
sVPartOfSpeech
p395
VCD
p396
sVCharacterOffsetBegin
p397
V100
p398
sVNamedEntityTag
p399
VNUMBER
p400
saa(lp401
Vtimes
p402
a(dp403
VNamedEntityTag
p404
g91
sVCharacterOffsetEnd
p405
V109
p406
sVCharacterOffsetBegin
p407
V104
p408
sVPartOfSpeech
p409
VNNS
p410
sVLemma
p411
Vtime
p412
saa(lp413
Vof
p414
a(dp415
VNamedEntityTag
p416
g91
sVCharacterOffsetEnd
p417
V112
p418
sVCharacterOffsetBegin
p419
V110
p420
sVPartOfSpeech
p421
VIN
p422
sVLemma
p423
Vof
p424
saa(lp425
Vthem
p426
a(dp427
VNamedEntityTag
p428
g91
sVCharacterOffsetEnd
p429
V117
p430
sVCharacterOffsetBegin
p431
V113
p432
sVPartOfSpeech
p433
VPRP
p434
sVLemma
p435
Vthey
p436
saa(lp437
g200
a(dp438
VNamedEntityTag
p439
g91
sVCharacterOffsetEnd
p440
V119
p441
sVCharacterOffsetBegin
p442
V118
p443
sVPartOfSpeech
p444
g200
sVLemma
p445
g200
saasVindexeddependencies
p446
(lp447
(lp448
Vroot
p449
aVROOT-0
p450
aVwon-8
p451
aa(lp452
Vpredet
p453
aVgames-4
p454
aVall-2
p455
aa(lp456
Vposs
p457
aVgames-4
p458
aVtheir-3
p459
aa(lp460
Vprep_of
p461
aVwon-8
p462
aVgames-4
p463
aa(lp464
Vdet
p465
aVteam-7
p466
aVthis-6
p467
aa(lp468
Vnsubj
p469
aVwon-8
p470
aVteam-7
p471
aa(lp472
Vnumber
p473
aVtimes-10
p474
aV0.5-9
p475
aa(lp476
Vdobj
p477
aVwon-8
p478
aVtimes-10
p479
aa(lp480
Vprep_of
p481
aVtimes-10
p482
aVthem-12
p483
aasa(dp484
Vparsetree
p485
V(ROOT (SBARQ (S (VP (VBN Given) (NP (DT this)))) (, ,) (WHNP (WHNP (WHADJP (WRB how) (JJ many)) (NNS games)) (PP (IN in) (NP (NN total)))) (SQ (VBD did) (NP (DT this) (NN baseball) (NN team)) (VP (VB play))) (. ?)))
p486
sVtext
p487
VGiven this , how many games in total did this baseball team play ?
p488
sVdependencies
p489
(lp490
(lp491
Vroot
p492
aVROOT
p493
aVplay
p494
aa(lp495
Vdep
p496
aVplay
p497
aVGiven
p498
aa(lp499
Vdobj
p500
aVGiven
p501
aVthis
p502
aa(lp503
Vadvmod
p504
aVmany
p505
aVhow
p506
aa(lp507
Vamod
p508
aVgames
p509
aVmany
p510
aa(lp511
Vdobj
p512
aVplay
p513
aVgames
p514
aa(lp515
Vprep_in
p516
aVgames
p517
aVtotal
p518
aa(lp519
Vaux
p520
aVplay
p521
aVdid
p522
aa(lp523
Vdet
p524
aVteam
p525
aVthis
p526
aa(lp527
Vnn
p528
aVteam
p529
aVbaseball
p530
aa(lp531
Vnsubj
p532
aVplay
p533
aVteam
p534
aasVwords
p535
(lp536
(lp537
VGiven
p538
a(dp539
VNamedEntityTag
p540
g91
sVCharacterOffsetEnd
p541
V125
p542
sVCharacterOffsetBegin
p543
V120
p544
sVPartOfSpeech
p545
VVBN
p546
sVLemma
p547
Vgive
p548
saa(lp549
Vthis
p550
a(dp551
VNamedEntityTag
p552
g91
sVCharacterOffsetEnd
p553
V130
p554
sVCharacterOffsetBegin
p555
V126
p556
sVPartOfSpeech
p557
VDT
p558
sVLemma
p559
Vthis
p560
saa(lp561
g341
a(dp562
VNamedEntityTag
p563
g91
sVCharacterOffsetEnd
p564
V132
p565
sVCharacterOffsetBegin
p566
V131
p567
sVPartOfSpeech
p568
g341
sVLemma
p569
g341
saa(lp570
Vhow
p571
a(dp572
VNamedEntityTag
p573
g91
sVCharacterOffsetEnd
p574
V136
p575
sVCharacterOffsetBegin
p576
V133
p577
sVPartOfSpeech
p578
VWRB
p579
sVLemma
p580
Vhow
p581
saa(lp582
Vmany
p583
a(dp584
VNamedEntityTag
p585
g91
sVCharacterOffsetEnd
p586
V141
p587
sVCharacterOffsetBegin
p588
V137
p589
sVPartOfSpeech
p590
VJJ
p591
sVLemma
p592
Vmany
p593
saa(lp594
Vgames
p595
a(dp596
VNamedEntityTag
p597
g91
sVCharacterOffsetEnd
p598
V147
p599
sVCharacterOffsetBegin
p600
V142
p601
sVPartOfSpeech
p602
VNNS
p603
sVLemma
p604
Vgame
p605
saa(lp606
Vin
p607
a(dp608
VNamedEntityTag
p609
g91
sVCharacterOffsetEnd
p610
V150
p611
sVCharacterOffsetBegin
p612
V148
p613
sVPartOfSpeech
p614
VIN
p615
sVLemma
p616
Vin
p617
saa(lp618
Vtotal
p619
a(dp620
VNamedEntityTag
p621
g91
sVCharacterOffsetEnd
p622
V156
p623
sVCharacterOffsetBegin
p624
V151
p625
sVPartOfSpeech
p626
VNN
p627
sVLemma
p628
Vtotal
p629
saa(lp630
Vdid
p631
a(dp632
VNamedEntityTag
p633
g91
sVCharacterOffsetEnd
p634
V160
p635
sVCharacterOffsetBegin
p636
V157
p637
sVPartOfSpeech
p638
VVBD
p639
sVLemma
p640
Vdo
p641
saa(lp642
Vthis
p643
a(dp644
VNamedEntityTag
p645
g91
sVCharacterOffsetEnd
p646
V165
p647
sVCharacterOffsetBegin
p648
V161
p649
sVPartOfSpeech
p650
VDT
p651
sVLemma
p652
Vthis
p653
saa(lp654
Vbaseball
p655
a(dp656
VNamedEntityTag
p657
g91
sVCharacterOffsetEnd
p658
V174
p659
sVCharacterOffsetBegin
p660
V166
p661
sVPartOfSpeech
p662
VNN
p663
sVLemma
p664
Vbaseball
p665
saa(lp666
Vteam
p667
a(dp668
VNamedEntityTag
p669
g91
sVCharacterOffsetEnd
p670
V179
p671
sVCharacterOffsetBegin
p672
V175
p673
sVPartOfSpeech
p674
VNN
p675
sVLemma
p676
Vteam
p677
saa(lp678
Vplay
p679
a(dp680
VNamedEntityTag
p681
g91
sVCharacterOffsetEnd
p682
V184
p683
sVCharacterOffsetBegin
p684
V180
p685
sVPartOfSpeech
p686
VVB
p687
sVLemma
p688
Vplay
p689
saa(lp690
V?
p691
a(dp692
VNamedEntityTag
p693
g91
sVCharacterOffsetEnd
p694
V186
p695
sVCharacterOffsetBegin
p696
V185
p697
sVPartOfSpeech
p698
g200
sVLemma
p699
g691
saasVindexeddependencies
p700
(lp701
(lp702
Vroot
p703
aVROOT-0
p704
aVplay-13
p705
aa(lp706
Vdep
p707
aVplay-13
p708
aVGiven-1
p709
aa(lp710
Vdobj
p711
aVGiven-1
p712
aVthis-2
p713
aa(lp714
Vadvmod
p715
aVmany-5
p716
aVhow-4
p717
aa(lp718
Vamod
p719
aVgames-6
p720
aVmany-5
p721
aa(lp722
Vdobj
p723
aVplay-13
p724
aVgames-6
p725
aa(lp726
Vprep_in
p727
aVgames-6
p728
aVtotal-8
p729
aa(lp730
Vaux
p731
aVplay-13
p732
aVdid-9
p733
aa(lp734
Vdet
p735
aVteam-12
p736
aVthis-10
p737
aa(lp738
Vnn
p739
aVteam-12
p740
aVbaseball-11
p741
aa(lp742
Vnsubj
p743
aVplay-13
p744
aVteam-12
p745
aasas.