(dp0
Vcoref
p1
(lp2
(lp3
(lp4
(lp5
VJason
p6
aI1
aI0
aI0
aI1
aa(lp7
VJason
p8
aI0
aI0
aI0
aI1
aaa(lp9
(lp10
Vhis
p11
aI1
aI4
aI4
aI5
aa(lp12
VJason
p13
aI0
aI0
aI0
aI1
aaa(lp14
(lp15
VJason
p16
aI2
aI0
aI0
aI1
aa(lp17
VJason
p18
aI0
aI0
aI0
aI1
aaa(lp19
(lp20
VJason
p21
aI3
aI5
aI5
aI6
aa(lp22
VJason
p23
aI0
aI0
aI0
aI1
aaaa(lp24
(lp25
(lp26
Vcards
p27
aI2
aI5
aI5
aI6
aa(lp28
VPokemon cards
p29
aI0
aI3
aI2
aI4
aaaa(lp30
(lp31
(lp32
V4 Pokemon cards left
p33
aI2
aI4
aI3
aI7
aa(lp34
VPokemon
p35
aI3
aI2
aI2
aI3
aaaasVsentences
p36
(lp37
(dp38
Vparsetree
p39
V(ROOT (S (NP (NNP Jason)) (VP (VBD had) (NP (NNS Pokemon) (NNS cards))) (. .)))
p40
sVtext
p41
VJason had Pokemon cards .
p42
sVdependencies
p43
(lp44
(lp45
Vroot
p46
aVROOT
p47
aVhad
p48
aa(lp49
Vnsubj
p50
aVhad
p51
aVJason
p52
aa(lp53
Vnn
p54
aVcards
p55
aVPokemon
p56
aa(lp57
Vdobj
p58
aVhad
p59
aVcards
p60
aasVwords
p61
(lp62
(lp63
VJason
p64
a(dp65
VNamedEntityTag
p66
VPERSON
p67
sVCharacterOffsetEnd
p68
V6
p69
sVCharacterOffsetBegin
p70
V1
p71
sVPartOfSpeech
p72
VNNP
p73
sVLemma
p74
VJason
p75
saa(lp76
Vhad
p77
a(dp78
VNamedEntityTag
p79
VO
p80
sVCharacterOffsetEnd
p81
V10
p82
sVCharacterOffsetBegin
p83
V7
p84
sVPartOfSpeech
p85
VVBD
p86
sVLemma
p87
Vhave
p88
saa(lp89
VPokemon
p90
a(dp91
VNamedEntityTag
p92
g80
sVCharacterOffsetEnd
p93
V18
p94
sVCharacterOffsetBegin
p95
V11
p96
sVPartOfSpeech
p97
VNNS
p98
sVLemma
p99
Vpokemon
p100
saa(lp101
Vcards
p102
a(dp103
VNamedEntityTag
p104
g80
sVCharacterOffsetEnd
p105
V24
p106
sVCharacterOffsetBegin
p107
V19
p108
sVPartOfSpeech
p109
VNNS
p110
sVLemma
p111
Vcard
p112
saa(lp113
V.
p114
a(dp115
VNamedEntityTag
p116
g80
sVCharacterOffsetEnd
p117
V26
p118
sVCharacterOffsetBegin
p119
V25
p120
sVPartOfSpeech
p121
g114
sVLemma
p122
g114
saasVindexeddependencies
p123
(lp124
(lp125
Vroot
p126
aVROOT-0
p127
aVhad-2
p128
aa(lp129
Vnsubj
p130
aVhad-2
p131
aVJason-1
p132
aa(lp133
Vnn
p134
aVcards-4
p135
aVPokemon-3
p136
aa(lp137
Vdobj
p138
aVhad-2
p139
aVcards-4
p140
aasa(dp141
Vparsetree
p142
V(ROOT (S (NP (NNP Jason)) (VP (VBD gave) (NP (CD 9)) (PP (TO to) (NP (PRP$ his) (NNS friends)))) (. .)))
p143
sVtext
p144
VJason gave 9 to his friends .
p145
sVdependencies
p146
(lp147
(lp148
Vroot
p149
aVROOT
p150
aVgave
p151
aa(lp152
Vnsubj
p153
aVgave
p154
aVJason
p155
aa(lp156
Vdobj
p157
aVgave
p158
aV9
p159
aa(lp160
Vposs
p161
aVfriends
p162
aVhis
p163
aa(lp164
Vprep_to
p165
aVgave
p166
aVfriends
p167
aasVwords
p168
(lp169
(lp170
VJason
p171
a(dp172
VNamedEntityTag
p173
VPERSON
p174
sVCharacterOffsetEnd
p175
V32
p176
sVCharacterOffsetBegin
p177
V27
p178
sVPartOfSpeech
p179
VNNP
p180
sVLemma
p181
VJason
p182
saa(lp183
Vgave
p184
a(dp185
VNamedEntityTag
p186
g80
sVCharacterOffsetEnd
p187
V37
p188
sVCharacterOffsetBegin
p189
V33
p190
sVPartOfSpeech
p191
VVBD
p192
sVLemma
p193
Vgive
p194
saa(lp195
g159
a(dp196
VNormalizedNamedEntityTag
p197
V9.0
p198
sVLemma
p199
g159
sVCharacterOffsetEnd
p200
V39
p201
sVPartOfSpeech
p202
VCD
p203
sVCharacterOffsetBegin
p204
V38
p205
sVNamedEntityTag
p206
VNUMBER
p207
saa(lp208
Vto
p209
a(dp210
VNamedEntityTag
p211
g80
sVCharacterOffsetEnd
p212
V42
p213
sVCharacterOffsetBegin
p214
V40
p215
sVPartOfSpeech
p216
VTO
p217
sVLemma
p218
Vto
p219
saa(lp220
Vhis
p221
a(dp222
VNamedEntityTag
p223
g80
sVCharacterOffsetEnd
p224
V46
p225
sVCharacterOffsetBegin
p226
V43
p227
sVPartOfSpeech
p228
VPRP$
p229
sVLemma
p230
Vhe
p231
saa(lp232
Vfriends
p233
a(dp234
VNamedEntityTag
p235
g80
sVCharacterOffsetEnd
p236
V54
p237
sVCharacterOffsetBegin
p238
V47
p239
sVPartOfSpeech
p240
VNNS
p241
sVLemma
p242
Vfriend
p243
saa(lp244
g114
a(dp245
VNamedEntityTag
p246
g80
sVCharacterOffsetEnd
p247
V56
p248
sVCharacterOffsetBegin
p249
V55
p250
sVPartOfSpeech
p251
g114
sVLemma
p252
g114
saasVindexeddependencies
p253
(lp254
(lp255
Vroot
p256
aVROOT-0
p257
aVgave-2
p258
aa(lp259
Vnsubj
p260
aVgave-2
p261
aVJason-1
p262
aa(lp263
Vdobj
p264
aVgave-2
p265
aV9-3
p266
aa(lp267
Vposs
p268
aVfriends-6
p269
aVhis-5
p270
aa(lp271
Vprep_to
p272
aVgave-2
p273
aVfriends-6
p274
aasa(dp275
Vparsetree
p276
V(ROOT (S (NP (NNP Jason)) (ADVP (RB now)) (VP (VBZ has) (NP (NP (CD 4) (NNS Pokemon)) (SBAR (S (NP (NNS cards)) (VP (VBD left)))))) (. .)))
p277
sVtext
p278
VJason now has 4 Pokemon cards left .
p279
sVdependencies
p280
(lp281
(lp282
Vroot
p283
aVROOT
p284
aVhas
p285
aa(lp286
Vnsubj
p287
aVhas
p288
aVJason
p289
aa(lp290
Vadvmod
p291
aVhas
p292
aVnow
p293
aa(lp294
Vnum
p295
aVPokemon
p296
aV4
p297
aa(lp298
Vdobj
p299
aVhas
p300
aVPokemon
p301
aa(lp302
Vnsubj
p303
aVleft
p304
aVcards
p305
aa(lp306
Vrcmod
p307
aVPokemon
p308
aVleft
p309
aasVwords
p310
(lp311
(lp312
VJason
p313
a(dp314
VNamedEntityTag
p315
VPERSON
p316
sVCharacterOffsetEnd
p317
V62
p318
sVCharacterOffsetBegin
p319
V57
p320
sVPartOfSpeech
p321
VNNP
p322
sVLemma
p323
VJason
p324
saa(lp325
Vnow
p326
a(dp327
VNormalizedNamedEntityTag
p328
VPRESENT_REF
p329
sVTimex
p330
V<TIMEX3 tid="t1" type="DATE" value="PRESENT_REF">now</TIMEX3>
p331
sVLemma
p332
Vnow
p333
sVCharacterOffsetEnd
p334
V66
p335
sVPartOfSpeech
p336
VRB
p337
sVCharacterOffsetBegin
p338
V63
p339
sVNamedEntityTag
p340
VDATE
p341
saa(lp342
Vhas
p343
a(dp344
VNamedEntityTag
p345
g80
sVCharacterOffsetEnd
p346
V70
p347
sVCharacterOffsetBegin
p348
V67
p349
sVPartOfSpeech
p350
VVBZ
p351
sVLemma
p352
Vhave
p353
saa(lp354
g297
a(dp355
VNormalizedNamedEntityTag
p356
V4.0
p357
sVLemma
p358
g297
sVCharacterOffsetEnd
p359
V72
p360
sVPartOfSpeech
p361
VCD
p362
sVCharacterOffsetBegin
p363
V71
p364
sVNamedEntityTag
p365
VNUMBER
p366
saa(lp367
VPokemon
p368
a(dp369
VNamedEntityTag
p370
g80
sVCharacterOffsetEnd
p371
V80
p372
sVCharacterOffsetBegin
p373
V73
p374
sVPartOfSpeech
p375
VNNS
p376
sVLemma
p377
Vpokemon
p378
saa(lp379
Vcards
p380
a(dp381
VNamedEntityTag
p382
g80
sVCharacterOffsetEnd
p383
V86
p384
sVCharacterOffsetBegin
p385
V81
p386
sVPartOfSpeech
p387
VNNS
p388
sVLemma
p389
Vcard
p390
saa(lp391
Vleft
p392
a(dp393
VNamedEntityTag
p394
g80
sVCharacterOffsetEnd
p395
V91
p396
sVCharacterOffsetBegin
p397
V87
p398
sVPartOfSpeech
p399
VVBD
p400
sVLemma
p401
Vleave
p402
saa(lp403
g114
a(dp404
VNamedEntityTag
p405
g80
sVCharacterOffsetEnd
p406
V93
p407
sVCharacterOffsetBegin
p408
V92
p409
sVPartOfSpeech
p410
g114
sVLemma
p411
g114
saasVindexeddependencies
p412
(lp413
(lp414
Vroot
p415
aVROOT-0
p416
aVhas-3
p417
aa(lp418
Vnsubj
p419
aVhas-3
p420
aVJason-1
p421
aa(lp422
Vadvmod
p423
aVhas-3
p424
aVnow-2
p425
aa(lp426
Vnum
p427
aVPokemon-5
p428
aV4-4
p429
aa(lp430
Vdobj
p431
aVhas-3
p432
aVPokemon-5
p433
aa(lp434
Vnsubj
p435
aVleft-7
p436
aVcards-6
p437
aa(lp438
Vrcmod
p439
aVPokemon-5
p440
aVleft-7
p441
aasa(dp442
Vparsetree
p443
V(ROOT (SBARQ (WHNP (WHNP (WHADJP (WRB How) (JJ many)) (NNS Pokemon)) (NNS cards)) (SQ (VBD did) (NP (NNP Jason)) (VP (VB have) (S (VP (TO to) (VP (VB start) (PP (IN with))))))) (. ?)))
p444
sVtext
p445
VHow many Pokemon cards did Jason have to start with  ?
p446
sVdependencies
p447
(lp448
(lp449
Vroot
p450
aVROOT
p451
aVhave
p452
aa(lp453
Vadvmod
p454
aVmany
p455
aVHow
p456
aa(lp457
Vamod
p458
aVPokemon
p459
aVmany
p460
aa(lp461
Vdep
p462
aVcards
p463
aVPokemon
p464
aa(lp465
Vdep
p466
aVhave
p467
aVcards
p468
aa(lp469
Vaux
p470
aVhave
p471
aVdid
p472
aa(lp473
Vnsubj
p474
aVhave
p475
aVJason
p476
aa(lp477
Vaux
p478
aVstart
p479
aVto
p480
aa(lp481
Vxcomp
p482
aVhave
p483
aVstart
p484
aa(lp485
Vprep
p486
aVstart
p487
aVwith
p488
aasVwords
p489
(lp490
(lp491
VHow
p492
a(dp493
VNamedEntityTag
p494
g80
sVCharacterOffsetEnd
p495
V97
p496
sVCharacterOffsetBegin
p497
V94
p498
sVPartOfSpeech
p499
VWRB
p500
sVLemma
p501
Vhow
p502
saa(lp503
Vmany
p504
a(dp505
VNamedEntityTag
p506
g80
sVCharacterOffsetEnd
p507
V102
p508
sVCharacterOffsetBegin
p509
V98
p510
sVPartOfSpeech
p511
VJJ
p512
sVLemma
p513
Vmany
p514
saa(lp515
VPokemon
p516
a(dp517
VNamedEntityTag
p518
VMISC
p519
sVCharacterOffsetEnd
p520
V110
p521
sVCharacterOffsetBegin
p522
V103
p523
sVPartOfSpeech
p524
VNNS
p525
sVLemma
p526
Vpokemon
p527
saa(lp528
Vcards
p529
a(dp530
VNamedEntityTag
p531
g80
sVCharacterOffsetEnd
p532
V116
p533
sVCharacterOffsetBegin
p534
V111
p535
sVPartOfSpeech
p536
VNNS
p537
sVLemma
p538
Vcard
p539
saa(lp540
Vdid
p541
a(dp542
VNamedEntityTag
p543
g80
sVCharacterOffsetEnd
p544
V120
p545
sVCharacterOffsetBegin
p546
V117
p547
sVPartOfSpeech
p548
VVBD
p549
sVLemma
p550
Vdo
p551
saa(lp552
VJason
p553
a(dp554
VNamedEntityTag
p555
VPERSON
p556
sVCharacterOffsetEnd
p557
V126
p558
sVCharacterOffsetBegin
p559
V121
p560
sVPartOfSpeech
p561
VNNP
p562
sVLemma
p563
VJason
p564
saa(lp565
Vhave
p566
a(dp567
VNamedEntityTag
p568
g80
sVCharacterOffsetEnd
p569
V131
p570
sVCharacterOffsetBegin
p571
V127
p572
sVPartOfSpeech
p573
VVB
p574
sVLemma
p575
Vhave
p576
saa(lp577
Vto
p578
a(dp579
VNamedEntityTag
p580
g80
sVCharacterOffsetEnd
p581
V134
p582
sVCharacterOffsetBegin
p583
V132
p584
sVPartOfSpeech
p585
VTO
p586
sVLemma
p587
Vto
p588
saa(lp589
Vstart
p590
a(dp591
VNamedEntityTag
p592
g80
sVCharacterOffsetEnd
p593
V140
p594
sVCharacterOffsetBegin
p595
V135
p596
sVPartOfSpeech
p597
VVB
p598
sVLemma
p599
Vstart
p600
saa(lp601
Vwith
p602
a(dp603
VNamedEntityTag
p604
g80
sVCharacterOffsetEnd
p605
V145
p606
sVCharacterOffsetBegin
p607
V141
p608
sVPartOfSpeech
p609
VIN
p610
sVLemma
p611
Vwith
p612
saa(lp613
V?
p614
a(dp615
VNamedEntityTag
p616
g80
sVCharacterOffsetEnd
p617
V148
p618
sVCharacterOffsetBegin
p619
V147
p620
sVPartOfSpeech
p621
g114
sVLemma
p622
g614
saasVindexeddependencies
p623
(lp624
(lp625
Vroot
p626
aVROOT-0
p627
aVhave-7
p628
aa(lp629
Vadvmod
p630
aVmany-2
p631
aVHow-1
p632
aa(lp633
Vamod
p634
aVPokemon-3
p635
aVmany-2
p636
aa(lp637
Vdep
p638
aVcards-4
p639
aVPokemon-3
p640
aa(lp641
Vdep
p642
aVhave-7
p643
aVcards-4
p644
aa(lp645
Vaux
p646
aVhave-7
p647
aVdid-5
p648
aa(lp649
Vnsubj
p650
aVhave-7
p651
aVJason-6
p652
aa(lp653
Vaux
p654
aVstart-9
p655
aVto-8
p656
aa(lp657
Vxcomp
p658
aVhave-7
p659
aVstart-9
p660
aa(lp661
Vprep
p662
aVstart-9
p663
aVwith-10
p664
aasas.