(dp0
Vcoref
p1
(lp2
(lp3
(lp4
(lp5
VAdam
p6
aI2
aI11
aI11
aI12
aa(lp7
VAdam
p8
aI0
aI0
aI0
aI1
aaaa(lp9
(lp10
(lp11
Vcat food
p12
aI1
aI4
aI3
aI5
aa(lp13
Vcat food
p14
aI0
aI6
aI5
aI7
aaaa(lp15
(lp16
(lp17
Vdog food
p18
aI1
aI14
aI13
aI15
aa(lp19
Vdog food
p20
aI0
aI12
aI11
aI13
aaa(lp21
(lp22
Vdog food
p23
aI2
aI9
aI8
aI10
aa(lp24
Vdog food
p25
aI0
aI12
aI11
aI13
aaaasVsentences
p26
(lp27
(dp28
Vparsetree
p29
V(ROOT (S (NP (NNP Adam)) (VP (VBD bought) (NP (NP (NP (CD 9) (NNS packages)) (PP (IN of) (NP (NN cat) (NN food)))) (CC and) (NP (NP (CD 7) (NNS packages)) (PP (IN of) (NP (NN dog) (NN food)))))) (. .)))
p30
sVtext
p31
VAdam bought 9 packages of cat food and 7 packages of dog food .
p32
sVdependencies
p33
(lp34
(lp35
Vroot
p36
aVROOT
p37
aVbought
p38
aa(lp39
Vnsubj
p40
aVbought
p41
aVAdam
p42
aa(lp43
Vnum
p44
aVpackages
p45
aV9
p46
aa(lp47
Vdobj
p48
aVbought
p49
aVpackages
p50
aa(lp51
Vnn
p52
aVfood
p53
aVcat
p54
aa(lp55
Vprep_of
p56
aVpackages
p57
aVfood
p58
aa(lp59
Vnum
p60
aVpackages
p61
aV7
p62
aa(lp63
Vconj_and
p64
aVpackages
p65
aVpackages
p66
aa(lp67
Vnn
p68
aVfood
p69
aVdog
p70
aa(lp71
Vprep_of
p72
aVpackages
p73
aVfood
p74
aasVwords
p75
(lp76
(lp77
VAdam
p78
a(dp79
VNamedEntityTag
p80
VPERSON
p81
sVCharacterOffsetEnd
p82
V5
p83
sVCharacterOffsetBegin
p84
V1
p85
sVPartOfSpeech
p86
VNNP
p87
sVLemma
p88
VAdam
p89
saa(lp90
Vbought
p91
a(dp92
VNamedEntityTag
p93
VO
p94
sVCharacterOffsetEnd
p95
V12
p96
sVCharacterOffsetBegin
p97
V6
p98
sVPartOfSpeech
p99
VVBD
p100
sVLemma
p101
Vbuy
p102
saa(lp103
g46
a(dp104
VNormalizedNamedEntityTag
p105
V9.0
p106
sVLemma
p107
g46
sVCharacterOffsetEnd
p108
V14
p109
sVPartOfSpeech
p110
VCD
p111
sVCharacterOffsetBegin
p112
V13
p113
sVNamedEntityTag
p114
VNUMBER
p115
saa(lp116
Vpackages
p117
a(dp118
VNamedEntityTag
p119
g94
sVCharacterOffsetEnd
p120
V23
p121
sVCharacterOffsetBegin
p122
V15
p123
sVPartOfSpeech
p124
VNNS
p125
sVLemma
p126
Vpackage
p127
saa(lp128
Vof
p129
a(dp130
VNamedEntityTag
p131
g94
sVCharacterOffsetEnd
p132
V26
p133
sVCharacterOffsetBegin
p134
V24
p135
sVPartOfSpeech
p136
VIN
p137
sVLemma
p138
Vof
p139
saa(lp140
Vcat
p141
a(dp142
VNamedEntityTag
p143
g94
sVCharacterOffsetEnd
p144
V30
p145
sVCharacterOffsetBegin
p146
V27
p147
sVPartOfSpeech
p148
VNN
p149
sVLemma
p150
Vcat
p151
saa(lp152
Vfood
p153
a(dp154
VNamedEntityTag
p155
g94
sVCharacterOffsetEnd
p156
V35
p157
sVCharacterOffsetBegin
p158
V31
p159
sVPartOfSpeech
p160
VNN
p161
sVLemma
p162
Vfood
p163
saa(lp164
Vand
p165
a(dp166
VNamedEntityTag
p167
g94
sVCharacterOffsetEnd
p168
V39
p169
sVCharacterOffsetBegin
p170
V36
p171
sVPartOfSpeech
p172
VCC
p173
sVLemma
p174
Vand
p175
saa(lp176
g62
a(dp177
VNormalizedNamedEntityTag
p178
V7.0
p179
sVLemma
p180
g62
sVCharacterOffsetEnd
p181
V41
p182
sVPartOfSpeech
p183
VCD
p184
sVCharacterOffsetBegin
p185
V40
p186
sVNamedEntityTag
p187
VNUMBER
p188
saa(lp189
Vpackages
p190
a(dp191
VNamedEntityTag
p192
g94
sVCharacterOffsetEnd
p193
V50
p194
sVCharacterOffsetBegin
p195
V42
p196
sVPartOfSpeech
p197
VNNS
p198
sVLemma
p199
Vpackage
p200
saa(lp201
Vof
p202
a(dp203
VNamedEntityTag
p204
g94
sVCharacterOffsetEnd
p205
V53
p206
sVCharacterOffsetBegin
p207
V51
p208
sVPartOfSpeech
p209
VIN
p210
sVLemma
p211
Vof
p212
saa(lp213
Vdog
p214
a(dp215
VNamedEntityTag
p216
g94
sVCharacterOffsetEnd
p217
V57
p218
sVCharacterOffsetBegin
p219
V54
p220
sVPartOfSpeech
p221
VNN
p222
sVLemma
p223
Vdog
p224
saa(lp225
Vfood
p226
a(dp227
VNamedEntityTag
p228
g94
sVCharacterOffsetEnd
p229
V62
p230
sVCharacterOffsetBegin
p231
V58
p232
sVPartOfSpeech
p233
VNN
p234
sVLemma
p235
Vfood
p236
saa(lp237
V.
p238
a(dp239
VNamedEntityTag
p240
g94
sVCharacterOffsetEnd
p241
V64
p242
sVCharacterOffsetBegin
p243
V63
p244
sVPartOfSpeech
p245
g238
sVLemma
p246
g238
saasVindexeddependencies
p247
(lp248
(lp249
Vroot
p250
aVROOT-0
p251
aVbought-2
p252
aa(lp253
Vnsubj
p254
aVbought-2
p255
aVAdam-1
p256
aa(lp257
Vnum
p258
aVpackages-4
p259
aV9-3
p260
aa(lp261
Vdobj
p262
aVbought-2
p263
aVpackages-4
p264
aa(lp265
Vnn
p266
aVfood-7
p267
aVcat-6
p268
aa(lp269
Vprep_of
p270
aVpackages-4
p271
aVfood-7
p272
aa(lp273
Vnum
p274
aVpackages-10
p275
aV7-9
p276
aa(lp277
Vconj_and
p278
aVpackages-4
p279
aVpackages-10
p280
aa(lp281
Vnn
p282
aVfood-13
p283
aVdog-12
p284
aa(lp285
Vprep_of
p286
aVpackages-10
p287
aVfood-13
p288
aasa(dp289
Vparsetree
p290
V(ROOT (S (S (NP (NP (DT Each) (NN package)) (PP (IN of) (NP (NN cat) (NN food)))) (VP (VBD contained) (NP (CD 10) (NNS cans)))) (, ,) (CC and) (S (NP (NP (DT each) (NN package)) (PP (IN of) (NP (NN dog) (NN food)))) (VP (VBD contained) (NP (CD 5) (NNS cans)))) (. .)))
p291
sVtext
p292
VEach package of cat food contained 10 cans , and each package of dog food contained 5 cans .
p293
sVdependencies
p294
(lp295
(lp296
Vroot
p297
aVROOT
p298
aVcontained
p299
aa(lp300
Vdet
p301
aVpackage
p302
aVEach
p303
aa(lp304
Vnsubj
p305
aVcontained
p306
aVpackage
p307
aa(lp308
Vnn
p309
aVfood
p310
aVcat
p311
aa(lp312
Vprep_of
p313
aVpackage
p314
aVfood
p315
aa(lp316
Vnum
p317
aVcans
p318
aV10
p319
aa(lp320
Vdobj
p321
aVcontained
p322
aVcans
p323
aa(lp324
Vdet
p325
aVpackage
p326
aVeach
p327
aa(lp328
Vnsubj
p329
aVcontained
p330
aVpackage
p331
aa(lp332
Vnn
p333
aVfood
p334
aVdog
p335
aa(lp336
Vprep_of
p337
aVpackage
p338
aVfood
p339
aa(lp340
Vconj_and
p341
aVcontained
p342
aVcontained
p343
aa(lp344
Vnum
p345
aVcans
p346
ag83
aa(lp347
Vdobj
p348
aVcontained
p349
aVcans
p350
aasVwords
p351
(lp352
(lp353
VEach
p354
a(dp355
VNamedEntityTag
p356
g94
sVCharacterOffsetEnd
p357
V69
p358
sVCharacterOffsetBegin
p359
V65
p360
sVPartOfSpeech
p361
VDT
p362
sVLemma
p363
Veach
p364
saa(lp365
Vpackage
p366
a(dp367
VNamedEntityTag
p368
g94
sVCharacterOffsetEnd
p369
V77
p370
sVCharacterOffsetBegin
p371
V70
p372
sVPartOfSpeech
p373
VNN
p374
sVLemma
p375
Vpackage
p376
saa(lp377
Vof
p378
a(dp379
VNamedEntityTag
p380
g94
sVCharacterOffsetEnd
p381
V80
p382
sVCharacterOffsetBegin
p383
V78
p384
sVPartOfSpeech
p385
VIN
p386
sVLemma
p387
Vof
p388
saa(lp389
Vcat
p390
a(dp391
VNamedEntityTag
p392
g94
sVCharacterOffsetEnd
p393
V84
p394
sVCharacterOffsetBegin
p395
V81
p396
sVPartOfSpeech
p397
VNN
p398
sVLemma
p399
Vcat
p400
saa(lp401
Vfood
p402
a(dp403
VNamedEntityTag
p404
g94
sVCharacterOffsetEnd
p405
V89
p406
sVCharacterOffsetBegin
p407
V85
p408
sVPartOfSpeech
p409
VNN
p410
sVLemma
p411
Vfood
p412
saa(lp413
Vcontained
p414
a(dp415
VNamedEntityTag
p416
g94
sVCharacterOffsetEnd
p417
V99
p418
sVCharacterOffsetBegin
p419
V90
p420
sVPartOfSpeech
p421
VVBD
p422
sVLemma
p423
Vcontain
p424
saa(lp425
V10
p426
a(dp427
VNormalizedNamedEntityTag
p428
V10.0
p429
sVLemma
p430
V10
p431
sVCharacterOffsetEnd
p432
V102
p433
sVPartOfSpeech
p434
VCD
p435
sVCharacterOffsetBegin
p436
V100
p437
sVNamedEntityTag
p438
VNUMBER
p439
saa(lp440
Vcans
p441
a(dp442
VNamedEntityTag
p443
g94
sVCharacterOffsetEnd
p444
V107
p445
sVCharacterOffsetBegin
p446
V103
p447
sVPartOfSpeech
p448
VNNS
p449
sVLemma
p450
Vcan
p451
saa(lp452
V,
p453
a(dp454
VNamedEntityTag
p455
g94
sVCharacterOffsetEnd
p456
V109
p457
sVCharacterOffsetBegin
p458
V108
p459
sVPartOfSpeech
p460
g453
sVLemma
p461
g453
saa(lp462
Vand
p463
a(dp464
VNamedEntityTag
p465
g94
sVCharacterOffsetEnd
p466
V113
p467
sVCharacterOffsetBegin
p468
V110
p469
sVPartOfSpeech
p470
VCC
p471
sVLemma
p472
Vand
p473
saa(lp474
Veach
p475
a(dp476
VNamedEntityTag
p477
g94
sVCharacterOffsetEnd
p478
V118
p479
sVCharacterOffsetBegin
p480
V114
p481
sVPartOfSpeech
p482
VDT
p483
sVLemma
p484
Veach
p485
saa(lp486
Vpackage
p487
a(dp488
VNamedEntityTag
p489
g94
sVCharacterOffsetEnd
p490
V126
p491
sVCharacterOffsetBegin
p492
V119
p493
sVPartOfSpeech
p494
VNN
p495
sVLemma
p496
Vpackage
p497
saa(lp498
Vof
p499
a(dp500
VNamedEntityTag
p501
g94
sVCharacterOffsetEnd
p502
V129
p503
sVCharacterOffsetBegin
p504
V127
p505
sVPartOfSpeech
p506
VIN
p507
sVLemma
p508
Vof
p509
saa(lp510
Vdog
p511
a(dp512
VNamedEntityTag
p513
g94
sVCharacterOffsetEnd
p514
V133
p515
sVCharacterOffsetBegin
p516
V130
p517
sVPartOfSpeech
p518
VNN
p519
sVLemma
p520
Vdog
p521
saa(lp522
Vfood
p523
a(dp524
VNamedEntityTag
p525
g94
sVCharacterOffsetEnd
p526
V138
p527
sVCharacterOffsetBegin
p528
V134
p529
sVPartOfSpeech
p530
VNN
p531
sVLemma
p532
Vfood
p533
saa(lp534
Vcontained
p535
a(dp536
VNamedEntityTag
p537
g94
sVCharacterOffsetEnd
p538
V148
p539
sVCharacterOffsetBegin
p540
V139
p541
sVPartOfSpeech
p542
VVBD
p543
sVLemma
p544
Vcontain
p545
saa(lp546
g83
a(dp547
VNormalizedNamedEntityTag
p548
V5.0
p549
sVLemma
p550
g83
sVCharacterOffsetEnd
p551
V150
p552
sVPartOfSpeech
p553
VCD
p554
sVCharacterOffsetBegin
p555
V149
p556
sVNamedEntityTag
p557
VNUMBER
p558
saa(lp559
Vcans
p560
a(dp561
VNamedEntityTag
p562
g94
sVCharacterOffsetEnd
p563
V155
p564
sVCharacterOffsetBegin
p565
V151
p566
sVPartOfSpeech
p567
VNNS
p568
sVLemma
p569
Vcan
p570
saa(lp571
g238
a(dp572
VNamedEntityTag
p573
g94
sVCharacterOffsetEnd
p574
V157
p575
sVCharacterOffsetBegin
p576
V156
p577
sVPartOfSpeech
p578
g238
sVLemma
p579
g238
saasVindexeddependencies
p580
(lp581
(lp582
Vroot
p583
aVROOT-0
p584
aVcontained-6
p585
aa(lp586
Vdet
p587
aVpackage-2
p588
aVEach-1
p589
aa(lp590
Vnsubj
p591
aVcontained-6
p592
aVpackage-2
p593
aa(lp594
Vnn
p595
aVfood-5
p596
aVcat-4
p597
aa(lp598
Vprep_of
p599
aVpackage-2
p600
aVfood-5
p601
aa(lp602
Vnum
p603
aVcans-8
p604
aV10-7
p605
aa(lp606
Vdobj
p607
aVcontained-6
p608
aVcans-8
p609
aa(lp610
Vdet
p611
aVpackage-12
p612
aVeach-11
p613
aa(lp614
Vnsubj
p615
aVcontained-16
p616
aVpackage-12
p617
aa(lp618
Vnn
p619
aVfood-15
p620
aVdog-14
p621
aa(lp622
Vprep_of
p623
aVpackage-12
p624
aVfood-15
p625
aa(lp626
Vconj_and
p627
aVcontained-6
p628
aVcontained-16
p629
aa(lp630
Vnum
p631
aVcans-18
p632
aV5-17
p633
aa(lp634
Vdobj
p635
aVcontained-16
p636
aVcans-18
p637
aasa(dp638
Vparsetree
p639
V(ROOT (SBARQ (WHNP (WHADJP (WRB How) (JJ many)) (NP (NP (JJR more) (NNS cans)) (PP (IN of) (NP (NP (NN cat) (NN food)) (PP (IN than) (NP (NN dog) (NN food))))))) (SQ (VBD did) (NP (NNP Adam)) (VP (VB buy))) (. ?)))
p640
sVtext
p641
VHow many more cans of cat food than dog food did Adam buy ?
p642
sVdependencies
p643
(lp644
(lp645
Vroot
p646
aVROOT
p647
aVbuy
p648
aa(lp649
Vadvmod
p650
aVmany
p651
aVHow
p652
aa(lp653
Vamod
p654
aVcans
p655
aVmany
p656
aa(lp657
Vamod
p658
aVcans
p659
aVmore
p660
aa(lp661
Vdobj
p662
aVbuy
p663
aVcans
p664
aa(lp665
Vnn
p666
aVfood
p667
aVcat
p668
aa(lp669
Vprep_of
p670
aVcans
p671
aVfood
p672
aa(lp673
Vnn
p674
aVfood
p675
aVdog
p676
aa(lp677
Vprep_than
p678
aVfood
p679
aVfood
p680
aa(lp681
Vaux
p682
aVbuy
p683
aVdid
p684
aa(lp685
Vnsubj
p686
aVbuy
p687
aVAdam
p688
aasVwords
p689
(lp690
(lp691
VHow
p692
a(dp693
VNamedEntityTag
p694
g94
sVCharacterOffsetEnd
p695
V161
p696
sVCharacterOffsetBegin
p697
V158
p698
sVPartOfSpeech
p699
VWRB
p700
sVLemma
p701
Vhow
p702
saa(lp703
Vmany
p704
a(dp705
VNamedEntityTag
p706
g94
sVCharacterOffsetEnd
p707
V166
p708
sVCharacterOffsetBegin
p709
V162
p710
sVPartOfSpeech
p711
VJJ
p712
sVLemma
p713
Vmany
p714
saa(lp715
Vmore
p716
a(dp717
VNamedEntityTag
p718
g94
sVCharacterOffsetEnd
p719
V171
p720
sVCharacterOffsetBegin
p721
V167
p722
sVPartOfSpeech
p723
VJJR
p724
sVLemma
p725
Vmore
p726
saa(lp727
Vcans
p728
a(dp729
VNamedEntityTag
p730
g94
sVCharacterOffsetEnd
p731
V176
p732
sVCharacterOffsetBegin
p733
V172
p734
sVPartOfSpeech
p735
VNNS
p736
sVLemma
p737
Vcan
p738
saa(lp739
Vof
p740
a(dp741
VNamedEntityTag
p742
g94
sVCharacterOffsetEnd
p743
V179
p744
sVCharacterOffsetBegin
p745
V177
p746
sVPartOfSpeech
p747
VIN
p748
sVLemma
p749
Vof
p750
saa(lp751
Vcat
p752
a(dp753
VNamedEntityTag
p754
g94
sVCharacterOffsetEnd
p755
V183
p756
sVCharacterOffsetBegin
p757
V180
p758
sVPartOfSpeech
p759
VNN
p760
sVLemma
p761
Vcat
p762
saa(lp763
Vfood
p764
a(dp765
VNamedEntityTag
p766
g94
sVCharacterOffsetEnd
p767
V188
p768
sVCharacterOffsetBegin
p769
V184
p770
sVPartOfSpeech
p771
VNN
p772
sVLemma
p773
Vfood
p774
saa(lp775
Vthan
p776
a(dp777
VNamedEntityTag
p778
g94
sVCharacterOffsetEnd
p779
V193
p780
sVCharacterOffsetBegin
p781
V189
p782
sVPartOfSpeech
p783
VIN
p784
sVLemma
p785
Vthan
p786
saa(lp787
Vdog
p788
a(dp789
VNamedEntityTag
p790
g94
sVCharacterOffsetEnd
p791
V197
p792
sVCharacterOffsetBegin
p793
V194
p794
sVPartOfSpeech
p795
VNN
p796
sVLemma
p797
Vdog
p798
saa(lp799
Vfood
p800
a(dp801
VNamedEntityTag
p802
g94
sVCharacterOffsetEnd
p803
V202
p804
sVCharacterOffsetBegin
p805
V198
p806
sVPartOfSpeech
p807
VNN
p808
sVLemma
p809
Vfood
p810
saa(lp811
Vdid
p812
a(dp813
VNamedEntityTag
p814
g94
sVCharacterOffsetEnd
p815
V206
p816
sVCharacterOffsetBegin
p817
V203
p818
sVPartOfSpeech
p819
VVBD
p820
sVLemma
p821
Vdo
p822
saa(lp823
VAdam
p824
a(dp825
VNamedEntityTag
p826
g94
sVCharacterOffsetEnd
p827
V211
p828
sVCharacterOffsetBegin
p829
V207
p830
sVPartOfSpeech
p831
VNNP
p832
sVLemma
p833
VAdam
p834
saa(lp835
Vbuy
p836
a(dp837
VNamedEntityTag
p838
g94
sVCharacterOffsetEnd
p839
V215
p840
sVCharacterOffsetBegin
p841
V212
p842
sVPartOfSpeech
p843
VVB
p844
sVLemma
p845
Vbuy
p846
saa(lp847
V?
p848
a(dp849
VNamedEntityTag
p850
g94
sVCharacterOffsetEnd
p851
V217
p852
sVCharacterOffsetBegin
p853
V216
p854
sVPartOfSpeech
p855
g238
sVLemma
p856
g848
saasVindexeddependencies
p857
(lp858
(lp859
Vroot
p860
aVROOT-0
p861
aVbuy-13
p862
aa(lp863
Vadvmod
p864
aVmany-2
p865
aVHow-1
p866
aa(lp867
Vamod
p868
aVcans-4
p869
aVmany-2
p870
aa(lp871
Vamod
p872
aVcans-4
p873
aVmore-3
p874
aa(lp875
Vdobj
p876
aVbuy-13
p877
aVcans-4
p878
aa(lp879
Vnn
p880
aVfood-7
p881
aVcat-6
p882
aa(lp883
Vprep_of
p884
aVcans-4
p885
aVfood-7
p886
aa(lp887
Vnn
p888
aVfood-10
p889
aVdog-9
p890
aa(lp891
Vprep_than
p892
aVfood-7
p893
aVfood-10
p894
aa(lp895
Vaux
p896
aVbuy-13
p897
aVdid-11
p898
aa(lp899
Vnsubj
p900
aVbuy-13
p901
aVAdam-12
p902
aasas.