(dp0
Vcoref
p1
(lp2
(lp3
(lp4
(lp5
Vhis
p6
aI0
aI3
aI3
aI4
aa(lp7
VBilly
p8
aI0
aI0
aI0
aI1
aaa(lp9
(lp10
VHe
p11
aI1
aI0
aI0
aI1
aa(lp12
VBilly
p13
aI0
aI0
aI0
aI1
aaa(lp14
(lp15
Vhe
p16
aI2
aI13
aI13
aI14
aa(lp17
VBilly
p18
aI0
aI0
aI0
aI1
aaaa(lp19
(lp20
(lp21
Vit
p22
aI2
aI7
aI7
aI8
aa(lp23
Veach pile
p24
aI2
aI2
aI1
aI3
aaaasVsentences
p25
(lp26
(dp27
Vparsetree
p28
V(ROOT (S (NP (NNP Billy)) (VP (VBD was) (VP (VBG putting) (NP (PRP$ his) (JJ spare) (NN change)) (PP (IN into) (NP (NNS piles))))) (. .)))
p29
sVtext
p30
VBilly was putting his spare change into piles .
p31
sVdependencies
p32
(lp33
(lp34
Vroot
p35
aVROOT
p36
aVputting
p37
aa(lp38
Vnsubj
p39
aVputting
p40
aVBilly
p41
aa(lp42
Vaux
p43
aVputting
p44
aVwas
p45
aa(lp46
Vposs
p47
aVchange
p48
aVhis
p49
aa(lp50
Vamod
p51
aVchange
p52
aVspare
p53
aa(lp54
Vdobj
p55
aVputting
p56
aVchange
p57
aa(lp58
Vprep_into
p59
aVputting
p60
aVpiles
p61
aasVwords
p62
(lp63
(lp64
VBilly
p65
a(dp66
VNamedEntityTag
p67
VPERSON
p68
sVCharacterOffsetEnd
p69
V6
p70
sVCharacterOffsetBegin
p71
V1
p72
sVPartOfSpeech
p73
VNNP
p74
sVLemma
p75
VBilly
p76
saa(lp77
Vwas
p78
a(dp79
VNamedEntityTag
p80
VO
p81
sVCharacterOffsetEnd
p82
V10
p83
sVCharacterOffsetBegin
p84
V7
p85
sVPartOfSpeech
p86
VVBD
p87
sVLemma
p88
Vbe
p89
saa(lp90
Vputting
p91
a(dp92
VNamedEntityTag
p93
g81
sVCharacterOffsetEnd
p94
V18
p95
sVCharacterOffsetBegin
p96
V11
p97
sVPartOfSpeech
p98
VVBG
p99
sVLemma
p100
Vput
p101
saa(lp102
Vhis
p103
a(dp104
VNamedEntityTag
p105
g81
sVCharacterOffsetEnd
p106
V22
p107
sVCharacterOffsetBegin
p108
V19
p109
sVPartOfSpeech
p110
VPRP$
p111
sVLemma
p112
Vhe
p113
saa(lp114
Vspare
p115
a(dp116
VNamedEntityTag
p117
g81
sVCharacterOffsetEnd
p118
V28
p119
sVCharacterOffsetBegin
p120
V23
p121
sVPartOfSpeech
p122
VJJ
p123
sVLemma
p124
Vspare
p125
saa(lp126
Vchange
p127
a(dp128
VNamedEntityTag
p129
g81
sVCharacterOffsetEnd
p130
V35
p131
sVCharacterOffsetBegin
p132
V29
p133
sVPartOfSpeech
p134
VNN
p135
sVLemma
p136
Vchange
p137
saa(lp138
Vinto
p139
a(dp140
VNamedEntityTag
p141
g81
sVCharacterOffsetEnd
p142
V40
p143
sVCharacterOffsetBegin
p144
V36
p145
sVPartOfSpeech
p146
VIN
p147
sVLemma
p148
Vinto
p149
saa(lp150
Vpiles
p151
a(dp152
VNamedEntityTag
p153
g81
sVCharacterOffsetEnd
p154
V46
p155
sVCharacterOffsetBegin
p156
V41
p157
sVPartOfSpeech
p158
VNNS
p159
sVLemma
p160
Vpile
p161
saa(lp162
V.
p163
a(dp164
VNamedEntityTag
p165
g81
sVCharacterOffsetEnd
p166
V48
p167
sVCharacterOffsetBegin
p168
V47
p169
sVPartOfSpeech
p170
g163
sVLemma
p171
g163
saasVindexeddependencies
p172
(lp173
(lp174
Vroot
p175
aVROOT-0
p176
aVputting-3
p177
aa(lp178
Vnsubj
p179
aVputting-3
p180
aVBilly-1
p181
aa(lp182
Vaux
p183
aVputting-3
p184
aVwas-2
p185
aa(lp186
Vposs
p187
aVchange-6
p188
aVhis-4
p189
aa(lp190
Vamod
p191
aVchange-6
p192
aVspare-5
p193
aa(lp194
Vdobj
p195
aVputting-3
p196
aVchange-6
p197
aa(lp198
Vprep_into
p199
aVputting-3
p200
aVpiles-8
p201
aasa(dp202
Vparsetree
p203
V(ROOT (S (NP (PRP He)) (VP (VBD had) (NP (NP (NP (CD 2) (NNS piles)) (PP (IN of) (NP (NNS quarters)))) (CC and) (NP (NP (CD 3) (NNS piles)) (PP (IN of) (NP (NNS dimes)))))) (. .)))
p204
sVtext
p205
VHe had 2 piles of quarters and 3 piles of dimes .
p206
sVdependencies
p207
(lp208
(lp209
Vroot
p210
aVROOT
p211
aVhad
p212
aa(lp213
Vnsubj
p214
aVhad
p215
aVHe
p216
aa(lp217
Vnum
p218
aVpiles
p219
aV2
p220
aa(lp221
Vdobj
p222
aVhad
p223
aVpiles
p224
aa(lp225
Vprep_of
p226
aVpiles
p227
aVquarters
p228
aa(lp229
Vnum
p230
aVpiles
p231
aV3
p232
aa(lp233
Vconj_and
p234
aVpiles
p235
aVpiles
p236
aa(lp237
Vprep_of
p238
aVpiles
p239
aVdimes
p240
aasVwords
p241
(lp242
(lp243
VHe
p244
a(dp245
VNamedEntityTag
p246
g81
sVCharacterOffsetEnd
p247
V51
p248
sVCharacterOffsetBegin
p249
V49
p250
sVPartOfSpeech
p251
VPRP
p252
sVLemma
p253
Vhe
p254
saa(lp255
Vhad
p256
a(dp257
VNamedEntityTag
p258
g81
sVCharacterOffsetEnd
p259
V55
p260
sVCharacterOffsetBegin
p261
V52
p262
sVPartOfSpeech
p263
VVBD
p264
sVLemma
p265
Vhave
p266
saa(lp267
g220
a(dp268
VNormalizedNamedEntityTag
p269
V2.0
p270
sVLemma
p271
g220
sVCharacterOffsetEnd
p272
V57
p273
sVPartOfSpeech
p274
VCD
p275
sVCharacterOffsetBegin
p276
V56
p277
sVNamedEntityTag
p278
VNUMBER
p279
saa(lp280
Vpiles
p281
a(dp282
VNamedEntityTag
p283
g81
sVCharacterOffsetEnd
p284
V63
p285
sVCharacterOffsetBegin
p286
V58
p287
sVPartOfSpeech
p288
VNNS
p289
sVLemma
p290
Vpile
p291
saa(lp292
Vof
p293
a(dp294
VNamedEntityTag
p295
g81
sVCharacterOffsetEnd
p296
V66
p297
sVCharacterOffsetBegin
p298
V64
p299
sVPartOfSpeech
p300
VIN
p301
sVLemma
p302
Vof
p303
saa(lp304
Vquarters
p305
a(dp306
VNamedEntityTag
p307
g81
sVCharacterOffsetEnd
p308
V75
p309
sVCharacterOffsetBegin
p310
V67
p311
sVPartOfSpeech
p312
VNNS
p313
sVLemma
p314
Vquarter
p315
saa(lp316
Vand
p317
a(dp318
VNamedEntityTag
p319
g81
sVCharacterOffsetEnd
p320
V79
p321
sVCharacterOffsetBegin
p322
V76
p323
sVPartOfSpeech
p324
VCC
p325
sVLemma
p326
Vand
p327
saa(lp328
g232
a(dp329
VNormalizedNamedEntityTag
p330
V3.0
p331
sVLemma
p332
g232
sVCharacterOffsetEnd
p333
V81
p334
sVPartOfSpeech
p335
VCD
p336
sVCharacterOffsetBegin
p337
V80
p338
sVNamedEntityTag
p339
VNUMBER
p340
saa(lp341
Vpiles
p342
a(dp343
VNamedEntityTag
p344
g81
sVCharacterOffsetEnd
p345
V87
p346
sVCharacterOffsetBegin
p347
V82
p348
sVPartOfSpeech
p349
VNNS
p350
sVLemma
p351
Vpile
p352
saa(lp353
Vof
p354
a(dp355
VNamedEntityTag
p356
g81
sVCharacterOffsetEnd
p357
V90
p358
sVCharacterOffsetBegin
p359
V88
p360
sVPartOfSpeech
p361
VIN
p362
sVLemma
p363
Vof
p364
saa(lp365
Vdimes
p366
a(dp367
VNamedEntityTag
p368
g81
sVCharacterOffsetEnd
p369
V96
p370
sVCharacterOffsetBegin
p371
V91
p372
sVPartOfSpeech
p373
VNNS
p374
sVLemma
p375
Vdime
p376
saa(lp377
g163
a(dp378
VNamedEntityTag
p379
g81
sVCharacterOffsetEnd
p380
V98
p381
sVCharacterOffsetBegin
p382
V97
p383
sVPartOfSpeech
p384
g163
sVLemma
p385
g163
saasVindexeddependencies
p386
(lp387
(lp388
Vroot
p389
aVROOT-0
p390
aVhad-2
p391
aa(lp392
Vnsubj
p393
aVhad-2
p394
aVHe-1
p395
aa(lp396
Vnum
p397
aVpiles-4
p398
aV2-3
p399
aa(lp400
Vdobj
p401
aVhad-2
p402
aVpiles-4
p403
aa(lp404
Vprep_of
p405
aVpiles-4
p406
aVquarters-6
p407
aa(lp408
Vnum
p409
aVpiles-9
p410
aV3-8
p411
aa(lp412
Vconj_and
p413
aVpiles-4
p414
aVpiles-9
p415
aa(lp416
Vprep_of
p417
aVpiles-9
p418
aVdimes-11
p419
aasa(dp420
Vparsetree
p421
V(ROOT (SBARQ (SBAR (IN If) (S (NP (DT each) (NN pile)) (VP (VBD had) (NP (NP (CD 4) (NNS coins)) (PP (IN in) (NP (PRP it))))))) (, ,) (WHNP (WHADJP (WRB how) (JJ many)) (NNS coins)) (SQ (VBD did) (NP (PRP he)) (VP (VB have) (NP (NN total)))) (. ?)))
p422
sVtext
p423
VIf each pile had 4 coins in it , how many coins did he have total ?
p424
sVdependencies
p425
(lp426
(lp427
Vroot
p428
aVROOT
p429
aVhave
p430
aa(lp431
Vmark
p432
aVhad
p433
aVIf
p434
aa(lp435
Vdet
p436
aVpile
p437
aVeach
p438
aa(lp439
Vnsubj
p440
aVhad
p441
aVpile
p442
aa(lp443
Vadvcl
p444
aVhave
p445
aVhad
p446
aa(lp447
Vnum
p448
aVcoins
p449
aV4
p450
aa(lp451
Vdobj
p452
aVhad
p453
aVcoins
p454
aa(lp455
Vprep_in
p456
aVcoins
p457
aVit
p458
aa(lp459
Vadvmod
p460
aVmany
p461
aVhow
p462
aa(lp463
Vamod
p464
aVcoins
p465
aVmany
p466
aa(lp467
Vdep
p468
aVhave
p469
aVcoins
p470
aa(lp471
Vaux
p472
aVhave
p473
aVdid
p474
aa(lp475
Vnsubj
p476
aVhave
p477
aVhe
p478
aa(lp479
Vdobj
p480
aVhave
p481
aVtotal
p482
aasVwords
p483
(lp484
(lp485
VIf
p486
a(dp487
VNamedEntityTag
p488
g81
sVCharacterOffsetEnd
p489
V101
p490
sVCharacterOffsetBegin
p491
V99
p492
sVPartOfSpeech
p493
VIN
p494
sVLemma
p495
Vif
p496
saa(lp497
Veach
p498
a(dp499
VNamedEntityTag
p500
g81
sVCharacterOffsetEnd
p501
V106
p502
sVCharacterOffsetBegin
p503
V102
p504
sVPartOfSpeech
p505
VDT
p506
sVLemma
p507
Veach
p508
saa(lp509
Vpile
p510
a(dp511
VNamedEntityTag
p512
g81
sVCharacterOffsetEnd
p513
V111
p514
sVCharacterOffsetBegin
p515
V107
p516
sVPartOfSpeech
p517
VNN
p518
sVLemma
p519
Vpile
p520
saa(lp521
Vhad
p522
a(dp523
VNamedEntityTag
p524
g81
sVCharacterOffsetEnd
p525
V115
p526
sVCharacterOffsetBegin
p527
V112
p528
sVPartOfSpeech
p529
VVBD
p530
sVLemma
p531
Vhave
p532
saa(lp533
g450
a(dp534
VNormalizedNamedEntityTag
p535
V4.0
p536
sVLemma
p537
g450
sVCharacterOffsetEnd
p538
V117
p539
sVPartOfSpeech
p540
VCD
p541
sVCharacterOffsetBegin
p542
V116
p543
sVNamedEntityTag
p544
VNUMBER
p545
saa(lp546
Vcoins
p547
a(dp548
VNamedEntityTag
p549
g81
sVCharacterOffsetEnd
p550
V123
p551
sVCharacterOffsetBegin
p552
V118
p553
sVPartOfSpeech
p554
VNNS
p555
sVLemma
p556
Vcoin
p557
saa(lp558
Vin
p559
a(dp560
VNamedEntityTag
p561
g81
sVCharacterOffsetEnd
p562
V126
p563
sVCharacterOffsetBegin
p564
V124
p565
sVPartOfSpeech
p566
VIN
p567
sVLemma
p568
Vin
p569
saa(lp570
Vit
p571
a(dp572
VNamedEntityTag
p573
g81
sVCharacterOffsetEnd
p574
V129
p575
sVCharacterOffsetBegin
p576
V127
p577
sVPartOfSpeech
p578
VPRP
p579
sVLemma
p580
Vit
p581
saa(lp582
V,
p583
a(dp584
VNamedEntityTag
p585
g81
sVCharacterOffsetEnd
p586
V131
p587
sVCharacterOffsetBegin
p588
V130
p589
sVPartOfSpeech
p590
g583
sVLemma
p591
g583
saa(lp592
Vhow
p593
a(dp594
VNamedEntityTag
p595
g81
sVCharacterOffsetEnd
p596
V135
p597
sVCharacterOffsetBegin
p598
V132
p599
sVPartOfSpeech
p600
VWRB
p601
sVLemma
p602
Vhow
p603
saa(lp604
Vmany
p605
a(dp606
VNamedEntityTag
p607
g81
sVCharacterOffsetEnd
p608
V140
p609
sVCharacterOffsetBegin
p610
V136
p611
sVPartOfSpeech
p612
VJJ
p613
sVLemma
p614
Vmany
p615
saa(lp616
Vcoins
p617
a(dp618
VNamedEntityTag
p619
g81
sVCharacterOffsetEnd
p620
V146
p621
sVCharacterOffsetBegin
p622
V141
p623
sVPartOfSpeech
p624
VNNS
p625
sVLemma
p626
Vcoin
p627
saa(lp628
Vdid
p629
a(dp630
VNamedEntityTag
p631
g81
sVCharacterOffsetEnd
p632
V150
p633
sVCharacterOffsetBegin
p634
V147
p635
sVPartOfSpeech
p636
VVBD
p637
sVLemma
p638
Vdo
p639
saa(lp640
Vhe
p641
a(dp642
VNamedEntityTag
p643
g81
sVCharacterOffsetEnd
p644
V153
p645
sVCharacterOffsetBegin
p646
V151
p647
sVPartOfSpeech
p648
VPRP
p649
sVLemma
p650
Vhe
p651
saa(lp652
Vhave
p653
a(dp654
VNamedEntityTag
p655
g81
sVCharacterOffsetEnd
p656
V158
p657
sVCharacterOffsetBegin
p658
V154
p659
sVPartOfSpeech
p660
VVB
p661
sVLemma
p662
Vhave
p663
saa(lp664
Vtotal
p665
a(dp666
VNamedEntityTag
p667
g81
sVCharacterOffsetEnd
p668
V164
p669
sVCharacterOffsetBegin
p670
V159
p671
sVPartOfSpeech
p672
VNN
p673
sVLemma
p674
Vtotal
p675
saa(lp676
V?
p677
a(dp678
VNamedEntityTag
p679
g81
sVCharacterOffsetEnd
p680
V166
p681
sVCharacterOffsetBegin
p682
V165
p683
sVPartOfSpeech
p684
g163
sVLemma
p685
g677
saasVindexeddependencies
p686
(lp687
(lp688
Vroot
p689
aVROOT-0
p690
aVhave-15
p691
aa(lp692
Vmark
p693
aVhad-4
p694
aVIf-1
p695
aa(lp696
Vdet
p697
aVpile-3
p698
aVeach-2
p699
aa(lp700
Vnsubj
p701
aVhad-4
p702
aVpile-3
p703
aa(lp704
Vadvcl
p705
aVhave-15
p706
aVhad-4
p707
aa(lp708
Vnum
p709
aVcoins-6
p710
aV4-5
p711
aa(lp712
Vdobj
p713
aVhad-4
p714
aVcoins-6
p715
aa(lp716
Vprep_in
p717
aVcoins-6
p718
aVit-8
p719
aa(lp720
Vadvmod
p721
aVmany-11
p722
aVhow-10
p723
aa(lp724
Vamod
p725
aVcoins-12
p726
aVmany-11
p727
aa(lp728
Vdep
p729
aVhave-15
p730
aVcoins-12
p731
aa(lp732
Vaux
p733
aVhave-15
p734
aVdid-13
p735
aa(lp736
Vnsubj
p737
aVhave-15
p738
aVhe-14
p739
aa(lp740
Vdobj
p741
aVhave-15
p742
aVtotal-16
p743
aasas.