(dp0
Vcoref
p1
(lp2
(lp3
(lp4
(lp5
Vshe
p6
aI0
aI7
aI7
aI8
aa(lp7
VChloe
p8
aI0
aI0
aI0
aI1
aaa(lp9
(lp10
Vshe
p11
aI0
aI14
aI14
aI15
aa(lp12
VChloe
p13
aI0
aI0
aI0
aI1
aaa(lp14
(lp15
Vshe
p16
aI1
aI1
aI1
aI2
aa(lp17
VChloe
p18
aI0
aI0
aI0
aI1
aaa(lp19
(lp20
Vher
p21
aI1
aI17
aI17
aI18
aa(lp22
VChloe
p23
aI0
aI0
aI0
aI1
aaaasVsentences
p24
(lp25
(dp26
Vparsetree
p27
V(ROOT (S (NP (NNP Chloe)) (VP (VBD was) (VP (VBG playing) (NP (NP (DT a) (NN video) (NN game)) (SBAR (WHADVP (WRB where)) (S (NP (PRP she)) (NP (NNS scores))))) (PP (NP (CD 9) (NNS points)) (IN for) (NP (NP (DT each) (NN treasure)) (SBAR (S (NP (PRP she)) (VP (VBZ finds)))))))) (. .)))
p28
sVtext
p29
VChloe was playing a video game where she scores 9 points for each treasure she finds .
p30
sVdependencies
p31
(lp32
(lp33
Vroot
p34
aVROOT
p35
aVplaying
p36
aa(lp37
Vnsubj
p38
aVplaying
p39
aVChloe
p40
aa(lp41
Vaux
p42
aVplaying
p43
aVwas
p44
aa(lp45
Vdet
p46
aVgame
p47
aVa
p48
aa(lp49
Vnn
p50
aVgame
p51
aVvideo
p52
aa(lp53
Vdobj
p54
aVplaying
p55
aVgame
p56
aa(lp57
Vadvmod
p58
aVscores
p59
aVwhere
p60
aa(lp61
Vdep
p62
aVscores
p63
aVshe
p64
aa(lp65
Vrcmod
p66
aVgame
p67
aVscores
p68
aa(lp69
Vnum
p70
aVpoints
p71
aV9
p72
aa(lp73
Vnpadvmod
p74
aVplaying
p75
aVpoints
p76
aa(lp77
Vdet
p78
aVtreasure
p79
aVeach
p80
aa(lp81
Vprep_for
p82
aVplaying
p83
aVtreasure
p84
aa(lp85
Vnsubj
p86
aVfinds
p87
aVshe
p88
aa(lp89
Vrcmod
p90
aVtreasure
p91
aVfinds
p92
aasVwords
p93
(lp94
(lp95
VChloe
p96
a(dp97
VNamedEntityTag
p98
VPERSON
p99
sVCharacterOffsetEnd
p100
V6
p101
sVCharacterOffsetBegin
p102
V1
p103
sVPartOfSpeech
p104
VNNP
p105
sVLemma
p106
VChloe
p107
saa(lp108
Vwas
p109
a(dp110
VNamedEntityTag
p111
VO
p112
sVCharacterOffsetEnd
p113
V10
p114
sVCharacterOffsetBegin
p115
V7
p116
sVPartOfSpeech
p117
VVBD
p118
sVLemma
p119
Vbe
p120
saa(lp121
Vplaying
p122
a(dp123
VNamedEntityTag
p124
g112
sVCharacterOffsetEnd
p125
V18
p126
sVCharacterOffsetBegin
p127
V11
p128
sVPartOfSpeech
p129
VVBG
p130
sVLemma
p131
Vplay
p132
saa(lp133
g48
a(dp134
VNamedEntityTag
p135
g112
sVCharacterOffsetEnd
p136
V20
p137
sVCharacterOffsetBegin
p138
V19
p139
sVPartOfSpeech
p140
VDT
p141
sVLemma
p142
g48
saa(lp143
Vvideo
p144
a(dp145
VNamedEntityTag
p146
g112
sVCharacterOffsetEnd
p147
V26
p148
sVCharacterOffsetBegin
p149
V21
p150
sVPartOfSpeech
p151
VNN
p152
sVLemma
p153
Vvideo
p154
saa(lp155
Vgame
p156
a(dp157
VNamedEntityTag
p158
g112
sVCharacterOffsetEnd
p159
V31
p160
sVCharacterOffsetBegin
p161
V27
p162
sVPartOfSpeech
p163
VNN
p164
sVLemma
p165
Vgame
p166
saa(lp167
Vwhere
p168
a(dp169
VNamedEntityTag
p170
g112
sVCharacterOffsetEnd
p171
V37
p172
sVCharacterOffsetBegin
p173
V32
p174
sVPartOfSpeech
p175
VWRB
p176
sVLemma
p177
Vwhere
p178
saa(lp179
Vshe
p180
a(dp181
VNamedEntityTag
p182
g112
sVCharacterOffsetEnd
p183
V41
p184
sVCharacterOffsetBegin
p185
V38
p186
sVPartOfSpeech
p187
VPRP
p188
sVLemma
p189
Vshe
p190
saa(lp191
Vscores
p192
a(dp193
VNamedEntityTag
p194
g112
sVCharacterOffsetEnd
p195
V48
p196
sVCharacterOffsetBegin
p197
V42
p198
sVPartOfSpeech
p199
VNNS
p200
sVLemma
p201
Vscore
p202
saa(lp203
g72
a(dp204
VNormalizedNamedEntityTag
p205
V9.0
p206
sVLemma
p207
g72
sVCharacterOffsetEnd
p208
V50
p209
sVPartOfSpeech
p210
VCD
p211
sVCharacterOffsetBegin
p212
V49
p213
sVNamedEntityTag
p214
VNUMBER
p215
saa(lp216
Vpoints
p217
a(dp218
VNamedEntityTag
p219
g112
sVCharacterOffsetEnd
p220
V57
p221
sVCharacterOffsetBegin
p222
V51
p223
sVPartOfSpeech
p224
VNNS
p225
sVLemma
p226
Vpoint
p227
saa(lp228
Vfor
p229
a(dp230
VNamedEntityTag
p231
g112
sVCharacterOffsetEnd
p232
V61
p233
sVCharacterOffsetBegin
p234
V58
p235
sVPartOfSpeech
p236
VIN
p237
sVLemma
p238
Vfor
p239
saa(lp240
Veach
p241
a(dp242
VNamedEntityTag
p243
g112
sVCharacterOffsetEnd
p244
V66
p245
sVCharacterOffsetBegin
p246
V62
p247
sVPartOfSpeech
p248
VDT
p249
sVLemma
p250
Veach
p251
saa(lp252
Vtreasure
p253
a(dp254
VNamedEntityTag
p255
g112
sVCharacterOffsetEnd
p256
V75
p257
sVCharacterOffsetBegin
p258
V67
p259
sVPartOfSpeech
p260
VNN
p261
sVLemma
p262
Vtreasure
p263
saa(lp264
Vshe
p265
a(dp266
VNamedEntityTag
p267
g112
sVCharacterOffsetEnd
p268
V79
p269
sVCharacterOffsetBegin
p270
V76
p271
sVPartOfSpeech
p272
VPRP
p273
sVLemma
p274
Vshe
p275
saa(lp276
Vfinds
p277
a(dp278
VNamedEntityTag
p279
g112
sVCharacterOffsetEnd
p280
V85
p281
sVCharacterOffsetBegin
p282
V80
p283
sVPartOfSpeech
p284
VVBZ
p285
sVLemma
p286
Vfind
p287
saa(lp288
V.
p289
a(dp290
VNamedEntityTag
p291
g112
sVCharacterOffsetEnd
p292
V87
p293
sVCharacterOffsetBegin
p294
V86
p295
sVPartOfSpeech
p296
g289
sVLemma
p297
g289
saasVindexeddependencies
p298
(lp299
(lp300
Vroot
p301
aVROOT-0
p302
aVplaying-3
p303
aa(lp304
Vnsubj
p305
aVplaying-3
p306
aVChloe-1
p307
aa(lp308
Vaux
p309
aVplaying-3
p310
aVwas-2
p311
aa(lp312
Vdet
p313
aVgame-6
p314
aVa-4
p315
aa(lp316
Vnn
p317
aVgame-6
p318
aVvideo-5
p319
aa(lp320
Vdobj
p321
aVplaying-3
p322
aVgame-6
p323
aa(lp324
Vadvmod
p325
aVscores-9
p326
aVwhere-7
p327
aa(lp328
Vdep
p329
aVscores-9
p330
aVshe-8
p331
aa(lp332
Vrcmod
p333
aVgame-6
p334
aVscores-9
p335
aa(lp336
Vnum
p337
aVpoints-11
p338
aV9-10
p339
aa(lp340
Vnpadvmod
p341
aVplaying-3
p342
aVpoints-11
p343
aa(lp344
Vdet
p345
aVtreasure-14
p346
aVeach-13
p347
aa(lp348
Vprep_for
p349
aVplaying-3
p350
aVtreasure-14
p351
aa(lp352
Vnsubj
p353
aVfinds-16
p354
aVshe-15
p355
aa(lp356
Vrcmod
p357
aVtreasure-14
p358
aVfinds-16
p359
aasa(dp360
Vparsetree
p361
V(ROOT (SBARQ (SBAR (IN If) (S (NP (PRP she)) (VP (VBD found) (NP (CD 6) (NNS treasures)) (PP (IN on) (NP (NP (DT the) (JJ first) (NN level)) (CC and) (NP (CD 3)))) (PP (IN on) (NP (DT the) (JJ second)))))) (, ,) (WHNP (WP what)) (SQ (MD would) (NP (PRP$ her) (NN score)) (VP (VB be))) (. ?)))
p362
sVtext
p363
VIf she found 6 treasures on the first level and 3 on the second , what would her score be ?
p364
sVdependencies
p365
(lp366
(lp367
Vroot
p368
aVROOT
p369
aVbe
p370
aa(lp371
Vmark
p372
aVfound
p373
aVIf
p374
aa(lp375
Vnsubj
p376
aVfound
p377
aVshe
p378
aa(lp379
Vadvcl
p380
aVbe
p381
aVfound
p382
aa(lp383
Vnum
p384
aVtreasures
p385
ag101
aa(lp386
Vdobj
p387
aVfound
p388
aVtreasures
p389
aa(lp390
Vdet
p391
aVlevel
p392
aVthe
p393
aa(lp394
Vamod
p395
aVlevel
p396
aVfirst
p397
aa(lp398
Vprep_on
p399
aVfound
p400
aVlevel
p401
aa(lp402
Vconj_and
p403
aVlevel
p404
aV3
p405
aa(lp406
Vdet
p407
aVsecond
p408
aVthe
p409
aa(lp410
Vprep_on
p411
aVfound
p412
aVsecond
p413
aa(lp414
Vdobj
p415
aVbe
p416
aVwhat
p417
aa(lp418
Vaux
p419
aVbe
p420
aVwould
p421
aa(lp422
Vposs
p423
aVscore
p424
aVher
p425
aa(lp426
Vnsubj
p427
aVbe
p428
aVscore
p429
aasVwords
p430
(lp431
(lp432
VIf
p433
a(dp434
VNamedEntityTag
p435
g112
sVCharacterOffsetEnd
p436
V90
p437
sVCharacterOffsetBegin
p438
V88
p439
sVPartOfSpeech
p440
VIN
p441
sVLemma
p442
Vif
p443
saa(lp444
Vshe
p445
a(dp446
VNamedEntityTag
p447
g112
sVCharacterOffsetEnd
p448
V94
p449
sVCharacterOffsetBegin
p450
V91
p451
sVPartOfSpeech
p452
VPRP
p453
sVLemma
p454
Vshe
p455
saa(lp456
Vfound
p457
a(dp458
VNamedEntityTag
p459
g112
sVCharacterOffsetEnd
p460
V100
p461
sVCharacterOffsetBegin
p462
V95
p463
sVPartOfSpeech
p464
VVBD
p465
sVLemma
p466
Vfind
p467
saa(lp468
g101
a(dp469
VNormalizedNamedEntityTag
p470
V6.0
p471
sVLemma
p472
g101
sVCharacterOffsetEnd
p473
V102
p474
sVPartOfSpeech
p475
VCD
p476
sVCharacterOffsetBegin
p477
V101
p478
sVNamedEntityTag
p479
VNUMBER
p480
saa(lp481
Vtreasures
p482
a(dp483
VNamedEntityTag
p484
g112
sVCharacterOffsetEnd
p485
V112
p486
sVCharacterOffsetBegin
p487
V103
p488
sVPartOfSpeech
p489
VNNS
p490
sVLemma
p491
Vtreasure
p492
saa(lp493
Von
p494
a(dp495
VNamedEntityTag
p496
g112
sVCharacterOffsetEnd
p497
V115
p498
sVCharacterOffsetBegin
p499
V113
p500
sVPartOfSpeech
p501
VIN
p502
sVLemma
p503
Von
p504
saa(lp505
Vthe
p506
a(dp507
VNamedEntityTag
p508
g112
sVCharacterOffsetEnd
p509
V119
p510
sVCharacterOffsetBegin
p511
V116
p512
sVPartOfSpeech
p513
VDT
p514
sVLemma
p515
Vthe
p516
saa(lp517
Vfirst
p518
a(dp519
VNormalizedNamedEntityTag
p520
V1.0
p521
sVLemma
p522
Vfirst
p523
sVCharacterOffsetEnd
p524
V125
p525
sVPartOfSpeech
p526
VJJ
p527
sVCharacterOffsetBegin
p528
V120
p529
sVNamedEntityTag
p530
VORDINAL
p531
saa(lp532
Vlevel
p533
a(dp534
VNamedEntityTag
p535
g112
sVCharacterOffsetEnd
p536
V131
p537
sVCharacterOffsetBegin
p538
V126
p539
sVPartOfSpeech
p540
VNN
p541
sVLemma
p542
Vlevel
p543
saa(lp544
Vand
p545
a(dp546
VNamedEntityTag
p547
g112
sVCharacterOffsetEnd
p548
V135
p549
sVCharacterOffsetBegin
p550
V132
p551
sVPartOfSpeech
p552
VCC
p553
sVLemma
p554
Vand
p555
saa(lp556
g405
a(dp557
VNormalizedNamedEntityTag
p558
V3.0
p559
sVLemma
p560
g405
sVCharacterOffsetEnd
p561
V137
p562
sVPartOfSpeech
p563
VCD
p564
sVCharacterOffsetBegin
p565
V136
p566
sVNamedEntityTag
p567
VNUMBER
p568
saa(lp569
Von
p570
a(dp571
VNamedEntityTag
p572
g112
sVCharacterOffsetEnd
p573
V140
p574
sVCharacterOffsetBegin
p575
V138
p576
sVPartOfSpeech
p577
VIN
p578
sVLemma
p579
Von
p580
saa(lp581
Vthe
p582
a(dp583
VNamedEntityTag
p584
g112
sVCharacterOffsetEnd
p585
V144
p586
sVCharacterOffsetBegin
p587
V141
p588
sVPartOfSpeech
p589
VDT
p590
sVLemma
p591
Vthe
p592
saa(lp593
Vsecond
p594
a(dp595
VNormalizedNamedEntityTag
p596
V2.0
p597
sVLemma
p598
Vsecond
p599
sVCharacterOffsetEnd
p600
V151
p601
sVPartOfSpeech
p602
VJJ
p603
sVCharacterOffsetBegin
p604
V145
p605
sVNamedEntityTag
p606
VORDINAL
p607
saa(lp608
V,
p609
a(dp610
VNamedEntityTag
p611
g112
sVCharacterOffsetEnd
p612
V153
p613
sVCharacterOffsetBegin
p614
V152
p615
sVPartOfSpeech
p616
g609
sVLemma
p617
g609
saa(lp618
Vwhat
p619
a(dp620
VNamedEntityTag
p621
g112
sVCharacterOffsetEnd
p622
V158
p623
sVCharacterOffsetBegin
p624
V154
p625
sVPartOfSpeech
p626
VWP
p627
sVLemma
p628
Vwhat
p629
saa(lp630
Vwould
p631
a(dp632
VNamedEntityTag
p633
g112
sVCharacterOffsetEnd
p634
V164
p635
sVCharacterOffsetBegin
p636
V159
p637
sVPartOfSpeech
p638
VMD
p639
sVLemma
p640
Vwould
p641
saa(lp642
Vher
p643
a(dp644
VNamedEntityTag
p645
g112
sVCharacterOffsetEnd
p646
V168
p647
sVCharacterOffsetBegin
p648
V165
p649
sVPartOfSpeech
p650
VPRP$
p651
sVLemma
p652
Vshe
p653
saa(lp654
Vscore
p655
a(dp656
VNormalizedNamedEntityTag
p657
V20.0
p658
sVLemma
p659
Vscore
p660
sVCharacterOffsetEnd
p661
V174
p662
sVPartOfSpeech
p663
VNN
p664
sVCharacterOffsetBegin
p665
V169
p666
sVNamedEntityTag
p667
VNUMBER
p668
saa(lp669
Vbe
p670
a(dp671
VNamedEntityTag
p672
g112
sVCharacterOffsetEnd
p673
V177
p674
sVCharacterOffsetBegin
p675
V175
p676
sVPartOfSpeech
p677
VVB
p678
sVLemma
p679
Vbe
p680
saa(lp681
V?
p682
a(dp683
VNamedEntityTag
p684
g112
sVCharacterOffsetEnd
p685
V179
p686
sVCharacterOffsetBegin
p687
V178
p688
sVPartOfSpeech
p689
g289
sVLemma
p690
g682
saasVindexeddependencies
p691
(lp692
(lp693
Vroot
p694
aVROOT-0
p695
aVbe-20
p696
aa(lp697
Vmark
p698
aVfound-3
p699
aVIf-1
p700
aa(lp701
Vnsubj
p702
aVfound-3
p703
aVshe-2
p704
aa(lp705
Vadvcl
p706
aVbe-20
p707
aVfound-3
p708
aa(lp709
Vnum
p710
aVtreasures-5
p711
aV6-4
p712
aa(lp713
Vdobj
p714
aVfound-3
p715
aVtreasures-5
p716
aa(lp717
Vdet
p718
aVlevel-9
p719
aVthe-7
p720
aa(lp721
Vamod
p722
aVlevel-9
p723
aVfirst-8
p724
aa(lp725
Vprep_on
p726
aVfound-3
p727
aVlevel-9
p728
aa(lp729
Vconj_and
p730
aVlevel-9
p731
aV3-11
p732
aa(lp733
Vdet
p734
aVsecond-14
p735
aVthe-13
p736
aa(lp737
Vprep_on
p738
aVfound-3
p739
aVsecond-14
p740
aa(lp741
Vdobj
p742
aVbe-20
p743
aVwhat-16
p744
aa(lp745
Vaux
p746
aVbe-20
p747
aVwould-17
p748
aa(lp749
Vposs
p750
aVscore-19
p751
aVher-18
p752
aa(lp753
Vnsubj
p754
aVbe-20
p755
aVscore-19
p756
aasas.