(dp0
Vcoref
p1
(lp2
(lp3
(lp4
(lp5
Vthe cafeteria
p6
aI1
aI14
aI13
aI15
aa(lp7
VThe school cafeteria
p8
aI0
aI2
aI0
aI3
aaaasVsentences
p9
(lp10
(dp11
Vparsetree
p12
V(ROOT (S (NP (DT The) (NN school) (NN cafeteria)) (VP (VBD ordered) (NP (NP (CD 43) (JJ red) (NNS apples)) (CC and) (NP (CD 32) (JJ green) (NNS apples))) (PP (IN for) (NP (NNS students) (NNS lunches)))) (. .)))
p13
sVtext
p14
VThe school cafeteria ordered 43 red apples and 32 green apples for students lunches .
p15
sVdependencies
p16
(lp17
(lp18
Vroot
p19
aVROOT
p20
aVordered
p21
aa(lp22
Vdet
p23
aVcafeteria
p24
aVThe
p25
aa(lp26
Vnn
p27
aVcafeteria
p28
aVschool
p29
aa(lp30
Vnsubj
p31
aVordered
p32
aVcafeteria
p33
aa(lp34
Vnum
p35
aVapples
p36
aV43
p37
aa(lp38
Vamod
p39
aVapples
p40
aVred
p41
aa(lp42
Vdobj
p43
aVordered
p44
aVapples
p45
aa(lp46
Vnum
p47
aVapples
p48
aV32
p49
aa(lp50
Vamod
p51
aVapples
p52
aVgreen
p53
aa(lp54
Vconj_and
p55
aVapples
p56
aVapples
p57
aa(lp58
Vnn
p59
aVlunches
p60
aVstudents
p61
aa(lp62
Vprep_for
p63
aVordered
p64
aVlunches
p65
aasVwords
p66
(lp67
(lp68
VThe
p69
a(dp70
VNamedEntityTag
p71
VO
p72
sVCharacterOffsetEnd
p73
V4
p74
sVCharacterOffsetBegin
p75
V1
p76
sVPartOfSpeech
p77
VDT
p78
sVLemma
p79
Vthe
p80
saa(lp81
Vschool
p82
a(dp83
VNamedEntityTag
p84
g72
sVCharacterOffsetEnd
p85
V11
p86
sVCharacterOffsetBegin
p87
V5
p88
sVPartOfSpeech
p89
VNN
p90
sVLemma
p91
Vschool
p92
saa(lp93
Vcafeteria
p94
a(dp95
VNamedEntityTag
p96
g72
sVCharacterOffsetEnd
p97
V21
p98
sVCharacterOffsetBegin
p99
V12
p100
sVPartOfSpeech
p101
VNN
p102
sVLemma
p103
Vcafeteria
p104
saa(lp105
Vordered
p106
a(dp107
VNamedEntityTag
p108
g72
sVCharacterOffsetEnd
p109
V29
p110
sVCharacterOffsetBegin
p111
V22
p112
sVPartOfSpeech
p113
VVBD
p114
sVLemma
p115
Vorder
p116
saa(lp117
V43
p118
a(dp119
VNormalizedNamedEntityTag
p120
V43.0
p121
sVLemma
p122
V43
p123
sVCharacterOffsetEnd
p124
V32
p125
sVPartOfSpeech
p126
VCD
p127
sVCharacterOffsetBegin
p128
V30
p129
sVNamedEntityTag
p130
VNUMBER
p131
saa(lp132
Vred
p133
a(dp134
VNamedEntityTag
p135
g72
sVCharacterOffsetEnd
p136
V36
p137
sVCharacterOffsetBegin
p138
V33
p139
sVPartOfSpeech
p140
VJJ
p141
sVLemma
p142
Vred
p143
saa(lp144
Vapples
p145
a(dp146
VNamedEntityTag
p147
g72
sVCharacterOffsetEnd
p148
V43
p149
sVCharacterOffsetBegin
p150
V37
p151
sVPartOfSpeech
p152
VNNS
p153
sVLemma
p154
Vapple
p155
saa(lp156
Vand
p157
a(dp158
VNamedEntityTag
p159
g72
sVCharacterOffsetEnd
p160
V47
p161
sVCharacterOffsetBegin
p162
V44
p163
sVPartOfSpeech
p164
VCC
p165
sVLemma
p166
Vand
p167
saa(lp168
V32
p169
a(dp170
VNormalizedNamedEntityTag
p171
V32.0
p172
sVLemma
p173
V32
p174
sVCharacterOffsetEnd
p175
V50
p176
sVPartOfSpeech
p177
VCD
p178
sVCharacterOffsetBegin
p179
V48
p180
sVNamedEntityTag
p181
VNUMBER
p182
saa(lp183
Vgreen
p184
a(dp185
VNamedEntityTag
p186
g72
sVCharacterOffsetEnd
p187
V56
p188
sVCharacterOffsetBegin
p189
V51
p190
sVPartOfSpeech
p191
VJJ
p192
sVLemma
p193
Vgreen
p194
saa(lp195
Vapples
p196
a(dp197
VNamedEntityTag
p198
g72
sVCharacterOffsetEnd
p199
V63
p200
sVCharacterOffsetBegin
p201
V57
p202
sVPartOfSpeech
p203
VNNS
p204
sVLemma
p205
Vapple
p206
saa(lp207
Vfor
p208
a(dp209
VNamedEntityTag
p210
g72
sVCharacterOffsetEnd
p211
V67
p212
sVCharacterOffsetBegin
p213
V64
p214
sVPartOfSpeech
p215
VIN
p216
sVLemma
p217
Vfor
p218
saa(lp219
Vstudents
p220
a(dp221
VNamedEntityTag
p222
g72
sVCharacterOffsetEnd
p223
V76
p224
sVCharacterOffsetBegin
p225
V68
p226
sVPartOfSpeech
p227
VNNS
p228
sVLemma
p229
Vstudent
p230
saa(lp231
Vlunches
p232
a(dp233
VNamedEntityTag
p234
g72
sVCharacterOffsetEnd
p235
V84
p236
sVCharacterOffsetBegin
p237
V77
p238
sVPartOfSpeech
p239
VNNS
p240
sVLemma
p241
Vlunch
p242
saa(lp243
V.
p244
a(dp245
VNamedEntityTag
p246
g72
sVCharacterOffsetEnd
p247
V86
p248
sVCharacterOffsetBegin
p249
V85
p250
sVPartOfSpeech
p251
g244
sVLemma
p252
g244
saasVindexeddependencies
p253
(lp254
(lp255
Vroot
p256
aVROOT-0
p257
aVordered-4
p258
aa(lp259
Vdet
p260
aVcafeteria-3
p261
aVThe-1
p262
aa(lp263
Vnn
p264
aVcafeteria-3
p265
aVschool-2
p266
aa(lp267
Vnsubj
p268
aVordered-4
p269
aVcafeteria-3
p270
aa(lp271
Vnum
p272
aVapples-7
p273
aV43-5
p274
aa(lp275
Vamod
p276
aVapples-7
p277
aVred-6
p278
aa(lp279
Vdobj
p280
aVordered-4
p281
aVapples-7
p282
aa(lp283
Vnum
p284
aVapples-11
p285
aV32-9
p286
aa(lp287
Vamod
p288
aVapples-11
p289
aVgreen-10
p290
aa(lp291
Vconj_and
p292
aVapples-7
p293
aVapples-11
p294
aa(lp295
Vnn
p296
aVlunches-14
p297
aVstudents-13
p298
aa(lp299
Vprep_for
p300
aVordered-4
p301
aVlunches-14
p302
aasa(dp303
Vparsetree
p304
V(ROOT (SINV (CC But) (, ,) (ADVP (IN if) (NP (RB only) (CD 2) (NNS students))) (VP (VBD wanted)) (NP (NP (NN fruit)) (, ,) (SBAR (WHADJP (WRB how) (JJ many)) (S (NP (JJ extra)) (VP (VBD did) (S (NP (DT the) (NN cafeteria)) (VP (VB end) (PRT (RP up)) (PP (IN with)))))))) (. ?)))
p305
sVtext
p306
VBut , if only 2 students wanted fruit , how many extra did the cafeteria end up with ?
p307
sVdependencies
p308
(lp309
(lp310
Vroot
p311
aVROOT
p312
aVwanted
p313
aa(lp314
Vcc
p315
aVwanted
p316
aVBut
p317
aa(lp318
Vadvmod
p319
aVwanted
p320
aVif
p321
aa(lp322
Vadvmod
p323
aVstudents
p324
aVonly
p325
aa(lp326
Vnum
p327
aVstudents
p328
aV2
p329
aa(lp330
Vpobj
p331
aVif
p332
aVstudents
p333
aa(lp334
Vnsubj
p335
aVwanted
p336
aVfruit
p337
aa(lp338
Vadvmod
p339
aVmany
p340
aVhow
p341
aa(lp342
Vdep
p343
aVdid
p344
aVmany
p345
aa(lp346
Vnsubj
p347
aVdid
p348
aVextra
p349
aa(lp350
Vrcmod
p351
aVfruit
p352
aVdid
p353
aa(lp354
Vdet
p355
aVcafeteria
p356
aVthe
p357
aa(lp358
Vnsubj
p359
aVend
p360
aVcafeteria
p361
aa(lp362
Vccomp
p363
aVdid
p364
aVend
p365
aa(lp366
Vprt
p367
aVend
p368
aVup
p369
aa(lp370
Vprep
p371
aVend
p372
aVwith
p373
aasVwords
p374
(lp375
(lp376
VBut
p377
a(dp378
VNamedEntityTag
p379
g72
sVCharacterOffsetEnd
p380
V90
p381
sVCharacterOffsetBegin
p382
V87
p383
sVPartOfSpeech
p384
VCC
p385
sVLemma
p386
Vbut
p387
saa(lp388
V,
p389
a(dp390
VNamedEntityTag
p391
g72
sVCharacterOffsetEnd
p392
V92
p393
sVCharacterOffsetBegin
p394
V91
p395
sVPartOfSpeech
p396
g389
sVLemma
p397
g389
saa(lp398
Vif
p399
a(dp400
VNamedEntityTag
p401
g72
sVCharacterOffsetEnd
p402
V95
p403
sVCharacterOffsetBegin
p404
V93
p405
sVPartOfSpeech
p406
VIN
p407
sVLemma
p408
Vif
p409
saa(lp410
Vonly
p411
a(dp412
VNamedEntityTag
p413
g72
sVCharacterOffsetEnd
p414
V100
p415
sVCharacterOffsetBegin
p416
V96
p417
sVPartOfSpeech
p418
VRB
p419
sVLemma
p420
Vonly
p421
saa(lp422
g329
a(dp423
VNormalizedNamedEntityTag
p424
V2.0
p425
sVLemma
p426
g329
sVCharacterOffsetEnd
p427
V102
p428
sVPartOfSpeech
p429
VCD
p430
sVCharacterOffsetBegin
p431
V101
p432
sVNamedEntityTag
p433
VNUMBER
p434
saa(lp435
Vstudents
p436
a(dp437
VNamedEntityTag
p438
g72
sVCharacterOffsetEnd
p439
V111
p440
sVCharacterOffsetBegin
p441
V103
p442
sVPartOfSpeech
p443
VNNS
p444
sVLemma
p445
Vstudent
p446
saa(lp447
Vwanted
p448
a(dp449
VNamedEntityTag
p450
g72
sVCharacterOffsetEnd
p451
V118
p452
sVCharacterOffsetBegin
p453
V112
p454
sVPartOfSpeech
p455
VVBD
p456
sVLemma
p457
Vwant
p458
saa(lp459
Vfruit
p460
a(dp461
VNamedEntityTag
p462
g72
sVCharacterOffsetEnd
p463
V124
p464
sVCharacterOffsetBegin
p465
V119
p466
sVPartOfSpeech
p467
VNN
p468
sVLemma
p469
Vfruit
p470
saa(lp471
g389
a(dp472
VNamedEntityTag
p473
g72
sVCharacterOffsetEnd
p474
V126
p475
sVCharacterOffsetBegin
p476
V125
p477
sVPartOfSpeech
p478
g389
sVLemma
p479
g389
saa(lp480
Vhow
p481
a(dp482
VNamedEntityTag
p483
g72
sVCharacterOffsetEnd
p484
V130
p485
sVCharacterOffsetBegin
p486
V127
p487
sVPartOfSpeech
p488
VWRB
p489
sVLemma
p490
Vhow
p491
saa(lp492
Vmany
p493
a(dp494
VNamedEntityTag
p495
g72
sVCharacterOffsetEnd
p496
V135
p497
sVCharacterOffsetBegin
p498
V131
p499
sVPartOfSpeech
p500
VJJ
p501
sVLemma
p502
Vmany
p503
saa(lp504
Vextra
p505
a(dp506
VNamedEntityTag
p507
g72
sVCharacterOffsetEnd
p508
V141
p509
sVCharacterOffsetBegin
p510
V136
p511
sVPartOfSpeech
p512
VJJ
p513
sVLemma
p514
Vextra
p515
saa(lp516
Vdid
p517
a(dp518
VNamedEntityTag
p519
g72
sVCharacterOffsetEnd
p520
V145
p521
sVCharacterOffsetBegin
p522
V142
p523
sVPartOfSpeech
p524
VVBD
p525
sVLemma
p526
Vdo
p527
saa(lp528
Vthe
p529
a(dp530
VNamedEntityTag
p531
g72
sVCharacterOffsetEnd
p532
V149
p533
sVCharacterOffsetBegin
p534
V146
p535
sVPartOfSpeech
p536
VDT
p537
sVLemma
p538
Vthe
p539
saa(lp540
Vcafeteria
p541
a(dp542
VNamedEntityTag
p543
g72
sVCharacterOffsetEnd
p544
V159
p545
sVCharacterOffsetBegin
p546
V150
p547
sVPartOfSpeech
p548
VNN
p549
sVLemma
p550
Vcafeteria
p551
saa(lp552
Vend
p553
a(dp554
VNamedEntityTag
p555
g72
sVCharacterOffsetEnd
p556
V163
p557
sVCharacterOffsetBegin
p558
V160
p559
sVPartOfSpeech
p560
VVB
p561
sVLemma
p562
Vend
p563
saa(lp564
Vup
p565
a(dp566
VNamedEntityTag
p567
g72
sVCharacterOffsetEnd
p568
V166
p569
sVCharacterOffsetBegin
p570
V164
p571
sVPartOfSpeech
p572
VRP
p573
sVLemma
p574
Vup
p575
saa(lp576
Vwith
p577
a(dp578
VNamedEntityTag
p579
g72
sVCharacterOffsetEnd
p580
V171
p581
sVCharacterOffsetBegin
p582
V167
p583
sVPartOfSpeech
p584
VIN
p585
sVLemma
p586
Vwith
p587
saa(lp588
V?
p589
a(dp590
VNamedEntityTag
p591
g72
sVCharacterOffsetEnd
p592
V173
p593
sVCharacterOffsetBegin
p594
V172
p595
sVPartOfSpeech
p596
g244
sVLemma
p597
g589
saasVindexeddependencies
p598
(lp599
(lp600
Vroot
p601
aVROOT-0
p602
aVwanted-7
p603
aa(lp604
Vcc
p605
aVwanted-7
p606
aVBut-1
p607
aa(lp608
Vadvmod
p609
aVwanted-7
p610
aVif-3
p611
aa(lp612
Vadvmod
p613
aVstudents-6
p614
aVonly-4
p615
aa(lp616
Vnum
p617
aVstudents-6
p618
aV2-5
p619
aa(lp620
Vpobj
p621
aVif-3
p622
aVstudents-6
p623
aa(lp624
Vnsubj
p625
aVwanted-7
p626
aVfruit-8
p627
aa(lp628
Vadvmod
p629
aVmany-11
p630
aVhow-10
p631
aa(lp632
Vdep
p633
aVdid-13
p634
aVmany-11
p635
aa(lp636
Vnsubj
p637
aVdid-13
p638
aVextra-12
p639
aa(lp640
Vrcmod
p641
aVfruit-8
p642
aVdid-13
p643
aa(lp644
Vdet
p645
aVcafeteria-15
p646
aVthe-14
p647
aa(lp648
Vnsubj
p649
aVend-16
p650
aVcafeteria-15
p651
aa(lp652
Vccomp
p653
aVdid-13
p654
aVend-16
p655
aa(lp656
Vprt
p657
aVend-16
p658
aVup-17
p659
aa(lp660
Vprep
p661
aVend-16
p662
aVwith-18
p663
aasas.