(dp0
Vcoref
p1
(lp2
(lp3
(lp4
(lp5
Vher
p6
aI0
aI5
aI5
aI6
aa(lp7
VLana
p8
aI0
aI0
aI0
aI1
aaa(lp9
(lp10
VShe
p11
aI1
aI0
aI0
aI1
aa(lp12
VLana
p13
aI0
aI0
aI0
aI1
aaa(lp14
(lp15
VLana
p16
aI2
aI7
aI7
aI8
aa(lp17
VLana
p18
aI0
aI0
aI0
aI1
aaaa(lp19
(lp20
(lp21
V3
p22
aI1
aI12
aI12
aI13
aa(lp23
g22
aI1
aI2
aI2
aI3
aaaasVsentences
p24
(lp25
(dp26
Vparsetree
p27
V(ROOT (S (NP (NNP Lana)) (VP (VBD was) (VP (VBG unboxing) (NP (NP (DT some)) (PP (IN of) (NP (PRP$ her) (JJ old) (NN winter) (NNS clothes)))))) (. .)))
p28
sVtext
p29
VLana was unboxing some of her old winter clothes .
p30
sVdependencies
p31
(lp32
(lp33
Vroot
p34
aVROOT
p35
aVunboxing
p36
aa(lp37
Vnsubj
p38
aVunboxing
p39
aVLana
p40
aa(lp41
Vaux
p42
aVunboxing
p43
aVwas
p44
aa(lp45
Vdobj
p46
aVunboxing
p47
aVsome
p48
aa(lp49
Vposs
p50
aVclothes
p51
aVher
p52
aa(lp53
Vamod
p54
aVclothes
p55
aVold
p56
aa(lp57
Vnn
p58
aVclothes
p59
aVwinter
p60
aa(lp61
Vprep_of
p62
aVsome
p63
aVclothes
p64
aasVwords
p65
(lp66
(lp67
VLana
p68
a(dp69
VNamedEntityTag
p70
VPERSON
p71
sVCharacterOffsetEnd
p72
V5
p73
sVCharacterOffsetBegin
p74
V1
p75
sVPartOfSpeech
p76
VNNP
p77
sVLemma
p78
VLana
p79
saa(lp80
Vwas
p81
a(dp82
VNamedEntityTag
p83
VO
p84
sVCharacterOffsetEnd
p85
V9
p86
sVCharacterOffsetBegin
p87
V6
p88
sVPartOfSpeech
p89
VVBD
p90
sVLemma
p91
Vbe
p92
saa(lp93
Vunboxing
p94
a(dp95
VNamedEntityTag
p96
g84
sVCharacterOffsetEnd
p97
V18
p98
sVCharacterOffsetBegin
p99
V10
p100
sVPartOfSpeech
p101
VVBG
p102
sVLemma
p103
Vunbox
p104
saa(lp105
Vsome
p106
a(dp107
VNamedEntityTag
p108
g84
sVCharacterOffsetEnd
p109
V23
p110
sVCharacterOffsetBegin
p111
V19
p112
sVPartOfSpeech
p113
VDT
p114
sVLemma
p115
Vsome
p116
saa(lp117
Vof
p118
a(dp119
VNamedEntityTag
p120
g84
sVCharacterOffsetEnd
p121
V26
p122
sVCharacterOffsetBegin
p123
V24
p124
sVPartOfSpeech
p125
VIN
p126
sVLemma
p127
Vof
p128
saa(lp129
Vher
p130
a(dp131
VNamedEntityTag
p132
g84
sVCharacterOffsetEnd
p133
V30
p134
sVCharacterOffsetBegin
p135
V27
p136
sVPartOfSpeech
p137
VPRP$
p138
sVLemma
p139
Vshe
p140
saa(lp141
Vold
p142
a(dp143
VNamedEntityTag
p144
g84
sVCharacterOffsetEnd
p145
V34
p146
sVCharacterOffsetBegin
p147
V31
p148
sVPartOfSpeech
p149
VJJ
p150
sVLemma
p151
Vold
p152
saa(lp153
Vwinter
p154
a(dp155
VNormalizedNamedEntityTag
p156
VXXXX-WI
p157
sVTimex
p158
V<TIMEX3 tid="t1" type="DATE" value="XXXX-WI">winter</TIMEX3>
p159
sVLemma
p160
Vwinter
p161
sVCharacterOffsetEnd
p162
V41
p163
sVPartOfSpeech
p164
VNN
p165
sVCharacterOffsetBegin
p166
V35
p167
sVNamedEntityTag
p168
VDATE
p169
saa(lp170
Vclothes
p171
a(dp172
VNamedEntityTag
p173
g84
sVCharacterOffsetEnd
p174
V49
p175
sVCharacterOffsetBegin
p176
V42
p177
sVPartOfSpeech
p178
VNNS
p179
sVLemma
p180
Vclothes
p181
saa(lp182
V.
p183
a(dp184
VNamedEntityTag
p185
g84
sVCharacterOffsetEnd
p186
V51
p187
sVCharacterOffsetBegin
p188
V50
p189
sVPartOfSpeech
p190
g183
sVLemma
p191
g183
saasVindexeddependencies
p192
(lp193
(lp194
Vroot
p195
aVROOT-0
p196
aVunboxing-3
p197
aa(lp198
Vnsubj
p199
aVunboxing-3
p200
aVLana-1
p201
aa(lp202
Vaux
p203
aVunboxing-3
p204
aVwas-2
p205
aa(lp206
Vdobj
p207
aVunboxing-3
p208
aVsome-4
p209
aa(lp210
Vposs
p211
aVclothes-9
p212
aVher-6
p213
aa(lp214
Vamod
p215
aVclothes-9
p216
aVold-7
p217
aa(lp218
Vnn
p219
aVclothes-9
p220
aVwinter-8
p221
aa(lp222
Vprep_of
p223
aVsome-4
p224
aVclothes-9
p225
aasa(dp226
Vparsetree
p227
V(ROOT (S (S (NP (PRP She)) (VP (VBD found) (NP (NP (CD 3) (NNS boxes)) (PP (IN of) (NP (NN clothing)))))) (CC and) (S (PP (IN inside) (NP (DT each) (NN box))) (NP (EX there)) (VP (VBD were) (NP (NP (CD 3) (NNS scarves)) (CC and) (NP (CD 4) (NNS mittens))))) (. .)))
p228
sVtext
p229
VShe found 3 boxes of clothing and inside each box there were 3 scarves and 4 mittens .
p230
sVdependencies
p231
(lp232
(lp233
Vroot
p234
aVROOT
p235
aVfound
p236
aa(lp237
Vnsubj
p238
aVfound
p239
aVShe
p240
aa(lp241
Vnum
p242
aVboxes
p243
ag22
aa(lp244
Vdobj
p245
aVfound
p246
aVboxes
p247
aa(lp248
Vprep_of
p249
aVboxes
p250
aVclothing
p251
aa(lp252
Vdet
p253
aVbox
p254
aVeach
p255
aa(lp256
Vprep_inside
p257
aVwere
p258
aVbox
p259
aa(lp260
Vexpl
p261
aVwere
p262
aVthere
p263
aa(lp264
Vconj_and
p265
aVfound
p266
aVwere
p267
aa(lp268
Vnum
p269
aVscarves
p270
ag22
aa(lp271
Vnsubj
p272
aVwere
p273
aVscarves
p274
aa(lp275
Vnum
p276
aVmittens
p277
aV4
p278
aa(lp279
Vconj_and
p280
aVscarves
p281
aVmittens
p282
aasVwords
p283
(lp284
(lp285
VShe
p286
a(dp287
VNamedEntityTag
p288
g84
sVCharacterOffsetEnd
p289
V55
p290
sVCharacterOffsetBegin
p291
V52
p292
sVPartOfSpeech
p293
VPRP
p294
sVLemma
p295
Vshe
p296
saa(lp297
Vfound
p298
a(dp299
VNamedEntityTag
p300
g84
sVCharacterOffsetEnd
p301
V61
p302
sVCharacterOffsetBegin
p303
V56
p304
sVPartOfSpeech
p305
VVBD
p306
sVLemma
p307
Vfind
p308
saa(lp309
g22
a(dp310
VNormalizedNamedEntityTag
p311
V3.0
p312
sVLemma
p313
g22
sVCharacterOffsetEnd
p314
V63
p315
sVPartOfSpeech
p316
VCD
p317
sVCharacterOffsetBegin
p318
V62
p319
sVNamedEntityTag
p320
VNUMBER
p321
saa(lp322
Vboxes
p323
a(dp324
VNamedEntityTag
p325
g84
sVCharacterOffsetEnd
p326
V69
p327
sVCharacterOffsetBegin
p328
V64
p329
sVPartOfSpeech
p330
VNNS
p331
sVLemma
p332
Vbox
p333
saa(lp334
Vof
p335
a(dp336
VNamedEntityTag
p337
g84
sVCharacterOffsetEnd
p338
V72
p339
sVCharacterOffsetBegin
p340
V70
p341
sVPartOfSpeech
p342
VIN
p343
sVLemma
p344
Vof
p345
saa(lp346
Vclothing
p347
a(dp348
VNamedEntityTag
p349
g84
sVCharacterOffsetEnd
p350
V81
p351
sVCharacterOffsetBegin
p352
V73
p353
sVPartOfSpeech
p354
VNN
p355
sVLemma
p356
Vclothing
p357
saa(lp358
Vand
p359
a(dp360
VNamedEntityTag
p361
g84
sVCharacterOffsetEnd
p362
V85
p363
sVCharacterOffsetBegin
p364
V82
p365
sVPartOfSpeech
p366
VCC
p367
sVLemma
p368
Vand
p369
saa(lp370
Vinside
p371
a(dp372
VNamedEntityTag
p373
g84
sVCharacterOffsetEnd
p374
V92
p375
sVCharacterOffsetBegin
p376
V86
p377
sVPartOfSpeech
p378
VIN
p379
sVLemma
p380
Vinside
p381
saa(lp382
Veach
p383
a(dp384
VNamedEntityTag
p385
g84
sVCharacterOffsetEnd
p386
V97
p387
sVCharacterOffsetBegin
p388
V93
p389
sVPartOfSpeech
p390
VDT
p391
sVLemma
p392
Veach
p393
saa(lp394
Vbox
p395
a(dp396
VNamedEntityTag
p397
g84
sVCharacterOffsetEnd
p398
V101
p399
sVCharacterOffsetBegin
p400
V98
p401
sVPartOfSpeech
p402
VNN
p403
sVLemma
p404
Vbox
p405
saa(lp406
Vthere
p407
a(dp408
VNamedEntityTag
p409
g84
sVCharacterOffsetEnd
p410
V107
p411
sVCharacterOffsetBegin
p412
V102
p413
sVPartOfSpeech
p414
VEX
p415
sVLemma
p416
Vthere
p417
saa(lp418
Vwere
p419
a(dp420
VNamedEntityTag
p421
g84
sVCharacterOffsetEnd
p422
V112
p423
sVCharacterOffsetBegin
p424
V108
p425
sVPartOfSpeech
p426
VVBD
p427
sVLemma
p428
Vbe
p429
saa(lp430
g22
a(dp431
VNormalizedNamedEntityTag
p432
V3.0
p433
sVLemma
p434
g22
sVCharacterOffsetEnd
p435
V114
p436
sVPartOfSpeech
p437
VCD
p438
sVCharacterOffsetBegin
p439
V113
p440
sVNamedEntityTag
p441
VNUMBER
p442
saa(lp443
Vscarves
p444
a(dp445
VNamedEntityTag
p446
g84
sVCharacterOffsetEnd
p447
V122
p448
sVCharacterOffsetBegin
p449
V115
p450
sVPartOfSpeech
p451
VNNS
p452
sVLemma
p453
Vscarf
p454
saa(lp455
Vand
p456
a(dp457
VNamedEntityTag
p458
g84
sVCharacterOffsetEnd
p459
V126
p460
sVCharacterOffsetBegin
p461
V123
p462
sVPartOfSpeech
p463
VCC
p464
sVLemma
p465
Vand
p466
saa(lp467
g278
a(dp468
VNormalizedNamedEntityTag
p469
V4.0
p470
sVLemma
p471
g278
sVCharacterOffsetEnd
p472
V128
p473
sVPartOfSpeech
p474
VCD
p475
sVCharacterOffsetBegin
p476
V127
p477
sVNamedEntityTag
p478
VNUMBER
p479
saa(lp480
Vmittens
p481
a(dp482
VNamedEntityTag
p483
g84
sVCharacterOffsetEnd
p484
V136
p485
sVCharacterOffsetBegin
p486
V129
p487
sVPartOfSpeech
p488
VNNS
p489
sVLemma
p490
Vmitten
p491
saa(lp492
g183
a(dp493
VNamedEntityTag
p494
g84
sVCharacterOffsetEnd
p495
V138
p496
sVCharacterOffsetBegin
p497
V137
p498
sVPartOfSpeech
p499
g183
sVLemma
p500
g183
saasVindexeddependencies
p501
(lp502
(lp503
Vroot
p504
aVROOT-0
p505
aVfound-2
p506
aa(lp507
Vnsubj
p508
aVfound-2
p509
aVShe-1
p510
aa(lp511
Vnum
p512
aVboxes-4
p513
aV3-3
p514
aa(lp515
Vdobj
p516
aVfound-2
p517
aVboxes-4
p518
aa(lp519
Vprep_of
p520
aVboxes-4
p521
aVclothing-6
p522
aa(lp523
Vdet
p524
aVbox-10
p525
aVeach-9
p526
aa(lp527
Vprep_inside
p528
aVwere-12
p529
aVbox-10
p530
aa(lp531
Vexpl
p532
aVwere-12
p533
aVthere-11
p534
aa(lp535
Vconj_and
p536
aVfound-2
p537
aVwere-12
p538
aa(lp539
Vnum
p540
aVscarves-14
p541
aV3-13
p542
aa(lp543
Vnsubj
p544
aVwere-12
p545
aVscarves-14
p546
aa(lp547
Vnum
p548
aVmittens-17
p549
aV4-16
p550
aa(lp551
Vconj_and
p552
aVscarves-14
p553
aVmittens-17
p554
aasa(dp555
Vparsetree
p556
V(ROOT (SBARQ (WHNP (WHADJP (WRB How) (JJ many)) (NP (NP (NNS pieces)) (PP (IN of) (NP (NN winter) (NN clothing))))) (SQ (VBD did) (NP (NNP Lana)) (VP (VB have) (NP (NN total)))) (. ?)))
p557
sVtext
p558
VHow many pieces of winter clothing did Lana have total ?
p559
sVdependencies
p560
(lp561
(lp562
Vroot
p563
aVROOT
p564
aVhave
p565
aa(lp566
Vadvmod
p567
aVmany
p568
aVHow
p569
aa(lp570
Vamod
p571
aVpieces
p572
aVmany
p573
aa(lp574
Vdep
p575
aVhave
p576
aVpieces
p577
aa(lp578
Vnn
p579
aVclothing
p580
aVwinter
p581
aa(lp582
Vprep_of
p583
aVpieces
p584
aVclothing
p585
aa(lp586
Vaux
p587
aVhave
p588
aVdid
p589
aa(lp590
Vnsubj
p591
aVhave
p592
aVLana
p593
aa(lp594
Vdobj
p595
aVhave
p596
aVtotal
p597
aasVwords
p598
(lp599
(lp600
VHow
p601
a(dp602
VNamedEntityTag
p603
g84
sVCharacterOffsetEnd
p604
V142
p605
sVCharacterOffsetBegin
p606
V139
p607
sVPartOfSpeech
p608
VWRB
p609
sVLemma
p610
Vhow
p611
saa(lp612
Vmany
p613
a(dp614
VNamedEntityTag
p615
g84
sVCharacterOffsetEnd
p616
V147
p617
sVCharacterOffsetBegin
p618
V143
p619
sVPartOfSpeech
p620
VJJ
p621
sVLemma
p622
Vmany
p623
saa(lp624
Vpieces
p625
a(dp626
VNamedEntityTag
p627
g84
sVCharacterOffsetEnd
p628
V154
p629
sVCharacterOffsetBegin
p630
V148
p631
sVPartOfSpeech
p632
VNNS
p633
sVLemma
p634
Vpiece
p635
saa(lp636
Vof
p637
a(dp638
VNamedEntityTag
p639
g84
sVCharacterOffsetEnd
p640
V157
p641
sVCharacterOffsetBegin
p642
V155
p643
sVPartOfSpeech
p644
VIN
p645
sVLemma
p646
Vof
p647
saa(lp648
Vwinter
p649
a(dp650
VNormalizedNamedEntityTag
p651
VXXXX-WI
p652
sVTimex
p653
V<TIMEX3 tid="t2" type="DATE" value="XXXX-WI">winter</TIMEX3>
p654
sVLemma
p655
Vwinter
p656
sVCharacterOffsetEnd
p657
V164
p658
sVPartOfSpeech
p659
VNN
p660
sVCharacterOffsetBegin
p661
V158
p662
sVNamedEntityTag
p663
VDATE
p664
saa(lp665
Vclothing
p666
a(dp667
VNamedEntityTag
p668
g84
sVCharacterOffsetEnd
p669
V173
p670
sVCharacterOffsetBegin
p671
V165
p672
sVPartOfSpeech
p673
VNN
p674
sVLemma
p675
Vclothing
p676
saa(lp677
Vdid
p678
a(dp679
VNamedEntityTag
p680
g84
sVCharacterOffsetEnd
p681
V177
p682
sVCharacterOffsetBegin
p683
V174
p684
sVPartOfSpeech
p685
VVBD
p686
sVLemma
p687
Vdo
p688
saa(lp689
VLana
p690
a(dp691
VNamedEntityTag
p692
VPERSON
p693
sVCharacterOffsetEnd
p694
V182
p695
sVCharacterOffsetBegin
p696
V178
p697
sVPartOfSpeech
p698
VNNP
p699
sVLemma
p700
VLana
p701
saa(lp702
Vhave
p703
a(dp704
VNamedEntityTag
p705
g84
sVCharacterOffsetEnd
p706
V187
p707
sVCharacterOffsetBegin
p708
V183
p709
sVPartOfSpeech
p710
VVB
p711
sVLemma
p712
Vhave
p713
saa(lp714
Vtotal
p715
a(dp716
VNamedEntityTag
p717
g84
sVCharacterOffsetEnd
p718
V193
p719
sVCharacterOffsetBegin
p720
V188
p721
sVPartOfSpeech
p722
VNN
p723
sVLemma
p724
Vtotal
p725
saa(lp726
V?
p727
a(dp728
VNamedEntityTag
p729
g84
sVCharacterOffsetEnd
p730
V195
p731
sVCharacterOffsetBegin
p732
V194
p733
sVPartOfSpeech
p734
g183
sVLemma
p735
g727
saasVindexeddependencies
p736
(lp737
(lp738
Vroot
p739
aVROOT-0
p740
aVhave-9
p741
aa(lp742
Vadvmod
p743
aVmany-2
p744
aVHow-1
p745
aa(lp746
Vamod
p747
aVpieces-3
p748
aVmany-2
p749
aa(lp750
Vdep
p751
aVhave-9
p752
aVpieces-3
p753
aa(lp754
Vnn
p755
aVclothing-6
p756
aVwinter-5
p757
aa(lp758
Vprep_of
p759
aVpieces-3
p760
aVclothing-6
p761
aa(lp762
Vaux
p763
aVhave-9
p764
aVdid-7
p765
aa(lp766
Vnsubj
p767
aVhave-9
p768
aVLana-8
p769
aa(lp770
Vdobj
p771
aVhave-9
p772
aVtotal-10
p773
aasas.