(dp0
Vcoref
p1
(lp2
(lp3
(lp4
(lp5
Vthey
p6
aI1
aI11
aI11
aI12
aa(lp7
V8 friends playing a video game online when 2 more players joined the game
p8
aI0
aI3
aI2
aI16
aaaa(lp9
(lp10
(lp11
Vthe game
p12
aI0
aI15
aI14
aI16
aa(lp13
Va video game
p14
aI0
aI7
aI5
aI8
aaaasVsentences
p15
(lp16
(dp17
Vparsetree
p18
V(ROOT (S (NP (EX There)) (VP (VBD were) (NP (NP (CD 8) (NNS friends)) (VP (VBG playing) (NP (DT a) (NN video) (NN game)) (PP (NN online)) (SBAR (WHADVP (WRB when)) (S (NP (CD 2) (JJR more) (NNS players)) (VP (VBD joined) (NP (DT the) (NN game)))))))) (. .)))
p19
sVtext
p20
VThere were 8 friends playing a video game online when 2 more players joined the game .
p21
sVdependencies
p22
(lp23
(lp24
Vroot
p25
aVROOT
p26
aVwere
p27
aa(lp28
Vexpl
p29
aVwere
p30
aVThere
p31
aa(lp32
Vnum
p33
aVfriends
p34
aV8
p35
aa(lp36
Vnsubj
p37
aVwere
p38
aVfriends
p39
aa(lp40
Vvmod
p41
aVfriends
p42
aVplaying
p43
aa(lp44
Vdet
p45
aVgame
p46
aVa
p47
aa(lp48
Vnn
p49
aVgame
p50
aVvideo
p51
aa(lp52
Vdobj
p53
aVplaying
p54
aVgame
p55
aa(lp56
Vprep
p57
aVplaying
p58
aVonline
p59
aa(lp60
Vadvmod
p61
aVjoined
p62
aVwhen
p63
aa(lp64
Vnum
p65
aVplayers
p66
aV2
p67
aa(lp68
Vamod
p69
aVplayers
p70
aVmore
p71
aa(lp72
Vnsubj
p73
aVjoined
p74
aVplayers
p75
aa(lp76
Vadvcl
p77
aVplaying
p78
aVjoined
p79
aa(lp80
Vdet
p81
aVgame
p82
aVthe
p83
aa(lp84
Vdobj
p85
aVjoined
p86
aVgame
p87
aasVwords
p88
(lp89
(lp90
VThere
p91
a(dp92
VNamedEntityTag
p93
VO
p94
sVCharacterOffsetEnd
p95
V6
p96
sVCharacterOffsetBegin
p97
V1
p98
sVPartOfSpeech
p99
VEX
p100
sVLemma
p101
Vthere
p102
saa(lp103
Vwere
p104
a(dp105
VNamedEntityTag
p106
g94
sVCharacterOffsetEnd
p107
V11
p108
sVCharacterOffsetBegin
p109
V7
p110
sVPartOfSpeech
p111
VVBD
p112
sVLemma
p113
Vbe
p114
saa(lp115
g35
a(dp116
VNormalizedNamedEntityTag
p117
V8.0
p118
sVLemma
p119
g35
sVCharacterOffsetEnd
p120
V13
p121
sVPartOfSpeech
p122
VCD
p123
sVCharacterOffsetBegin
p124
V12
p125
sVNamedEntityTag
p126
VNUMBER
p127
saa(lp128
Vfriends
p129
a(dp130
VNamedEntityTag
p131
g94
sVCharacterOffsetEnd
p132
V21
p133
sVCharacterOffsetBegin
p134
V14
p135
sVPartOfSpeech
p136
VNNS
p137
sVLemma
p138
Vfriend
p139
saa(lp140
Vplaying
p141
a(dp142
VNamedEntityTag
p143
g94
sVCharacterOffsetEnd
p144
V29
p145
sVCharacterOffsetBegin
p146
V22
p147
sVPartOfSpeech
p148
VVBG
p149
sVLemma
p150
Vplay
p151
saa(lp152
g47
a(dp153
VNamedEntityTag
p154
g94
sVCharacterOffsetEnd
p155
V31
p156
sVCharacterOffsetBegin
p157
V30
p158
sVPartOfSpeech
p159
VDT
p160
sVLemma
p161
g47
saa(lp162
Vvideo
p163
a(dp164
VNamedEntityTag
p165
g94
sVCharacterOffsetEnd
p166
V37
p167
sVCharacterOffsetBegin
p168
V32
p169
sVPartOfSpeech
p170
VNN
p171
sVLemma
p172
Vvideo
p173
saa(lp174
Vgame
p175
a(dp176
VNamedEntityTag
p177
g94
sVCharacterOffsetEnd
p178
V42
p179
sVCharacterOffsetBegin
p180
V38
p181
sVPartOfSpeech
p182
VNN
p183
sVLemma
p184
Vgame
p185
saa(lp186
Vonline
p187
a(dp188
VNamedEntityTag
p189
g94
sVCharacterOffsetEnd
p190
V49
p191
sVCharacterOffsetBegin
p192
V43
p193
sVPartOfSpeech
p194
VNN
p195
sVLemma
p196
Vonline
p197
saa(lp198
Vwhen
p199
a(dp200
VNamedEntityTag
p201
g94
sVCharacterOffsetEnd
p202
V54
p203
sVCharacterOffsetBegin
p204
V50
p205
sVPartOfSpeech
p206
VWRB
p207
sVLemma
p208
Vwhen
p209
saa(lp210
g67
a(dp211
VNormalizedNamedEntityTag
p212
V2.0
p213
sVLemma
p214
g67
sVCharacterOffsetEnd
p215
V56
p216
sVPartOfSpeech
p217
VCD
p218
sVCharacterOffsetBegin
p219
V55
p220
sVNamedEntityTag
p221
VNUMBER
p222
saa(lp223
Vmore
p224
a(dp225
VNamedEntityTag
p226
g94
sVCharacterOffsetEnd
p227
V61
p228
sVCharacterOffsetBegin
p229
V57
p230
sVPartOfSpeech
p231
VJJR
p232
sVLemma
p233
Vmore
p234
saa(lp235
Vplayers
p236
a(dp237
VNamedEntityTag
p238
g94
sVCharacterOffsetEnd
p239
V69
p240
sVCharacterOffsetBegin
p241
V62
p242
sVPartOfSpeech
p243
VNNS
p244
sVLemma
p245
Vplayer
p246
saa(lp247
Vjoined
p248
a(dp249
VNamedEntityTag
p250
g94
sVCharacterOffsetEnd
p251
V76
p252
sVCharacterOffsetBegin
p253
V70
p254
sVPartOfSpeech
p255
VVBD
p256
sVLemma
p257
Vjoin
p258
saa(lp259
Vthe
p260
a(dp261
VNamedEntityTag
p262
g94
sVCharacterOffsetEnd
p263
V80
p264
sVCharacterOffsetBegin
p265
V77
p266
sVPartOfSpeech
p267
VDT
p268
sVLemma
p269
Vthe
p270
saa(lp271
Vgame
p272
a(dp273
VNamedEntityTag
p274
g94
sVCharacterOffsetEnd
p275
V85
p276
sVCharacterOffsetBegin
p277
V81
p278
sVPartOfSpeech
p279
VNN
p280
sVLemma
p281
Vgame
p282
saa(lp283
V.
p284
a(dp285
VNamedEntityTag
p286
g94
sVCharacterOffsetEnd
p287
V87
p288
sVCharacterOffsetBegin
p289
V86
p290
sVPartOfSpeech
p291
g284
sVLemma
p292
g284
saasVindexeddependencies
p293
(lp294
(lp295
Vroot
p296
aVROOT-0
p297
aVwere-2
p298
aa(lp299
Vexpl
p300
aVwere-2
p301
aVThere-1
p302
aa(lp303
Vnum
p304
aVfriends-4
p305
aV8-3
p306
aa(lp307
Vnsubj
p308
aVwere-2
p309
aVfriends-4
p310
aa(lp311
Vvmod
p312
aVfriends-4
p313
aVplaying-5
p314
aa(lp315
Vdet
p316
aVgame-8
p317
aVa-6
p318
aa(lp319
Vnn
p320
aVgame-8
p321
aVvideo-7
p322
aa(lp323
Vdobj
p324
aVplaying-5
p325
aVgame-8
p326
aa(lp327
Vprep
p328
aVplaying-5
p329
aVonline-9
p330
aa(lp331
Vadvmod
p332
aVjoined-14
p333
aVwhen-10
p334
aa(lp335
Vnum
p336
aVplayers-13
p337
aV2-11
p338
aa(lp339
Vamod
p340
aVplayers-13
p341
aVmore-12
p342
aa(lp343
Vnsubj
p344
aVjoined-14
p345
aVplayers-13
p346
aa(lp347
Vadvcl
p348
aVplaying-5
p349
aVjoined-14
p350
aa(lp351
Vdet
p352
aVgame-16
p353
aVthe-15
p354
aa(lp355
Vdobj
p356
aVjoined-14
p357
aVgame-16
p358
aasa(dp359
Vparsetree
p360
V(ROOT (SBARQ (SBAR (IN If) (S (NP (DT each) (NN player)) (VP (VBD had) (NP (CD 6) (NNS lives))))) (, ,) (WHNP (WHADJP (WRB how) (JJ many)) (NNS lives)) (SQ (VBD did) (NP (PRP they)) (VP (VBP have) (NP (JJ total)))) (. ?)))
p361
sVtext
p362
VIf each player had 6 lives , how many lives did they have total ?
p363
sVdependencies
p364
(lp365
(lp366
Vroot
p367
aVROOT
p368
aVhave
p369
aa(lp370
Vmark
p371
aVhad
p372
aVIf
p373
aa(lp374
Vdet
p375
aVplayer
p376
aVeach
p377
aa(lp378
Vnsubj
p379
aVhad
p380
aVplayer
p381
aa(lp382
Vadvcl
p383
aVhave
p384
aVhad
p385
aa(lp386
Vnum
p387
aVlives
p388
ag96
aa(lp389
Vdobj
p390
aVhad
p391
aVlives
p392
aa(lp393
Vadvmod
p394
aVmany
p395
aVhow
p396
aa(lp397
Vamod
p398
aVlives
p399
aVmany
p400
aa(lp401
Vdep
p402
aVhave
p403
aVlives
p404
aa(lp405
Vaux
p406
aVhave
p407
aVdid
p408
aa(lp409
Vnsubj
p410
aVhave
p411
aVthey
p412
aa(lp413
Vdobj
p414
aVhave
p415
aVtotal
p416
aasVwords
p417
(lp418
(lp419
VIf
p420
a(dp421
VNamedEntityTag
p422
g94
sVCharacterOffsetEnd
p423
V90
p424
sVCharacterOffsetBegin
p425
V88
p426
sVPartOfSpeech
p427
VIN
p428
sVLemma
p429
Vif
p430
saa(lp431
Veach
p432
a(dp433
VNamedEntityTag
p434
g94
sVCharacterOffsetEnd
p435
V95
p436
sVCharacterOffsetBegin
p437
V91
p438
sVPartOfSpeech
p439
VDT
p440
sVLemma
p441
Veach
p442
saa(lp443
Vplayer
p444
a(dp445
VNamedEntityTag
p446
g94
sVCharacterOffsetEnd
p447
V102
p448
sVCharacterOffsetBegin
p449
V96
p450
sVPartOfSpeech
p451
VNN
p452
sVLemma
p453
Vplayer
p454
saa(lp455
Vhad
p456
a(dp457
VNamedEntityTag
p458
g94
sVCharacterOffsetEnd
p459
V106
p460
sVCharacterOffsetBegin
p461
V103
p462
sVPartOfSpeech
p463
VVBD
p464
sVLemma
p465
Vhave
p466
saa(lp467
g96
a(dp468
VNormalizedNamedEntityTag
p469
V6.0
p470
sVLemma
p471
g96
sVCharacterOffsetEnd
p472
V108
p473
sVPartOfSpeech
p474
VCD
p475
sVCharacterOffsetBegin
p476
V107
p477
sVNamedEntityTag
p478
VNUMBER
p479
saa(lp480
Vlives
p481
a(dp482
VNamedEntityTag
p483
g94
sVCharacterOffsetEnd
p484
V114
p485
sVCharacterOffsetBegin
p486
V109
p487
sVPartOfSpeech
p488
VNNS
p489
sVLemma
p490
Vlife
p491
saa(lp492
V,
p493
a(dp494
VNamedEntityTag
p495
g94
sVCharacterOffsetEnd
p496
V116
p497
sVCharacterOffsetBegin
p498
V115
p499
sVPartOfSpeech
p500
g493
sVLemma
p501
g493
saa(lp502
Vhow
p503
a(dp504
VNamedEntityTag
p505
g94
sVCharacterOffsetEnd
p506
V120
p507
sVCharacterOffsetBegin
p508
V117
p509
sVPartOfSpeech
p510
VWRB
p511
sVLemma
p512
Vhow
p513
saa(lp514
Vmany
p515
a(dp516
VNamedEntityTag
p517
g94
sVCharacterOffsetEnd
p518
V125
p519
sVCharacterOffsetBegin
p520
V121
p521
sVPartOfSpeech
p522
VJJ
p523
sVLemma
p524
Vmany
p525
saa(lp526
Vlives
p527
a(dp528
VNamedEntityTag
p529
g94
sVCharacterOffsetEnd
p530
V131
p531
sVCharacterOffsetBegin
p532
V126
p533
sVPartOfSpeech
p534
VNNS
p535
sVLemma
p536
Vlife
p537
saa(lp538
Vdid
p539
a(dp540
VNamedEntityTag
p541
g94
sVCharacterOffsetEnd
p542
V135
p543
sVCharacterOffsetBegin
p544
V132
p545
sVPartOfSpeech
p546
VVBD
p547
sVLemma
p548
Vdo
p549
saa(lp550
Vthey
p551
a(dp552
VNamedEntityTag
p553
g94
sVCharacterOffsetEnd
p554
V140
p555
sVCharacterOffsetBegin
p556
V136
p557
sVPartOfSpeech
p558
VPRP
p559
sVLemma
p560
Vthey
p561
saa(lp562
Vhave
p563
a(dp564
VNamedEntityTag
p565
g94
sVCharacterOffsetEnd
p566
V145
p567
sVCharacterOffsetBegin
p568
V141
p569
sVPartOfSpeech
p570
VVBP
p571
sVLemma
p572
Vhave
p573
saa(lp574
Vtotal
p575
a(dp576
VNamedEntityTag
p577
g94
sVCharacterOffsetEnd
p578
V151
p579
sVCharacterOffsetBegin
p580
V146
p581
sVPartOfSpeech
p582
VJJ
p583
sVLemma
p584
Vtotal
p585
saa(lp586
V?
p587
a(dp588
VNamedEntityTag
p589
g94
sVCharacterOffsetEnd
p590
V153
p591
sVCharacterOffsetBegin
p592
V152
p593
sVPartOfSpeech
p594
g284
sVLemma
p595
g587
saasVindexeddependencies
p596
(lp597
(lp598
Vroot
p599
aVROOT-0
p600
aVhave-13
p601
aa(lp602
Vmark
p603
aVhad-4
p604
aVIf-1
p605
aa(lp606
Vdet
p607
aVplayer-3
p608
aVeach-2
p609
aa(lp610
Vnsubj
p611
aVhad-4
p612
aVplayer-3
p613
aa(lp614
Vadvcl
p615
aVhave-13
p616
aVhad-4
p617
aa(lp618
Vnum
p619
aVlives-6
p620
aV6-5
p621
aa(lp622
Vdobj
p623
aVhad-4
p624
aVlives-6
p625
aa(lp626
Vadvmod
p627
aVmany-9
p628
aVhow-8
p629
aa(lp630
Vamod
p631
aVlives-10
p632
aVmany-9
p633
aa(lp634
Vdep
p635
aVhave-13
p636
aVlives-10
p637
aa(lp638
Vaux
p639
aVhave-13
p640
aVdid-11
p641
aa(lp642
Vnsubj
p643
aVhave-13
p644
aVthey-12
p645
aa(lp646
Vdobj
p647
aVhave-13
p648
aVtotal-14
p649
aasas.