(dp0
Vcoref
p1
(lp2
(lp3
(lp4
(lp5
Vhe
p6
aI1
aI2
aI2
aI3
aa(lp7
VSam
p8
aI0
aI0
aI0
aI1
aaa(lp9
(lp10
Vhe
p11
aI1
aI10
aI10
aI11
aa(lp12
VSam
p13
aI0
aI0
aI0
aI1
aaa(lp14
(lp15
Vhe
p16
aI2
aI13
aI13
aI14
aa(lp17
VSam
p18
aI0
aI0
aI0
aI1
aaaa(lp19
(lp20
(lp21
Vit
p22
aI2
aI7
aI7
aI8
aa(lp23
Veach bag
p24
aI2
aI2
aI1
aI3
aaaasVsentences
p25
(lp26
(dp27
Vparsetree
p28
V(ROOT (S (NP (NNP Sam)) (VP (VBD was) (VP (VBG collecting) (NP (NP (NNS cans)) (PP (IN for) (NP (VBG recycling)))))) (. .)))
p29
sVtext
p30
VSam was collecting cans for recycling .
p31
sVdependencies
p32
(lp33
(lp34
Vroot
p35
aVROOT
p36
aVcollecting
p37
aa(lp38
Vnsubj
p39
aVcollecting
p40
aVSam
p41
aa(lp42
Vaux
p43
aVcollecting
p44
aVwas
p45
aa(lp46
Vdobj
p47
aVcollecting
p48
aVcans
p49
aa(lp50
Vprep_for
p51
aVcans
p52
aVrecycling
p53
aasVwords
p54
(lp55
(lp56
VSam
p57
a(dp58
VNamedEntityTag
p59
VPERSON
p60
sVCharacterOffsetEnd
p61
V4
p62
sVCharacterOffsetBegin
p63
V1
p64
sVPartOfSpeech
p65
VNNP
p66
sVLemma
p67
VSam
p68
saa(lp69
Vwas
p70
a(dp71
VNamedEntityTag
p72
VO
p73
sVCharacterOffsetEnd
p74
V8
p75
sVCharacterOffsetBegin
p76
V5
p77
sVPartOfSpeech
p78
VVBD
p79
sVLemma
p80
Vbe
p81
saa(lp82
Vcollecting
p83
a(dp84
VNamedEntityTag
p85
g73
sVCharacterOffsetEnd
p86
V19
p87
sVCharacterOffsetBegin
p88
V9
p89
sVPartOfSpeech
p90
VVBG
p91
sVLemma
p92
Vcollect
p93
saa(lp94
Vcans
p95
a(dp96
VNamedEntityTag
p97
g73
sVCharacterOffsetEnd
p98
V24
p99
sVCharacterOffsetBegin
p100
V20
p101
sVPartOfSpeech
p102
VNNS
p103
sVLemma
p104
Vcan
p105
saa(lp106
Vfor
p107
a(dp108
VNamedEntityTag
p109
g73
sVCharacterOffsetEnd
p110
V28
p111
sVCharacterOffsetBegin
p112
V25
p113
sVPartOfSpeech
p114
VIN
p115
sVLemma
p116
Vfor
p117
saa(lp118
Vrecycling
p119
a(dp120
VNamedEntityTag
p121
g73
sVCharacterOffsetEnd
p122
V38
p123
sVCharacterOffsetBegin
p124
V29
p125
sVPartOfSpeech
p126
VVBG
p127
sVLemma
p128
Vrecycle
p129
saa(lp130
V.
p131
a(dp132
VNamedEntityTag
p133
g73
sVCharacterOffsetEnd
p134
V40
p135
sVCharacterOffsetBegin
p136
V39
p137
sVPartOfSpeech
p138
g131
sVLemma
p139
g131
saasVindexeddependencies
p140
(lp141
(lp142
Vroot
p143
aVROOT-0
p144
aVcollecting-3
p145
aa(lp146
Vnsubj
p147
aVcollecting-3
p148
aVSam-1
p149
aa(lp150
Vaux
p151
aVcollecting-3
p152
aVwas-2
p153
aa(lp154
Vdobj
p155
aVcollecting-3
p156
aVcans-4
p157
aa(lp158
Vprep_for
p159
aVcans-4
p160
aVrecycling-6
p161
aasa(dp162
Vparsetree
p163
V(ROOT (S (PP (IN On) (NP (NNP Saturday))) (NP (PRP he)) (VP (VBD filled) (ADVP (ADVP (NP (CD 3) (NN bags)) (IN up)) (CC and) (PP (IN on) (NP-TMP (NNP Sunday)))) (SBAR (S (NP (PRP he)) (VP (VBD filled) (NP (QP (CD 4) (JJR more)) (NNS bags)))))) (. .)))
p164
sVtext
p165
VOn Saturday he filled 3 bags up and on Sunday he filled 4 more bags .
p166
sVdependencies
p167
(lp168
(lp169
Vroot
p170
aVROOT
p171
aVfilled
p172
aa(lp173
Vprep_on
p174
aVfilled
p175
aVSaturday
p176
aa(lp177
Vnsubj
p178
aVfilled
p179
aVhe
p180
aa(lp181
Vnum
p182
aVbags
p183
aV3
p184
aa(lp185
Vnpadvmod
p186
aVup
p187
aVbags
p188
aa(lp189
Vadvmod
p190
aVfilled
p191
aVup
p192
aa(lp193
Vconj_and
p194
aVup
p195
aVon
p196
aa(lp197
Vpobj
p198
aVon
p199
aVSunday
p200
aa(lp201
Vnsubj
p202
aVfilled
p203
aVhe
p204
aa(lp205
Vccomp
p206
aVfilled
p207
aVfilled
p208
aa(lp209
Vnum
p210
aVbags
p211
ag62
aa(lp212
Vquantmod
p213
ag62
aVmore
p214
aa(lp215
Vdobj
p216
aVfilled
p217
aVbags
p218
aasVwords
p219
(lp220
(lp221
VOn
p222
a(dp223
VNamedEntityTag
p224
g73
sVCharacterOffsetEnd
p225
V43
p226
sVCharacterOffsetBegin
p227
V41
p228
sVPartOfSpeech
p229
VIN
p230
sVLemma
p231
Von
p232
saa(lp233
VSaturday
p234
a(dp235
VNormalizedNamedEntityTag
p236
VXXXX-WXX-6
p237
sVTimex
p238
V<TIMEX3 tid="t1" type="DATE" value="XXXX-WXX-6">Saturday</TIMEX3>
p239
sVLemma
p240
VSaturday
p241
sVCharacterOffsetEnd
p242
V52
p243
sVPartOfSpeech
p244
VNNP
p245
sVCharacterOffsetBegin
p246
V44
p247
sVNamedEntityTag
p248
VDATE
p249
saa(lp250
Vhe
p251
a(dp252
VNamedEntityTag
p253
g73
sVCharacterOffsetEnd
p254
V55
p255
sVCharacterOffsetBegin
p256
V53
p257
sVPartOfSpeech
p258
VPRP
p259
sVLemma
p260
Vhe
p261
saa(lp262
Vfilled
p263
a(dp264
VNamedEntityTag
p265
g73
sVCharacterOffsetEnd
p266
V62
p267
sVCharacterOffsetBegin
p268
V56
p269
sVPartOfSpeech
p270
VVBD
p271
sVLemma
p272
Vfill
p273
saa(lp274
g184
a(dp275
VNormalizedNamedEntityTag
p276
V3.0
p277
sVLemma
p278
g184
sVCharacterOffsetEnd
p279
V64
p280
sVPartOfSpeech
p281
VCD
p282
sVCharacterOffsetBegin
p283
V63
p284
sVNamedEntityTag
p285
VNUMBER
p286
saa(lp287
Vbags
p288
a(dp289
VNamedEntityTag
p290
g73
sVCharacterOffsetEnd
p291
V69
p292
sVCharacterOffsetBegin
p293
V65
p294
sVPartOfSpeech
p295
VNN
p296
sVLemma
p297
Vbag
p298
saa(lp299
Vup
p300
a(dp301
VNamedEntityTag
p302
g73
sVCharacterOffsetEnd
p303
V72
p304
sVCharacterOffsetBegin
p305
V70
p306
sVPartOfSpeech
p307
VIN
p308
sVLemma
p309
Vup
p310
saa(lp311
Vand
p312
a(dp313
VNamedEntityTag
p314
g73
sVCharacterOffsetEnd
p315
V76
p316
sVCharacterOffsetBegin
p317
V73
p318
sVPartOfSpeech
p319
VCC
p320
sVLemma
p321
Vand
p322
saa(lp323
Von
p324
a(dp325
VNamedEntityTag
p326
g73
sVCharacterOffsetEnd
p327
V79
p328
sVCharacterOffsetBegin
p329
V77
p330
sVPartOfSpeech
p331
VIN
p332
sVLemma
p333
Von
p334
saa(lp335
VSunday
p336
a(dp337
VNormalizedNamedEntityTag
p338
VXXXX-WXX-7
p339
sVTimex
p340
V<TIMEX3 tid="t2" type="DATE" value="XXXX-WXX-7">Sunday</TIMEX3>
p341
sVLemma
p342
VSunday
p343
sVCharacterOffsetEnd
p344
V86
p345
sVPartOfSpeech
p346
VNNP
p347
sVCharacterOffsetBegin
p348
V80
p349
sVNamedEntityTag
p350
VDATE
p351
saa(lp352
Vhe
p353
a(dp354
VNamedEntityTag
p355
g73
sVCharacterOffsetEnd
p356
V89
p357
sVCharacterOffsetBegin
p358
V87
p359
sVPartOfSpeech
p360
VPRP
p361
sVLemma
p362
Vhe
p363
saa(lp364
Vfilled
p365
a(dp366
VNamedEntityTag
p367
g73
sVCharacterOffsetEnd
p368
V96
p369
sVCharacterOffsetBegin
p370
V90
p371
sVPartOfSpeech
p372
VVBD
p373
sVLemma
p374
Vfill
p375
saa(lp376
g62
a(dp377
VNormalizedNamedEntityTag
p378
V4.0
p379
sVLemma
p380
g62
sVCharacterOffsetEnd
p381
V98
p382
sVPartOfSpeech
p383
VCD
p384
sVCharacterOffsetBegin
p385
V97
p386
sVNamedEntityTag
p387
VNUMBER
p388
saa(lp389
Vmore
p390
a(dp391
VNamedEntityTag
p392
g73
sVCharacterOffsetEnd
p393
V103
p394
sVCharacterOffsetBegin
p395
V99
p396
sVPartOfSpeech
p397
VJJR
p398
sVLemma
p399
Vmore
p400
saa(lp401
Vbags
p402
a(dp403
VNamedEntityTag
p404
g73
sVCharacterOffsetEnd
p405
V108
p406
sVCharacterOffsetBegin
p407
V104
p408
sVPartOfSpeech
p409
VNNS
p410
sVLemma
p411
Vbag
p412
saa(lp413
g131
a(dp414
VNamedEntityTag
p415
g73
sVCharacterOffsetEnd
p416
V110
p417
sVCharacterOffsetBegin
p418
V109
p419
sVPartOfSpeech
p420
g131
sVLemma
p421
g131
saasVindexeddependencies
p422
(lp423
(lp424
Vroot
p425
aVROOT-0
p426
aVfilled-4
p427
aa(lp428
Vprep_on
p429
aVfilled-4
p430
aVSaturday-2
p431
aa(lp432
Vnsubj
p433
aVfilled-4
p434
aVhe-3
p435
aa(lp436
Vnum
p437
aVbags-6
p438
aV3-5
p439
aa(lp440
Vnpadvmod
p441
aVup-7
p442
aVbags-6
p443
aa(lp444
Vadvmod
p445
aVfilled-4
p446
aVup-7
p447
aa(lp448
Vconj_and
p449
aVup-7
p450
aVon-9
p451
aa(lp452
Vpobj
p453
aVon-9
p454
aVSunday-10
p455
aa(lp456
Vnsubj
p457
aVfilled-12
p458
aVhe-11
p459
aa(lp460
Vccomp
p461
aVfilled-4
p462
aVfilled-12
p463
aa(lp464
Vnum
p465
aVbags-15
p466
aV4-13
p467
aa(lp468
Vquantmod
p469
aV4-13
p470
aVmore-14
p471
aa(lp472
Vdobj
p473
aVfilled-12
p474
aVbags-15
p475
aasa(dp476
Vparsetree
p477
V(ROOT (SBARQ (SBAR (IN If) (S (NP (DT each) (NN bag)) (VP (VBD had) (NP (NP (CD 9) (NNS cans)) (PP (IN in) (NP (PRP it))))))) (, ,) (WHNP (WHADJP (WRB how) (JJ many)) (NNS cans)) (SQ (VBD did) (NP (PRP he)) (VP (VB pick) (PRT (RP up)) (NP (NN total)))) (. ?)))
p478
sVtext
p479
VIf each bag had 9 cans in it , how many cans did he pick up total ?
p480
sVdependencies
p481
(lp482
(lp483
Vroot
p484
aVROOT
p485
aVpick
p486
aa(lp487
Vmark
p488
aVhad
p489
aVIf
p490
aa(lp491
Vdet
p492
aVbag
p493
aVeach
p494
aa(lp495
Vnsubj
p496
aVhad
p497
aVbag
p498
aa(lp499
Vadvcl
p500
aVpick
p501
aVhad
p502
aa(lp503
Vnum
p504
aVcans
p505
ag89
aa(lp506
Vdobj
p507
aVhad
p508
aVcans
p509
aa(lp510
Vprep_in
p511
aVcans
p512
aVit
p513
aa(lp514
Vadvmod
p515
aVmany
p516
aVhow
p517
aa(lp518
Vamod
p519
aVcans
p520
aVmany
p521
aa(lp522
Vdep
p523
aVpick
p524
aVcans
p525
aa(lp526
Vaux
p527
aVpick
p528
aVdid
p529
aa(lp530
Vnsubj
p531
aVpick
p532
aVhe
p533
aa(lp534
Vprt
p535
aVpick
p536
aVup
p537
aa(lp538
Vdobj
p539
aVpick
p540
aVtotal
p541
aasVwords
p542
(lp543
(lp544
VIf
p545
a(dp546
VNamedEntityTag
p547
g73
sVCharacterOffsetEnd
p548
V113
p549
sVCharacterOffsetBegin
p550
V111
p551
sVPartOfSpeech
p552
VIN
p553
sVLemma
p554
Vif
p555
saa(lp556
Veach
p557
a(dp558
VNamedEntityTag
p559
g73
sVCharacterOffsetEnd
p560
V118
p561
sVCharacterOffsetBegin
p562
V114
p563
sVPartOfSpeech
p564
VDT
p565
sVLemma
p566
Veach
p567
saa(lp568
Vbag
p569
a(dp570
VNamedEntityTag
p571
g73
sVCharacterOffsetEnd
p572
V122
p573
sVCharacterOffsetBegin
p574
V119
p575
sVPartOfSpeech
p576
VNN
p577
sVLemma
p578
Vbag
p579
saa(lp580
Vhad
p581
a(dp582
VNamedEntityTag
p583
g73
sVCharacterOffsetEnd
p584
V126
p585
sVCharacterOffsetBegin
p586
V123
p587
sVPartOfSpeech
p588
VVBD
p589
sVLemma
p590
Vhave
p591
saa(lp592
g89
a(dp593
VNormalizedNamedEntityTag
p594
V9.0
p595
sVLemma
p596
g89
sVCharacterOffsetEnd
p597
V128
p598
sVPartOfSpeech
p599
VCD
p600
sVCharacterOffsetBegin
p601
V127
p602
sVNamedEntityTag
p603
VNUMBER
p604
saa(lp605
Vcans
p606
a(dp607
VNamedEntityTag
p608
g73
sVCharacterOffsetEnd
p609
V133
p610
sVCharacterOffsetBegin
p611
V129
p612
sVPartOfSpeech
p613
VNNS
p614
sVLemma
p615
Vcan
p616
saa(lp617
Vin
p618
a(dp619
VNamedEntityTag
p620
g73
sVCharacterOffsetEnd
p621
V136
p622
sVCharacterOffsetBegin
p623
V134
p624
sVPartOfSpeech
p625
VIN
p626
sVLemma
p627
Vin
p628
saa(lp629
Vit
p630
a(dp631
VNamedEntityTag
p632
g73
sVCharacterOffsetEnd
p633
V139
p634
sVCharacterOffsetBegin
p635
V137
p636
sVPartOfSpeech
p637
VPRP
p638
sVLemma
p639
Vit
p640
saa(lp641
V,
p642
a(dp643
VNamedEntityTag
p644
g73
sVCharacterOffsetEnd
p645
V141
p646
sVCharacterOffsetBegin
p647
V140
p648
sVPartOfSpeech
p649
g642
sVLemma
p650
g642
saa(lp651
Vhow
p652
a(dp653
VNamedEntityTag
p654
g73
sVCharacterOffsetEnd
p655
V145
p656
sVCharacterOffsetBegin
p657
V142
p658
sVPartOfSpeech
p659
VWRB
p660
sVLemma
p661
Vhow
p662
saa(lp663
Vmany
p664
a(dp665
VNamedEntityTag
p666
g73
sVCharacterOffsetEnd
p667
V150
p668
sVCharacterOffsetBegin
p669
V146
p670
sVPartOfSpeech
p671
VJJ
p672
sVLemma
p673
Vmany
p674
saa(lp675
Vcans
p676
a(dp677
VNamedEntityTag
p678
g73
sVCharacterOffsetEnd
p679
V155
p680
sVCharacterOffsetBegin
p681
V151
p682
sVPartOfSpeech
p683
VNNS
p684
sVLemma
p685
Vcan
p686
saa(lp687
Vdid
p688
a(dp689
VNamedEntityTag
p690
g73
sVCharacterOffsetEnd
p691
V159
p692
sVCharacterOffsetBegin
p693
V156
p694
sVPartOfSpeech
p695
VVBD
p696
sVLemma
p697
Vdo
p698
saa(lp699
Vhe
p700
a(dp701
VNamedEntityTag
p702
g73
sVCharacterOffsetEnd
p703
V162
p704
sVCharacterOffsetBegin
p705
V160
p706
sVPartOfSpeech
p707
VPRP
p708
sVLemma
p709
Vhe
p710
saa(lp711
Vpick
p712
a(dp713
VNamedEntityTag
p714
g73
sVCharacterOffsetEnd
p715
V167
p716
sVCharacterOffsetBegin
p717
V163
p718
sVPartOfSpeech
p719
VVB
p720
sVLemma
p721
Vpick
p722
saa(lp723
Vup
p724
a(dp725
VNamedEntityTag
p726
g73
sVCharacterOffsetEnd
p727
V170
p728
sVCharacterOffsetBegin
p729
V168
p730
sVPartOfSpeech
p731
VRP
p732
sVLemma
p733
Vup
p734
saa(lp735
Vtotal
p736
a(dp737
VNamedEntityTag
p738
g73
sVCharacterOffsetEnd
p739
V176
p740
sVCharacterOffsetBegin
p741
V171
p742
sVPartOfSpeech
p743
VNN
p744
sVLemma
p745
Vtotal
p746
saa(lp747
V?
p748
a(dp749
VNamedEntityTag
p750
g73
sVCharacterOffsetEnd
p751
V178
p752
sVCharacterOffsetBegin
p753
V177
p754
sVPartOfSpeech
p755
g131
sVLemma
p756
g748
saasVindexeddependencies
p757
(lp758
(lp759
Vroot
p760
aVROOT-0
p761
aVpick-15
p762
aa(lp763
Vmark
p764
aVhad-4
p765
aVIf-1
p766
aa(lp767
Vdet
p768
aVbag-3
p769
aVeach-2
p770
aa(lp771
Vnsubj
p772
aVhad-4
p773
aVbag-3
p774
aa(lp775
Vadvcl
p776
aVpick-15
p777
aVhad-4
p778
aa(lp779
Vnum
p780
aVcans-6
p781
aV9-5
p782
aa(lp783
Vdobj
p784
aVhad-4
p785
aVcans-6
p786
aa(lp787
Vprep_in
p788
aVcans-6
p789
aVit-8
p790
aa(lp791
Vadvmod
p792
aVmany-11
p793
aVhow-10
p794
aa(lp795
Vamod
p796
aVcans-12
p797
aVmany-11
p798
aa(lp799
Vdep
p800
aVpick-15
p801
aVcans-12
p802
aa(lp803
Vaux
p804
aVpick-15
p805
aVdid-13
p806
aa(lp807
Vnsubj
p808
aVpick-15
p809
aVhe-14
p810
aa(lp811
Vprt
p812
aVpick-15
p813
aVup-16
p814
aa(lp815
Vdobj
p816
aVpick-15
p817
aVtotal-17
p818
aasas.