(dp0
Vcoref
p1
(lp2
(lp3
(lp4
(lp5
Vshe
p6
aI1
aI12
aI12
aI13
aa(lp7
VMaria
p8
aI1
aI1
aI1
aI2
aaaasVsentences
p9
(lp10
(dp11
Vparsetree
p12
V(ROOT (S (NP (NP (NNP April) (POS 's)) (NN discount) (NNS flowers)) (VP (VBD was) (VP (VBG having) (NP (DT a) (NN sale)) (SBAR (WHADVP (WRB where)) (S (NP (DT each) (NN flower)) (VP (VBD was) (NP (CD 6) (NNS dollars))))))) (. .)))
p13
sVtext
p14
VApril's discount flowers was having a sale where each flower was 6 dollars .
p15
sVdependencies
p16
(lp17
(lp18
Vroot
p19
aVROOT
p20
aVhaving
p21
aa(lp22
Vposs
p23
aVflowers
p24
aVApril
p25
aa(lp26
Vnn
p27
aVflowers
p28
aVdiscount
p29
aa(lp30
Vnsubj
p31
aVhaving
p32
aVflowers
p33
aa(lp34
Vaux
p35
aVhaving
p36
aVwas
p37
aa(lp38
Vdet
p39
aVsale
p40
aVa
p41
aa(lp42
Vdobj
p43
aVhaving
p44
aVsale
p45
aa(lp46
Vadvmod
p47
aVdollars
p48
aVwhere
p49
aa(lp50
Vdet
p51
aVflower
p52
aVeach
p53
aa(lp54
Vnsubj
p55
aVdollars
p56
aVflower
p57
aa(lp58
Vcop
p59
aVdollars
p60
aVwas
p61
aa(lp62
Vnum
p63
aVdollars
p64
aV6
p65
aa(lp66
Vadvcl
p67
aVhaving
p68
aVdollars
p69
aasVwords
p70
(lp71
(lp72
VApril
p73
a(dp74
VNormalizedNamedEntityTag
p75
VXXXX-04
p76
sVTimex
p77
V<TIMEX3 tid="t1" type="DATE" value="XXXX-04">April</TIMEX3>
p78
sVLemma
p79
VApril
p80
sVCharacterOffsetEnd
p81
g65
sVPartOfSpeech
p82
VNNP
p83
sVCharacterOffsetBegin
p84
V1
p85
sVNamedEntityTag
p86
VDATE
p87
saa(lp88
V's
p89
a(dp90
VNamedEntityTag
p91
VO
p92
sVCharacterOffsetEnd
p93
V8
p94
sVCharacterOffsetBegin
p95
g65
sVPartOfSpeech
p96
VPOS
p97
sVLemma
p98
V's
p99
saa(lp100
Vdiscount
p101
a(dp102
VNamedEntityTag
p103
g92
sVCharacterOffsetEnd
p104
V17
p105
sVCharacterOffsetBegin
p106
V9
p107
sVPartOfSpeech
p108
VNN
p109
sVLemma
p110
Vdiscount
p111
saa(lp112
Vflowers
p113
a(dp114
VNamedEntityTag
p115
g92
sVCharacterOffsetEnd
p116
V25
p117
sVCharacterOffsetBegin
p118
V18
p119
sVPartOfSpeech
p120
VNNS
p121
sVLemma
p122
Vflower
p123
saa(lp124
Vwas
p125
a(dp126
VNamedEntityTag
p127
g92
sVCharacterOffsetEnd
p128
V29
p129
sVCharacterOffsetBegin
p130
V26
p131
sVPartOfSpeech
p132
VVBD
p133
sVLemma
p134
Vbe
p135
saa(lp136
Vhaving
p137
a(dp138
VNamedEntityTag
p139
g92
sVCharacterOffsetEnd
p140
V36
p141
sVCharacterOffsetBegin
p142
V30
p143
sVPartOfSpeech
p144
VVBG
p145
sVLemma
p146
Vhave
p147
saa(lp148
g41
a(dp149
VNamedEntityTag
p150
g92
sVCharacterOffsetEnd
p151
V38
p152
sVCharacterOffsetBegin
p153
V37
p154
sVPartOfSpeech
p155
VDT
p156
sVLemma
p157
g41
saa(lp158
Vsale
p159
a(dp160
VNamedEntityTag
p161
g92
sVCharacterOffsetEnd
p162
V43
p163
sVCharacterOffsetBegin
p164
V39
p165
sVPartOfSpeech
p166
VNN
p167
sVLemma
p168
Vsale
p169
saa(lp170
Vwhere
p171
a(dp172
VNamedEntityTag
p173
g92
sVCharacterOffsetEnd
p174
V49
p175
sVCharacterOffsetBegin
p176
V44
p177
sVPartOfSpeech
p178
VWRB
p179
sVLemma
p180
Vwhere
p181
saa(lp182
Veach
p183
a(dp184
VNamedEntityTag
p185
g92
sVCharacterOffsetEnd
p186
V54
p187
sVCharacterOffsetBegin
p188
V50
p189
sVPartOfSpeech
p190
VDT
p191
sVLemma
p192
Veach
p193
saa(lp194
Vflower
p195
a(dp196
VNamedEntityTag
p197
g92
sVCharacterOffsetEnd
p198
V61
p199
sVCharacterOffsetBegin
p200
V55
p201
sVPartOfSpeech
p202
VNN
p203
sVLemma
p204
Vflower
p205
saa(lp206
Vwas
p207
a(dp208
VNamedEntityTag
p209
g92
sVCharacterOffsetEnd
p210
V65
p211
sVCharacterOffsetBegin
p212
V62
p213
sVPartOfSpeech
p214
VVBD
p215
sVLemma
p216
Vbe
p217
saa(lp218
g65
a(dp219
VNormalizedNamedEntityTag
p220
V$6.0
p221
sVLemma
p222
g65
sVCharacterOffsetEnd
p223
V67
p224
sVPartOfSpeech
p225
VCD
p226
sVCharacterOffsetBegin
p227
V66
p228
sVNamedEntityTag
p229
VMONEY
p230
saa(lp231
Vdollars
p232
a(dp233
VNormalizedNamedEntityTag
p234
V$6.0
p235
sVLemma
p236
Vdollar
p237
sVCharacterOffsetEnd
p238
V75
p239
sVPartOfSpeech
p240
VNNS
p241
sVCharacterOffsetBegin
p242
V68
p243
sVNamedEntityTag
p244
VMONEY
p245
saa(lp246
V.
p247
a(dp248
VNamedEntityTag
p249
g92
sVCharacterOffsetEnd
p250
V77
p251
sVCharacterOffsetBegin
p252
V76
p253
sVPartOfSpeech
p254
g247
sVLemma
p255
g247
saasVindexeddependencies
p256
(lp257
(lp258
Vroot
p259
aVROOT-0
p260
aVhaving-6
p261
aa(lp262
Vposs
p263
aVflowers-4
p264
aVApril-1
p265
aa(lp266
Vnn
p267
aVflowers-4
p268
aVdiscount-3
p269
aa(lp270
Vnsubj
p271
aVhaving-6
p272
aVflowers-4
p273
aa(lp274
Vaux
p275
aVhaving-6
p276
aVwas-5
p277
aa(lp278
Vdet
p279
aVsale-8
p280
aVa-7
p281
aa(lp282
Vdobj
p283
aVhaving-6
p284
aVsale-8
p285
aa(lp286
Vadvmod
p287
aVdollars-14
p288
aVwhere-9
p289
aa(lp290
Vdet
p291
aVflower-11
p292
aVeach-10
p293
aa(lp294
Vnsubj
p295
aVdollars-14
p296
aVflower-11
p297
aa(lp298
Vcop
p299
aVdollars-14
p300
aVwas-12
p301
aa(lp302
Vnum
p303
aVdollars-14
p304
aV6-13
p305
aa(lp306
Vadvcl
p307
aVhaving-6
p308
aVdollars-14
p309
aasa(dp310
Vparsetree
p311
V(ROOT (SBARQ (SBAR (IN If) (S (NP (NNP Maria)) (VP (VBD bought) (NP (NP (CD 7) (NNS roses)) (CC and) (NP (CD 3) (NNS daisies)))))) (, ,) (WHNP (WRB how) (JJ much)) (SQ (VBD did) (NP (PRP she)) (VP (VB spend))) (. ?)))
p312
sVtext
p313
VIf Maria bought 7 roses and 3 daisies , how much did she spend ?
p314
sVdependencies
p315
(lp316
(lp317
Vroot
p318
aVROOT
p319
aVspend
p320
aa(lp321
Vmark
p322
aVbought
p323
aVIf
p324
aa(lp325
Vnsubj
p326
aVbought
p327
aVMaria
p328
aa(lp329
Vadvcl
p330
aVspend
p331
aVbought
p332
aa(lp333
Vnum
p334
aVroses
p335
aV7
p336
aa(lp337
Vdobj
p338
aVbought
p339
aVroses
p340
aa(lp341
Vnum
p342
aVdaisies
p343
aV3
p344
aa(lp345
Vconj_and
p346
aVroses
p347
aVdaisies
p348
aa(lp349
Vadvmod
p350
aVmuch
p351
aVhow
p352
aa(lp353
Vdep
p354
aVspend
p355
aVmuch
p356
aa(lp357
Vaux
p358
aVspend
p359
aVdid
p360
aa(lp361
Vnsubj
p362
aVspend
p363
aVshe
p364
aasVwords
p365
(lp366
(lp367
VIf
p368
a(dp369
VNamedEntityTag
p370
g92
sVCharacterOffsetEnd
p371
V80
p372
sVCharacterOffsetBegin
p373
V78
p374
sVPartOfSpeech
p375
VIN
p376
sVLemma
p377
Vif
p378
saa(lp379
VMaria
p380
a(dp381
VNamedEntityTag
p382
VPERSON
p383
sVCharacterOffsetEnd
p384
V86
p385
sVCharacterOffsetBegin
p386
V81
p387
sVPartOfSpeech
p388
VNNP
p389
sVLemma
p390
VMaria
p391
saa(lp392
Vbought
p393
a(dp394
VNamedEntityTag
p395
g92
sVCharacterOffsetEnd
p396
V93
p397
sVCharacterOffsetBegin
p398
V87
p399
sVPartOfSpeech
p400
VVBD
p401
sVLemma
p402
Vbuy
p403
saa(lp404
g336
a(dp405
VNormalizedNamedEntityTag
p406
V7.0
p407
sVLemma
p408
g336
sVCharacterOffsetEnd
p409
V95
p410
sVPartOfSpeech
p411
VCD
p412
sVCharacterOffsetBegin
p413
V94
p414
sVNamedEntityTag
p415
VNUMBER
p416
saa(lp417
Vroses
p418
a(dp419
VNamedEntityTag
p420
g92
sVCharacterOffsetEnd
p421
V101
p422
sVCharacterOffsetBegin
p423
V96
p424
sVPartOfSpeech
p425
VNNS
p426
sVLemma
p427
Vrose
p428
saa(lp429
Vand
p430
a(dp431
VNamedEntityTag
p432
g92
sVCharacterOffsetEnd
p433
V105
p434
sVCharacterOffsetBegin
p435
V102
p436
sVPartOfSpeech
p437
VCC
p438
sVLemma
p439
Vand
p440
saa(lp441
g344
a(dp442
VNormalizedNamedEntityTag
p443
V3.0
p444
sVLemma
p445
g344
sVCharacterOffsetEnd
p446
V107
p447
sVPartOfSpeech
p448
VCD
p449
sVCharacterOffsetBegin
p450
V106
p451
sVNamedEntityTag
p452
VNUMBER
p453
saa(lp454
Vdaisies
p455
a(dp456
VNamedEntityTag
p457
g92
sVCharacterOffsetEnd
p458
V115
p459
sVCharacterOffsetBegin
p460
V108
p461
sVPartOfSpeech
p462
VNNS
p463
sVLemma
p464
Vdaisy
p465
saa(lp466
V,
p467
a(dp468
VNamedEntityTag
p469
g92
sVCharacterOffsetEnd
p470
V117
p471
sVCharacterOffsetBegin
p472
V116
p473
sVPartOfSpeech
p474
g467
sVLemma
p475
g467
saa(lp476
Vhow
p477
a(dp478
VNamedEntityTag
p479
g92
sVCharacterOffsetEnd
p480
V121
p481
sVCharacterOffsetBegin
p482
V118
p483
sVPartOfSpeech
p484
VWRB
p485
sVLemma
p486
Vhow
p487
saa(lp488
Vmuch
p489
a(dp490
VNamedEntityTag
p491
g92
sVCharacterOffsetEnd
p492
V126
p493
sVCharacterOffsetBegin
p494
V122
p495
sVPartOfSpeech
p496
VJJ
p497
sVLemma
p498
Vmuch
p499
saa(lp500
Vdid
p501
a(dp502
VNamedEntityTag
p503
g92
sVCharacterOffsetEnd
p504
V130
p505
sVCharacterOffsetBegin
p506
V127
p507
sVPartOfSpeech
p508
VVBD
p509
sVLemma
p510
Vdo
p511
saa(lp512
Vshe
p513
a(dp514
VNamedEntityTag
p515
g92
sVCharacterOffsetEnd
p516
V134
p517
sVCharacterOffsetBegin
p518
V131
p519
sVPartOfSpeech
p520
VPRP
p521
sVLemma
p522
Vshe
p523
saa(lp524
Vspend
p525
a(dp526
VNamedEntityTag
p527
g92
sVCharacterOffsetEnd
p528
V140
p529
sVCharacterOffsetBegin
p530
V135
p531
sVPartOfSpeech
p532
VVB
p533
sVLemma
p534
Vspend
p535
saa(lp536
V?
p537
a(dp538
VNamedEntityTag
p539
g92
sVCharacterOffsetEnd
p540
V142
p541
sVCharacterOffsetBegin
p542
V141
p543
sVPartOfSpeech
p544
g247
sVLemma
p545
g537
saasVindexeddependencies
p546
(lp547
(lp548
Vroot
p549
aVROOT-0
p550
aVspend-14
p551
aa(lp552
Vmark
p553
aVbought-3
p554
aVIf-1
p555
aa(lp556
Vnsubj
p557
aVbought-3
p558
aVMaria-2
p559
aa(lp560
Vadvcl
p561
aVspend-14
p562
aVbought-3
p563
aa(lp564
Vnum
p565
aVroses-5
p566
aV7-4
p567
aa(lp568
Vdobj
p569
aVbought-3
p570
aVroses-5
p571
aa(lp572
Vnum
p573
aVdaisies-8
p574
aV3-7
p575
aa(lp576
Vconj_and
p577
aVroses-5
p578
aVdaisies-8
p579
aa(lp580
Vadvmod
p581
aVmuch-11
p582
aVhow-10
p583
aa(lp584
Vdep
p585
aVspend-14
p586
aVmuch-11
p587
aa(lp588
Vaux
p589
aVspend-14
p590
aVdid-12
p591
aa(lp592
Vnsubj
p593
aVspend-14
p594
aVshe-13
p595
aasas.