(dp0
Vcoref
p1
(lp2
(lp3
(lp4
(lp5
VEllen
p6
aI2
aI3
aI3
aI4
aa(lp7
VEllen
p8
aI0
aI0
aI0
aI1
aaa(lp9
(lp10
Vshe
p11
aI2
aI9
aI9
aI10
aa(lp12
VEllen
p13
aI0
aI0
aI0
aI1
aaaasVsentences
p14
(lp15
(dp16
Vparsetree
p17
V(ROOT (S (NP (NNP Ellen)) (VP (VBD went) (PP (TO to) (NP (DT a) (NN garage) (NN sale))) (S (VP (TO to) (VP (VB buy) (NP (NNS chairs)))))) (. .)))
p18
sVtext
p19
VEllen went to a garage sale to buy chairs .
p20
sVdependencies
p21
(lp22
(lp23
Vroot
p24
aVROOT
p25
aVwent
p26
aa(lp27
Vnsubj
p28
aVwent
p29
aVEllen
p30
aa(lp31
Vdet
p32
aVsale
p33
aVa
p34
aa(lp35
Vnn
p36
aVsale
p37
aVgarage
p38
aa(lp39
Vprep_to
p40
aVwent
p41
aVsale
p42
aa(lp43
Vaux
p44
aVbuy
p45
aVto
p46
aa(lp47
Vxcomp
p48
aVwent
p49
aVbuy
p50
aa(lp51
Vdobj
p52
aVbuy
p53
aVchairs
p54
aasVwords
p55
(lp56
(lp57
VEllen
p58
a(dp59
VNamedEntityTag
p60
VPERSON
p61
sVCharacterOffsetEnd
p62
V6
p63
sVCharacterOffsetBegin
p64
V1
p65
sVPartOfSpeech
p66
VNNP
p67
sVLemma
p68
VEllen
p69
saa(lp70
Vwent
p71
a(dp72
VNamedEntityTag
p73
VO
p74
sVCharacterOffsetEnd
p75
V11
p76
sVCharacterOffsetBegin
p77
V7
p78
sVPartOfSpeech
p79
VVBD
p80
sVLemma
p81
Vgo
p82
saa(lp83
Vto
p84
a(dp85
VNamedEntityTag
p86
g74
sVCharacterOffsetEnd
p87
V14
p88
sVCharacterOffsetBegin
p89
V12
p90
sVPartOfSpeech
p91
VTO
p92
sVLemma
p93
Vto
p94
saa(lp95
g34
a(dp96
VNamedEntityTag
p97
g74
sVCharacterOffsetEnd
p98
V16
p99
sVCharacterOffsetBegin
p100
V15
p101
sVPartOfSpeech
p102
VDT
p103
sVLemma
p104
g34
saa(lp105
Vgarage
p106
a(dp107
VNamedEntityTag
p108
g74
sVCharacterOffsetEnd
p109
V23
p110
sVCharacterOffsetBegin
p111
V17
p112
sVPartOfSpeech
p113
VNN
p114
sVLemma
p115
Vgarage
p116
saa(lp117
Vsale
p118
a(dp119
VNamedEntityTag
p120
g74
sVCharacterOffsetEnd
p121
V28
p122
sVCharacterOffsetBegin
p123
V24
p124
sVPartOfSpeech
p125
VNN
p126
sVLemma
p127
Vsale
p128
saa(lp129
Vto
p130
a(dp131
VNamedEntityTag
p132
g74
sVCharacterOffsetEnd
p133
V31
p134
sVCharacterOffsetBegin
p135
V29
p136
sVPartOfSpeech
p137
VTO
p138
sVLemma
p139
Vto
p140
saa(lp141
Vbuy
p142
a(dp143
VNamedEntityTag
p144
g74
sVCharacterOffsetEnd
p145
V35
p146
sVCharacterOffsetBegin
p147
V32
p148
sVPartOfSpeech
p149
VVB
p150
sVLemma
p151
Vbuy
p152
saa(lp153
Vchairs
p154
a(dp155
VNamedEntityTag
p156
g74
sVCharacterOffsetEnd
p157
V42
p158
sVCharacterOffsetBegin
p159
V36
p160
sVPartOfSpeech
p161
VNNS
p162
sVLemma
p163
Vchair
p164
saa(lp165
V.
p166
a(dp167
VNamedEntityTag
p168
g74
sVCharacterOffsetEnd
p169
V44
p170
sVCharacterOffsetBegin
p171
V43
p172
sVPartOfSpeech
p173
g166
sVLemma
p174
g166
saasVindexeddependencies
p175
(lp176
(lp177
Vroot
p178
aVROOT-0
p179
aVwent-2
p180
aa(lp181
Vnsubj
p182
aVwent-2
p183
aVEllen-1
p184
aa(lp185
Vdet
p186
aVsale-6
p187
aVa-4
p188
aa(lp189
Vnn
p190
aVsale-6
p191
aVgarage-5
p192
aa(lp193
Vprep_to
p194
aVwent-2
p195
aVsale-6
p196
aa(lp197
Vaux
p198
aVbuy-8
p199
aVto-7
p200
aa(lp201
Vxcomp
p202
aVwent-2
p203
aVbuy-8
p204
aa(lp205
Vdobj
p206
aVbuy-8
p207
aVchairs-9
p208
aasa(dp209
Vparsetree
p210
V(ROOT (S (NP (DT Each) (NN chair)) (VP (VBZ is) (NP (CD 15) (NNS dollars))) (. .)))
p211
sVtext
p212
VEach chair is 15 dollars .
p213
sVdependencies
p214
(lp215
(lp216
Vroot
p217
aVROOT
p218
aVdollars
p219
aa(lp220
Vdet
p221
aVchair
p222
aVEach
p223
aa(lp224
Vnsubj
p225
aVdollars
p226
aVchair
p227
aa(lp228
Vcop
p229
aVdollars
p230
aVis
p231
aa(lp232
Vnum
p233
aVdollars
p234
aV15
p235
aasVwords
p236
(lp237
(lp238
VEach
p239
a(dp240
VNamedEntityTag
p241
g74
sVCharacterOffsetEnd
p242
V49
p243
sVCharacterOffsetBegin
p244
V45
p245
sVPartOfSpeech
p246
VDT
p247
sVLemma
p248
Veach
p249
saa(lp250
Vchair
p251
a(dp252
VNamedEntityTag
p253
g74
sVCharacterOffsetEnd
p254
V55
p255
sVCharacterOffsetBegin
p256
V50
p257
sVPartOfSpeech
p258
VNN
p259
sVLemma
p260
Vchair
p261
saa(lp262
Vis
p263
a(dp264
VNamedEntityTag
p265
g74
sVCharacterOffsetEnd
p266
V58
p267
sVCharacterOffsetBegin
p268
V56
p269
sVPartOfSpeech
p270
VVBZ
p271
sVLemma
p272
Vbe
p273
saa(lp274
V15
p275
a(dp276
VNormalizedNamedEntityTag
p277
V$15.0
p278
sVLemma
p279
V15
p280
sVCharacterOffsetEnd
p281
V61
p282
sVPartOfSpeech
p283
VCD
p284
sVCharacterOffsetBegin
p285
V59
p286
sVNamedEntityTag
p287
VMONEY
p288
saa(lp289
Vdollars
p290
a(dp291
VNormalizedNamedEntityTag
p292
V$15.0
p293
sVLemma
p294
Vdollar
p295
sVCharacterOffsetEnd
p296
V69
p297
sVPartOfSpeech
p298
VNNS
p299
sVCharacterOffsetBegin
p300
V62
p301
sVNamedEntityTag
p302
VMONEY
p303
saa(lp304
g166
a(dp305
VNamedEntityTag
p306
g74
sVCharacterOffsetEnd
p307
V71
p308
sVCharacterOffsetBegin
p309
V70
p310
sVPartOfSpeech
p311
g166
sVLemma
p312
g166
saasVindexeddependencies
p313
(lp314
(lp315
Vroot
p316
aVROOT-0
p317
aVdollars-5
p318
aa(lp319
Vdet
p320
aVchair-2
p321
aVEach-1
p322
aa(lp323
Vnsubj
p324
aVdollars-5
p325
aVchair-2
p326
aa(lp327
Vcop
p328
aVdollars-5
p329
aVis-3
p330
aa(lp331
Vnum
p332
aVdollars-5
p333
aV15-4
p334
aasa(dp335
Vparsetree
p336
V(ROOT (SBARQ (WHNP (WRB How) (RB much)) (SQ (VBD did) (NP (NNP Ellen)) (VP (VB spend) (PP (IN for) (NP (NP (DT the) (CD 12) (NNS chairs)) (SBAR (S (NP (PRP she)) (VP (VBD bought)))))))) (. ?)))
p337
sVtext
p338
VHow much did Ellen spend for the 12 chairs she bought ?
p339
sVdependencies
p340
(lp341
(lp342
Vroot
p343
aVROOT
p344
aVspend
p345
aa(lp346
Vadvmod
p347
aVmuch
p348
aVHow
p349
aa(lp350
Vdep
p351
aVspend
p352
aVmuch
p353
aa(lp354
Vaux
p355
aVspend
p356
aVdid
p357
aa(lp358
Vnsubj
p359
aVspend
p360
aVEllen
p361
aa(lp362
Vdet
p363
aVchairs
p364
aVthe
p365
aa(lp366
Vnum
p367
aVchairs
p368
aV12
p369
aa(lp370
Vprep_for
p371
aVspend
p372
aVchairs
p373
aa(lp374
Vnsubj
p375
aVbought
p376
aVshe
p377
aa(lp378
Vrcmod
p379
aVchairs
p380
aVbought
p381
aasVwords
p382
(lp383
(lp384
VHow
p385
a(dp386
VNamedEntityTag
p387
g74
sVCharacterOffsetEnd
p388
V75
p389
sVCharacterOffsetBegin
p390
V72
p391
sVPartOfSpeech
p392
VWRB
p393
sVLemma
p394
Vhow
p395
saa(lp396
Vmuch
p397
a(dp398
VNamedEntityTag
p399
g74
sVCharacterOffsetEnd
p400
V80
p401
sVCharacterOffsetBegin
p402
V76
p403
sVPartOfSpeech
p404
VRB
p405
sVLemma
p406
Vmuch
p407
saa(lp408
Vdid
p409
a(dp410
VNamedEntityTag
p411
g74
sVCharacterOffsetEnd
p412
V84
p413
sVCharacterOffsetBegin
p414
V81
p415
sVPartOfSpeech
p416
VVBD
p417
sVLemma
p418
Vdo
p419
saa(lp420
VEllen
p421
a(dp422
VNamedEntityTag
p423
VPERSON
p424
sVCharacterOffsetEnd
p425
V90
p426
sVCharacterOffsetBegin
p427
V85
p428
sVPartOfSpeech
p429
VNNP
p430
sVLemma
p431
VEllen
p432
saa(lp433
Vspend
p434
a(dp435
VNamedEntityTag
p436
g74
sVCharacterOffsetEnd
p437
V96
p438
sVCharacterOffsetBegin
p439
V91
p440
sVPartOfSpeech
p441
VVB
p442
sVLemma
p443
Vspend
p444
saa(lp445
Vfor
p446
a(dp447
VNamedEntityTag
p448
g74
sVCharacterOffsetEnd
p449
V100
p450
sVCharacterOffsetBegin
p451
V97
p452
sVPartOfSpeech
p453
VIN
p454
sVLemma
p455
Vfor
p456
saa(lp457
Vthe
p458
a(dp459
VNamedEntityTag
p460
g74
sVCharacterOffsetEnd
p461
V104
p462
sVCharacterOffsetBegin
p463
V101
p464
sVPartOfSpeech
p465
VDT
p466
sVLemma
p467
Vthe
p468
saa(lp469
V12
p470
a(dp471
VNormalizedNamedEntityTag
p472
V12.0
p473
sVLemma
p474
V12
p475
sVCharacterOffsetEnd
p476
V107
p477
sVPartOfSpeech
p478
VCD
p479
sVCharacterOffsetBegin
p480
V105
p481
sVNamedEntityTag
p482
VNUMBER
p483
saa(lp484
Vchairs
p485
a(dp486
VNamedEntityTag
p487
g74
sVCharacterOffsetEnd
p488
V114
p489
sVCharacterOffsetBegin
p490
V108
p491
sVPartOfSpeech
p492
VNNS
p493
sVLemma
p494
Vchair
p495
saa(lp496
Vshe
p497
a(dp498
VNamedEntityTag
p499
g74
sVCharacterOffsetEnd
p500
V118
p501
sVCharacterOffsetBegin
p502
V115
p503
sVPartOfSpeech
p504
VPRP
p505
sVLemma
p506
Vshe
p507
saa(lp508
Vbought
p509
a(dp510
VNamedEntityTag
p511
g74
sVCharacterOffsetEnd
p512
V125
p513
sVCharacterOffsetBegin
p514
V119
p515
sVPartOfSpeech
p516
VVBD
p517
sVLemma
p518
Vbuy
p519
saa(lp520
V?
p521
a(dp522
VNamedEntityTag
p523
g74
sVCharacterOffsetEnd
p524
V127
p525
sVCharacterOffsetBegin
p526
V126
p527
sVPartOfSpeech
p528
g166
sVLemma
p529
g521
saasVindexeddependencies
p530
(lp531
(lp532
Vroot
p533
aVROOT-0
p534
aVspend-5
p535
aa(lp536
Vadvmod
p537
aVmuch-2
p538
aVHow-1
p539
aa(lp540
Vdep
p541
aVspend-5
p542
aVmuch-2
p543
aa(lp544
Vaux
p545
aVspend-5
p546
aVdid-3
p547
aa(lp548
Vnsubj
p549
aVspend-5
p550
aVEllen-4
p551
aa(lp552
Vdet
p553
aVchairs-9
p554
aVthe-7
p555
aa(lp556
Vnum
p557
aVchairs-9
p558
aV12-8
p559
aa(lp560
Vprep_for
p561
aVspend-5
p562
aVchairs-9
p563
aa(lp564
Vnsubj
p565
aVbought-11
p566
aVshe-10
p567
aa(lp568
Vrcmod
p569
aVchairs-9
p570
aVbought-11
p571
aasas.