(dp0
Vcoref
p1
(lp2
(lp3
(lp4
(lp5
Vhe
p6
aI0
aI11
aI11
aI12
aa(lp7
VDave
p8
aI0
aI0
aI0
aI1
aaa(lp9
(lp10
Vhe
p11
aI1
aI2
aI2
aI3
aa(lp12
VDave
p13
aI0
aI0
aI0
aI1
aaa(lp14
(lp15
Vhe
p16
aI1
aI9
aI9
aI10
aa(lp17
VDave
p18
aI0
aI0
aI0
aI1
aaa(lp19
(lp20
VDave
p21
aI2
aI4
aI4
aI5
aa(lp22
VDave
p23
aI0
aI0
aI0
aI1
aaaasVsentences
p24
(lp25
(dp26
Vparsetree
p27
V(ROOT (S (NP (NNP Dave)) (VP (VBD was) (VP (VBG working) (PP (IN as) (NP (NP (DT a) (NN sacker)) (PP (IN at) (NP (DT a) (NN grocery) (NN store))))) (SBAR (WHADVP (WRB where)) (S (NP (PRP he)) (VP (VBD made) (NP (NP (CD 6) (NNS dollars)) (NP (DT an) (NN hour)))))))) (. .)))
p28
sVtext
p29
VDave was working as a sacker at a grocery store where he made 6 dollars an hour .
p30
sVdependencies
p31
(lp32
(lp33
Vroot
p34
aVROOT
p35
aVworking
p36
aa(lp37
Vnsubj
p38
aVworking
p39
aVDave
p40
aa(lp41
Vaux
p42
aVworking
p43
aVwas
p44
aa(lp45
Vdet
p46
aVsacker
p47
aVa
p48
aa(lp49
Vprep_as
p50
aVworking
p51
aVsacker
p52
aa(lp53
Vdet
p54
aVstore
p55
ag48
aa(lp56
Vnn
p57
aVstore
p58
aVgrocery
p59
aa(lp60
Vprep_at
p61
aVsacker
p62
aVstore
p63
aa(lp64
Vadvmod
p65
aVmade
p66
aVwhere
p67
aa(lp68
Vnsubj
p69
aVmade
p70
aVhe
p71
aa(lp72
Vadvcl
p73
aVworking
p74
aVmade
p75
aa(lp76
Vnum
p77
aVdollars
p78
aV6
p79
aa(lp80
Vdobj
p81
aVmade
p82
aVdollars
p83
aa(lp84
Vdet
p85
aVhour
p86
aVan
p87
aa(lp88
Vdep
p89
aVdollars
p90
aVhour
p91
aasVwords
p92
(lp93
(lp94
VDave
p95
a(dp96
VNamedEntityTag
p97
VPERSON
p98
sVCharacterOffsetEnd
p99
V5
p100
sVCharacterOffsetBegin
p101
V1
p102
sVPartOfSpeech
p103
VNNP
p104
sVLemma
p105
VDave
p106
saa(lp107
Vwas
p108
a(dp109
VNamedEntityTag
p110
VO
p111
sVCharacterOffsetEnd
p112
V9
p113
sVCharacterOffsetBegin
p114
g79
sVPartOfSpeech
p115
VVBD
p116
sVLemma
p117
Vbe
p118
saa(lp119
Vworking
p120
a(dp121
VNamedEntityTag
p122
g111
sVCharacterOffsetEnd
p123
V17
p124
sVCharacterOffsetBegin
p125
V10
p126
sVPartOfSpeech
p127
VVBG
p128
sVLemma
p129
Vwork
p130
saa(lp131
Vas
p132
a(dp133
VNamedEntityTag
p134
g111
sVCharacterOffsetEnd
p135
V20
p136
sVCharacterOffsetBegin
p137
V18
p138
sVPartOfSpeech
p139
VIN
p140
sVLemma
p141
Vas
p142
saa(lp143
g48
a(dp144
VNamedEntityTag
p145
g111
sVCharacterOffsetEnd
p146
V22
p147
sVCharacterOffsetBegin
p148
V21
p149
sVPartOfSpeech
p150
VDT
p151
sVLemma
p152
g48
saa(lp153
Vsacker
p154
a(dp155
VNamedEntityTag
p156
g111
sVCharacterOffsetEnd
p157
V29
p158
sVCharacterOffsetBegin
p159
V23
p160
sVPartOfSpeech
p161
VNN
p162
sVLemma
p163
Vsacker
p164
saa(lp165
Vat
p166
a(dp167
VNamedEntityTag
p168
g111
sVCharacterOffsetEnd
p169
V32
p170
sVCharacterOffsetBegin
p171
V30
p172
sVPartOfSpeech
p173
VIN
p174
sVLemma
p175
Vat
p176
saa(lp177
g48
a(dp178
VNamedEntityTag
p179
g111
sVCharacterOffsetEnd
p180
V34
p181
sVCharacterOffsetBegin
p182
V33
p183
sVPartOfSpeech
p184
VDT
p185
sVLemma
p186
g48
saa(lp187
Vgrocery
p188
a(dp189
VNamedEntityTag
p190
g111
sVCharacterOffsetEnd
p191
V42
p192
sVCharacterOffsetBegin
p193
V35
p194
sVPartOfSpeech
p195
VNN
p196
sVLemma
p197
Vgrocery
p198
saa(lp199
Vstore
p200
a(dp201
VNamedEntityTag
p202
g111
sVCharacterOffsetEnd
p203
V48
p204
sVCharacterOffsetBegin
p205
V43
p206
sVPartOfSpeech
p207
VNN
p208
sVLemma
p209
Vstore
p210
saa(lp211
Vwhere
p212
a(dp213
VNamedEntityTag
p214
g111
sVCharacterOffsetEnd
p215
V54
p216
sVCharacterOffsetBegin
p217
V49
p218
sVPartOfSpeech
p219
VWRB
p220
sVLemma
p221
Vwhere
p222
saa(lp223
Vhe
p224
a(dp225
VNamedEntityTag
p226
g111
sVCharacterOffsetEnd
p227
V57
p228
sVCharacterOffsetBegin
p229
V55
p230
sVPartOfSpeech
p231
VPRP
p232
sVLemma
p233
Vhe
p234
saa(lp235
Vmade
p236
a(dp237
VNamedEntityTag
p238
g111
sVCharacterOffsetEnd
p239
V62
p240
sVCharacterOffsetBegin
p241
V58
p242
sVPartOfSpeech
p243
VVBD
p244
sVLemma
p245
Vmake
p246
saa(lp247
g79
a(dp248
VNormalizedNamedEntityTag
p249
V$6.0
p250
sVLemma
p251
g79
sVCharacterOffsetEnd
p252
V64
p253
sVPartOfSpeech
p254
VCD
p255
sVCharacterOffsetBegin
p256
V63
p257
sVNamedEntityTag
p258
VMONEY
p259
saa(lp260
Vdollars
p261
a(dp262
VNormalizedNamedEntityTag
p263
V$6.0
p264
sVLemma
p265
Vdollar
p266
sVCharacterOffsetEnd
p267
V72
p268
sVPartOfSpeech
p269
VNNS
p270
sVCharacterOffsetBegin
p271
V65
p272
sVNamedEntityTag
p273
VMONEY
p274
saa(lp275
Van
p276
a(dp277
VNormalizedNamedEntityTag
p278
VPT1H
p279
sVTimex
p280
V<TIMEX3 tid="t1" type="DURATION" value="PT1H">an hour</TIMEX3>
p281
sVLemma
p282
g48
sVCharacterOffsetEnd
p283
V75
p284
sVPartOfSpeech
p285
VDT
p286
sVCharacterOffsetBegin
p287
V73
p288
sVNamedEntityTag
p289
VDURATION
p290
saa(lp291
Vhour
p292
a(dp293
VNormalizedNamedEntityTag
p294
VPT1H
p295
sVTimex
p296
V<TIMEX3 tid="t1" type="DURATION" value="PT1H">an hour</TIMEX3>
p297
sVLemma
p298
Vhour
p299
sVCharacterOffsetEnd
p300
V80
p301
sVPartOfSpeech
p302
VNN
p303
sVCharacterOffsetBegin
p304
V76
p305
sVNamedEntityTag
p306
VDURATION
p307
saa(lp308
V.
p309
a(dp310
VNamedEntityTag
p311
g111
sVCharacterOffsetEnd
p312
V82
p313
sVCharacterOffsetBegin
p314
V81
p315
sVPartOfSpeech
p316
g309
sVLemma
p317
g309
saasVindexeddependencies
p318
(lp319
(lp320
Vroot
p321
aVROOT-0
p322
aVworking-3
p323
aa(lp324
Vnsubj
p325
aVworking-3
p326
aVDave-1
p327
aa(lp328
Vaux
p329
aVworking-3
p330
aVwas-2
p331
aa(lp332
Vdet
p333
aVsacker-6
p334
aVa-5
p335
aa(lp336
Vprep_as
p337
aVworking-3
p338
aVsacker-6
p339
aa(lp340
Vdet
p341
aVstore-10
p342
aVa-8
p343
aa(lp344
Vnn
p345
aVstore-10
p346
aVgrocery-9
p347
aa(lp348
Vprep_at
p349
aVsacker-6
p350
aVstore-10
p351
aa(lp352
Vadvmod
p353
aVmade-13
p354
aVwhere-11
p355
aa(lp356
Vnsubj
p357
aVmade-13
p358
aVhe-12
p359
aa(lp360
Vadvcl
p361
aVworking-3
p362
aVmade-13
p363
aa(lp364
Vnum
p365
aVdollars-15
p366
aV6-14
p367
aa(lp368
Vdobj
p369
aVmade-13
p370
aVdollars-15
p371
aa(lp372
Vdet
p373
aVhour-17
p374
aVan-16
p375
aa(lp376
Vdep
p377
aVdollars-15
p378
aVhour-17
p379
aasa(dp380
Vparsetree
p381
V(ROOT (S (S (PP (IN On) (NP (NNP Monday))) (NP (PRP he)) (VP (VBD worked) (NP (CD 6) (NNS hours)))) (CC and) (S (PP (IN on) (NP (NNP Tuesday))) (NP (PRP he)) (VP (VBD worked) (NP (CD 2) (NNS hours)))) (. .)))
p382
sVtext
p383
VOn Monday he worked 6 hours and on Tuesday he worked 2 hours .
p384
sVdependencies
p385
(lp386
(lp387
Vroot
p388
aVROOT
p389
aVworked
p390
aa(lp391
Vprep_on
p392
aVworked
p393
aVMonday
p394
aa(lp395
Vnsubj
p396
aVworked
p397
aVhe
p398
aa(lp399
Vnum
p400
aVhours
p401
ag79
aa(lp402
Vdobj
p403
aVworked
p404
aVhours
p405
aa(lp406
Vprep_on
p407
aVworked
p408
aVTuesday
p409
aa(lp410
Vnsubj
p411
aVworked
p412
aVhe
p413
aa(lp414
Vconj_and
p415
aVworked
p416
aVworked
p417
aa(lp418
Vnum
p419
aVhours
p420
aV2
p421
aa(lp422
Vdobj
p423
aVworked
p424
aVhours
p425
aasVwords
p426
(lp427
(lp428
VOn
p429
a(dp430
VNamedEntityTag
p431
g111
sVCharacterOffsetEnd
p432
V85
p433
sVCharacterOffsetBegin
p434
V83
p435
sVPartOfSpeech
p436
VIN
p437
sVLemma
p438
Von
p439
saa(lp440
VMonday
p441
a(dp442
VNormalizedNamedEntityTag
p443
VXXXX-WXX-1
p444
sVTimex
p445
V<TIMEX3 tid="t2" type="DATE" value="XXXX-WXX-1">Monday</TIMEX3>
p446
sVLemma
p447
VMonday
p448
sVCharacterOffsetEnd
p449
V92
p450
sVPartOfSpeech
p451
VNNP
p452
sVCharacterOffsetBegin
p453
V86
p454
sVNamedEntityTag
p455
VDATE
p456
saa(lp457
Vhe
p458
a(dp459
VNamedEntityTag
p460
g111
sVCharacterOffsetEnd
p461
V95
p462
sVCharacterOffsetBegin
p463
V93
p464
sVPartOfSpeech
p465
VPRP
p466
sVLemma
p467
Vhe
p468
saa(lp469
Vworked
p470
a(dp471
VNamedEntityTag
p472
g111
sVCharacterOffsetEnd
p473
V102
p474
sVCharacterOffsetBegin
p475
V96
p476
sVPartOfSpeech
p477
VVBD
p478
sVLemma
p479
Vwork
p480
saa(lp481
g79
a(dp482
VNormalizedNamedEntityTag
p483
VPT6H
p484
sVTimex
p485
V<TIMEX3 tid="t3" type="DURATION" value="PT6H">6 hours</TIMEX3>
p486
sVLemma
p487
g79
sVCharacterOffsetEnd
p488
V104
p489
sVPartOfSpeech
p490
VCD
p491
sVCharacterOffsetBegin
p492
V103
p493
sVNamedEntityTag
p494
VDURATION
p495
saa(lp496
Vhours
p497
a(dp498
VNormalizedNamedEntityTag
p499
VPT6H
p500
sVTimex
p501
V<TIMEX3 tid="t3" type="DURATION" value="PT6H">6 hours</TIMEX3>
p502
sVLemma
p503
Vhour
p504
sVCharacterOffsetEnd
p505
V110
p506
sVPartOfSpeech
p507
VNNS
p508
sVCharacterOffsetBegin
p509
V105
p510
sVNamedEntityTag
p511
VDURATION
p512
saa(lp513
Vand
p514
a(dp515
VNamedEntityTag
p516
g111
sVCharacterOffsetEnd
p517
V114
p518
sVCharacterOffsetBegin
p519
V111
p520
sVPartOfSpeech
p521
VCC
p522
sVLemma
p523
Vand
p524
saa(lp525
Von
p526
a(dp527
VNamedEntityTag
p528
g111
sVCharacterOffsetEnd
p529
V117
p530
sVCharacterOffsetBegin
p531
V115
p532
sVPartOfSpeech
p533
VIN
p534
sVLemma
p535
Von
p536
saa(lp537
VTuesday
p538
a(dp539
VNormalizedNamedEntityTag
p540
VXXXX-WXX-2
p541
sVTimex
p542
V<TIMEX3 tid="t4" type="DATE" value="XXXX-WXX-2">Tuesday</TIMEX3>
p543
sVLemma
p544
VTuesday
p545
sVCharacterOffsetEnd
p546
V125
p547
sVPartOfSpeech
p548
VNNP
p549
sVCharacterOffsetBegin
p550
V118
p551
sVNamedEntityTag
p552
VDATE
p553
saa(lp554
Vhe
p555
a(dp556
VNamedEntityTag
p557
g111
sVCharacterOffsetEnd
p558
V128
p559
sVCharacterOffsetBegin
p560
V126
p561
sVPartOfSpeech
p562
VPRP
p563
sVLemma
p564
Vhe
p565
saa(lp566
Vworked
p567
a(dp568
VNamedEntityTag
p569
g111
sVCharacterOffsetEnd
p570
V135
p571
sVCharacterOffsetBegin
p572
V129
p573
sVPartOfSpeech
p574
VVBD
p575
sVLemma
p576
Vwork
p577
saa(lp578
g421
a(dp579
VNormalizedNamedEntityTag
p580
VPT2H
p581
sVTimex
p582
V<TIMEX3 tid="t5" type="DURATION" value="PT2H">2 hours</TIMEX3>
p583
sVLemma
p584
g421
sVCharacterOffsetEnd
p585
V137
p586
sVPartOfSpeech
p587
VCD
p588
sVCharacterOffsetBegin
p589
V136
p590
sVNamedEntityTag
p591
VDURATION
p592
saa(lp593
Vhours
p594
a(dp595
VNormalizedNamedEntityTag
p596
VPT2H
p597
sVTimex
p598
V<TIMEX3 tid="t5" type="DURATION" value="PT2H">2 hours</TIMEX3>
p599
sVLemma
p600
Vhour
p601
sVCharacterOffsetEnd
p602
V143
p603
sVPartOfSpeech
p604
VNNS
p605
sVCharacterOffsetBegin
p606
V138
p607
sVNamedEntityTag
p608
VDURATION
p609
saa(lp610
g309
a(dp611
VNamedEntityTag
p612
g111
sVCharacterOffsetEnd
p613
V145
p614
sVCharacterOffsetBegin
p615
V144
p616
sVPartOfSpeech
p617
g309
sVLemma
p618
g309
saasVindexeddependencies
p619
(lp620
(lp621
Vroot
p622
aVROOT-0
p623
aVworked-4
p624
aa(lp625
Vprep_on
p626
aVworked-4
p627
aVMonday-2
p628
aa(lp629
Vnsubj
p630
aVworked-4
p631
aVhe-3
p632
aa(lp633
Vnum
p634
aVhours-6
p635
aV6-5
p636
aa(lp637
Vdobj
p638
aVworked-4
p639
aVhours-6
p640
aa(lp641
Vprep_on
p642
aVworked-11
p643
aVTuesday-9
p644
aa(lp645
Vnsubj
p646
aVworked-11
p647
aVhe-10
p648
aa(lp649
Vconj_and
p650
aVworked-4
p651
aVworked-11
p652
aa(lp653
Vnum
p654
aVhours-13
p655
aV2-12
p656
aa(lp657
Vdobj
p658
aVworked-11
p659
aVhours-13
p660
aasa(dp661
Vparsetree
p662
V(ROOT (SBARQ (WHNP (WHADJP (WRB How) (JJ much)) (NN money)) (SQ (VBD did) (NP (NNP Dave)) (VP (VB make) (PP (IN in) (NP (DT those) (CD two) (NNS days))))) (. ?)))
p663
sVtext
p664
VHow much money did Dave make in those two days ?
p665
sVdependencies
p666
(lp667
(lp668
Vroot
p669
aVROOT
p670
aVmake
p671
aa(lp672
Vadvmod
p673
aVmuch
p674
aVHow
p675
aa(lp676
Vamod
p677
aVmoney
p678
aVmuch
p679
aa(lp680
Vdobj
p681
aVmake
p682
aVmoney
p683
aa(lp684
Vaux
p685
aVmake
p686
aVdid
p687
aa(lp688
Vnsubj
p689
aVmake
p690
aVDave
p691
aa(lp692
Vdet
p693
aVdays
p694
aVthose
p695
aa(lp696
Vnum
p697
aVdays
p698
aVtwo
p699
aa(lp700
Vprep_in
p701
aVmake
p702
aVdays
p703
aasVwords
p704
(lp705
(lp706
VHow
p707
a(dp708
VNamedEntityTag
p709
g111
sVCharacterOffsetEnd
p710
V149
p711
sVCharacterOffsetBegin
p712
V146
p713
sVPartOfSpeech
p714
VWRB
p715
sVLemma
p716
Vhow
p717
saa(lp718
Vmuch
p719
a(dp720
VNamedEntityTag
p721
g111
sVCharacterOffsetEnd
p722
V154
p723
sVCharacterOffsetBegin
p724
V150
p725
sVPartOfSpeech
p726
VJJ
p727
sVLemma
p728
Vmuch
p729
saa(lp730
Vmoney
p731
a(dp732
VNamedEntityTag
p733
g111
sVCharacterOffsetEnd
p734
V160
p735
sVCharacterOffsetBegin
p736
V155
p737
sVPartOfSpeech
p738
VNN
p739
sVLemma
p740
Vmoney
p741
saa(lp742
Vdid
p743
a(dp744
VNamedEntityTag
p745
g111
sVCharacterOffsetEnd
p746
V164
p747
sVCharacterOffsetBegin
p748
V161
p749
sVPartOfSpeech
p750
VVBD
p751
sVLemma
p752
Vdo
p753
saa(lp754
VDave
p755
a(dp756
VNamedEntityTag
p757
VPERSON
p758
sVCharacterOffsetEnd
p759
V169
p760
sVCharacterOffsetBegin
p761
V165
p762
sVPartOfSpeech
p763
VNNP
p764
sVLemma
p765
VDave
p766
saa(lp767
Vmake
p768
a(dp769
VNamedEntityTag
p770
g111
sVCharacterOffsetEnd
p771
V174
p772
sVCharacterOffsetBegin
p773
V170
p774
sVPartOfSpeech
p775
VVB
p776
sVLemma
p777
Vmake
p778
saa(lp779
Vin
p780
a(dp781
VNamedEntityTag
p782
g111
sVCharacterOffsetEnd
p783
V177
p784
sVCharacterOffsetBegin
p785
V175
p786
sVPartOfSpeech
p787
VIN
p788
sVLemma
p789
Vin
p790
saa(lp791
Vthose
p792
a(dp793
VNamedEntityTag
p794
g111
sVCharacterOffsetEnd
p795
V183
p796
sVCharacterOffsetBegin
p797
V178
p798
sVPartOfSpeech
p799
VDT
p800
sVLemma
p801
Vthose
p802
saa(lp803
Vtwo
p804
a(dp805
VNormalizedNamedEntityTag
p806
VP2D
p807
sVTimex
p808
V<TIMEX3 tid="t6" type="DURATION" value="P2D">two days</TIMEX3>
p809
sVLemma
p810
Vtwo
p811
sVCharacterOffsetEnd
p812
V187
p813
sVPartOfSpeech
p814
VCD
p815
sVCharacterOffsetBegin
p816
V184
p817
sVNamedEntityTag
p818
VDURATION
p819
saa(lp820
Vdays
p821
a(dp822
VNormalizedNamedEntityTag
p823
VP2D
p824
sVTimex
p825
V<TIMEX3 tid="t6" type="DURATION" value="P2D">two days</TIMEX3>
p826
sVLemma
p827
Vday
p828
sVCharacterOffsetEnd
p829
V192
p830
sVPartOfSpeech
p831
VNNS
p832
sVCharacterOffsetBegin
p833
V188
p834
sVNamedEntityTag
p835
VDURATION
p836
saa(lp837
V?
p838
a(dp839
VNamedEntityTag
p840
g111
sVCharacterOffsetEnd
p841
V194
p842
sVCharacterOffsetBegin
p843
V193
p844
sVPartOfSpeech
p845
g309
sVLemma
p846
g838
saasVindexeddependencies
p847
(lp848
(lp849
Vroot
p850
aVROOT-0
p851
aVmake-6
p852
aa(lp853
Vadvmod
p854
aVmuch-2
p855
aVHow-1
p856
aa(lp857
Vamod
p858
aVmoney-3
p859
aVmuch-2
p860
aa(lp861
Vdobj
p862
aVmake-6
p863
aVmoney-3
p864
aa(lp865
Vaux
p866
aVmake-6
p867
aVdid-4
p868
aa(lp869
Vnsubj
p870
aVmake-6
p871
aVDave-5
p872
aa(lp873
Vdet
p874
aVdays-10
p875
aVthose-8
p876
aa(lp877
Vnum
p878
aVdays-10
p879
aVtwo-9
p880
aa(lp881
Vprep_in
p882
aVmake-6
p883
aVdays-10
p884
aasas.