(dp0
Vcoref
p1
(lp2
(lp3
(lp4
(lp5
Vshe
p6
aI1
aI2
aI2
aI3
aa(lp7
VKaren
p8
aI0
aI0
aI0
aI1
aaa(lp9
(lp10
VKaren
p11
aI2
aI6
aI6
aI7
aa(lp12
VKaren
p13
aI0
aI0
aI0
aI1
aaaa(lp14
(lp15
(lp16
Vtrail mix
p17
aI0
aI13
aI12
aI14
aa(lp18
Vthe trail mix in all
p19
aI2
aI11
aI9
aI14
aaaasVsentences
p20
(lp21
(dp22
Vparsetree
p23
V(ROOT (S (NP (NNP Karen)) (VP (VBD added) (NP (NP (CD 0.25)) (PP (IN of) (NP (NP (DT a) (NN cup)) (PP (IN of) (NP (NNS walnuts)))))) (PP (TO to) (NP (NP (DT a) (NN batch)) (PP (IN of) (NP (NN trail) (NN mix)))))) (. .)))
p24
sVtext
p25
VKaren added 0.25 of a cup of walnuts to a batch of trail mix .
p26
sVdependencies
p27
(lp28
(lp29
Vroot
p30
aVROOT
p31
aVadded
p32
aa(lp33
Vnsubj
p34
aVadded
p35
aVKaren
p36
aa(lp37
Vdobj
p38
aVadded
p39
aV0.25
p40
aa(lp41
Vdet
p42
aVcup
p43
aVa
p44
aa(lp45
Vprep_of
p46
aV0.25
p47
aVcup
p48
aa(lp49
Vprep_of
p50
aVcup
p51
aVwalnuts
p52
aa(lp53
Vdet
p54
aVbatch
p55
ag44
aa(lp56
Vprep_to
p57
aVadded
p58
aVbatch
p59
aa(lp60
Vnn
p61
aVmix
p62
aVtrail
p63
aa(lp64
Vprep_of
p65
aVbatch
p66
aVmix
p67
aasVwords
p68
(lp69
(lp70
VKaren
p71
a(dp72
VNamedEntityTag
p73
VPERSON
p74
sVCharacterOffsetEnd
p75
V6
p76
sVCharacterOffsetBegin
p77
V1
p78
sVPartOfSpeech
p79
VNNP
p80
sVLemma
p81
VKaren
p82
saa(lp83
Vadded
p84
a(dp85
VNamedEntityTag
p86
VO
p87
sVCharacterOffsetEnd
p88
V12
p89
sVCharacterOffsetBegin
p90
V7
p91
sVPartOfSpeech
p92
VVBD
p93
sVLemma
p94
Vadd
p95
saa(lp96
V0.25
p97
a(dp98
VNormalizedNamedEntityTag
p99
V0.25
p100
sVLemma
p101
V0.25
p102
sVCharacterOffsetEnd
p103
V17
p104
sVPartOfSpeech
p105
VCD
p106
sVCharacterOffsetBegin
p107
V13
p108
sVNamedEntityTag
p109
VNUMBER
p110
saa(lp111
Vof
p112
a(dp113
VNamedEntityTag
p114
g87
sVCharacterOffsetEnd
p115
V20
p116
sVCharacterOffsetBegin
p117
V18
p118
sVPartOfSpeech
p119
VIN
p120
sVLemma
p121
Vof
p122
saa(lp123
g44
a(dp124
VNamedEntityTag
p125
g87
sVCharacterOffsetEnd
p126
V22
p127
sVCharacterOffsetBegin
p128
V21
p129
sVPartOfSpeech
p130
VDT
p131
sVLemma
p132
g44
saa(lp133
Vcup
p134
a(dp135
VNamedEntityTag
p136
g87
sVCharacterOffsetEnd
p137
V26
p138
sVCharacterOffsetBegin
p139
V23
p140
sVPartOfSpeech
p141
VNN
p142
sVLemma
p143
Vcup
p144
saa(lp145
Vof
p146
a(dp147
VNamedEntityTag
p148
g87
sVCharacterOffsetEnd
p149
V29
p150
sVCharacterOffsetBegin
p151
V27
p152
sVPartOfSpeech
p153
VIN
p154
sVLemma
p155
Vof
p156
saa(lp157
Vwalnuts
p158
a(dp159
VNamedEntityTag
p160
g87
sVCharacterOffsetEnd
p161
V37
p162
sVCharacterOffsetBegin
p163
V30
p164
sVPartOfSpeech
p165
VNNS
p166
sVLemma
p167
Vwalnut
p168
saa(lp169
Vto
p170
a(dp171
VNamedEntityTag
p172
g87
sVCharacterOffsetEnd
p173
V40
p174
sVCharacterOffsetBegin
p175
V38
p176
sVPartOfSpeech
p177
VTO
p178
sVLemma
p179
Vto
p180
saa(lp181
g44
a(dp182
VNamedEntityTag
p183
g87
sVCharacterOffsetEnd
p184
V42
p185
sVCharacterOffsetBegin
p186
V41
p187
sVPartOfSpeech
p188
VDT
p189
sVLemma
p190
g44
saa(lp191
Vbatch
p192
a(dp193
VNamedEntityTag
p194
g87
sVCharacterOffsetEnd
p195
V48
p196
sVCharacterOffsetBegin
p197
V43
p198
sVPartOfSpeech
p199
VNN
p200
sVLemma
p201
Vbatch
p202
saa(lp203
Vof
p204
a(dp205
VNamedEntityTag
p206
g87
sVCharacterOffsetEnd
p207
V51
p208
sVCharacterOffsetBegin
p209
V49
p210
sVPartOfSpeech
p211
VIN
p212
sVLemma
p213
Vof
p214
saa(lp215
Vtrail
p216
a(dp217
VNamedEntityTag
p218
g87
sVCharacterOffsetEnd
p219
V57
p220
sVCharacterOffsetBegin
p221
V52
p222
sVPartOfSpeech
p223
VNN
p224
sVLemma
p225
Vtrail
p226
saa(lp227
Vmix
p228
a(dp229
VNamedEntityTag
p230
g87
sVCharacterOffsetEnd
p231
V61
p232
sVCharacterOffsetBegin
p233
V58
p234
sVPartOfSpeech
p235
VNN
p236
sVLemma
p237
Vmix
p238
saa(lp239
V.
p240
a(dp241
VNamedEntityTag
p242
g87
sVCharacterOffsetEnd
p243
V63
p244
sVCharacterOffsetBegin
p245
V62
p246
sVPartOfSpeech
p247
g240
sVLemma
p248
g240
saasVindexeddependencies
p249
(lp250
(lp251
Vroot
p252
aVROOT-0
p253
aVadded-2
p254
aa(lp255
Vnsubj
p256
aVadded-2
p257
aVKaren-1
p258
aa(lp259
Vdobj
p260
aVadded-2
p261
aV0.25-3
p262
aa(lp263
Vdet
p264
aVcup-6
p265
aVa-5
p266
aa(lp267
Vprep_of
p268
aV0.25-3
p269
aVcup-6
p270
aa(lp271
Vprep_of
p272
aVcup-6
p273
aVwalnuts-8
p274
aa(lp275
Vdet
p276
aVbatch-11
p277
aVa-10
p278
aa(lp279
Vprep_to
p280
aVadded-2
p281
aVbatch-11
p282
aa(lp283
Vnn
p284
aVmix-14
p285
aVtrail-13
p286
aa(lp287
Vprep_of
p288
aVbatch-11
p289
aVmix-14
p290
aasa(dp291
Vparsetree
p292
V(ROOT (S (ADVP (RB Later)) (, ,) (NP (PRP she)) (VP (VBD added) (NP (NP (CD 0.25)) (PP (IN of) (NP (NP (DT a) (NN cup)) (PP (IN of) (NP (NNS almonds))))))) (. .)))
p293
sVtext
p294
VLater , she added 0.25 of a cup of almonds .
p295
sVdependencies
p296
(lp297
(lp298
Vroot
p299
aVROOT
p300
aVadded
p301
aa(lp302
Vadvmod
p303
aVadded
p304
aVLater
p305
aa(lp306
Vnsubj
p307
aVadded
p308
aVshe
p309
aa(lp310
Vdobj
p311
aVadded
p312
aV0.25
p313
aa(lp314
Vdet
p315
aVcup
p316
ag44
aa(lp317
Vprep_of
p318
aV0.25
p319
aVcup
p320
aa(lp321
Vprep_of
p322
aVcup
p323
aValmonds
p324
aasVwords
p325
(lp326
(lp327
VLater
p328
a(dp329
VNamedEntityTag
p330
g87
sVCharacterOffsetEnd
p331
V69
p332
sVCharacterOffsetBegin
p333
V64
p334
sVPartOfSpeech
p335
VRB
p336
sVLemma
p337
Vlater
p338
saa(lp339
V,
p340
a(dp341
VNamedEntityTag
p342
g87
sVCharacterOffsetEnd
p343
V71
p344
sVCharacterOffsetBegin
p345
V70
p346
sVPartOfSpeech
p347
g340
sVLemma
p348
g340
saa(lp349
Vshe
p350
a(dp351
VNamedEntityTag
p352
g87
sVCharacterOffsetEnd
p353
V75
p354
sVCharacterOffsetBegin
p355
V72
p356
sVPartOfSpeech
p357
VPRP
p358
sVLemma
p359
Vshe
p360
saa(lp361
Vadded
p362
a(dp363
VNamedEntityTag
p364
g87
sVCharacterOffsetEnd
p365
V81
p366
sVCharacterOffsetBegin
p367
V76
p368
sVPartOfSpeech
p369
VVBD
p370
sVLemma
p371
Vadd
p372
saa(lp373
V0.25
p374
a(dp375
VNormalizedNamedEntityTag
p376
V0.25
p377
sVLemma
p378
V0.25
p379
sVCharacterOffsetEnd
p380
V86
p381
sVPartOfSpeech
p382
VCD
p383
sVCharacterOffsetBegin
p384
V82
p385
sVNamedEntityTag
p386
VNUMBER
p387
saa(lp388
Vof
p389
a(dp390
VNamedEntityTag
p391
g87
sVCharacterOffsetEnd
p392
V89
p393
sVCharacterOffsetBegin
p394
V87
p395
sVPartOfSpeech
p396
VIN
p397
sVLemma
p398
Vof
p399
saa(lp400
g44
a(dp401
VNamedEntityTag
p402
g87
sVCharacterOffsetEnd
p403
V91
p404
sVCharacterOffsetBegin
p405
V90
p406
sVPartOfSpeech
p407
VDT
p408
sVLemma
p409
g44
saa(lp410
Vcup
p411
a(dp412
VNamedEntityTag
p413
g87
sVCharacterOffsetEnd
p414
V95
p415
sVCharacterOffsetBegin
p416
V92
p417
sVPartOfSpeech
p418
VNN
p419
sVLemma
p420
Vcup
p421
saa(lp422
Vof
p423
a(dp424
VNamedEntityTag
p425
g87
sVCharacterOffsetEnd
p426
V98
p427
sVCharacterOffsetBegin
p428
V96
p429
sVPartOfSpeech
p430
VIN
p431
sVLemma
p432
Vof
p433
saa(lp434
Valmonds
p435
a(dp436
VNamedEntityTag
p437
g87
sVCharacterOffsetEnd
p438
V106
p439
sVCharacterOffsetBegin
p440
V99
p441
sVPartOfSpeech
p442
VNNS
p443
sVLemma
p444
Valmond
p445
saa(lp446
g240
a(dp447
VNamedEntityTag
p448
g87
sVCharacterOffsetEnd
p449
V108
p450
sVCharacterOffsetBegin
p451
V107
p452
sVPartOfSpeech
p453
g240
sVLemma
p454
g240
saasVindexeddependencies
p455
(lp456
(lp457
Vroot
p458
aVROOT-0
p459
aVadded-4
p460
aa(lp461
Vadvmod
p462
aVadded-4
p463
aVLater-1
p464
aa(lp465
Vnsubj
p466
aVadded-4
p467
aVshe-3
p468
aa(lp469
Vdobj
p470
aVadded-4
p471
aV0.25-5
p472
aa(lp473
Vdet
p474
aVcup-8
p475
aVa-7
p476
aa(lp477
Vprep_of
p478
aV0.25-5
p479
aVcup-8
p480
aa(lp481
Vprep_of
p482
aVcup-8
p483
aValmonds-10
p484
aasa(dp485
Vparsetree
p486
V(ROOT (SBARQ (WHNP (WHNP (WHADJP (WRB How) (JJ many)) (NNS cups)) (PP (IN of) (NP (NNS nuts)))) (SQ (VBD did) (NP (NNP Karen)) (VP (VB put) (PP (IN in) (NP (NP (DT the) (NN trail) (NN mix)) (PP (IN in) (NP (DT all))))))) (. ?)))
p487
sVtext
p488
VHow many cups of nuts did Karen put in the trail mix in all ?
p489
sVdependencies
p490
(lp491
(lp492
Vroot
p493
aVROOT
p494
aVput
p495
aa(lp496
Vadvmod
p497
aVmany
p498
aVHow
p499
aa(lp500
Vamod
p501
aVcups
p502
aVmany
p503
aa(lp504
Vdobj
p505
aVput
p506
aVcups
p507
aa(lp508
Vprep_of
p509
aVcups
p510
aVnuts
p511
aa(lp512
Vaux
p513
aVput
p514
aVdid
p515
aa(lp516
Vnsubj
p517
aVput
p518
aVKaren
p519
aa(lp520
Vdet
p521
aVmix
p522
aVthe
p523
aa(lp524
Vnn
p525
aVmix
p526
aVtrail
p527
aa(lp528
Vprep_in
p529
aVput
p530
aVmix
p531
aa(lp532
Vprep_in
p533
aVmix
p534
aVall
p535
aasVwords
p536
(lp537
(lp538
VHow
p539
a(dp540
VNamedEntityTag
p541
g87
sVCharacterOffsetEnd
p542
V112
p543
sVCharacterOffsetBegin
p544
V109
p545
sVPartOfSpeech
p546
VWRB
p547
sVLemma
p548
Vhow
p549
saa(lp550
Vmany
p551
a(dp552
VNamedEntityTag
p553
g87
sVCharacterOffsetEnd
p554
V117
p555
sVCharacterOffsetBegin
p556
V113
p557
sVPartOfSpeech
p558
VJJ
p559
sVLemma
p560
Vmany
p561
saa(lp562
Vcups
p563
a(dp564
VNamedEntityTag
p565
g87
sVCharacterOffsetEnd
p566
V122
p567
sVCharacterOffsetBegin
p568
V118
p569
sVPartOfSpeech
p570
VNNS
p571
sVLemma
p572
Vcup
p573
saa(lp574
Vof
p575
a(dp576
VNamedEntityTag
p577
g87
sVCharacterOffsetEnd
p578
V125
p579
sVCharacterOffsetBegin
p580
V123
p581
sVPartOfSpeech
p582
VIN
p583
sVLemma
p584
Vof
p585
saa(lp586
Vnuts
p587
a(dp588
VNamedEntityTag
p589
g87
sVCharacterOffsetEnd
p590
V130
p591
sVCharacterOffsetBegin
p592
V126
p593
sVPartOfSpeech
p594
VNNS
p595
sVLemma
p596
Vnut
p597
saa(lp598
Vdid
p599
a(dp600
VNamedEntityTag
p601
g87
sVCharacterOffsetEnd
p602
V134
p603
sVCharacterOffsetBegin
p604
V131
p605
sVPartOfSpeech
p606
VVBD
p607
sVLemma
p608
Vdo
p609
saa(lp610
VKaren
p611
a(dp612
VNamedEntityTag
p613
VPERSON
p614
sVCharacterOffsetEnd
p615
V140
p616
sVCharacterOffsetBegin
p617
V135
p618
sVPartOfSpeech
p619
VNNP
p620
sVLemma
p621
VKaren
p622
saa(lp623
Vput
p624
a(dp625
VNamedEntityTag
p626
g87
sVCharacterOffsetEnd
p627
V144
p628
sVCharacterOffsetBegin
p629
V141
p630
sVPartOfSpeech
p631
VVB
p632
sVLemma
p633
Vput
p634
saa(lp635
Vin
p636
a(dp637
VNamedEntityTag
p638
g87
sVCharacterOffsetEnd
p639
V147
p640
sVCharacterOffsetBegin
p641
V145
p642
sVPartOfSpeech
p643
VIN
p644
sVLemma
p645
Vin
p646
saa(lp647
Vthe
p648
a(dp649
VNamedEntityTag
p650
g87
sVCharacterOffsetEnd
p651
V151
p652
sVCharacterOffsetBegin
p653
V148
p654
sVPartOfSpeech
p655
VDT
p656
sVLemma
p657
Vthe
p658
saa(lp659
Vtrail
p660
a(dp661
VNamedEntityTag
p662
g87
sVCharacterOffsetEnd
p663
V157
p664
sVCharacterOffsetBegin
p665
V152
p666
sVPartOfSpeech
p667
VNN
p668
sVLemma
p669
Vtrail
p670
saa(lp671
Vmix
p672
a(dp673
VNamedEntityTag
p674
g87
sVCharacterOffsetEnd
p675
V161
p676
sVCharacterOffsetBegin
p677
V158
p678
sVPartOfSpeech
p679
VNN
p680
sVLemma
p681
Vmix
p682
saa(lp683
Vin
p684
a(dp685
VNamedEntityTag
p686
g87
sVCharacterOffsetEnd
p687
V164
p688
sVCharacterOffsetBegin
p689
V162
p690
sVPartOfSpeech
p691
VIN
p692
sVLemma
p693
Vin
p694
saa(lp695
Vall
p696
a(dp697
VNamedEntityTag
p698
g87
sVCharacterOffsetEnd
p699
V168
p700
sVCharacterOffsetBegin
p701
V165
p702
sVPartOfSpeech
p703
VDT
p704
sVLemma
p705
Vall
p706
saa(lp707
V?
p708
a(dp709
VNamedEntityTag
p710
g87
sVCharacterOffsetEnd
p711
V170
p712
sVCharacterOffsetBegin
p713
V169
p714
sVPartOfSpeech
p715
g240
sVLemma
p716
g708
saasVindexeddependencies
p717
(lp718
(lp719
Vroot
p720
aVROOT-0
p721
aVput-8
p722
aa(lp723
Vadvmod
p724
aVmany-2
p725
aVHow-1
p726
aa(lp727
Vamod
p728
aVcups-3
p729
aVmany-2
p730
aa(lp731
Vdobj
p732
aVput-8
p733
aVcups-3
p734
aa(lp735
Vprep_of
p736
aVcups-3
p737
aVnuts-5
p738
aa(lp739
Vaux
p740
aVput-8
p741
aVdid-6
p742
aa(lp743
Vnsubj
p744
aVput-8
p745
aVKaren-7
p746
aa(lp747
Vdet
p748
aVmix-12
p749
aVthe-10
p750
aa(lp751
Vnn
p752
aVmix-12
p753
aVtrail-11
p754
aa(lp755
Vprep_in
p756
aVput-8
p757
aVmix-12
p758
aa(lp759
Vprep_in
p760
aVmix-12
p761
aVall-14
p762
aasas.