(dp0
Vcoref
p1
(lp2
(lp3
(lp4
(lp5
Vher
p6
aI0
aI3
aI3
aI4
aa(lp7
VNancy
p8
aI0
aI0
aI0
aI1
aaa(lp9
(lp10
Vshe
p11
aI1
aI1
aI1
aI2
aa(lp12
VNancy
p13
aI0
aI0
aI0
aI1
aaa(lp14
(lp15
Vshe
p16
aI1
aI19
aI19
aI20
aa(lp17
VNancy
p18
aI0
aI0
aI0
aI1
aaaa(lp19
(lp20
(lp21
V6
p22
aI1
aI9
aI9
aI10
aa(lp23
g22
aI0
aI14
aI14
aI15
aaaa(lp24
(lp25
(lp26
Vit
p27
aI0
aI17
aI17
aI18
aa(lp28
Veach of the shelves
p29
aI0
aI8
aI8
aI12
aaaasVsentences
p30
(lp31
(dp32
Vparsetree
p33
V(ROOT (S (NP (NNP Nancy)) (VP (VBD was) (VP (VBG organizing) (NP (PRP$ her) (NN book) (NN case)) (S (VP (VBG making) (ADJP (JJ sure) (SBAR (S (NP (NP (DT each)) (PP (IN of) (NP (DT the) (NNS shelves)))) (VP (VBD had) (NP (NP (RB exactly) (CD 6) (NNS books)) (PP (IN on) (NP (PRP it)))))))))))) (. .)))
p34
sVtext
p35
VNancy was organizing her book case making sure each of the shelves had exactly 6 books on it .
p36
sVdependencies
p37
(lp38
(lp39
Vroot
p40
aVROOT
p41
aVorganizing
p42
aa(lp43
Vnsubj
p44
aVorganizing
p45
aVNancy
p46
aa(lp47
Vaux
p48
aVorganizing
p49
aVwas
p50
aa(lp51
Vposs
p52
aVcase
p53
aVher
p54
aa(lp55
Vnn
p56
aVcase
p57
aVbook
p58
aa(lp59
Vdobj
p60
aVorganizing
p61
aVcase
p62
aa(lp63
Vvmod
p64
aVorganizing
p65
aVmaking
p66
aa(lp67
Vacomp
p68
aVmaking
p69
aVsure
p70
aa(lp71
Vnsubj
p72
aVhad
p73
aVeach
p74
aa(lp75
Vdet
p76
aVshelves
p77
aVthe
p78
aa(lp79
Vprep_of
p80
aVeach
p81
aVshelves
p82
aa(lp83
Vccomp
p84
aVsure
p85
aVhad
p86
aa(lp87
Vadvmod
p88
aVbooks
p89
aVexactly
p90
aa(lp91
Vnum
p92
aVbooks
p93
ag22
aa(lp94
Vdobj
p95
aVhad
p96
aVbooks
p97
aa(lp98
Vprep_on
p99
aVbooks
p100
aVit
p101
aasVwords
p102
(lp103
(lp104
VNancy
p105
a(dp106
VNamedEntityTag
p107
VPERSON
p108
sVCharacterOffsetEnd
p109
g22
sVCharacterOffsetBegin
p110
V1
p111
sVPartOfSpeech
p112
VNNP
p113
sVLemma
p114
VNancy
p115
saa(lp116
Vwas
p117
a(dp118
VNamedEntityTag
p119
VO
p120
sVCharacterOffsetEnd
p121
V10
p122
sVCharacterOffsetBegin
p123
V7
p124
sVPartOfSpeech
p125
VVBD
p126
sVLemma
p127
Vbe
p128
saa(lp129
Vorganizing
p130
a(dp131
VNamedEntityTag
p132
g120
sVCharacterOffsetEnd
p133
V21
p134
sVCharacterOffsetBegin
p135
V11
p136
sVPartOfSpeech
p137
VVBG
p138
sVLemma
p139
Vorganize
p140
saa(lp141
Vher
p142
a(dp143
VNamedEntityTag
p144
g120
sVCharacterOffsetEnd
p145
V25
p146
sVCharacterOffsetBegin
p147
V22
p148
sVPartOfSpeech
p149
VPRP$
p150
sVLemma
p151
Vshe
p152
saa(lp153
Vbook
p154
a(dp155
VNamedEntityTag
p156
g120
sVCharacterOffsetEnd
p157
V30
p158
sVCharacterOffsetBegin
p159
V26
p160
sVPartOfSpeech
p161
VNN
p162
sVLemma
p163
Vbook
p164
saa(lp165
Vcase
p166
a(dp167
VNamedEntityTag
p168
g120
sVCharacterOffsetEnd
p169
V35
p170
sVCharacterOffsetBegin
p171
V31
p172
sVPartOfSpeech
p173
VNN
p174
sVLemma
p175
Vcase
p176
saa(lp177
Vmaking
p178
a(dp179
VNamedEntityTag
p180
g120
sVCharacterOffsetEnd
p181
V42
p182
sVCharacterOffsetBegin
p183
V36
p184
sVPartOfSpeech
p185
VVBG
p186
sVLemma
p187
Vmake
p188
saa(lp189
Vsure
p190
a(dp191
VNamedEntityTag
p192
g120
sVCharacterOffsetEnd
p193
V47
p194
sVCharacterOffsetBegin
p195
V43
p196
sVPartOfSpeech
p197
VJJ
p198
sVLemma
p199
Vsure
p200
saa(lp201
Veach
p202
a(dp203
VNamedEntityTag
p204
g120
sVCharacterOffsetEnd
p205
V52
p206
sVCharacterOffsetBegin
p207
V48
p208
sVPartOfSpeech
p209
VDT
p210
sVLemma
p211
Veach
p212
saa(lp213
Vof
p214
a(dp215
VNamedEntityTag
p216
g120
sVCharacterOffsetEnd
p217
V55
p218
sVCharacterOffsetBegin
p219
V53
p220
sVPartOfSpeech
p221
VIN
p222
sVLemma
p223
Vof
p224
saa(lp225
Vthe
p226
a(dp227
VNamedEntityTag
p228
g120
sVCharacterOffsetEnd
p229
V59
p230
sVCharacterOffsetBegin
p231
V56
p232
sVPartOfSpeech
p233
VDT
p234
sVLemma
p235
Vthe
p236
saa(lp237
Vshelves
p238
a(dp239
VNamedEntityTag
p240
g120
sVCharacterOffsetEnd
p241
V67
p242
sVCharacterOffsetBegin
p243
V60
p244
sVPartOfSpeech
p245
VNNS
p246
sVLemma
p247
Vshelf
p248
saa(lp249
Vhad
p250
a(dp251
VNamedEntityTag
p252
g120
sVCharacterOffsetEnd
p253
V71
p254
sVCharacterOffsetBegin
p255
V68
p256
sVPartOfSpeech
p257
VVBD
p258
sVLemma
p259
Vhave
p260
saa(lp261
Vexactly
p262
a(dp263
VNamedEntityTag
p264
g120
sVCharacterOffsetEnd
p265
V79
p266
sVCharacterOffsetBegin
p267
V72
p268
sVPartOfSpeech
p269
VRB
p270
sVLemma
p271
Vexactly
p272
saa(lp273
g22
a(dp274
VNormalizedNamedEntityTag
p275
V6.0
p276
sVLemma
p277
g22
sVCharacterOffsetEnd
p278
V81
p279
sVPartOfSpeech
p280
VCD
p281
sVCharacterOffsetBegin
p282
V80
p283
sVNamedEntityTag
p284
VNUMBER
p285
saa(lp286
Vbooks
p287
a(dp288
VNamedEntityTag
p289
g120
sVCharacterOffsetEnd
p290
V87
p291
sVCharacterOffsetBegin
p292
V82
p293
sVPartOfSpeech
p294
VNNS
p295
sVLemma
p296
Vbook
p297
saa(lp298
Von
p299
a(dp300
VNamedEntityTag
p301
g120
sVCharacterOffsetEnd
p302
V90
p303
sVCharacterOffsetBegin
p304
V88
p305
sVPartOfSpeech
p306
VIN
p307
sVLemma
p308
Von
p309
saa(lp310
Vit
p311
a(dp312
VNamedEntityTag
p313
g120
sVCharacterOffsetEnd
p314
V93
p315
sVCharacterOffsetBegin
p316
V91
p317
sVPartOfSpeech
p318
VPRP
p319
sVLemma
p320
Vit
p321
saa(lp322
V.
p323
a(dp324
VNamedEntityTag
p325
g120
sVCharacterOffsetEnd
p326
V95
p327
sVCharacterOffsetBegin
p328
V94
p329
sVPartOfSpeech
p330
g323
sVLemma
p331
g323
saasVindexeddependencies
p332
(lp333
(lp334
Vroot
p335
aVROOT-0
p336
aVorganizing-3
p337
aa(lp338
Vnsubj
p339
aVorganizing-3
p340
aVNancy-1
p341
aa(lp342
Vaux
p343
aVorganizing-3
p344
aVwas-2
p345
aa(lp346
Vposs
p347
aVcase-6
p348
aVher-4
p349
aa(lp350
Vnn
p351
aVcase-6
p352
aVbook-5
p353
aa(lp354
Vdobj
p355
aVorganizing-3
p356
aVcase-6
p357
aa(lp358
Vvmod
p359
aVorganizing-3
p360
aVmaking-7
p361
aa(lp362
Vacomp
p363
aVmaking-7
p364
aVsure-8
p365
aa(lp366
Vnsubj
p367
aVhad-13
p368
aVeach-9
p369
aa(lp370
Vdet
p371
aVshelves-12
p372
aVthe-11
p373
aa(lp374
Vprep_of
p375
aVeach-9
p376
aVshelves-12
p377
aa(lp378
Vccomp
p379
aVsure-8
p380
aVhad-13
p381
aa(lp382
Vadvmod
p383
aVbooks-16
p384
aVexactly-14
p385
aa(lp386
Vnum
p387
aVbooks-16
p388
aV6-15
p389
aa(lp390
Vdobj
p391
aVhad-13
p392
aVbooks-16
p393
aa(lp394
Vprep_on
p395
aVbooks-16
p396
aVit-18
p397
aasa(dp398
Vparsetree
p399
V(ROOT (SBARQ (SBAR (IN If) (S (NP (PRP she)) (VP (VBD had) (NP (NP (NP (CD 2) (NNS shelves)) (PP (IN of) (NP (NN mystery) (NNS books)))) (CC and) (NP (NP (CD 6) (NNS shelves)) (PP (IN of) (NP (NN picture) (NNS books)))))))) (, ,) (WHNP (WHADJP (WRB how) (JJ many)) (NNS books)) (SQ (VBD did) (NP (PRP she)) (VP (VB have) (NP (NN total)))) (. ?)))
p400
sVtext
p401
VIf she had 2 shelves of mystery books and 6 shelves of picture books , how many books did she have total ?
p402
sVdependencies
p403
(lp404
(lp405
Vroot
p406
aVROOT
p407
aVhave
p408
aa(lp409
Vmark
p410
aVhad
p411
aVIf
p412
aa(lp413
Vnsubj
p414
aVhad
p415
aVshe
p416
aa(lp417
Vadvcl
p418
aVhave
p419
aVhad
p420
aa(lp421
Vnum
p422
aVshelves
p423
aV2
p424
aa(lp425
Vdobj
p426
aVhad
p427
aVshelves
p428
aa(lp429
Vnn
p430
aVbooks
p431
aVmystery
p432
aa(lp433
Vprep_of
p434
aVshelves
p435
aVbooks
p436
aa(lp437
Vnum
p438
aVshelves
p439
ag22
aa(lp440
Vconj_and
p441
aVshelves
p442
aVshelves
p443
aa(lp444
Vnn
p445
aVbooks
p446
aVpicture
p447
aa(lp448
Vprep_of
p449
aVshelves
p450
aVbooks
p451
aa(lp452
Vadvmod
p453
aVmany
p454
aVhow
p455
aa(lp456
Vamod
p457
aVbooks
p458
aVmany
p459
aa(lp460
Vdep
p461
aVhave
p462
aVbooks
p463
aa(lp464
Vaux
p465
aVhave
p466
aVdid
p467
aa(lp468
Vnsubj
p469
aVhave
p470
aVshe
p471
aa(lp472
Vdobj
p473
aVhave
p474
aVtotal
p475
aasVwords
p476
(lp477
(lp478
VIf
p479
a(dp480
VNamedEntityTag
p481
g120
sVCharacterOffsetEnd
p482
V98
p483
sVCharacterOffsetBegin
p484
V96
p485
sVPartOfSpeech
p486
VIN
p487
sVLemma
p488
Vif
p489
saa(lp490
Vshe
p491
a(dp492
VNamedEntityTag
p493
g120
sVCharacterOffsetEnd
p494
V102
p495
sVCharacterOffsetBegin
p496
V99
p497
sVPartOfSpeech
p498
VPRP
p499
sVLemma
p500
Vshe
p501
saa(lp502
Vhad
p503
a(dp504
VNamedEntityTag
p505
g120
sVCharacterOffsetEnd
p506
V106
p507
sVCharacterOffsetBegin
p508
V103
p509
sVPartOfSpeech
p510
VVBD
p511
sVLemma
p512
Vhave
p513
saa(lp514
g424
a(dp515
VNormalizedNamedEntityTag
p516
V2.0
p517
sVLemma
p518
g424
sVCharacterOffsetEnd
p519
V108
p520
sVPartOfSpeech
p521
VCD
p522
sVCharacterOffsetBegin
p523
V107
p524
sVNamedEntityTag
p525
VNUMBER
p526
saa(lp527
Vshelves
p528
a(dp529
VNamedEntityTag
p530
g120
sVCharacterOffsetEnd
p531
V116
p532
sVCharacterOffsetBegin
p533
V109
p534
sVPartOfSpeech
p535
VNNS
p536
sVLemma
p537
Vshelf
p538
saa(lp539
Vof
p540
a(dp541
VNamedEntityTag
p542
g120
sVCharacterOffsetEnd
p543
V119
p544
sVCharacterOffsetBegin
p545
V117
p546
sVPartOfSpeech
p547
VIN
p548
sVLemma
p549
Vof
p550
saa(lp551
Vmystery
p552
a(dp553
VNamedEntityTag
p554
g120
sVCharacterOffsetEnd
p555
V127
p556
sVCharacterOffsetBegin
p557
V120
p558
sVPartOfSpeech
p559
VNN
p560
sVLemma
p561
Vmystery
p562
saa(lp563
Vbooks
p564
a(dp565
VNamedEntityTag
p566
g120
sVCharacterOffsetEnd
p567
V133
p568
sVCharacterOffsetBegin
p569
V128
p570
sVPartOfSpeech
p571
VNNS
p572
sVLemma
p573
Vbook
p574
saa(lp575
Vand
p576
a(dp577
VNamedEntityTag
p578
g120
sVCharacterOffsetEnd
p579
V137
p580
sVCharacterOffsetBegin
p581
V134
p582
sVPartOfSpeech
p583
VCC
p584
sVLemma
p585
Vand
p586
saa(lp587
g22
a(dp588
VNormalizedNamedEntityTag
p589
V6.0
p590
sVLemma
p591
g22
sVCharacterOffsetEnd
p592
V139
p593
sVPartOfSpeech
p594
VCD
p595
sVCharacterOffsetBegin
p596
V138
p597
sVNamedEntityTag
p598
VNUMBER
p599
saa(lp600
Vshelves
p601
a(dp602
VNamedEntityTag
p603
g120
sVCharacterOffsetEnd
p604
V147
p605
sVCharacterOffsetBegin
p606
V140
p607
sVPartOfSpeech
p608
VNNS
p609
sVLemma
p610
Vshelf
p611
saa(lp612
Vof
p613
a(dp614
VNamedEntityTag
p615
g120
sVCharacterOffsetEnd
p616
V150
p617
sVCharacterOffsetBegin
p618
V148
p619
sVPartOfSpeech
p620
VIN
p621
sVLemma
p622
Vof
p623
saa(lp624
Vpicture
p625
a(dp626
VNamedEntityTag
p627
g120
sVCharacterOffsetEnd
p628
V158
p629
sVCharacterOffsetBegin
p630
V151
p631
sVPartOfSpeech
p632
VNN
p633
sVLemma
p634
Vpicture
p635
saa(lp636
Vbooks
p637
a(dp638
VNamedEntityTag
p639
g120
sVCharacterOffsetEnd
p640
V164
p641
sVCharacterOffsetBegin
p642
V159
p643
sVPartOfSpeech
p644
VNNS
p645
sVLemma
p646
Vbook
p647
saa(lp648
V,
p649
a(dp650
VNamedEntityTag
p651
g120
sVCharacterOffsetEnd
p652
V166
p653
sVCharacterOffsetBegin
p654
V165
p655
sVPartOfSpeech
p656
g649
sVLemma
p657
g649
saa(lp658
Vhow
p659
a(dp660
VNamedEntityTag
p661
g120
sVCharacterOffsetEnd
p662
V170
p663
sVCharacterOffsetBegin
p664
V167
p665
sVPartOfSpeech
p666
VWRB
p667
sVLemma
p668
Vhow
p669
saa(lp670
Vmany
p671
a(dp672
VNamedEntityTag
p673
g120
sVCharacterOffsetEnd
p674
V175
p675
sVCharacterOffsetBegin
p676
V171
p677
sVPartOfSpeech
p678
VJJ
p679
sVLemma
p680
Vmany
p681
saa(lp682
Vbooks
p683
a(dp684
VNamedEntityTag
p685
g120
sVCharacterOffsetEnd
p686
V181
p687
sVCharacterOffsetBegin
p688
V176
p689
sVPartOfSpeech
p690
VNNS
p691
sVLemma
p692
Vbook
p693
saa(lp694
Vdid
p695
a(dp696
VNamedEntityTag
p697
g120
sVCharacterOffsetEnd
p698
V185
p699
sVCharacterOffsetBegin
p700
V182
p701
sVPartOfSpeech
p702
VVBD
p703
sVLemma
p704
Vdo
p705
saa(lp706
Vshe
p707
a(dp708
VNamedEntityTag
p709
g120
sVCharacterOffsetEnd
p710
V189
p711
sVCharacterOffsetBegin
p712
V186
p713
sVPartOfSpeech
p714
VPRP
p715
sVLemma
p716
Vshe
p717
saa(lp718
Vhave
p719
a(dp720
VNamedEntityTag
p721
g120
sVCharacterOffsetEnd
p722
V194
p723
sVCharacterOffsetBegin
p724
V190
p725
sVPartOfSpeech
p726
VVB
p727
sVLemma
p728
Vhave
p729
saa(lp730
Vtotal
p731
a(dp732
VNamedEntityTag
p733
g120
sVCharacterOffsetEnd
p734
V200
p735
sVCharacterOffsetBegin
p736
V195
p737
sVPartOfSpeech
p738
VNN
p739
sVLemma
p740
Vtotal
p741
saa(lp742
V?
p743
a(dp744
VNamedEntityTag
p745
g120
sVCharacterOffsetEnd
p746
V202
p747
sVCharacterOffsetBegin
p748
V201
p749
sVPartOfSpeech
p750
g323
sVLemma
p751
g743
saasVindexeddependencies
p752
(lp753
(lp754
Vroot
p755
aVROOT-0
p756
aVhave-21
p757
aa(lp758
Vmark
p759
aVhad-3
p760
aVIf-1
p761
aa(lp762
Vnsubj
p763
aVhad-3
p764
aVshe-2
p765
aa(lp766
Vadvcl
p767
aVhave-21
p768
aVhad-3
p769
aa(lp770
Vnum
p771
aVshelves-5
p772
aV2-4
p773
aa(lp774
Vdobj
p775
aVhad-3
p776
aVshelves-5
p777
aa(lp778
Vnn
p779
aVbooks-8
p780
aVmystery-7
p781
aa(lp782
Vprep_of
p783
aVshelves-5
p784
aVbooks-8
p785
aa(lp786
Vnum
p787
aVshelves-11
p788
aV6-10
p789
aa(lp790
Vconj_and
p791
aVshelves-5
p792
aVshelves-11
p793
aa(lp794
Vnn
p795
aVbooks-14
p796
aVpicture-13
p797
aa(lp798
Vprep_of
p799
aVshelves-11
p800
aVbooks-14
p801
aa(lp802
Vadvmod
p803
aVmany-17
p804
aVhow-16
p805
aa(lp806
Vamod
p807
aVbooks-18
p808
aVmany-17
p809
aa(lp810
Vdep
p811
aVhave-21
p812
aVbooks-18
p813
aa(lp814
Vaux
p815
aVhave-21
p816
aVdid-19
p817
aa(lp818
Vnsubj
p819
aVhave-21
p820
aVshe-20
p821
aa(lp822
Vdobj
p823
aVhave-21
p824
aVtotal-22
p825
aasas.