(dp0
Vcoref
p1
(lp2
(lp3
(lp4
(lp5
VKendall
p6
aI1
aI3
aI3
aI4
aa(lp7
VKendall
p8
aI0
aI0
aI0
aI1
aaaa(lp9
(lp10
(lp11
Vher
p12
aI0
aI17
aI17
aI18
aa(lp13
Vshe
p14
aI0
aI9
aI9
aI10
aaaa(lp15
(lp16
(lp17
Vher
p18
aI0
aI26
aI26
aI27
aa(lp19
Vher mother
p20
aI0
aI18
aI17
aI19
aaaasVsentences
p21
(lp22
(dp23
Vparsetree
p24
V(ROOT (S (S (NP (NNP Kendall)) (VP (VBZ is) (VP (VBG learning) (S (VP (TO to) (VP (VB drive))))))) (, ,) (RB so) (S (NP-TMP (DT this) (NN weekend)) (NP (PRP she)) (VP (VBD practiced) (S (VP (VBG driving) (NP (NP (CD 0.16666666666666666)) (PP (IN of) (NP (NP (NP (DT a) (NN mile)) (PP (IN with) (NP (PRP$ her) (NN mother)))) (CC and) (NP (NP (QP (DT another) (CD 0.5))) (PP (IN of) (NP (NP (DT a) (NN mile)) (PP (IN with) (NP (PRP$ her) (NN father))))))))))))) (. .)))
p25
sVtext
p26
VKendall is learning to drive , so this weekend she practiced driving 0.16666666666666666 of a mile with her mother and another 0.5 of a mile with her father .
p27
sVdependencies
p28
(lp29
(lp30
Vroot
p31
aVROOT
p32
aVlearning
p33
aa(lp34
Vnsubj
p35
aVlearning
p36
aVKendall
p37
aa(lp38
Vaux
p39
aVlearning
p40
aVis
p41
aa(lp42
Vaux
p43
aVdrive
p44
aVto
p45
aa(lp46
Vxcomp
p47
aVlearning
p48
aVdrive
p49
aa(lp50
Vadvmod
p51
aVlearning
p52
aVso
p53
aa(lp54
Vdet
p55
aVweekend
p56
aVthis
p57
aa(lp58
Vtmod
p59
aVpracticed
p60
aVweekend
p61
aa(lp62
Vnsubj
p63
aVpracticed
p64
aVshe
p65
aa(lp66
Vparataxis
p67
aVlearning
p68
aVpracticed
p69
aa(lp70
Vxcomp
p71
aVpracticed
p72
aVdriving
p73
aa(lp74
Vdobj
p75
aVdriving
p76
aV0.16666666666666666
p77
aa(lp78
Vdet
p79
aVmile
p80
aVa
p81
aa(lp82
Vprep_of
p83
aV0.16666666666666666
p84
aVmile
p85
aa(lp86
Vposs
p87
aVmother
p88
aVher
p89
aa(lp90
Vprep_with
p91
aVmile
p92
aVmother
p93
aa(lp94
Vquantmod
p95
aV0.5
p96
aVanother
p97
aa(lp98
Vconj_and
p99
aVmile
p100
aV0.5
p101
aa(lp102
Vdet
p103
aVmile
p104
ag81
aa(lp105
Vprep_of
p106
aV0.5
p107
aVmile
p108
aa(lp109
Vposs
p110
aVfather
p111
aVher
p112
aa(lp113
Vprep_with
p114
aVmile
p115
aVfather
p116
aasVwords
p117
(lp118
(lp119
VKendall
p120
a(dp121
VNamedEntityTag
p122
VPERSON
p123
sVCharacterOffsetEnd
p124
V8
p125
sVCharacterOffsetBegin
p126
V1
p127
sVPartOfSpeech
p128
VNNP
p129
sVLemma
p130
VKendall
p131
saa(lp132
Vis
p133
a(dp134
VNamedEntityTag
p135
VO
p136
sVCharacterOffsetEnd
p137
V11
p138
sVCharacterOffsetBegin
p139
V9
p140
sVPartOfSpeech
p141
VVBZ
p142
sVLemma
p143
Vbe
p144
saa(lp145
Vlearning
p146
a(dp147
VNamedEntityTag
p148
g136
sVCharacterOffsetEnd
p149
V20
p150
sVCharacterOffsetBegin
p151
V12
p152
sVPartOfSpeech
p153
VVBG
p154
sVLemma
p155
Vlearn
p156
saa(lp157
Vto
p158
a(dp159
VNamedEntityTag
p160
g136
sVCharacterOffsetEnd
p161
V23
p162
sVCharacterOffsetBegin
p163
V21
p164
sVPartOfSpeech
p165
VTO
p166
sVLemma
p167
Vto
p168
saa(lp169
Vdrive
p170
a(dp171
VNamedEntityTag
p172
g136
sVCharacterOffsetEnd
p173
V29
p174
sVCharacterOffsetBegin
p175
V24
p176
sVPartOfSpeech
p177
VVB
p178
sVLemma
p179
Vdrive
p180
saa(lp181
V,
p182
a(dp183
VNamedEntityTag
p184
g136
sVCharacterOffsetEnd
p185
V31
p186
sVCharacterOffsetBegin
p187
V30
p188
sVPartOfSpeech
p189
g182
sVLemma
p190
g182
saa(lp191
Vso
p192
a(dp193
VNamedEntityTag
p194
g136
sVCharacterOffsetEnd
p195
V34
p196
sVCharacterOffsetBegin
p197
V32
p198
sVPartOfSpeech
p199
VRB
p200
sVLemma
p201
Vso
p202
saa(lp203
Vthis
p204
a(dp205
VNormalizedNamedEntityTag
p206
VTHIS
p207
sVTimex
p208
V<TIMEX3 alt_value="THIS WE" anchorTimeID="t0" temporalFunction="true" tid="t1" type="DATE" valueFromFunction="tf0">this weekend</TIMEX3>
p209
sVLemma
p210
Vthis
p211
sVCharacterOffsetEnd
p212
V39
p213
sVPartOfSpeech
p214
VDT
p215
sVCharacterOffsetBegin
p216
V35
p217
sVNamedEntityTag
p218
VDATE
p219
saa(lp220
Vweekend
p221
a(dp222
VNormalizedNamedEntityTag
p223
VTHIS
p224
sVTimex
p225
V<TIMEX3 alt_value="THIS WE" anchorTimeID="t0" temporalFunction="true" tid="t1" type="DATE" valueFromFunction="tf0">this weekend</TIMEX3>
p226
sVLemma
p227
Vweekend
p228
sVCharacterOffsetEnd
p229
V47
p230
sVPartOfSpeech
p231
VNN
p232
sVCharacterOffsetBegin
p233
V40
p234
sVNamedEntityTag
p235
VDATE
p236
saa(lp237
Vshe
p238
a(dp239
VNamedEntityTag
p240
g136
sVCharacterOffsetEnd
p241
V51
p242
sVCharacterOffsetBegin
p243
V48
p244
sVPartOfSpeech
p245
VPRP
p246
sVLemma
p247
Vshe
p248
saa(lp249
Vpracticed
p250
a(dp251
VNamedEntityTag
p252
g136
sVCharacterOffsetEnd
p253
V61
p254
sVCharacterOffsetBegin
p255
V52
p256
sVPartOfSpeech
p257
VVBD
p258
sVLemma
p259
Vpractice
p260
saa(lp261
Vdriving
p262
a(dp263
VNamedEntityTag
p264
g136
sVCharacterOffsetEnd
p265
V69
p266
sVCharacterOffsetBegin
p267
V62
p268
sVPartOfSpeech
p269
VVBG
p270
sVLemma
p271
Vdrive
p272
saa(lp273
V0.16666666666666666
p274
a(dp275
VNormalizedNamedEntityTag
p276
V0.16666666666666666
p277
sVLemma
p278
V0.16666666666666666
p279
sVCharacterOffsetEnd
p280
V89
p281
sVPartOfSpeech
p282
VCD
p283
sVCharacterOffsetBegin
p284
V70
p285
sVNamedEntityTag
p286
VNUMBER
p287
saa(lp288
Vof
p289
a(dp290
VNamedEntityTag
p291
g136
sVCharacterOffsetEnd
p292
V92
p293
sVCharacterOffsetBegin
p294
V90
p295
sVPartOfSpeech
p296
VIN
p297
sVLemma
p298
Vof
p299
saa(lp300
g81
a(dp301
VNamedEntityTag
p302
g136
sVCharacterOffsetEnd
p303
V94
p304
sVCharacterOffsetBegin
p305
V93
p306
sVPartOfSpeech
p307
VDT
p308
sVLemma
p309
g81
saa(lp310
Vmile
p311
a(dp312
VNamedEntityTag
p313
g136
sVCharacterOffsetEnd
p314
V99
p315
sVCharacterOffsetBegin
p316
V95
p317
sVPartOfSpeech
p318
VNN
p319
sVLemma
p320
Vmile
p321
saa(lp322
Vwith
p323
a(dp324
VNamedEntityTag
p325
g136
sVCharacterOffsetEnd
p326
V104
p327
sVCharacterOffsetBegin
p328
V100
p329
sVPartOfSpeech
p330
VIN
p331
sVLemma
p332
Vwith
p333
saa(lp334
Vher
p335
a(dp336
VNamedEntityTag
p337
g136
sVCharacterOffsetEnd
p338
V108
p339
sVCharacterOffsetBegin
p340
V105
p341
sVPartOfSpeech
p342
VPRP$
p343
sVLemma
p344
Vshe
p345
saa(lp346
Vmother
p347
a(dp348
VNamedEntityTag
p349
g136
sVCharacterOffsetEnd
p350
V115
p351
sVCharacterOffsetBegin
p352
V109
p353
sVPartOfSpeech
p354
VNN
p355
sVLemma
p356
Vmother
p357
saa(lp358
Vand
p359
a(dp360
VNamedEntityTag
p361
g136
sVCharacterOffsetEnd
p362
V119
p363
sVCharacterOffsetBegin
p364
V116
p365
sVPartOfSpeech
p366
VCC
p367
sVLemma
p368
Vand
p369
saa(lp370
Vanother
p371
a(dp372
VNamedEntityTag
p373
g136
sVCharacterOffsetEnd
p374
V127
p375
sVCharacterOffsetBegin
p376
V120
p377
sVPartOfSpeech
p378
VDT
p379
sVLemma
p380
Vanother
p381
saa(lp382
V0.5
p383
a(dp384
VNormalizedNamedEntityTag
p385
V0.5
p386
sVLemma
p387
V0.5
p388
sVCharacterOffsetEnd
p389
V131
p390
sVPartOfSpeech
p391
VCD
p392
sVCharacterOffsetBegin
p393
V128
p394
sVNamedEntityTag
p395
VNUMBER
p396
saa(lp397
Vof
p398
a(dp399
VNamedEntityTag
p400
g136
sVCharacterOffsetEnd
p401
V134
p402
sVCharacterOffsetBegin
p403
V132
p404
sVPartOfSpeech
p405
VIN
p406
sVLemma
p407
Vof
p408
saa(lp409
g81
a(dp410
VNamedEntityTag
p411
g136
sVCharacterOffsetEnd
p412
V136
p413
sVCharacterOffsetBegin
p414
V135
p415
sVPartOfSpeech
p416
VDT
p417
sVLemma
p418
g81
saa(lp419
Vmile
p420
a(dp421
VNamedEntityTag
p422
g136
sVCharacterOffsetEnd
p423
V141
p424
sVCharacterOffsetBegin
p425
V137
p426
sVPartOfSpeech
p427
VNN
p428
sVLemma
p429
Vmile
p430
saa(lp431
Vwith
p432
a(dp433
VNamedEntityTag
p434
g136
sVCharacterOffsetEnd
p435
V146
p436
sVCharacterOffsetBegin
p437
V142
p438
sVPartOfSpeech
p439
VIN
p440
sVLemma
p441
Vwith
p442
saa(lp443
Vher
p444
a(dp445
VNamedEntityTag
p446
g136
sVCharacterOffsetEnd
p447
V150
p448
sVCharacterOffsetBegin
p449
V147
p450
sVPartOfSpeech
p451
VPRP$
p452
sVLemma
p453
Vshe
p454
saa(lp455
Vfather
p456
a(dp457
VNamedEntityTag
p458
g136
sVCharacterOffsetEnd
p459
V157
p460
sVCharacterOffsetBegin
p461
V151
p462
sVPartOfSpeech
p463
VNN
p464
sVLemma
p465
Vfather
p466
saa(lp467
V.
p468
a(dp469
VNamedEntityTag
p470
g136
sVCharacterOffsetEnd
p471
V159
p472
sVCharacterOffsetBegin
p473
V158
p474
sVPartOfSpeech
p475
g468
sVLemma
p476
g468
saasVindexeddependencies
p477
(lp478
(lp479
Vroot
p480
aVROOT-0
p481
aVlearning-3
p482
aa(lp483
Vnsubj
p484
aVlearning-3
p485
aVKendall-1
p486
aa(lp487
Vaux
p488
aVlearning-3
p489
aVis-2
p490
aa(lp491
Vaux
p492
aVdrive-5
p493
aVto-4
p494
aa(lp495
Vxcomp
p496
aVlearning-3
p497
aVdrive-5
p498
aa(lp499
Vadvmod
p500
aVlearning-3
p501
aVso-7
p502
aa(lp503
Vdet
p504
aVweekend-9
p505
aVthis-8
p506
aa(lp507
Vtmod
p508
aVpracticed-11
p509
aVweekend-9
p510
aa(lp511
Vnsubj
p512
aVpracticed-11
p513
aVshe-10
p514
aa(lp515
Vparataxis
p516
aVlearning-3
p517
aVpracticed-11
p518
aa(lp519
Vxcomp
p520
aVpracticed-11
p521
aVdriving-12
p522
aa(lp523
Vdobj
p524
aVdriving-12
p525
aV0.16666666666666666-13
p526
aa(lp527
Vdet
p528
aVmile-16
p529
aVa-15
p530
aa(lp531
Vprep_of
p532
aV0.16666666666666666-13
p533
aVmile-16
p534
aa(lp535
Vposs
p536
aVmother-19
p537
aVher-18
p538
aa(lp539
Vprep_with
p540
aVmile-16
p541
aVmother-19
p542
aa(lp543
Vquantmod
p544
aV0.5-22
p545
aVanother-21
p546
aa(lp547
Vconj_and
p548
aVmile-16
p549
aV0.5-22
p550
aa(lp551
Vdet
p552
aVmile-25
p553
aVa-24
p554
aa(lp555
Vprep_of
p556
aV0.5-22
p557
aVmile-25
p558
aa(lp559
Vposs
p560
aVfather-28
p561
aVher-27
p562
aa(lp563
Vprep_with
p564
aVmile-25
p565
aVfather-28
p566
aasa(dp567
Vparsetree
p568
V(ROOT (SBARQ (WHADVP (WRB How) (RB far)) (SQ (VBD did) (NP (NNP Kendall)) (VP (VB drive) (PP (IN in) (NP (DT all))))) (. ?)))
p569
sVtext
p570
VHow far did Kendall drive in all ?
p571
sVdependencies
p572
(lp573
(lp574
Vroot
p575
aVROOT
p576
aVdrive
p577
aa(lp578
Vadvmod
p579
aVfar
p580
aVHow
p581
aa(lp582
Vadvmod
p583
aVdrive
p584
aVfar
p585
aa(lp586
Vaux
p587
aVdrive
p588
aVdid
p589
aa(lp590
Vnsubj
p591
aVdrive
p592
aVKendall
p593
aa(lp594
Vprep_in
p595
aVdrive
p596
aVall
p597
aasVwords
p598
(lp599
(lp600
VHow
p601
a(dp602
VNamedEntityTag
p603
g136
sVCharacterOffsetEnd
p604
V163
p605
sVCharacterOffsetBegin
p606
V160
p607
sVPartOfSpeech
p608
VWRB
p609
sVLemma
p610
Vhow
p611
saa(lp612
Vfar
p613
a(dp614
VNamedEntityTag
p615
g136
sVCharacterOffsetEnd
p616
V167
p617
sVCharacterOffsetBegin
p618
V164
p619
sVPartOfSpeech
p620
VRB
p621
sVLemma
p622
Vfar
p623
saa(lp624
Vdid
p625
a(dp626
VNamedEntityTag
p627
g136
sVCharacterOffsetEnd
p628
V171
p629
sVCharacterOffsetBegin
p630
V168
p631
sVPartOfSpeech
p632
VVBD
p633
sVLemma
p634
Vdo
p635
saa(lp636
VKendall
p637
a(dp638
VNamedEntityTag
p639
VPERSON
p640
sVCharacterOffsetEnd
p641
V179
p642
sVCharacterOffsetBegin
p643
V172
p644
sVPartOfSpeech
p645
VNNP
p646
sVLemma
p647
VKendall
p648
saa(lp649
Vdrive
p650
a(dp651
VNamedEntityTag
p652
g136
sVCharacterOffsetEnd
p653
V185
p654
sVCharacterOffsetBegin
p655
V180
p656
sVPartOfSpeech
p657
VVB
p658
sVLemma
p659
Vdrive
p660
saa(lp661
Vin
p662
a(dp663
VNamedEntityTag
p664
g136
sVCharacterOffsetEnd
p665
V188
p666
sVCharacterOffsetBegin
p667
V186
p668
sVPartOfSpeech
p669
VIN
p670
sVLemma
p671
Vin
p672
saa(lp673
Vall
p674
a(dp675
VNamedEntityTag
p676
g136
sVCharacterOffsetEnd
p677
V192
p678
sVCharacterOffsetBegin
p679
V189
p680
sVPartOfSpeech
p681
VDT
p682
sVLemma
p683
Vall
p684
saa(lp685
V?
p686
a(dp687
VNamedEntityTag
p688
g136
sVCharacterOffsetEnd
p689
V194
p690
sVCharacterOffsetBegin
p691
V193
p692
sVPartOfSpeech
p693
g468
sVLemma
p694
g686
saasVindexeddependencies
p695
(lp696
(lp697
Vroot
p698
aVROOT-0
p699
aVdrive-5
p700
aa(lp701
Vadvmod
p702
aVfar-2
p703
aVHow-1
p704
aa(lp705
Vadvmod
p706
aVdrive-5
p707
aVfar-2
p708
aa(lp709
Vaux
p710
aVdrive-5
p711
aVdid-3
p712
aa(lp713
Vnsubj
p714
aVdrive-5
p715
aVKendall-4
p716
aa(lp717
Vprep_in
p718
aVdrive-5
p719
aVall-7
p720
aasas.