(dp0
Vcoref
p1
(lp2
(lp3
(lp4
(lp5
VErik
p6
aI1
aI5
aI5
aI6
aa(lp7
VErik
p8
aI0
aI5
aI5
aI6
aaaa(lp9
(lp10
(lp11
VFrank
p12
aI1
aI8
aI8
aI9
aa(lp13
VFrank
p14
aI0
aI17
aI17
aI18
aaaa(lp15
(lp16
(lp17
Va pie
p18
aI0
aI23
aI22
aI24
aa(lp19
Va pie
p20
aI0
aI11
aI10
aI12
aaaasVsentences
p21
(lp22
(dp23
Vparsetree
p24
V(ROOT (S (S (PP (IN At) (NP (DT a) (JJ pie-eating) (NN contest))) (, ,) (NP (NNP Erik)) (VP (VBD got) (PP (IN through) (NP (NP (CD 0.6666666666666666)) (PP (IN of) (NP (DT a) (NN pie))))) (SBAR (IN before) (S (NP (NN time)) (VP (VBD was) (VP (VBN called))))))) (: ;) (S (NP (NNP Frank)) (VP (VBD finished) (NP (NP (QP (RB just) (CD 0.3333333333333333))) (PP (IN of) (NP (DT a) (NN pie)))))) (. .)))
p25
sVtext
p26
VAt a pie-eating contest , Erik got through 0.6666666666666666 of a pie before time was called; Frank finished just 0.3333333333333333 of a pie .
p27
sVdependencies
p28
(lp29
(lp30
Vroot
p31
aVROOT
p32
aVgot
p33
aa(lp34
Vdet
p35
aVcontest
p36
aVa
p37
aa(lp38
Vamod
p39
aVcontest
p40
aVpie-eating
p41
aa(lp42
Vprep_at
p43
aVgot
p44
aVcontest
p45
aa(lp46
Vnsubj
p47
aVgot
p48
aVErik
p49
aa(lp50
Vprep_through
p51
aVgot
p52
aV0.6666666666666666
p53
aa(lp54
Vdet
p55
aVpie
p56
ag37
aa(lp57
Vprep_of
p58
aV0.6666666666666666
p59
aVpie
p60
aa(lp61
Vmark
p62
aVcalled
p63
aVbefore
p64
aa(lp65
Vnsubjpass
p66
aVcalled
p67
aVtime
p68
aa(lp69
Vauxpass
p70
aVcalled
p71
aVwas
p72
aa(lp73
Vadvcl
p74
aVgot
p75
aVcalled
p76
aa(lp77
Vnsubj
p78
aVfinished
p79
aVFrank
p80
aa(lp81
Vparataxis
p82
aVgot
p83
aVfinished
p84
aa(lp85
Vquantmod
p86
aV0.3333333333333333
p87
aVjust
p88
aa(lp89
Vdobj
p90
aVfinished
p91
aV0.3333333333333333
p92
aa(lp93
Vdet
p94
aVpie
p95
ag37
aa(lp96
Vprep_of
p97
aV0.3333333333333333
p98
aVpie
p99
aasVwords
p100
(lp101
(lp102
VAt
p103
a(dp104
VNamedEntityTag
p105
VO
p106
sVCharacterOffsetEnd
p107
V3
p108
sVCharacterOffsetBegin
p109
V1
p110
sVPartOfSpeech
p111
VIN
p112
sVLemma
p113
Vat
p114
saa(lp115
g37
a(dp116
VNamedEntityTag
p117
g106
sVCharacterOffsetEnd
p118
V5
p119
sVCharacterOffsetBegin
p120
V4
p121
sVPartOfSpeech
p122
VDT
p123
sVLemma
p124
g37
saa(lp125
Vpie-eating
p126
a(dp127
VNamedEntityTag
p128
g106
sVCharacterOffsetEnd
p129
V16
p130
sVCharacterOffsetBegin
p131
V6
p132
sVPartOfSpeech
p133
VJJ
p134
sVLemma
p135
Vpie-eating
p136
saa(lp137
Vcontest
p138
a(dp139
VNamedEntityTag
p140
g106
sVCharacterOffsetEnd
p141
V24
p142
sVCharacterOffsetBegin
p143
V17
p144
sVPartOfSpeech
p145
VNN
p146
sVLemma
p147
Vcontest
p148
saa(lp149
V,
p150
a(dp151
VNamedEntityTag
p152
g106
sVCharacterOffsetEnd
p153
V26
p154
sVCharacterOffsetBegin
p155
V25
p156
sVPartOfSpeech
p157
g150
sVLemma
p158
g150
saa(lp159
VErik
p160
a(dp161
VNamedEntityTag
p162
VPERSON
p163
sVCharacterOffsetEnd
p164
V31
p165
sVCharacterOffsetBegin
p166
V27
p167
sVPartOfSpeech
p168
VNNP
p169
sVLemma
p170
VErik
p171
saa(lp172
Vgot
p173
a(dp174
VNamedEntityTag
p175
g106
sVCharacterOffsetEnd
p176
V35
p177
sVCharacterOffsetBegin
p178
V32
p179
sVPartOfSpeech
p180
VVBD
p181
sVLemma
p182
Vget
p183
saa(lp184
Vthrough
p185
a(dp186
VNamedEntityTag
p187
g106
sVCharacterOffsetEnd
p188
V43
p189
sVCharacterOffsetBegin
p190
V36
p191
sVPartOfSpeech
p192
VIN
p193
sVLemma
p194
Vthrough
p195
saa(lp196
V0.6666666666666666
p197
a(dp198
VNormalizedNamedEntityTag
p199
V0.6666666666666666
p200
sVLemma
p201
V0.6666666666666666
p202
sVCharacterOffsetEnd
p203
V62
p204
sVPartOfSpeech
p205
VCD
p206
sVCharacterOffsetBegin
p207
V44
p208
sVNamedEntityTag
p209
VNUMBER
p210
saa(lp211
Vof
p212
a(dp213
VNamedEntityTag
p214
g106
sVCharacterOffsetEnd
p215
V65
p216
sVCharacterOffsetBegin
p217
V63
p218
sVPartOfSpeech
p219
VIN
p220
sVLemma
p221
Vof
p222
saa(lp223
g37
a(dp224
VNamedEntityTag
p225
g106
sVCharacterOffsetEnd
p226
V67
p227
sVCharacterOffsetBegin
p228
V66
p229
sVPartOfSpeech
p230
VDT
p231
sVLemma
p232
g37
saa(lp233
Vpie
p234
a(dp235
VNamedEntityTag
p236
g106
sVCharacterOffsetEnd
p237
V71
p238
sVCharacterOffsetBegin
p239
V68
p240
sVPartOfSpeech
p241
VNN
p242
sVLemma
p243
Vpie
p244
saa(lp245
Vbefore
p246
a(dp247
VNamedEntityTag
p248
g106
sVCharacterOffsetEnd
p249
V78
p250
sVCharacterOffsetBegin
p251
V72
p252
sVPartOfSpeech
p253
VIN
p254
sVLemma
p255
Vbefore
p256
saa(lp257
Vtime
p258
a(dp259
VNamedEntityTag
p260
g106
sVCharacterOffsetEnd
p261
V83
p262
sVCharacterOffsetBegin
p263
V79
p264
sVPartOfSpeech
p265
VNN
p266
sVLemma
p267
Vtime
p268
saa(lp269
Vwas
p270
a(dp271
VNamedEntityTag
p272
g106
sVCharacterOffsetEnd
p273
V87
p274
sVCharacterOffsetBegin
p275
V84
p276
sVPartOfSpeech
p277
VVBD
p278
sVLemma
p279
Vbe
p280
saa(lp281
Vcalled
p282
a(dp283
VNamedEntityTag
p284
g106
sVCharacterOffsetEnd
p285
V94
p286
sVCharacterOffsetBegin
p287
V88
p288
sVPartOfSpeech
p289
VVBN
p290
sVLemma
p291
Vcall
p292
saa(lp293
V;
p294
a(dp295
VNamedEntityTag
p296
g106
sVCharacterOffsetEnd
p297
V95
p298
sVCharacterOffsetBegin
p299
V94
p300
sVPartOfSpeech
p301
V:
p302
sVLemma
p303
g294
saa(lp304
VFrank
p305
a(dp306
VNamedEntityTag
p307
VPERSON
p308
sVCharacterOffsetEnd
p309
V101
p310
sVCharacterOffsetBegin
p311
V96
p312
sVPartOfSpeech
p313
VNNP
p314
sVLemma
p315
VFrank
p316
saa(lp317
Vfinished
p318
a(dp319
VNamedEntityTag
p320
g106
sVCharacterOffsetEnd
p321
V110
p322
sVCharacterOffsetBegin
p323
V102
p324
sVPartOfSpeech
p325
VVBD
p326
sVLemma
p327
Vfinish
p328
saa(lp329
Vjust
p330
a(dp331
VNamedEntityTag
p332
g106
sVCharacterOffsetEnd
p333
V115
p334
sVCharacterOffsetBegin
p335
V111
p336
sVPartOfSpeech
p337
VRB
p338
sVLemma
p339
Vjust
p340
saa(lp341
V0.3333333333333333
p342
a(dp343
VNormalizedNamedEntityTag
p344
V0.3333333333333333
p345
sVLemma
p346
V0.3333333333333333
p347
sVCharacterOffsetEnd
p348
V134
p349
sVPartOfSpeech
p350
VCD
p351
sVCharacterOffsetBegin
p352
V116
p353
sVNamedEntityTag
p354
VNUMBER
p355
saa(lp356
Vof
p357
a(dp358
VNamedEntityTag
p359
g106
sVCharacterOffsetEnd
p360
V137
p361
sVCharacterOffsetBegin
p362
V135
p363
sVPartOfSpeech
p364
VIN
p365
sVLemma
p366
Vof
p367
saa(lp368
g37
a(dp369
VNamedEntityTag
p370
g106
sVCharacterOffsetEnd
p371
V139
p372
sVCharacterOffsetBegin
p373
V138
p374
sVPartOfSpeech
p375
VDT
p376
sVLemma
p377
g37
saa(lp378
Vpie
p379
a(dp380
VNamedEntityTag
p381
g106
sVCharacterOffsetEnd
p382
V143
p383
sVCharacterOffsetBegin
p384
V140
p385
sVPartOfSpeech
p386
VNN
p387
sVLemma
p388
Vpie
p389
saa(lp390
V.
p391
a(dp392
VNamedEntityTag
p393
g106
sVCharacterOffsetEnd
p394
V145
p395
sVCharacterOffsetBegin
p396
V144
p397
sVPartOfSpeech
p398
g391
sVLemma
p399
g391
saasVindexeddependencies
p400
(lp401
(lp402
Vroot
p403
aVROOT-0
p404
aVgot-7
p405
aa(lp406
Vdet
p407
aVcontest-4
p408
aVa-2
p409
aa(lp410
Vamod
p411
aVcontest-4
p412
aVpie-eating-3
p413
aa(lp414
Vprep_at
p415
aVgot-7
p416
aVcontest-4
p417
aa(lp418
Vnsubj
p419
aVgot-7
p420
aVErik-6
p421
aa(lp422
Vprep_through
p423
aVgot-7
p424
aV0.6666666666666666-9
p425
aa(lp426
Vdet
p427
aVpie-12
p428
aVa-11
p429
aa(lp430
Vprep_of
p431
aV0.6666666666666666-9
p432
aVpie-12
p433
aa(lp434
Vmark
p435
aVcalled-16
p436
aVbefore-13
p437
aa(lp438
Vnsubjpass
p439
aVcalled-16
p440
aVtime-14
p441
aa(lp442
Vauxpass
p443
aVcalled-16
p444
aVwas-15
p445
aa(lp446
Vadvcl
p447
aVgot-7
p448
aVcalled-16
p449
aa(lp450
Vnsubj
p451
aVfinished-19
p452
aVFrank-18
p453
aa(lp454
Vparataxis
p455
aVgot-7
p456
aVfinished-19
p457
aa(lp458
Vquantmod
p459
aV0.3333333333333333-21
p460
aVjust-20
p461
aa(lp462
Vdobj
p463
aVfinished-19
p464
aV0.3333333333333333-21
p465
aa(lp466
Vdet
p467
aVpie-24
p468
aVa-23
p469
aa(lp470
Vprep_of
p471
aV0.3333333333333333-21
p472
aVpie-24
p473
aasa(dp474
Vparsetree
p475
V(ROOT (SBARQ (WHNP (WHADJP (WRB How) (RB much)) (NP (NP (RBR more)) (NP (NN pie)))) (SQ (VBD did) (NP (NNP Erik)) (VP (VB eat) (PP (IN than) (NP (NNP Frank))))) (. ?)))
p476
sVtext
p477
VHow much more pie did Erik eat than Frank ?
p478
sVdependencies
p479
(lp480
(lp481
Vroot
p482
aVROOT
p483
aVeat
p484
aa(lp485
Vadvmod
p486
aVmuch
p487
aVHow
p488
aa(lp489
Vamod
p490
aVmore
p491
aVmuch
p492
aa(lp493
Vdobj
p494
aVeat
p495
aVmore
p496
aa(lp497
Vdep
p498
aVmore
p499
aVpie
p500
aa(lp501
Vaux
p502
aVeat
p503
aVdid
p504
aa(lp505
Vnsubj
p506
aVeat
p507
aVErik
p508
aa(lp509
Vprep_than
p510
aVeat
p511
aVFrank
p512
aasVwords
p513
(lp514
(lp515
VHow
p516
a(dp517
VNamedEntityTag
p518
g106
sVCharacterOffsetEnd
p519
V149
p520
sVCharacterOffsetBegin
p521
V146
p522
sVPartOfSpeech
p523
VWRB
p524
sVLemma
p525
Vhow
p526
saa(lp527
Vmuch
p528
a(dp529
VNamedEntityTag
p530
g106
sVCharacterOffsetEnd
p531
V154
p532
sVCharacterOffsetBegin
p533
V150
p534
sVPartOfSpeech
p535
VRB
p536
sVLemma
p537
Vmuch
p538
saa(lp539
Vmore
p540
a(dp541
VNamedEntityTag
p542
g106
sVCharacterOffsetEnd
p543
V159
p544
sVCharacterOffsetBegin
p545
V155
p546
sVPartOfSpeech
p547
VRBR
p548
sVLemma
p549
Vmore
p550
saa(lp551
Vpie
p552
a(dp553
VNamedEntityTag
p554
g106
sVCharacterOffsetEnd
p555
V163
p556
sVCharacterOffsetBegin
p557
V160
p558
sVPartOfSpeech
p559
VNN
p560
sVLemma
p561
Vpie
p562
saa(lp563
Vdid
p564
a(dp565
VNamedEntityTag
p566
g106
sVCharacterOffsetEnd
p567
V167
p568
sVCharacterOffsetBegin
p569
V164
p570
sVPartOfSpeech
p571
VVBD
p572
sVLemma
p573
Vdo
p574
saa(lp575
VErik
p576
a(dp577
VNamedEntityTag
p578
VPERSON
p579
sVCharacterOffsetEnd
p580
V172
p581
sVCharacterOffsetBegin
p582
V168
p583
sVPartOfSpeech
p584
VNNP
p585
sVLemma
p586
VErik
p587
saa(lp588
Veat
p589
a(dp590
VNamedEntityTag
p591
g106
sVCharacterOffsetEnd
p592
V176
p593
sVCharacterOffsetBegin
p594
V173
p595
sVPartOfSpeech
p596
VVB
p597
sVLemma
p598
Veat
p599
saa(lp600
Vthan
p601
a(dp602
VNamedEntityTag
p603
g106
sVCharacterOffsetEnd
p604
V181
p605
sVCharacterOffsetBegin
p606
V177
p607
sVPartOfSpeech
p608
VIN
p609
sVLemma
p610
Vthan
p611
saa(lp612
VFrank
p613
a(dp614
VNamedEntityTag
p615
VPERSON
p616
sVCharacterOffsetEnd
p617
V187
p618
sVCharacterOffsetBegin
p619
V182
p620
sVPartOfSpeech
p621
VNNP
p622
sVLemma
p623
VFrank
p624
saa(lp625
V?
p626
a(dp627
VNamedEntityTag
p628
g106
sVCharacterOffsetEnd
p629
V189
p630
sVCharacterOffsetBegin
p631
V188
p632
sVPartOfSpeech
p633
g391
sVLemma
p634
g626
saasVindexeddependencies
p635
(lp636
(lp637
Vroot
p638
aVROOT-0
p639
aVeat-7
p640
aa(lp641
Vadvmod
p642
aVmuch-2
p643
aVHow-1
p644
aa(lp645
Vamod
p646
aVmore-3
p647
aVmuch-2
p648
aa(lp649
Vdobj
p650
aVeat-7
p651
aVmore-3
p652
aa(lp653
Vdep
p654
aVmore-3
p655
aVpie-4
p656
aa(lp657
Vaux
p658
aVeat-7
p659
aVdid-5
p660
aa(lp661
Vnsubj
p662
aVeat-7
p663
aVErik-6
p664
aa(lp665
Vprep_than
p666
aVeat-7
p667
aVFrank-9
p668
aasas.