(dp0
Vcoref
p1
(lp2
(lp3
(lp4
(lp5
Vthem
p6
aI1
aI4
aI4
aI5
aa(lp7
V39 girls
p8
aI0
aI3
aI2
aI4
aaaasVsentences
p9
(lp10
(dp11
Vparsetree
p12
V(ROOT (S (NP (EX There)) (VP (VBD were) (NP (NP (CD 39) (NNS girls)) (CC and) (NP (NP (CD 4) (NNS boys)) (VP (VBG trying) (PRT (RP out)) (PP (IN for) (NP (DT the) (NNS schools) (NN basketball) (NN team))))))) (. .)))
p13
sVtext
p14
VThere were 39 girls and 4 boys trying out for the schools basketball team .
p15
sVdependencies
p16
(lp17
(lp18
Vroot
p19
aVROOT
p20
aVwere
p21
aa(lp22
Vexpl
p23
aVwere
p24
aVThere
p25
aa(lp26
Vnum
p27
aVgirls
p28
aV39
p29
aa(lp30
Vnsubj
p31
aVwere
p32
aVgirls
p33
aa(lp34
Vnum
p35
aVboys
p36
aV4
p37
aa(lp38
Vconj_and
p39
aVgirls
p40
aVboys
p41
aa(lp42
Vvmod
p43
aVboys
p44
aVtrying
p45
aa(lp46
Vprt
p47
aVtrying
p48
aVout
p49
aa(lp50
Vdet
p51
aVteam
p52
aVthe
p53
aa(lp54
Vnn
p55
aVteam
p56
aVschools
p57
aa(lp58
Vnn
p59
aVteam
p60
aVbasketball
p61
aa(lp62
Vprep_for
p63
aVtrying
p64
aVteam
p65
aasVwords
p66
(lp67
(lp68
VThere
p69
a(dp70
VNamedEntityTag
p71
VO
p72
sVCharacterOffsetEnd
p73
V6
p74
sVCharacterOffsetBegin
p75
V1
p76
sVPartOfSpeech
p77
VEX
p78
sVLemma
p79
Vthere
p80
saa(lp81
Vwere
p82
a(dp83
VNamedEntityTag
p84
g72
sVCharacterOffsetEnd
p85
V11
p86
sVCharacterOffsetBegin
p87
V7
p88
sVPartOfSpeech
p89
VVBD
p90
sVLemma
p91
Vbe
p92
saa(lp93
V39
p94
a(dp95
VNormalizedNamedEntityTag
p96
V39.0
p97
sVLemma
p98
V39
p99
sVCharacterOffsetEnd
p100
V14
p101
sVPartOfSpeech
p102
VCD
p103
sVCharacterOffsetBegin
p104
V12
p105
sVNamedEntityTag
p106
VNUMBER
p107
saa(lp108
Vgirls
p109
a(dp110
VNamedEntityTag
p111
g72
sVCharacterOffsetEnd
p112
V20
p113
sVCharacterOffsetBegin
p114
V15
p115
sVPartOfSpeech
p116
VNNS
p117
sVLemma
p118
Vgirl
p119
saa(lp120
Vand
p121
a(dp122
VNamedEntityTag
p123
g72
sVCharacterOffsetEnd
p124
V24
p125
sVCharacterOffsetBegin
p126
V21
p127
sVPartOfSpeech
p128
VCC
p129
sVLemma
p130
Vand
p131
saa(lp132
g37
a(dp133
VNormalizedNamedEntityTag
p134
V4.0
p135
sVLemma
p136
g37
sVCharacterOffsetEnd
p137
V26
p138
sVPartOfSpeech
p139
VCD
p140
sVCharacterOffsetBegin
p141
V25
p142
sVNamedEntityTag
p143
VNUMBER
p144
saa(lp145
Vboys
p146
a(dp147
VNamedEntityTag
p148
g72
sVCharacterOffsetEnd
p149
V31
p150
sVCharacterOffsetBegin
p151
V27
p152
sVPartOfSpeech
p153
VNNS
p154
sVLemma
p155
Vboy
p156
saa(lp157
Vtrying
p158
a(dp159
VNamedEntityTag
p160
g72
sVCharacterOffsetEnd
p161
V38
p162
sVCharacterOffsetBegin
p163
V32
p164
sVPartOfSpeech
p165
VVBG
p166
sVLemma
p167
Vtry
p168
saa(lp169
Vout
p170
a(dp171
VNamedEntityTag
p172
g72
sVCharacterOffsetEnd
p173
V42
p174
sVCharacterOffsetBegin
p175
V39
p176
sVPartOfSpeech
p177
VRP
p178
sVLemma
p179
Vout
p180
saa(lp181
Vfor
p182
a(dp183
VNamedEntityTag
p184
g72
sVCharacterOffsetEnd
p185
V46
p186
sVCharacterOffsetBegin
p187
V43
p188
sVPartOfSpeech
p189
VIN
p190
sVLemma
p191
Vfor
p192
saa(lp193
Vthe
p194
a(dp195
VNamedEntityTag
p196
g72
sVCharacterOffsetEnd
p197
V50
p198
sVCharacterOffsetBegin
p199
V47
p200
sVPartOfSpeech
p201
VDT
p202
sVLemma
p203
Vthe
p204
saa(lp205
Vschools
p206
a(dp207
VNamedEntityTag
p208
g72
sVCharacterOffsetEnd
p209
V58
p210
sVCharacterOffsetBegin
p211
V51
p212
sVPartOfSpeech
p213
VNNS
p214
sVLemma
p215
Vschool
p216
saa(lp217
Vbasketball
p218
a(dp219
VNamedEntityTag
p220
g72
sVCharacterOffsetEnd
p221
V69
p222
sVCharacterOffsetBegin
p223
V59
p224
sVPartOfSpeech
p225
VNN
p226
sVLemma
p227
Vbasketball
p228
saa(lp229
Vteam
p230
a(dp231
VNamedEntityTag
p232
g72
sVCharacterOffsetEnd
p233
V74
p234
sVCharacterOffsetBegin
p235
V70
p236
sVPartOfSpeech
p237
VNN
p238
sVLemma
p239
Vteam
p240
saa(lp241
V.
p242
a(dp243
VNamedEntityTag
p244
g72
sVCharacterOffsetEnd
p245
V76
p246
sVCharacterOffsetBegin
p247
V75
p248
sVPartOfSpeech
p249
g242
sVLemma
p250
g242
saasVindexeddependencies
p251
(lp252
(lp253
Vroot
p254
aVROOT-0
p255
aVwere-2
p256
aa(lp257
Vexpl
p258
aVwere-2
p259
aVThere-1
p260
aa(lp261
Vnum
p262
aVgirls-4
p263
aV39-3
p264
aa(lp265
Vnsubj
p266
aVwere-2
p267
aVgirls-4
p268
aa(lp269
Vnum
p270
aVboys-7
p271
aV4-6
p272
aa(lp273
Vconj_and
p274
aVgirls-4
p275
aVboys-7
p276
aa(lp277
Vvmod
p278
aVboys-7
p279
aVtrying-8
p280
aa(lp281
Vprt
p282
aVtrying-8
p283
aVout-9
p284
aa(lp285
Vdet
p286
aVteam-14
p287
aVthe-11
p288
aa(lp289
Vnn
p290
aVteam-14
p291
aVschools-12
p292
aa(lp293
Vnn
p294
aVteam-14
p295
aVbasketball-13
p296
aa(lp297
Vprep_for
p298
aVtrying-8
p299
aVteam-14
p300
aasa(dp301
Vparsetree
p302
V(ROOT (SBARQ (SBAR (IN If) (S (NP (NP (RB only) (CD 26)) (PP (IN of) (NP (PRP them)))) (VP (VBD got) (VP (VBN called) (ADVP (RB back)))))) (, ,) (WHNP (WHADJP (WRB how) (JJ many)) (NNS students)) (SQ (VP (VBD did) (RB n't) (VP (VB make) (NP (DT the) (NN cut))))) (. ?)))
p303
sVtext
p304
VIf only 26 of them got called back , how many students didn't make the cut ?
p305
sVdependencies
p306
(lp307
(lp308
Vroot
p309
aVROOT
p310
aVmake
p311
aa(lp312
Vmark
p313
aVcalled
p314
aVIf
p315
aa(lp316
Vadvmod
p317
aV26
p318
aVonly
p319
aa(lp320
Vnsubjpass
p321
aVcalled
p322
aV26
p323
aa(lp324
Vprep_of
p325
aV26
p326
aVthem
p327
aa(lp328
Vauxpass
p329
aVcalled
p330
aVgot
p331
aa(lp332
Vadvcl
p333
aVmake
p334
aVcalled
p335
aa(lp336
Vadvmod
p337
aVcalled
p338
aVback
p339
aa(lp340
Vadvmod
p341
aVmany
p342
aVhow
p343
aa(lp344
Vamod
p345
aVstudents
p346
aVmany
p347
aa(lp348
Vnsubj
p349
aVmake
p350
aVstudents
p351
aa(lp352
Vaux
p353
aVmake
p354
aVdid
p355
aa(lp356
Vneg
p357
aVmake
p358
aVn't
p359
aa(lp360
Vdet
p361
aVcut
p362
aVthe
p363
aa(lp364
Vdobj
p365
aVmake
p366
aVcut
p367
aasVwords
p368
(lp369
(lp370
VIf
p371
a(dp372
VNamedEntityTag
p373
g72
sVCharacterOffsetEnd
p374
V79
p375
sVCharacterOffsetBegin
p376
V77
p377
sVPartOfSpeech
p378
VIN
p379
sVLemma
p380
Vif
p381
saa(lp382
Vonly
p383
a(dp384
VNamedEntityTag
p385
g72
sVCharacterOffsetEnd
p386
V84
p387
sVCharacterOffsetBegin
p388
V80
p389
sVPartOfSpeech
p390
VRB
p391
sVLemma
p392
Vonly
p393
saa(lp394
V26
p395
a(dp396
VNormalizedNamedEntityTag
p397
V26.0
p398
sVLemma
p399
V26
p400
sVCharacterOffsetEnd
p401
V87
p402
sVPartOfSpeech
p403
VCD
p404
sVCharacterOffsetBegin
p405
V85
p406
sVNamedEntityTag
p407
VNUMBER
p408
saa(lp409
Vof
p410
a(dp411
VNamedEntityTag
p412
g72
sVCharacterOffsetEnd
p413
V90
p414
sVCharacterOffsetBegin
p415
V88
p416
sVPartOfSpeech
p417
VIN
p418
sVLemma
p419
Vof
p420
saa(lp421
Vthem
p422
a(dp423
VNamedEntityTag
p424
g72
sVCharacterOffsetEnd
p425
V95
p426
sVCharacterOffsetBegin
p427
V91
p428
sVPartOfSpeech
p429
VPRP
p430
sVLemma
p431
Vthey
p432
saa(lp433
Vgot
p434
a(dp435
VNamedEntityTag
p436
g72
sVCharacterOffsetEnd
p437
V99
p438
sVCharacterOffsetBegin
p439
V96
p440
sVPartOfSpeech
p441
VVBD
p442
sVLemma
p443
Vget
p444
saa(lp445
Vcalled
p446
a(dp447
VNamedEntityTag
p448
g72
sVCharacterOffsetEnd
p449
V106
p450
sVCharacterOffsetBegin
p451
V100
p452
sVPartOfSpeech
p453
VVBN
p454
sVLemma
p455
Vcall
p456
saa(lp457
Vback
p458
a(dp459
VNamedEntityTag
p460
g72
sVCharacterOffsetEnd
p461
V111
p462
sVCharacterOffsetBegin
p463
V107
p464
sVPartOfSpeech
p465
VRB
p466
sVLemma
p467
Vback
p468
saa(lp469
V,
p470
a(dp471
VNamedEntityTag
p472
g72
sVCharacterOffsetEnd
p473
V113
p474
sVCharacterOffsetBegin
p475
V112
p476
sVPartOfSpeech
p477
g470
sVLemma
p478
g470
saa(lp479
Vhow
p480
a(dp481
VNamedEntityTag
p482
g72
sVCharacterOffsetEnd
p483
V117
p484
sVCharacterOffsetBegin
p485
V114
p486
sVPartOfSpeech
p487
VWRB
p488
sVLemma
p489
Vhow
p490
saa(lp491
Vmany
p492
a(dp493
VNamedEntityTag
p494
g72
sVCharacterOffsetEnd
p495
V122
p496
sVCharacterOffsetBegin
p497
V118
p498
sVPartOfSpeech
p499
VJJ
p500
sVLemma
p501
Vmany
p502
saa(lp503
Vstudents
p504
a(dp505
VNamedEntityTag
p506
g72
sVCharacterOffsetEnd
p507
V131
p508
sVCharacterOffsetBegin
p509
V123
p510
sVPartOfSpeech
p511
VNNS
p512
sVLemma
p513
Vstudent
p514
saa(lp515
Vdid
p516
a(dp517
VNamedEntityTag
p518
g72
sVCharacterOffsetEnd
p519
V135
p520
sVCharacterOffsetBegin
p521
V132
p522
sVPartOfSpeech
p523
VVBD
p524
sVLemma
p525
Vdo
p526
saa(lp527
Vn't
p528
a(dp529
VNamedEntityTag
p530
g72
sVCharacterOffsetEnd
p531
V138
p532
sVCharacterOffsetBegin
p533
V135
p534
sVPartOfSpeech
p535
VRB
p536
sVLemma
p537
Vnot
p538
saa(lp539
Vmake
p540
a(dp541
VNamedEntityTag
p542
g72
sVCharacterOffsetEnd
p543
V143
p544
sVCharacterOffsetBegin
p545
V139
p546
sVPartOfSpeech
p547
VVB
p548
sVLemma
p549
Vmake
p550
saa(lp551
Vthe
p552
a(dp553
VNamedEntityTag
p554
g72
sVCharacterOffsetEnd
p555
V147
p556
sVCharacterOffsetBegin
p557
V144
p558
sVPartOfSpeech
p559
VDT
p560
sVLemma
p561
Vthe
p562
saa(lp563
Vcut
p564
a(dp565
VNamedEntityTag
p566
g72
sVCharacterOffsetEnd
p567
V151
p568
sVCharacterOffsetBegin
p569
V148
p570
sVPartOfSpeech
p571
VNN
p572
sVLemma
p573
Vcut
p574
saa(lp575
V?
p576
a(dp577
VNamedEntityTag
p578
g72
sVCharacterOffsetEnd
p579
V153
p580
sVCharacterOffsetBegin
p581
V152
p582
sVPartOfSpeech
p583
g242
sVLemma
p584
g576
saasVindexeddependencies
p585
(lp586
(lp587
Vroot
p588
aVROOT-0
p589
aVmake-15
p590
aa(lp591
Vmark
p592
aVcalled-7
p593
aVIf-1
p594
aa(lp595
Vadvmod
p596
aV26-3
p597
aVonly-2
p598
aa(lp599
Vnsubjpass
p600
aVcalled-7
p601
aV26-3
p602
aa(lp603
Vprep_of
p604
aV26-3
p605
aVthem-5
p606
aa(lp607
Vauxpass
p608
aVcalled-7
p609
aVgot-6
p610
aa(lp611
Vadvcl
p612
aVmake-15
p613
aVcalled-7
p614
aa(lp615
Vadvmod
p616
aVcalled-7
p617
aVback-8
p618
aa(lp619
Vadvmod
p620
aVmany-11
p621
aVhow-10
p622
aa(lp623
Vamod
p624
aVstudents-12
p625
aVmany-11
p626
aa(lp627
Vnsubj
p628
aVmake-15
p629
aVstudents-12
p630
aa(lp631
Vaux
p632
aVmake-15
p633
aVdid-13
p634
aa(lp635
Vneg
p636
aVmake-15
p637
aVn't-14
p638
aa(lp639
Vdet
p640
aVcut-17
p641
aVthe-16
p642
aa(lp643
Vdobj
p644
aVmake-15
p645
aVcut-17
p646
aasas.