(dp0
Vcoref
p1
(lp2
(lp3
(lp4
(lp5
Vhis
p6
aI1
aI10
aI10
aI11
aa(lp7
VGeorge
p8
aI0
aI6
aI6
aI7
aaaasVsentences
p9
(lp10
(dp11
Vparsetree
p12
V(ROOT (S (SBAR (IN While) (S (VP (VBG playing) (NP (DT a) (NNS trivia) (NN game))))) (, ,) (NP (NNP George)) (VP (VBD answered) (ADJP (ADJP (ADJP (NP (CD 6) (NNS questions)) (JJ correct)) (PP (IN in) (NP (DT the) (JJ first) (NN half)))) (CC and) (ADJP (NP (CD 4) (NNS questions)) (JJ correct))) (PP (IN in) (NP (DT the) (JJ second) (NN half)))) (. .)))
p13
sVtext
p14
VWhile playing a trivia game , George answered 6 questions correct in the first half and 4 questions correct in the second half .
p15
sVdependencies
p16
(lp17
(lp18
Vroot
p19
aVROOT
p20
aVanswered
p21
aa(lp22
Vmark
p23
aVplaying
p24
aVWhile
p25
aa(lp26
Vadvcl
p27
aVanswered
p28
aVplaying
p29
aa(lp30
Vdet
p31
aVgame
p32
aVa
p33
aa(lp34
Vnn
p35
aVgame
p36
aVtrivia
p37
aa(lp38
Vdobj
p39
aVplaying
p40
aVgame
p41
aa(lp42
Vnsubj
p43
aVanswered
p44
aVGeorge
p45
aa(lp46
Vnum
p47
aVquestions
p48
aV6
p49
aa(lp50
Vnpadvmod
p51
aVcorrect
p52
aVquestions
p53
aa(lp54
Vacomp
p55
aVanswered
p56
aVcorrect
p57
aa(lp58
Vdet
p59
aVhalf
p60
aVthe
p61
aa(lp62
Vamod
p63
aVhalf
p64
aVfirst
p65
aa(lp66
Vprep_in
p67
aVcorrect
p68
aVhalf
p69
aa(lp70
Vnum
p71
aVquestions
p72
aV4
p73
aa(lp74
Vnpadvmod
p75
aVcorrect
p76
aVquestions
p77
aa(lp78
Vconj_and
p79
aVcorrect
p80
aVcorrect
p81
aa(lp82
Vdet
p83
aVhalf
p84
aVthe
p85
aa(lp86
Vamod
p87
aVhalf
p88
aVsecond
p89
aa(lp90
Vprep_in
p91
aVanswered
p92
aVhalf
p93
aasVwords
p94
(lp95
(lp96
VWhile
p97
a(dp98
VNamedEntityTag
p99
VO
p100
sVCharacterOffsetEnd
p101
g49
sVCharacterOffsetBegin
p102
V1
p103
sVPartOfSpeech
p104
VIN
p105
sVLemma
p106
Vwhile
p107
saa(lp108
Vplaying
p109
a(dp110
VNamedEntityTag
p111
g100
sVCharacterOffsetEnd
p112
V14
p113
sVCharacterOffsetBegin
p114
V7
p115
sVPartOfSpeech
p116
VVBG
p117
sVLemma
p118
Vplay
p119
saa(lp120
g33
a(dp121
VNamedEntityTag
p122
g100
sVCharacterOffsetEnd
p123
V16
p124
sVCharacterOffsetBegin
p125
V15
p126
sVPartOfSpeech
p127
VDT
p128
sVLemma
p129
g33
saa(lp130
Vtrivia
p131
a(dp132
VNamedEntityTag
p133
g100
sVCharacterOffsetEnd
p134
V23
p135
sVCharacterOffsetBegin
p136
V17
p137
sVPartOfSpeech
p138
VNNS
p139
sVLemma
p140
Vtrivia
p141
saa(lp142
Vgame
p143
a(dp144
VNamedEntityTag
p145
g100
sVCharacterOffsetEnd
p146
V28
p147
sVCharacterOffsetBegin
p148
V24
p149
sVPartOfSpeech
p150
VNN
p151
sVLemma
p152
Vgame
p153
saa(lp154
V,
p155
a(dp156
VNamedEntityTag
p157
g100
sVCharacterOffsetEnd
p158
V30
p159
sVCharacterOffsetBegin
p160
V29
p161
sVPartOfSpeech
p162
g155
sVLemma
p163
g155
saa(lp164
VGeorge
p165
a(dp166
VNamedEntityTag
p167
VPERSON
p168
sVCharacterOffsetEnd
p169
V37
p170
sVCharacterOffsetBegin
p171
V31
p172
sVPartOfSpeech
p173
VNNP
p174
sVLemma
p175
VGeorge
p176
saa(lp177
Vanswered
p178
a(dp179
VNamedEntityTag
p180
g100
sVCharacterOffsetEnd
p181
V46
p182
sVCharacterOffsetBegin
p183
V38
p184
sVPartOfSpeech
p185
VVBD
p186
sVLemma
p187
Vanswer
p188
saa(lp189
g49
a(dp190
VNormalizedNamedEntityTag
p191
V6.0
p192
sVLemma
p193
g49
sVCharacterOffsetEnd
p194
V48
p195
sVPartOfSpeech
p196
VCD
p197
sVCharacterOffsetBegin
p198
V47
p199
sVNamedEntityTag
p200
VNUMBER
p201
saa(lp202
Vquestions
p203
a(dp204
VNamedEntityTag
p205
g100
sVCharacterOffsetEnd
p206
V58
p207
sVCharacterOffsetBegin
p208
V49
p209
sVPartOfSpeech
p210
VNNS
p211
sVLemma
p212
Vquestion
p213
saa(lp214
Vcorrect
p215
a(dp216
VNamedEntityTag
p217
g100
sVCharacterOffsetEnd
p218
V66
p219
sVCharacterOffsetBegin
p220
V59
p221
sVPartOfSpeech
p222
VJJ
p223
sVLemma
p224
Vcorrect
p225
saa(lp226
Vin
p227
a(dp228
VNamedEntityTag
p229
g100
sVCharacterOffsetEnd
p230
V69
p231
sVCharacterOffsetBegin
p232
V67
p233
sVPartOfSpeech
p234
VIN
p235
sVLemma
p236
Vin
p237
saa(lp238
Vthe
p239
a(dp240
VNamedEntityTag
p241
g100
sVCharacterOffsetEnd
p242
V73
p243
sVCharacterOffsetBegin
p244
V70
p245
sVPartOfSpeech
p246
VDT
p247
sVLemma
p248
Vthe
p249
saa(lp250
Vfirst
p251
a(dp252
VNormalizedNamedEntityTag
p253
V1.0
p254
sVLemma
p255
Vfirst
p256
sVCharacterOffsetEnd
p257
V79
p258
sVPartOfSpeech
p259
VJJ
p260
sVCharacterOffsetBegin
p261
V74
p262
sVNamedEntityTag
p263
VORDINAL
p264
saa(lp265
Vhalf
p266
a(dp267
VNamedEntityTag
p268
g100
sVCharacterOffsetEnd
p269
V84
p270
sVCharacterOffsetBegin
p271
V80
p272
sVPartOfSpeech
p273
VNN
p274
sVLemma
p275
Vhalf
p276
saa(lp277
Vand
p278
a(dp279
VNamedEntityTag
p280
g100
sVCharacterOffsetEnd
p281
V88
p282
sVCharacterOffsetBegin
p283
V85
p284
sVPartOfSpeech
p285
VCC
p286
sVLemma
p287
Vand
p288
saa(lp289
g73
a(dp290
VNormalizedNamedEntityTag
p291
V4.0
p292
sVLemma
p293
g73
sVCharacterOffsetEnd
p294
V90
p295
sVPartOfSpeech
p296
VCD
p297
sVCharacterOffsetBegin
p298
V89
p299
sVNamedEntityTag
p300
VNUMBER
p301
saa(lp302
Vquestions
p303
a(dp304
VNamedEntityTag
p305
g100
sVCharacterOffsetEnd
p306
V100
p307
sVCharacterOffsetBegin
p308
V91
p309
sVPartOfSpeech
p310
VNNS
p311
sVLemma
p312
Vquestion
p313
saa(lp314
Vcorrect
p315
a(dp316
VNamedEntityTag
p317
g100
sVCharacterOffsetEnd
p318
V108
p319
sVCharacterOffsetBegin
p320
V101
p321
sVPartOfSpeech
p322
VJJ
p323
sVLemma
p324
Vcorrect
p325
saa(lp326
Vin
p327
a(dp328
VNamedEntityTag
p329
g100
sVCharacterOffsetEnd
p330
V111
p331
sVCharacterOffsetBegin
p332
V109
p333
sVPartOfSpeech
p334
VIN
p335
sVLemma
p336
Vin
p337
saa(lp338
Vthe
p339
a(dp340
VNamedEntityTag
p341
g100
sVCharacterOffsetEnd
p342
V115
p343
sVCharacterOffsetBegin
p344
V112
p345
sVPartOfSpeech
p346
VDT
p347
sVLemma
p348
Vthe
p349
saa(lp350
Vsecond
p351
a(dp352
VNormalizedNamedEntityTag
p353
V2.0
p354
sVLemma
p355
Vsecond
p356
sVCharacterOffsetEnd
p357
V122
p358
sVPartOfSpeech
p359
VJJ
p360
sVCharacterOffsetBegin
p361
V116
p362
sVNamedEntityTag
p363
VORDINAL
p364
saa(lp365
Vhalf
p366
a(dp367
VNamedEntityTag
p368
g100
sVCharacterOffsetEnd
p369
V127
p370
sVCharacterOffsetBegin
p371
V123
p372
sVPartOfSpeech
p373
VNN
p374
sVLemma
p375
Vhalf
p376
saa(lp377
V.
p378
a(dp379
VNamedEntityTag
p380
g100
sVCharacterOffsetEnd
p381
V129
p382
sVCharacterOffsetBegin
p383
V128
p384
sVPartOfSpeech
p385
g378
sVLemma
p386
g378
saasVindexeddependencies
p387
(lp388
(lp389
Vroot
p390
aVROOT-0
p391
aVanswered-8
p392
aa(lp393
Vmark
p394
aVplaying-2
p395
aVWhile-1
p396
aa(lp397
Vadvcl
p398
aVanswered-8
p399
aVplaying-2
p400
aa(lp401
Vdet
p402
aVgame-5
p403
aVa-3
p404
aa(lp405
Vnn
p406
aVgame-5
p407
aVtrivia-4
p408
aa(lp409
Vdobj
p410
aVplaying-2
p411
aVgame-5
p412
aa(lp413
Vnsubj
p414
aVanswered-8
p415
aVGeorge-7
p416
aa(lp417
Vnum
p418
aVquestions-10
p419
aV6-9
p420
aa(lp421
Vnpadvmod
p422
aVcorrect-11
p423
aVquestions-10
p424
aa(lp425
Vacomp
p426
aVanswered-8
p427
aVcorrect-11
p428
aa(lp429
Vdet
p430
aVhalf-15
p431
aVthe-13
p432
aa(lp433
Vamod
p434
aVhalf-15
p435
aVfirst-14
p436
aa(lp437
Vprep_in
p438
aVcorrect-11
p439
aVhalf-15
p440
aa(lp441
Vnum
p442
aVquestions-18
p443
aV4-17
p444
aa(lp445
Vnpadvmod
p446
aVcorrect-19
p447
aVquestions-18
p448
aa(lp449
Vconj_and
p450
aVcorrect-11
p451
aVcorrect-19
p452
aa(lp453
Vdet
p454
aVhalf-23
p455
aVthe-21
p456
aa(lp457
Vamod
p458
aVhalf-23
p459
aVsecond-22
p460
aa(lp461
Vprep_in
p462
aVanswered-8
p463
aVhalf-23
p464
aasa(dp465
Vparsetree
p466
V(ROOT (SBARQ (SBAR (IN If) (S (NP (DT each) (NN question)) (VP (VBD was) (ADJP (JJ worth) (NP (CD 3) (NNS points)))))) (, ,) (WHNP (WP what)) (SQ (VBD was) (NP (PRP$ his) (JJ final) (NN score))) (. ?)))
p467
sVtext
p468
VIf each question was worth 3 points , what was his final score ?
p469
sVdependencies
p470
(lp471
(lp472
Vroot
p473
aVROOT
p474
aVwhat
p475
aa(lp476
Vmark
p477
aVworth
p478
aVIf
p479
aa(lp480
Vdet
p481
aVquestion
p482
aVeach
p483
aa(lp484
Vnsubj
p485
aVworth
p486
aVquestion
p487
aa(lp488
Vcop
p489
aVworth
p490
aVwas
p491
aa(lp492
Vdep
p493
aVwhat
p494
aVworth
p495
aa(lp496
Vnum
p497
aVpoints
p498
aV3
p499
aa(lp500
Vdep
p501
aVworth
p502
aVpoints
p503
aa(lp504
Vcop
p505
aVwhat
p506
aVwas
p507
aa(lp508
Vposs
p509
aVscore
p510
aVhis
p511
aa(lp512
Vamod
p513
aVscore
p514
aVfinal
p515
aa(lp516
Vnsubj
p517
aVwhat
p518
aVscore
p519
aasVwords
p520
(lp521
(lp522
VIf
p523
a(dp524
VNamedEntityTag
p525
g100
sVCharacterOffsetEnd
p526
V132
p527
sVCharacterOffsetBegin
p528
V130
p529
sVPartOfSpeech
p530
VIN
p531
sVLemma
p532
Vif
p533
saa(lp534
Veach
p535
a(dp536
VNamedEntityTag
p537
g100
sVCharacterOffsetEnd
p538
V137
p539
sVCharacterOffsetBegin
p540
V133
p541
sVPartOfSpeech
p542
VDT
p543
sVLemma
p544
Veach
p545
saa(lp546
Vquestion
p547
a(dp548
VNamedEntityTag
p549
g100
sVCharacterOffsetEnd
p550
V146
p551
sVCharacterOffsetBegin
p552
V138
p553
sVPartOfSpeech
p554
VNN
p555
sVLemma
p556
Vquestion
p557
saa(lp558
Vwas
p559
a(dp560
VNamedEntityTag
p561
g100
sVCharacterOffsetEnd
p562
V150
p563
sVCharacterOffsetBegin
p564
V147
p565
sVPartOfSpeech
p566
VVBD
p567
sVLemma
p568
Vbe
p569
saa(lp570
Vworth
p571
a(dp572
VNamedEntityTag
p573
g100
sVCharacterOffsetEnd
p574
V156
p575
sVCharacterOffsetBegin
p576
V151
p577
sVPartOfSpeech
p578
VJJ
p579
sVLemma
p580
Vworth
p581
saa(lp582
g499
a(dp583
VNormalizedNamedEntityTag
p584
V3.0
p585
sVLemma
p586
g499
sVCharacterOffsetEnd
p587
V158
p588
sVPartOfSpeech
p589
VCD
p590
sVCharacterOffsetBegin
p591
V157
p592
sVNamedEntityTag
p593
VNUMBER
p594
saa(lp595
Vpoints
p596
a(dp597
VNamedEntityTag
p598
g100
sVCharacterOffsetEnd
p599
V165
p600
sVCharacterOffsetBegin
p601
V159
p602
sVPartOfSpeech
p603
VNNS
p604
sVLemma
p605
Vpoint
p606
saa(lp607
g155
a(dp608
VNamedEntityTag
p609
g100
sVCharacterOffsetEnd
p610
V167
p611
sVCharacterOffsetBegin
p612
V166
p613
sVPartOfSpeech
p614
g155
sVLemma
p615
g155
saa(lp616
Vwhat
p617
a(dp618
VNamedEntityTag
p619
g100
sVCharacterOffsetEnd
p620
V172
p621
sVCharacterOffsetBegin
p622
V168
p623
sVPartOfSpeech
p624
VWP
p625
sVLemma
p626
Vwhat
p627
saa(lp628
Vwas
p629
a(dp630
VNamedEntityTag
p631
g100
sVCharacterOffsetEnd
p632
V176
p633
sVCharacterOffsetBegin
p634
V173
p635
sVPartOfSpeech
p636
VVBD
p637
sVLemma
p638
Vbe
p639
saa(lp640
Vhis
p641
a(dp642
VNamedEntityTag
p643
g100
sVCharacterOffsetEnd
p644
V180
p645
sVCharacterOffsetBegin
p646
V177
p647
sVPartOfSpeech
p648
VPRP$
p649
sVLemma
p650
Vhe
p651
saa(lp652
Vfinal
p653
a(dp654
VNamedEntityTag
p655
g100
sVCharacterOffsetEnd
p656
V186
p657
sVCharacterOffsetBegin
p658
V181
p659
sVPartOfSpeech
p660
VJJ
p661
sVLemma
p662
Vfinal
p663
saa(lp664
Vscore
p665
a(dp666
VNormalizedNamedEntityTag
p667
V20.0
p668
sVLemma
p669
Vscore
p670
sVCharacterOffsetEnd
p671
V192
p672
sVPartOfSpeech
p673
VNN
p674
sVCharacterOffsetBegin
p675
V187
p676
sVNamedEntityTag
p677
VNUMBER
p678
saa(lp679
V?
p680
a(dp681
VNamedEntityTag
p682
g100
sVCharacterOffsetEnd
p683
V194
p684
sVCharacterOffsetBegin
p685
V193
p686
sVPartOfSpeech
p687
g378
sVLemma
p688
g680
saasVindexeddependencies
p689
(lp690
(lp691
Vroot
p692
aVROOT-0
p693
aVwhat-9
p694
aa(lp695
Vmark
p696
aVworth-5
p697
aVIf-1
p698
aa(lp699
Vdet
p700
aVquestion-3
p701
aVeach-2
p702
aa(lp703
Vnsubj
p704
aVworth-5
p705
aVquestion-3
p706
aa(lp707
Vcop
p708
aVworth-5
p709
aVwas-4
p710
aa(lp711
Vdep
p712
aVwhat-9
p713
aVworth-5
p714
aa(lp715
Vnum
p716
aVpoints-7
p717
aV3-6
p718
aa(lp719
Vdep
p720
aVworth-5
p721
aVpoints-7
p722
aa(lp723
Vcop
p724
aVwhat-9
p725
aVwas-10
p726
aa(lp727
Vposs
p728
aVscore-13
p729
aVhis-11
p730
aa(lp731
Vamod
p732
aVscore-13
p733
aVfinal-12
p734
aa(lp735
Vnsubj
p736
aVwhat-9
p737
aVscore-13
p738
aasas.