(dp0
Vcoref
p1
(lp2
(lp3
(lp4
(lp5
Vthe garments
p6
aI1
aI4
aI3
aI5
aa(lp7
Vthe garments
p8
aI0
aI9
aI8
aI10
aaaa(lp9
(lp10
(lp11
Vtrunks
p12
aI1
aI9
aI9
aI10
aa(lp13
Vtrunks
p14
aI0
aI15
aI15
aI16
aaaasVsentences
p15
(lp16
(dp17
Vparsetree
p18
V(ROOT (S (PP (IN At) (NP (NP (NNP Lindsey) (POS 's)) (NN Vacation) (S (VP (VB Wear))))) (, ,) (S (NP (NP (CD 0.375)) (PP (IN of) (NP (DT the) (NNS garments)))) (VP (VBP are) (NP (NNS bikinis)))) (CC and) (S (NP (CD 0.25)) (VP (VBP are) (NP (NNS trunks)))) (. .)))
p19
sVtext
p20
VAt Lindsey's Vacation Wear , 0.375 of the garments are bikinis and 0.25 are trunks .
p21
sVdependencies
p22
(lp23
(lp24
Vroot
p25
aVROOT
p26
aVbikinis
p27
aa(lp28
Vposs
p29
aVVacation
p30
aVLindsey
p31
aa(lp32
Vprep_at
p33
aVbikinis
p34
aVVacation
p35
aa(lp36
Vdep
p37
aVVacation
p38
aVWear
p39
aa(lp40
Vnsubj
p41
aVbikinis
p42
aV0.375
p43
aa(lp44
Vdet
p45
aVgarments
p46
aVthe
p47
aa(lp48
Vprep_of
p49
aV0.375
p50
aVgarments
p51
aa(lp52
Vcop
p53
aVbikinis
p54
aVare
p55
aa(lp56
Vnsubj
p57
aVtrunks
p58
aV0.25
p59
aa(lp60
Vcop
p61
aVtrunks
p62
aVare
p63
aa(lp64
Vconj_and
p65
aVbikinis
p66
aVtrunks
p67
aasVwords
p68
(lp69
(lp70
VAt
p71
a(dp72
VNamedEntityTag
p73
VO
p74
sVCharacterOffsetEnd
p75
V3
p76
sVCharacterOffsetBegin
p77
V1
p78
sVPartOfSpeech
p79
VIN
p80
sVLemma
p81
Vat
p82
saa(lp83
VLindsey
p84
a(dp85
VNamedEntityTag
p86
VLOCATION
p87
sVCharacterOffsetEnd
p88
V11
p89
sVCharacterOffsetBegin
p90
V4
p91
sVPartOfSpeech
p92
VNNP
p93
sVLemma
p94
VLindsey
p95
saa(lp96
V's
p97
a(dp98
VNamedEntityTag
p99
g74
sVCharacterOffsetEnd
p100
V13
p101
sVCharacterOffsetBegin
p102
V11
p103
sVPartOfSpeech
p104
VPOS
p105
sVLemma
p106
V's
p107
saa(lp108
VVacation
p109
a(dp110
VNamedEntityTag
p111
g74
sVCharacterOffsetEnd
p112
V22
p113
sVCharacterOffsetBegin
p114
V14
p115
sVPartOfSpeech
p116
VNN
p117
sVLemma
p118
Vvacation
p119
saa(lp120
VWear
p121
a(dp122
VNamedEntityTag
p123
g74
sVCharacterOffsetEnd
p124
V27
p125
sVCharacterOffsetBegin
p126
V23
p127
sVPartOfSpeech
p128
VVB
p129
sVLemma
p130
Vwear
p131
saa(lp132
V,
p133
a(dp134
VNamedEntityTag
p135
g74
sVCharacterOffsetEnd
p136
V29
p137
sVCharacterOffsetBegin
p138
V28
p139
sVPartOfSpeech
p140
g133
sVLemma
p141
g133
saa(lp142
V0.375
p143
a(dp144
VNormalizedNamedEntityTag
p145
V0.375
p146
sVLemma
p147
V0.375
p148
sVCharacterOffsetEnd
p149
V35
p150
sVPartOfSpeech
p151
VCD
p152
sVCharacterOffsetBegin
p153
V30
p154
sVNamedEntityTag
p155
VNUMBER
p156
saa(lp157
Vof
p158
a(dp159
VNamedEntityTag
p160
g74
sVCharacterOffsetEnd
p161
V38
p162
sVCharacterOffsetBegin
p163
V36
p164
sVPartOfSpeech
p165
VIN
p166
sVLemma
p167
Vof
p168
saa(lp169
Vthe
p170
a(dp171
VNamedEntityTag
p172
g74
sVCharacterOffsetEnd
p173
V42
p174
sVCharacterOffsetBegin
p175
V39
p176
sVPartOfSpeech
p177
VDT
p178
sVLemma
p179
Vthe
p180
saa(lp181
Vgarments
p182
a(dp183
VNamedEntityTag
p184
g74
sVCharacterOffsetEnd
p185
V51
p186
sVCharacterOffsetBegin
p187
V43
p188
sVPartOfSpeech
p189
VNNS
p190
sVLemma
p191
Vgarment
p192
saa(lp193
Vare
p194
a(dp195
VNamedEntityTag
p196
g74
sVCharacterOffsetEnd
p197
V55
p198
sVCharacterOffsetBegin
p199
V52
p200
sVPartOfSpeech
p201
VVBP
p202
sVLemma
p203
Vbe
p204
saa(lp205
Vbikinis
p206
a(dp207
VNamedEntityTag
p208
g74
sVCharacterOffsetEnd
p209
V63
p210
sVCharacterOffsetBegin
p211
V56
p212
sVPartOfSpeech
p213
VNNS
p214
sVLemma
p215
Vbikini
p216
saa(lp217
Vand
p218
a(dp219
VNamedEntityTag
p220
g74
sVCharacterOffsetEnd
p221
V67
p222
sVCharacterOffsetBegin
p223
V64
p224
sVPartOfSpeech
p225
VCC
p226
sVLemma
p227
Vand
p228
saa(lp229
V0.25
p230
a(dp231
VNormalizedNamedEntityTag
p232
V0.25
p233
sVLemma
p234
V0.25
p235
sVCharacterOffsetEnd
p236
V72
p237
sVPartOfSpeech
p238
VCD
p239
sVCharacterOffsetBegin
p240
V68
p241
sVNamedEntityTag
p242
VNUMBER
p243
saa(lp244
Vare
p245
a(dp246
VNamedEntityTag
p247
g74
sVCharacterOffsetEnd
p248
V76
p249
sVCharacterOffsetBegin
p250
V73
p251
sVPartOfSpeech
p252
VVBP
p253
sVLemma
p254
Vbe
p255
saa(lp256
Vtrunks
p257
a(dp258
VNamedEntityTag
p259
g74
sVCharacterOffsetEnd
p260
V83
p261
sVCharacterOffsetBegin
p262
V77
p263
sVPartOfSpeech
p264
VNNS
p265
sVLemma
p266
Vtrunk
p267
saa(lp268
V.
p269
a(dp270
VNamedEntityTag
p271
g74
sVCharacterOffsetEnd
p272
V85
p273
sVCharacterOffsetBegin
p274
V84
p275
sVPartOfSpeech
p276
g269
sVLemma
p277
g269
saasVindexeddependencies
p278
(lp279
(lp280
Vroot
p281
aVROOT-0
p282
aVbikinis-12
p283
aa(lp284
Vposs
p285
aVVacation-4
p286
aVLindsey-2
p287
aa(lp288
Vprep_at
p289
aVbikinis-12
p290
aVVacation-4
p291
aa(lp292
Vdep
p293
aVVacation-4
p294
aVWear-5
p295
aa(lp296
Vnsubj
p297
aVbikinis-12
p298
aV0.375-7
p299
aa(lp300
Vdet
p301
aVgarments-10
p302
aVthe-9
p303
aa(lp304
Vprep_of
p305
aV0.375-7
p306
aVgarments-10
p307
aa(lp308
Vcop
p309
aVbikinis-12
p310
aVare-11
p311
aa(lp312
Vnsubj
p313
aVtrunks-16
p314
aV0.25-14
p315
aa(lp316
Vcop
p317
aVtrunks-16
p318
aVare-15
p319
aa(lp320
Vconj_and
p321
aVbikinis-12
p322
aVtrunks-16
p323
aasa(dp324
Vparsetree
p325
V(ROOT (SBARQ (WHNP (WDT What) (NP (NN fraction) (PP (IN of) (NP (DT the) (NNS garments))))) (SQ (VBP are) (NP (NP (RB either) (JJ bikinis)) (CC or) (NP (NNS trunks)))) (. ?)))
p326
sVtext
p327
VWhat fraction of the garments are either bikinis or trunks ?
p328
sVdependencies
p329
(lp330
(lp331
Vroot
p332
aVROOT
p333
aVare
p334
aa(lp335
Vdet
p336
aVfraction
p337
aVWhat
p338
aa(lp339
Vdep
p340
aVare
p341
aVfraction
p342
aa(lp343
Vdet
p344
aVgarments
p345
aVthe
p346
aa(lp347
Vprep_of
p348
aVfraction
p349
aVgarments
p350
aa(lp351
Vadvmod
p352
aVbikinis
p353
aVeither
p354
aa(lp355
Vnsubj
p356
aVare
p357
aVbikinis
p358
aa(lp359
Vconj_or
p360
aVbikinis
p361
aVtrunks
p362
aasVwords
p363
(lp364
(lp365
VWhat
p366
a(dp367
VNamedEntityTag
p368
g74
sVCharacterOffsetEnd
p369
V90
p370
sVCharacterOffsetBegin
p371
V86
p372
sVPartOfSpeech
p373
VWDT
p374
sVLemma
p375
Vwhat
p376
saa(lp377
Vfraction
p378
a(dp379
VNamedEntityTag
p380
g74
sVCharacterOffsetEnd
p381
V99
p382
sVCharacterOffsetBegin
p383
V91
p384
sVPartOfSpeech
p385
VNN
p386
sVLemma
p387
Vfraction
p388
saa(lp389
Vof
p390
a(dp391
VNamedEntityTag
p392
g74
sVCharacterOffsetEnd
p393
V102
p394
sVCharacterOffsetBegin
p395
V100
p396
sVPartOfSpeech
p397
VIN
p398
sVLemma
p399
Vof
p400
saa(lp401
Vthe
p402
a(dp403
VNamedEntityTag
p404
g74
sVCharacterOffsetEnd
p405
V106
p406
sVCharacterOffsetBegin
p407
V103
p408
sVPartOfSpeech
p409
VDT
p410
sVLemma
p411
Vthe
p412
saa(lp413
Vgarments
p414
a(dp415
VNamedEntityTag
p416
g74
sVCharacterOffsetEnd
p417
V115
p418
sVCharacterOffsetBegin
p419
V107
p420
sVPartOfSpeech
p421
VNNS
p422
sVLemma
p423
Vgarment
p424
saa(lp425
Vare
p426
a(dp427
VNamedEntityTag
p428
g74
sVCharacterOffsetEnd
p429
V119
p430
sVCharacterOffsetBegin
p431
V116
p432
sVPartOfSpeech
p433
VVBP
p434
sVLemma
p435
Vbe
p436
saa(lp437
Veither
p438
a(dp439
VNamedEntityTag
p440
g74
sVCharacterOffsetEnd
p441
V126
p442
sVCharacterOffsetBegin
p443
V120
p444
sVPartOfSpeech
p445
VRB
p446
sVLemma
p447
Veither
p448
saa(lp449
Vbikinis
p450
a(dp451
VNamedEntityTag
p452
g74
sVCharacterOffsetEnd
p453
V134
p454
sVCharacterOffsetBegin
p455
V127
p456
sVPartOfSpeech
p457
VJJ
p458
sVLemma
p459
Vbikinis
p460
saa(lp461
Vor
p462
a(dp463
VNamedEntityTag
p464
g74
sVCharacterOffsetEnd
p465
V137
p466
sVCharacterOffsetBegin
p467
V135
p468
sVPartOfSpeech
p469
VCC
p470
sVLemma
p471
Vor
p472
saa(lp473
Vtrunks
p474
a(dp475
VNamedEntityTag
p476
g74
sVCharacterOffsetEnd
p477
V144
p478
sVCharacterOffsetBegin
p479
V138
p480
sVPartOfSpeech
p481
VNNS
p482
sVLemma
p483
Vtrunk
p484
saa(lp485
V?
p486
a(dp487
VNamedEntityTag
p488
g74
sVCharacterOffsetEnd
p489
V146
p490
sVCharacterOffsetBegin
p491
V145
p492
sVPartOfSpeech
p493
g269
sVLemma
p494
g486
saasVindexeddependencies
p495
(lp496
(lp497
Vroot
p498
aVROOT-0
p499
aVare-6
p500
aa(lp501
Vdet
p502
aVfraction-2
p503
aVWhat-1
p504
aa(lp505
Vdep
p506
aVare-6
p507
aVfraction-2
p508
aa(lp509
Vdet
p510
aVgarments-5
p511
aVthe-4
p512
aa(lp513
Vprep_of
p514
aVfraction-2
p515
aVgarments-5
p516
aa(lp517
Vadvmod
p518
aVbikinis-8
p519
aVeither-7
p520
aa(lp521
Vnsubj
p522
aVare-6
p523
aVbikinis-8
p524
aa(lp525
Vconj_or
p526
aVbikinis-8
p527
aVtrunks-10
p528
aasas.