(dp0
Vcoref
p1
(lp2
(lp3
(lp4
(lp5
VHannah 's Vegetarian Restaurant
p6
aI1
aI6
aI6
aI10
aa(lp7
VHannah 's Vegetarian Restaurant
p8
aI0
aI3
aI0
aI4
aaa(lp9
(lp10
VVegetarian Restaurant
p11
aI1
aI9
aI8
aI10
aa(lp12
VHannah 's Vegetarian Restaurant
p13
aI0
aI3
aI0
aI4
aaaasVsentences
p14
(lp15
(dp16
Vparsetree
p17
V(ROOT (S (NP (NP (NNP Hannah) (POS 's)) (JJ Vegetarian) (NNP Restaurant)) (VP (VBD bought) (NP (NP (CD 0.3333333333333333)) (PP (IN of) (NP (NP (NP (DT a) (NN pound)) (PP (IN of) (NP (JJ green) (NNS peppers)))) (CC and) (NP (NP (CD 0.3333333333333333)) (PP (IN of) (NP (NP (DT a) (NN pound)) (PP (IN of) (NP (JJ red) (NNS peppers)))))))))) (. .)))
p18
sVtext
p19
VHannah's Vegetarian Restaurant bought 0.3333333333333333 of a pound of green peppers and 0.3333333333333333 of a pound of red peppers .
p20
sVdependencies
p21
(lp22
(lp23
Vroot
p24
aVROOT
p25
aVbought
p26
aa(lp27
Vposs
p28
aVRestaurant
p29
aVHannah
p30
aa(lp31
Vamod
p32
aVRestaurant
p33
aVVegetarian
p34
aa(lp35
Vnsubj
p36
aVbought
p37
aVRestaurant
p38
aa(lp39
Vdobj
p40
aVbought
p41
aV0.3333333333333333
p42
aa(lp43
Vdet
p44
aVpound
p45
aVa
p46
aa(lp47
Vprep_of
p48
aV0.3333333333333333
p49
aVpound
p50
aa(lp51
Vamod
p52
aVpeppers
p53
aVgreen
p54
aa(lp55
Vprep_of
p56
aVpound
p57
aVpeppers
p58
aa(lp59
Vconj_and
p60
aVpound
p61
aV0.3333333333333333
p62
aa(lp63
Vdet
p64
aVpound
p65
ag46
aa(lp66
Vprep_of
p67
aV0.3333333333333333
p68
aVpound
p69
aa(lp70
Vamod
p71
aVpeppers
p72
aVred
p73
aa(lp74
Vprep_of
p75
aVpound
p76
aVpeppers
p77
aasVwords
p78
(lp79
(lp80
VHannah
p81
a(dp82
VNamedEntityTag
p83
VPERSON
p84
sVCharacterOffsetEnd
p85
V7
p86
sVCharacterOffsetBegin
p87
V1
p88
sVPartOfSpeech
p89
VNNP
p90
sVLemma
p91
VHannah
p92
saa(lp93
V's
p94
a(dp95
VNamedEntityTag
p96
VO
p97
sVCharacterOffsetEnd
p98
V9
p99
sVCharacterOffsetBegin
p100
g86
sVPartOfSpeech
p101
VPOS
p102
sVLemma
p103
V's
p104
saa(lp105
VVegetarian
p106
a(dp107
VNamedEntityTag
p108
VMISC
p109
sVCharacterOffsetEnd
p110
V20
p111
sVCharacterOffsetBegin
p112
V10
p113
sVPartOfSpeech
p114
VJJ
p115
sVLemma
p116
Vvegetarian
p117
saa(lp118
VRestaurant
p119
a(dp120
VNamedEntityTag
p121
VMISC
p122
sVCharacterOffsetEnd
p123
V31
p124
sVCharacterOffsetBegin
p125
V21
p126
sVPartOfSpeech
p127
VNNP
p128
sVLemma
p129
VRestaurant
p130
saa(lp131
Vbought
p132
a(dp133
VNamedEntityTag
p134
g97
sVCharacterOffsetEnd
p135
V38
p136
sVCharacterOffsetBegin
p137
V32
p138
sVPartOfSpeech
p139
VVBD
p140
sVLemma
p141
Vbuy
p142
saa(lp143
V0.3333333333333333
p144
a(dp145
VNormalizedNamedEntityTag
p146
V0.3333333333333333
p147
sVLemma
p148
V0.3333333333333333
p149
sVCharacterOffsetEnd
p150
V57
p151
sVPartOfSpeech
p152
VCD
p153
sVCharacterOffsetBegin
p154
V39
p155
sVNamedEntityTag
p156
VNUMBER
p157
saa(lp158
Vof
p159
a(dp160
VNamedEntityTag
p161
g97
sVCharacterOffsetEnd
p162
V60
p163
sVCharacterOffsetBegin
p164
V58
p165
sVPartOfSpeech
p166
VIN
p167
sVLemma
p168
Vof
p169
saa(lp170
g46
a(dp171
VNamedEntityTag
p172
g97
sVCharacterOffsetEnd
p173
V62
p174
sVCharacterOffsetBegin
p175
V61
p176
sVPartOfSpeech
p177
VDT
p178
sVLemma
p179
g46
saa(lp180
Vpound
p181
a(dp182
VNamedEntityTag
p183
g97
sVCharacterOffsetEnd
p184
V68
p185
sVCharacterOffsetBegin
p186
V63
p187
sVPartOfSpeech
p188
VNN
p189
sVLemma
p190
Vpound
p191
saa(lp192
Vof
p193
a(dp194
VNamedEntityTag
p195
g97
sVCharacterOffsetEnd
p196
V71
p197
sVCharacterOffsetBegin
p198
V69
p199
sVPartOfSpeech
p200
VIN
p201
sVLemma
p202
Vof
p203
saa(lp204
Vgreen
p205
a(dp206
VNamedEntityTag
p207
g97
sVCharacterOffsetEnd
p208
V77
p209
sVCharacterOffsetBegin
p210
V72
p211
sVPartOfSpeech
p212
VJJ
p213
sVLemma
p214
Vgreen
p215
saa(lp216
Vpeppers
p217
a(dp218
VNamedEntityTag
p219
g97
sVCharacterOffsetEnd
p220
V85
p221
sVCharacterOffsetBegin
p222
V78
p223
sVPartOfSpeech
p224
VNNS
p225
sVLemma
p226
Vpepper
p227
saa(lp228
Vand
p229
a(dp230
VNamedEntityTag
p231
g97
sVCharacterOffsetEnd
p232
V89
p233
sVCharacterOffsetBegin
p234
V86
p235
sVPartOfSpeech
p236
VCC
p237
sVLemma
p238
Vand
p239
saa(lp240
V0.3333333333333333
p241
a(dp242
VNormalizedNamedEntityTag
p243
V0.3333333333333333
p244
sVLemma
p245
V0.3333333333333333
p246
sVCharacterOffsetEnd
p247
V108
p248
sVPartOfSpeech
p249
VCD
p250
sVCharacterOffsetBegin
p251
V90
p252
sVNamedEntityTag
p253
VNUMBER
p254
saa(lp255
Vof
p256
a(dp257
VNamedEntityTag
p258
g97
sVCharacterOffsetEnd
p259
V111
p260
sVCharacterOffsetBegin
p261
V109
p262
sVPartOfSpeech
p263
VIN
p264
sVLemma
p265
Vof
p266
saa(lp267
g46
a(dp268
VNamedEntityTag
p269
g97
sVCharacterOffsetEnd
p270
V113
p271
sVCharacterOffsetBegin
p272
V112
p273
sVPartOfSpeech
p274
VDT
p275
sVLemma
p276
g46
saa(lp277
Vpound
p278
a(dp279
VNamedEntityTag
p280
g97
sVCharacterOffsetEnd
p281
V119
p282
sVCharacterOffsetBegin
p283
V114
p284
sVPartOfSpeech
p285
VNN
p286
sVLemma
p287
Vpound
p288
saa(lp289
Vof
p290
a(dp291
VNamedEntityTag
p292
g97
sVCharacterOffsetEnd
p293
V122
p294
sVCharacterOffsetBegin
p295
V120
p296
sVPartOfSpeech
p297
VIN
p298
sVLemma
p299
Vof
p300
saa(lp301
Vred
p302
a(dp303
VNamedEntityTag
p304
g97
sVCharacterOffsetEnd
p305
V126
p306
sVCharacterOffsetBegin
p307
V123
p308
sVPartOfSpeech
p309
VJJ
p310
sVLemma
p311
Vred
p312
saa(lp313
Vpeppers
p314
a(dp315
VNamedEntityTag
p316
g97
sVCharacterOffsetEnd
p317
V134
p318
sVCharacterOffsetBegin
p319
V127
p320
sVPartOfSpeech
p321
VNNS
p322
sVLemma
p323
Vpepper
p324
saa(lp325
V.
p326
a(dp327
VNamedEntityTag
p328
g97
sVCharacterOffsetEnd
p329
V136
p330
sVCharacterOffsetBegin
p331
V135
p332
sVPartOfSpeech
p333
g326
sVLemma
p334
g326
saasVindexeddependencies
p335
(lp336
(lp337
Vroot
p338
aVROOT-0
p339
aVbought-5
p340
aa(lp341
Vposs
p342
aVRestaurant-4
p343
aVHannah-1
p344
aa(lp345
Vamod
p346
aVRestaurant-4
p347
aVVegetarian-3
p348
aa(lp349
Vnsubj
p350
aVbought-5
p351
aVRestaurant-4
p352
aa(lp353
Vdobj
p354
aVbought-5
p355
aV0.3333333333333333-6
p356
aa(lp357
Vdet
p358
aVpound-9
p359
aVa-8
p360
aa(lp361
Vprep_of
p362
aV0.3333333333333333-6
p363
aVpound-9
p364
aa(lp365
Vamod
p366
aVpeppers-12
p367
aVgreen-11
p368
aa(lp369
Vprep_of
p370
aVpound-9
p371
aVpeppers-12
p372
aa(lp373
Vconj_and
p374
aVpound-9
p375
aV0.3333333333333333-14
p376
aa(lp377
Vdet
p378
aVpound-17
p379
aVa-16
p380
aa(lp381
Vprep_of
p382
aV0.3333333333333333-14
p383
aVpound-17
p384
aa(lp385
Vamod
p386
aVpeppers-20
p387
aVred-19
p388
aa(lp389
Vprep_of
p390
aVpound-17
p391
aVpeppers-20
p392
aasa(dp393
Vparsetree
p394
V(ROOT (SBARQ (WHNP (WHNP (WHADJP (WRB How) (JJ many)) (NNS pounds)) (PP (IN of) (NP (NNS peppers)))) (SQ (VBD did) (NP (NP (NNP Hannah) (POS 's)) (NP (NNP Vegetarian) (NNP Restaurant))) (VP (VB buy) (PP (IN in) (NP (DT all))))) (. ?)))
p395
sVtext
p396
VHow many pounds of peppers did Hannah's Vegetarian Restaurant buy in all ?
p397
sVdependencies
p398
(lp399
(lp400
Vroot
p401
aVROOT
p402
aVbuy
p403
aa(lp404
Vadvmod
p405
aVmany
p406
aVHow
p407
aa(lp408
Vamod
p409
aVpounds
p410
aVmany
p411
aa(lp412
Vdobj
p413
aVbuy
p414
aVpounds
p415
aa(lp416
Vprep_of
p417
aVpounds
p418
aVpeppers
p419
aa(lp420
Vaux
p421
aVbuy
p422
aVdid
p423
aa(lp424
Vnsubj
p425
aVbuy
p426
aVHannah
p427
aa(lp428
Vpossessive
p429
aVHannah
p430
aV's
p431
aa(lp432
Vnn
p433
aVRestaurant
p434
aVVegetarian
p435
aa(lp436
Vdep
p437
aVHannah
p438
aVRestaurant
p439
aa(lp440
Vprep_in
p441
aVbuy
p442
aVall
p443
aasVwords
p444
(lp445
(lp446
VHow
p447
a(dp448
VNamedEntityTag
p449
g97
sVCharacterOffsetEnd
p450
V140
p451
sVCharacterOffsetBegin
p452
V137
p453
sVPartOfSpeech
p454
VWRB
p455
sVLemma
p456
Vhow
p457
saa(lp458
Vmany
p459
a(dp460
VNamedEntityTag
p461
g97
sVCharacterOffsetEnd
p462
V145
p463
sVCharacterOffsetBegin
p464
V141
p465
sVPartOfSpeech
p466
VJJ
p467
sVLemma
p468
Vmany
p469
saa(lp470
Vpounds
p471
a(dp472
VNamedEntityTag
p473
g97
sVCharacterOffsetEnd
p474
V152
p475
sVCharacterOffsetBegin
p476
V146
p477
sVPartOfSpeech
p478
VNNS
p479
sVLemma
p480
Vpound
p481
saa(lp482
Vof
p483
a(dp484
VNamedEntityTag
p485
g97
sVCharacterOffsetEnd
p486
V155
p487
sVCharacterOffsetBegin
p488
V153
p489
sVPartOfSpeech
p490
VIN
p491
sVLemma
p492
Vof
p493
saa(lp494
Vpeppers
p495
a(dp496
VNamedEntityTag
p497
g97
sVCharacterOffsetEnd
p498
V163
p499
sVCharacterOffsetBegin
p500
V156
p501
sVPartOfSpeech
p502
VNNS
p503
sVLemma
p504
Vpepper
p505
saa(lp506
Vdid
p507
a(dp508
VNamedEntityTag
p509
g97
sVCharacterOffsetEnd
p510
V167
p511
sVCharacterOffsetBegin
p512
V164
p513
sVPartOfSpeech
p514
VVBD
p515
sVLemma
p516
Vdo
p517
saa(lp518
VHannah
p519
a(dp520
VNamedEntityTag
p521
VPERSON
p522
sVCharacterOffsetEnd
p523
V174
p524
sVCharacterOffsetBegin
p525
V168
p526
sVPartOfSpeech
p527
VNNP
p528
sVLemma
p529
VHannah
p530
saa(lp531
V's
p532
a(dp533
VNamedEntityTag
p534
g97
sVCharacterOffsetEnd
p535
V176
p536
sVCharacterOffsetBegin
p537
V174
p538
sVPartOfSpeech
p539
VPOS
p540
sVLemma
p541
V's
p542
saa(lp543
VVegetarian
p544
a(dp545
VNamedEntityTag
p546
VMISC
p547
sVCharacterOffsetEnd
p548
V187
p549
sVCharacterOffsetBegin
p550
V177
p551
sVPartOfSpeech
p552
VNNP
p553
sVLemma
p554
VVegetarian
p555
saa(lp556
VRestaurant
p557
a(dp558
VNamedEntityTag
p559
VMISC
p560
sVCharacterOffsetEnd
p561
V198
p562
sVCharacterOffsetBegin
p563
V188
p564
sVPartOfSpeech
p565
VNNP
p566
sVLemma
p567
VRestaurant
p568
saa(lp569
Vbuy
p570
a(dp571
VNamedEntityTag
p572
g97
sVCharacterOffsetEnd
p573
V202
p574
sVCharacterOffsetBegin
p575
V199
p576
sVPartOfSpeech
p577
VVB
p578
sVLemma
p579
Vbuy
p580
saa(lp581
Vin
p582
a(dp583
VNamedEntityTag
p584
g97
sVCharacterOffsetEnd
p585
V205
p586
sVCharacterOffsetBegin
p587
V203
p588
sVPartOfSpeech
p589
VIN
p590
sVLemma
p591
Vin
p592
saa(lp593
Vall
p594
a(dp595
VNamedEntityTag
p596
g97
sVCharacterOffsetEnd
p597
V209
p598
sVCharacterOffsetBegin
p599
V206
p600
sVPartOfSpeech
p601
VDT
p602
sVLemma
p603
Vall
p604
saa(lp605
V?
p606
a(dp607
VNamedEntityTag
p608
g97
sVCharacterOffsetEnd
p609
V211
p610
sVCharacterOffsetBegin
p611
V210
p612
sVPartOfSpeech
p613
g326
sVLemma
p614
g606
saasVindexeddependencies
p615
(lp616
(lp617
Vroot
p618
aVROOT-0
p619
aVbuy-11
p620
aa(lp621
Vadvmod
p622
aVmany-2
p623
aVHow-1
p624
aa(lp625
Vamod
p626
aVpounds-3
p627
aVmany-2
p628
aa(lp629
Vdobj
p630
aVbuy-11
p631
aVpounds-3
p632
aa(lp633
Vprep_of
p634
aVpounds-3
p635
aVpeppers-5
p636
aa(lp637
Vaux
p638
aVbuy-11
p639
aVdid-6
p640
aa(lp641
Vnsubj
p642
aVbuy-11
p643
aVHannah-7
p644
aa(lp645
Vpossessive
p646
aVHannah-7
p647
aV's-8
p648
aa(lp649
Vnn
p650
aVRestaurant-10
p651
aVVegetarian-9
p652
aa(lp653
Vdep
p654
aVHannah-7
p655
aVRestaurant-10
p656
aa(lp657
Vprep_in
p658
aVbuy-11
p659
aVall-13
p660
aasas.