(dp0
Vcoref
p1
(lp2
(lp3
(lp4
(lp5
Vhe
p6
aI1
aI2
aI2
aI3
aa(lp7
VKaleb
p8
aI0
aI0
aI0
aI1
aaa(lp9
(lp10
Vhe
p11
aI1
aI10
aI10
aI11
aa(lp12
VKaleb
p13
aI0
aI0
aI0
aI1
aaa(lp14
(lp15
Vhe
p16
aI2
aI13
aI13
aI14
aa(lp17
VKaleb
p18
aI0
aI0
aI0
aI1
aaaa(lp19
(lp20
(lp21
V4
p22
aI2
aI4
aI4
aI5
aa(lp23
g22
aI1
aI4
aI4
aI5
aaaa(lp24
(lp25
(lp26
Vit
p27
aI2
aI7
aI7
aI8
aa(lp28
Veach bag
p29
aI2
aI2
aI1
aI3
aaaasVsentences
p30
(lp31
(dp32
Vparsetree
p33
V(ROOT (S (NP (NNP Kaleb)) (VP (VBD was) (VP (VBG collecting) (NP (NP (NNS cans)) (PP (IN for) (NP (VBG recycling)))))) (. .)))
p34
sVtext
p35
VKaleb was collecting cans for recycling .
p36
sVdependencies
p37
(lp38
(lp39
Vroot
p40
aVROOT
p41
aVcollecting
p42
aa(lp43
Vnsubj
p44
aVcollecting
p45
aVKaleb
p46
aa(lp47
Vaux
p48
aVcollecting
p49
aVwas
p50
aa(lp51
Vdobj
p52
aVcollecting
p53
aVcans
p54
aa(lp55
Vprep_for
p56
aVcans
p57
aVrecycling
p58
aasVwords
p59
(lp60
(lp61
VKaleb
p62
a(dp63
VNamedEntityTag
p64
VPERSON
p65
sVCharacterOffsetEnd
p66
V6
p67
sVCharacterOffsetBegin
p68
V1
p69
sVPartOfSpeech
p70
VNNP
p71
sVLemma
p72
VKaleb
p73
saa(lp74
Vwas
p75
a(dp76
VNamedEntityTag
p77
VO
p78
sVCharacterOffsetEnd
p79
V10
p80
sVCharacterOffsetBegin
p81
V7
p82
sVPartOfSpeech
p83
VVBD
p84
sVLemma
p85
Vbe
p86
saa(lp87
Vcollecting
p88
a(dp89
VNamedEntityTag
p90
g78
sVCharacterOffsetEnd
p91
V21
p92
sVCharacterOffsetBegin
p93
V11
p94
sVPartOfSpeech
p95
VVBG
p96
sVLemma
p97
Vcollect
p98
saa(lp99
Vcans
p100
a(dp101
VNamedEntityTag
p102
g78
sVCharacterOffsetEnd
p103
V26
p104
sVCharacterOffsetBegin
p105
V22
p106
sVPartOfSpeech
p107
VNNS
p108
sVLemma
p109
Vcan
p110
saa(lp111
Vfor
p112
a(dp113
VNamedEntityTag
p114
g78
sVCharacterOffsetEnd
p115
V30
p116
sVCharacterOffsetBegin
p117
V27
p118
sVPartOfSpeech
p119
VIN
p120
sVLemma
p121
Vfor
p122
saa(lp123
Vrecycling
p124
a(dp125
VNamedEntityTag
p126
g78
sVCharacterOffsetEnd
p127
V40
p128
sVCharacterOffsetBegin
p129
V31
p130
sVPartOfSpeech
p131
VVBG
p132
sVLemma
p133
Vrecycle
p134
saa(lp135
V.
p136
a(dp137
VNamedEntityTag
p138
g78
sVCharacterOffsetEnd
p139
V42
p140
sVCharacterOffsetBegin
p141
V41
p142
sVPartOfSpeech
p143
g136
sVLemma
p144
g136
saasVindexeddependencies
p145
(lp146
(lp147
Vroot
p148
aVROOT-0
p149
aVcollecting-3
p150
aa(lp151
Vnsubj
p152
aVcollecting-3
p153
aVKaleb-1
p154
aa(lp155
Vaux
p156
aVcollecting-3
p157
aVwas-2
p158
aa(lp159
Vdobj
p160
aVcollecting-3
p161
aVcans-4
p162
aa(lp163
Vprep_for
p164
aVcans-4
p165
aVrecycling-6
p166
aasa(dp167
Vparsetree
p168
V(ROOT (S (PP (IN On) (NP (NNP Saturday))) (NP (PRP he)) (VP (VBD filled) (ADVP (ADVP (NP (CD 4) (NNS bags)) (IN up)) (CC and) (PP (IN on) (NP-TMP (NNP Sunday)))) (SBAR (S (NP (PRP he)) (VP (VBD filled) (NP (QP (CD 6) (JJR more)) (NNS bags)))))) (. .)))
p169
sVtext
p170
VOn Saturday he filled 4 bags up and on Sunday he filled 6 more bags .
p171
sVdependencies
p172
(lp173
(lp174
Vroot
p175
aVROOT
p176
aVfilled
p177
aa(lp178
Vprep_on
p179
aVfilled
p180
aVSaturday
p181
aa(lp182
Vnsubj
p183
aVfilled
p184
aVhe
p185
aa(lp186
Vnum
p187
aVbags
p188
ag22
aa(lp189
Vnpadvmod
p190
aVup
p191
aVbags
p192
aa(lp193
Vadvmod
p194
aVfilled
p195
aVup
p196
aa(lp197
Vconj_and
p198
aVup
p199
aVon
p200
aa(lp201
Vpobj
p202
aVon
p203
aVSunday
p204
aa(lp205
Vnsubj
p206
aVfilled
p207
aVhe
p208
aa(lp209
Vccomp
p210
aVfilled
p211
aVfilled
p212
aa(lp213
Vnum
p214
aVbags
p215
ag67
aa(lp216
Vquantmod
p217
ag67
aVmore
p218
aa(lp219
Vdobj
p220
aVfilled
p221
aVbags
p222
aasVwords
p223
(lp224
(lp225
VOn
p226
a(dp227
VNamedEntityTag
p228
g78
sVCharacterOffsetEnd
p229
V45
p230
sVCharacterOffsetBegin
p231
V43
p232
sVPartOfSpeech
p233
VIN
p234
sVLemma
p235
Von
p236
saa(lp237
VSaturday
p238
a(dp239
VNormalizedNamedEntityTag
p240
VXXXX-WXX-6
p241
sVTimex
p242
V<TIMEX3 tid="t1" type="DATE" value="XXXX-WXX-6">Saturday</TIMEX3>
p243
sVLemma
p244
VSaturday
p245
sVCharacterOffsetEnd
p246
V54
p247
sVPartOfSpeech
p248
VNNP
p249
sVCharacterOffsetBegin
p250
V46
p251
sVNamedEntityTag
p252
VDATE
p253
saa(lp254
Vhe
p255
a(dp256
VNamedEntityTag
p257
g78
sVCharacterOffsetEnd
p258
V57
p259
sVCharacterOffsetBegin
p260
V55
p261
sVPartOfSpeech
p262
VPRP
p263
sVLemma
p264
Vhe
p265
saa(lp266
Vfilled
p267
a(dp268
VNamedEntityTag
p269
g78
sVCharacterOffsetEnd
p270
V64
p271
sVCharacterOffsetBegin
p272
V58
p273
sVPartOfSpeech
p274
VVBD
p275
sVLemma
p276
Vfill
p277
saa(lp278
g22
a(dp279
VNormalizedNamedEntityTag
p280
V4.0
p281
sVLemma
p282
g22
sVCharacterOffsetEnd
p283
V66
p284
sVPartOfSpeech
p285
VCD
p286
sVCharacterOffsetBegin
p287
V65
p288
sVNamedEntityTag
p289
VNUMBER
p290
saa(lp291
Vbags
p292
a(dp293
VNamedEntityTag
p294
g78
sVCharacterOffsetEnd
p295
V71
p296
sVCharacterOffsetBegin
p297
V67
p298
sVPartOfSpeech
p299
VNNS
p300
sVLemma
p301
Vbag
p302
saa(lp303
Vup
p304
a(dp305
VNamedEntityTag
p306
g78
sVCharacterOffsetEnd
p307
V74
p308
sVCharacterOffsetBegin
p309
V72
p310
sVPartOfSpeech
p311
VIN
p312
sVLemma
p313
Vup
p314
saa(lp315
Vand
p316
a(dp317
VNamedEntityTag
p318
g78
sVCharacterOffsetEnd
p319
V78
p320
sVCharacterOffsetBegin
p321
V75
p322
sVPartOfSpeech
p323
VCC
p324
sVLemma
p325
Vand
p326
saa(lp327
Von
p328
a(dp329
VNamedEntityTag
p330
g78
sVCharacterOffsetEnd
p331
V81
p332
sVCharacterOffsetBegin
p333
V79
p334
sVPartOfSpeech
p335
VIN
p336
sVLemma
p337
Von
p338
saa(lp339
VSunday
p340
a(dp341
VNormalizedNamedEntityTag
p342
VXXXX-WXX-7
p343
sVTimex
p344
V<TIMEX3 tid="t2" type="DATE" value="XXXX-WXX-7">Sunday</TIMEX3>
p345
sVLemma
p346
VSunday
p347
sVCharacterOffsetEnd
p348
V88
p349
sVPartOfSpeech
p350
VNNP
p351
sVCharacterOffsetBegin
p352
V82
p353
sVNamedEntityTag
p354
VDATE
p355
saa(lp356
Vhe
p357
a(dp358
VNamedEntityTag
p359
g78
sVCharacterOffsetEnd
p360
V91
p361
sVCharacterOffsetBegin
p362
V89
p363
sVPartOfSpeech
p364
VPRP
p365
sVLemma
p366
Vhe
p367
saa(lp368
Vfilled
p369
a(dp370
VNamedEntityTag
p371
g78
sVCharacterOffsetEnd
p372
V98
p373
sVCharacterOffsetBegin
p374
V92
p375
sVPartOfSpeech
p376
VVBD
p377
sVLemma
p378
Vfill
p379
saa(lp380
g67
a(dp381
VNormalizedNamedEntityTag
p382
V6.0
p383
sVLemma
p384
g67
sVCharacterOffsetEnd
p385
V100
p386
sVPartOfSpeech
p387
VCD
p388
sVCharacterOffsetBegin
p389
V99
p390
sVNamedEntityTag
p391
VNUMBER
p392
saa(lp393
Vmore
p394
a(dp395
VNamedEntityTag
p396
g78
sVCharacterOffsetEnd
p397
V105
p398
sVCharacterOffsetBegin
p399
V101
p400
sVPartOfSpeech
p401
VJJR
p402
sVLemma
p403
Vmore
p404
saa(lp405
Vbags
p406
a(dp407
VNamedEntityTag
p408
g78
sVCharacterOffsetEnd
p409
V110
p410
sVCharacterOffsetBegin
p411
V106
p412
sVPartOfSpeech
p413
VNNS
p414
sVLemma
p415
Vbag
p416
saa(lp417
g136
a(dp418
VNamedEntityTag
p419
g78
sVCharacterOffsetEnd
p420
V112
p421
sVCharacterOffsetBegin
p422
V111
p423
sVPartOfSpeech
p424
g136
sVLemma
p425
g136
saasVindexeddependencies
p426
(lp427
(lp428
Vroot
p429
aVROOT-0
p430
aVfilled-4
p431
aa(lp432
Vprep_on
p433
aVfilled-4
p434
aVSaturday-2
p435
aa(lp436
Vnsubj
p437
aVfilled-4
p438
aVhe-3
p439
aa(lp440
Vnum
p441
aVbags-6
p442
aV4-5
p443
aa(lp444
Vnpadvmod
p445
aVup-7
p446
aVbags-6
p447
aa(lp448
Vadvmod
p449
aVfilled-4
p450
aVup-7
p451
aa(lp452
Vconj_and
p453
aVup-7
p454
aVon-9
p455
aa(lp456
Vpobj
p457
aVon-9
p458
aVSunday-10
p459
aa(lp460
Vnsubj
p461
aVfilled-12
p462
aVhe-11
p463
aa(lp464
Vccomp
p465
aVfilled-4
p466
aVfilled-12
p467
aa(lp468
Vnum
p469
aVbags-15
p470
aV6-13
p471
aa(lp472
Vquantmod
p473
aV6-13
p474
aVmore-14
p475
aa(lp476
Vdobj
p477
aVfilled-12
p478
aVbags-15
p479
aasa(dp480
Vparsetree
p481
V(ROOT (SBARQ (SBAR (IN If) (S (NP (DT each) (NN bag)) (VP (VBD had) (NP (NP (CD 4) (NNS cans)) (PP (IN in) (NP (PRP it))))))) (, ,) (WHNP (WHADJP (WRB how) (JJ many)) (NNS cans)) (SQ (VBD did) (NP (PRP he)) (VP (VB pick) (PRT (RP up)) (NP (NN total)))) (. ?)))
p482
sVtext
p483
VIf each bag had 4 cans in it , how many cans did he pick up total ?
p484
sVdependencies
p485
(lp486
(lp487
Vroot
p488
aVROOT
p489
aVpick
p490
aa(lp491
Vmark
p492
aVhad
p493
aVIf
p494
aa(lp495
Vdet
p496
aVbag
p497
aVeach
p498
aa(lp499
Vnsubj
p500
aVhad
p501
aVbag
p502
aa(lp503
Vadvcl
p504
aVpick
p505
aVhad
p506
aa(lp507
Vnum
p508
aVcans
p509
ag22
aa(lp510
Vdobj
p511
aVhad
p512
aVcans
p513
aa(lp514
Vprep_in
p515
aVcans
p516
aVit
p517
aa(lp518
Vadvmod
p519
aVmany
p520
aVhow
p521
aa(lp522
Vamod
p523
aVcans
p524
aVmany
p525
aa(lp526
Vdep
p527
aVpick
p528
aVcans
p529
aa(lp530
Vaux
p531
aVpick
p532
aVdid
p533
aa(lp534
Vnsubj
p535
aVpick
p536
aVhe
p537
aa(lp538
Vprt
p539
aVpick
p540
aVup
p541
aa(lp542
Vdobj
p543
aVpick
p544
aVtotal
p545
aasVwords
p546
(lp547
(lp548
VIf
p549
a(dp550
VNamedEntityTag
p551
g78
sVCharacterOffsetEnd
p552
V115
p553
sVCharacterOffsetBegin
p554
V113
p555
sVPartOfSpeech
p556
VIN
p557
sVLemma
p558
Vif
p559
saa(lp560
Veach
p561
a(dp562
VNamedEntityTag
p563
g78
sVCharacterOffsetEnd
p564
V120
p565
sVCharacterOffsetBegin
p566
V116
p567
sVPartOfSpeech
p568
VDT
p569
sVLemma
p570
Veach
p571
saa(lp572
Vbag
p573
a(dp574
VNamedEntityTag
p575
g78
sVCharacterOffsetEnd
p576
V124
p577
sVCharacterOffsetBegin
p578
V121
p579
sVPartOfSpeech
p580
VNN
p581
sVLemma
p582
Vbag
p583
saa(lp584
Vhad
p585
a(dp586
VNamedEntityTag
p587
g78
sVCharacterOffsetEnd
p588
V128
p589
sVCharacterOffsetBegin
p590
V125
p591
sVPartOfSpeech
p592
VVBD
p593
sVLemma
p594
Vhave
p595
saa(lp596
g22
a(dp597
VNormalizedNamedEntityTag
p598
V4.0
p599
sVLemma
p600
g22
sVCharacterOffsetEnd
p601
V130
p602
sVPartOfSpeech
p603
VCD
p604
sVCharacterOffsetBegin
p605
V129
p606
sVNamedEntityTag
p607
VNUMBER
p608
saa(lp609
Vcans
p610
a(dp611
VNamedEntityTag
p612
g78
sVCharacterOffsetEnd
p613
V135
p614
sVCharacterOffsetBegin
p615
V131
p616
sVPartOfSpeech
p617
VNNS
p618
sVLemma
p619
Vcan
p620
saa(lp621
Vin
p622
a(dp623
VNamedEntityTag
p624
g78
sVCharacterOffsetEnd
p625
V138
p626
sVCharacterOffsetBegin
p627
V136
p628
sVPartOfSpeech
p629
VIN
p630
sVLemma
p631
Vin
p632
saa(lp633
Vit
p634
a(dp635
VNamedEntityTag
p636
g78
sVCharacterOffsetEnd
p637
V141
p638
sVCharacterOffsetBegin
p639
V139
p640
sVPartOfSpeech
p641
VPRP
p642
sVLemma
p643
Vit
p644
saa(lp645
V,
p646
a(dp647
VNamedEntityTag
p648
g78
sVCharacterOffsetEnd
p649
V143
p650
sVCharacterOffsetBegin
p651
V142
p652
sVPartOfSpeech
p653
g646
sVLemma
p654
g646
saa(lp655
Vhow
p656
a(dp657
VNamedEntityTag
p658
g78
sVCharacterOffsetEnd
p659
V147
p660
sVCharacterOffsetBegin
p661
V144
p662
sVPartOfSpeech
p663
VWRB
p664
sVLemma
p665
Vhow
p666
saa(lp667
Vmany
p668
a(dp669
VNamedEntityTag
p670
g78
sVCharacterOffsetEnd
p671
V152
p672
sVCharacterOffsetBegin
p673
V148
p674
sVPartOfSpeech
p675
VJJ
p676
sVLemma
p677
Vmany
p678
saa(lp679
Vcans
p680
a(dp681
VNamedEntityTag
p682
g78
sVCharacterOffsetEnd
p683
V157
p684
sVCharacterOffsetBegin
p685
V153
p686
sVPartOfSpeech
p687
VNNS
p688
sVLemma
p689
Vcan
p690
saa(lp691
Vdid
p692
a(dp693
VNamedEntityTag
p694
g78
sVCharacterOffsetEnd
p695
V161
p696
sVCharacterOffsetBegin
p697
V158
p698
sVPartOfSpeech
p699
VVBD
p700
sVLemma
p701
Vdo
p702
saa(lp703
Vhe
p704
a(dp705
VNamedEntityTag
p706
g78
sVCharacterOffsetEnd
p707
V164
p708
sVCharacterOffsetBegin
p709
V162
p710
sVPartOfSpeech
p711
VPRP
p712
sVLemma
p713
Vhe
p714
saa(lp715
Vpick
p716
a(dp717
VNamedEntityTag
p718
g78
sVCharacterOffsetEnd
p719
V169
p720
sVCharacterOffsetBegin
p721
V165
p722
sVPartOfSpeech
p723
VVB
p724
sVLemma
p725
Vpick
p726
saa(lp727
Vup
p728
a(dp729
VNamedEntityTag
p730
g78
sVCharacterOffsetEnd
p731
V172
p732
sVCharacterOffsetBegin
p733
V170
p734
sVPartOfSpeech
p735
VRP
p736
sVLemma
p737
Vup
p738
saa(lp739
Vtotal
p740
a(dp741
VNamedEntityTag
p742
g78
sVCharacterOffsetEnd
p743
V178
p744
sVCharacterOffsetBegin
p745
V173
p746
sVPartOfSpeech
p747
VNN
p748
sVLemma
p749
Vtotal
p750
saa(lp751
V?
p752
a(dp753
VNamedEntityTag
p754
g78
sVCharacterOffsetEnd
p755
V180
p756
sVCharacterOffsetBegin
p757
V179
p758
sVPartOfSpeech
p759
g136
sVLemma
p760
g752
saasVindexeddependencies
p761
(lp762
(lp763
Vroot
p764
aVROOT-0
p765
aVpick-15
p766
aa(lp767
Vmark
p768
aVhad-4
p769
aVIf-1
p770
aa(lp771
Vdet
p772
aVbag-3
p773
aVeach-2
p774
aa(lp775
Vnsubj
p776
aVhad-4
p777
aVbag-3
p778
aa(lp779
Vadvcl
p780
aVpick-15
p781
aVhad-4
p782
aa(lp783
Vnum
p784
aVcans-6
p785
aV4-5
p786
aa(lp787
Vdobj
p788
aVhad-4
p789
aVcans-6
p790
aa(lp791
Vprep_in
p792
aVcans-6
p793
aVit-8
p794
aa(lp795
Vadvmod
p796
aVmany-11
p797
aVhow-10
p798
aa(lp799
Vamod
p800
aVcans-12
p801
aVmany-11
p802
aa(lp803
Vdep
p804
aVpick-15
p805
aVcans-12
p806
aa(lp807
Vaux
p808
aVpick-15
p809
aVdid-13
p810
aa(lp811
Vnsubj
p812
aVpick-15
p813
aVhe-14
p814
aa(lp815
Vprt
p816
aVpick-15
p817
aVup-16
p818
aa(lp819
Vdobj
p820
aVpick-15
p821
aVtotal-17
p822
aasas.