(dp0
Vcoref
p1
(lp2
(lp3
(lp4
(lp5
Vhis
p6
aI0
aI2
aI2
aI3
aa(lp7
VEdward
p8
aI0
aI0
aI0
aI1
aaa(lp9
(lp10
VEdward
p11
aI1
aI6
aI6
aI7
aa(lp12
VEdward
p13
aI0
aI0
aI0
aI1
aaa(lp14
(lp15
Vhis
p16
aI1
aI11
aI11
aI12
aa(lp17
VEdward
p18
aI0
aI0
aI0
aI1
aaaa(lp19
(lp20
(lp21
Vthey
p22
aI1
aI3
aI3
aI4
aa(lp23
VEdward and his friend
p24
aI0
aI0
aI0
aI4
aaaa(lp25
(lp26
(lp27
Vhis friend
p28
aI1
aI12
aI11
aI13
aa(lp29
Vhis friend
p30
aI0
aI3
aI2
aI4
aaaasVsentences
p31
(lp32
(dp33
Vparsetree
p34
V(ROOT (S (NP (NP (NNP Edward)) (CC and) (NP (PRP$ his) (NN friend))) (VP (VBD were) (VP (VBG buying) (NP (NN trick) (NNS decks)) (PP (IN from) (NP (NP (DT the) (JJ magic) (NN shop)) (PP (IN for) (NP (NP (CD 6) (NNS dollars)) (NP (DT each)))))))) (. .)))
p35
sVtext
p36
VEdward and his friend were buying trick decks from the magic shop for 6 dollars each .
p37
sVdependencies
p38
(lp39
(lp40
Vroot
p41
aVROOT
p42
aVbuying
p43
aa(lp44
Vnsubj
p45
aVbuying
p46
aVEdward
p47
aa(lp48
Vposs
p49
aVfriend
p50
aVhis
p51
aa(lp52
Vconj_and
p53
aVEdward
p54
aVfriend
p55
aa(lp56
Vaux
p57
aVbuying
p58
aVwere
p59
aa(lp60
Vnn
p61
aVdecks
p62
aVtrick
p63
aa(lp64
Vdobj
p65
aVbuying
p66
aVdecks
p67
aa(lp68
Vdet
p69
aVshop
p70
aVthe
p71
aa(lp72
Vamod
p73
aVshop
p74
aVmagic
p75
aa(lp76
Vprep_from
p77
aVbuying
p78
aVshop
p79
aa(lp80
Vnum
p81
aVdollars
p82
aV6
p83
aa(lp84
Vprep_for
p85
aVshop
p86
aVdollars
p87
aa(lp88
Vdep
p89
aVdollars
p90
aVeach
p91
aasVwords
p92
(lp93
(lp94
VEdward
p95
a(dp96
VNamedEntityTag
p97
VPERSON
p98
sVCharacterOffsetEnd
p99
V7
p100
sVCharacterOffsetBegin
p101
V1
p102
sVPartOfSpeech
p103
VNNP
p104
sVLemma
p105
VEdward
p106
saa(lp107
Vand
p108
a(dp109
VNamedEntityTag
p110
VO
p111
sVCharacterOffsetEnd
p112
V11
p113
sVCharacterOffsetBegin
p114
V8
p115
sVPartOfSpeech
p116
VCC
p117
sVLemma
p118
Vand
p119
saa(lp120
Vhis
p121
a(dp122
VNamedEntityTag
p123
g111
sVCharacterOffsetEnd
p124
V15
p125
sVCharacterOffsetBegin
p126
V12
p127
sVPartOfSpeech
p128
VPRP$
p129
sVLemma
p130
Vhe
p131
saa(lp132
Vfriend
p133
a(dp134
VNamedEntityTag
p135
g111
sVCharacterOffsetEnd
p136
V22
p137
sVCharacterOffsetBegin
p138
V16
p139
sVPartOfSpeech
p140
VNN
p141
sVLemma
p142
Vfriend
p143
saa(lp144
Vwere
p145
a(dp146
VNamedEntityTag
p147
g111
sVCharacterOffsetEnd
p148
V27
p149
sVCharacterOffsetBegin
p150
V23
p151
sVPartOfSpeech
p152
VVBD
p153
sVLemma
p154
Vbe
p155
saa(lp156
Vbuying
p157
a(dp158
VNamedEntityTag
p159
g111
sVCharacterOffsetEnd
p160
V34
p161
sVCharacterOffsetBegin
p162
V28
p163
sVPartOfSpeech
p164
VVBG
p165
sVLemma
p166
Vbuy
p167
saa(lp168
Vtrick
p169
a(dp170
VNamedEntityTag
p171
g111
sVCharacterOffsetEnd
p172
V40
p173
sVCharacterOffsetBegin
p174
V35
p175
sVPartOfSpeech
p176
VNN
p177
sVLemma
p178
Vtrick
p179
saa(lp180
Vdecks
p181
a(dp182
VNamedEntityTag
p183
g111
sVCharacterOffsetEnd
p184
V46
p185
sVCharacterOffsetBegin
p186
V41
p187
sVPartOfSpeech
p188
VNNS
p189
sVLemma
p190
Vdeck
p191
saa(lp192
Vfrom
p193
a(dp194
VNamedEntityTag
p195
g111
sVCharacterOffsetEnd
p196
V51
p197
sVCharacterOffsetBegin
p198
V47
p199
sVPartOfSpeech
p200
VIN
p201
sVLemma
p202
Vfrom
p203
saa(lp204
Vthe
p205
a(dp206
VNamedEntityTag
p207
g111
sVCharacterOffsetEnd
p208
V55
p209
sVCharacterOffsetBegin
p210
V52
p211
sVPartOfSpeech
p212
VDT
p213
sVLemma
p214
Vthe
p215
saa(lp216
Vmagic
p217
a(dp218
VNamedEntityTag
p219
g111
sVCharacterOffsetEnd
p220
V61
p221
sVCharacterOffsetBegin
p222
V56
p223
sVPartOfSpeech
p224
VJJ
p225
sVLemma
p226
Vmagic
p227
saa(lp228
Vshop
p229
a(dp230
VNamedEntityTag
p231
g111
sVCharacterOffsetEnd
p232
V66
p233
sVCharacterOffsetBegin
p234
V62
p235
sVPartOfSpeech
p236
VNN
p237
sVLemma
p238
Vshop
p239
saa(lp240
Vfor
p241
a(dp242
VNamedEntityTag
p243
g111
sVCharacterOffsetEnd
p244
V70
p245
sVCharacterOffsetBegin
p246
V67
p247
sVPartOfSpeech
p248
VIN
p249
sVLemma
p250
Vfor
p251
saa(lp252
g83
a(dp253
VNormalizedNamedEntityTag
p254
V$6.0
p255
sVLemma
p256
g83
sVCharacterOffsetEnd
p257
V72
p258
sVPartOfSpeech
p259
VCD
p260
sVCharacterOffsetBegin
p261
V71
p262
sVNamedEntityTag
p263
VMONEY
p264
saa(lp265
Vdollars
p266
a(dp267
VNormalizedNamedEntityTag
p268
V$6.0
p269
sVLemma
p270
Vdollar
p271
sVCharacterOffsetEnd
p272
V80
p273
sVPartOfSpeech
p274
VNNS
p275
sVCharacterOffsetBegin
p276
V73
p277
sVNamedEntityTag
p278
VMONEY
p279
saa(lp280
Veach
p281
a(dp282
VNamedEntityTag
p283
g111
sVCharacterOffsetEnd
p284
V85
p285
sVCharacterOffsetBegin
p286
V81
p287
sVPartOfSpeech
p288
VDT
p289
sVLemma
p290
Veach
p291
saa(lp292
V.
p293
a(dp294
VNamedEntityTag
p295
g111
sVCharacterOffsetEnd
p296
V87
p297
sVCharacterOffsetBegin
p298
V86
p299
sVPartOfSpeech
p300
g293
sVLemma
p301
g293
saasVindexeddependencies
p302
(lp303
(lp304
Vroot
p305
aVROOT-0
p306
aVbuying-6
p307
aa(lp308
Vnsubj
p309
aVbuying-6
p310
aVEdward-1
p311
aa(lp312
Vposs
p313
aVfriend-4
p314
aVhis-3
p315
aa(lp316
Vconj_and
p317
aVEdward-1
p318
aVfriend-4
p319
aa(lp320
Vaux
p321
aVbuying-6
p322
aVwere-5
p323
aa(lp324
Vnn
p325
aVdecks-8
p326
aVtrick-7
p327
aa(lp328
Vdobj
p329
aVbuying-6
p330
aVdecks-8
p331
aa(lp332
Vdet
p333
aVshop-12
p334
aVthe-10
p335
aa(lp336
Vamod
p337
aVshop-12
p338
aVmagic-11
p339
aa(lp340
Vprep_from
p341
aVbuying-6
p342
aVshop-12
p343
aa(lp344
Vnum
p345
aVdollars-15
p346
aV6-14
p347
aa(lp348
Vprep_for
p349
aVshop-12
p350
aVdollars-15
p351
aa(lp352
Vdep
p353
aVdollars-15
p354
aVeach-16
p355
aasa(dp356
Vparsetree
p357
V(ROOT (SBARQ (WHNP (WRB How) (RB much)) (SQ (VBD did) (NP (PRP they)) (VP (VBP spend) (SBAR (IN if) (S (NP (NNP Edward)) (VP (VBD bought) (SBAR (S (NP (NP (CD 3) (NNS decks)) (CC and) (NP (PRP$ his) (NN friend))) (VP (VBD bought) (NP (CD 6) (NNS decks)))))))))) (. ?)))
p358
sVtext
p359
VHow much did they spend if Edward bought 3 decks and his friend bought 6 decks ?
p360
sVdependencies
p361
(lp362
(lp363
Vroot
p364
aVROOT
p365
aVspend
p366
aa(lp367
Vadvmod
p368
aVmuch
p369
aVHow
p370
aa(lp371
Vdep
p372
aVspend
p373
aVmuch
p374
aa(lp375
Vaux
p376
aVspend
p377
aVdid
p378
aa(lp379
Vnsubj
p380
aVspend
p381
aVthey
p382
aa(lp383
Vmark
p384
aVbought
p385
aVif
p386
aa(lp387
Vnsubj
p388
aVbought
p389
aVEdward
p390
aa(lp391
Vadvcl
p392
aVspend
p393
aVbought
p394
aa(lp395
Vnum
p396
aVdecks
p397
aV3
p398
aa(lp399
Vnsubj
p400
aVbought
p401
aVdecks
p402
aa(lp403
Vposs
p404
aVfriend
p405
aVhis
p406
aa(lp407
Vconj_and
p408
aVdecks
p409
aVfriend
p410
aa(lp411
Vccomp
p412
aVbought
p413
aVbought
p414
aa(lp415
Vnum
p416
aVdecks
p417
ag83
aa(lp418
Vdobj
p419
aVbought
p420
aVdecks
p421
aasVwords
p422
(lp423
(lp424
VHow
p425
a(dp426
VNamedEntityTag
p427
g111
sVCharacterOffsetEnd
p428
V91
p429
sVCharacterOffsetBegin
p430
V88
p431
sVPartOfSpeech
p432
VWRB
p433
sVLemma
p434
Vhow
p435
saa(lp436
Vmuch
p437
a(dp438
VNamedEntityTag
p439
g111
sVCharacterOffsetEnd
p440
V96
p441
sVCharacterOffsetBegin
p442
V92
p443
sVPartOfSpeech
p444
VRB
p445
sVLemma
p446
Vmuch
p447
saa(lp448
Vdid
p449
a(dp450
VNamedEntityTag
p451
g111
sVCharacterOffsetEnd
p452
V100
p453
sVCharacterOffsetBegin
p454
V97
p455
sVPartOfSpeech
p456
VVBD
p457
sVLemma
p458
Vdo
p459
saa(lp460
Vthey
p461
a(dp462
VNamedEntityTag
p463
g111
sVCharacterOffsetEnd
p464
V105
p465
sVCharacterOffsetBegin
p466
V101
p467
sVPartOfSpeech
p468
VPRP
p469
sVLemma
p470
Vthey
p471
saa(lp472
Vspend
p473
a(dp474
VNamedEntityTag
p475
g111
sVCharacterOffsetEnd
p476
V111
p477
sVCharacterOffsetBegin
p478
V106
p479
sVPartOfSpeech
p480
VVBP
p481
sVLemma
p482
Vspend
p483
saa(lp484
Vif
p485
a(dp486
VNamedEntityTag
p487
g111
sVCharacterOffsetEnd
p488
V114
p489
sVCharacterOffsetBegin
p490
V112
p491
sVPartOfSpeech
p492
VIN
p493
sVLemma
p494
Vif
p495
saa(lp496
VEdward
p497
a(dp498
VNamedEntityTag
p499
VPERSON
p500
sVCharacterOffsetEnd
p501
V121
p502
sVCharacterOffsetBegin
p503
V115
p504
sVPartOfSpeech
p505
VNNP
p506
sVLemma
p507
VEdward
p508
saa(lp509
Vbought
p510
a(dp511
VNamedEntityTag
p512
g111
sVCharacterOffsetEnd
p513
V128
p514
sVCharacterOffsetBegin
p515
V122
p516
sVPartOfSpeech
p517
VVBD
p518
sVLemma
p519
Vbuy
p520
saa(lp521
g398
a(dp522
VNormalizedNamedEntityTag
p523
V3.0
p524
sVLemma
p525
g398
sVCharacterOffsetEnd
p526
V130
p527
sVPartOfSpeech
p528
VCD
p529
sVCharacterOffsetBegin
p530
V129
p531
sVNamedEntityTag
p532
VNUMBER
p533
saa(lp534
Vdecks
p535
a(dp536
VNamedEntityTag
p537
g111
sVCharacterOffsetEnd
p538
V136
p539
sVCharacterOffsetBegin
p540
V131
p541
sVPartOfSpeech
p542
VNNS
p543
sVLemma
p544
Vdeck
p545
saa(lp546
Vand
p547
a(dp548
VNamedEntityTag
p549
g111
sVCharacterOffsetEnd
p550
V140
p551
sVCharacterOffsetBegin
p552
V137
p553
sVPartOfSpeech
p554
VCC
p555
sVLemma
p556
Vand
p557
saa(lp558
Vhis
p559
a(dp560
VNamedEntityTag
p561
g111
sVCharacterOffsetEnd
p562
V144
p563
sVCharacterOffsetBegin
p564
V141
p565
sVPartOfSpeech
p566
VPRP$
p567
sVLemma
p568
Vhe
p569
saa(lp570
Vfriend
p571
a(dp572
VNamedEntityTag
p573
g111
sVCharacterOffsetEnd
p574
V151
p575
sVCharacterOffsetBegin
p576
V145
p577
sVPartOfSpeech
p578
VNN
p579
sVLemma
p580
Vfriend
p581
saa(lp582
Vbought
p583
a(dp584
VNamedEntityTag
p585
g111
sVCharacterOffsetEnd
p586
V158
p587
sVCharacterOffsetBegin
p588
V152
p589
sVPartOfSpeech
p590
VVBD
p591
sVLemma
p592
Vbuy
p593
saa(lp594
g83
a(dp595
VNormalizedNamedEntityTag
p596
V6.0
p597
sVLemma
p598
g83
sVCharacterOffsetEnd
p599
V160
p600
sVPartOfSpeech
p601
VCD
p602
sVCharacterOffsetBegin
p603
V159
p604
sVNamedEntityTag
p605
VNUMBER
p606
saa(lp607
Vdecks
p608
a(dp609
VNamedEntityTag
p610
g111
sVCharacterOffsetEnd
p611
V166
p612
sVCharacterOffsetBegin
p613
V161
p614
sVPartOfSpeech
p615
VNNS
p616
sVLemma
p617
Vdeck
p618
saa(lp619
V?
p620
a(dp621
VNamedEntityTag
p622
g111
sVCharacterOffsetEnd
p623
V168
p624
sVCharacterOffsetBegin
p625
V167
p626
sVPartOfSpeech
p627
g293
sVLemma
p628
g620
saasVindexeddependencies
p629
(lp630
(lp631
Vroot
p632
aVROOT-0
p633
aVspend-5
p634
aa(lp635
Vadvmod
p636
aVmuch-2
p637
aVHow-1
p638
aa(lp639
Vdep
p640
aVspend-5
p641
aVmuch-2
p642
aa(lp643
Vaux
p644
aVspend-5
p645
aVdid-3
p646
aa(lp647
Vnsubj
p648
aVspend-5
p649
aVthey-4
p650
aa(lp651
Vmark
p652
aVbought-8
p653
aVif-6
p654
aa(lp655
Vnsubj
p656
aVbought-8
p657
aVEdward-7
p658
aa(lp659
Vadvcl
p660
aVspend-5
p661
aVbought-8
p662
aa(lp663
Vnum
p664
aVdecks-10
p665
aV3-9
p666
aa(lp667
Vnsubj
p668
aVbought-14
p669
aVdecks-10
p670
aa(lp671
Vposs
p672
aVfriend-13
p673
aVhis-12
p674
aa(lp675
Vconj_and
p676
aVdecks-10
p677
aVfriend-13
p678
aa(lp679
Vccomp
p680
aVbought-8
p681
aVbought-14
p682
aa(lp683
Vnum
p684
aVdecks-16
p685
aV6-15
p686
aa(lp687
Vdobj
p688
aVbought-14
p689
aVdecks-16
p690
aasas.