(dp0
Vcoref
p1
(lp2
(lp3
(lp4
(lp5
VJanet
p6
aI2
aI4
aI4
aI5
aa(lp7
VJanet
p8
aI0
aI6
aI6
aI7
aaaasVsentences
p9
(lp10
(dp11
Vparsetree
p12
V(ROOT (S (SBAR (IN While) (S (NP (NP (NN shopping)) (PP (IN for) (NP (NN music)))) (VP (NN online)))) (, ,) (NP (NNP Janet)) (VP (VBD bought) (NP (NP (CD 6) (NN country) (NNS albums)) (CC and) (NP (CD 2) (NN pop) (NNS albums)))) (. .)))
p13
sVtext
p14
VWhile shopping for music online , Janet bought 6 country albums and 2 pop albums .
p15
sVdependencies
p16
(lp17
(lp18
Vroot
p19
aVROOT
p20
aVbought
p21
aa(lp22
Vmark
p23
aVonline
p24
aVWhile
p25
aa(lp26
Vnsubj
p27
aVonline
p28
aVshopping
p29
aa(lp30
Vprep_for
p31
aVshopping
p32
aVmusic
p33
aa(lp34
Vadvcl
p35
aVbought
p36
aVonline
p37
aa(lp38
Vnsubj
p39
aVbought
p40
aVJanet
p41
aa(lp42
Vnum
p43
aValbums
p44
aV6
p45
aa(lp46
Vnn
p47
aValbums
p48
aVcountry
p49
aa(lp50
Vdobj
p51
aVbought
p52
aValbums
p53
aa(lp54
Vnum
p55
aValbums
p56
aV2
p57
aa(lp58
Vnn
p59
aValbums
p60
aVpop
p61
aa(lp62
Vconj_and
p63
aValbums
p64
aValbums
p65
aasVwords
p66
(lp67
(lp68
VWhile
p69
a(dp70
VNamedEntityTag
p71
VO
p72
sVCharacterOffsetEnd
p73
g45
sVCharacterOffsetBegin
p74
V1
p75
sVPartOfSpeech
p76
VIN
p77
sVLemma
p78
Vwhile
p79
saa(lp80
Vshopping
p81
a(dp82
VNamedEntityTag
p83
g72
sVCharacterOffsetEnd
p84
V15
p85
sVCharacterOffsetBegin
p86
V7
p87
sVPartOfSpeech
p88
VNN
p89
sVLemma
p90
Vshopping
p91
saa(lp92
Vfor
p93
a(dp94
VNamedEntityTag
p95
g72
sVCharacterOffsetEnd
p96
V19
p97
sVCharacterOffsetBegin
p98
V16
p99
sVPartOfSpeech
p100
VIN
p101
sVLemma
p102
Vfor
p103
saa(lp104
Vmusic
p105
a(dp106
VNamedEntityTag
p107
g72
sVCharacterOffsetEnd
p108
V25
p109
sVCharacterOffsetBegin
p110
V20
p111
sVPartOfSpeech
p112
VNN
p113
sVLemma
p114
Vmusic
p115
saa(lp116
Vonline
p117
a(dp118
VNamedEntityTag
p119
g72
sVCharacterOffsetEnd
p120
V32
p121
sVCharacterOffsetBegin
p122
V26
p123
sVPartOfSpeech
p124
VNN
p125
sVLemma
p126
Vonline
p127
saa(lp128
V,
p129
a(dp130
VNamedEntityTag
p131
g72
sVCharacterOffsetEnd
p132
V34
p133
sVCharacterOffsetBegin
p134
V33
p135
sVPartOfSpeech
p136
g129
sVLemma
p137
g129
saa(lp138
VJanet
p139
a(dp140
VNamedEntityTag
p141
VPERSON
p142
sVCharacterOffsetEnd
p143
V40
p144
sVCharacterOffsetBegin
p145
V35
p146
sVPartOfSpeech
p147
VNNP
p148
sVLemma
p149
VJanet
p150
saa(lp151
Vbought
p152
a(dp153
VNamedEntityTag
p154
g72
sVCharacterOffsetEnd
p155
V47
p156
sVCharacterOffsetBegin
p157
V41
p158
sVPartOfSpeech
p159
VVBD
p160
sVLemma
p161
Vbuy
p162
saa(lp163
g45
a(dp164
VNormalizedNamedEntityTag
p165
V6.0
p166
sVLemma
p167
g45
sVCharacterOffsetEnd
p168
V49
p169
sVPartOfSpeech
p170
VCD
p171
sVCharacterOffsetBegin
p172
V48
p173
sVNamedEntityTag
p174
VNUMBER
p175
saa(lp176
Vcountry
p177
a(dp178
VNamedEntityTag
p179
g72
sVCharacterOffsetEnd
p180
V57
p181
sVCharacterOffsetBegin
p182
V50
p183
sVPartOfSpeech
p184
VNN
p185
sVLemma
p186
Vcountry
p187
saa(lp188
Valbums
p189
a(dp190
VNamedEntityTag
p191
g72
sVCharacterOffsetEnd
p192
V64
p193
sVCharacterOffsetBegin
p194
V58
p195
sVPartOfSpeech
p196
VNNS
p197
sVLemma
p198
Valbum
p199
saa(lp200
Vand
p201
a(dp202
VNamedEntityTag
p203
g72
sVCharacterOffsetEnd
p204
V68
p205
sVCharacterOffsetBegin
p206
V65
p207
sVPartOfSpeech
p208
VCC
p209
sVLemma
p210
Vand
p211
saa(lp212
g57
a(dp213
VNormalizedNamedEntityTag
p214
V2.0
p215
sVLemma
p216
g57
sVCharacterOffsetEnd
p217
V70
p218
sVPartOfSpeech
p219
VCD
p220
sVCharacterOffsetBegin
p221
V69
p222
sVNamedEntityTag
p223
VNUMBER
p224
saa(lp225
Vpop
p226
a(dp227
VNamedEntityTag
p228
g72
sVCharacterOffsetEnd
p229
V74
p230
sVCharacterOffsetBegin
p231
V71
p232
sVPartOfSpeech
p233
VNN
p234
sVLemma
p235
Vpop
p236
saa(lp237
Valbums
p238
a(dp239
VNamedEntityTag
p240
g72
sVCharacterOffsetEnd
p241
V81
p242
sVCharacterOffsetBegin
p243
V75
p244
sVPartOfSpeech
p245
VNNS
p246
sVLemma
p247
Valbum
p248
saa(lp249
V.
p250
a(dp251
VNamedEntityTag
p252
g72
sVCharacterOffsetEnd
p253
V83
p254
sVCharacterOffsetBegin
p255
V82
p256
sVPartOfSpeech
p257
g250
sVLemma
p258
g250
saasVindexeddependencies
p259
(lp260
(lp261
Vroot
p262
aVROOT-0
p263
aVbought-8
p264
aa(lp265
Vmark
p266
aVonline-5
p267
aVWhile-1
p268
aa(lp269
Vnsubj
p270
aVonline-5
p271
aVshopping-2
p272
aa(lp273
Vprep_for
p274
aVshopping-2
p275
aVmusic-4
p276
aa(lp277
Vadvcl
p278
aVbought-8
p279
aVonline-5
p280
aa(lp281
Vnsubj
p282
aVbought-8
p283
aVJanet-7
p284
aa(lp285
Vnum
p286
aValbums-11
p287
aV6-9
p288
aa(lp289
Vnn
p290
aValbums-11
p291
aVcountry-10
p292
aa(lp293
Vdobj
p294
aVbought-8
p295
aValbums-11
p296
aa(lp297
Vnum
p298
aValbums-15
p299
aV2-13
p300
aa(lp301
Vnn
p302
aValbums-15
p303
aVpop-14
p304
aa(lp305
Vconj_and
p306
aValbums-11
p307
aValbums-15
p308
aasa(dp309
Vparsetree
p310
V(ROOT (S (NP (DT Each) (NN album)) (VP (VP (VBD came) (PP (IN with) (NP (DT a) (NN lyric) (NN sheet)))) (CC and) (VP (VBD had) (NP (CD 9) (NNS songs)))) (. .)))
p311
sVtext
p312
VEach album came with a lyric sheet and had 9 songs .
p313
sVdependencies
p314
(lp315
(lp316
Vroot
p317
aVROOT
p318
aVcame
p319
aa(lp320
Vdet
p321
aValbum
p322
aVEach
p323
aa(lp324
Vnsubj
p325
aVcame
p326
aValbum
p327
aa(lp328
Vdet
p329
aVsheet
p330
aVa
p331
aa(lp332
Vnn
p333
aVsheet
p334
aVlyric
p335
aa(lp336
Vprep_with
p337
aVcame
p338
aVsheet
p339
aa(lp340
Vconj_and
p341
aVcame
p342
aVhad
p343
aa(lp344
Vnum
p345
aVsongs
p346
aV9
p347
aa(lp348
Vdobj
p349
aVhad
p350
aVsongs
p351
aasVwords
p352
(lp353
(lp354
VEach
p355
a(dp356
VNamedEntityTag
p357
g72
sVCharacterOffsetEnd
p358
V88
p359
sVCharacterOffsetBegin
p360
V84
p361
sVPartOfSpeech
p362
VDT
p363
sVLemma
p364
Veach
p365
saa(lp366
Valbum
p367
a(dp368
VNamedEntityTag
p369
g72
sVCharacterOffsetEnd
p370
V94
p371
sVCharacterOffsetBegin
p372
V89
p373
sVPartOfSpeech
p374
VNN
p375
sVLemma
p376
Valbum
p377
saa(lp378
Vcame
p379
a(dp380
VNamedEntityTag
p381
g72
sVCharacterOffsetEnd
p382
V99
p383
sVCharacterOffsetBegin
p384
V95
p385
sVPartOfSpeech
p386
VVBD
p387
sVLemma
p388
Vcome
p389
saa(lp390
Vwith
p391
a(dp392
VNamedEntityTag
p393
g72
sVCharacterOffsetEnd
p394
V104
p395
sVCharacterOffsetBegin
p396
V100
p397
sVPartOfSpeech
p398
VIN
p399
sVLemma
p400
Vwith
p401
saa(lp402
g331
a(dp403
VNamedEntityTag
p404
g72
sVCharacterOffsetEnd
p405
V106
p406
sVCharacterOffsetBegin
p407
V105
p408
sVPartOfSpeech
p409
VDT
p410
sVLemma
p411
g331
saa(lp412
Vlyric
p413
a(dp414
VNamedEntityTag
p415
g72
sVCharacterOffsetEnd
p416
V112
p417
sVCharacterOffsetBegin
p418
V107
p419
sVPartOfSpeech
p420
VNN
p421
sVLemma
p422
Vlyric
p423
saa(lp424
Vsheet
p425
a(dp426
VNamedEntityTag
p427
g72
sVCharacterOffsetEnd
p428
V118
p429
sVCharacterOffsetBegin
p430
V113
p431
sVPartOfSpeech
p432
VNN
p433
sVLemma
p434
Vsheet
p435
saa(lp436
Vand
p437
a(dp438
VNamedEntityTag
p439
g72
sVCharacterOffsetEnd
p440
V122
p441
sVCharacterOffsetBegin
p442
V119
p443
sVPartOfSpeech
p444
VCC
p445
sVLemma
p446
Vand
p447
saa(lp448
Vhad
p449
a(dp450
VNamedEntityTag
p451
g72
sVCharacterOffsetEnd
p452
V126
p453
sVCharacterOffsetBegin
p454
V123
p455
sVPartOfSpeech
p456
VVBD
p457
sVLemma
p458
Vhave
p459
saa(lp460
g347
a(dp461
VNormalizedNamedEntityTag
p462
V9.0
p463
sVLemma
p464
g347
sVCharacterOffsetEnd
p465
V128
p466
sVPartOfSpeech
p467
VCD
p468
sVCharacterOffsetBegin
p469
V127
p470
sVNamedEntityTag
p471
VNUMBER
p472
saa(lp473
Vsongs
p474
a(dp475
VNamedEntityTag
p476
g72
sVCharacterOffsetEnd
p477
V134
p478
sVCharacterOffsetBegin
p479
V129
p480
sVPartOfSpeech
p481
VNNS
p482
sVLemma
p483
Vsong
p484
saa(lp485
g250
a(dp486
VNamedEntityTag
p487
g72
sVCharacterOffsetEnd
p488
V136
p489
sVCharacterOffsetBegin
p490
V135
p491
sVPartOfSpeech
p492
g250
sVLemma
p493
g250
saasVindexeddependencies
p494
(lp495
(lp496
Vroot
p497
aVROOT-0
p498
aVcame-3
p499
aa(lp500
Vdet
p501
aValbum-2
p502
aVEach-1
p503
aa(lp504
Vnsubj
p505
aVcame-3
p506
aValbum-2
p507
aa(lp508
Vdet
p509
aVsheet-7
p510
aVa-5
p511
aa(lp512
Vnn
p513
aVsheet-7
p514
aVlyric-6
p515
aa(lp516
Vprep_with
p517
aVcame-3
p518
aVsheet-7
p519
aa(lp520
Vconj_and
p521
aVcame-3
p522
aVhad-9
p523
aa(lp524
Vnum
p525
aVsongs-11
p526
aV9-10
p527
aa(lp528
Vdobj
p529
aVhad-9
p530
aVsongs-11
p531
aasa(dp532
Vparsetree
p533
V(ROOT (SBARQ (WHNP (WHADJP (WRB How) (JJ many)) (NNS songs)) (SQ (VBD did) (NP (NNP Janet)) (VP (VB buy) (NP (NN total)))) (. ?)))
p534
sVtext
p535
VHow many songs did Janet buy total ?
p536
sVdependencies
p537
(lp538
(lp539
Vroot
p540
aVROOT
p541
aVbuy
p542
aa(lp543
Vadvmod
p544
aVmany
p545
aVHow
p546
aa(lp547
Vamod
p548
aVsongs
p549
aVmany
p550
aa(lp551
Vdep
p552
aVbuy
p553
aVsongs
p554
aa(lp555
Vaux
p556
aVbuy
p557
aVdid
p558
aa(lp559
Vnsubj
p560
aVbuy
p561
aVJanet
p562
aa(lp563
Vdobj
p564
aVbuy
p565
aVtotal
p566
aasVwords
p567
(lp568
(lp569
VHow
p570
a(dp571
VNamedEntityTag
p572
g72
sVCharacterOffsetEnd
p573
V140
p574
sVCharacterOffsetBegin
p575
V137
p576
sVPartOfSpeech
p577
VWRB
p578
sVLemma
p579
Vhow
p580
saa(lp581
Vmany
p582
a(dp583
VNamedEntityTag
p584
g72
sVCharacterOffsetEnd
p585
V145
p586
sVCharacterOffsetBegin
p587
V141
p588
sVPartOfSpeech
p589
VJJ
p590
sVLemma
p591
Vmany
p592
saa(lp593
Vsongs
p594
a(dp595
VNamedEntityTag
p596
g72
sVCharacterOffsetEnd
p597
V151
p598
sVCharacterOffsetBegin
p599
V146
p600
sVPartOfSpeech
p601
VNNS
p602
sVLemma
p603
Vsong
p604
saa(lp605
Vdid
p606
a(dp607
VNamedEntityTag
p608
g72
sVCharacterOffsetEnd
p609
V155
p610
sVCharacterOffsetBegin
p611
V152
p612
sVPartOfSpeech
p613
VVBD
p614
sVLemma
p615
Vdo
p616
saa(lp617
VJanet
p618
a(dp619
VNamedEntityTag
p620
VPERSON
p621
sVCharacterOffsetEnd
p622
V161
p623
sVCharacterOffsetBegin
p624
V156
p625
sVPartOfSpeech
p626
VNNP
p627
sVLemma
p628
VJanet
p629
saa(lp630
Vbuy
p631
a(dp632
VNamedEntityTag
p633
g72
sVCharacterOffsetEnd
p634
V165
p635
sVCharacterOffsetBegin
p636
V162
p637
sVPartOfSpeech
p638
VVB
p639
sVLemma
p640
Vbuy
p641
saa(lp642
Vtotal
p643
a(dp644
VNamedEntityTag
p645
g72
sVCharacterOffsetEnd
p646
V171
p647
sVCharacterOffsetBegin
p648
V166
p649
sVPartOfSpeech
p650
VNN
p651
sVLemma
p652
Vtotal
p653
saa(lp654
V?
p655
a(dp656
VNamedEntityTag
p657
g72
sVCharacterOffsetEnd
p658
V173
p659
sVCharacterOffsetBegin
p660
V172
p661
sVPartOfSpeech
p662
g250
sVLemma
p663
g655
saasVindexeddependencies
p664
(lp665
(lp666
Vroot
p667
aVROOT-0
p668
aVbuy-6
p669
aa(lp670
Vadvmod
p671
aVmany-2
p672
aVHow-1
p673
aa(lp674
Vamod
p675
aVsongs-3
p676
aVmany-2
p677
aa(lp678
Vdep
p679
aVbuy-6
p680
aVsongs-3
p681
aa(lp682
Vaux
p683
aVbuy-6
p684
aVdid-4
p685
aa(lp686
Vnsubj
p687
aVbuy-6
p688
aVJanet-5
p689
aa(lp690
Vdobj
p691
aVbuy-6
p692
aVtotal-7
p693
aasas.