(dp0
Vsentences
p1
(lp2
(dp3
Vparsetree
p4
V(ROOT (S (NP (EX There)) (VP (VBP are) (NP (NP (CD 32) (NNS students)) (PP (IN in) (NP (DT a) (NN class))))) (. .)))
p5
sVtext
p6
VThere are 32 students in a class .
p7
sVdependencies
p8
(lp9
(lp10
Vroot
p11
aVROOT
p12
aVare
p13
aa(lp14
Vexpl
p15
aVare
p16
aVThere
p17
aa(lp18
Vnum
p19
aVstudents
p20
aV32
p21
aa(lp22
Vnsubj
p23
aVare
p24
aVstudents
p25
aa(lp26
Vdet
p27
aVclass
p28
aVa
p29
aa(lp30
Vprep_in
p31
aVstudents
p32
aVclass
p33
aasVwords
p34
(lp35
(lp36
VThere
p37
a(dp38
VNamedEntityTag
p39
VO
p40
sVCharacterOffsetEnd
p41
V6
p42
sVCharacterOffsetBegin
p43
V1
p44
sVPartOfSpeech
p45
VEX
p46
sVLemma
p47
Vthere
p48
saa(lp49
Vare
p50
a(dp51
VNamedEntityTag
p52
g40
sVCharacterOffsetEnd
p53
V10
p54
sVCharacterOffsetBegin
p55
V7
p56
sVPartOfSpeech
p57
VVBP
p58
sVLemma
p59
Vbe
p60
saa(lp61
V32
p62
a(dp63
VNormalizedNamedEntityTag
p64
V32.0
p65
sVLemma
p66
V32
p67
sVCharacterOffsetEnd
p68
V13
p69
sVPartOfSpeech
p70
VCD
p71
sVCharacterOffsetBegin
p72
V11
p73
sVNamedEntityTag
p74
VNUMBER
p75
saa(lp76
Vstudents
p77
a(dp78
VNamedEntityTag
p79
g40
sVCharacterOffsetEnd
p80
V22
p81
sVCharacterOffsetBegin
p82
V14
p83
sVPartOfSpeech
p84
VNNS
p85
sVLemma
p86
Vstudent
p87
saa(lp88
Vin
p89
a(dp90
VNamedEntityTag
p91
g40
sVCharacterOffsetEnd
p92
V25
p93
sVCharacterOffsetBegin
p94
V23
p95
sVPartOfSpeech
p96
VIN
p97
sVLemma
p98
Vin
p99
saa(lp100
g29
a(dp101
VNamedEntityTag
p102
g40
sVCharacterOffsetEnd
p103
V27
p104
sVCharacterOffsetBegin
p105
V26
p106
sVPartOfSpeech
p107
VDT
p108
sVLemma
p109
g29
saa(lp110
Vclass
p111
a(dp112
VNamedEntityTag
p113
g40
sVCharacterOffsetEnd
p114
V33
p115
sVCharacterOffsetBegin
p116
V28
p117
sVPartOfSpeech
p118
VNN
p119
sVLemma
p120
Vclass
p121
saa(lp122
V.
p123
a(dp124
VNamedEntityTag
p125
g40
sVCharacterOffsetEnd
p126
V35
p127
sVCharacterOffsetBegin
p128
V34
p129
sVPartOfSpeech
p130
g123
sVLemma
p131
g123
saasVindexeddependencies
p132
(lp133
(lp134
Vroot
p135
aVROOT-0
p136
aVare-2
p137
aa(lp138
Vexpl
p139
aVare-2
p140
aVThere-1
p141
aa(lp142
Vnum
p143
aVstudents-4
p144
aV32-3
p145
aa(lp146
Vnsubj
p147
aVare-2
p148
aVstudents-4
p149
aa(lp150
Vdet
p151
aVclass-7
p152
aVa-6
p153
aa(lp154
Vprep_in
p155
aVstudents-4
p156
aVclass-7
p157
aasa(dp158
Vparsetree
p159
V(ROOT (S (NP (NP (CD Nine)) (PP (IN of) (NP (DT those) (NNS students)))) (VP (VBP are) (NP (NNS women))) (. .)))
p160
sVtext
p161
VNine of those students are women .
p162
sVdependencies
p163
(lp164
(lp165
Vroot
p166
aVROOT
p167
aVwomen
p168
aa(lp169
Vnsubj
p170
aVwomen
p171
aVNine
p172
aa(lp173
Vdet
p174
aVstudents
p175
aVthose
p176
aa(lp177
Vprep_of
p178
aVNine
p179
aVstudents
p180
aa(lp181
Vcop
p182
aVwomen
p183
aVare
p184
aasVwords
p185
(lp186
(lp187
VNine
p188
a(dp189
VNormalizedNamedEntityTag
p190
V9.0
p191
sVLemma
p192
Vnine
p193
sVCharacterOffsetEnd
p194
V40
p195
sVPartOfSpeech
p196
VCD
p197
sVCharacterOffsetBegin
p198
V36
p199
sVNamedEntityTag
p200
VNUMBER
p201
saa(lp202
Vof
p203
a(dp204
VNamedEntityTag
p205
g40
sVCharacterOffsetEnd
p206
V43
p207
sVCharacterOffsetBegin
p208
V41
p209
sVPartOfSpeech
p210
VIN
p211
sVLemma
p212
Vof
p213
saa(lp214
Vthose
p215
a(dp216
VNamedEntityTag
p217
g40
sVCharacterOffsetEnd
p218
V49
p219
sVCharacterOffsetBegin
p220
V44
p221
sVPartOfSpeech
p222
VDT
p223
sVLemma
p224
Vthose
p225
saa(lp226
Vstudents
p227
a(dp228
VNamedEntityTag
p229
g40
sVCharacterOffsetEnd
p230
V58
p231
sVCharacterOffsetBegin
p232
V50
p233
sVPartOfSpeech
p234
VNNS
p235
sVLemma
p236
Vstudent
p237
saa(lp238
Vare
p239
a(dp240
VNamedEntityTag
p241
g40
sVCharacterOffsetEnd
p242
V62
p243
sVCharacterOffsetBegin
p244
V59
p245
sVPartOfSpeech
p246
VVBP
p247
sVLemma
p248
Vbe
p249
saa(lp250
Vwomen
p251
a(dp252
VNamedEntityTag
p253
g40
sVCharacterOffsetEnd
p254
V68
p255
sVCharacterOffsetBegin
p256
V63
p257
sVPartOfSpeech
p258
VNNS
p259
sVLemma
p260
Vwoman
p261
saa(lp262
g123
a(dp263
VNamedEntityTag
p264
g40
sVCharacterOffsetEnd
p265
V70
p266
sVCharacterOffsetBegin
p267
V69
p268
sVPartOfSpeech
p269
g123
sVLemma
p270
g123
saasVindexeddependencies
p271
(lp272
(lp273
Vroot
p274
aVROOT-0
p275
aVwomen-6
p276
aa(lp277
Vnsubj
p278
aVwomen-6
p279
aVNine-1
p280
aa(lp281
Vdet
p282
aVstudents-4
p283
aVthose-3
p284
aa(lp285
Vprep_of
p286
aVNine-1
p287
aVstudents-4
p288
aa(lp289
Vcop
p290
aVwomen-6
p291
aVare-5
p292
aasa(dp293
Vparsetree
p294
V(ROOT (SBARQ (WHNP (WDT What) (NNS times)) (SQ (VBP are) (NP (NNS men))) (. ?)))
p295
sVtext
p296
VWhat times are men ?
p297
sVdependencies
p298
(lp299
(lp300
Vroot
p301
aVROOT
p302
aVare
p303
aa(lp304
Vdet
p305
aVtimes
p306
aVWhat
p307
aa(lp308
Vdep
p309
aVare
p310
aVtimes
p311
aa(lp312
Vnsubj
p313
aVare
p314
aVmen
p315
aasVwords
p316
(lp317
(lp318
VWhat
p319
a(dp320
VNamedEntityTag
p321
g40
sVCharacterOffsetEnd
p322
V75
p323
sVCharacterOffsetBegin
p324
V71
p325
sVPartOfSpeech
p326
VWDT
p327
sVLemma
p328
Vwhat
p329
saa(lp330
Vtimes
p331
a(dp332
VNamedEntityTag
p333
g40
sVCharacterOffsetEnd
p334
V81
p335
sVCharacterOffsetBegin
p336
V76
p337
sVPartOfSpeech
p338
VNNS
p339
sVLemma
p340
Vtime
p341
saa(lp342
Vare
p343
a(dp344
VNamedEntityTag
p345
g40
sVCharacterOffsetEnd
p346
V85
p347
sVCharacterOffsetBegin
p348
V82
p349
sVPartOfSpeech
p350
VVBP
p351
sVLemma
p352
Vbe
p353
saa(lp354
Vmen
p355
a(dp356
VNamedEntityTag
p357
g40
sVCharacterOffsetEnd
p358
V89
p359
sVCharacterOffsetBegin
p360
V86
p361
sVPartOfSpeech
p362
VNNS
p363
sVLemma
p364
Vman
p365
saa(lp366
V?
p367
a(dp368
VNamedEntityTag
p369
g40
sVCharacterOffsetEnd
p370
V91
p371
sVCharacterOffsetBegin
p372
V90
p373
sVPartOfSpeech
p374
g123
sVLemma
p375
g367
saasVindexeddependencies
p376
(lp377
(lp378
Vroot
p379
aVROOT-0
p380
aVare-3
p381
aa(lp382
Vdet
p383
aVtimes-2
p384
aVWhat-1
p385
aa(lp386
Vdep
p387
aVare-3
p388
aVtimes-2
p389
aa(lp390
Vnsubj
p391
aVare-3
p392
aVmen-4
p393
aasas.