(dp0
Vcoref
p1
(lp2
(lp3
(lp4
(lp5
VRobert 's
p6
aI2
aI8
aI8
aI10
aa(lp7
VRobert 's
p8
aI0
aI3
aI3
aI5
aaaa(lp9
(lp10
(lp11
Vthe sixth-graders
p12
aI1
aI4
aI3
aI5
aa(lp13
VThe sixth-graders at Robert 's school
p14
aI0
aI1
aI0
aI6
aaaa(lp15
(lp16
(lp17
VRobert 's school
p18
aI2
aI10
aI8
aI11
aa(lp19
VRobert 's school
p20
aI0
aI5
aI3
aI6
aaaa(lp21
(lp22
(lp23
Va field trip
p24
aI0
aI19
aI17
aI20
aa(lp25
Va field trip
p26
aI0
aI12
aI10
aI13
aaa(lp27
(lp28
Vthe trip
p29
aI2
aI18
aI17
aI19
aa(lp30
Va field trip
p31
aI0
aI12
aI10
aI13
aaaa(lp32
(lp33
(lp34
Vthe museum
p35
aI1
aI7
aI6
aI8
aa(lp36
Va museum
p37
aI0
aI15
aI14
aI16
aaa(lp38
(lp39
Vthe museum
p40
aI2
aI21
aI20
aI22
aa(lp41
Va museum
p42
aI0
aI15
aI14
aI16
aaaa(lp43
(lp44
(lp45
Vsixth-graders
p46
aI2
aI14
aI14
aI15
aa(lp47
V80 sixth-graders in all at Robert 's school
p48
aI2
aI4
aI3
aI11
aaaasVsentences
p49
(lp50
(dp51
Vparsetree
p52
V(ROOT (S (NP (NP (DT The) (NNS sixth-graders)) (PP (IN at) (NP (NP (NNP Robert) (POS 's)) (NN school)))) (VP (VBD got) (S (VP (TO to) (VP (VB choose) (PP (IN between) (NP (DT a) (NN field) (NN trip))) (PP (TO to) (NP (NP (DT a) (NN museum)) (CC and) (NP (DT a) (NN field) (NN trip)))) (PP (TO to) (NP (DT a) (NN factory))))))) (. .)))
p53
sVtext
p54
VThe sixth-graders at Robert's school got to choose between a field trip to a museum and a field trip to a factory .
p55
sVdependencies
p56
(lp57
(lp58
Vroot
p59
aVROOT
p60
aVgot
p61
aa(lp62
Vdet
p63
aVsixth-graders
p64
aVThe
p65
aa(lp66
Vnsubj
p67
aVgot
p68
aVsixth-graders
p69
aa(lp70
Vposs
p71
aVschool
p72
aVRobert
p73
aa(lp74
Vprep_at
p75
aVsixth-graders
p76
aVschool
p77
aa(lp78
Vaux
p79
aVchoose
p80
aVto
p81
aa(lp82
Vxcomp
p83
aVgot
p84
aVchoose
p85
aa(lp86
Vdet
p87
aVtrip
p88
aVa
p89
aa(lp90
Vnn
p91
aVtrip
p92
aVfield
p93
aa(lp94
Vprep_between
p95
aVchoose
p96
aVtrip
p97
aa(lp98
Vdet
p99
aVmuseum
p100
ag89
aa(lp101
Vprep_to
p102
aVchoose
p103
aVmuseum
p104
aa(lp105
Vdet
p106
aVtrip
p107
ag89
aa(lp108
Vnn
p109
aVtrip
p110
aVfield
p111
aa(lp112
Vconj_and
p113
aVmuseum
p114
aVtrip
p115
aa(lp116
Vdet
p117
aVfactory
p118
ag89
aa(lp119
Vprep_to
p120
aVchoose
p121
aVfactory
p122
aasVwords
p123
(lp124
(lp125
VThe
p126
a(dp127
VNamedEntityTag
p128
VO
p129
sVCharacterOffsetEnd
p130
V4
p131
sVCharacterOffsetBegin
p132
V1
p133
sVPartOfSpeech
p134
VDT
p135
sVLemma
p136
Vthe
p137
saa(lp138
Vsixth-graders
p139
a(dp140
VNamedEntityTag
p141
g129
sVCharacterOffsetEnd
p142
V18
p143
sVCharacterOffsetBegin
p144
V5
p145
sVPartOfSpeech
p146
VNNS
p147
sVLemma
p148
Vsixth-grader
p149
saa(lp150
Vat
p151
a(dp152
VNamedEntityTag
p153
g129
sVCharacterOffsetEnd
p154
V21
p155
sVCharacterOffsetBegin
p156
V19
p157
sVPartOfSpeech
p158
VIN
p159
sVLemma
p160
Vat
p161
saa(lp162
VRobert
p163
a(dp164
VNamedEntityTag
p165
VPERSON
p166
sVCharacterOffsetEnd
p167
V28
p168
sVCharacterOffsetBegin
p169
V22
p170
sVPartOfSpeech
p171
VNNP
p172
sVLemma
p173
VRobert
p174
saa(lp175
V's
p176
a(dp177
VNamedEntityTag
p178
g129
sVCharacterOffsetEnd
p179
V30
p180
sVCharacterOffsetBegin
p181
V28
p182
sVPartOfSpeech
p183
VPOS
p184
sVLemma
p185
V's
p186
saa(lp187
Vschool
p188
a(dp189
VNamedEntityTag
p190
g129
sVCharacterOffsetEnd
p191
V37
p192
sVCharacterOffsetBegin
p193
V31
p194
sVPartOfSpeech
p195
VNN
p196
sVLemma
p197
Vschool
p198
saa(lp199
Vgot
p200
a(dp201
VNamedEntityTag
p202
g129
sVCharacterOffsetEnd
p203
V41
p204
sVCharacterOffsetBegin
p205
V38
p206
sVPartOfSpeech
p207
VVBD
p208
sVLemma
p209
Vget
p210
saa(lp211
Vto
p212
a(dp213
VNamedEntityTag
p214
g129
sVCharacterOffsetEnd
p215
V44
p216
sVCharacterOffsetBegin
p217
V42
p218
sVPartOfSpeech
p219
VTO
p220
sVLemma
p221
Vto
p222
saa(lp223
Vchoose
p224
a(dp225
VNamedEntityTag
p226
g129
sVCharacterOffsetEnd
p227
V51
p228
sVCharacterOffsetBegin
p229
V45
p230
sVPartOfSpeech
p231
VVB
p232
sVLemma
p233
Vchoose
p234
saa(lp235
Vbetween
p236
a(dp237
VNamedEntityTag
p238
g129
sVCharacterOffsetEnd
p239
V59
p240
sVCharacterOffsetBegin
p241
V52
p242
sVPartOfSpeech
p243
VIN
p244
sVLemma
p245
Vbetween
p246
saa(lp247
g89
a(dp248
VNamedEntityTag
p249
g129
sVCharacterOffsetEnd
p250
V61
p251
sVCharacterOffsetBegin
p252
V60
p253
sVPartOfSpeech
p254
VDT
p255
sVLemma
p256
g89
saa(lp257
Vfield
p258
a(dp259
VNamedEntityTag
p260
g129
sVCharacterOffsetEnd
p261
V67
p262
sVCharacterOffsetBegin
p263
V62
p264
sVPartOfSpeech
p265
VNN
p266
sVLemma
p267
Vfield
p268
saa(lp269
Vtrip
p270
a(dp271
VNamedEntityTag
p272
g129
sVCharacterOffsetEnd
p273
V72
p274
sVCharacterOffsetBegin
p275
V68
p276
sVPartOfSpeech
p277
VNN
p278
sVLemma
p279
Vtrip
p280
saa(lp281
Vto
p282
a(dp283
VNamedEntityTag
p284
g129
sVCharacterOffsetEnd
p285
V75
p286
sVCharacterOffsetBegin
p287
V73
p288
sVPartOfSpeech
p289
VTO
p290
sVLemma
p291
Vto
p292
saa(lp293
g89
a(dp294
VNamedEntityTag
p295
g129
sVCharacterOffsetEnd
p296
V77
p297
sVCharacterOffsetBegin
p298
V76
p299
sVPartOfSpeech
p300
VDT
p301
sVLemma
p302
g89
saa(lp303
Vmuseum
p304
a(dp305
VNamedEntityTag
p306
g129
sVCharacterOffsetEnd
p307
V84
p308
sVCharacterOffsetBegin
p309
V78
p310
sVPartOfSpeech
p311
VNN
p312
sVLemma
p313
Vmuseum
p314
saa(lp315
Vand
p316
a(dp317
VNamedEntityTag
p318
g129
sVCharacterOffsetEnd
p319
V88
p320
sVCharacterOffsetBegin
p321
V85
p322
sVPartOfSpeech
p323
VCC
p324
sVLemma
p325
Vand
p326
saa(lp327
g89
a(dp328
VNamedEntityTag
p329
g129
sVCharacterOffsetEnd
p330
V90
p331
sVCharacterOffsetBegin
p332
V89
p333
sVPartOfSpeech
p334
VDT
p335
sVLemma
p336
g89
saa(lp337
Vfield
p338
a(dp339
VNamedEntityTag
p340
g129
sVCharacterOffsetEnd
p341
V96
p342
sVCharacterOffsetBegin
p343
V91
p344
sVPartOfSpeech
p345
VNN
p346
sVLemma
p347
Vfield
p348
saa(lp349
Vtrip
p350
a(dp351
VNamedEntityTag
p352
g129
sVCharacterOffsetEnd
p353
V101
p354
sVCharacterOffsetBegin
p355
V97
p356
sVPartOfSpeech
p357
VNN
p358
sVLemma
p359
Vtrip
p360
saa(lp361
Vto
p362
a(dp363
VNamedEntityTag
p364
g129
sVCharacterOffsetEnd
p365
V104
p366
sVCharacterOffsetBegin
p367
V102
p368
sVPartOfSpeech
p369
VTO
p370
sVLemma
p371
Vto
p372
saa(lp373
g89
a(dp374
VNamedEntityTag
p375
g129
sVCharacterOffsetEnd
p376
V106
p377
sVCharacterOffsetBegin
p378
V105
p379
sVPartOfSpeech
p380
VDT
p381
sVLemma
p382
g89
saa(lp383
Vfactory
p384
a(dp385
VNamedEntityTag
p386
g129
sVCharacterOffsetEnd
p387
V114
p388
sVCharacterOffsetBegin
p389
V107
p390
sVPartOfSpeech
p391
VNN
p392
sVLemma
p393
Vfactory
p394
saa(lp395
V.
p396
a(dp397
VNamedEntityTag
p398
g129
sVCharacterOffsetEnd
p399
V116
p400
sVCharacterOffsetBegin
p401
V115
p402
sVPartOfSpeech
p403
g396
sVLemma
p404
g396
saasVindexeddependencies
p405
(lp406
(lp407
Vroot
p408
aVROOT-0
p409
aVgot-7
p410
aa(lp411
Vdet
p412
aVsixth-graders-2
p413
aVThe-1
p414
aa(lp415
Vnsubj
p416
aVgot-7
p417
aVsixth-graders-2
p418
aa(lp419
Vposs
p420
aVschool-6
p421
aVRobert-4
p422
aa(lp423
Vprep_at
p424
aVsixth-graders-2
p425
aVschool-6
p426
aa(lp427
Vaux
p428
aVchoose-9
p429
aVto-8
p430
aa(lp431
Vxcomp
p432
aVgot-7
p433
aVchoose-9
p434
aa(lp435
Vdet
p436
aVtrip-13
p437
aVa-11
p438
aa(lp439
Vnn
p440
aVtrip-13
p441
aVfield-12
p442
aa(lp443
Vprep_between
p444
aVchoose-9
p445
aVtrip-13
p446
aa(lp447
Vdet
p448
aVmuseum-16
p449
aVa-15
p450
aa(lp451
Vprep_to
p452
aVchoose-9
p453
aVmuseum-16
p454
aa(lp455
Vdet
p456
aVtrip-20
p457
aVa-18
p458
aa(lp459
Vnn
p460
aVtrip-20
p461
aVfield-19
p462
aa(lp463
Vconj_and
p464
aVmuseum-16
p465
aVtrip-20
p466
aa(lp467
Vdet
p468
aVfactory-23
p469
aVa-22
p470
aa(lp471
Vprep_to
p472
aVchoose-9
p473
aVfactory-23
p474
aasa(dp475
Vparsetree
p476
V(ROOT (S (NP (NP (CD 0.1) (NNS times)) (PP (IN of) (NP (DT the) (NNS sixth-graders)))) (VP (VBD picked) (NP (DT the) (NN museum))) (. .)))
p477
sVtext
p478
V0.1 times of the sixth-graders picked the museum .
p479
sVdependencies
p480
(lp481
(lp482
Vroot
p483
aVROOT
p484
aVpicked
p485
aa(lp486
Vnum
p487
aVtimes
p488
aV0.1
p489
aa(lp490
Vnsubj
p491
aVpicked
p492
aVtimes
p493
aa(lp494
Vdet
p495
aVsixth-graders
p496
aVthe
p497
aa(lp498
Vprep_of
p499
aVtimes
p500
aVsixth-graders
p501
aa(lp502
Vdet
p503
aVmuseum
p504
aVthe
p505
aa(lp506
Vdobj
p507
aVpicked
p508
aVmuseum
p509
aasVwords
p510
(lp511
(lp512
V0.1
p513
a(dp514
VNormalizedNamedEntityTag
p515
V0.1
p516
sVLemma
p517
V0.1
p518
sVCharacterOffsetEnd
p519
V120
p520
sVPartOfSpeech
p521
VCD
p522
sVCharacterOffsetBegin
p523
V117
p524
sVNamedEntityTag
p525
VNUMBER
p526
saa(lp527
Vtimes
p528
a(dp529
VNamedEntityTag
p530
g129
sVCharacterOffsetEnd
p531
V126
p532
sVCharacterOffsetBegin
p533
V121
p534
sVPartOfSpeech
p535
VNNS
p536
sVLemma
p537
Vtime
p538
saa(lp539
Vof
p540
a(dp541
VNamedEntityTag
p542
g129
sVCharacterOffsetEnd
p543
V129
p544
sVCharacterOffsetBegin
p545
V127
p546
sVPartOfSpeech
p547
VIN
p548
sVLemma
p549
Vof
p550
saa(lp551
Vthe
p552
a(dp553
VNamedEntityTag
p554
g129
sVCharacterOffsetEnd
p555
V133
p556
sVCharacterOffsetBegin
p557
V130
p558
sVPartOfSpeech
p559
VDT
p560
sVLemma
p561
Vthe
p562
saa(lp563
Vsixth-graders
p564
a(dp565
VNamedEntityTag
p566
g129
sVCharacterOffsetEnd
p567
V147
p568
sVCharacterOffsetBegin
p569
V134
p570
sVPartOfSpeech
p571
VNNS
p572
sVLemma
p573
Vsixth-grader
p574
saa(lp575
Vpicked
p576
a(dp577
VNamedEntityTag
p578
g129
sVCharacterOffsetEnd
p579
V154
p580
sVCharacterOffsetBegin
p581
V148
p582
sVPartOfSpeech
p583
VVBD
p584
sVLemma
p585
Vpick
p586
saa(lp587
Vthe
p588
a(dp589
VNamedEntityTag
p590
g129
sVCharacterOffsetEnd
p591
V158
p592
sVCharacterOffsetBegin
p593
V155
p594
sVPartOfSpeech
p595
VDT
p596
sVLemma
p597
Vthe
p598
saa(lp599
Vmuseum
p600
a(dp601
VNamedEntityTag
p602
g129
sVCharacterOffsetEnd
p603
V165
p604
sVCharacterOffsetBegin
p605
V159
p606
sVPartOfSpeech
p607
VNN
p608
sVLemma
p609
Vmuseum
p610
saa(lp611
g396
a(dp612
VNamedEntityTag
p613
g129
sVCharacterOffsetEnd
p614
V167
p615
sVCharacterOffsetBegin
p616
V166
p617
sVPartOfSpeech
p618
g396
sVLemma
p619
g396
saasVindexeddependencies
p620
(lp621
(lp622
Vroot
p623
aVROOT-0
p624
aVpicked-6
p625
aa(lp626
Vnum
p627
aVtimes-2
p628
aV0.1-1
p629
aa(lp630
Vnsubj
p631
aVpicked-6
p632
aVtimes-2
p633
aa(lp634
Vdet
p635
aVsixth-graders-5
p636
aVthe-4
p637
aa(lp638
Vprep_of
p639
aVtimes-2
p640
aVsixth-graders-5
p641
aa(lp642
Vdet
p643
aVmuseum-8
p644
aVthe-7
p645
aa(lp646
Vdobj
p647
aVpicked-6
p648
aVmuseum-8
p649
aasa(dp650
Vparsetree
p651
V(ROOT (FRAG (SBAR (IN If) (S (NP (EX there)) (VP (VBP are) (NP (NP (CD 80) (NNS sixth-graders)) (PP (IN in) (NP (NP (DT all)) (PP (IN at) (NP (NP (NNP Robert) (POS 's)) (NN school)))))) (, ,) (SBAR (WHADJP (WRB how) (JJ many)) (S (NP (NNS sixth-graders)) (VP (VBD went) (PP (IN on) (NP (DT the) (NN trip))) (PP (TO to) (NP (DT the) (NN museum))))))))) (. ?)))
p652
sVtext
p653
VIf there are 80 sixth-graders in all at Robert's school , how many sixth-graders went on the trip to the museum ?
p654
sVdependencies
p655
(lp656
(lp657
Vroot
p658
aVROOT
p659
aVare
p660
aa(lp661
Vmark
p662
aVare
p663
aVIf
p664
aa(lp665
Vexpl
p666
aVare
p667
aVthere
p668
aa(lp669
Vnum
p670
aVsixth-graders
p671
aV80
p672
aa(lp673
Vnsubj
p674
aVare
p675
aVsixth-graders
p676
aa(lp677
Vprep_in
p678
aVsixth-graders
p679
aVall
p680
aa(lp681
Vposs
p682
aVschool
p683
aVRobert
p684
aa(lp685
Vprep_at
p686
aVall
p687
aVschool
p688
aa(lp689
Vadvmod
p690
aVmany
p691
aVhow
p692
aa(lp693
Vdep
p694
aVwent
p695
aVmany
p696
aa(lp697
Vnsubj
p698
aVwent
p699
aVsixth-graders
p700
aa(lp701
Vdep
p702
aVare
p703
aVwent
p704
aa(lp705
Vdet
p706
aVtrip
p707
aVthe
p708
aa(lp709
Vprep_on
p710
aVwent
p711
aVtrip
p712
aa(lp713
Vdet
p714
aVmuseum
p715
aVthe
p716
aa(lp717
Vprep_to
p718
aVwent
p719
aVmuseum
p720
aasVwords
p721
(lp722
(lp723
VIf
p724
a(dp725
VNamedEntityTag
p726
g129
sVCharacterOffsetEnd
p727
V170
p728
sVCharacterOffsetBegin
p729
V168
p730
sVPartOfSpeech
p731
VIN
p732
sVLemma
p733
Vif
p734
saa(lp735
Vthere
p736
a(dp737
VNamedEntityTag
p738
g129
sVCharacterOffsetEnd
p739
V176
p740
sVCharacterOffsetBegin
p741
V171
p742
sVPartOfSpeech
p743
VEX
p744
sVLemma
p745
Vthere
p746
saa(lp747
Vare
p748
a(dp749
VNamedEntityTag
p750
g129
sVCharacterOffsetEnd
p751
V180
p752
sVCharacterOffsetBegin
p753
V177
p754
sVPartOfSpeech
p755
VVBP
p756
sVLemma
p757
Vbe
p758
saa(lp759
V80
p760
a(dp761
VNormalizedNamedEntityTag
p762
V80.0
p763
sVLemma
p764
V80
p765
sVCharacterOffsetEnd
p766
V183
p767
sVPartOfSpeech
p768
VCD
p769
sVCharacterOffsetBegin
p770
V181
p771
sVNamedEntityTag
p772
VNUMBER
p773
saa(lp774
Vsixth-graders
p775
a(dp776
VNamedEntityTag
p777
g129
sVCharacterOffsetEnd
p778
V197
p779
sVCharacterOffsetBegin
p780
V184
p781
sVPartOfSpeech
p782
VNNS
p783
sVLemma
p784
Vsixth-grader
p785
saa(lp786
Vin
p787
a(dp788
VNamedEntityTag
p789
g129
sVCharacterOffsetEnd
p790
V200
p791
sVCharacterOffsetBegin
p792
V198
p793
sVPartOfSpeech
p794
VIN
p795
sVLemma
p796
Vin
p797
saa(lp798
Vall
p799
a(dp800
VNamedEntityTag
p801
g129
sVCharacterOffsetEnd
p802
V204
p803
sVCharacterOffsetBegin
p804
V201
p805
sVPartOfSpeech
p806
VDT
p807
sVLemma
p808
Vall
p809
saa(lp810
Vat
p811
a(dp812
VNamedEntityTag
p813
g129
sVCharacterOffsetEnd
p814
V207
p815
sVCharacterOffsetBegin
p816
V205
p817
sVPartOfSpeech
p818
VIN
p819
sVLemma
p820
Vat
p821
saa(lp822
VRobert
p823
a(dp824
VNamedEntityTag
p825
VPERSON
p826
sVCharacterOffsetEnd
p827
V214
p828
sVCharacterOffsetBegin
p829
V208
p830
sVPartOfSpeech
p831
VNNP
p832
sVLemma
p833
VRobert
p834
saa(lp835
V's
p836
a(dp837
VNamedEntityTag
p838
g129
sVCharacterOffsetEnd
p839
V216
p840
sVCharacterOffsetBegin
p841
V214
p842
sVPartOfSpeech
p843
VPOS
p844
sVLemma
p845
V's
p846
saa(lp847
Vschool
p848
a(dp849
VNamedEntityTag
p850
g129
sVCharacterOffsetEnd
p851
V223
p852
sVCharacterOffsetBegin
p853
V217
p854
sVPartOfSpeech
p855
VNN
p856
sVLemma
p857
Vschool
p858
saa(lp859
V,
p860
a(dp861
VNamedEntityTag
p862
g129
sVCharacterOffsetEnd
p863
V225
p864
sVCharacterOffsetBegin
p865
V224
p866
sVPartOfSpeech
p867
g860
sVLemma
p868
g860
saa(lp869
Vhow
p870
a(dp871
VNamedEntityTag
p872
g129
sVCharacterOffsetEnd
p873
V229
p874
sVCharacterOffsetBegin
p875
V226
p876
sVPartOfSpeech
p877
VWRB
p878
sVLemma
p879
Vhow
p880
saa(lp881
Vmany
p882
a(dp883
VNamedEntityTag
p884
g129
sVCharacterOffsetEnd
p885
V234
p886
sVCharacterOffsetBegin
p887
V230
p888
sVPartOfSpeech
p889
VJJ
p890
sVLemma
p891
Vmany
p892
saa(lp893
Vsixth-graders
p894
a(dp895
VNamedEntityTag
p896
g129
sVCharacterOffsetEnd
p897
V248
p898
sVCharacterOffsetBegin
p899
V235
p900
sVPartOfSpeech
p901
VNNS
p902
sVLemma
p903
Vsixth-grader
p904
saa(lp905
Vwent
p906
a(dp907
VNamedEntityTag
p908
g129
sVCharacterOffsetEnd
p909
V253
p910
sVCharacterOffsetBegin
p911
V249
p912
sVPartOfSpeech
p913
VVBD
p914
sVLemma
p915
Vgo
p916
saa(lp917
Von
p918
a(dp919
VNamedEntityTag
p920
g129
sVCharacterOffsetEnd
p921
V256
p922
sVCharacterOffsetBegin
p923
V254
p924
sVPartOfSpeech
p925
VIN
p926
sVLemma
p927
Von
p928
saa(lp929
Vthe
p930
a(dp931
VNamedEntityTag
p932
g129
sVCharacterOffsetEnd
p933
V260
p934
sVCharacterOffsetBegin
p935
V257
p936
sVPartOfSpeech
p937
VDT
p938
sVLemma
p939
Vthe
p940
saa(lp941
Vtrip
p942
a(dp943
VNamedEntityTag
p944
g129
sVCharacterOffsetEnd
p945
V265
p946
sVCharacterOffsetBegin
p947
V261
p948
sVPartOfSpeech
p949
VNN
p950
sVLemma
p951
Vtrip
p952
saa(lp953
Vto
p954
a(dp955
VNamedEntityTag
p956
g129
sVCharacterOffsetEnd
p957
V268
p958
sVCharacterOffsetBegin
p959
V266
p960
sVPartOfSpeech
p961
VTO
p962
sVLemma
p963
Vto
p964
saa(lp965
Vthe
p966
a(dp967
VNamedEntityTag
p968
g129
sVCharacterOffsetEnd
p969
V272
p970
sVCharacterOffsetBegin
p971
V269
p972
sVPartOfSpeech
p973
VDT
p974
sVLemma
p975
Vthe
p976
saa(lp977
Vmuseum
p978
a(dp979
VNamedEntityTag
p980
g129
sVCharacterOffsetEnd
p981
V279
p982
sVCharacterOffsetBegin
p983
V273
p984
sVPartOfSpeech
p985
VNN
p986
sVLemma
p987
Vmuseum
p988
saa(lp989
V?
p990
a(dp991
VNamedEntityTag
p992
g129
sVCharacterOffsetEnd
p993
V281
p994
sVCharacterOffsetBegin
p995
V280
p996
sVPartOfSpeech
p997
g396
sVLemma
p998
g990
saasVindexeddependencies
p999
(lp1000
(lp1001
Vroot
p1002
aVROOT-0
p1003
aVare-3
p1004
aa(lp1005
Vmark
p1006
aVare-3
p1007
aVIf-1
p1008
aa(lp1009
Vexpl
p1010
aVare-3
p1011
aVthere-2
p1012
aa(lp1013
Vnum
p1014
aVsixth-graders-5
p1015
aV80-4
p1016
aa(lp1017
Vnsubj
p1018
aVare-3
p1019
aVsixth-graders-5
p1020
aa(lp1021
Vprep_in
p1022
aVsixth-graders-5
p1023
aVall-7
p1024
aa(lp1025
Vposs
p1026
aVschool-11
p1027
aVRobert-9
p1028
aa(lp1029
Vprep_at
p1030
aVall-7
p1031
aVschool-11
p1032
aa(lp1033
Vadvmod
p1034
aVmany-14
p1035
aVhow-13
p1036
aa(lp1037
Vdep
p1038
aVwent-16
p1039
aVmany-14
p1040
aa(lp1041
Vnsubj
p1042
aVwent-16
p1043
aVsixth-graders-15
p1044
aa(lp1045
Vdep
p1046
aVare-3
p1047
aVwent-16
p1048
aa(lp1049
Vdet
p1050
aVtrip-19
p1051
aVthe-18
p1052
aa(lp1053
Vprep_on
p1054
aVwent-16
p1055
aVtrip-19
p1056
aa(lp1057
Vdet
p1058
aVmuseum-22
p1059
aVthe-21
p1060
aa(lp1061
Vprep_to
p1062
aVwent-16
p1063
aVmuseum-22
p1064
aasas.