(dp0
Vcoref
p1
(lp2
(lp3
(lp4
(lp5
VShe
p6
aI1
aI0
aI0
aI1
aa(lp7
VDina
p8
aI0
aI0
aI0
aI1
aaa(lp9
(lp10
VDina
p11
aI2
aI7
aI7
aI8
aa(lp12
VDina
p13
aI0
aI0
aI0
aI1
aaaasVsentences
p14
(lp15
(dp16
Vparsetree
p17
V(ROOT (S (NP (NNP Dina)) (VP (VBD made) (NP (NNS cookies))) (. .)))
p18
sVtext
p19
VDina made cookies .
p20
sVdependencies
p21
(lp22
(lp23
Vroot
p24
aVROOT
p25
aVmade
p26
aa(lp27
Vnsubj
p28
aVmade
p29
aVDina
p30
aa(lp31
Vdobj
p32
aVmade
p33
aVcookies
p34
aasVwords
p35
(lp36
(lp37
VDina
p38
a(dp39
VNamedEntityTag
p40
VPERSON
p41
sVCharacterOffsetEnd
p42
V5
p43
sVCharacterOffsetBegin
p44
V1
p45
sVPartOfSpeech
p46
VNNP
p47
sVLemma
p48
VDina
p49
saa(lp50
Vmade
p51
a(dp52
VNamedEntityTag
p53
VO
p54
sVCharacterOffsetEnd
p55
V10
p56
sVCharacterOffsetBegin
p57
V6
p58
sVPartOfSpeech
p59
VVBD
p60
sVLemma
p61
Vmake
p62
saa(lp63
Vcookies
p64
a(dp65
VNamedEntityTag
p66
g54
sVCharacterOffsetEnd
p67
V18
p68
sVCharacterOffsetBegin
p69
V11
p70
sVPartOfSpeech
p71
VNNS
p72
sVLemma
p73
Vcookie
p74
saa(lp75
V.
p76
a(dp77
VNamedEntityTag
p78
g54
sVCharacterOffsetEnd
p79
V20
p80
sVCharacterOffsetBegin
p81
V19
p82
sVPartOfSpeech
p83
g76
sVLemma
p84
g76
saasVindexeddependencies
p85
(lp86
(lp87
Vroot
p88
aVROOT-0
p89
aVmade-2
p90
aa(lp91
Vnsubj
p92
aVmade-2
p93
aVDina-1
p94
aa(lp95
Vdobj
p96
aVmade-2
p97
aVcookies-3
p98
aasa(dp99
Vparsetree
p100
V(ROOT (S (NP (PRP She)) (VP (VBD used) (NP (NP (CD 0.625)) (PP (IN of) (NP (NP (NP (DT a) (NN cup)) (PP (IN of) (NP (NN flour)))) (CC and) (NP (NP (CD 0.25)) (PP (IN of) (NP (NP (DT a) (NN cup)) (PP (IN of) (NP (NN sugar)))))))))) (. .)))
p101
sVtext
p102
VShe used 0.625 of a cup of flour and 0.25 of a cup of sugar .
p103
sVdependencies
p104
(lp105
(lp106
Vroot
p107
aVROOT
p108
aVused
p109
aa(lp110
Vnsubj
p111
aVused
p112
aVShe
p113
aa(lp114
Vdobj
p115
aVused
p116
aV0.625
p117
aa(lp118
Vdet
p119
aVcup
p120
aVa
p121
aa(lp122
Vprep_of
p123
aV0.625
p124
aVcup
p125
aa(lp126
Vprep_of
p127
aVcup
p128
aVflour
p129
aa(lp130
Vconj_and
p131
aVcup
p132
aV0.25
p133
aa(lp134
Vdet
p135
aVcup
p136
ag121
aa(lp137
Vprep_of
p138
aV0.25
p139
aVcup
p140
aa(lp141
Vprep_of
p142
aVcup
p143
aVsugar
p144
aasVwords
p145
(lp146
(lp147
VShe
p148
a(dp149
VNamedEntityTag
p150
g54
sVCharacterOffsetEnd
p151
V24
p152
sVCharacterOffsetBegin
p153
V21
p154
sVPartOfSpeech
p155
VPRP
p156
sVLemma
p157
Vshe
p158
saa(lp159
Vused
p160
a(dp161
VNamedEntityTag
p162
g54
sVCharacterOffsetEnd
p163
V29
p164
sVCharacterOffsetBegin
p165
V25
p166
sVPartOfSpeech
p167
VVBD
p168
sVLemma
p169
Vuse
p170
saa(lp171
V0.625
p172
a(dp173
VNormalizedNamedEntityTag
p174
V0.625
p175
sVLemma
p176
V0.625
p177
sVCharacterOffsetEnd
p178
V35
p179
sVPartOfSpeech
p180
VCD
p181
sVCharacterOffsetBegin
p182
V30
p183
sVNamedEntityTag
p184
VNUMBER
p185
saa(lp186
Vof
p187
a(dp188
VNamedEntityTag
p189
g54
sVCharacterOffsetEnd
p190
V38
p191
sVCharacterOffsetBegin
p192
V36
p193
sVPartOfSpeech
p194
VIN
p195
sVLemma
p196
Vof
p197
saa(lp198
g121
a(dp199
VNamedEntityTag
p200
g54
sVCharacterOffsetEnd
p201
V40
p202
sVCharacterOffsetBegin
p203
V39
p204
sVPartOfSpeech
p205
VDT
p206
sVLemma
p207
g121
saa(lp208
Vcup
p209
a(dp210
VNamedEntityTag
p211
g54
sVCharacterOffsetEnd
p212
V44
p213
sVCharacterOffsetBegin
p214
V41
p215
sVPartOfSpeech
p216
VNN
p217
sVLemma
p218
Vcup
p219
saa(lp220
Vof
p221
a(dp222
VNamedEntityTag
p223
g54
sVCharacterOffsetEnd
p224
V47
p225
sVCharacterOffsetBegin
p226
V45
p227
sVPartOfSpeech
p228
VIN
p229
sVLemma
p230
Vof
p231
saa(lp232
Vflour
p233
a(dp234
VNamedEntityTag
p235
g54
sVCharacterOffsetEnd
p236
V53
p237
sVCharacterOffsetBegin
p238
V48
p239
sVPartOfSpeech
p240
VNN
p241
sVLemma
p242
Vflour
p243
saa(lp244
Vand
p245
a(dp246
VNamedEntityTag
p247
g54
sVCharacterOffsetEnd
p248
V57
p249
sVCharacterOffsetBegin
p250
V54
p251
sVPartOfSpeech
p252
VCC
p253
sVLemma
p254
Vand
p255
saa(lp256
V0.25
p257
a(dp258
VNormalizedNamedEntityTag
p259
V0.25
p260
sVLemma
p261
V0.25
p262
sVCharacterOffsetEnd
p263
V62
p264
sVPartOfSpeech
p265
VCD
p266
sVCharacterOffsetBegin
p267
V58
p268
sVNamedEntityTag
p269
VNUMBER
p270
saa(lp271
Vof
p272
a(dp273
VNamedEntityTag
p274
g54
sVCharacterOffsetEnd
p275
V65
p276
sVCharacterOffsetBegin
p277
V63
p278
sVPartOfSpeech
p279
VIN
p280
sVLemma
p281
Vof
p282
saa(lp283
g121
a(dp284
VNamedEntityTag
p285
g54
sVCharacterOffsetEnd
p286
V67
p287
sVCharacterOffsetBegin
p288
V66
p289
sVPartOfSpeech
p290
VDT
p291
sVLemma
p292
g121
saa(lp293
Vcup
p294
a(dp295
VNamedEntityTag
p296
g54
sVCharacterOffsetEnd
p297
V71
p298
sVCharacterOffsetBegin
p299
V68
p300
sVPartOfSpeech
p301
VNN
p302
sVLemma
p303
Vcup
p304
saa(lp305
Vof
p306
a(dp307
VNamedEntityTag
p308
g54
sVCharacterOffsetEnd
p309
V74
p310
sVCharacterOffsetBegin
p311
V72
p312
sVPartOfSpeech
p313
VIN
p314
sVLemma
p315
Vof
p316
saa(lp317
Vsugar
p318
a(dp319
VNamedEntityTag
p320
g54
sVCharacterOffsetEnd
p321
V80
p322
sVCharacterOffsetBegin
p323
V75
p324
sVPartOfSpeech
p325
VNN
p326
sVLemma
p327
Vsugar
p328
saa(lp329
g76
a(dp330
VNamedEntityTag
p331
g54
sVCharacterOffsetEnd
p332
V82
p333
sVCharacterOffsetBegin
p334
V81
p335
sVPartOfSpeech
p336
g76
sVLemma
p337
g76
saasVindexeddependencies
p338
(lp339
(lp340
Vroot
p341
aVROOT-0
p342
aVused-2
p343
aa(lp344
Vnsubj
p345
aVused-2
p346
aVShe-1
p347
aa(lp348
Vdobj
p349
aVused-2
p350
aV0.625-3
p351
aa(lp352
Vdet
p353
aVcup-6
p354
aVa-5
p355
aa(lp356
Vprep_of
p357
aV0.625-3
p358
aVcup-6
p359
aa(lp360
Vprep_of
p361
aVcup-6
p362
aVflour-8
p363
aa(lp364
Vconj_and
p365
aVcup-6
p366
aV0.25-10
p367
aa(lp368
Vdet
p369
aVcup-13
p370
aVa-12
p371
aa(lp372
Vprep_of
p373
aV0.25-10
p374
aVcup-13
p375
aa(lp376
Vprep_of
p377
aVcup-13
p378
aVsugar-15
p379
aasa(dp380
Vparsetree
p381
V(ROOT (SBARQ (WHNP (WHADJP (WHADJP (WRB How) (RB much)) (JJR more)) (NP (NN flour) (PP (IN than) (NP (NN sugar))))) (SQ (VBD did) (NP (NNP Dina)) (VP (VB use))) (. ?)))
p382
sVtext
p383
VHow much more flour than sugar did Dina use ?
p384
sVdependencies
p385
(lp386
(lp387
Vroot
p388
aVROOT
p389
aVuse
p390
aa(lp391
Vadvmod
p392
aVmuch
p393
aVHow
p394
aa(lp395
Vdep
p396
aVmore
p397
aVmuch
p398
aa(lp399
Vamod
p400
aVflour
p401
aVmore
p402
aa(lp403
Vdobj
p404
aVuse
p405
aVflour
p406
aa(lp407
Vprep_than
p408
aVflour
p409
aVsugar
p410
aa(lp411
Vaux
p412
aVuse
p413
aVdid
p414
aa(lp415
Vnsubj
p416
aVuse
p417
aVDina
p418
aasVwords
p419
(lp420
(lp421
VHow
p422
a(dp423
VNamedEntityTag
p424
g54
sVCharacterOffsetEnd
p425
V86
p426
sVCharacterOffsetBegin
p427
V83
p428
sVPartOfSpeech
p429
VWRB
p430
sVLemma
p431
Vhow
p432
saa(lp433
Vmuch
p434
a(dp435
VNamedEntityTag
p436
g54
sVCharacterOffsetEnd
p437
V91
p438
sVCharacterOffsetBegin
p439
V87
p440
sVPartOfSpeech
p441
VRB
p442
sVLemma
p443
Vmuch
p444
saa(lp445
Vmore
p446
a(dp447
VNamedEntityTag
p448
g54
sVCharacterOffsetEnd
p449
V96
p450
sVCharacterOffsetBegin
p451
V92
p452
sVPartOfSpeech
p453
VJJR
p454
sVLemma
p455
Vmore
p456
saa(lp457
Vflour
p458
a(dp459
VNamedEntityTag
p460
g54
sVCharacterOffsetEnd
p461
V102
p462
sVCharacterOffsetBegin
p463
V97
p464
sVPartOfSpeech
p465
VNN
p466
sVLemma
p467
Vflour
p468
saa(lp469
Vthan
p470
a(dp471
VNamedEntityTag
p472
g54
sVCharacterOffsetEnd
p473
V107
p474
sVCharacterOffsetBegin
p475
V103
p476
sVPartOfSpeech
p477
VIN
p478
sVLemma
p479
Vthan
p480
saa(lp481
Vsugar
p482
a(dp483
VNamedEntityTag
p484
g54
sVCharacterOffsetEnd
p485
V113
p486
sVCharacterOffsetBegin
p487
V108
p488
sVPartOfSpeech
p489
VNN
p490
sVLemma
p491
Vsugar
p492
saa(lp493
Vdid
p494
a(dp495
VNamedEntityTag
p496
g54
sVCharacterOffsetEnd
p497
V117
p498
sVCharacterOffsetBegin
p499
V114
p500
sVPartOfSpeech
p501
VVBD
p502
sVLemma
p503
Vdo
p504
saa(lp505
VDina
p506
a(dp507
VNamedEntityTag
p508
VPERSON
p509
sVCharacterOffsetEnd
p510
V122
p511
sVCharacterOffsetBegin
p512
V118
p513
sVPartOfSpeech
p514
VNNP
p515
sVLemma
p516
VDina
p517
saa(lp518
Vuse
p519
a(dp520
VNamedEntityTag
p521
g54
sVCharacterOffsetEnd
p522
V126
p523
sVCharacterOffsetBegin
p524
V123
p525
sVPartOfSpeech
p526
VVB
p527
sVLemma
p528
Vuse
p529
saa(lp530
V?
p531
a(dp532
VNamedEntityTag
p533
g54
sVCharacterOffsetEnd
p534
V128
p535
sVCharacterOffsetBegin
p536
V127
p537
sVPartOfSpeech
p538
g76
sVLemma
p539
g531
saasVindexeddependencies
p540
(lp541
(lp542
Vroot
p543
aVROOT-0
p544
aVuse-9
p545
aa(lp546
Vadvmod
p547
aVmuch-2
p548
aVHow-1
p549
aa(lp550
Vdep
p551
aVmore-3
p552
aVmuch-2
p553
aa(lp554
Vamod
p555
aVflour-4
p556
aVmore-3
p557
aa(lp558
Vdobj
p559
aVuse-9
p560
aVflour-4
p561
aa(lp562
Vprep_than
p563
aVflour-4
p564
aVsugar-6
p565
aa(lp566
Vaux
p567
aVuse-9
p568
aVdid-7
p569
aa(lp570
Vnsubj
p571
aVuse-9
p572
aVDina-8
p573
aasas.