(dp0
Vcoref
p1
(lp2
(lp3
(lp4
(lp5
Vshe
p6
aI1
aI1
aI1
aI2
aa(lp7
VOlivia
p8
aI0
aI0
aI0
aI1
aaa(lp9
(lp10
Vshe
p11
aI1
aI16
aI16
aI17
aa(lp12
VOlivia
p13
aI0
aI0
aI0
aI1
aaaasVsentences
p14
(lp15
(dp16
Vparsetree
p17
V(ROOT (S (NP (NNP Olivia)) (VP (VBD was) (VP (VBG making) (NP (NP (NNS baggies)) (PP (IN of) (NP (NP (NNS cookies)) (PP (IN with) (NP (NP (CD 9) (NNS cookies)) (PP (IN in) (NP (DT each) (NN bag)))))))))) (. .)))
p18
sVtext
p19
VOlivia was making baggies of cookies with 9 cookies in each bag .
p20
sVdependencies
p21
(lp22
(lp23
Vroot
p24
aVROOT
p25
aVmaking
p26
aa(lp27
Vnsubj
p28
aVmaking
p29
aVOlivia
p30
aa(lp31
Vaux
p32
aVmaking
p33
aVwas
p34
aa(lp35
Vdobj
p36
aVmaking
p37
aVbaggies
p38
aa(lp39
Vprep_of
p40
aVbaggies
p41
aVcookies
p42
aa(lp43
Vnum
p44
aVcookies
p45
aV9
p46
aa(lp47
Vprep_with
p48
aVcookies
p49
aVcookies
p50
aa(lp51
Vdet
p52
aVbag
p53
aVeach
p54
aa(lp55
Vprep_in
p56
aVcookies
p57
aVbag
p58
aasVwords
p59
(lp60
(lp61
VOlivia
p62
a(dp63
VNamedEntityTag
p64
VPERSON
p65
sVCharacterOffsetEnd
p66
V7
p67
sVCharacterOffsetBegin
p68
V1
p69
sVPartOfSpeech
p70
VNNP
p71
sVLemma
p72
VOlivia
p73
saa(lp74
Vwas
p75
a(dp76
VNamedEntityTag
p77
VO
p78
sVCharacterOffsetEnd
p79
V11
p80
sVCharacterOffsetBegin
p81
V8
p82
sVPartOfSpeech
p83
VVBD
p84
sVLemma
p85
Vbe
p86
saa(lp87
Vmaking
p88
a(dp89
VNamedEntityTag
p90
g78
sVCharacterOffsetEnd
p91
V18
p92
sVCharacterOffsetBegin
p93
V12
p94
sVPartOfSpeech
p95
VVBG
p96
sVLemma
p97
Vmake
p98
saa(lp99
Vbaggies
p100
a(dp101
VNamedEntityTag
p102
g78
sVCharacterOffsetEnd
p103
V26
p104
sVCharacterOffsetBegin
p105
V19
p106
sVPartOfSpeech
p107
VNNS
p108
sVLemma
p109
Vbaggy
p110
saa(lp111
Vof
p112
a(dp113
VNamedEntityTag
p114
g78
sVCharacterOffsetEnd
p115
V29
p116
sVCharacterOffsetBegin
p117
V27
p118
sVPartOfSpeech
p119
VIN
p120
sVLemma
p121
Vof
p122
saa(lp123
Vcookies
p124
a(dp125
VNamedEntityTag
p126
g78
sVCharacterOffsetEnd
p127
V37
p128
sVCharacterOffsetBegin
p129
V30
p130
sVPartOfSpeech
p131
VNNS
p132
sVLemma
p133
Vcookie
p134
saa(lp135
Vwith
p136
a(dp137
VNamedEntityTag
p138
g78
sVCharacterOffsetEnd
p139
V42
p140
sVCharacterOffsetBegin
p141
V38
p142
sVPartOfSpeech
p143
VIN
p144
sVLemma
p145
Vwith
p146
saa(lp147
g46
a(dp148
VNormalizedNamedEntityTag
p149
V9.0
p150
sVLemma
p151
g46
sVCharacterOffsetEnd
p152
V44
p153
sVPartOfSpeech
p154
VCD
p155
sVCharacterOffsetBegin
p156
V43
p157
sVNamedEntityTag
p158
VNUMBER
p159
saa(lp160
Vcookies
p161
a(dp162
VNamedEntityTag
p163
g78
sVCharacterOffsetEnd
p164
V52
p165
sVCharacterOffsetBegin
p166
V45
p167
sVPartOfSpeech
p168
VNNS
p169
sVLemma
p170
Vcookie
p171
saa(lp172
Vin
p173
a(dp174
VNamedEntityTag
p175
g78
sVCharacterOffsetEnd
p176
V55
p177
sVCharacterOffsetBegin
p178
V53
p179
sVPartOfSpeech
p180
VIN
p181
sVLemma
p182
Vin
p183
saa(lp184
Veach
p185
a(dp186
VNamedEntityTag
p187
g78
sVCharacterOffsetEnd
p188
V60
p189
sVCharacterOffsetBegin
p190
V56
p191
sVPartOfSpeech
p192
VDT
p193
sVLemma
p194
Veach
p195
saa(lp196
Vbag
p197
a(dp198
VNamedEntityTag
p199
g78
sVCharacterOffsetEnd
p200
V64
p201
sVCharacterOffsetBegin
p202
V61
p203
sVPartOfSpeech
p204
VNN
p205
sVLemma
p206
Vbag
p207
saa(lp208
V.
p209
a(dp210
VNamedEntityTag
p211
g78
sVCharacterOffsetEnd
p212
V66
p213
sVCharacterOffsetBegin
p214
V65
p215
sVPartOfSpeech
p216
g209
sVLemma
p217
g209
saasVindexeddependencies
p218
(lp219
(lp220
Vroot
p221
aVROOT-0
p222
aVmaking-3
p223
aa(lp224
Vnsubj
p225
aVmaking-3
p226
aVOlivia-1
p227
aa(lp228
Vaux
p229
aVmaking-3
p230
aVwas-2
p231
aa(lp232
Vdobj
p233
aVmaking-3
p234
aVbaggies-4
p235
aa(lp236
Vprep_of
p237
aVbaggies-4
p238
aVcookies-6
p239
aa(lp240
Vnum
p241
aVcookies-9
p242
aV9-8
p243
aa(lp244
Vprep_with
p245
aVcookies-6
p246
aVcookies-9
p247
aa(lp248
Vdet
p249
aVbag-12
p250
aVeach-11
p251
aa(lp252
Vprep_in
p253
aVcookies-9
p254
aVbag-12
p255
aasa(dp256
Vparsetree
p257
V(ROOT (SBARQ (SBAR (IN If) (S (NP (PRP she)) (VP (VBD had) (NP (NP (CD 13) (NN chocolate) (NN chip) (NNS cookies)) (CC and) (NP (CD 41) (NN oatmeal) (NNS cookies)))))) (, ,) (WHADVP (WRB how) (NP (JJ many) (NNS baggies))) (SQ (MD could) (NP (PRP she)) (VP (VB make))) (. ?)))
p258
sVtext
p259
VIf she had 13 chocolate chip cookies and 41 oatmeal cookies , how many baggies could she make ?
p260
sVdependencies
p261
(lp262
(lp263
Vroot
p264
aVROOT
p265
aVmake
p266
aa(lp267
Vmark
p268
aVhad
p269
aVIf
p270
aa(lp271
Vnsubj
p272
aVhad
p273
aVshe
p274
aa(lp275
Vadvcl
p276
aVmake
p277
aVhad
p278
aa(lp279
Vnum
p280
aVcookies
p281
aV13
p282
aa(lp283
Vnn
p284
aVcookies
p285
aVchocolate
p286
aa(lp287
Vnn
p288
aVcookies
p289
aVchip
p290
aa(lp291
Vdobj
p292
aVhad
p293
aVcookies
p294
aa(lp295
Vnum
p296
aVcookies
p297
aV41
p298
aa(lp299
Vnn
p300
aVcookies
p301
aVoatmeal
p302
aa(lp303
Vconj_and
p304
aVcookies
p305
aVcookies
p306
aa(lp307
Vadvmod
p308
aVmake
p309
aVhow
p310
aa(lp311
Vamod
p312
aVbaggies
p313
aVmany
p314
aa(lp315
Vdep
p316
aVhow
p317
aVbaggies
p318
aa(lp319
Vaux
p320
aVmake
p321
aVcould
p322
aa(lp323
Vnsubj
p324
aVmake
p325
aVshe
p326
aasVwords
p327
(lp328
(lp329
VIf
p330
a(dp331
VNamedEntityTag
p332
g78
sVCharacterOffsetEnd
p333
V69
p334
sVCharacterOffsetBegin
p335
V67
p336
sVPartOfSpeech
p337
VIN
p338
sVLemma
p339
Vif
p340
saa(lp341
Vshe
p342
a(dp343
VNamedEntityTag
p344
g78
sVCharacterOffsetEnd
p345
V73
p346
sVCharacterOffsetBegin
p347
V70
p348
sVPartOfSpeech
p349
VPRP
p350
sVLemma
p351
Vshe
p352
saa(lp353
Vhad
p354
a(dp355
VNamedEntityTag
p356
g78
sVCharacterOffsetEnd
p357
V77
p358
sVCharacterOffsetBegin
p359
V74
p360
sVPartOfSpeech
p361
VVBD
p362
sVLemma
p363
Vhave
p364
saa(lp365
V13
p366
a(dp367
VNormalizedNamedEntityTag
p368
V13.0
p369
sVLemma
p370
V13
p371
sVCharacterOffsetEnd
p372
V80
p373
sVPartOfSpeech
p374
VCD
p375
sVCharacterOffsetBegin
p376
V78
p377
sVNamedEntityTag
p378
VNUMBER
p379
saa(lp380
Vchocolate
p381
a(dp382
VNamedEntityTag
p383
g78
sVCharacterOffsetEnd
p384
V90
p385
sVCharacterOffsetBegin
p386
V81
p387
sVPartOfSpeech
p388
VNN
p389
sVLemma
p390
Vchocolate
p391
saa(lp392
Vchip
p393
a(dp394
VNamedEntityTag
p395
g78
sVCharacterOffsetEnd
p396
V95
p397
sVCharacterOffsetBegin
p398
V91
p399
sVPartOfSpeech
p400
VNN
p401
sVLemma
p402
Vchip
p403
saa(lp404
Vcookies
p405
a(dp406
VNamedEntityTag
p407
g78
sVCharacterOffsetEnd
p408
V103
p409
sVCharacterOffsetBegin
p410
V96
p411
sVPartOfSpeech
p412
VNNS
p413
sVLemma
p414
Vcookie
p415
saa(lp416
Vand
p417
a(dp418
VNamedEntityTag
p419
g78
sVCharacterOffsetEnd
p420
V107
p421
sVCharacterOffsetBegin
p422
V104
p423
sVPartOfSpeech
p424
VCC
p425
sVLemma
p426
Vand
p427
saa(lp428
V41
p429
a(dp430
VNormalizedNamedEntityTag
p431
V41.0
p432
sVLemma
p433
V41
p434
sVCharacterOffsetEnd
p435
V110
p436
sVPartOfSpeech
p437
VCD
p438
sVCharacterOffsetBegin
p439
V108
p440
sVNamedEntityTag
p441
VNUMBER
p442
saa(lp443
Voatmeal
p444
a(dp445
VNamedEntityTag
p446
g78
sVCharacterOffsetEnd
p447
V118
p448
sVCharacterOffsetBegin
p449
V111
p450
sVPartOfSpeech
p451
VNN
p452
sVLemma
p453
Voatmeal
p454
saa(lp455
Vcookies
p456
a(dp457
VNamedEntityTag
p458
g78
sVCharacterOffsetEnd
p459
V126
p460
sVCharacterOffsetBegin
p461
V119
p462
sVPartOfSpeech
p463
VNNS
p464
sVLemma
p465
Vcookie
p466
saa(lp467
V,
p468
a(dp469
VNamedEntityTag
p470
g78
sVCharacterOffsetEnd
p471
V128
p472
sVCharacterOffsetBegin
p473
V127
p474
sVPartOfSpeech
p475
g468
sVLemma
p476
g468
saa(lp477
Vhow
p478
a(dp479
VNamedEntityTag
p480
g78
sVCharacterOffsetEnd
p481
V132
p482
sVCharacterOffsetBegin
p483
V129
p484
sVPartOfSpeech
p485
VWRB
p486
sVLemma
p487
Vhow
p488
saa(lp489
Vmany
p490
a(dp491
VNamedEntityTag
p492
g78
sVCharacterOffsetEnd
p493
V137
p494
sVCharacterOffsetBegin
p495
V133
p496
sVPartOfSpeech
p497
VJJ
p498
sVLemma
p499
Vmany
p500
saa(lp501
Vbaggies
p502
a(dp503
VNamedEntityTag
p504
g78
sVCharacterOffsetEnd
p505
V145
p506
sVCharacterOffsetBegin
p507
V138
p508
sVPartOfSpeech
p509
VNNS
p510
sVLemma
p511
Vbaggy
p512
saa(lp513
Vcould
p514
a(dp515
VNamedEntityTag
p516
g78
sVCharacterOffsetEnd
p517
V151
p518
sVCharacterOffsetBegin
p519
V146
p520
sVPartOfSpeech
p521
VMD
p522
sVLemma
p523
Vcould
p524
saa(lp525
Vshe
p526
a(dp527
VNamedEntityTag
p528
g78
sVCharacterOffsetEnd
p529
V155
p530
sVCharacterOffsetBegin
p531
V152
p532
sVPartOfSpeech
p533
VPRP
p534
sVLemma
p535
Vshe
p536
saa(lp537
Vmake
p538
a(dp539
VNamedEntityTag
p540
g78
sVCharacterOffsetEnd
p541
V160
p542
sVCharacterOffsetBegin
p543
V156
p544
sVPartOfSpeech
p545
VVB
p546
sVLemma
p547
Vmake
p548
saa(lp549
V?
p550
a(dp551
VNamedEntityTag
p552
g78
sVCharacterOffsetEnd
p553
V162
p554
sVCharacterOffsetBegin
p555
V161
p556
sVPartOfSpeech
p557
g209
sVLemma
p558
g550
saasVindexeddependencies
p559
(lp560
(lp561
Vroot
p562
aVROOT-0
p563
aVmake-18
p564
aa(lp565
Vmark
p566
aVhad-3
p567
aVIf-1
p568
aa(lp569
Vnsubj
p570
aVhad-3
p571
aVshe-2
p572
aa(lp573
Vadvcl
p574
aVmake-18
p575
aVhad-3
p576
aa(lp577
Vnum
p578
aVcookies-7
p579
aV13-4
p580
aa(lp581
Vnn
p582
aVcookies-7
p583
aVchocolate-5
p584
aa(lp585
Vnn
p586
aVcookies-7
p587
aVchip-6
p588
aa(lp589
Vdobj
p590
aVhad-3
p591
aVcookies-7
p592
aa(lp593
Vnum
p594
aVcookies-11
p595
aV41-9
p596
aa(lp597
Vnn
p598
aVcookies-11
p599
aVoatmeal-10
p600
aa(lp601
Vconj_and
p602
aVcookies-7
p603
aVcookies-11
p604
aa(lp605
Vadvmod
p606
aVmake-18
p607
aVhow-13
p608
aa(lp609
Vamod
p610
aVbaggies-15
p611
aVmany-14
p612
aa(lp613
Vdep
p614
aVhow-13
p615
aVbaggies-15
p616
aa(lp617
Vaux
p618
aVmake-18
p619
aVcould-16
p620
aa(lp621
Vnsubj
p622
aVmake-18
p623
aVshe-17
p624
aasas.