(dp0
Vcoref
p1
(lp2
(lp3
(lp4
(lp5
Vhe
p6
aI1
aI1
aI1
aI2
aa(lp7
VLuke
p8
aI0
aI0
aI0
aI1
aaa(lp9
(lp10
Vhim
p11
aI1
aI15
aI15
aI16
aa(lp12
VLuke
p13
aI0
aI0
aI0
aI1
aaaasVsentences
p14
(lp15
(dp16
Vparsetree
p17
V(ROOT (S (NP (NNP Luke)) (VP (VBD made) (NP (NP (CD 9) (NNS dollars)) (VP (VBG mowing) (NP (NP (NNS lawns)) (CC and) (NP (CD 18) (NNS dollars) (NN weed) (NN eating)))))) (. .)))
p18
sVtext
p19
VLuke made 9 dollars mowing lawns and 18 dollars weed eating .
p20
sVdependencies
p21
(lp22
(lp23
Vroot
p24
aVROOT
p25
aVmade
p26
aa(lp27
Vnsubj
p28
aVmade
p29
aVLuke
p30
aa(lp31
Vnum
p32
aVdollars
p33
aV9
p34
aa(lp35
Vdobj
p36
aVmade
p37
aVdollars
p38
aa(lp39
Vvmod
p40
aVdollars
p41
aVmowing
p42
aa(lp43
Vdobj
p44
aVmowing
p45
aVlawns
p46
aa(lp47
Vnum
p48
aVeating
p49
aV18
p50
aa(lp51
Vnn
p52
aVeating
p53
aVdollars
p54
aa(lp55
Vnn
p56
aVeating
p57
aVweed
p58
aa(lp59
Vconj_and
p60
aVlawns
p61
aVeating
p62
aasVwords
p63
(lp64
(lp65
VLuke
p66
a(dp67
VNamedEntityTag
p68
VPERSON
p69
sVCharacterOffsetEnd
p70
V5
p71
sVCharacterOffsetBegin
p72
V1
p73
sVPartOfSpeech
p74
VNNP
p75
sVLemma
p76
VLuke
p77
saa(lp78
Vmade
p79
a(dp80
VNamedEntityTag
p81
VO
p82
sVCharacterOffsetEnd
p83
V10
p84
sVCharacterOffsetBegin
p85
V6
p86
sVPartOfSpeech
p87
VVBD
p88
sVLemma
p89
Vmake
p90
saa(lp91
g34
a(dp92
VNormalizedNamedEntityTag
p93
V$9.0
p94
sVLemma
p95
g34
sVCharacterOffsetEnd
p96
V12
p97
sVPartOfSpeech
p98
VCD
p99
sVCharacterOffsetBegin
p100
V11
p101
sVNamedEntityTag
p102
VMONEY
p103
saa(lp104
Vdollars
p105
a(dp106
VNormalizedNamedEntityTag
p107
V$9.0
p108
sVLemma
p109
Vdollar
p110
sVCharacterOffsetEnd
p111
V20
p112
sVPartOfSpeech
p113
VNNS
p114
sVCharacterOffsetBegin
p115
V13
p116
sVNamedEntityTag
p117
VMONEY
p118
saa(lp119
Vmowing
p120
a(dp121
VNamedEntityTag
p122
g82
sVCharacterOffsetEnd
p123
V27
p124
sVCharacterOffsetBegin
p125
V21
p126
sVPartOfSpeech
p127
VVBG
p128
sVLemma
p129
Vmow
p130
saa(lp131
Vlawns
p132
a(dp133
VNamedEntityTag
p134
g82
sVCharacterOffsetEnd
p135
V33
p136
sVCharacterOffsetBegin
p137
V28
p138
sVPartOfSpeech
p139
VNNS
p140
sVLemma
p141
Vlawn
p142
saa(lp143
Vand
p144
a(dp145
VNamedEntityTag
p146
g82
sVCharacterOffsetEnd
p147
V37
p148
sVCharacterOffsetBegin
p149
V34
p150
sVPartOfSpeech
p151
VCC
p152
sVLemma
p153
Vand
p154
saa(lp155
V18
p156
a(dp157
VNormalizedNamedEntityTag
p158
V$18.0
p159
sVLemma
p160
V18
p161
sVCharacterOffsetEnd
p162
V40
p163
sVPartOfSpeech
p164
VCD
p165
sVCharacterOffsetBegin
p166
V38
p167
sVNamedEntityTag
p168
VMONEY
p169
saa(lp170
Vdollars
p171
a(dp172
VNormalizedNamedEntityTag
p173
V$18.0
p174
sVLemma
p175
Vdollar
p176
sVCharacterOffsetEnd
p177
V48
p178
sVPartOfSpeech
p179
VNNS
p180
sVCharacterOffsetBegin
p181
V41
p182
sVNamedEntityTag
p183
VMONEY
p184
saa(lp185
Vweed
p186
a(dp187
VNamedEntityTag
p188
g82
sVCharacterOffsetEnd
p189
V53
p190
sVCharacterOffsetBegin
p191
V49
p192
sVPartOfSpeech
p193
VNN
p194
sVLemma
p195
Vweed
p196
saa(lp197
Veating
p198
a(dp199
VNamedEntityTag
p200
g82
sVCharacterOffsetEnd
p201
V60
p202
sVCharacterOffsetBegin
p203
V54
p204
sVPartOfSpeech
p205
VNN
p206
sVLemma
p207
Veating
p208
saa(lp209
V.
p210
a(dp211
VNamedEntityTag
p212
g82
sVCharacterOffsetEnd
p213
V62
p214
sVCharacterOffsetBegin
p215
V61
p216
sVPartOfSpeech
p217
g210
sVLemma
p218
g210
saasVindexeddependencies
p219
(lp220
(lp221
Vroot
p222
aVROOT-0
p223
aVmade-2
p224
aa(lp225
Vnsubj
p226
aVmade-2
p227
aVLuke-1
p228
aa(lp229
Vnum
p230
aVdollars-4
p231
aV9-3
p232
aa(lp233
Vdobj
p234
aVmade-2
p235
aVdollars-4
p236
aa(lp237
Vvmod
p238
aVdollars-4
p239
aVmowing-5
p240
aa(lp241
Vdobj
p242
aVmowing-5
p243
aVlawns-6
p244
aa(lp245
Vnum
p246
aVeating-11
p247
aV18-8
p248
aa(lp249
Vnn
p250
aVeating-11
p251
aVdollars-9
p252
aa(lp253
Vnn
p254
aVeating-11
p255
aVweed-10
p256
aa(lp257
Vconj_and
p258
aVlawns-6
p259
aVeating-11
p260
aasa(dp261
Vparsetree
p262
V(ROOT (SBARQ (SBAR (IN If) (S (NP (PRP he)) (ADVP (RB only)) (VP (VBD spent) (NP (CD 3) (NN dollar)) (NP-TMP (DT a) (NN week))))) (, ,) (WHADVP (WRB how) (RB long)) (SQ (VP (MD would)) (NP (DT the) (NN money)) (ADVP (JJ last)) (NP (PRP him)) (. ?))))
p263
sVtext
p264
VIf he only spent 3 dollar a week , how long would the money last him ?
p265
sVdependencies
p266
(lp267
(lp268
Vroot
p269
aVROOT
p270
aVwould
p271
aa(lp272
Vmark
p273
aVspent
p274
aVIf
p275
aa(lp276
Vnsubj
p277
aVspent
p278
aVhe
p279
aa(lp280
Vadvmod
p281
aVspent
p282
aVonly
p283
aa(lp284
Vadvcl
p285
aVwould
p286
aVspent
p287
aa(lp288
Vnum
p289
aVdollar
p290
aV3
p291
aa(lp292
Vdobj
p293
aVspent
p294
aVdollar
p295
aa(lp296
Vdet
p297
aVweek
p298
aVa
p299
aa(lp300
Vtmod
p301
aVspent
p302
aVweek
p303
aa(lp304
Vadvmod
p305
aVlong
p306
aVhow
p307
aa(lp308
Vadvmod
p309
aVwould
p310
aVlong
p311
aa(lp312
Vdet
p313
aVmoney
p314
aVthe
p315
aa(lp316
Vdep
p317
aVwould
p318
aVmoney
p319
aa(lp320
Vadvmod
p321
aVwould
p322
aVlast
p323
aa(lp324
Vdep
p325
aVwould
p326
aVhim
p327
aasVwords
p328
(lp329
(lp330
VIf
p331
a(dp332
VNamedEntityTag
p333
g82
sVCharacterOffsetEnd
p334
V65
p335
sVCharacterOffsetBegin
p336
V63
p337
sVPartOfSpeech
p338
VIN
p339
sVLemma
p340
Vif
p341
saa(lp342
Vhe
p343
a(dp344
VNamedEntityTag
p345
g82
sVCharacterOffsetEnd
p346
V68
p347
sVCharacterOffsetBegin
p348
V66
p349
sVPartOfSpeech
p350
VPRP
p351
sVLemma
p352
Vhe
p353
saa(lp354
Vonly
p355
a(dp356
VNamedEntityTag
p357
g82
sVCharacterOffsetEnd
p358
V73
p359
sVCharacterOffsetBegin
p360
V69
p361
sVPartOfSpeech
p362
VRB
p363
sVLemma
p364
Vonly
p365
saa(lp366
Vspent
p367
a(dp368
VNamedEntityTag
p369
g82
sVCharacterOffsetEnd
p370
V79
p371
sVCharacterOffsetBegin
p372
V74
p373
sVPartOfSpeech
p374
VVBD
p375
sVLemma
p376
Vspend
p377
saa(lp378
g291
a(dp379
VNormalizedNamedEntityTag
p380
V$3.0
p381
sVLemma
p382
g291
sVCharacterOffsetEnd
p383
V81
p384
sVPartOfSpeech
p385
VCD
p386
sVCharacterOffsetBegin
p387
V80
p388
sVNamedEntityTag
p389
VMONEY
p390
saa(lp391
Vdollar
p392
a(dp393
VNormalizedNamedEntityTag
p394
V$3.0
p395
sVLemma
p396
Vdollar
p397
sVCharacterOffsetEnd
p398
V88
p399
sVPartOfSpeech
p400
VNN
p401
sVCharacterOffsetBegin
p402
V82
p403
sVNamedEntityTag
p404
VMONEY
p405
saa(lp406
g299
a(dp407
VNormalizedNamedEntityTag
p408
VP1W
p409
sVTimex
p410
V<TIMEX3 tid="t1" type="DURATION" value="P1W">a week</TIMEX3>
p411
sVLemma
p412
g299
sVCharacterOffsetEnd
p413
V90
p414
sVPartOfSpeech
p415
VDT
p416
sVCharacterOffsetBegin
p417
V89
p418
sVNamedEntityTag
p419
VDURATION
p420
saa(lp421
Vweek
p422
a(dp423
VNormalizedNamedEntityTag
p424
VP1W
p425
sVTimex
p426
V<TIMEX3 tid="t1" type="DURATION" value="P1W">a week</TIMEX3>
p427
sVLemma
p428
Vweek
p429
sVCharacterOffsetEnd
p430
V95
p431
sVPartOfSpeech
p432
VNN
p433
sVCharacterOffsetBegin
p434
V91
p435
sVNamedEntityTag
p436
VDURATION
p437
saa(lp438
V,
p439
a(dp440
VNamedEntityTag
p441
g82
sVCharacterOffsetEnd
p442
V97
p443
sVCharacterOffsetBegin
p444
V96
p445
sVPartOfSpeech
p446
g439
sVLemma
p447
g439
saa(lp448
Vhow
p449
a(dp450
VNamedEntityTag
p451
g82
sVCharacterOffsetEnd
p452
V101
p453
sVCharacterOffsetBegin
p454
V98
p455
sVPartOfSpeech
p456
VWRB
p457
sVLemma
p458
Vhow
p459
saa(lp460
Vlong
p461
a(dp462
VNamedEntityTag
p463
g82
sVCharacterOffsetEnd
p464
V106
p465
sVCharacterOffsetBegin
p466
V102
p467
sVPartOfSpeech
p468
VRB
p469
sVLemma
p470
Vlong
p471
saa(lp472
Vwould
p473
a(dp474
VNamedEntityTag
p475
g82
sVCharacterOffsetEnd
p476
V112
p477
sVCharacterOffsetBegin
p478
V107
p479
sVPartOfSpeech
p480
VMD
p481
sVLemma
p482
Vwould
p483
saa(lp484
Vthe
p485
a(dp486
VNamedEntityTag
p487
g82
sVCharacterOffsetEnd
p488
V116
p489
sVCharacterOffsetBegin
p490
V113
p491
sVPartOfSpeech
p492
VDT
p493
sVLemma
p494
Vthe
p495
saa(lp496
Vmoney
p497
a(dp498
VNamedEntityTag
p499
g82
sVCharacterOffsetEnd
p500
V122
p501
sVCharacterOffsetBegin
p502
V117
p503
sVPartOfSpeech
p504
VNN
p505
sVLemma
p506
Vmoney
p507
saa(lp508
Vlast
p509
a(dp510
VNamedEntityTag
p511
g82
sVCharacterOffsetEnd
p512
V127
p513
sVCharacterOffsetBegin
p514
V123
p515
sVPartOfSpeech
p516
VJJ
p517
sVLemma
p518
Vlast
p519
saa(lp520
Vhim
p521
a(dp522
VNamedEntityTag
p523
g82
sVCharacterOffsetEnd
p524
V131
p525
sVCharacterOffsetBegin
p526
V128
p527
sVPartOfSpeech
p528
VPRP
p529
sVLemma
p530
Vhe
p531
saa(lp532
V?
p533
a(dp534
VNamedEntityTag
p535
g82
sVCharacterOffsetEnd
p536
V133
p537
sVCharacterOffsetBegin
p538
V132
p539
sVPartOfSpeech
p540
g210
sVLemma
p541
g533
saasVindexeddependencies
p542
(lp543
(lp544
Vroot
p545
aVROOT-0
p546
aVwould-12
p547
aa(lp548
Vmark
p549
aVspent-4
p550
aVIf-1
p551
aa(lp552
Vnsubj
p553
aVspent-4
p554
aVhe-2
p555
aa(lp556
Vadvmod
p557
aVspent-4
p558
aVonly-3
p559
aa(lp560
Vadvcl
p561
aVwould-12
p562
aVspent-4
p563
aa(lp564
Vnum
p565
aVdollar-6
p566
aV3-5
p567
aa(lp568
Vdobj
p569
aVspent-4
p570
aVdollar-6
p571
aa(lp572
Vdet
p573
aVweek-8
p574
aVa-7
p575
aa(lp576
Vtmod
p577
aVspent-4
p578
aVweek-8
p579
aa(lp580
Vadvmod
p581
aVlong-11
p582
aVhow-10
p583
aa(lp584
Vadvmod
p585
aVwould-12
p586
aVlong-11
p587
aa(lp588
Vdet
p589
aVmoney-14
p590
aVthe-13
p591
aa(lp592
Vdep
p593
aVwould-12
p594
aVmoney-14
p595
aa(lp596
Vadvmod
p597
aVwould-12
p598
aVlast-15
p599
aa(lp600
Vdep
p601
aVwould-12
p602
aVhim-16
p603
aasas.