(dp0
Vcoref
p1
(lp2
(lp3
(lp4
(lp5
Vshe
p6
aI1
aI1
aI1
aI2
aa(lp7
VNancy
p8
aI0
aI2
aI2
aI3
aaa(lp9
(lp10
Vher
p11
aI1
aI14
aI14
aI15
aa(lp12
VNancy
p13
aI0
aI2
aI2
aI3
aaaa(lp14
(lp15
(lp16
Vit
p17
aI1
aI12
aI12
aI13
aa(lp18
V8
p19
aI1
aI4
aI4
aI5
aaaasVsentences
p20
(lp21
(dp22
Vparsetree
p23
V(ROOT (S (PP (IN For) (NP (NN homework))) (NP (NNP Nancy)) (VP (VBD had) (NP (NP (CD 17) (NN math) (NNS problems)) (CC and) (NP (CD 15) (NN spelling) (NNS problems)))) (. .)))
p24
sVtext
p25
VFor homework Nancy had 17 math problems and 15 spelling problems .
p26
sVdependencies
p27
(lp28
(lp29
Vroot
p30
aVROOT
p31
aVhad
p32
aa(lp33
Vprep_for
p34
aVhad
p35
aVhomework
p36
aa(lp37
Vnsubj
p38
aVhad
p39
aVNancy
p40
aa(lp41
Vnum
p42
aVproblems
p43
aV17
p44
aa(lp45
Vnn
p46
aVproblems
p47
aVmath
p48
aa(lp49
Vdobj
p50
aVhad
p51
aVproblems
p52
aa(lp53
Vnum
p54
aVproblems
p55
aV15
p56
aa(lp57
Vnn
p58
aVproblems
p59
aVspelling
p60
aa(lp61
Vconj_and
p62
aVproblems
p63
aVproblems
p64
aasVwords
p65
(lp66
(lp67
VFor
p68
a(dp69
VNamedEntityTag
p70
VO
p71
sVCharacterOffsetEnd
p72
V4
p73
sVCharacterOffsetBegin
p74
V1
p75
sVPartOfSpeech
p76
VIN
p77
sVLemma
p78
Vfor
p79
saa(lp80
Vhomework
p81
a(dp82
VNamedEntityTag
p83
g71
sVCharacterOffsetEnd
p84
V13
p85
sVCharacterOffsetBegin
p86
V5
p87
sVPartOfSpeech
p88
VNN
p89
sVLemma
p90
Vhomework
p91
saa(lp92
VNancy
p93
a(dp94
VNamedEntityTag
p95
VPERSON
p96
sVCharacterOffsetEnd
p97
V19
p98
sVCharacterOffsetBegin
p99
V14
p100
sVPartOfSpeech
p101
VNNP
p102
sVLemma
p103
VNancy
p104
saa(lp105
Vhad
p106
a(dp107
VNamedEntityTag
p108
g71
sVCharacterOffsetEnd
p109
V23
p110
sVCharacterOffsetBegin
p111
V20
p112
sVPartOfSpeech
p113
VVBD
p114
sVLemma
p115
Vhave
p116
saa(lp117
V17
p118
a(dp119
VNormalizedNamedEntityTag
p120
V17.0
p121
sVLemma
p122
V17
p123
sVCharacterOffsetEnd
p124
V26
p125
sVPartOfSpeech
p126
VCD
p127
sVCharacterOffsetBegin
p128
V24
p129
sVNamedEntityTag
p130
VNUMBER
p131
saa(lp132
Vmath
p133
a(dp134
VNamedEntityTag
p135
g71
sVCharacterOffsetEnd
p136
V31
p137
sVCharacterOffsetBegin
p138
V27
p139
sVPartOfSpeech
p140
VNN
p141
sVLemma
p142
Vmath
p143
saa(lp144
Vproblems
p145
a(dp146
VNamedEntityTag
p147
g71
sVCharacterOffsetEnd
p148
V40
p149
sVCharacterOffsetBegin
p150
V32
p151
sVPartOfSpeech
p152
VNNS
p153
sVLemma
p154
Vproblem
p155
saa(lp156
Vand
p157
a(dp158
VNamedEntityTag
p159
g71
sVCharacterOffsetEnd
p160
V44
p161
sVCharacterOffsetBegin
p162
V41
p163
sVPartOfSpeech
p164
VCC
p165
sVLemma
p166
Vand
p167
saa(lp168
V15
p169
a(dp170
VNormalizedNamedEntityTag
p171
V15.0
p172
sVLemma
p173
V15
p174
sVCharacterOffsetEnd
p175
V47
p176
sVPartOfSpeech
p177
VCD
p178
sVCharacterOffsetBegin
p179
V45
p180
sVNamedEntityTag
p181
VNUMBER
p182
saa(lp183
Vspelling
p184
a(dp185
VNamedEntityTag
p186
g71
sVCharacterOffsetEnd
p187
V56
p188
sVCharacterOffsetBegin
p189
V48
p190
sVPartOfSpeech
p191
VNN
p192
sVLemma
p193
Vspelling
p194
saa(lp195
Vproblems
p196
a(dp197
VNamedEntityTag
p198
g71
sVCharacterOffsetEnd
p199
V65
p200
sVCharacterOffsetBegin
p201
V57
p202
sVPartOfSpeech
p203
VNNS
p204
sVLemma
p205
Vproblem
p206
saa(lp207
V.
p208
a(dp209
VNamedEntityTag
p210
g71
sVCharacterOffsetEnd
p211
V67
p212
sVCharacterOffsetBegin
p213
V66
p214
sVPartOfSpeech
p215
g208
sVLemma
p216
g208
saasVindexeddependencies
p217
(lp218
(lp219
Vroot
p220
aVROOT-0
p221
aVhad-4
p222
aa(lp223
Vprep_for
p224
aVhad-4
p225
aVhomework-2
p226
aa(lp227
Vnsubj
p228
aVhad-4
p229
aVNancy-3
p230
aa(lp231
Vnum
p232
aVproblems-7
p233
aV17-5
p234
aa(lp235
Vnn
p236
aVproblems-7
p237
aVmath-6
p238
aa(lp239
Vdobj
p240
aVhad-4
p241
aVproblems-7
p242
aa(lp243
Vnum
p244
aVproblems-11
p245
aV15-9
p246
aa(lp247
Vnn
p248
aVproblems-11
p249
aVspelling-10
p250
aa(lp251
Vconj_and
p252
aVproblems-7
p253
aVproblems-11
p254
aasa(dp255
Vparsetree
p256
V(ROOT (SBAR (IN If) (S (NP (PRP she)) (VP (MD can) (VP (VB finish) (NP (CD 8) (NNS problems)) (PP (IN in) (NP (DT an) (NN hour))) (SBAR (SBARQ (WHNP (WRB how) (RB long)) (SQ (MD will) (NP (PRP it)) (VP (VB take) (S (NP (PRP her)) (VP (TO to) (VP (VB finish) (NP (PDT all) (DT the) (NNS problems))))))) (. ?))))))))
p257
sVtext
p258
VIf she can finish 8 problems in an hour how long will it take her to finish all the problems ?
p259
sVdependencies
p260
(lp261
(lp262
Vroot
p263
aVROOT
p264
aVfinish
p265
aa(lp266
Vmark
p267
aVfinish
p268
aVIf
p269
aa(lp270
Vnsubj
p271
aVfinish
p272
aVshe
p273
aa(lp274
Vaux
p275
aVfinish
p276
aVcan
p277
aa(lp278
Vnum
p279
aVproblems
p280
ag19
aa(lp281
Vdobj
p282
aVfinish
p283
aVproblems
p284
aa(lp285
Vdet
p286
aVhour
p287
aVan
p288
aa(lp289
Vprep_in
p290
aVfinish
p291
aVhour
p292
aa(lp293
Vadvmod
p294
aVlong
p295
aVhow
p296
aa(lp297
Vdep
p298
aVtake
p299
aVlong
p300
aa(lp301
Vaux
p302
aVtake
p303
aVwill
p304
aa(lp305
Vnsubj
p306
aVtake
p307
aVit
p308
aa(lp309
Vdep
p310
aVfinish
p311
aVtake
p312
aa(lp313
Vdobj
p314
aVtake
p315
aVher
p316
aa(lp317
Vaux
p318
aVfinish
p319
aVto
p320
aa(lp321
Vxcomp
p322
aVtake
p323
aVfinish
p324
aa(lp325
Vpredet
p326
aVproblems
p327
aVall
p328
aa(lp329
Vdet
p330
aVproblems
p331
aVthe
p332
aa(lp333
Vdobj
p334
aVfinish
p335
aVproblems
p336
aasVwords
p337
(lp338
(lp339
VIf
p340
a(dp341
VNamedEntityTag
p342
g71
sVCharacterOffsetEnd
p343
V70
p344
sVCharacterOffsetBegin
p345
V68
p346
sVPartOfSpeech
p347
VIN
p348
sVLemma
p349
Vif
p350
saa(lp351
Vshe
p352
a(dp353
VNamedEntityTag
p354
g71
sVCharacterOffsetEnd
p355
V74
p356
sVCharacterOffsetBegin
p357
V71
p358
sVPartOfSpeech
p359
VPRP
p360
sVLemma
p361
Vshe
p362
saa(lp363
Vcan
p364
a(dp365
VNamedEntityTag
p366
g71
sVCharacterOffsetEnd
p367
V78
p368
sVCharacterOffsetBegin
p369
V75
p370
sVPartOfSpeech
p371
VMD
p372
sVLemma
p373
Vcan
p374
saa(lp375
Vfinish
p376
a(dp377
VNamedEntityTag
p378
g71
sVCharacterOffsetEnd
p379
V85
p380
sVCharacterOffsetBegin
p381
V79
p382
sVPartOfSpeech
p383
VVB
p384
sVLemma
p385
Vfinish
p386
saa(lp387
g19
a(dp388
VNormalizedNamedEntityTag
p389
V8.0
p390
sVLemma
p391
g19
sVCharacterOffsetEnd
p392
V87
p393
sVPartOfSpeech
p394
VCD
p395
sVCharacterOffsetBegin
p396
V86
p397
sVNamedEntityTag
p398
VNUMBER
p399
saa(lp400
Vproblems
p401
a(dp402
VNamedEntityTag
p403
g71
sVCharacterOffsetEnd
p404
V96
p405
sVCharacterOffsetBegin
p406
V88
p407
sVPartOfSpeech
p408
VNNS
p409
sVLemma
p410
Vproblem
p411
saa(lp412
Vin
p413
a(dp414
VNamedEntityTag
p415
g71
sVCharacterOffsetEnd
p416
V99
p417
sVCharacterOffsetBegin
p418
V97
p419
sVPartOfSpeech
p420
VIN
p421
sVLemma
p422
Vin
p423
saa(lp424
Van
p425
a(dp426
VNormalizedNamedEntityTag
p427
VPT1H
p428
sVTimex
p429
V<TIMEX3 tid="t1" type="DURATION" value="PT1H">an hour</TIMEX3>
p430
sVLemma
p431
Va
p432
sVCharacterOffsetEnd
p433
V102
p434
sVPartOfSpeech
p435
VDT
p436
sVCharacterOffsetBegin
p437
V100
p438
sVNamedEntityTag
p439
VDURATION
p440
saa(lp441
Vhour
p442
a(dp443
VNormalizedNamedEntityTag
p444
VPT1H
p445
sVTimex
p446
V<TIMEX3 tid="t1" type="DURATION" value="PT1H">an hour</TIMEX3>
p447
sVLemma
p448
Vhour
p449
sVCharacterOffsetEnd
p450
V107
p451
sVPartOfSpeech
p452
VNN
p453
sVCharacterOffsetBegin
p454
V103
p455
sVNamedEntityTag
p456
VDURATION
p457
saa(lp458
Vhow
p459
a(dp460
VNamedEntityTag
p461
g71
sVCharacterOffsetEnd
p462
V111
p463
sVCharacterOffsetBegin
p464
V108
p465
sVPartOfSpeech
p466
VWRB
p467
sVLemma
p468
Vhow
p469
saa(lp470
Vlong
p471
a(dp472
VNamedEntityTag
p473
g71
sVCharacterOffsetEnd
p474
V116
p475
sVCharacterOffsetBegin
p476
V112
p477
sVPartOfSpeech
p478
VRB
p479
sVLemma
p480
Vlong
p481
saa(lp482
Vwill
p483
a(dp484
VNamedEntityTag
p485
g71
sVCharacterOffsetEnd
p486
V121
p487
sVCharacterOffsetBegin
p488
V117
p489
sVPartOfSpeech
p490
VMD
p491
sVLemma
p492
Vwill
p493
saa(lp494
Vit
p495
a(dp496
VNamedEntityTag
p497
g71
sVCharacterOffsetEnd
p498
V124
p499
sVCharacterOffsetBegin
p500
V122
p501
sVPartOfSpeech
p502
VPRP
p503
sVLemma
p504
Vit
p505
saa(lp506
Vtake
p507
a(dp508
VNamedEntityTag
p509
g71
sVCharacterOffsetEnd
p510
V129
p511
sVCharacterOffsetBegin
p512
V125
p513
sVPartOfSpeech
p514
VVB
p515
sVLemma
p516
Vtake
p517
saa(lp518
Vher
p519
a(dp520
VNamedEntityTag
p521
g71
sVCharacterOffsetEnd
p522
V133
p523
sVCharacterOffsetBegin
p524
V130
p525
sVPartOfSpeech
p526
VPRP
p527
sVLemma
p528
Vshe
p529
saa(lp530
Vto
p531
a(dp532
VNamedEntityTag
p533
g71
sVCharacterOffsetEnd
p534
V136
p535
sVCharacterOffsetBegin
p536
V134
p537
sVPartOfSpeech
p538
VTO
p539
sVLemma
p540
Vto
p541
saa(lp542
Vfinish
p543
a(dp544
VNamedEntityTag
p545
g71
sVCharacterOffsetEnd
p546
V143
p547
sVCharacterOffsetBegin
p548
V137
p549
sVPartOfSpeech
p550
VVB
p551
sVLemma
p552
Vfinish
p553
saa(lp554
Vall
p555
a(dp556
VNamedEntityTag
p557
g71
sVCharacterOffsetEnd
p558
V147
p559
sVCharacterOffsetBegin
p560
V144
p561
sVPartOfSpeech
p562
VPDT
p563
sVLemma
p564
Vall
p565
saa(lp566
Vthe
p567
a(dp568
VNamedEntityTag
p569
g71
sVCharacterOffsetEnd
p570
V151
p571
sVCharacterOffsetBegin
p572
V148
p573
sVPartOfSpeech
p574
VDT
p575
sVLemma
p576
Vthe
p577
saa(lp578
Vproblems
p579
a(dp580
VNamedEntityTag
p581
g71
sVCharacterOffsetEnd
p582
V160
p583
sVCharacterOffsetBegin
p584
V152
p585
sVPartOfSpeech
p586
VNNS
p587
sVLemma
p588
Vproblem
p589
saa(lp590
V?
p591
a(dp592
VNamedEntityTag
p593
g71
sVCharacterOffsetEnd
p594
V162
p595
sVCharacterOffsetBegin
p596
V161
p597
sVPartOfSpeech
p598
g208
sVLemma
p599
g591
saasVindexeddependencies
p600
(lp601
(lp602
Vroot
p603
aVROOT-0
p604
aVfinish-4
p605
aa(lp606
Vmark
p607
aVfinish-4
p608
aVIf-1
p609
aa(lp610
Vnsubj
p611
aVfinish-4
p612
aVshe-2
p613
aa(lp614
Vaux
p615
aVfinish-4
p616
aVcan-3
p617
aa(lp618
Vnum
p619
aVproblems-6
p620
aV8-5
p621
aa(lp622
Vdobj
p623
aVfinish-4
p624
aVproblems-6
p625
aa(lp626
Vdet
p627
aVhour-9
p628
aVan-8
p629
aa(lp630
Vprep_in
p631
aVfinish-4
p632
aVhour-9
p633
aa(lp634
Vadvmod
p635
aVlong-11
p636
aVhow-10
p637
aa(lp638
Vdep
p639
aVtake-14
p640
aVlong-11
p641
aa(lp642
Vaux
p643
aVtake-14
p644
aVwill-12
p645
aa(lp646
Vnsubj
p647
aVtake-14
p648
aVit-13
p649
aa(lp650
Vdep
p651
aVfinish-4
p652
aVtake-14
p653
aa(lp654
Vdobj
p655
aVtake-14
p656
aVher-15
p657
aa(lp658
Vaux
p659
aVfinish-17
p660
aVto-16
p661
aa(lp662
Vxcomp
p663
aVtake-14
p664
aVfinish-17
p665
aa(lp666
Vpredet
p667
aVproblems-20
p668
aVall-18
p669
aa(lp670
Vdet
p671
aVproblems-20
p672
aVthe-19
p673
aa(lp674
Vdobj
p675
aVfinish-17
p676
aVproblems-20
p677
aasas.