(dp0
Vcoref
p1
(lp2
(lp3
(lp4
(lp5
Vshe
p6
aI2
aI3
aI3
aI4
aa(lp7
VShe
p8
aI1
aI0
aI0
aI1
aaa(lp9
(lp10
Vshe
p11
aI3
aI4
aI4
aI5
aa(lp12
VShe
p13
aI1
aI0
aI0
aI1
aaaasVsentences
p14
(lp15
(dp16
Vparsetree
p17
V(ROOT (S (PP (IN For) (NP (DT the) (NN school) (S (VP (VB bake) (NP (NN sale)))))) (NP (NNP Paige)) (VP (VBD made) (NP (NNS pastries))) (. .)))
p18
sVtext
p19
VFor the school bake sale Paige made pastries .
p20
sVdependencies
p21
(lp22
(lp23
Vroot
p24
aVROOT
p25
aVmade
p26
aa(lp27
Vdet
p28
aVschool
p29
aVthe
p30
aa(lp31
Vprep_for
p32
aVmade
p33
aVschool
p34
aa(lp35
Vdep
p36
aVschool
p37
aVbake
p38
aa(lp39
Vdobj
p40
aVbake
p41
aVsale
p42
aa(lp43
Vnsubj
p44
aVmade
p45
aVPaige
p46
aa(lp47
Vdobj
p48
aVmade
p49
aVpastries
p50
aasVwords
p51
(lp52
(lp53
VFor
p54
a(dp55
VNamedEntityTag
p56
VO
p57
sVCharacterOffsetEnd
p58
V4
p59
sVCharacterOffsetBegin
p60
V1
p61
sVPartOfSpeech
p62
VIN
p63
sVLemma
p64
Vfor
p65
saa(lp66
Vthe
p67
a(dp68
VNamedEntityTag
p69
g57
sVCharacterOffsetEnd
p70
V8
p71
sVCharacterOffsetBegin
p72
V5
p73
sVPartOfSpeech
p74
VDT
p75
sVLemma
p76
Vthe
p77
saa(lp78
Vschool
p79
a(dp80
VNamedEntityTag
p81
g57
sVCharacterOffsetEnd
p82
V15
p83
sVCharacterOffsetBegin
p84
V9
p85
sVPartOfSpeech
p86
VNN
p87
sVLemma
p88
Vschool
p89
saa(lp90
Vbake
p91
a(dp92
VNamedEntityTag
p93
g57
sVCharacterOffsetEnd
p94
V20
p95
sVCharacterOffsetBegin
p96
V16
p97
sVPartOfSpeech
p98
VVB
p99
sVLemma
p100
Vbake
p101
saa(lp102
Vsale
p103
a(dp104
VNamedEntityTag
p105
g57
sVCharacterOffsetEnd
p106
V25
p107
sVCharacterOffsetBegin
p108
V21
p109
sVPartOfSpeech
p110
VNN
p111
sVLemma
p112
Vsale
p113
saa(lp114
VPaige
p115
a(dp116
VNamedEntityTag
p117
VPERSON
p118
sVCharacterOffsetEnd
p119
V31
p120
sVCharacterOffsetBegin
p121
V26
p122
sVPartOfSpeech
p123
VNNP
p124
sVLemma
p125
VPaige
p126
saa(lp127
Vmade
p128
a(dp129
VNamedEntityTag
p130
g57
sVCharacterOffsetEnd
p131
V36
p132
sVCharacterOffsetBegin
p133
V32
p134
sVPartOfSpeech
p135
VVBD
p136
sVLemma
p137
Vmake
p138
saa(lp139
Vpastries
p140
a(dp141
VNamedEntityTag
p142
g57
sVCharacterOffsetEnd
p143
V45
p144
sVCharacterOffsetBegin
p145
V37
p146
sVPartOfSpeech
p147
VNNS
p148
sVLemma
p149
Vpastry
p150
saa(lp151
V.
p152
a(dp153
VNamedEntityTag
p154
g57
sVCharacterOffsetEnd
p155
V47
p156
sVCharacterOffsetBegin
p157
V46
p158
sVPartOfSpeech
p159
g152
sVLemma
p160
g152
saasVindexeddependencies
p161
(lp162
(lp163
Vroot
p164
aVROOT-0
p165
aVmade-7
p166
aa(lp167
Vdet
p168
aVschool-3
p169
aVthe-2
p170
aa(lp171
Vprep_for
p172
aVmade-7
p173
aVschool-3
p174
aa(lp175
Vdep
p176
aVschool-3
p177
aVbake-4
p178
aa(lp179
Vdobj
p180
aVbake-4
p181
aVsale-5
p182
aa(lp183
Vnsubj
p184
aVmade-7
p185
aVPaige-6
p186
aa(lp187
Vdobj
p188
aVmade-7
p189
aVpastries-8
p190
aasa(dp191
Vparsetree
p192
V(ROOT (S (NP (PRP She)) (VP (JJ baked) (NP (NP (CD 36) (NNS cupcakes)) (CC and) (NP (CD 9) (NNS cookies)))) (. .)))
p193
sVtext
p194
VShe baked 36 cupcakes and 9 cookies .
p195
sVdependencies
p196
(lp197
(lp198
Vroot
p199
aVROOT
p200
aVbaked
p201
aa(lp202
Vnsubj
p203
aVbaked
p204
aVShe
p205
aa(lp206
Vnum
p207
aVcupcakes
p208
aV36
p209
aa(lp210
Vdobj
p211
aVbaked
p212
aVcupcakes
p213
aa(lp214
Vnum
p215
aVcookies
p216
ag85
aa(lp217
Vconj_and
p218
aVcupcakes
p219
aVcookies
p220
aasVwords
p221
(lp222
(lp223
VShe
p224
a(dp225
VNamedEntityTag
p226
g57
sVCharacterOffsetEnd
p227
V51
p228
sVCharacterOffsetBegin
p229
V48
p230
sVPartOfSpeech
p231
VPRP
p232
sVLemma
p233
Vshe
p234
saa(lp235
Vbaked
p236
a(dp237
VNamedEntityTag
p238
g57
sVCharacterOffsetEnd
p239
V57
p240
sVCharacterOffsetBegin
p241
V52
p242
sVPartOfSpeech
p243
VJJ
p244
sVLemma
p245
Vbaked
p246
saa(lp247
V36
p248
a(dp249
VNormalizedNamedEntityTag
p250
V36.0
p251
sVLemma
p252
V36
p253
sVCharacterOffsetEnd
p254
V60
p255
sVPartOfSpeech
p256
VCD
p257
sVCharacterOffsetBegin
p258
V58
p259
sVNamedEntityTag
p260
VNUMBER
p261
saa(lp262
Vcupcakes
p263
a(dp264
VNamedEntityTag
p265
g57
sVCharacterOffsetEnd
p266
V69
p267
sVCharacterOffsetBegin
p268
V61
p269
sVPartOfSpeech
p270
VNNS
p271
sVLemma
p272
Vcupcake
p273
saa(lp274
Vand
p275
a(dp276
VNamedEntityTag
p277
g57
sVCharacterOffsetEnd
p278
V73
p279
sVCharacterOffsetBegin
p280
V70
p281
sVPartOfSpeech
p282
VCC
p283
sVLemma
p284
Vand
p285
saa(lp286
g85
a(dp287
VNormalizedNamedEntityTag
p288
V9.0
p289
sVLemma
p290
g85
sVCharacterOffsetEnd
p291
V75
p292
sVPartOfSpeech
p293
VCD
p294
sVCharacterOffsetBegin
p295
V74
p296
sVNamedEntityTag
p297
VNUMBER
p298
saa(lp299
Vcookies
p300
a(dp301
VNamedEntityTag
p302
g57
sVCharacterOffsetEnd
p303
V83
p304
sVCharacterOffsetBegin
p305
V76
p306
sVPartOfSpeech
p307
VNNS
p308
sVLemma
p309
Vcookie
p310
saa(lp311
g152
a(dp312
VNamedEntityTag
p313
g57
sVCharacterOffsetEnd
p314
V85
p315
sVCharacterOffsetBegin
p316
V84
p317
sVPartOfSpeech
p318
g152
sVLemma
p319
g152
saasVindexeddependencies
p320
(lp321
(lp322
Vroot
p323
aVROOT-0
p324
aVbaked-2
p325
aa(lp326
Vnsubj
p327
aVbaked-2
p328
aVShe-1
p329
aa(lp330
Vnum
p331
aVcupcakes-4
p332
aV36-3
p333
aa(lp334
Vdobj
p335
aVbaked-2
p336
aVcupcakes-4
p337
aa(lp338
Vnum
p339
aVcookies-7
p340
aV9-6
p341
aa(lp342
Vconj_and
p343
aVcupcakes-4
p344
aVcookies-7
p345
aasa(dp346
Vparsetree
p347
V(ROOT (S (PP (IN After) (NP (DT the) (NN sale))) (NP (PRP she)) (VP (VBD had) (NP (CD 4)) (S (VP (TO to) (VP (VB take) (PRT (RP back)) (NP (NN home)))))) (. .)))
p348
sVtext
p349
VAfter the sale she had 4 to take back home .
p350
sVdependencies
p351
(lp352
(lp353
Vroot
p354
aVROOT
p355
aVhad
p356
aa(lp357
Vdet
p358
aVsale
p359
aVthe
p360
aa(lp361
Vprep_after
p362
aVhad
p363
aVsale
p364
aa(lp365
Vnsubj
p366
aVhad
p367
aVshe
p368
aa(lp369
Vdobj
p370
aVhad
p371
ag59
aa(lp372
Vaux
p373
aVtake
p374
aVto
p375
aa(lp376
Vvmod
p377
aVhad
p378
aVtake
p379
aa(lp380
Vprt
p381
aVtake
p382
aVback
p383
aa(lp384
Vdobj
p385
aVtake
p386
aVhome
p387
aasVwords
p388
(lp389
(lp390
VAfter
p391
a(dp392
VNamedEntityTag
p393
g57
sVCharacterOffsetEnd
p394
V91
p395
sVCharacterOffsetBegin
p396
V86
p397
sVPartOfSpeech
p398
VIN
p399
sVLemma
p400
Vafter
p401
saa(lp402
Vthe
p403
a(dp404
VNamedEntityTag
p405
g57
sVCharacterOffsetEnd
p406
V95
p407
sVCharacterOffsetBegin
p408
V92
p409
sVPartOfSpeech
p410
VDT
p411
sVLemma
p412
Vthe
p413
saa(lp414
Vsale
p415
a(dp416
VNamedEntityTag
p417
g57
sVCharacterOffsetEnd
p418
V100
p419
sVCharacterOffsetBegin
p420
V96
p421
sVPartOfSpeech
p422
VNN
p423
sVLemma
p424
Vsale
p425
saa(lp426
Vshe
p427
a(dp428
VNamedEntityTag
p429
g57
sVCharacterOffsetEnd
p430
V104
p431
sVCharacterOffsetBegin
p432
V101
p433
sVPartOfSpeech
p434
VPRP
p435
sVLemma
p436
Vshe
p437
saa(lp438
Vhad
p439
a(dp440
VNamedEntityTag
p441
g57
sVCharacterOffsetEnd
p442
V108
p443
sVCharacterOffsetBegin
p444
V105
p445
sVPartOfSpeech
p446
VVBD
p447
sVLemma
p448
Vhave
p449
saa(lp450
g59
a(dp451
VNormalizedNamedEntityTag
p452
V4.0
p453
sVLemma
p454
g59
sVCharacterOffsetEnd
p455
V110
p456
sVPartOfSpeech
p457
VCD
p458
sVCharacterOffsetBegin
p459
V109
p460
sVNamedEntityTag
p461
VNUMBER
p462
saa(lp463
Vto
p464
a(dp465
VNamedEntityTag
p466
g57
sVCharacterOffsetEnd
p467
V113
p468
sVCharacterOffsetBegin
p469
V111
p470
sVPartOfSpeech
p471
VTO
p472
sVLemma
p473
Vto
p474
saa(lp475
Vtake
p476
a(dp477
VNamedEntityTag
p478
g57
sVCharacterOffsetEnd
p479
V118
p480
sVCharacterOffsetBegin
p481
V114
p482
sVPartOfSpeech
p483
VVB
p484
sVLemma
p485
Vtake
p486
saa(lp487
Vback
p488
a(dp489
VNamedEntityTag
p490
g57
sVCharacterOffsetEnd
p491
V123
p492
sVCharacterOffsetBegin
p493
V119
p494
sVPartOfSpeech
p495
VRP
p496
sVLemma
p497
Vback
p498
saa(lp499
Vhome
p500
a(dp501
VNamedEntityTag
p502
g57
sVCharacterOffsetEnd
p503
V128
p504
sVCharacterOffsetBegin
p505
V124
p506
sVPartOfSpeech
p507
VNN
p508
sVLemma
p509
Vhome
p510
saa(lp511
g152
a(dp512
VNamedEntityTag
p513
g57
sVCharacterOffsetEnd
p514
V130
p515
sVCharacterOffsetBegin
p516
V129
p517
sVPartOfSpeech
p518
g152
sVLemma
p519
g152
saasVindexeddependencies
p520
(lp521
(lp522
Vroot
p523
aVROOT-0
p524
aVhad-5
p525
aa(lp526
Vdet
p527
aVsale-3
p528
aVthe-2
p529
aa(lp530
Vprep_after
p531
aVhad-5
p532
aVsale-3
p533
aa(lp534
Vnsubj
p535
aVhad-5
p536
aVshe-4
p537
aa(lp538
Vdobj
p539
aVhad-5
p540
aV4-6
p541
aa(lp542
Vaux
p543
aVtake-8
p544
aVto-7
p545
aa(lp546
Vvmod
p547
aVhad-5
p548
aVtake-8
p549
aa(lp550
Vprt
p551
aVtake-8
p552
aVback-9
p553
aa(lp554
Vdobj
p555
aVtake-8
p556
aVhome-10
p557
aasa(dp558
Vparsetree
p559
V(ROOT (SBARQ (WHADVP (WRB How) (NP (JJ many) (NNS pastries))) (SQ (VBD did) (NP (PRP she)) (VP (VB sell))) (. ?)))
p560
sVtext
p561
VHow many pastries did she sell ?
p562
sVdependencies
p563
(lp564
(lp565
Vroot
p566
aVROOT
p567
aVsell
p568
aa(lp569
Vadvmod
p570
aVsell
p571
aVHow
p572
aa(lp573
Vamod
p574
aVpastries
p575
aVmany
p576
aa(lp577
Vdep
p578
aVHow
p579
aVpastries
p580
aa(lp581
Vaux
p582
aVsell
p583
aVdid
p584
aa(lp585
Vnsubj
p586
aVsell
p587
aVshe
p588
aasVwords
p589
(lp590
(lp591
VHow
p592
a(dp593
VNamedEntityTag
p594
g57
sVCharacterOffsetEnd
p595
V134
p596
sVCharacterOffsetBegin
p597
V131
p598
sVPartOfSpeech
p599
VWRB
p600
sVLemma
p601
Vhow
p602
saa(lp603
Vmany
p604
a(dp605
VNamedEntityTag
p606
g57
sVCharacterOffsetEnd
p607
V139
p608
sVCharacterOffsetBegin
p609
V135
p610
sVPartOfSpeech
p611
VJJ
p612
sVLemma
p613
Vmany
p614
saa(lp615
Vpastries
p616
a(dp617
VNamedEntityTag
p618
g57
sVCharacterOffsetEnd
p619
V148
p620
sVCharacterOffsetBegin
p621
V140
p622
sVPartOfSpeech
p623
VNNS
p624
sVLemma
p625
Vpastry
p626
saa(lp627
Vdid
p628
a(dp629
VNamedEntityTag
p630
g57
sVCharacterOffsetEnd
p631
V152
p632
sVCharacterOffsetBegin
p633
V149
p634
sVPartOfSpeech
p635
VVBD
p636
sVLemma
p637
Vdo
p638
saa(lp639
Vshe
p640
a(dp641
VNamedEntityTag
p642
g57
sVCharacterOffsetEnd
p643
V156
p644
sVCharacterOffsetBegin
p645
V153
p646
sVPartOfSpeech
p647
VPRP
p648
sVLemma
p649
Vshe
p650
saa(lp651
Vsell
p652
a(dp653
VNamedEntityTag
p654
g57
sVCharacterOffsetEnd
p655
V161
p656
sVCharacterOffsetBegin
p657
V157
p658
sVPartOfSpeech
p659
VVB
p660
sVLemma
p661
Vsell
p662
saa(lp663
V?
p664
a(dp665
VNamedEntityTag
p666
g57
sVCharacterOffsetEnd
p667
V163
p668
sVCharacterOffsetBegin
p669
V162
p670
sVPartOfSpeech
p671
g152
sVLemma
p672
g664
saasVindexeddependencies
p673
(lp674
(lp675
Vroot
p676
aVROOT-0
p677
aVsell-6
p678
aa(lp679
Vadvmod
p680
aVsell-6
p681
aVHow-1
p682
aa(lp683
Vamod
p684
aVpastries-3
p685
aVmany-2
p686
aa(lp687
Vdep
p688
aVHow-1
p689
aVpastries-3
p690
aa(lp691
Vaux
p692
aVsell-6
p693
aVdid-4
p694
aa(lp695
Vnsubj
p696
aVsell-6
p697
aVshe-5
p698
aasas.