(dp0
Vcoref
p1
(lp2
(lp3
(lp4
(lp5
Vthe games
p6
aI1
aI4
aI3
aI5
aa(lp7
V75 games
p8
aI0
aI6
aI5
aI7
aaaa(lp9
(lp10
(lp11
Vthey
p12
aI1
aI6
aI6
aI7
aa(lp13
Vthem
p14
aI0
aI11
aI11
aI12
aaaasVsentences
p15
(lp16
(dp17
Vparsetree
p18
V(ROOT (S (NP (DT The) (NNPS Royals) (NNP softball) (NN team)) (VP (VP (VBD played) (NP-TMP (CD 75) (NNS games))) (CC and) (VP (VBD won) (NP (NP (CD 55)) (PP (IN of) (NP (PRP them)))))) (. .)))
p19
sVtext
p20
VThe Royals softball team played 75 games and won 55 of them .
p21
sVdependencies
p22
(lp23
(lp24
Vroot
p25
aVROOT
p26
aVplayed
p27
aa(lp28
Vdet
p29
aVteam
p30
aVThe
p31
aa(lp32
Vnn
p33
aVteam
p34
aVRoyals
p35
aa(lp36
Vnn
p37
aVteam
p38
aVsoftball
p39
aa(lp40
Vnsubj
p41
aVplayed
p42
aVteam
p43
aa(lp44
Vnum
p45
aVgames
p46
aV75
p47
aa(lp48
Vtmod
p49
aVplayed
p50
aVgames
p51
aa(lp52
Vconj_and
p53
aVplayed
p54
aVwon
p55
aa(lp56
Vdobj
p57
aVwon
p58
aV55
p59
aa(lp60
Vprep_of
p61
aV55
p62
aVthem
p63
aasVwords
p64
(lp65
(lp66
VThe
p67
a(dp68
VNamedEntityTag
p69
VO
p70
sVCharacterOffsetEnd
p71
V4
p72
sVCharacterOffsetBegin
p73
V1
p74
sVPartOfSpeech
p75
VDT
p76
sVLemma
p77
Vthe
p78
saa(lp79
VRoyals
p80
a(dp81
VNamedEntityTag
p82
VORGANIZATION
p83
sVCharacterOffsetEnd
p84
V11
p85
sVCharacterOffsetBegin
p86
V5
p87
sVPartOfSpeech
p88
VNNPS
p89
sVLemma
p90
VRoyals
p91
saa(lp92
Vsoftball
p93
a(dp94
VNamedEntityTag
p95
g70
sVCharacterOffsetEnd
p96
V20
p97
sVCharacterOffsetBegin
p98
V12
p99
sVPartOfSpeech
p100
VNNP
p101
sVLemma
p102
Vsoftball
p103
saa(lp104
Vteam
p105
a(dp106
VNamedEntityTag
p107
g70
sVCharacterOffsetEnd
p108
V25
p109
sVCharacterOffsetBegin
p110
V21
p111
sVPartOfSpeech
p112
VNN
p113
sVLemma
p114
Vteam
p115
saa(lp116
Vplayed
p117
a(dp118
VNamedEntityTag
p119
g70
sVCharacterOffsetEnd
p120
V32
p121
sVCharacterOffsetBegin
p122
V26
p123
sVPartOfSpeech
p124
VVBD
p125
sVLemma
p126
Vplay
p127
saa(lp128
V75
p129
a(dp130
VNormalizedNamedEntityTag
p131
V75.0
p132
sVLemma
p133
V75
p134
sVCharacterOffsetEnd
p135
V35
p136
sVPartOfSpeech
p137
VCD
p138
sVCharacterOffsetBegin
p139
V33
p140
sVNamedEntityTag
p141
VNUMBER
p142
saa(lp143
Vgames
p144
a(dp145
VNamedEntityTag
p146
g70
sVCharacterOffsetEnd
p147
V41
p148
sVCharacterOffsetBegin
p149
V36
p150
sVPartOfSpeech
p151
VNNS
p152
sVLemma
p153
Vgame
p154
saa(lp155
Vand
p156
a(dp157
VNamedEntityTag
p158
g70
sVCharacterOffsetEnd
p159
V45
p160
sVCharacterOffsetBegin
p161
V42
p162
sVPartOfSpeech
p163
VCC
p164
sVLemma
p165
Vand
p166
saa(lp167
Vwon
p168
a(dp169
VNamedEntityTag
p170
g70
sVCharacterOffsetEnd
p171
V49
p172
sVCharacterOffsetBegin
p173
V46
p174
sVPartOfSpeech
p175
VVBD
p176
sVLemma
p177
Vwin
p178
saa(lp179
V55
p180
a(dp181
VNormalizedNamedEntityTag
p182
V55.0
p183
sVLemma
p184
V55
p185
sVCharacterOffsetEnd
p186
V52
p187
sVPartOfSpeech
p188
VCD
p189
sVCharacterOffsetBegin
p190
V50
p191
sVNamedEntityTag
p192
VNUMBER
p193
saa(lp194
Vof
p195
a(dp196
VNamedEntityTag
p197
g70
sVCharacterOffsetEnd
p198
V55
p199
sVCharacterOffsetBegin
p200
V53
p201
sVPartOfSpeech
p202
VIN
p203
sVLemma
p204
Vof
p205
saa(lp206
Vthem
p207
a(dp208
VNamedEntityTag
p209
g70
sVCharacterOffsetEnd
p210
V60
p211
sVCharacterOffsetBegin
p212
V56
p213
sVPartOfSpeech
p214
VPRP
p215
sVLemma
p216
Vthey
p217
saa(lp218
V.
p219
a(dp220
VNamedEntityTag
p221
g70
sVCharacterOffsetEnd
p222
V62
p223
sVCharacterOffsetBegin
p224
V61
p225
sVPartOfSpeech
p226
g219
sVLemma
p227
g219
saasVindexeddependencies
p228
(lp229
(lp230
Vroot
p231
aVROOT-0
p232
aVplayed-5
p233
aa(lp234
Vdet
p235
aVteam-4
p236
aVThe-1
p237
aa(lp238
Vnn
p239
aVteam-4
p240
aVRoyals-2
p241
aa(lp242
Vnn
p243
aVteam-4
p244
aVsoftball-3
p245
aa(lp246
Vnsubj
p247
aVplayed-5
p248
aVteam-4
p249
aa(lp250
Vnum
p251
aVgames-7
p252
aV75-6
p253
aa(lp254
Vtmod
p255
aVplayed-5
p256
aVgames-7
p257
aa(lp258
Vconj_and
p259
aVplayed-5
p260
aVwon-9
p261
aa(lp262
Vdobj
p263
aVwon-9
p264
aV55-10
p265
aa(lp266
Vprep_of
p267
aV55-10
p268
aVthem-12
p269
aasa(dp270
Vparsetree
p271
V(ROOT (SBARQ (WHNP (WHNP (WDT What) (NNS times)) (PP (IN of) (NP (DT the) (NNS games)))) (SQ (VBD did) (NP (PRP they)) (VP (VB lose))) (. ?)))
p272
sVtext
p273
VWhat times of the games did they lose ?
p274
sVdependencies
p275
(lp276
(lp277
Vroot
p278
aVROOT
p279
aVlose
p280
aa(lp281
Vdet
p282
aVtimes
p283
aVWhat
p284
aa(lp285
Vdobj
p286
aVlose
p287
aVtimes
p288
aa(lp289
Vdet
p290
aVgames
p291
aVthe
p292
aa(lp293
Vprep_of
p294
aVtimes
p295
aVgames
p296
aa(lp297
Vaux
p298
aVlose
p299
aVdid
p300
aa(lp301
Vnsubj
p302
aVlose
p303
aVthey
p304
aasVwords
p305
(lp306
(lp307
VWhat
p308
a(dp309
VNamedEntityTag
p310
g70
sVCharacterOffsetEnd
p311
V67
p312
sVCharacterOffsetBegin
p313
V63
p314
sVPartOfSpeech
p315
VWDT
p316
sVLemma
p317
Vwhat
p318
saa(lp319
Vtimes
p320
a(dp321
VNamedEntityTag
p322
g70
sVCharacterOffsetEnd
p323
V73
p324
sVCharacterOffsetBegin
p325
V68
p326
sVPartOfSpeech
p327
VNNS
p328
sVLemma
p329
Vtime
p330
saa(lp331
Vof
p332
a(dp333
VNamedEntityTag
p334
g70
sVCharacterOffsetEnd
p335
V76
p336
sVCharacterOffsetBegin
p337
V74
p338
sVPartOfSpeech
p339
VIN
p340
sVLemma
p341
Vof
p342
saa(lp343
Vthe
p344
a(dp345
VNamedEntityTag
p346
g70
sVCharacterOffsetEnd
p347
V80
p348
sVCharacterOffsetBegin
p349
V77
p350
sVPartOfSpeech
p351
VDT
p352
sVLemma
p353
Vthe
p354
saa(lp355
Vgames
p356
a(dp357
VNamedEntityTag
p358
g70
sVCharacterOffsetEnd
p359
V86
p360
sVCharacterOffsetBegin
p361
V81
p362
sVPartOfSpeech
p363
VNNS
p364
sVLemma
p365
Vgame
p366
saa(lp367
Vdid
p368
a(dp369
VNamedEntityTag
p370
g70
sVCharacterOffsetEnd
p371
V90
p372
sVCharacterOffsetBegin
p373
V87
p374
sVPartOfSpeech
p375
VVBD
p376
sVLemma
p377
Vdo
p378
saa(lp379
Vthey
p380
a(dp381
VNamedEntityTag
p382
g70
sVCharacterOffsetEnd
p383
V95
p384
sVCharacterOffsetBegin
p385
V91
p386
sVPartOfSpeech
p387
VPRP
p388
sVLemma
p389
Vthey
p390
saa(lp391
Vlose
p392
a(dp393
VNamedEntityTag
p394
g70
sVCharacterOffsetEnd
p395
V100
p396
sVCharacterOffsetBegin
p397
V96
p398
sVPartOfSpeech
p399
VVB
p400
sVLemma
p401
Vlose
p402
saa(lp403
V?
p404
a(dp405
VNamedEntityTag
p406
g70
sVCharacterOffsetEnd
p407
V102
p408
sVCharacterOffsetBegin
p409
V101
p410
sVPartOfSpeech
p411
g219
sVLemma
p412
g404
saasVindexeddependencies
p413
(lp414
(lp415
Vroot
p416
aVROOT-0
p417
aVlose-8
p418
aa(lp419
Vdet
p420
aVtimes-2
p421
aVWhat-1
p422
aa(lp423
Vdobj
p424
aVlose-8
p425
aVtimes-2
p426
aa(lp427
Vdet
p428
aVgames-5
p429
aVthe-4
p430
aa(lp431
Vprep_of
p432
aVtimes-2
p433
aVgames-5
p434
aa(lp435
Vaux
p436
aVlose-8
p437
aVdid-6
p438
aa(lp439
Vnsubj
p440
aVlose-8
p441
aVthey-7
p442
aasas.