(dp0
Vsentences
p1
(lp2
(dp3
Vparsetree
p4
V(ROOT (S (PP (IN In) (NP (CD one))) (NP-TMP (NN week)) (, ,) (NP (NP (NNP Mitch) (POS 's)) (NN family)) (VP (VBD drank) (NP (NP (CD 0.5)) (PP (IN of) (NP (NP (NP (DT a) (NN carton)) (PP (IN of) (NP (JJ regular) (NN milk)))) (CC and) (NP (NP (CD 0.1)) (PP (IN of) (NP (NP (DT a) (NN carton)) (PP (IN of) (NP (NN soy) (NN milk)))))))))) (. .)))
p5
sVtext
p6
VIn one week , Mitch's family drank 0.5 of a carton of regular milk and 0.1 of a carton of soy milk .
p7
sVdependencies
p8
(lp9
(lp10
Vroot
p11
aVROOT
p12
aVdrank
p13
aa(lp14
Vprep_in
p15
aVdrank
p16
aVone
p17
aa(lp18
Vtmod
p19
aVdrank
p20
aVweek
p21
aa(lp22
Vposs
p23
aVfamily
p24
aVMitch
p25
aa(lp26
Vnsubj
p27
aVdrank
p28
aVfamily
p29
aa(lp30
Vdobj
p31
aVdrank
p32
aV0.5
p33
aa(lp34
Vdet
p35
aVcarton
p36
aVa
p37
aa(lp38
Vprep_of
p39
aV0.5
p40
aVcarton
p41
aa(lp42
Vamod
p43
aVmilk
p44
aVregular
p45
aa(lp46
Vprep_of
p47
aVcarton
p48
aVmilk
p49
aa(lp50
Vconj_and
p51
aVcarton
p52
aV0.1
p53
aa(lp54
Vdet
p55
aVcarton
p56
ag37
aa(lp57
Vprep_of
p58
aV0.1
p59
aVcarton
p60
aa(lp61
Vnn
p62
aVmilk
p63
aVsoy
p64
aa(lp65
Vprep_of
p66
aVcarton
p67
aVmilk
p68
aasVwords
p69
(lp70
(lp71
VIn
p72
a(dp73
VNamedEntityTag
p74
VO
p75
sVCharacterOffsetEnd
p76
V3
p77
sVCharacterOffsetBegin
p78
V1
p79
sVPartOfSpeech
p80
VIN
p81
sVLemma
p82
Vin
p83
saa(lp84
Vone
p85
a(dp86
VNormalizedNamedEntityTag
p87
VP1W
p88
sVTimex
p89
V<TIMEX3 tid="t1" type="DURATION" value="P1W">one week</TIMEX3>
p90
sVLemma
p91
Vone
p92
sVCharacterOffsetEnd
p93
V7
p94
sVPartOfSpeech
p95
VCD
p96
sVCharacterOffsetBegin
p97
V4
p98
sVNamedEntityTag
p99
VDURATION
p100
saa(lp101
Vweek
p102
a(dp103
VNormalizedNamedEntityTag
p104
VP1W
p105
sVTimex
p106
V<TIMEX3 tid="t1" type="DURATION" value="P1W">one week</TIMEX3>
p107
sVLemma
p108
Vweek
p109
sVCharacterOffsetEnd
p110
V12
p111
sVPartOfSpeech
p112
VNN
p113
sVCharacterOffsetBegin
p114
V8
p115
sVNamedEntityTag
p116
VDURATION
p117
saa(lp118
V,
p119
a(dp120
VNamedEntityTag
p121
g75
sVCharacterOffsetEnd
p122
V14
p123
sVCharacterOffsetBegin
p124
V13
p125
sVPartOfSpeech
p126
g119
sVLemma
p127
g119
saa(lp128
VMitch
p129
a(dp130
VNamedEntityTag
p131
VPERSON
p132
sVCharacterOffsetEnd
p133
V20
p134
sVCharacterOffsetBegin
p135
V15
p136
sVPartOfSpeech
p137
VNNP
p138
sVLemma
p139
VMitch
p140
saa(lp141
V's
p142
a(dp143
VNamedEntityTag
p144
g75
sVCharacterOffsetEnd
p145
V22
p146
sVCharacterOffsetBegin
p147
V20
p148
sVPartOfSpeech
p149
VPOS
p150
sVLemma
p151
V's
p152
saa(lp153
Vfamily
p154
a(dp155
VNamedEntityTag
p156
g75
sVCharacterOffsetEnd
p157
V29
p158
sVCharacterOffsetBegin
p159
V23
p160
sVPartOfSpeech
p161
VNN
p162
sVLemma
p163
Vfamily
p164
saa(lp165
Vdrank
p166
a(dp167
VNamedEntityTag
p168
g75
sVCharacterOffsetEnd
p169
V35
p170
sVCharacterOffsetBegin
p171
V30
p172
sVPartOfSpeech
p173
VVBD
p174
sVLemma
p175
Vdrink
p176
saa(lp177
V0.5
p178
a(dp179
VNormalizedNamedEntityTag
p180
V0.5
p181
sVLemma
p182
V0.5
p183
sVCharacterOffsetEnd
p184
V39
p185
sVPartOfSpeech
p186
VCD
p187
sVCharacterOffsetBegin
p188
V36
p189
sVNamedEntityTag
p190
VNUMBER
p191
saa(lp192
Vof
p193
a(dp194
VNamedEntityTag
p195
g75
sVCharacterOffsetEnd
p196
V42
p197
sVCharacterOffsetBegin
p198
V40
p199
sVPartOfSpeech
p200
VIN
p201
sVLemma
p202
Vof
p203
saa(lp204
g37
a(dp205
VNamedEntityTag
p206
g75
sVCharacterOffsetEnd
p207
V44
p208
sVCharacterOffsetBegin
p209
V43
p210
sVPartOfSpeech
p211
VDT
p212
sVLemma
p213
g37
saa(lp214
Vcarton
p215
a(dp216
VNamedEntityTag
p217
g75
sVCharacterOffsetEnd
p218
V51
p219
sVCharacterOffsetBegin
p220
V45
p221
sVPartOfSpeech
p222
VNN
p223
sVLemma
p224
Vcarton
p225
saa(lp226
Vof
p227
a(dp228
VNamedEntityTag
p229
g75
sVCharacterOffsetEnd
p230
V54
p231
sVCharacterOffsetBegin
p232
V52
p233
sVPartOfSpeech
p234
VIN
p235
sVLemma
p236
Vof
p237
saa(lp238
Vregular
p239
a(dp240
VNamedEntityTag
p241
g75
sVCharacterOffsetEnd
p242
V62
p243
sVCharacterOffsetBegin
p244
V55
p245
sVPartOfSpeech
p246
VJJ
p247
sVLemma
p248
Vregular
p249
saa(lp250
Vmilk
p251
a(dp252
VNamedEntityTag
p253
g75
sVCharacterOffsetEnd
p254
V67
p255
sVCharacterOffsetBegin
p256
V63
p257
sVPartOfSpeech
p258
VNN
p259
sVLemma
p260
Vmilk
p261
saa(lp262
Vand
p263
a(dp264
VNamedEntityTag
p265
g75
sVCharacterOffsetEnd
p266
V71
p267
sVCharacterOffsetBegin
p268
V68
p269
sVPartOfSpeech
p270
VCC
p271
sVLemma
p272
Vand
p273
saa(lp274
V0.1
p275
a(dp276
VNormalizedNamedEntityTag
p277
V0.1
p278
sVLemma
p279
V0.1
p280
sVCharacterOffsetEnd
p281
V75
p282
sVPartOfSpeech
p283
VCD
p284
sVCharacterOffsetBegin
p285
V72
p286
sVNamedEntityTag
p287
VNUMBER
p288
saa(lp289
Vof
p290
a(dp291
VNamedEntityTag
p292
g75
sVCharacterOffsetEnd
p293
V78
p294
sVCharacterOffsetBegin
p295
V76
p296
sVPartOfSpeech
p297
VIN
p298
sVLemma
p299
Vof
p300
saa(lp301
g37
a(dp302
VNamedEntityTag
p303
g75
sVCharacterOffsetEnd
p304
V80
p305
sVCharacterOffsetBegin
p306
V79
p307
sVPartOfSpeech
p308
VDT
p309
sVLemma
p310
g37
saa(lp311
Vcarton
p312
a(dp313
VNamedEntityTag
p314
g75
sVCharacterOffsetEnd
p315
V87
p316
sVCharacterOffsetBegin
p317
V81
p318
sVPartOfSpeech
p319
VNN
p320
sVLemma
p321
Vcarton
p322
saa(lp323
Vof
p324
a(dp325
VNamedEntityTag
p326
g75
sVCharacterOffsetEnd
p327
V90
p328
sVCharacterOffsetBegin
p329
V88
p330
sVPartOfSpeech
p331
VIN
p332
sVLemma
p333
Vof
p334
saa(lp335
Vsoy
p336
a(dp337
VNamedEntityTag
p338
g75
sVCharacterOffsetEnd
p339
V94
p340
sVCharacterOffsetBegin
p341
V91
p342
sVPartOfSpeech
p343
VNN
p344
sVLemma
p345
Vsoy
p346
saa(lp347
Vmilk
p348
a(dp349
VNamedEntityTag
p350
g75
sVCharacterOffsetEnd
p351
V99
p352
sVCharacterOffsetBegin
p353
V95
p354
sVPartOfSpeech
p355
VNN
p356
sVLemma
p357
Vmilk
p358
saa(lp359
V.
p360
a(dp361
VNamedEntityTag
p362
g75
sVCharacterOffsetEnd
p363
V101
p364
sVCharacterOffsetBegin
p365
V100
p366
sVPartOfSpeech
p367
g360
sVLemma
p368
g360
saasVindexeddependencies
p369
(lp370
(lp371
Vroot
p372
aVROOT-0
p373
aVdrank-8
p374
aa(lp375
Vprep_in
p376
aVdrank-8
p377
aVone-2
p378
aa(lp379
Vtmod
p380
aVdrank-8
p381
aVweek-3
p382
aa(lp383
Vposs
p384
aVfamily-7
p385
aVMitch-5
p386
aa(lp387
Vnsubj
p388
aVdrank-8
p389
aVfamily-7
p390
aa(lp391
Vdobj
p392
aVdrank-8
p393
aV0.5-9
p394
aa(lp395
Vdet
p396
aVcarton-12
p397
aVa-11
p398
aa(lp399
Vprep_of
p400
aV0.5-9
p401
aVcarton-12
p402
aa(lp403
Vamod
p404
aVmilk-15
p405
aVregular-14
p406
aa(lp407
Vprep_of
p408
aVcarton-12
p409
aVmilk-15
p410
aa(lp411
Vconj_and
p412
aVcarton-12
p413
aV0.1-17
p414
aa(lp415
Vdet
p416
aVcarton-20
p417
aVa-19
p418
aa(lp419
Vprep_of
p420
aV0.1-17
p421
aVcarton-20
p422
aa(lp423
Vnn
p424
aVmilk-23
p425
aVsoy-22
p426
aa(lp427
Vprep_of
p428
aVcarton-20
p429
aVmilk-23
p430
aasa(dp431
Vparsetree
p432
V(ROOT (SBARQ (WHNP (WHADJP (WRB How) (JJ much)) (NN milk)) (SQ (VBD did) (NP (PRP they)) (VP (VBP drink) (PP (IN in) (NP (DT all))))) (. ?)))
p433
sVtext
p434
VHow much milk did they drink in all ?
p435
sVdependencies
p436
(lp437
(lp438
Vroot
p439
aVROOT
p440
aVdrink
p441
aa(lp442
Vadvmod
p443
aVmuch
p444
aVHow
p445
aa(lp446
Vamod
p447
aVmilk
p448
aVmuch
p449
aa(lp450
Vdobj
p451
aVdrink
p452
aVmilk
p453
aa(lp454
Vaux
p455
aVdrink
p456
aVdid
p457
aa(lp458
Vnsubj
p459
aVdrink
p460
aVthey
p461
aa(lp462
Vprep_in
p463
aVdrink
p464
aVall
p465
aasVwords
p466
(lp467
(lp468
VHow
p469
a(dp470
VNamedEntityTag
p471
g75
sVCharacterOffsetEnd
p472
V105
p473
sVCharacterOffsetBegin
p474
V102
p475
sVPartOfSpeech
p476
VWRB
p477
sVLemma
p478
Vhow
p479
saa(lp480
Vmuch
p481
a(dp482
VNamedEntityTag
p483
g75
sVCharacterOffsetEnd
p484
V110
p485
sVCharacterOffsetBegin
p486
V106
p487
sVPartOfSpeech
p488
VJJ
p489
sVLemma
p490
Vmuch
p491
saa(lp492
Vmilk
p493
a(dp494
VNamedEntityTag
p495
g75
sVCharacterOffsetEnd
p496
V115
p497
sVCharacterOffsetBegin
p498
V111
p499
sVPartOfSpeech
p500
VNN
p501
sVLemma
p502
Vmilk
p503
saa(lp504
Vdid
p505
a(dp506
VNamedEntityTag
p507
g75
sVCharacterOffsetEnd
p508
V119
p509
sVCharacterOffsetBegin
p510
V116
p511
sVPartOfSpeech
p512
VVBD
p513
sVLemma
p514
Vdo
p515
saa(lp516
Vthey
p517
a(dp518
VNamedEntityTag
p519
g75
sVCharacterOffsetEnd
p520
V124
p521
sVCharacterOffsetBegin
p522
V120
p523
sVPartOfSpeech
p524
VPRP
p525
sVLemma
p526
Vthey
p527
saa(lp528
Vdrink
p529
a(dp530
VNamedEntityTag
p531
g75
sVCharacterOffsetEnd
p532
V130
p533
sVCharacterOffsetBegin
p534
V125
p535
sVPartOfSpeech
p536
VVBP
p537
sVLemma
p538
Vdrink
p539
saa(lp540
Vin
p541
a(dp542
VNamedEntityTag
p543
g75
sVCharacterOffsetEnd
p544
V133
p545
sVCharacterOffsetBegin
p546
V131
p547
sVPartOfSpeech
p548
VIN
p549
sVLemma
p550
Vin
p551
saa(lp552
Vall
p553
a(dp554
VNamedEntityTag
p555
g75
sVCharacterOffsetEnd
p556
V137
p557
sVCharacterOffsetBegin
p558
V134
p559
sVPartOfSpeech
p560
VDT
p561
sVLemma
p562
Vall
p563
saa(lp564
V?
p565
a(dp566
VNamedEntityTag
p567
g75
sVCharacterOffsetEnd
p568
V139
p569
sVCharacterOffsetBegin
p570
V138
p571
sVPartOfSpeech
p572
g360
sVLemma
p573
g565
saasVindexeddependencies
p574
(lp575
(lp576
Vroot
p577
aVROOT-0
p578
aVdrink-6
p579
aa(lp580
Vadvmod
p581
aVmuch-2
p582
aVHow-1
p583
aa(lp584
Vamod
p585
aVmilk-3
p586
aVmuch-2
p587
aa(lp588
Vdobj
p589
aVdrink-6
p590
aVmilk-3
p591
aa(lp592
Vaux
p593
aVdrink-6
p594
aVdid-4
p595
aa(lp596
Vnsubj
p597
aVdrink-6
p598
aVthey-5
p599
aa(lp600
Vprep_in
p601
aVdrink-6
p602
aVall-8
p603
aasas.