(dp0
Vcoref
p1
(lp2
(lp3
(lp4
(lp5
Vhe
p6
aI0
aI12
aI12
aI13
aa(lp7
VRoger
p8
aI0
aI0
aI0
aI1
aaa(lp9
(lp10
Vhe
p11
aI1
aI1
aI1
aI2
aa(lp12
VRoger
p13
aI0
aI0
aI0
aI1
aaa(lp14
(lp15
Vhe
p16
aI1
aI21
aI21
aI22
aa(lp17
VRoger
p18
aI0
aI0
aI0
aI1
aaaasVsentences
p19
(lp20
(dp21
Vparsetree
p22
V(ROOT (S (S (NP (NNP Roger)) (VP (VBD was) (VP (VBG helping) (NP (NP (DT the) (NN cafeteria)) (SBAR (S (NP (NNS workers)) (VP (VBP pick) (PRT (RP up)) (NP (NN lunch) (NNS trays))))))))) (, ,) (CC but) (S (NP (PRP he)) (VP (MD could) (ADVP (RB only)) (VP (VB carry) (NP (CD 4) (NNS trays)) (PP (IN at) (NP (DT a) (NN time)))))) (. .)))
p23
sVtext
p24
VRoger was helping the cafeteria workers pick up lunch trays , but he could only carry 4 trays at a time .
p25
sVdependencies
p26
(lp27
(lp28
Vroot
p29
aVROOT
p30
aVhelping
p31
aa(lp32
Vnsubj
p33
aVhelping
p34
aVRoger
p35
aa(lp36
Vaux
p37
aVhelping
p38
aVwas
p39
aa(lp40
Vdet
p41
aVcafeteria
p42
aVthe
p43
aa(lp44
Vdobj
p45
aVhelping
p46
aVcafeteria
p47
aa(lp48
Vnsubj
p49
aVpick
p50
aVworkers
p51
aa(lp52
Vrcmod
p53
aVcafeteria
p54
aVpick
p55
aa(lp56
Vprt
p57
aVpick
p58
aVup
p59
aa(lp60
Vnn
p61
aVtrays
p62
aVlunch
p63
aa(lp64
Vdobj
p65
aVpick
p66
aVtrays
p67
aa(lp68
Vnsubj
p69
aVcarry
p70
aVhe
p71
aa(lp72
Vaux
p73
aVcarry
p74
aVcould
p75
aa(lp76
Vadvmod
p77
aVcarry
p78
aVonly
p79
aa(lp80
Vconj_but
p81
aVhelping
p82
aVcarry
p83
aa(lp84
Vnum
p85
aVtrays
p86
aV4
p87
aa(lp88
Vdobj
p89
aVcarry
p90
aVtrays
p91
aa(lp92
Vdet
p93
aVtime
p94
aVa
p95
aa(lp96
Vprep_at
p97
aVcarry
p98
aVtime
p99
aasVwords
p100
(lp101
(lp102
VRoger
p103
a(dp104
VNamedEntityTag
p105
VPERSON
p106
sVCharacterOffsetEnd
p107
V6
p108
sVCharacterOffsetBegin
p109
V1
p110
sVPartOfSpeech
p111
VNNP
p112
sVLemma
p113
VRoger
p114
saa(lp115
Vwas
p116
a(dp117
VNamedEntityTag
p118
VO
p119
sVCharacterOffsetEnd
p120
V10
p121
sVCharacterOffsetBegin
p122
V7
p123
sVPartOfSpeech
p124
VVBD
p125
sVLemma
p126
Vbe
p127
saa(lp128
Vhelping
p129
a(dp130
VNamedEntityTag
p131
g119
sVCharacterOffsetEnd
p132
V18
p133
sVCharacterOffsetBegin
p134
V11
p135
sVPartOfSpeech
p136
VVBG
p137
sVLemma
p138
Vhelp
p139
saa(lp140
Vthe
p141
a(dp142
VNamedEntityTag
p143
g119
sVCharacterOffsetEnd
p144
V22
p145
sVCharacterOffsetBegin
p146
V19
p147
sVPartOfSpeech
p148
VDT
p149
sVLemma
p150
Vthe
p151
saa(lp152
Vcafeteria
p153
a(dp154
VNamedEntityTag
p155
g119
sVCharacterOffsetEnd
p156
V32
p157
sVCharacterOffsetBegin
p158
V23
p159
sVPartOfSpeech
p160
VNN
p161
sVLemma
p162
Vcafeteria
p163
saa(lp164
Vworkers
p165
a(dp166
VNamedEntityTag
p167
g119
sVCharacterOffsetEnd
p168
V40
p169
sVCharacterOffsetBegin
p170
V33
p171
sVPartOfSpeech
p172
VNNS
p173
sVLemma
p174
Vworker
p175
saa(lp176
Vpick
p177
a(dp178
VNamedEntityTag
p179
g119
sVCharacterOffsetEnd
p180
V45
p181
sVCharacterOffsetBegin
p182
V41
p183
sVPartOfSpeech
p184
VVBP
p185
sVLemma
p186
Vpick
p187
saa(lp188
Vup
p189
a(dp190
VNamedEntityTag
p191
g119
sVCharacterOffsetEnd
p192
V48
p193
sVCharacterOffsetBegin
p194
V46
p195
sVPartOfSpeech
p196
VRP
p197
sVLemma
p198
Vup
p199
saa(lp200
Vlunch
p201
a(dp202
VNamedEntityTag
p203
g119
sVCharacterOffsetEnd
p204
V54
p205
sVCharacterOffsetBegin
p206
V49
p207
sVPartOfSpeech
p208
VNN
p209
sVLemma
p210
Vlunch
p211
saa(lp212
Vtrays
p213
a(dp214
VNamedEntityTag
p215
g119
sVCharacterOffsetEnd
p216
V60
p217
sVCharacterOffsetBegin
p218
V55
p219
sVPartOfSpeech
p220
VNNS
p221
sVLemma
p222
Vtray
p223
saa(lp224
V,
p225
a(dp226
VNamedEntityTag
p227
g119
sVCharacterOffsetEnd
p228
V62
p229
sVCharacterOffsetBegin
p230
V61
p231
sVPartOfSpeech
p232
g225
sVLemma
p233
g225
saa(lp234
Vbut
p235
a(dp236
VNamedEntityTag
p237
g119
sVCharacterOffsetEnd
p238
V66
p239
sVCharacterOffsetBegin
p240
V63
p241
sVPartOfSpeech
p242
VCC
p243
sVLemma
p244
Vbut
p245
saa(lp246
Vhe
p247
a(dp248
VNamedEntityTag
p249
g119
sVCharacterOffsetEnd
p250
V69
p251
sVCharacterOffsetBegin
p252
V67
p253
sVPartOfSpeech
p254
VPRP
p255
sVLemma
p256
Vhe
p257
saa(lp258
Vcould
p259
a(dp260
VNamedEntityTag
p261
g119
sVCharacterOffsetEnd
p262
V75
p263
sVCharacterOffsetBegin
p264
V70
p265
sVPartOfSpeech
p266
VMD
p267
sVLemma
p268
Vcould
p269
saa(lp270
Vonly
p271
a(dp272
VNamedEntityTag
p273
g119
sVCharacterOffsetEnd
p274
V80
p275
sVCharacterOffsetBegin
p276
V76
p277
sVPartOfSpeech
p278
VRB
p279
sVLemma
p280
Vonly
p281
saa(lp282
Vcarry
p283
a(dp284
VNamedEntityTag
p285
g119
sVCharacterOffsetEnd
p286
V86
p287
sVCharacterOffsetBegin
p288
V81
p289
sVPartOfSpeech
p290
VVB
p291
sVLemma
p292
Vcarry
p293
saa(lp294
g87
a(dp295
VNormalizedNamedEntityTag
p296
V4.0
p297
sVLemma
p298
g87
sVCharacterOffsetEnd
p299
V88
p300
sVPartOfSpeech
p301
VCD
p302
sVCharacterOffsetBegin
p303
V87
p304
sVNamedEntityTag
p305
VNUMBER
p306
saa(lp307
Vtrays
p308
a(dp309
VNamedEntityTag
p310
g119
sVCharacterOffsetEnd
p311
V94
p312
sVCharacterOffsetBegin
p313
V89
p314
sVPartOfSpeech
p315
VNNS
p316
sVLemma
p317
Vtray
p318
saa(lp319
Vat
p320
a(dp321
VNamedEntityTag
p322
g119
sVCharacterOffsetEnd
p323
V97
p324
sVCharacterOffsetBegin
p325
V95
p326
sVPartOfSpeech
p327
VIN
p328
sVLemma
p329
Vat
p330
saa(lp331
g95
a(dp332
VNamedEntityTag
p333
g119
sVCharacterOffsetEnd
p334
V99
p335
sVCharacterOffsetBegin
p336
V98
p337
sVPartOfSpeech
p338
VDT
p339
sVLemma
p340
g95
saa(lp341
Vtime
p342
a(dp343
VNamedEntityTag
p344
g119
sVCharacterOffsetEnd
p345
V104
p346
sVCharacterOffsetBegin
p347
V100
p348
sVPartOfSpeech
p349
VNN
p350
sVLemma
p351
Vtime
p352
saa(lp353
V.
p354
a(dp355
VNamedEntityTag
p356
g119
sVCharacterOffsetEnd
p357
V106
p358
sVCharacterOffsetBegin
p359
V105
p360
sVPartOfSpeech
p361
g354
sVLemma
p362
g354
saasVindexeddependencies
p363
(lp364
(lp365
Vroot
p366
aVROOT-0
p367
aVhelping-3
p368
aa(lp369
Vnsubj
p370
aVhelping-3
p371
aVRoger-1
p372
aa(lp373
Vaux
p374
aVhelping-3
p375
aVwas-2
p376
aa(lp377
Vdet
p378
aVcafeteria-5
p379
aVthe-4
p380
aa(lp381
Vdobj
p382
aVhelping-3
p383
aVcafeteria-5
p384
aa(lp385
Vnsubj
p386
aVpick-7
p387
aVworkers-6
p388
aa(lp389
Vrcmod
p390
aVcafeteria-5
p391
aVpick-7
p392
aa(lp393
Vprt
p394
aVpick-7
p395
aVup-8
p396
aa(lp397
Vnn
p398
aVtrays-10
p399
aVlunch-9
p400
aa(lp401
Vdobj
p402
aVpick-7
p403
aVtrays-10
p404
aa(lp405
Vnsubj
p406
aVcarry-16
p407
aVhe-13
p408
aa(lp409
Vaux
p410
aVcarry-16
p411
aVcould-14
p412
aa(lp413
Vadvmod
p414
aVcarry-16
p415
aVonly-15
p416
aa(lp417
Vconj_but
p418
aVhelping-3
p419
aVcarry-16
p420
aa(lp421
Vnum
p422
aVtrays-18
p423
aV4-17
p424
aa(lp425
Vdobj
p426
aVcarry-16
p427
aVtrays-18
p428
aa(lp429
Vdet
p430
aVtime-21
p431
aVa-20
p432
aa(lp433
Vprep_at
p434
aVcarry-16
p435
aVtime-21
p436
aasa(dp437
Vparsetree
p438
V(ROOT (SBARQ (SBAR (IN If) (S (NP (PRP he)) (VP (VBD had) (S (VP (TO to) (VP (VB pick) (PRT (RP up)) (NP (NP (CD 10) (NNS trays)) (PP (IN from) (NP (NP (CD one) (NN table)) (CC and) (NP (CD 2) (NNS trays))))) (PP (IN from) (NP (DT another))))))))) (, ,) (WHNP (WHADJP (WRB how) (JJ many)) (NNS trips)) (SQ (MD will) (NP (PRP he)) (VP (VB make))) (. ?)))
p439
sVtext
p440
VIf he had to pick up 10 trays from one table and 2 trays from another , how many trips will he make ?
p441
sVdependencies
p442
(lp443
(lp444
Vroot
p445
aVROOT
p446
aVmake
p447
aa(lp448
Vmark
p449
aVhad
p450
aVIf
p451
aa(lp452
Vnsubj
p453
aVhad
p454
aVhe
p455
aa(lp456
Vadvcl
p457
aVmake
p458
aVhad
p459
aa(lp460
Vaux
p461
aVpick
p462
aVto
p463
aa(lp464
Vxcomp
p465
aVhad
p466
aVpick
p467
aa(lp468
Vprt
p469
aVpick
p470
aVup
p471
aa(lp472
Vnum
p473
aVtrays
p474
aV10
p475
aa(lp476
Vdobj
p477
aVpick
p478
aVtrays
p479
aa(lp480
Vnum
p481
aVtable
p482
aVone
p483
aa(lp484
Vprep_from
p485
aVtrays
p486
aVtable
p487
aa(lp488
Vnum
p489
aVtrays
p490
aV2
p491
aa(lp492
Vconj_and
p493
aVtable
p494
aVtrays
p495
aa(lp496
Vprep_from
p497
aVpick
p498
aVanother
p499
aa(lp500
Vadvmod
p501
aVmany
p502
aVhow
p503
aa(lp504
Vamod
p505
aVtrips
p506
aVmany
p507
aa(lp508
Vdobj
p509
aVmake
p510
aVtrips
p511
aa(lp512
Vaux
p513
aVmake
p514
aVwill
p515
aa(lp516
Vnsubj
p517
aVmake
p518
aVhe
p519
aasVwords
p520
(lp521
(lp522
VIf
p523
a(dp524
VNamedEntityTag
p525
g119
sVCharacterOffsetEnd
p526
V109
p527
sVCharacterOffsetBegin
p528
V107
p529
sVPartOfSpeech
p530
VIN
p531
sVLemma
p532
Vif
p533
saa(lp534
Vhe
p535
a(dp536
VNamedEntityTag
p537
g119
sVCharacterOffsetEnd
p538
V112
p539
sVCharacterOffsetBegin
p540
V110
p541
sVPartOfSpeech
p542
VPRP
p543
sVLemma
p544
Vhe
p545
saa(lp546
Vhad
p547
a(dp548
VNamedEntityTag
p549
g119
sVCharacterOffsetEnd
p550
V116
p551
sVCharacterOffsetBegin
p552
V113
p553
sVPartOfSpeech
p554
VVBD
p555
sVLemma
p556
Vhave
p557
saa(lp558
Vto
p559
a(dp560
VNamedEntityTag
p561
g119
sVCharacterOffsetEnd
p562
V119
p563
sVCharacterOffsetBegin
p564
V117
p565
sVPartOfSpeech
p566
VTO
p567
sVLemma
p568
Vto
p569
saa(lp570
Vpick
p571
a(dp572
VNamedEntityTag
p573
g119
sVCharacterOffsetEnd
p574
V124
p575
sVCharacterOffsetBegin
p576
V120
p577
sVPartOfSpeech
p578
VVB
p579
sVLemma
p580
Vpick
p581
saa(lp582
Vup
p583
a(dp584
VNamedEntityTag
p585
g119
sVCharacterOffsetEnd
p586
V127
p587
sVCharacterOffsetBegin
p588
V125
p589
sVPartOfSpeech
p590
VRP
p591
sVLemma
p592
Vup
p593
saa(lp594
V10
p595
a(dp596
VNormalizedNamedEntityTag
p597
V10.0
p598
sVLemma
p599
V10
p600
sVCharacterOffsetEnd
p601
V130
p602
sVPartOfSpeech
p603
VCD
p604
sVCharacterOffsetBegin
p605
V128
p606
sVNamedEntityTag
p607
VNUMBER
p608
saa(lp609
Vtrays
p610
a(dp611
VNamedEntityTag
p612
g119
sVCharacterOffsetEnd
p613
V136
p614
sVCharacterOffsetBegin
p615
V131
p616
sVPartOfSpeech
p617
VNNS
p618
sVLemma
p619
Vtray
p620
saa(lp621
Vfrom
p622
a(dp623
VNamedEntityTag
p624
g119
sVCharacterOffsetEnd
p625
V141
p626
sVCharacterOffsetBegin
p627
V137
p628
sVPartOfSpeech
p629
VIN
p630
sVLemma
p631
Vfrom
p632
saa(lp633
Vone
p634
a(dp635
VNormalizedNamedEntityTag
p636
V1.0
p637
sVLemma
p638
Vone
p639
sVCharacterOffsetEnd
p640
V145
p641
sVPartOfSpeech
p642
VCD
p643
sVCharacterOffsetBegin
p644
V142
p645
sVNamedEntityTag
p646
VNUMBER
p647
saa(lp648
Vtable
p649
a(dp650
VNamedEntityTag
p651
g119
sVCharacterOffsetEnd
p652
V151
p653
sVCharacterOffsetBegin
p654
V146
p655
sVPartOfSpeech
p656
VNN
p657
sVLemma
p658
Vtable
p659
saa(lp660
Vand
p661
a(dp662
VNamedEntityTag
p663
g119
sVCharacterOffsetEnd
p664
V155
p665
sVCharacterOffsetBegin
p666
V152
p667
sVPartOfSpeech
p668
VCC
p669
sVLemma
p670
Vand
p671
saa(lp672
g491
a(dp673
VNormalizedNamedEntityTag
p674
V2.0
p675
sVLemma
p676
g491
sVCharacterOffsetEnd
p677
V157
p678
sVPartOfSpeech
p679
VCD
p680
sVCharacterOffsetBegin
p681
V156
p682
sVNamedEntityTag
p683
VNUMBER
p684
saa(lp685
Vtrays
p686
a(dp687
VNamedEntityTag
p688
g119
sVCharacterOffsetEnd
p689
V163
p690
sVCharacterOffsetBegin
p691
V158
p692
sVPartOfSpeech
p693
VNNS
p694
sVLemma
p695
Vtray
p696
saa(lp697
Vfrom
p698
a(dp699
VNamedEntityTag
p700
g119
sVCharacterOffsetEnd
p701
V168
p702
sVCharacterOffsetBegin
p703
V164
p704
sVPartOfSpeech
p705
VIN
p706
sVLemma
p707
Vfrom
p708
saa(lp709
Vanother
p710
a(dp711
VNamedEntityTag
p712
g119
sVCharacterOffsetEnd
p713
V176
p714
sVCharacterOffsetBegin
p715
V169
p716
sVPartOfSpeech
p717
VDT
p718
sVLemma
p719
Vanother
p720
saa(lp721
g225
a(dp722
VNamedEntityTag
p723
g119
sVCharacterOffsetEnd
p724
V178
p725
sVCharacterOffsetBegin
p726
V177
p727
sVPartOfSpeech
p728
g225
sVLemma
p729
g225
saa(lp730
Vhow
p731
a(dp732
VNamedEntityTag
p733
g119
sVCharacterOffsetEnd
p734
V182
p735
sVCharacterOffsetBegin
p736
V179
p737
sVPartOfSpeech
p738
VWRB
p739
sVLemma
p740
Vhow
p741
saa(lp742
Vmany
p743
a(dp744
VNamedEntityTag
p745
g119
sVCharacterOffsetEnd
p746
V187
p747
sVCharacterOffsetBegin
p748
V183
p749
sVPartOfSpeech
p750
VJJ
p751
sVLemma
p752
Vmany
p753
saa(lp754
Vtrips
p755
a(dp756
VNamedEntityTag
p757
g119
sVCharacterOffsetEnd
p758
V193
p759
sVCharacterOffsetBegin
p760
V188
p761
sVPartOfSpeech
p762
VNNS
p763
sVLemma
p764
Vtrip
p765
saa(lp766
Vwill
p767
a(dp768
VNamedEntityTag
p769
g119
sVCharacterOffsetEnd
p770
V198
p771
sVCharacterOffsetBegin
p772
V194
p773
sVPartOfSpeech
p774
VMD
p775
sVLemma
p776
Vwill
p777
saa(lp778
Vhe
p779
a(dp780
VNamedEntityTag
p781
g119
sVCharacterOffsetEnd
p782
V201
p783
sVCharacterOffsetBegin
p784
V199
p785
sVPartOfSpeech
p786
VPRP
p787
sVLemma
p788
Vhe
p789
saa(lp790
Vmake
p791
a(dp792
VNamedEntityTag
p793
g119
sVCharacterOffsetEnd
p794
V206
p795
sVCharacterOffsetBegin
p796
V202
p797
sVPartOfSpeech
p798
VVB
p799
sVLemma
p800
Vmake
p801
saa(lp802
V?
p803
a(dp804
VNamedEntityTag
p805
g119
sVCharacterOffsetEnd
p806
V208
p807
sVCharacterOffsetBegin
p808
V207
p809
sVPartOfSpeech
p810
g354
sVLemma
p811
g803
saasVindexeddependencies
p812
(lp813
(lp814
Vroot
p815
aVROOT-0
p816
aVmake-23
p817
aa(lp818
Vmark
p819
aVhad-3
p820
aVIf-1
p821
aa(lp822
Vnsubj
p823
aVhad-3
p824
aVhe-2
p825
aa(lp826
Vadvcl
p827
aVmake-23
p828
aVhad-3
p829
aa(lp830
Vaux
p831
aVpick-5
p832
aVto-4
p833
aa(lp834
Vxcomp
p835
aVhad-3
p836
aVpick-5
p837
aa(lp838
Vprt
p839
aVpick-5
p840
aVup-6
p841
aa(lp842
Vnum
p843
aVtrays-8
p844
aV10-7
p845
aa(lp846
Vdobj
p847
aVpick-5
p848
aVtrays-8
p849
aa(lp850
Vnum
p851
aVtable-11
p852
aVone-10
p853
aa(lp854
Vprep_from
p855
aVtrays-8
p856
aVtable-11
p857
aa(lp858
Vnum
p859
aVtrays-14
p860
aV2-13
p861
aa(lp862
Vconj_and
p863
aVtable-11
p864
aVtrays-14
p865
aa(lp866
Vprep_from
p867
aVpick-5
p868
aVanother-16
p869
aa(lp870
Vadvmod
p871
aVmany-19
p872
aVhow-18
p873
aa(lp874
Vamod
p875
aVtrips-20
p876
aVmany-19
p877
aa(lp878
Vdobj
p879
aVmake-23
p880
aVtrips-20
p881
aa(lp882
Vaux
p883
aVmake-23
p884
aVwill-21
p885
aa(lp886
Vnsubj
p887
aVmake-23
p888
aVhe-22
p889
aasas.