(dp0
Vcoref
p1
(lp2
(lp3
(lp4
(lp5
Vher
p6
aI0
aI2
aI2
aI3
aa(lp7
VMichelle
p8
aI0
aI0
aI0
aI1
aaa(lp9
(lp10
Vher
p11
aI0
aI14
aI14
aI15
aa(lp12
VMichelle
p13
aI0
aI0
aI0
aI1
aaa(lp14
(lp15
Vshe
p16
aI1
aI1
aI1
aI2
aa(lp17
VMichelle
p18
aI0
aI0
aI0
aI1
aaa(lp19
(lp20
VMichelle
p21
aI2
aI4
aI4
aI5
aa(lp22
VMichelle
p23
aI0
aI0
aI0
aI1
aaaa(lp24
(lp25
(lp26
Vit
p27
aI1
aI3
aI3
aI4
aa(lp28
Vher pizza delivery route
p29
aI0
aI5
aI2
aI6
aaaa(lp30
(lp31
(lp32
Va tank of gas
p33
aI1
aI12
aI11
aI15
aa(lp34
Va tank of gas
p35
aI0
aI10
aI9
aI13
aaaasVsentences
p36
(lp37
(dp38
Vparsetree
p39
V(ROOT (S (NP (NNP Michelle)) (VP (VBD began) (NP (PRP$ her) (NN pizza) (NN delivery) (NN route)) (PP (IN with) (NP (NP (CD 0.5)) (PP (IN of) (NP (NP (DT a) (NN tank)) (PP (IN of) (NP (NN gas))))))) (PP (IN in) (NP (PRP$ her) (NN car)))) (. .)))
p40
sVtext
p41
VMichelle began her pizza delivery route with 0.5 of a tank of gas in her car .
p42
sVdependencies
p43
(lp44
(lp45
Vroot
p46
aVROOT
p47
aVbegan
p48
aa(lp49
Vnsubj
p50
aVbegan
p51
aVMichelle
p52
aa(lp53
Vposs
p54
aVroute
p55
aVher
p56
aa(lp57
Vnn
p58
aVroute
p59
aVpizza
p60
aa(lp61
Vnn
p62
aVroute
p63
aVdelivery
p64
aa(lp65
Vdobj
p66
aVbegan
p67
aVroute
p68
aa(lp69
Vprep_with
p70
aVbegan
p71
aV0.5
p72
aa(lp73
Vdet
p74
aVtank
p75
aVa
p76
aa(lp77
Vprep_of
p78
aV0.5
p79
aVtank
p80
aa(lp81
Vprep_of
p82
aVtank
p83
aVgas
p84
aa(lp85
Vposs
p86
aVcar
p87
aVher
p88
aa(lp89
Vprep_in
p90
aVbegan
p91
aVcar
p92
aasVwords
p93
(lp94
(lp95
VMichelle
p96
a(dp97
VNamedEntityTag
p98
VPERSON
p99
sVCharacterOffsetEnd
p100
V9
p101
sVCharacterOffsetBegin
p102
V1
p103
sVPartOfSpeech
p104
VNNP
p105
sVLemma
p106
VMichelle
p107
saa(lp108
Vbegan
p109
a(dp110
VNamedEntityTag
p111
VO
p112
sVCharacterOffsetEnd
p113
V15
p114
sVCharacterOffsetBegin
p115
V10
p116
sVPartOfSpeech
p117
VVBD
p118
sVLemma
p119
Vbegin
p120
saa(lp121
Vher
p122
a(dp123
VNamedEntityTag
p124
g112
sVCharacterOffsetEnd
p125
V19
p126
sVCharacterOffsetBegin
p127
V16
p128
sVPartOfSpeech
p129
VPRP$
p130
sVLemma
p131
Vshe
p132
saa(lp133
Vpizza
p134
a(dp135
VNamedEntityTag
p136
g112
sVCharacterOffsetEnd
p137
V25
p138
sVCharacterOffsetBegin
p139
V20
p140
sVPartOfSpeech
p141
VNN
p142
sVLemma
p143
Vpizza
p144
saa(lp145
Vdelivery
p146
a(dp147
VNamedEntityTag
p148
g112
sVCharacterOffsetEnd
p149
V34
p150
sVCharacterOffsetBegin
p151
V26
p152
sVPartOfSpeech
p153
VNN
p154
sVLemma
p155
Vdelivery
p156
saa(lp157
Vroute
p158
a(dp159
VNamedEntityTag
p160
g112
sVCharacterOffsetEnd
p161
V40
p162
sVCharacterOffsetBegin
p163
V35
p164
sVPartOfSpeech
p165
VNN
p166
sVLemma
p167
Vroute
p168
saa(lp169
Vwith
p170
a(dp171
VNamedEntityTag
p172
g112
sVCharacterOffsetEnd
p173
V45
p174
sVCharacterOffsetBegin
p175
V41
p176
sVPartOfSpeech
p177
VIN
p178
sVLemma
p179
Vwith
p180
saa(lp181
V0.5
p182
a(dp183
VNormalizedNamedEntityTag
p184
V0.5
p185
sVLemma
p186
V0.5
p187
sVCharacterOffsetEnd
p188
V49
p189
sVPartOfSpeech
p190
VCD
p191
sVCharacterOffsetBegin
p192
V46
p193
sVNamedEntityTag
p194
VNUMBER
p195
saa(lp196
Vof
p197
a(dp198
VNamedEntityTag
p199
g112
sVCharacterOffsetEnd
p200
V52
p201
sVCharacterOffsetBegin
p202
V50
p203
sVPartOfSpeech
p204
VIN
p205
sVLemma
p206
Vof
p207
saa(lp208
g76
a(dp209
VNamedEntityTag
p210
g112
sVCharacterOffsetEnd
p211
V54
p212
sVCharacterOffsetBegin
p213
V53
p214
sVPartOfSpeech
p215
VDT
p216
sVLemma
p217
g76
saa(lp218
Vtank
p219
a(dp220
VNamedEntityTag
p221
g112
sVCharacterOffsetEnd
p222
V59
p223
sVCharacterOffsetBegin
p224
V55
p225
sVPartOfSpeech
p226
VNN
p227
sVLemma
p228
Vtank
p229
saa(lp230
Vof
p231
a(dp232
VNamedEntityTag
p233
g112
sVCharacterOffsetEnd
p234
V62
p235
sVCharacterOffsetBegin
p236
V60
p237
sVPartOfSpeech
p238
VIN
p239
sVLemma
p240
Vof
p241
saa(lp242
Vgas
p243
a(dp244
VNamedEntityTag
p245
g112
sVCharacterOffsetEnd
p246
V66
p247
sVCharacterOffsetBegin
p248
V63
p249
sVPartOfSpeech
p250
VNN
p251
sVLemma
p252
Vgas
p253
saa(lp254
Vin
p255
a(dp256
VNamedEntityTag
p257
g112
sVCharacterOffsetEnd
p258
V69
p259
sVCharacterOffsetBegin
p260
V67
p261
sVPartOfSpeech
p262
VIN
p263
sVLemma
p264
Vin
p265
saa(lp266
Vher
p267
a(dp268
VNamedEntityTag
p269
g112
sVCharacterOffsetEnd
p270
V73
p271
sVCharacterOffsetBegin
p272
V70
p273
sVPartOfSpeech
p274
VPRP$
p275
sVLemma
p276
Vshe
p277
saa(lp278
Vcar
p279
a(dp280
VNamedEntityTag
p281
g112
sVCharacterOffsetEnd
p282
V77
p283
sVCharacterOffsetBegin
p284
V74
p285
sVPartOfSpeech
p286
VNN
p287
sVLemma
p288
Vcar
p289
saa(lp290
V.
p291
a(dp292
VNamedEntityTag
p293
g112
sVCharacterOffsetEnd
p294
V79
p295
sVCharacterOffsetBegin
p296
V78
p297
sVPartOfSpeech
p298
g291
sVLemma
p299
g291
saasVindexeddependencies
p300
(lp301
(lp302
Vroot
p303
aVROOT-0
p304
aVbegan-2
p305
aa(lp306
Vnsubj
p307
aVbegan-2
p308
aVMichelle-1
p309
aa(lp310
Vposs
p311
aVroute-6
p312
aVher-3
p313
aa(lp314
Vnn
p315
aVroute-6
p316
aVpizza-4
p317
aa(lp318
Vnn
p319
aVroute-6
p320
aVdelivery-5
p321
aa(lp322
Vdobj
p323
aVbegan-2
p324
aVroute-6
p325
aa(lp326
Vprep_with
p327
aVbegan-2
p328
aV0.5-8
p329
aa(lp330
Vdet
p331
aVtank-11
p332
aVa-10
p333
aa(lp334
Vprep_of
p335
aV0.5-8
p336
aVtank-11
p337
aa(lp338
Vprep_of
p339
aVtank-11
p340
aVgas-13
p341
aa(lp342
Vposs
p343
aVcar-16
p344
aVher-15
p345
aa(lp346
Vprep_in
p347
aVbegan-2
p348
aVcar-16
p349
aasa(dp350
Vparsetree
p351
V(ROOT (S (SBAR (WHADVP (WRB When)) (S (NP (PRP she)) (VP (VBD made) (NP (PRP it)) (ADVP (RB back)) (PP (TO to) (NP (DT the) (NN pizzeria)))))) (, ,) (NP (NP (CD 0.16666666666666666)) (PP (IN of) (NP (NP (DT a) (NN tank)) (PP (IN of) (NP (NN gas)))))) (VP (VBD was) (VP (VBN left))) (. .)))
p352
sVtext
p353
VWhen she made it back to the pizzeria , 0.16666666666666666 of a tank of gas was left .
p354
sVdependencies
p355
(lp356
(lp357
Vroot
p358
aVROOT
p359
aVleft
p360
aa(lp361
Vadvmod
p362
aVmade
p363
aVWhen
p364
aa(lp365
Vnsubj
p366
aVmade
p367
aVshe
p368
aa(lp369
Vadvcl
p370
aVleft
p371
aVmade
p372
aa(lp373
Vdobj
p374
aVmade
p375
aVit
p376
aa(lp377
Vadvmod
p378
aVmade
p379
aVback
p380
aa(lp381
Vdet
p382
aVpizzeria
p383
aVthe
p384
aa(lp385
Vprep_to
p386
aVmade
p387
aVpizzeria
p388
aa(lp389
Vnsubjpass
p390
aVleft
p391
aV0.16666666666666666
p392
aa(lp393
Vdet
p394
aVtank
p395
ag76
aa(lp396
Vprep_of
p397
aV0.16666666666666666
p398
aVtank
p399
aa(lp400
Vprep_of
p401
aVtank
p402
aVgas
p403
aa(lp404
Vauxpass
p405
aVleft
p406
aVwas
p407
aasVwords
p408
(lp409
(lp410
VWhen
p411
a(dp412
VNamedEntityTag
p413
g112
sVCharacterOffsetEnd
p414
V84
p415
sVCharacterOffsetBegin
p416
V80
p417
sVPartOfSpeech
p418
VWRB
p419
sVLemma
p420
Vwhen
p421
saa(lp422
Vshe
p423
a(dp424
VNamedEntityTag
p425
g112
sVCharacterOffsetEnd
p426
V88
p427
sVCharacterOffsetBegin
p428
V85
p429
sVPartOfSpeech
p430
VPRP
p431
sVLemma
p432
Vshe
p433
saa(lp434
Vmade
p435
a(dp436
VNamedEntityTag
p437
g112
sVCharacterOffsetEnd
p438
V93
p439
sVCharacterOffsetBegin
p440
V89
p441
sVPartOfSpeech
p442
VVBD
p443
sVLemma
p444
Vmake
p445
saa(lp446
Vit
p447
a(dp448
VNamedEntityTag
p449
g112
sVCharacterOffsetEnd
p450
V96
p451
sVCharacterOffsetBegin
p452
V94
p453
sVPartOfSpeech
p454
VPRP
p455
sVLemma
p456
Vit
p457
saa(lp458
Vback
p459
a(dp460
VNamedEntityTag
p461
g112
sVCharacterOffsetEnd
p462
V101
p463
sVCharacterOffsetBegin
p464
V97
p465
sVPartOfSpeech
p466
VRB
p467
sVLemma
p468
Vback
p469
saa(lp470
Vto
p471
a(dp472
VNamedEntityTag
p473
g112
sVCharacterOffsetEnd
p474
V104
p475
sVCharacterOffsetBegin
p476
V102
p477
sVPartOfSpeech
p478
VTO
p479
sVLemma
p480
Vto
p481
saa(lp482
Vthe
p483
a(dp484
VNamedEntityTag
p485
g112
sVCharacterOffsetEnd
p486
V108
p487
sVCharacterOffsetBegin
p488
V105
p489
sVPartOfSpeech
p490
VDT
p491
sVLemma
p492
Vthe
p493
saa(lp494
Vpizzeria
p495
a(dp496
VNamedEntityTag
p497
g112
sVCharacterOffsetEnd
p498
V117
p499
sVCharacterOffsetBegin
p500
V109
p501
sVPartOfSpeech
p502
VNN
p503
sVLemma
p504
Vpizzeria
p505
saa(lp506
V,
p507
a(dp508
VNamedEntityTag
p509
g112
sVCharacterOffsetEnd
p510
V119
p511
sVCharacterOffsetBegin
p512
V118
p513
sVPartOfSpeech
p514
g507
sVLemma
p515
g507
saa(lp516
V0.16666666666666666
p517
a(dp518
VNormalizedNamedEntityTag
p519
V0.16666666666666666
p520
sVLemma
p521
V0.16666666666666666
p522
sVCharacterOffsetEnd
p523
V139
p524
sVPartOfSpeech
p525
VCD
p526
sVCharacterOffsetBegin
p527
V120
p528
sVNamedEntityTag
p529
VNUMBER
p530
saa(lp531
Vof
p532
a(dp533
VNamedEntityTag
p534
g112
sVCharacterOffsetEnd
p535
V142
p536
sVCharacterOffsetBegin
p537
V140
p538
sVPartOfSpeech
p539
VIN
p540
sVLemma
p541
Vof
p542
saa(lp543
g76
a(dp544
VNamedEntityTag
p545
g112
sVCharacterOffsetEnd
p546
V144
p547
sVCharacterOffsetBegin
p548
V143
p549
sVPartOfSpeech
p550
VDT
p551
sVLemma
p552
g76
saa(lp553
Vtank
p554
a(dp555
VNamedEntityTag
p556
g112
sVCharacterOffsetEnd
p557
V149
p558
sVCharacterOffsetBegin
p559
V145
p560
sVPartOfSpeech
p561
VNN
p562
sVLemma
p563
Vtank
p564
saa(lp565
Vof
p566
a(dp567
VNamedEntityTag
p568
g112
sVCharacterOffsetEnd
p569
V152
p570
sVCharacterOffsetBegin
p571
V150
p572
sVPartOfSpeech
p573
VIN
p574
sVLemma
p575
Vof
p576
saa(lp577
Vgas
p578
a(dp579
VNamedEntityTag
p580
g112
sVCharacterOffsetEnd
p581
V156
p582
sVCharacterOffsetBegin
p583
V153
p584
sVPartOfSpeech
p585
VNN
p586
sVLemma
p587
Vgas
p588
saa(lp589
Vwas
p590
a(dp591
VNamedEntityTag
p592
g112
sVCharacterOffsetEnd
p593
V160
p594
sVCharacterOffsetBegin
p595
V157
p596
sVPartOfSpeech
p597
VVBD
p598
sVLemma
p599
Vbe
p600
saa(lp601
Vleft
p602
a(dp603
VNamedEntityTag
p604
g112
sVCharacterOffsetEnd
p605
V165
p606
sVCharacterOffsetBegin
p607
V161
p608
sVPartOfSpeech
p609
VVBN
p610
sVLemma
p611
Vleave
p612
saa(lp613
g291
a(dp614
VNamedEntityTag
p615
g112
sVCharacterOffsetEnd
p616
V167
p617
sVCharacterOffsetBegin
p618
V166
p619
sVPartOfSpeech
p620
g291
sVLemma
p621
g291
saasVindexeddependencies
p622
(lp623
(lp624
Vroot
p625
aVROOT-0
p626
aVleft-17
p627
aa(lp628
Vadvmod
p629
aVmade-3
p630
aVWhen-1
p631
aa(lp632
Vnsubj
p633
aVmade-3
p634
aVshe-2
p635
aa(lp636
Vadvcl
p637
aVleft-17
p638
aVmade-3
p639
aa(lp640
Vdobj
p641
aVmade-3
p642
aVit-4
p643
aa(lp644
Vadvmod
p645
aVmade-3
p646
aVback-5
p647
aa(lp648
Vdet
p649
aVpizzeria-8
p650
aVthe-7
p651
aa(lp652
Vprep_to
p653
aVmade-3
p654
aVpizzeria-8
p655
aa(lp656
Vnsubjpass
p657
aVleft-17
p658
aV0.16666666666666666-10
p659
aa(lp660
Vdet
p661
aVtank-13
p662
aVa-12
p663
aa(lp664
Vprep_of
p665
aV0.16666666666666666-10
p666
aVtank-13
p667
aa(lp668
Vprep_of
p669
aVtank-13
p670
aVgas-15
p671
aa(lp672
Vauxpass
p673
aVleft-17
p674
aVwas-16
p675
aasa(dp676
Vparsetree
p677
V(ROOT (SBARQ (WHNP (WHADJP (WRB How) (JJ much)) (NN gas)) (SQ (VBD did) (NP (NNP Michelle)) (VP (VB use))) (. ?)))
p678
sVtext
p679
VHow much gas did Michelle use ?
p680
sVdependencies
p681
(lp682
(lp683
Vroot
p684
aVROOT
p685
aVuse
p686
aa(lp687
Vadvmod
p688
aVmuch
p689
aVHow
p690
aa(lp691
Vamod
p692
aVgas
p693
aVmuch
p694
aa(lp695
Vdobj
p696
aVuse
p697
aVgas
p698
aa(lp699
Vaux
p700
aVuse
p701
aVdid
p702
aa(lp703
Vnsubj
p704
aVuse
p705
aVMichelle
p706
aasVwords
p707
(lp708
(lp709
VHow
p710
a(dp711
VNamedEntityTag
p712
g112
sVCharacterOffsetEnd
p713
V171
p714
sVCharacterOffsetBegin
p715
V168
p716
sVPartOfSpeech
p717
VWRB
p718
sVLemma
p719
Vhow
p720
saa(lp721
Vmuch
p722
a(dp723
VNamedEntityTag
p724
g112
sVCharacterOffsetEnd
p725
V176
p726
sVCharacterOffsetBegin
p727
V172
p728
sVPartOfSpeech
p729
VJJ
p730
sVLemma
p731
Vmuch
p732
saa(lp733
Vgas
p734
a(dp735
VNamedEntityTag
p736
g112
sVCharacterOffsetEnd
p737
V180
p738
sVCharacterOffsetBegin
p739
V177
p740
sVPartOfSpeech
p741
VNN
p742
sVLemma
p743
Vgas
p744
saa(lp745
Vdid
p746
a(dp747
VNamedEntityTag
p748
g112
sVCharacterOffsetEnd
p749
V184
p750
sVCharacterOffsetBegin
p751
V181
p752
sVPartOfSpeech
p753
VVBD
p754
sVLemma
p755
Vdo
p756
saa(lp757
VMichelle
p758
a(dp759
VNamedEntityTag
p760
VPERSON
p761
sVCharacterOffsetEnd
p762
V193
p763
sVCharacterOffsetBegin
p764
V185
p765
sVPartOfSpeech
p766
VNNP
p767
sVLemma
p768
VMichelle
p769
saa(lp770
Vuse
p771
a(dp772
VNamedEntityTag
p773
g112
sVCharacterOffsetEnd
p774
V197
p775
sVCharacterOffsetBegin
p776
V194
p777
sVPartOfSpeech
p778
VVB
p779
sVLemma
p780
Vuse
p781
saa(lp782
V?
p783
a(dp784
VNamedEntityTag
p785
g112
sVCharacterOffsetEnd
p786
V199
p787
sVCharacterOffsetBegin
p788
V198
p789
sVPartOfSpeech
p790
g291
sVLemma
p791
g783
saasVindexeddependencies
p792
(lp793
(lp794
Vroot
p795
aVROOT-0
p796
aVuse-6
p797
aa(lp798
Vadvmod
p799
aVmuch-2
p800
aVHow-1
p801
aa(lp802
Vamod
p803
aVgas-3
p804
aVmuch-2
p805
aa(lp806
Vdobj
p807
aVuse-6
p808
aVgas-3
p809
aa(lp810
Vaux
p811
aVuse-6
p812
aVdid-4
p813
aa(lp814
Vnsubj
p815
aVuse-6
p816
aVMichelle-5
p817
aasas.