(dp0
Vcoref
p1
(lp2
(lp3
(lp4
(lp5
VKelly
p6
aI1
aI6
aI6
aI7
aa(lp7
VKelly
p8
aI0
aI8
aI8
aI9
aaaa(lp9
(lp10
(lp11
Vshe
p12
aI0
aI11
aI11
aI12
aa(lp13
Vher
p14
aI0
aI4
aI4
aI5
aaaa(lp15
(lp16
(lp17
Vyesterday
p18
aI1
aI8
aI8
aI9
aa(lp19
Vbaking powder yesterday
p20
aI0
aI20
aI18
aI21
aaaasVsentences
p21
(lp22
(dp23
Vparsetree
p24
V(ROOT (S (S (SBAR (IN While) (S (VP (VBG taking) (NP (NN inventory)) (PP (IN at) (NP (PRP$ her) (NN pastry) (NN shop)))))) (, ,) (NP (NNP Kelly)) (VP (VBZ realizes) (SBAR (IN that) (S (NP (PRP she)) (VP (VBD had) (NP (NP (CD 0.4)) (PP (IN of) (NP (NP (DT a) (NN box)) (PP (IN of) (NP (VBG baking) (NN powder) (NN yesterday))))))))))) (, ,) (CC but) (S (NP (DT the) (NN supply)) (VP (VBZ is) (ADVP (RB now) (RB down)) (PP (TO to) (NP (NP (CD 0.3)) (PP (IN of) (NP (DT a) (NN box))))))) (. .)))
p25
sVtext
p26
VWhile taking inventory at her pastry shop , Kelly realizes that she had 0.4 of a box of baking powder yesterday , but the supply is now down to 0.3 of a box .
p27
sVdependencies
p28
(lp29
(lp30
Vroot
p31
aVROOT
p32
aVrealizes
p33
aa(lp34
Vmark
p35
aVtaking
p36
aVWhile
p37
aa(lp38
Vadvcl
p39
aVrealizes
p40
aVtaking
p41
aa(lp42
Vdobj
p43
aVtaking
p44
aVinventory
p45
aa(lp46
Vposs
p47
aVshop
p48
aVher
p49
aa(lp50
Vnn
p51
aVshop
p52
aVpastry
p53
aa(lp54
Vprep_at
p55
aVtaking
p56
aVshop
p57
aa(lp58
Vnsubj
p59
aVrealizes
p60
aVKelly
p61
aa(lp62
Vmark
p63
aVhad
p64
aVthat
p65
aa(lp66
Vnsubj
p67
aVhad
p68
aVshe
p69
aa(lp70
Vccomp
p71
aVrealizes
p72
aVhad
p73
aa(lp74
Vdobj
p75
aVhad
p76
aV0.4
p77
aa(lp78
Vdet
p79
aVbox
p80
aVa
p81
aa(lp82
Vprep_of
p83
aV0.4
p84
aVbox
p85
aa(lp86
Vamod
p87
aVyesterday
p88
aVbaking
p89
aa(lp90
Vnn
p91
aVyesterday
p92
aVpowder
p93
aa(lp94
Vprep_of
p95
aVbox
p96
aVyesterday
p97
aa(lp98
Vdet
p99
aVsupply
p100
aVthe
p101
aa(lp102
Vnsubj
p103
aVis
p104
aVsupply
p105
aa(lp106
Vconj_but
p107
aVrealizes
p108
aVis
p109
aa(lp110
Vadvmod
p111
aVdown
p112
aVnow
p113
aa(lp114
Vadvmod
p115
aVis
p116
aVdown
p117
aa(lp118
Vprep_to
p119
aVis
p120
aV0.3
p121
aa(lp122
Vdet
p123
aVbox
p124
ag81
aa(lp125
Vprep_of
p126
aV0.3
p127
aVbox
p128
aasVwords
p129
(lp130
(lp131
VWhile
p132
a(dp133
VNamedEntityTag
p134
VO
p135
sVCharacterOffsetEnd
p136
V6
p137
sVCharacterOffsetBegin
p138
V1
p139
sVPartOfSpeech
p140
VIN
p141
sVLemma
p142
Vwhile
p143
saa(lp144
Vtaking
p145
a(dp146
VNamedEntityTag
p147
g135
sVCharacterOffsetEnd
p148
V13
p149
sVCharacterOffsetBegin
p150
V7
p151
sVPartOfSpeech
p152
VVBG
p153
sVLemma
p154
Vtake
p155
saa(lp156
Vinventory
p157
a(dp158
VNamedEntityTag
p159
g135
sVCharacterOffsetEnd
p160
V23
p161
sVCharacterOffsetBegin
p162
V14
p163
sVPartOfSpeech
p164
VNN
p165
sVLemma
p166
Vinventory
p167
saa(lp168
Vat
p169
a(dp170
VNamedEntityTag
p171
g135
sVCharacterOffsetEnd
p172
V26
p173
sVCharacterOffsetBegin
p174
V24
p175
sVPartOfSpeech
p176
VIN
p177
sVLemma
p178
Vat
p179
saa(lp180
Vher
p181
a(dp182
VNamedEntityTag
p183
g135
sVCharacterOffsetEnd
p184
V30
p185
sVCharacterOffsetBegin
p186
V27
p187
sVPartOfSpeech
p188
VPRP$
p189
sVLemma
p190
Vshe
p191
saa(lp192
Vpastry
p193
a(dp194
VNamedEntityTag
p195
g135
sVCharacterOffsetEnd
p196
V37
p197
sVCharacterOffsetBegin
p198
V31
p199
sVPartOfSpeech
p200
VNN
p201
sVLemma
p202
Vpastry
p203
saa(lp204
Vshop
p205
a(dp206
VNamedEntityTag
p207
g135
sVCharacterOffsetEnd
p208
V42
p209
sVCharacterOffsetBegin
p210
V38
p211
sVPartOfSpeech
p212
VNN
p213
sVLemma
p214
Vshop
p215
saa(lp216
V,
p217
a(dp218
VNamedEntityTag
p219
g135
sVCharacterOffsetEnd
p220
V44
p221
sVCharacterOffsetBegin
p222
V43
p223
sVPartOfSpeech
p224
g217
sVLemma
p225
g217
saa(lp226
VKelly
p227
a(dp228
VNamedEntityTag
p229
VPERSON
p230
sVCharacterOffsetEnd
p231
V50
p232
sVCharacterOffsetBegin
p233
V45
p234
sVPartOfSpeech
p235
VNNP
p236
sVLemma
p237
VKelly
p238
saa(lp239
Vrealizes
p240
a(dp241
VNamedEntityTag
p242
g135
sVCharacterOffsetEnd
p243
V59
p244
sVCharacterOffsetBegin
p245
V51
p246
sVPartOfSpeech
p247
VVBZ
p248
sVLemma
p249
Vrealize
p250
saa(lp251
Vthat
p252
a(dp253
VNamedEntityTag
p254
g135
sVCharacterOffsetEnd
p255
V64
p256
sVCharacterOffsetBegin
p257
V60
p258
sVPartOfSpeech
p259
VIN
p260
sVLemma
p261
Vthat
p262
saa(lp263
Vshe
p264
a(dp265
VNamedEntityTag
p266
g135
sVCharacterOffsetEnd
p267
V68
p268
sVCharacterOffsetBegin
p269
V65
p270
sVPartOfSpeech
p271
VPRP
p272
sVLemma
p273
Vshe
p274
saa(lp275
Vhad
p276
a(dp277
VNamedEntityTag
p278
g135
sVCharacterOffsetEnd
p279
V72
p280
sVCharacterOffsetBegin
p281
V69
p282
sVPartOfSpeech
p283
VVBD
p284
sVLemma
p285
Vhave
p286
saa(lp287
V0.4
p288
a(dp289
VNormalizedNamedEntityTag
p290
V0.4
p291
sVLemma
p292
V0.4
p293
sVCharacterOffsetEnd
p294
V76
p295
sVPartOfSpeech
p296
VCD
p297
sVCharacterOffsetBegin
p298
V73
p299
sVNamedEntityTag
p300
VNUMBER
p301
saa(lp302
Vof
p303
a(dp304
VNamedEntityTag
p305
g135
sVCharacterOffsetEnd
p306
V79
p307
sVCharacterOffsetBegin
p308
V77
p309
sVPartOfSpeech
p310
VIN
p311
sVLemma
p312
Vof
p313
saa(lp314
g81
a(dp315
VNamedEntityTag
p316
g135
sVCharacterOffsetEnd
p317
V81
p318
sVCharacterOffsetBegin
p319
V80
p320
sVPartOfSpeech
p321
VDT
p322
sVLemma
p323
g81
saa(lp324
Vbox
p325
a(dp326
VNamedEntityTag
p327
g135
sVCharacterOffsetEnd
p328
V85
p329
sVCharacterOffsetBegin
p330
V82
p331
sVPartOfSpeech
p332
VNN
p333
sVLemma
p334
Vbox
p335
saa(lp336
Vof
p337
a(dp338
VNamedEntityTag
p339
g135
sVCharacterOffsetEnd
p340
V88
p341
sVCharacterOffsetBegin
p342
V86
p343
sVPartOfSpeech
p344
VIN
p345
sVLemma
p346
Vof
p347
saa(lp348
Vbaking
p349
a(dp350
VNamedEntityTag
p351
g135
sVCharacterOffsetEnd
p352
V95
p353
sVCharacterOffsetBegin
p354
V89
p355
sVPartOfSpeech
p356
VVBG
p357
sVLemma
p358
Vbake
p359
saa(lp360
Vpowder
p361
a(dp362
VNamedEntityTag
p363
g135
sVCharacterOffsetEnd
p364
V102
p365
sVCharacterOffsetBegin
p366
V96
p367
sVPartOfSpeech
p368
VNN
p369
sVLemma
p370
Vpowder
p371
saa(lp372
Vyesterday
p373
a(dp374
VNormalizedNamedEntityTag
p375
VOFFSET
p376
sVTimex
p377
V<TIMEX3 alt_value="OFFSET P-1D" anchorTimeID="t0" temporalFunction="true" tid="t1" type="DATE" valueFromFunction="tf0">yesterday</TIMEX3>
p378
sVLemma
p379
Vyesterday
p380
sVCharacterOffsetEnd
p381
V112
p382
sVPartOfSpeech
p383
VNN
p384
sVCharacterOffsetBegin
p385
V103
p386
sVNamedEntityTag
p387
VDATE
p388
saa(lp389
g217
a(dp390
VNamedEntityTag
p391
g135
sVCharacterOffsetEnd
p392
V114
p393
sVCharacterOffsetBegin
p394
V113
p395
sVPartOfSpeech
p396
g217
sVLemma
p397
g217
saa(lp398
Vbut
p399
a(dp400
VNamedEntityTag
p401
g135
sVCharacterOffsetEnd
p402
V118
p403
sVCharacterOffsetBegin
p404
V115
p405
sVPartOfSpeech
p406
VCC
p407
sVLemma
p408
Vbut
p409
saa(lp410
Vthe
p411
a(dp412
VNamedEntityTag
p413
g135
sVCharacterOffsetEnd
p414
V122
p415
sVCharacterOffsetBegin
p416
V119
p417
sVPartOfSpeech
p418
VDT
p419
sVLemma
p420
Vthe
p421
saa(lp422
Vsupply
p423
a(dp424
VNamedEntityTag
p425
g135
sVCharacterOffsetEnd
p426
V129
p427
sVCharacterOffsetBegin
p428
V123
p429
sVPartOfSpeech
p430
VNN
p431
sVLemma
p432
Vsupply
p433
saa(lp434
Vis
p435
a(dp436
VNamedEntityTag
p437
g135
sVCharacterOffsetEnd
p438
V132
p439
sVCharacterOffsetBegin
p440
V130
p441
sVPartOfSpeech
p442
VVBZ
p443
sVLemma
p444
Vbe
p445
saa(lp446
Vnow
p447
a(dp448
VNormalizedNamedEntityTag
p449
VPRESENT_REF
p450
sVTimex
p451
V<TIMEX3 tid="t2" type="DATE" value="PRESENT_REF">now</TIMEX3>
p452
sVLemma
p453
Vnow
p454
sVCharacterOffsetEnd
p455
V136
p456
sVPartOfSpeech
p457
VRB
p458
sVCharacterOffsetBegin
p459
V133
p460
sVNamedEntityTag
p461
VDATE
p462
saa(lp463
Vdown
p464
a(dp465
VNamedEntityTag
p466
g135
sVCharacterOffsetEnd
p467
V141
p468
sVCharacterOffsetBegin
p469
V137
p470
sVPartOfSpeech
p471
VRB
p472
sVLemma
p473
Vdown
p474
saa(lp475
Vto
p476
a(dp477
VNamedEntityTag
p478
g135
sVCharacterOffsetEnd
p479
V144
p480
sVCharacterOffsetBegin
p481
V142
p482
sVPartOfSpeech
p483
VTO
p484
sVLemma
p485
Vto
p486
saa(lp487
V0.3
p488
a(dp489
VNormalizedNamedEntityTag
p490
V0.3
p491
sVLemma
p492
V0.3
p493
sVCharacterOffsetEnd
p494
V148
p495
sVPartOfSpeech
p496
VCD
p497
sVCharacterOffsetBegin
p498
V145
p499
sVNamedEntityTag
p500
VNUMBER
p501
saa(lp502
Vof
p503
a(dp504
VNamedEntityTag
p505
g135
sVCharacterOffsetEnd
p506
V151
p507
sVCharacterOffsetBegin
p508
V149
p509
sVPartOfSpeech
p510
VIN
p511
sVLemma
p512
Vof
p513
saa(lp514
g81
a(dp515
VNamedEntityTag
p516
g135
sVCharacterOffsetEnd
p517
V153
p518
sVCharacterOffsetBegin
p519
V152
p520
sVPartOfSpeech
p521
VDT
p522
sVLemma
p523
g81
saa(lp524
Vbox
p525
a(dp526
VNamedEntityTag
p527
g135
sVCharacterOffsetEnd
p528
V157
p529
sVCharacterOffsetBegin
p530
V154
p531
sVPartOfSpeech
p532
VNN
p533
sVLemma
p534
Vbox
p535
saa(lp536
V.
p537
a(dp538
VNamedEntityTag
p539
g135
sVCharacterOffsetEnd
p540
V159
p541
sVCharacterOffsetBegin
p542
V158
p543
sVPartOfSpeech
p544
g537
sVLemma
p545
g537
saasVindexeddependencies
p546
(lp547
(lp548
Vroot
p549
aVROOT-0
p550
aVrealizes-10
p551
aa(lp552
Vmark
p553
aVtaking-2
p554
aVWhile-1
p555
aa(lp556
Vadvcl
p557
aVrealizes-10
p558
aVtaking-2
p559
aa(lp560
Vdobj
p561
aVtaking-2
p562
aVinventory-3
p563
aa(lp564
Vposs
p565
aVshop-7
p566
aVher-5
p567
aa(lp568
Vnn
p569
aVshop-7
p570
aVpastry-6
p571
aa(lp572
Vprep_at
p573
aVtaking-2
p574
aVshop-7
p575
aa(lp576
Vnsubj
p577
aVrealizes-10
p578
aVKelly-9
p579
aa(lp580
Vmark
p581
aVhad-13
p582
aVthat-11
p583
aa(lp584
Vnsubj
p585
aVhad-13
p586
aVshe-12
p587
aa(lp588
Vccomp
p589
aVrealizes-10
p590
aVhad-13
p591
aa(lp592
Vdobj
p593
aVhad-13
p594
aV0.4-14
p595
aa(lp596
Vdet
p597
aVbox-17
p598
aVa-16
p599
aa(lp600
Vprep_of
p601
aV0.4-14
p602
aVbox-17
p603
aa(lp604
Vamod
p605
aVyesterday-21
p606
aVbaking-19
p607
aa(lp608
Vnn
p609
aVyesterday-21
p610
aVpowder-20
p611
aa(lp612
Vprep_of
p613
aVbox-17
p614
aVyesterday-21
p615
aa(lp616
Vdet
p617
aVsupply-25
p618
aVthe-24
p619
aa(lp620
Vnsubj
p621
aVis-26
p622
aVsupply-25
p623
aa(lp624
Vconj_but
p625
aVrealizes-10
p626
aVis-26
p627
aa(lp628
Vadvmod
p629
aVdown-28
p630
aVnow-27
p631
aa(lp632
Vadvmod
p633
aVis-26
p634
aVdown-28
p635
aa(lp636
Vprep_to
p637
aVis-26
p638
aV0.3-30
p639
aa(lp640
Vdet
p641
aVbox-33
p642
aVa-32
p643
aa(lp644
Vprep_of
p645
aV0.3-30
p646
aVbox-33
p647
aasa(dp648
Vparsetree
p649
V(ROOT (SBARQ (WHNP (WHADJP (WRB How) (RB much)) (NP (NP (RBR more)) (NP (JJ baking) (NN powder)))) (SQ (VBD did) (NP (NNP Kelly)) (VP (VB have) (NP (NN yesterday)))) (. ?)))
p650
sVtext
p651
VHow much more baking powder did Kelly have yesterday ?
p652
sVdependencies
p653
(lp654
(lp655
Vroot
p656
aVROOT
p657
aVhave
p658
aa(lp659
Vadvmod
p660
aVmuch
p661
aVHow
p662
aa(lp663
Vamod
p664
aVmore
p665
aVmuch
p666
aa(lp667
Vdep
p668
aVhave
p669
aVmore
p670
aa(lp671
Vamod
p672
aVpowder
p673
aVbaking
p674
aa(lp675
Vdep
p676
aVmore
p677
aVpowder
p678
aa(lp679
Vaux
p680
aVhave
p681
aVdid
p682
aa(lp683
Vnsubj
p684
aVhave
p685
aVKelly
p686
aa(lp687
Vtmod
p688
aVhave
p689
aVyesterday
p690
aasVwords
p691
(lp692
(lp693
VHow
p694
a(dp695
VNamedEntityTag
p696
g135
sVCharacterOffsetEnd
p697
V163
p698
sVCharacterOffsetBegin
p699
V160
p700
sVPartOfSpeech
p701
VWRB
p702
sVLemma
p703
Vhow
p704
saa(lp705
Vmuch
p706
a(dp707
VNamedEntityTag
p708
g135
sVCharacterOffsetEnd
p709
V168
p710
sVCharacterOffsetBegin
p711
V164
p712
sVPartOfSpeech
p713
VRB
p714
sVLemma
p715
Vmuch
p716
saa(lp717
Vmore
p718
a(dp719
VNamedEntityTag
p720
g135
sVCharacterOffsetEnd
p721
V173
p722
sVCharacterOffsetBegin
p723
V169
p724
sVPartOfSpeech
p725
VRBR
p726
sVLemma
p727
Vmore
p728
saa(lp729
Vbaking
p730
a(dp731
VNamedEntityTag
p732
g135
sVCharacterOffsetEnd
p733
V180
p734
sVCharacterOffsetBegin
p735
V174
p736
sVPartOfSpeech
p737
VJJ
p738
sVLemma
p739
Vbaking
p740
saa(lp741
Vpowder
p742
a(dp743
VNamedEntityTag
p744
g135
sVCharacterOffsetEnd
p745
V187
p746
sVCharacterOffsetBegin
p747
V181
p748
sVPartOfSpeech
p749
VNN
p750
sVLemma
p751
Vpowder
p752
saa(lp753
Vdid
p754
a(dp755
VNamedEntityTag
p756
g135
sVCharacterOffsetEnd
p757
V191
p758
sVCharacterOffsetBegin
p759
V188
p760
sVPartOfSpeech
p761
VVBD
p762
sVLemma
p763
Vdo
p764
saa(lp765
VKelly
p766
a(dp767
VNamedEntityTag
p768
VPERSON
p769
sVCharacterOffsetEnd
p770
V197
p771
sVCharacterOffsetBegin
p772
V192
p773
sVPartOfSpeech
p774
VNNP
p775
sVLemma
p776
VKelly
p777
saa(lp778
Vhave
p779
a(dp780
VNamedEntityTag
p781
g135
sVCharacterOffsetEnd
p782
V202
p783
sVCharacterOffsetBegin
p784
V198
p785
sVPartOfSpeech
p786
VVB
p787
sVLemma
p788
Vhave
p789
saa(lp790
Vyesterday
p791
a(dp792
VNormalizedNamedEntityTag
p793
VOFFSET
p794
sVTimex
p795
V<TIMEX3 alt_value="OFFSET P-1D" anchorTimeID="t0" temporalFunction="true" tid="t1" type="DATE" valueFromFunction="tf0">yesterday</TIMEX3>
p796
sVLemma
p797
Vyesterday
p798
sVCharacterOffsetEnd
p799
V212
p800
sVPartOfSpeech
p801
VNN
p802
sVCharacterOffsetBegin
p803
V203
p804
sVNamedEntityTag
p805
VDATE
p806
saa(lp807
V?
p808
a(dp809
VNamedEntityTag
p810
g135
sVCharacterOffsetEnd
p811
V214
p812
sVCharacterOffsetBegin
p813
V213
p814
sVPartOfSpeech
p815
g537
sVLemma
p816
g808
saasVindexeddependencies
p817
(lp818
(lp819
Vroot
p820
aVROOT-0
p821
aVhave-8
p822
aa(lp823
Vadvmod
p824
aVmuch-2
p825
aVHow-1
p826
aa(lp827
Vamod
p828
aVmore-3
p829
aVmuch-2
p830
aa(lp831
Vdep
p832
aVhave-8
p833
aVmore-3
p834
aa(lp835
Vamod
p836
aVpowder-5
p837
aVbaking-4
p838
aa(lp839
Vdep
p840
aVmore-3
p841
aVpowder-5
p842
aa(lp843
Vaux
p844
aVhave-8
p845
aVdid-6
p846
aa(lp847
Vnsubj
p848
aVhave-8
p849
aVKelly-7
p850
aa(lp851
Vtmod
p852
aVhave-8
p853
aVyesterday-9
p854
aasas.