(dp0
Vcoref
p1
(lp2
(lp3
(lp4
(lp5
Vthe bears
p6
aI1
aI3
aI2
aI4
aa(lp7
V4 giant stuffed bears in stock when they got another shipment with 10 bears in it
p8
aI0
aI7
aI4
aI20
aaaa(lp9
(lp10
(lp11
Vit
p12
aI0
aI19
aI19
aI20
aa(lp13
Vanother shipment
p14
aI0
aI14
aI13
aI15
aaaa(lp15
(lp16
(lp17
Vthey
p18
aI2
aI4
aI4
aI5
aa(lp19
VThe
p20
aI1
aI0
aI0
aI1
aaaasVsentences
p21
(lp22
(dp23
Vparsetree
p24
V(ROOT (S (NP (DT A) (NN toy) (NN store)) (VP (VBD had) (NP (NP (ADJP (CD 4)) (JJ giant) (VBN stuffed) (NNS bears)) (PP (IN in) (NP (NP (NN stock)) (SBAR (WHADVP (WRB when)) (S (NP (PRP they)) (VP (VBD got) (NP (DT another) (NN shipment)) (PP (IN with) (NP (CD 10) (NNS bears))) (PP (IN in) (NP (PRP it)))))))))) (. .)))
p25
sVtext
p26
VA toy store had 4 giant stuffed bears in stock when they got another shipment with 10 bears in it .
p27
sVdependencies
p28
(lp29
(lp30
Vroot
p31
aVROOT
p32
aVhad
p33
aa(lp34
Vdet
p35
aVstore
p36
aVA
p37
aa(lp38
Vnn
p39
aVstore
p40
aVtoy
p41
aa(lp42
Vnsubj
p43
aVhad
p44
aVstore
p45
aa(lp46
Vamod
p47
aVbears
p48
aV4
p49
aa(lp50
Vamod
p51
aVbears
p52
aVgiant
p53
aa(lp54
Vamod
p55
aVbears
p56
aVstuffed
p57
aa(lp58
Vdobj
p59
aVhad
p60
aVbears
p61
aa(lp62
Vprep_in
p63
aVbears
p64
aVstock
p65
aa(lp66
Vadvmod
p67
aVgot
p68
aVwhen
p69
aa(lp70
Vnsubj
p71
aVgot
p72
aVthey
p73
aa(lp74
Vrcmod
p75
aVstock
p76
aVgot
p77
aa(lp78
Vdet
p79
aVshipment
p80
aVanother
p81
aa(lp82
Vdobj
p83
aVgot
p84
aVshipment
p85
aa(lp86
Vnum
p87
aVbears
p88
aV10
p89
aa(lp90
Vprep_with
p91
aVgot
p92
aVbears
p93
aa(lp94
Vprep_in
p95
aVgot
p96
aVit
p97
aasVwords
p98
(lp99
(lp100
g37
a(dp101
VNamedEntityTag
p102
VO
p103
sVCharacterOffsetEnd
p104
V2
p105
sVCharacterOffsetBegin
p106
V1
p107
sVPartOfSpeech
p108
VDT
p109
sVLemma
p110
Va
p111
saa(lp112
Vtoy
p113
a(dp114
VNamedEntityTag
p115
g103
sVCharacterOffsetEnd
p116
V6
p117
sVCharacterOffsetBegin
p118
V3
p119
sVPartOfSpeech
p120
VNN
p121
sVLemma
p122
Vtoy
p123
saa(lp124
Vstore
p125
a(dp126
VNamedEntityTag
p127
g103
sVCharacterOffsetEnd
p128
V12
p129
sVCharacterOffsetBegin
p130
V7
p131
sVPartOfSpeech
p132
VNN
p133
sVLemma
p134
Vstore
p135
saa(lp136
Vhad
p137
a(dp138
VNamedEntityTag
p139
g103
sVCharacterOffsetEnd
p140
V16
p141
sVCharacterOffsetBegin
p142
V13
p143
sVPartOfSpeech
p144
VVBD
p145
sVLemma
p146
Vhave
p147
saa(lp148
g49
a(dp149
VNormalizedNamedEntityTag
p150
V4.0
p151
sVLemma
p152
g49
sVCharacterOffsetEnd
p153
V18
p154
sVPartOfSpeech
p155
VCD
p156
sVCharacterOffsetBegin
p157
V17
p158
sVNamedEntityTag
p159
VNUMBER
p160
saa(lp161
Vgiant
p162
a(dp163
VNamedEntityTag
p164
g103
sVCharacterOffsetEnd
p165
V24
p166
sVCharacterOffsetBegin
p167
V19
p168
sVPartOfSpeech
p169
VJJ
p170
sVLemma
p171
Vgiant
p172
saa(lp173
Vstuffed
p174
a(dp175
VNamedEntityTag
p176
g103
sVCharacterOffsetEnd
p177
V32
p178
sVCharacterOffsetBegin
p179
V25
p180
sVPartOfSpeech
p181
VVBN
p182
sVLemma
p183
Vstuff
p184
saa(lp185
Vbears
p186
a(dp187
VNamedEntityTag
p188
g103
sVCharacterOffsetEnd
p189
V38
p190
sVCharacterOffsetBegin
p191
V33
p192
sVPartOfSpeech
p193
VNNS
p194
sVLemma
p195
Vbear
p196
saa(lp197
Vin
p198
a(dp199
VNamedEntityTag
p200
g103
sVCharacterOffsetEnd
p201
V41
p202
sVCharacterOffsetBegin
p203
V39
p204
sVPartOfSpeech
p205
VIN
p206
sVLemma
p207
Vin
p208
saa(lp209
Vstock
p210
a(dp211
VNamedEntityTag
p212
g103
sVCharacterOffsetEnd
p213
V47
p214
sVCharacterOffsetBegin
p215
V42
p216
sVPartOfSpeech
p217
VNN
p218
sVLemma
p219
Vstock
p220
saa(lp221
Vwhen
p222
a(dp223
VNamedEntityTag
p224
g103
sVCharacterOffsetEnd
p225
V52
p226
sVCharacterOffsetBegin
p227
V48
p228
sVPartOfSpeech
p229
VWRB
p230
sVLemma
p231
Vwhen
p232
saa(lp233
Vthey
p234
a(dp235
VNamedEntityTag
p236
g103
sVCharacterOffsetEnd
p237
V57
p238
sVCharacterOffsetBegin
p239
V53
p240
sVPartOfSpeech
p241
VPRP
p242
sVLemma
p243
Vthey
p244
saa(lp245
Vgot
p246
a(dp247
VNamedEntityTag
p248
g103
sVCharacterOffsetEnd
p249
V61
p250
sVCharacterOffsetBegin
p251
V58
p252
sVPartOfSpeech
p253
VVBD
p254
sVLemma
p255
Vget
p256
saa(lp257
Vanother
p258
a(dp259
VNamedEntityTag
p260
g103
sVCharacterOffsetEnd
p261
V69
p262
sVCharacterOffsetBegin
p263
V62
p264
sVPartOfSpeech
p265
VDT
p266
sVLemma
p267
Vanother
p268
saa(lp269
Vshipment
p270
a(dp271
VNamedEntityTag
p272
g103
sVCharacterOffsetEnd
p273
V78
p274
sVCharacterOffsetBegin
p275
V70
p276
sVPartOfSpeech
p277
VNN
p278
sVLemma
p279
Vshipment
p280
saa(lp281
Vwith
p282
a(dp283
VNamedEntityTag
p284
g103
sVCharacterOffsetEnd
p285
V83
p286
sVCharacterOffsetBegin
p287
V79
p288
sVPartOfSpeech
p289
VIN
p290
sVLemma
p291
Vwith
p292
saa(lp293
V10
p294
a(dp295
VNormalizedNamedEntityTag
p296
V10.0
p297
sVLemma
p298
V10
p299
sVCharacterOffsetEnd
p300
V86
p301
sVPartOfSpeech
p302
VCD
p303
sVCharacterOffsetBegin
p304
V84
p305
sVNamedEntityTag
p306
VNUMBER
p307
saa(lp308
Vbears
p309
a(dp310
VNamedEntityTag
p311
g103
sVCharacterOffsetEnd
p312
V92
p313
sVCharacterOffsetBegin
p314
V87
p315
sVPartOfSpeech
p316
VNNS
p317
sVLemma
p318
Vbear
p319
saa(lp320
Vin
p321
a(dp322
VNamedEntityTag
p323
g103
sVCharacterOffsetEnd
p324
V95
p325
sVCharacterOffsetBegin
p326
V93
p327
sVPartOfSpeech
p328
VIN
p329
sVLemma
p330
Vin
p331
saa(lp332
Vit
p333
a(dp334
VNamedEntityTag
p335
g103
sVCharacterOffsetEnd
p336
V98
p337
sVCharacterOffsetBegin
p338
V96
p339
sVPartOfSpeech
p340
VPRP
p341
sVLemma
p342
Vit
p343
saa(lp344
V.
p345
a(dp346
VNamedEntityTag
p347
g103
sVCharacterOffsetEnd
p348
V100
p349
sVCharacterOffsetBegin
p350
V99
p351
sVPartOfSpeech
p352
g345
sVLemma
p353
g345
saasVindexeddependencies
p354
(lp355
(lp356
Vroot
p357
aVROOT-0
p358
aVhad-4
p359
aa(lp360
Vdet
p361
aVstore-3
p362
aVA-1
p363
aa(lp364
Vnn
p365
aVstore-3
p366
aVtoy-2
p367
aa(lp368
Vnsubj
p369
aVhad-4
p370
aVstore-3
p371
aa(lp372
Vamod
p373
aVbears-8
p374
aV4-5
p375
aa(lp376
Vamod
p377
aVbears-8
p378
aVgiant-6
p379
aa(lp380
Vamod
p381
aVbears-8
p382
aVstuffed-7
p383
aa(lp384
Vdobj
p385
aVhad-4
p386
aVbears-8
p387
aa(lp388
Vprep_in
p389
aVbears-8
p390
aVstock-10
p391
aa(lp392
Vadvmod
p393
aVgot-13
p394
aVwhen-11
p395
aa(lp396
Vnsubj
p397
aVgot-13
p398
aVthey-12
p399
aa(lp400
Vrcmod
p401
aVstock-10
p402
aVgot-13
p403
aa(lp404
Vdet
p405
aVshipment-15
p406
aVanother-14
p407
aa(lp408
Vdobj
p409
aVgot-13
p410
aVshipment-15
p411
aa(lp412
Vnum
p413
aVbears-18
p414
aV10-17
p415
aa(lp416
Vprep_with
p417
aVgot-13
p418
aVbears-18
p419
aa(lp420
Vprep_in
p421
aVgot-13
p422
aVit-20
p423
aasa(dp424
Vparsetree
p425
V(ROOT (S (NP (DT The)) (VP (VBN put) (NP (DT the) (NNS bears)) (PP (IN onto) (NP (NP (NNS shelves)) (PP (IN with) (NP (CD 7))))) (PP (IN on) (NP (DT each) (NN shelf)))) (. .)))
p426
sVtext
p427
VThe put the bears onto shelves with 7 on each shelf .
p428
sVdependencies
p429
(lp430
(lp431
Vroot
p432
aVROOT
p433
aVput
p434
aa(lp435
Vnsubj
p436
aVput
p437
aVThe
p438
aa(lp439
Vdet
p440
aVbears
p441
aVthe
p442
aa(lp443
Vdobj
p444
aVput
p445
aVbears
p446
aa(lp447
Vprep_onto
p448
aVput
p449
aVshelves
p450
aa(lp451
Vprep_with
p452
aVshelves
p453
ag131
aa(lp454
Vdet
p455
aVshelf
p456
aVeach
p457
aa(lp458
Vprep_on
p459
aVput
p460
aVshelf
p461
aasVwords
p462
(lp463
(lp464
VThe
p465
a(dp466
VNamedEntityTag
p467
g103
sVCharacterOffsetEnd
p468
V104
p469
sVCharacterOffsetBegin
p470
V101
p471
sVPartOfSpeech
p472
VDT
p473
sVLemma
p474
Vthe
p475
saa(lp476
Vput
p477
a(dp478
VNamedEntityTag
p479
g103
sVCharacterOffsetEnd
p480
V108
p481
sVCharacterOffsetBegin
p482
V105
p483
sVPartOfSpeech
p484
VVBN
p485
sVLemma
p486
Vput
p487
saa(lp488
Vthe
p489
a(dp490
VNamedEntityTag
p491
g103
sVCharacterOffsetEnd
p492
V112
p493
sVCharacterOffsetBegin
p494
V109
p495
sVPartOfSpeech
p496
VDT
p497
sVLemma
p498
Vthe
p499
saa(lp500
Vbears
p501
a(dp502
VNamedEntityTag
p503
g103
sVCharacterOffsetEnd
p504
V118
p505
sVCharacterOffsetBegin
p506
V113
p507
sVPartOfSpeech
p508
VNNS
p509
sVLemma
p510
Vbear
p511
saa(lp512
Vonto
p513
a(dp514
VNamedEntityTag
p515
g103
sVCharacterOffsetEnd
p516
V123
p517
sVCharacterOffsetBegin
p518
V119
p519
sVPartOfSpeech
p520
VIN
p521
sVLemma
p522
Vonto
p523
saa(lp524
Vshelves
p525
a(dp526
VNamedEntityTag
p527
g103
sVCharacterOffsetEnd
p528
V131
p529
sVCharacterOffsetBegin
p530
V124
p531
sVPartOfSpeech
p532
VNNS
p533
sVLemma
p534
Vshelf
p535
saa(lp536
Vwith
p537
a(dp538
VNamedEntityTag
p539
g103
sVCharacterOffsetEnd
p540
V136
p541
sVCharacterOffsetBegin
p542
V132
p543
sVPartOfSpeech
p544
VIN
p545
sVLemma
p546
Vwith
p547
saa(lp548
g131
a(dp549
VNormalizedNamedEntityTag
p550
V7.0
p551
sVLemma
p552
g131
sVCharacterOffsetEnd
p553
V138
p554
sVPartOfSpeech
p555
VCD
p556
sVCharacterOffsetBegin
p557
V137
p558
sVNamedEntityTag
p559
VNUMBER
p560
saa(lp561
Von
p562
a(dp563
VNamedEntityTag
p564
g103
sVCharacterOffsetEnd
p565
V141
p566
sVCharacterOffsetBegin
p567
V139
p568
sVPartOfSpeech
p569
VIN
p570
sVLemma
p571
Von
p572
saa(lp573
Veach
p574
a(dp575
VNamedEntityTag
p576
g103
sVCharacterOffsetEnd
p577
V146
p578
sVCharacterOffsetBegin
p579
V142
p580
sVPartOfSpeech
p581
VDT
p582
sVLemma
p583
Veach
p584
saa(lp585
Vshelf
p586
a(dp587
VNamedEntityTag
p588
g103
sVCharacterOffsetEnd
p589
V152
p590
sVCharacterOffsetBegin
p591
V147
p592
sVPartOfSpeech
p593
VNN
p594
sVLemma
p595
Vshelf
p596
saa(lp597
g345
a(dp598
VNamedEntityTag
p599
g103
sVCharacterOffsetEnd
p600
V154
p601
sVCharacterOffsetBegin
p602
V153
p603
sVPartOfSpeech
p604
g345
sVLemma
p605
g345
saasVindexeddependencies
p606
(lp607
(lp608
Vroot
p609
aVROOT-0
p610
aVput-2
p611
aa(lp612
Vnsubj
p613
aVput-2
p614
aVThe-1
p615
aa(lp616
Vdet
p617
aVbears-4
p618
aVthe-3
p619
aa(lp620
Vdobj
p621
aVput-2
p622
aVbears-4
p623
aa(lp624
Vprep_onto
p625
aVput-2
p626
aVshelves-6
p627
aa(lp628
Vprep_with
p629
aVshelves-6
p630
aV7-8
p631
aa(lp632
Vdet
p633
aVshelf-11
p634
aVeach-10
p635
aa(lp636
Vprep_on
p637
aVput-2
p638
aVshelf-11
p639
aasa(dp640
Vparsetree
p641
V(ROOT (SBARQ (WHNP (WHADJP (WRB How) (JJ many)) (NNS shelves)) (SQ (VBD did) (NP (PRP they)) (VP (VB use))) (. ?)))
p642
sVtext
p643
VHow many shelves did they use ?
p644
sVdependencies
p645
(lp646
(lp647
Vroot
p648
aVROOT
p649
aVuse
p650
aa(lp651
Vadvmod
p652
aVmany
p653
aVHow
p654
aa(lp655
Vamod
p656
aVshelves
p657
aVmany
p658
aa(lp659
Vdobj
p660
aVuse
p661
aVshelves
p662
aa(lp663
Vaux
p664
aVuse
p665
aVdid
p666
aa(lp667
Vnsubj
p668
aVuse
p669
aVthey
p670
aasVwords
p671
(lp672
(lp673
VHow
p674
a(dp675
VNamedEntityTag
p676
g103
sVCharacterOffsetEnd
p677
V158
p678
sVCharacterOffsetBegin
p679
V155
p680
sVPartOfSpeech
p681
VWRB
p682
sVLemma
p683
Vhow
p684
saa(lp685
Vmany
p686
a(dp687
VNamedEntityTag
p688
g103
sVCharacterOffsetEnd
p689
V163
p690
sVCharacterOffsetBegin
p691
V159
p692
sVPartOfSpeech
p693
VJJ
p694
sVLemma
p695
Vmany
p696
saa(lp697
Vshelves
p698
a(dp699
VNamedEntityTag
p700
g103
sVCharacterOffsetEnd
p701
V171
p702
sVCharacterOffsetBegin
p703
V164
p704
sVPartOfSpeech
p705
VNNS
p706
sVLemma
p707
Vshelf
p708
saa(lp709
Vdid
p710
a(dp711
VNamedEntityTag
p712
g103
sVCharacterOffsetEnd
p713
V175
p714
sVCharacterOffsetBegin
p715
V172
p716
sVPartOfSpeech
p717
VVBD
p718
sVLemma
p719
Vdo
p720
saa(lp721
Vthey
p722
a(dp723
VNamedEntityTag
p724
g103
sVCharacterOffsetEnd
p725
V180
p726
sVCharacterOffsetBegin
p727
V176
p728
sVPartOfSpeech
p729
VPRP
p730
sVLemma
p731
Vthey
p732
saa(lp733
Vuse
p734
a(dp735
VNamedEntityTag
p736
g103
sVCharacterOffsetEnd
p737
V184
p738
sVCharacterOffsetBegin
p739
V181
p740
sVPartOfSpeech
p741
VVB
p742
sVLemma
p743
Vuse
p744
saa(lp745
V?
p746
a(dp747
VNamedEntityTag
p748
g103
sVCharacterOffsetEnd
p749
V186
p750
sVCharacterOffsetBegin
p751
V185
p752
sVPartOfSpeech
p753
g345
sVLemma
p754
g746
saasVindexeddependencies
p755
(lp756
(lp757
Vroot
p758
aVROOT-0
p759
aVuse-6
p760
aa(lp761
Vadvmod
p762
aVmany-2
p763
aVHow-1
p764
aa(lp765
Vamod
p766
aVshelves-3
p767
aVmany-2
p768
aa(lp769
Vdobj
p770
aVuse-6
p771
aVshelves-3
p772
aa(lp773
Vaux
p774
aVuse-6
p775
aVdid-4
p776
aa(lp777
Vnsubj
p778
aVuse-6
p779
aVthey-5
p780
aasas.