(dp0
Vcoref
p1
(lp2
(lp3
(lp4
(lp5
Vthey
p6
aI1
aI21
aI21
aI22
aa(lp7
V4 people
p8
aI1
aI6
aI5
aI7
aaaasVsentences
p9
(lp10
(dp11
Vparsetree
p12
V(ROOT (S (NP (NP (NNP Debby) (POS 's)) (NN class)) (VP (VBZ is) (VP (VBG going) (PP (IN on) (NP (DT a) (NN field) (NN trip))) (PP (TO to) (NP (DT the) (NN zoo))))) (. .)))
p13
sVtext
p14
VDebby's class is going on a field trip to the zoo .
p15
sVdependencies
p16
(lp17
(lp18
Vroot
p19
aVROOT
p20
aVgoing
p21
aa(lp22
Vposs
p23
aVclass
p24
aVDebby
p25
aa(lp26
Vnsubj
p27
aVgoing
p28
aVclass
p29
aa(lp30
Vaux
p31
aVgoing
p32
aVis
p33
aa(lp34
Vdet
p35
aVtrip
p36
aVa
p37
aa(lp38
Vnn
p39
aVtrip
p40
aVfield
p41
aa(lp42
Vprep_on
p43
aVgoing
p44
aVtrip
p45
aa(lp46
Vdet
p47
aVzoo
p48
aVthe
p49
aa(lp50
Vprep_to
p51
aVgoing
p52
aVzoo
p53
aasVwords
p54
(lp55
(lp56
VDebby
p57
a(dp58
VNamedEntityTag
p59
VPERSON
p60
sVCharacterOffsetEnd
p61
V6
p62
sVCharacterOffsetBegin
p63
V1
p64
sVPartOfSpeech
p65
VNNP
p66
sVLemma
p67
VDebby
p68
saa(lp69
V's
p70
a(dp71
VNamedEntityTag
p72
VO
p73
sVCharacterOffsetEnd
p74
V8
p75
sVCharacterOffsetBegin
p76
g62
sVPartOfSpeech
p77
VPOS
p78
sVLemma
p79
V's
p80
saa(lp81
Vclass
p82
a(dp83
VNamedEntityTag
p84
g73
sVCharacterOffsetEnd
p85
V14
p86
sVCharacterOffsetBegin
p87
V9
p88
sVPartOfSpeech
p89
VNN
p90
sVLemma
p91
Vclass
p92
saa(lp93
Vis
p94
a(dp95
VNamedEntityTag
p96
g73
sVCharacterOffsetEnd
p97
V17
p98
sVCharacterOffsetBegin
p99
V15
p100
sVPartOfSpeech
p101
VVBZ
p102
sVLemma
p103
Vbe
p104
saa(lp105
Vgoing
p106
a(dp107
VNamedEntityTag
p108
g73
sVCharacterOffsetEnd
p109
V23
p110
sVCharacterOffsetBegin
p111
V18
p112
sVPartOfSpeech
p113
VVBG
p114
sVLemma
p115
Vgo
p116
saa(lp117
Von
p118
a(dp119
VNamedEntityTag
p120
g73
sVCharacterOffsetEnd
p121
V26
p122
sVCharacterOffsetBegin
p123
V24
p124
sVPartOfSpeech
p125
VIN
p126
sVLemma
p127
Von
p128
saa(lp129
g37
a(dp130
VNamedEntityTag
p131
g73
sVCharacterOffsetEnd
p132
V28
p133
sVCharacterOffsetBegin
p134
V27
p135
sVPartOfSpeech
p136
VDT
p137
sVLemma
p138
g37
saa(lp139
Vfield
p140
a(dp141
VNamedEntityTag
p142
g73
sVCharacterOffsetEnd
p143
V34
p144
sVCharacterOffsetBegin
p145
V29
p146
sVPartOfSpeech
p147
VNN
p148
sVLemma
p149
Vfield
p150
saa(lp151
Vtrip
p152
a(dp153
VNamedEntityTag
p154
g73
sVCharacterOffsetEnd
p155
V39
p156
sVCharacterOffsetBegin
p157
V35
p158
sVPartOfSpeech
p159
VNN
p160
sVLemma
p161
Vtrip
p162
saa(lp163
Vto
p164
a(dp165
VNamedEntityTag
p166
g73
sVCharacterOffsetEnd
p167
V42
p168
sVCharacterOffsetBegin
p169
V40
p170
sVPartOfSpeech
p171
VTO
p172
sVLemma
p173
Vto
p174
saa(lp175
Vthe
p176
a(dp177
VNamedEntityTag
p178
g73
sVCharacterOffsetEnd
p179
V46
p180
sVCharacterOffsetBegin
p181
V43
p182
sVPartOfSpeech
p183
VDT
p184
sVLemma
p185
Vthe
p186
saa(lp187
Vzoo
p188
a(dp189
VNamedEntityTag
p190
g73
sVCharacterOffsetEnd
p191
V50
p192
sVCharacterOffsetBegin
p193
V47
p194
sVPartOfSpeech
p195
VNN
p196
sVLemma
p197
Vzoo
p198
saa(lp199
V.
p200
a(dp201
VNamedEntityTag
p202
g73
sVCharacterOffsetEnd
p203
V52
p204
sVCharacterOffsetBegin
p205
V51
p206
sVPartOfSpeech
p207
g200
sVLemma
p208
g200
saasVindexeddependencies
p209
(lp210
(lp211
Vroot
p212
aVROOT-0
p213
aVgoing-5
p214
aa(lp215
Vposs
p216
aVclass-3
p217
aVDebby-1
p218
aa(lp219
Vnsubj
p220
aVgoing-5
p221
aVclass-3
p222
aa(lp223
Vaux
p224
aVgoing-5
p225
aVis-4
p226
aa(lp227
Vdet
p228
aVtrip-9
p229
aVa-7
p230
aa(lp231
Vnn
p232
aVtrip-9
p233
aVfield-8
p234
aa(lp235
Vprep_on
p236
aVgoing-5
p237
aVtrip-9
p238
aa(lp239
Vdet
p240
aVzoo-12
p241
aVthe-11
p242
aa(lp243
Vprep_to
p244
aVgoing-5
p245
aVzoo-12
p246
aasa(dp247
Vparsetree
p248
V(ROOT (SBARQ (SBAR (IN If) (S (S (NP (DT each) (NN van)) (VP (MD can) (VP (VB hold) (NP (CD 4) (NNS people))))) (CC and) (S (NP (EX there)) (VP (VBP are) (NP (NP (CD 2) (NNS students)) (CC and) (NP (NP (CD 6) (NNS adults)) (VP (VBG going)))))))) (, ,) (WHNP (WHADJP (WRB how) (JJ many)) (NNS vans)) (SQ (MD will) (NP (PRP they)) (VP (VB need))) (. ?)))
p249
sVtext
p250
VIf each van can hold 4 people and there are 2 students and 6 adults going , how many vans will they need ?
p251
sVdependencies
p252
(lp253
(lp254
Vroot
p255
aVROOT
p256
aVneed
p257
aa(lp258
Vmark
p259
aVhold
p260
aVIf
p261
aa(lp262
Vdet
p263
aVvan
p264
aVeach
p265
aa(lp266
Vnsubj
p267
aVhold
p268
aVvan
p269
aa(lp270
Vaux
p271
aVhold
p272
aVcan
p273
aa(lp274
Vadvcl
p275
aVneed
p276
aVhold
p277
aa(lp278
Vnum
p279
aVpeople
p280
aV4
p281
aa(lp282
Vdobj
p283
aVhold
p284
aVpeople
p285
aa(lp286
Vexpl
p287
aVare
p288
aVthere
p289
aa(lp290
Vconj_and
p291
aVhold
p292
aVare
p293
aa(lp294
Vnum
p295
aVstudents
p296
aV2
p297
aa(lp298
Vnsubj
p299
aVare
p300
aVstudents
p301
aa(lp302
Vnum
p303
aVadults
p304
ag62
aa(lp305
Vconj_and
p306
aVstudents
p307
aVadults
p308
aa(lp309
Vvmod
p310
aVadults
p311
aVgoing
p312
aa(lp313
Vadvmod
p314
aVmany
p315
aVhow
p316
aa(lp317
Vamod
p318
aVvans
p319
aVmany
p320
aa(lp321
Vdobj
p322
aVneed
p323
aVvans
p324
aa(lp325
Vaux
p326
aVneed
p327
aVwill
p328
aa(lp329
Vnsubj
p330
aVneed
p331
aVthey
p332
aasVwords
p333
(lp334
(lp335
VIf
p336
a(dp337
VNamedEntityTag
p338
g73
sVCharacterOffsetEnd
p339
V55
p340
sVCharacterOffsetBegin
p341
V53
p342
sVPartOfSpeech
p343
VIN
p344
sVLemma
p345
Vif
p346
saa(lp347
Veach
p348
a(dp349
VNamedEntityTag
p350
g73
sVCharacterOffsetEnd
p351
V60
p352
sVCharacterOffsetBegin
p353
V56
p354
sVPartOfSpeech
p355
VDT
p356
sVLemma
p357
Veach
p358
saa(lp359
Vvan
p360
a(dp361
VNamedEntityTag
p362
g73
sVCharacterOffsetEnd
p363
V64
p364
sVCharacterOffsetBegin
p365
V61
p366
sVPartOfSpeech
p367
VNN
p368
sVLemma
p369
Vvan
p370
saa(lp371
Vcan
p372
a(dp373
VNamedEntityTag
p374
g73
sVCharacterOffsetEnd
p375
V68
p376
sVCharacterOffsetBegin
p377
V65
p378
sVPartOfSpeech
p379
VMD
p380
sVLemma
p381
Vcan
p382
saa(lp383
Vhold
p384
a(dp385
VNamedEntityTag
p386
g73
sVCharacterOffsetEnd
p387
V73
p388
sVCharacterOffsetBegin
p389
V69
p390
sVPartOfSpeech
p391
VVB
p392
sVLemma
p393
Vhold
p394
saa(lp395
g281
a(dp396
VNormalizedNamedEntityTag
p397
V4.0
p398
sVLemma
p399
g281
sVCharacterOffsetEnd
p400
V75
p401
sVPartOfSpeech
p402
VCD
p403
sVCharacterOffsetBegin
p404
V74
p405
sVNamedEntityTag
p406
VNUMBER
p407
saa(lp408
Vpeople
p409
a(dp410
VNamedEntityTag
p411
g73
sVCharacterOffsetEnd
p412
V82
p413
sVCharacterOffsetBegin
p414
V76
p415
sVPartOfSpeech
p416
VNNS
p417
sVLemma
p418
Vpeople
p419
saa(lp420
Vand
p421
a(dp422
VNamedEntityTag
p423
g73
sVCharacterOffsetEnd
p424
V86
p425
sVCharacterOffsetBegin
p426
V83
p427
sVPartOfSpeech
p428
VCC
p429
sVLemma
p430
Vand
p431
saa(lp432
Vthere
p433
a(dp434
VNamedEntityTag
p435
g73
sVCharacterOffsetEnd
p436
V92
p437
sVCharacterOffsetBegin
p438
V87
p439
sVPartOfSpeech
p440
VEX
p441
sVLemma
p442
Vthere
p443
saa(lp444
Vare
p445
a(dp446
VNamedEntityTag
p447
g73
sVCharacterOffsetEnd
p448
V96
p449
sVCharacterOffsetBegin
p450
V93
p451
sVPartOfSpeech
p452
VVBP
p453
sVLemma
p454
Vbe
p455
saa(lp456
g297
a(dp457
VNormalizedNamedEntityTag
p458
V2.0
p459
sVLemma
p460
g297
sVCharacterOffsetEnd
p461
V98
p462
sVPartOfSpeech
p463
VCD
p464
sVCharacterOffsetBegin
p465
V97
p466
sVNamedEntityTag
p467
VNUMBER
p468
saa(lp469
Vstudents
p470
a(dp471
VNamedEntityTag
p472
g73
sVCharacterOffsetEnd
p473
V107
p474
sVCharacterOffsetBegin
p475
V99
p476
sVPartOfSpeech
p477
VNNS
p478
sVLemma
p479
Vstudent
p480
saa(lp481
Vand
p482
a(dp483
VNamedEntityTag
p484
g73
sVCharacterOffsetEnd
p485
V111
p486
sVCharacterOffsetBegin
p487
V108
p488
sVPartOfSpeech
p489
VCC
p490
sVLemma
p491
Vand
p492
saa(lp493
g62
a(dp494
VNormalizedNamedEntityTag
p495
V6.0
p496
sVLemma
p497
g62
sVCharacterOffsetEnd
p498
V113
p499
sVPartOfSpeech
p500
VCD
p501
sVCharacterOffsetBegin
p502
V112
p503
sVNamedEntityTag
p504
VNUMBER
p505
saa(lp506
Vadults
p507
a(dp508
VNamedEntityTag
p509
g73
sVCharacterOffsetEnd
p510
V120
p511
sVCharacterOffsetBegin
p512
V114
p513
sVPartOfSpeech
p514
VNNS
p515
sVLemma
p516
Vadult
p517
saa(lp518
Vgoing
p519
a(dp520
VNamedEntityTag
p521
g73
sVCharacterOffsetEnd
p522
V126
p523
sVCharacterOffsetBegin
p524
V121
p525
sVPartOfSpeech
p526
VVBG
p527
sVLemma
p528
Vgo
p529
saa(lp530
V,
p531
a(dp532
VNamedEntityTag
p533
g73
sVCharacterOffsetEnd
p534
V128
p535
sVCharacterOffsetBegin
p536
V127
p537
sVPartOfSpeech
p538
g531
sVLemma
p539
g531
saa(lp540
Vhow
p541
a(dp542
VNamedEntityTag
p543
g73
sVCharacterOffsetEnd
p544
V132
p545
sVCharacterOffsetBegin
p546
V129
p547
sVPartOfSpeech
p548
VWRB
p549
sVLemma
p550
Vhow
p551
saa(lp552
Vmany
p553
a(dp554
VNamedEntityTag
p555
g73
sVCharacterOffsetEnd
p556
V137
p557
sVCharacterOffsetBegin
p558
V133
p559
sVPartOfSpeech
p560
VJJ
p561
sVLemma
p562
Vmany
p563
saa(lp564
Vvans
p565
a(dp566
VNamedEntityTag
p567
g73
sVCharacterOffsetEnd
p568
V142
p569
sVCharacterOffsetBegin
p570
V138
p571
sVPartOfSpeech
p572
VNNS
p573
sVLemma
p574
Vvan
p575
saa(lp576
Vwill
p577
a(dp578
VNamedEntityTag
p579
g73
sVCharacterOffsetEnd
p580
V147
p581
sVCharacterOffsetBegin
p582
V143
p583
sVPartOfSpeech
p584
VMD
p585
sVLemma
p586
Vwill
p587
saa(lp588
Vthey
p589
a(dp590
VNamedEntityTag
p591
g73
sVCharacterOffsetEnd
p592
V152
p593
sVCharacterOffsetBegin
p594
V148
p595
sVPartOfSpeech
p596
VPRP
p597
sVLemma
p598
Vthey
p599
saa(lp600
Vneed
p601
a(dp602
VNamedEntityTag
p603
g73
sVCharacterOffsetEnd
p604
V157
p605
sVCharacterOffsetBegin
p606
V153
p607
sVPartOfSpeech
p608
VVB
p609
sVLemma
p610
Vneed
p611
saa(lp612
V?
p613
a(dp614
VNamedEntityTag
p615
g73
sVCharacterOffsetEnd
p616
V159
p617
sVCharacterOffsetBegin
p618
V158
p619
sVPartOfSpeech
p620
g200
sVLemma
p621
g613
saasVindexeddependencies
p622
(lp623
(lp624
Vroot
p625
aVROOT-0
p626
aVneed-23
p627
aa(lp628
Vmark
p629
aVhold-5
p630
aVIf-1
p631
aa(lp632
Vdet
p633
aVvan-3
p634
aVeach-2
p635
aa(lp636
Vnsubj
p637
aVhold-5
p638
aVvan-3
p639
aa(lp640
Vaux
p641
aVhold-5
p642
aVcan-4
p643
aa(lp644
Vadvcl
p645
aVneed-23
p646
aVhold-5
p647
aa(lp648
Vnum
p649
aVpeople-7
p650
aV4-6
p651
aa(lp652
Vdobj
p653
aVhold-5
p654
aVpeople-7
p655
aa(lp656
Vexpl
p657
aVare-10
p658
aVthere-9
p659
aa(lp660
Vconj_and
p661
aVhold-5
p662
aVare-10
p663
aa(lp664
Vnum
p665
aVstudents-12
p666
aV2-11
p667
aa(lp668
Vnsubj
p669
aVare-10
p670
aVstudents-12
p671
aa(lp672
Vnum
p673
aVadults-15
p674
aV6-14
p675
aa(lp676
Vconj_and
p677
aVstudents-12
p678
aVadults-15
p679
aa(lp680
Vvmod
p681
aVadults-15
p682
aVgoing-16
p683
aa(lp684
Vadvmod
p685
aVmany-19
p686
aVhow-18
p687
aa(lp688
Vamod
p689
aVvans-20
p690
aVmany-19
p691
aa(lp692
Vdobj
p693
aVneed-23
p694
aVvans-20
p695
aa(lp696
Vaux
p697
aVneed-23
p698
aVwill-21
p699
aa(lp700
Vnsubj
p701
aVneed-23
p702
aVthey-22
p703
aasas.