(dp0
Vcoref
p1
(lp2
(lp3
(lp4
(lp5
VEve
p6
aI1
aI4
aI4
aI5
aa(lp7
VEve
p8
aI0
aI0
aI0
aI1
aaaa(lp9
(lp10
(lp11
Va mile
p12
aI0
aI11
aI10
aI12
aa(lp13
Va mile
p14
aI0
aI5
aI4
aI6
aaaasVsentences
p15
(lp16
(dp17
Vparsetree
p18
V(ROOT (S (NP (NNP Eve)) (VP (VP (VBD ran) (NP (NP (CD 0.7)) (PP (IN of) (NP (DT a) (NN mile))))) (CC and) (VP (VBD walked) (NP (NP (CD 0.6)) (PP (IN of) (NP (DT a) (NN mile)))))) (. .)))
p19
sVtext
p20
VEve ran 0.7 of a mile and walked 0.6 of a mile .
p21
sVdependencies
p22
(lp23
(lp24
Vroot
p25
aVROOT
p26
aVran
p27
aa(lp28
Vnsubj
p29
aVran
p30
aVEve
p31
aa(lp32
Vdobj
p33
aVran
p34
aV0.7
p35
aa(lp36
Vdet
p37
aVmile
p38
aVa
p39
aa(lp40
Vprep_of
p41
aV0.7
p42
aVmile
p43
aa(lp44
Vconj_and
p45
aVran
p46
aVwalked
p47
aa(lp48
Vdobj
p49
aVwalked
p50
aV0.6
p51
aa(lp52
Vdet
p53
aVmile
p54
ag39
aa(lp55
Vprep_of
p56
aV0.6
p57
aVmile
p58
aasVwords
p59
(lp60
(lp61
VEve
p62
a(dp63
VNamedEntityTag
p64
VO
p65
sVCharacterOffsetEnd
p66
V4
p67
sVCharacterOffsetBegin
p68
V1
p69
sVPartOfSpeech
p70
VNNP
p71
sVLemma
p72
VEve
p73
saa(lp74
Vran
p75
a(dp76
VNamedEntityTag
p77
g65
sVCharacterOffsetEnd
p78
V8
p79
sVCharacterOffsetBegin
p80
V5
p81
sVPartOfSpeech
p82
VVBD
p83
sVLemma
p84
Vrun
p85
saa(lp86
V0.7
p87
a(dp88
VNormalizedNamedEntityTag
p89
V0.7
p90
sVLemma
p91
V0.7
p92
sVCharacterOffsetEnd
p93
V12
p94
sVPartOfSpeech
p95
VCD
p96
sVCharacterOffsetBegin
p97
V9
p98
sVNamedEntityTag
p99
VNUMBER
p100
saa(lp101
Vof
p102
a(dp103
VNamedEntityTag
p104
g65
sVCharacterOffsetEnd
p105
V15
p106
sVCharacterOffsetBegin
p107
V13
p108
sVPartOfSpeech
p109
VIN
p110
sVLemma
p111
Vof
p112
saa(lp113
g39
a(dp114
VNamedEntityTag
p115
g65
sVCharacterOffsetEnd
p116
V17
p117
sVCharacterOffsetBegin
p118
V16
p119
sVPartOfSpeech
p120
VDT
p121
sVLemma
p122
g39
saa(lp123
Vmile
p124
a(dp125
VNamedEntityTag
p126
g65
sVCharacterOffsetEnd
p127
V22
p128
sVCharacterOffsetBegin
p129
V18
p130
sVPartOfSpeech
p131
VNN
p132
sVLemma
p133
Vmile
p134
saa(lp135
Vand
p136
a(dp137
VNamedEntityTag
p138
g65
sVCharacterOffsetEnd
p139
V26
p140
sVCharacterOffsetBegin
p141
V23
p142
sVPartOfSpeech
p143
VCC
p144
sVLemma
p145
Vand
p146
saa(lp147
Vwalked
p148
a(dp149
VNamedEntityTag
p150
g65
sVCharacterOffsetEnd
p151
V33
p152
sVCharacterOffsetBegin
p153
V27
p154
sVPartOfSpeech
p155
VVBD
p156
sVLemma
p157
Vwalk
p158
saa(lp159
V0.6
p160
a(dp161
VNormalizedNamedEntityTag
p162
V0.6
p163
sVLemma
p164
V0.6
p165
sVCharacterOffsetEnd
p166
V37
p167
sVPartOfSpeech
p168
VCD
p169
sVCharacterOffsetBegin
p170
V34
p171
sVNamedEntityTag
p172
VNUMBER
p173
saa(lp174
Vof
p175
a(dp176
VNamedEntityTag
p177
g65
sVCharacterOffsetEnd
p178
V40
p179
sVCharacterOffsetBegin
p180
V38
p181
sVPartOfSpeech
p182
VIN
p183
sVLemma
p184
Vof
p185
saa(lp186
g39
a(dp187
VNamedEntityTag
p188
g65
sVCharacterOffsetEnd
p189
V42
p190
sVCharacterOffsetBegin
p191
V41
p192
sVPartOfSpeech
p193
VDT
p194
sVLemma
p195
g39
saa(lp196
Vmile
p197
a(dp198
VNamedEntityTag
p199
g65
sVCharacterOffsetEnd
p200
V47
p201
sVCharacterOffsetBegin
p202
V43
p203
sVPartOfSpeech
p204
VNN
p205
sVLemma
p206
Vmile
p207
saa(lp208
V.
p209
a(dp210
VNamedEntityTag
p211
g65
sVCharacterOffsetEnd
p212
V49
p213
sVCharacterOffsetBegin
p214
V48
p215
sVPartOfSpeech
p216
g209
sVLemma
p217
g209
saasVindexeddependencies
p218
(lp219
(lp220
Vroot
p221
aVROOT-0
p222
aVran-2
p223
aa(lp224
Vnsubj
p225
aVran-2
p226
aVEve-1
p227
aa(lp228
Vdobj
p229
aVran-2
p230
aV0.7-3
p231
aa(lp232
Vdet
p233
aVmile-6
p234
aVa-5
p235
aa(lp236
Vprep_of
p237
aV0.7-3
p238
aVmile-6
p239
aa(lp240
Vconj_and
p241
aVran-2
p242
aVwalked-8
p243
aa(lp244
Vdobj
p245
aVwalked-8
p246
aV0.6-9
p247
aa(lp248
Vdet
p249
aVmile-12
p250
aVa-11
p251
aa(lp252
Vprep_of
p253
aV0.6-9
p254
aVmile-12
p255
aasa(dp256
Vparsetree
p257
V(ROOT (SBARQ (WHNP (WHNP (WRB How) (JJ much)) (ADJP (RBR farther))) (SQ (VBD did) (NP (NNP Eve)) (VP (VB run) (PP (IN than) (S (VP (VB walk)))))) (. ?)))
p258
sVtext
p259
VHow much farther did Eve run than walk ?
p260
sVdependencies
p261
(lp262
(lp263
Vroot
p264
aVROOT
p265
aVrun
p266
aa(lp267
Vadvmod
p268
aVmuch
p269
aVHow
p270
aa(lp271
Vdobj
p272
aVrun
p273
aVmuch
p274
aa(lp275
Vamod
p276
aVmuch
p277
aVfarther
p278
aa(lp279
Vaux
p280
aVrun
p281
aVdid
p282
aa(lp283
Vnsubj
p284
aVrun
p285
aVEve
p286
aa(lp287
Vprepc_than
p288
aVrun
p289
aVwalk
p290
aasVwords
p291
(lp292
(lp293
VHow
p294
a(dp295
VNamedEntityTag
p296
g65
sVCharacterOffsetEnd
p297
V53
p298
sVCharacterOffsetBegin
p299
V50
p300
sVPartOfSpeech
p301
VWRB
p302
sVLemma
p303
Vhow
p304
saa(lp305
Vmuch
p306
a(dp307
VNamedEntityTag
p308
g65
sVCharacterOffsetEnd
p309
V58
p310
sVCharacterOffsetBegin
p311
V54
p312
sVPartOfSpeech
p313
VJJ
p314
sVLemma
p315
Vmuch
p316
saa(lp317
Vfarther
p318
a(dp319
VNamedEntityTag
p320
g65
sVCharacterOffsetEnd
p321
V66
p322
sVCharacterOffsetBegin
p323
V59
p324
sVPartOfSpeech
p325
VRBR
p326
sVLemma
p327
Vfarther
p328
saa(lp329
Vdid
p330
a(dp331
VNamedEntityTag
p332
g65
sVCharacterOffsetEnd
p333
V70
p334
sVCharacterOffsetBegin
p335
V67
p336
sVPartOfSpeech
p337
VVBD
p338
sVLemma
p339
Vdo
p340
saa(lp341
VEve
p342
a(dp343
VNamedEntityTag
p344
g65
sVCharacterOffsetEnd
p345
V74
p346
sVCharacterOffsetBegin
p347
V71
p348
sVPartOfSpeech
p349
VNNP
p350
sVLemma
p351
VEve
p352
saa(lp353
Vrun
p354
a(dp355
VNamedEntityTag
p356
g65
sVCharacterOffsetEnd
p357
V78
p358
sVCharacterOffsetBegin
p359
V75
p360
sVPartOfSpeech
p361
VVB
p362
sVLemma
p363
Vrun
p364
saa(lp365
Vthan
p366
a(dp367
VNamedEntityTag
p368
g65
sVCharacterOffsetEnd
p369
V83
p370
sVCharacterOffsetBegin
p371
V79
p372
sVPartOfSpeech
p373
VIN
p374
sVLemma
p375
Vthan
p376
saa(lp377
Vwalk
p378
a(dp379
VNamedEntityTag
p380
g65
sVCharacterOffsetEnd
p381
V88
p382
sVCharacterOffsetBegin
p383
V84
p384
sVPartOfSpeech
p385
VVB
p386
sVLemma
p387
Vwalk
p388
saa(lp389
V?
p390
a(dp391
VNamedEntityTag
p392
g65
sVCharacterOffsetEnd
p393
V90
p394
sVCharacterOffsetBegin
p395
V89
p396
sVPartOfSpeech
p397
g209
sVLemma
p398
g390
saasVindexeddependencies
p399
(lp400
(lp401
Vroot
p402
aVROOT-0
p403
aVrun-6
p404
aa(lp405
Vadvmod
p406
aVmuch-2
p407
aVHow-1
p408
aa(lp409
Vdobj
p410
aVrun-6
p411
aVmuch-2
p412
aa(lp413
Vamod
p414
aVmuch-2
p415
aVfarther-3
p416
aa(lp417
Vaux
p418
aVrun-6
p419
aVdid-4
p420
aa(lp421
Vnsubj
p422
aVrun-6
p423
aVEve-5
p424
aa(lp425
Vprepc_than
p426
aVrun-6
p427
aVwalk-8
p428
aasas.