(dp0
Vcoref
p1
(lp2
(lp3
(lp4
(lp5
Vits
p6
aI0
aI4
aI4
aI5
aa(lp7
VCarter 's Diner
p8
aI0
aI2
aI0
aI3
aaa(lp9
(lp10
Vthe diner
p11
aI1
aI4
aI3
aI5
aa(lp12
VCarter 's Diner
p13
aI0
aI2
aI0
aI3
aaa(lp14
(lp15
Vthe diner
p16
aI2
aI6
aI5
aI7
aa(lp17
VCarter 's Diner
p18
aI0
aI2
aI0
aI3
aaaasVsentences
p19
(lp20
(dp21
Vparsetree
p22
V(ROOT (S (NP (NP (NNP Carter) (POS 's)) (NNP Diner)) (VP (VBZ offers) (NP (PRP$ its) (NNS clients)) (NP (NP (DT a) (NN choice)) (PP (IN of) (NP (NP (JJ regular)) (CC and) (NP (NN diet) (NN soda)))))) (. .)))
p23
sVtext
p24
VCarter's Diner offers its clients a choice of regular and diet soda .
p25
sVdependencies
p26
(lp27
(lp28
Vroot
p29
aVROOT
p30
aVoffers
p31
aa(lp32
Vposs
p33
aVDiner
p34
aVCarter
p35
aa(lp36
Vnsubj
p37
aVoffers
p38
aVDiner
p39
aa(lp40
Vposs
p41
aVclients
p42
aVits
p43
aa(lp44
Vdep
p45
aVoffers
p46
aVclients
p47
aa(lp48
Vdet
p49
aVchoice
p50
aVa
p51
aa(lp52
Vdobj
p53
aVoffers
p54
aVchoice
p55
aa(lp56
Vprep_of
p57
aVchoice
p58
aVregular
p59
aa(lp60
Vnn
p61
aVsoda
p62
aVdiet
p63
aa(lp64
Vconj_and
p65
aVregular
p66
aVsoda
p67
aasVwords
p68
(lp69
(lp70
VCarter
p71
a(dp72
VNamedEntityTag
p73
VPERSON
p74
sVCharacterOffsetEnd
p75
V7
p76
sVCharacterOffsetBegin
p77
V1
p78
sVPartOfSpeech
p79
VNNP
p80
sVLemma
p81
VCarter
p82
saa(lp83
V's
p84
a(dp85
VNamedEntityTag
p86
VO
p87
sVCharacterOffsetEnd
p88
V9
p89
sVCharacterOffsetBegin
p90
g76
sVPartOfSpeech
p91
VPOS
p92
sVLemma
p93
V's
p94
saa(lp95
VDiner
p96
a(dp97
VNamedEntityTag
p98
VMISC
p99
sVCharacterOffsetEnd
p100
V15
p101
sVCharacterOffsetBegin
p102
V10
p103
sVPartOfSpeech
p104
VNNP
p105
sVLemma
p106
VDiner
p107
saa(lp108
Voffers
p109
a(dp110
VNamedEntityTag
p111
g87
sVCharacterOffsetEnd
p112
V22
p113
sVCharacterOffsetBegin
p114
V16
p115
sVPartOfSpeech
p116
VVBZ
p117
sVLemma
p118
Voffer
p119
saa(lp120
Vits
p121
a(dp122
VNamedEntityTag
p123
g87
sVCharacterOffsetEnd
p124
V26
p125
sVCharacterOffsetBegin
p126
V23
p127
sVPartOfSpeech
p128
VPRP$
p129
sVLemma
p130
Vits
p131
saa(lp132
Vclients
p133
a(dp134
VNamedEntityTag
p135
g87
sVCharacterOffsetEnd
p136
V34
p137
sVCharacterOffsetBegin
p138
V27
p139
sVPartOfSpeech
p140
VNNS
p141
sVLemma
p142
Vclient
p143
saa(lp144
g51
a(dp145
VNamedEntityTag
p146
g87
sVCharacterOffsetEnd
p147
V36
p148
sVCharacterOffsetBegin
p149
V35
p150
sVPartOfSpeech
p151
VDT
p152
sVLemma
p153
g51
saa(lp154
Vchoice
p155
a(dp156
VNamedEntityTag
p157
g87
sVCharacterOffsetEnd
p158
V43
p159
sVCharacterOffsetBegin
p160
V37
p161
sVPartOfSpeech
p162
VNN
p163
sVLemma
p164
Vchoice
p165
saa(lp166
Vof
p167
a(dp168
VNamedEntityTag
p169
g87
sVCharacterOffsetEnd
p170
V46
p171
sVCharacterOffsetBegin
p172
V44
p173
sVPartOfSpeech
p174
VIN
p175
sVLemma
p176
Vof
p177
saa(lp178
Vregular
p179
a(dp180
VNamedEntityTag
p181
g87
sVCharacterOffsetEnd
p182
V54
p183
sVCharacterOffsetBegin
p184
V47
p185
sVPartOfSpeech
p186
VJJ
p187
sVLemma
p188
Vregular
p189
saa(lp190
Vand
p191
a(dp192
VNamedEntityTag
p193
g87
sVCharacterOffsetEnd
p194
V58
p195
sVCharacterOffsetBegin
p196
V55
p197
sVPartOfSpeech
p198
VCC
p199
sVLemma
p200
Vand
p201
saa(lp202
Vdiet
p203
a(dp204
VNamedEntityTag
p205
g87
sVCharacterOffsetEnd
p206
V63
p207
sVCharacterOffsetBegin
p208
V59
p209
sVPartOfSpeech
p210
VNN
p211
sVLemma
p212
Vdiet
p213
saa(lp214
Vsoda
p215
a(dp216
VNamedEntityTag
p217
g87
sVCharacterOffsetEnd
p218
V68
p219
sVCharacterOffsetBegin
p220
V64
p221
sVPartOfSpeech
p222
VNN
p223
sVLemma
p224
Vsoda
p225
saa(lp226
V.
p227
a(dp228
VNamedEntityTag
p229
g87
sVCharacterOffsetEnd
p230
V70
p231
sVCharacterOffsetBegin
p232
V69
p233
sVPartOfSpeech
p234
g227
sVLemma
p235
g227
saasVindexeddependencies
p236
(lp237
(lp238
Vroot
p239
aVROOT-0
p240
aVoffers-4
p241
aa(lp242
Vposs
p243
aVDiner-3
p244
aVCarter-1
p245
aa(lp246
Vnsubj
p247
aVoffers-4
p248
aVDiner-3
p249
aa(lp250
Vposs
p251
aVclients-6
p252
aVits-5
p253
aa(lp254
Vdep
p255
aVoffers-4
p256
aVclients-6
p257
aa(lp258
Vdet
p259
aVchoice-8
p260
aVa-7
p261
aa(lp262
Vdobj
p263
aVoffers-4
p264
aVchoice-8
p265
aa(lp266
Vprep_of
p267
aVchoice-8
p268
aVregular-10
p269
aa(lp270
Vnn
p271
aVsoda-13
p272
aVdiet-12
p273
aa(lp274
Vconj_and
p275
aVregular-10
p276
aVsoda-13
p277
aasa(dp278
Vparsetree
p279
V(ROOT (S (NP-TMP (JJ Last) (NN night)) (, ,) (NP (DT the) (NN diner)) (VP (VBD served) (NP (NP (CD 25) (NNS sodas)) (PP (IN in) (NP (DT all)))) (, ,) (PP (NP (CD 0.6) (NNS times)) (IN of) (SBAR (WHNP (WDT which)) (S (VP (VBD were) (ADJP (JJ regular))))))) (. .)))
p280
sVtext
p281
VLast night , the diner served 25 sodas in all , 0.6 times of which were regular .
p282
sVdependencies
p283
(lp284
(lp285
Vroot
p286
aVROOT
p287
aVserved
p288
aa(lp289
Vamod
p290
aVnight
p291
aVLast
p292
aa(lp293
Vtmod
p294
aVserved
p295
aVnight
p296
aa(lp297
Vdet
p298
aVdiner
p299
aVthe
p300
aa(lp301
Vnsubj
p302
aVserved
p303
aVdiner
p304
aa(lp305
Vnum
p306
aVsodas
p307
aV25
p308
aa(lp309
Vdobj
p310
aVserved
p311
aVsodas
p312
aa(lp313
Vprep_in
p314
aVsodas
p315
aVall
p316
aa(lp317
Vnum
p318
aVtimes
p319
aV0.6
p320
aa(lp321
Vnpadvmod
p322
aVserved
p323
aVtimes
p324
aa(lp325
Vnsubj
p326
aVregular
p327
aVwhich
p328
aa(lp329
Vcop
p330
aVregular
p331
aVwere
p332
aa(lp333
Vprepc_of
p334
aVserved
p335
aVregular
p336
aasVwords
p337
(lp338
(lp339
VLast
p340
a(dp341
VNormalizedNamedEntityTag
p342
VTNI
p343
sVTimex
p344
V<TIMEX3 alt_value="TNI OFFSET P-1D" anchorTimeID="t2" temporalFunction="true" tid="t1" type="DATE" valueFromFunction="tf0">Last night</TIMEX3>
p345
sVLemma
p346
Vlast
p347
sVCharacterOffsetEnd
p348
V75
p349
sVPartOfSpeech
p350
VJJ
p351
sVCharacterOffsetBegin
p352
V71
p353
sVNamedEntityTag
p354
VDATE
p355
saa(lp356
Vnight
p357
a(dp358
VNormalizedNamedEntityTag
p359
VTNI
p360
sVTimex
p361
V<TIMEX3 alt_value="TNI OFFSET P-1D" anchorTimeID="t2" temporalFunction="true" tid="t1" type="DATE" valueFromFunction="tf0">Last night</TIMEX3>
p362
sVLemma
p363
Vnight
p364
sVCharacterOffsetEnd
p365
V81
p366
sVPartOfSpeech
p367
VNN
p368
sVCharacterOffsetBegin
p369
V76
p370
sVNamedEntityTag
p371
VDATE
p372
saa(lp373
V,
p374
a(dp375
VNamedEntityTag
p376
g87
sVCharacterOffsetEnd
p377
V83
p378
sVCharacterOffsetBegin
p379
V82
p380
sVPartOfSpeech
p381
g374
sVLemma
p382
g374
saa(lp383
Vthe
p384
a(dp385
VNamedEntityTag
p386
g87
sVCharacterOffsetEnd
p387
V87
p388
sVCharacterOffsetBegin
p389
V84
p390
sVPartOfSpeech
p391
VDT
p392
sVLemma
p393
Vthe
p394
saa(lp395
Vdiner
p396
a(dp397
VNamedEntityTag
p398
g87
sVCharacterOffsetEnd
p399
V93
p400
sVCharacterOffsetBegin
p401
V88
p402
sVPartOfSpeech
p403
VNN
p404
sVLemma
p405
Vdiner
p406
saa(lp407
Vserved
p408
a(dp409
VNamedEntityTag
p410
g87
sVCharacterOffsetEnd
p411
V100
p412
sVCharacterOffsetBegin
p413
V94
p414
sVPartOfSpeech
p415
VVBD
p416
sVLemma
p417
Vserve
p418
saa(lp419
V25
p420
a(dp421
VNormalizedNamedEntityTag
p422
V25.0
p423
sVLemma
p424
V25
p425
sVCharacterOffsetEnd
p426
V103
p427
sVPartOfSpeech
p428
VCD
p429
sVCharacterOffsetBegin
p430
V101
p431
sVNamedEntityTag
p432
VNUMBER
p433
saa(lp434
Vsodas
p435
a(dp436
VNamedEntityTag
p437
g87
sVCharacterOffsetEnd
p438
V109
p439
sVCharacterOffsetBegin
p440
V104
p441
sVPartOfSpeech
p442
VNNS
p443
sVLemma
p444
Vsoda
p445
saa(lp446
Vin
p447
a(dp448
VNamedEntityTag
p449
g87
sVCharacterOffsetEnd
p450
V112
p451
sVCharacterOffsetBegin
p452
V110
p453
sVPartOfSpeech
p454
VIN
p455
sVLemma
p456
Vin
p457
saa(lp458
Vall
p459
a(dp460
VNamedEntityTag
p461
g87
sVCharacterOffsetEnd
p462
V116
p463
sVCharacterOffsetBegin
p464
V113
p465
sVPartOfSpeech
p466
VDT
p467
sVLemma
p468
Vall
p469
saa(lp470
g374
a(dp471
VNamedEntityTag
p472
g87
sVCharacterOffsetEnd
p473
V118
p474
sVCharacterOffsetBegin
p475
V117
p476
sVPartOfSpeech
p477
g374
sVLemma
p478
g374
saa(lp479
V0.6
p480
a(dp481
VNormalizedNamedEntityTag
p482
V0.6
p483
sVLemma
p484
V0.6
p485
sVCharacterOffsetEnd
p486
V122
p487
sVPartOfSpeech
p488
VCD
p489
sVCharacterOffsetBegin
p490
V119
p491
sVNamedEntityTag
p492
VNUMBER
p493
saa(lp494
Vtimes
p495
a(dp496
VNamedEntityTag
p497
g87
sVCharacterOffsetEnd
p498
V128
p499
sVCharacterOffsetBegin
p500
V123
p501
sVPartOfSpeech
p502
VNNS
p503
sVLemma
p504
Vtime
p505
saa(lp506
Vof
p507
a(dp508
VNamedEntityTag
p509
g87
sVCharacterOffsetEnd
p510
V131
p511
sVCharacterOffsetBegin
p512
V129
p513
sVPartOfSpeech
p514
VIN
p515
sVLemma
p516
Vof
p517
saa(lp518
Vwhich
p519
a(dp520
VNamedEntityTag
p521
g87
sVCharacterOffsetEnd
p522
V137
p523
sVCharacterOffsetBegin
p524
V132
p525
sVPartOfSpeech
p526
VWDT
p527
sVLemma
p528
Vwhich
p529
saa(lp530
Vwere
p531
a(dp532
VNamedEntityTag
p533
g87
sVCharacterOffsetEnd
p534
V142
p535
sVCharacterOffsetBegin
p536
V138
p537
sVPartOfSpeech
p538
VVBD
p539
sVLemma
p540
Vbe
p541
saa(lp542
Vregular
p543
a(dp544
VNamedEntityTag
p545
g87
sVCharacterOffsetEnd
p546
V150
p547
sVCharacterOffsetBegin
p548
V143
p549
sVPartOfSpeech
p550
VJJ
p551
sVLemma
p552
Vregular
p553
saa(lp554
g227
a(dp555
VNamedEntityTag
p556
g87
sVCharacterOffsetEnd
p557
V152
p558
sVCharacterOffsetBegin
p559
V151
p560
sVPartOfSpeech
p561
g227
sVLemma
p562
g227
saasVindexeddependencies
p563
(lp564
(lp565
Vroot
p566
aVROOT-0
p567
aVserved-6
p568
aa(lp569
Vamod
p570
aVnight-2
p571
aVLast-1
p572
aa(lp573
Vtmod
p574
aVserved-6
p575
aVnight-2
p576
aa(lp577
Vdet
p578
aVdiner-5
p579
aVthe-4
p580
aa(lp581
Vnsubj
p582
aVserved-6
p583
aVdiner-5
p584
aa(lp585
Vnum
p586
aVsodas-8
p587
aV25-7
p588
aa(lp589
Vdobj
p590
aVserved-6
p591
aVsodas-8
p592
aa(lp593
Vprep_in
p594
aVsodas-8
p595
aVall-10
p596
aa(lp597
Vnum
p598
aVtimes-13
p599
aV0.6-12
p600
aa(lp601
Vnpadvmod
p602
aVserved-6
p603
aVtimes-13
p604
aa(lp605
Vnsubj
p606
aVregular-17
p607
aVwhich-15
p608
aa(lp609
Vcop
p610
aVregular-17
p611
aVwere-16
p612
aa(lp613
Vprepc_of
p614
aVserved-6
p615
aVregular-17
p616
aasa(dp617
Vparsetree
p618
V(ROOT (SBARQ (WHNP (WHADJP (WRB How) (JJ many)) (JJ regular) (NNS sodas)) (SQ (VBD did) (NP (DT the) (NN diner)) (VP (VB serve))) (. ?)))
p619
sVtext
p620
VHow many regular sodas did the diner serve ?
p621
sVdependencies
p622
(lp623
(lp624
Vroot
p625
aVROOT
p626
aVserve
p627
aa(lp628
Vadvmod
p629
aVmany
p630
aVHow
p631
aa(lp632
Vamod
p633
aVsodas
p634
aVmany
p635
aa(lp636
Vamod
p637
aVsodas
p638
aVregular
p639
aa(lp640
Vdobj
p641
aVserve
p642
aVsodas
p643
aa(lp644
Vaux
p645
aVserve
p646
aVdid
p647
aa(lp648
Vdet
p649
aVdiner
p650
aVthe
p651
aa(lp652
Vnsubj
p653
aVserve
p654
aVdiner
p655
aasVwords
p656
(lp657
(lp658
VHow
p659
a(dp660
VNamedEntityTag
p661
g87
sVCharacterOffsetEnd
p662
V156
p663
sVCharacterOffsetBegin
p664
V153
p665
sVPartOfSpeech
p666
VWRB
p667
sVLemma
p668
Vhow
p669
saa(lp670
Vmany
p671
a(dp672
VNamedEntityTag
p673
g87
sVCharacterOffsetEnd
p674
V161
p675
sVCharacterOffsetBegin
p676
V157
p677
sVPartOfSpeech
p678
VJJ
p679
sVLemma
p680
Vmany
p681
saa(lp682
Vregular
p683
a(dp684
VNamedEntityTag
p685
g87
sVCharacterOffsetEnd
p686
V169
p687
sVCharacterOffsetBegin
p688
V162
p689
sVPartOfSpeech
p690
VJJ
p691
sVLemma
p692
Vregular
p693
saa(lp694
Vsodas
p695
a(dp696
VNamedEntityTag
p697
g87
sVCharacterOffsetEnd
p698
V175
p699
sVCharacterOffsetBegin
p700
V170
p701
sVPartOfSpeech
p702
VNNS
p703
sVLemma
p704
Vsoda
p705
saa(lp706
Vdid
p707
a(dp708
VNamedEntityTag
p709
g87
sVCharacterOffsetEnd
p710
V179
p711
sVCharacterOffsetBegin
p712
V176
p713
sVPartOfSpeech
p714
VVBD
p715
sVLemma
p716
Vdo
p717
saa(lp718
Vthe
p719
a(dp720
VNamedEntityTag
p721
g87
sVCharacterOffsetEnd
p722
V183
p723
sVCharacterOffsetBegin
p724
V180
p725
sVPartOfSpeech
p726
VDT
p727
sVLemma
p728
Vthe
p729
saa(lp730
Vdiner
p731
a(dp732
VNamedEntityTag
p733
g87
sVCharacterOffsetEnd
p734
V189
p735
sVCharacterOffsetBegin
p736
V184
p737
sVPartOfSpeech
p738
VNN
p739
sVLemma
p740
Vdiner
p741
saa(lp742
Vserve
p743
a(dp744
VNamedEntityTag
p745
g87
sVCharacterOffsetEnd
p746
V195
p747
sVCharacterOffsetBegin
p748
V190
p749
sVPartOfSpeech
p750
VVB
p751
sVLemma
p752
Vserve
p753
saa(lp754
V?
p755
a(dp756
VNamedEntityTag
p757
g87
sVCharacterOffsetEnd
p758
V197
p759
sVCharacterOffsetBegin
p760
V196
p761
sVPartOfSpeech
p762
g227
sVLemma
p763
g755
saasVindexeddependencies
p764
(lp765
(lp766
Vroot
p767
aVROOT-0
p768
aVserve-8
p769
aa(lp770
Vadvmod
p771
aVmany-2
p772
aVHow-1
p773
aa(lp774
Vamod
p775
aVsodas-4
p776
aVmany-2
p777
aa(lp778
Vamod
p779
aVsodas-4
p780
aVregular-3
p781
aa(lp782
Vdobj
p783
aVserve-8
p784
aVsodas-4
p785
aa(lp786
Vaux
p787
aVserve-8
p788
aVdid-5
p789
aa(lp790
Vdet
p791
aVdiner-7
p792
aVthe-6
p793
aa(lp794
Vnsubj
p795
aVserve-8
p796
aVdiner-7
p797
aasas.