(dp0
Vcoref
p1
(lp2
(lp3
(lp4
(lp5
Vhis
p6
aI1
aI1
aI1
aI2
aa(lp7
VGeorge
p8
aI0
aI4
aI4
aI5
aaa(lp9
(lp10
Vhe
p11
aI1
aI15
aI15
aI16
aa(lp12
VGeorge
p13
aI0
aI4
aI4
aI5
aaaasVsentences
p14
(lp15
(dp16
Vparsetree
p17
V(ROOT (S (PP (IN For) (NP (DT a) (NN birthday) (NN party))) (NP (NNP George)) (VP (VBD bought) (NP (NP (CD 10) (JJ regular) (NNS sodas)) (CC and) (NP (CD 22) (NN diet) (NNS sodas)))) (. .)))
p18
sVtext
p19
VFor a birthday party George bought 10 regular sodas and 22 diet sodas .
p20
sVdependencies
p21
(lp22
(lp23
Vroot
p24
aVROOT
p25
aVbought
p26
aa(lp27
Vdet
p28
aVparty
p29
aVa
p30
aa(lp31
Vnn
p32
aVparty
p33
aVbirthday
p34
aa(lp35
Vprep_for
p36
aVbought
p37
aVparty
p38
aa(lp39
Vnsubj
p40
aVbought
p41
aVGeorge
p42
aa(lp43
Vnum
p44
aVsodas
p45
aV10
p46
aa(lp47
Vamod
p48
aVsodas
p49
aVregular
p50
aa(lp51
Vdobj
p52
aVbought
p53
aVsodas
p54
aa(lp55
Vnum
p56
aVsodas
p57
aV22
p58
aa(lp59
Vnn
p60
aVsodas
p61
aVdiet
p62
aa(lp63
Vconj_and
p64
aVsodas
p65
aVsodas
p66
aasVwords
p67
(lp68
(lp69
VFor
p70
a(dp71
VNamedEntityTag
p72
VO
p73
sVCharacterOffsetEnd
p74
V4
p75
sVCharacterOffsetBegin
p76
V1
p77
sVPartOfSpeech
p78
VIN
p79
sVLemma
p80
Vfor
p81
saa(lp82
g30
a(dp83
VNamedEntityTag
p84
g73
sVCharacterOffsetEnd
p85
V6
p86
sVCharacterOffsetBegin
p87
V5
p88
sVPartOfSpeech
p89
VDT
p90
sVLemma
p91
g30
saa(lp92
Vbirthday
p93
a(dp94
VNamedEntityTag
p95
g73
sVCharacterOffsetEnd
p96
V15
p97
sVCharacterOffsetBegin
p98
V7
p99
sVPartOfSpeech
p100
VNN
p101
sVLemma
p102
Vbirthday
p103
saa(lp104
Vparty
p105
a(dp106
VNamedEntityTag
p107
g73
sVCharacterOffsetEnd
p108
V21
p109
sVCharacterOffsetBegin
p110
V16
p111
sVPartOfSpeech
p112
VNN
p113
sVLemma
p114
Vparty
p115
saa(lp116
VGeorge
p117
a(dp118
VNamedEntityTag
p119
VPERSON
p120
sVCharacterOffsetEnd
p121
V28
p122
sVCharacterOffsetBegin
p123
V22
p124
sVPartOfSpeech
p125
VNNP
p126
sVLemma
p127
VGeorge
p128
saa(lp129
Vbought
p130
a(dp131
VNamedEntityTag
p132
g73
sVCharacterOffsetEnd
p133
V35
p134
sVCharacterOffsetBegin
p135
V29
p136
sVPartOfSpeech
p137
VVBD
p138
sVLemma
p139
Vbuy
p140
saa(lp141
V10
p142
a(dp143
VNormalizedNamedEntityTag
p144
V10.0
p145
sVLemma
p146
V10
p147
sVCharacterOffsetEnd
p148
V38
p149
sVPartOfSpeech
p150
VCD
p151
sVCharacterOffsetBegin
p152
V36
p153
sVNamedEntityTag
p154
VNUMBER
p155
saa(lp156
Vregular
p157
a(dp158
VNamedEntityTag
p159
g73
sVCharacterOffsetEnd
p160
V46
p161
sVCharacterOffsetBegin
p162
V39
p163
sVPartOfSpeech
p164
VJJ
p165
sVLemma
p166
Vregular
p167
saa(lp168
Vsodas
p169
a(dp170
VNamedEntityTag
p171
g73
sVCharacterOffsetEnd
p172
V52
p173
sVCharacterOffsetBegin
p174
V47
p175
sVPartOfSpeech
p176
VNNS
p177
sVLemma
p178
Vsoda
p179
saa(lp180
Vand
p181
a(dp182
VNamedEntityTag
p183
g73
sVCharacterOffsetEnd
p184
V56
p185
sVCharacterOffsetBegin
p186
V53
p187
sVPartOfSpeech
p188
VCC
p189
sVLemma
p190
Vand
p191
saa(lp192
V22
p193
a(dp194
VNormalizedNamedEntityTag
p195
V22.0
p196
sVLemma
p197
V22
p198
sVCharacterOffsetEnd
p199
V59
p200
sVPartOfSpeech
p201
VCD
p202
sVCharacterOffsetBegin
p203
V57
p204
sVNamedEntityTag
p205
VNUMBER
p206
saa(lp207
Vdiet
p208
a(dp209
VNamedEntityTag
p210
g73
sVCharacterOffsetEnd
p211
V64
p212
sVCharacterOffsetBegin
p213
V60
p214
sVPartOfSpeech
p215
VNN
p216
sVLemma
p217
Vdiet
p218
saa(lp219
Vsodas
p220
a(dp221
VNamedEntityTag
p222
g73
sVCharacterOffsetEnd
p223
V70
p224
sVCharacterOffsetBegin
p225
V65
p226
sVPartOfSpeech
p227
VNNS
p228
sVLemma
p229
Vsoda
p230
saa(lp231
V.
p232
a(dp233
VNamedEntityTag
p234
g73
sVCharacterOffsetEnd
p235
V72
p236
sVCharacterOffsetBegin
p237
V71
p238
sVPartOfSpeech
p239
g232
sVLemma
p240
g232
saasVindexeddependencies
p241
(lp242
(lp243
Vroot
p244
aVROOT-0
p245
aVbought-6
p246
aa(lp247
Vdet
p248
aVparty-4
p249
aVa-2
p250
aa(lp251
Vnn
p252
aVparty-4
p253
aVbirthday-3
p254
aa(lp255
Vprep_for
p256
aVbought-6
p257
aVparty-4
p258
aa(lp259
Vnsubj
p260
aVbought-6
p261
aVGeorge-5
p262
aa(lp263
Vnum
p264
aVsodas-9
p265
aV10-7
p266
aa(lp267
Vamod
p268
aVsodas-9
p269
aVregular-8
p270
aa(lp271
Vdobj
p272
aVbought-6
p273
aVsodas-9
p274
aa(lp275
Vnum
p276
aVsodas-13
p277
aV22-11
p278
aa(lp279
Vnn
p280
aVsodas-13
p281
aVdiet-12
p282
aa(lp283
Vconj_and
p284
aVsodas-9
p285
aVsodas-13
p286
aasa(dp287
Vparsetree
p288
V(ROOT (SBARQ (SBAR (IN If) (S (NP (PRP$ his) (NN fridge)) (VP (MD would) (ADVP (RB only)) (VP (VB hold) (NP (CD 4)) (PP (IN on) (NP (DT each) (NN shelf))))))) (, ,) (WHNP (WHADJP (WRB how) (JJ many)) (NNS shelves)) (SQ (MD would) (NP (PRP he)) (VP (VB fill) (PRT (RP up)))) (. ?)))
p289
sVtext
p290
VIf his fridge would only hold 4 on each shelf , how many shelves would he fill up ?
p291
sVdependencies
p292
(lp293
(lp294
Vroot
p295
aVROOT
p296
aVfill
p297
aa(lp298
Vmark
p299
aVhold
p300
aVIf
p301
aa(lp302
Vposs
p303
aVfridge
p304
aVhis
p305
aa(lp306
Vnsubj
p307
aVhold
p308
aVfridge
p309
aa(lp310
Vaux
p311
aVhold
p312
aVwould
p313
aa(lp314
Vadvmod
p315
aVhold
p316
aVonly
p317
aa(lp318
Vadvcl
p319
aVfill
p320
aVhold
p321
aa(lp322
Vdobj
p323
aVhold
p324
ag75
aa(lp325
Vdet
p326
aVshelf
p327
aVeach
p328
aa(lp329
Vprep_on
p330
aVhold
p331
aVshelf
p332
aa(lp333
Vadvmod
p334
aVmany
p335
aVhow
p336
aa(lp337
Vamod
p338
aVshelves
p339
aVmany
p340
aa(lp341
Vdobj
p342
aVfill
p343
aVshelves
p344
aa(lp345
Vaux
p346
aVfill
p347
aVwould
p348
aa(lp349
Vnsubj
p350
aVfill
p351
aVhe
p352
aa(lp353
Vprt
p354
aVfill
p355
aVup
p356
aasVwords
p357
(lp358
(lp359
VIf
p360
a(dp361
VNamedEntityTag
p362
g73
sVCharacterOffsetEnd
p363
V75
p364
sVCharacterOffsetBegin
p365
V73
p366
sVPartOfSpeech
p367
VIN
p368
sVLemma
p369
Vif
p370
saa(lp371
Vhis
p372
a(dp373
VNamedEntityTag
p374
g73
sVCharacterOffsetEnd
p375
V79
p376
sVCharacterOffsetBegin
p377
V76
p378
sVPartOfSpeech
p379
VPRP$
p380
sVLemma
p381
Vhe
p382
saa(lp383
Vfridge
p384
a(dp385
VNamedEntityTag
p386
g73
sVCharacterOffsetEnd
p387
V86
p388
sVCharacterOffsetBegin
p389
V80
p390
sVPartOfSpeech
p391
VNN
p392
sVLemma
p393
Vfridge
p394
saa(lp395
Vwould
p396
a(dp397
VNamedEntityTag
p398
g73
sVCharacterOffsetEnd
p399
V92
p400
sVCharacterOffsetBegin
p401
V87
p402
sVPartOfSpeech
p403
VMD
p404
sVLemma
p405
Vwould
p406
saa(lp407
Vonly
p408
a(dp409
VNamedEntityTag
p410
g73
sVCharacterOffsetEnd
p411
V97
p412
sVCharacterOffsetBegin
p413
V93
p414
sVPartOfSpeech
p415
VRB
p416
sVLemma
p417
Vonly
p418
saa(lp419
Vhold
p420
a(dp421
VNamedEntityTag
p422
g73
sVCharacterOffsetEnd
p423
V102
p424
sVCharacterOffsetBegin
p425
V98
p426
sVPartOfSpeech
p427
VVB
p428
sVLemma
p429
Vhold
p430
saa(lp431
g75
a(dp432
VNormalizedNamedEntityTag
p433
V4.0
p434
sVLemma
p435
g75
sVCharacterOffsetEnd
p436
V104
p437
sVPartOfSpeech
p438
VCD
p439
sVCharacterOffsetBegin
p440
V103
p441
sVNamedEntityTag
p442
VNUMBER
p443
saa(lp444
Von
p445
a(dp446
VNamedEntityTag
p447
g73
sVCharacterOffsetEnd
p448
V107
p449
sVCharacterOffsetBegin
p450
V105
p451
sVPartOfSpeech
p452
VIN
p453
sVLemma
p454
Von
p455
saa(lp456
Veach
p457
a(dp458
VNamedEntityTag
p459
g73
sVCharacterOffsetEnd
p460
V112
p461
sVCharacterOffsetBegin
p462
V108
p463
sVPartOfSpeech
p464
VDT
p465
sVLemma
p466
Veach
p467
saa(lp468
Vshelf
p469
a(dp470
VNamedEntityTag
p471
g73
sVCharacterOffsetEnd
p472
V118
p473
sVCharacterOffsetBegin
p474
V113
p475
sVPartOfSpeech
p476
VNN
p477
sVLemma
p478
Vshelf
p479
saa(lp480
V,
p481
a(dp482
VNamedEntityTag
p483
g73
sVCharacterOffsetEnd
p484
V120
p485
sVCharacterOffsetBegin
p486
V119
p487
sVPartOfSpeech
p488
g481
sVLemma
p489
g481
saa(lp490
Vhow
p491
a(dp492
VNamedEntityTag
p493
g73
sVCharacterOffsetEnd
p494
V124
p495
sVCharacterOffsetBegin
p496
V121
p497
sVPartOfSpeech
p498
VWRB
p499
sVLemma
p500
Vhow
p501
saa(lp502
Vmany
p503
a(dp504
VNamedEntityTag
p505
g73
sVCharacterOffsetEnd
p506
V129
p507
sVCharacterOffsetBegin
p508
V125
p509
sVPartOfSpeech
p510
VJJ
p511
sVLemma
p512
Vmany
p513
saa(lp514
Vshelves
p515
a(dp516
VNamedEntityTag
p517
g73
sVCharacterOffsetEnd
p518
V137
p519
sVCharacterOffsetBegin
p520
V130
p521
sVPartOfSpeech
p522
VNNS
p523
sVLemma
p524
Vshelf
p525
saa(lp526
Vwould
p527
a(dp528
VNamedEntityTag
p529
g73
sVCharacterOffsetEnd
p530
V143
p531
sVCharacterOffsetBegin
p532
V138
p533
sVPartOfSpeech
p534
VMD
p535
sVLemma
p536
Vwould
p537
saa(lp538
Vhe
p539
a(dp540
VNamedEntityTag
p541
g73
sVCharacterOffsetEnd
p542
V146
p543
sVCharacterOffsetBegin
p544
V144
p545
sVPartOfSpeech
p546
VPRP
p547
sVLemma
p548
Vhe
p549
saa(lp550
Vfill
p551
a(dp552
VNamedEntityTag
p553
g73
sVCharacterOffsetEnd
p554
V151
p555
sVCharacterOffsetBegin
p556
V147
p557
sVPartOfSpeech
p558
VVB
p559
sVLemma
p560
Vfill
p561
saa(lp562
Vup
p563
a(dp564
VNamedEntityTag
p565
g73
sVCharacterOffsetEnd
p566
V154
p567
sVCharacterOffsetBegin
p568
V152
p569
sVPartOfSpeech
p570
VRP
p571
sVLemma
p572
Vup
p573
saa(lp574
V?
p575
a(dp576
VNamedEntityTag
p577
g73
sVCharacterOffsetEnd
p578
V156
p579
sVCharacterOffsetBegin
p580
V155
p581
sVPartOfSpeech
p582
g232
sVLemma
p583
g575
saasVindexeddependencies
p584
(lp585
(lp586
Vroot
p587
aVROOT-0
p588
aVfill-17
p589
aa(lp590
Vmark
p591
aVhold-6
p592
aVIf-1
p593
aa(lp594
Vposs
p595
aVfridge-3
p596
aVhis-2
p597
aa(lp598
Vnsubj
p599
aVhold-6
p600
aVfridge-3
p601
aa(lp602
Vaux
p603
aVhold-6
p604
aVwould-4
p605
aa(lp606
Vadvmod
p607
aVhold-6
p608
aVonly-5
p609
aa(lp610
Vadvcl
p611
aVfill-17
p612
aVhold-6
p613
aa(lp614
Vdobj
p615
aVhold-6
p616
aV4-7
p617
aa(lp618
Vdet
p619
aVshelf-10
p620
aVeach-9
p621
aa(lp622
Vprep_on
p623
aVhold-6
p624
aVshelf-10
p625
aa(lp626
Vadvmod
p627
aVmany-13
p628
aVhow-12
p629
aa(lp630
Vamod
p631
aVshelves-14
p632
aVmany-13
p633
aa(lp634
Vdobj
p635
aVfill-17
p636
aVshelves-14
p637
aa(lp638
Vaux
p639
aVfill-17
p640
aVwould-15
p641
aa(lp642
Vnsubj
p643
aVfill-17
p644
aVhe-16
p645
aa(lp646
Vprt
p647
aVfill-17
p648
aVup-18
p649
aasas.