(dp0
Vcoref
p1
(lp2
(lp3
(lp4
(lp5
Vshe
p6
aI1
aI1
aI1
aI2
aa(lp7
VMaria
p8
aI0
aI0
aI0
aI1
aaa(lp9
(lp10
Vshe
p11
aI1
aI16
aI16
aI17
aa(lp12
VMaria
p13
aI0
aI0
aI0
aI1
aaaasVsentences
p14
(lp15
(dp16
Vparsetree
p17
V(ROOT (S (NP (NNP Maria)) (VP (VBD was) (VP (VBG making) (NP (NP (NNS baggies)) (PP (IN of) (NP (NP (NNS cookies)) (PP (IN with) (NP (NP (CD 8) (NNS cookies)) (PP (IN in) (NP (DT each) (NN bag)))))))))) (. .)))
p18
sVtext
p19
VMaria was making baggies of cookies with 8 cookies in each bag .
p20
sVdependencies
p21
(lp22
(lp23
Vroot
p24
aVROOT
p25
aVmaking
p26
aa(lp27
Vnsubj
p28
aVmaking
p29
aVMaria
p30
aa(lp31
Vaux
p32
aVmaking
p33
aVwas
p34
aa(lp35
Vdobj
p36
aVmaking
p37
aVbaggies
p38
aa(lp39
Vprep_of
p40
aVbaggies
p41
aVcookies
p42
aa(lp43
Vnum
p44
aVcookies
p45
aV8
p46
aa(lp47
Vprep_with
p48
aVcookies
p49
aVcookies
p50
aa(lp51
Vdet
p52
aVbag
p53
aVeach
p54
aa(lp55
Vprep_in
p56
aVcookies
p57
aVbag
p58
aasVwords
p59
(lp60
(lp61
VMaria
p62
a(dp63
VNamedEntityTag
p64
VPERSON
p65
sVCharacterOffsetEnd
p66
V6
p67
sVCharacterOffsetBegin
p68
V1
p69
sVPartOfSpeech
p70
VNNP
p71
sVLemma
p72
VMaria
p73
saa(lp74
Vwas
p75
a(dp76
VNamedEntityTag
p77
VO
p78
sVCharacterOffsetEnd
p79
V10
p80
sVCharacterOffsetBegin
p81
V7
p82
sVPartOfSpeech
p83
VVBD
p84
sVLemma
p85
Vbe
p86
saa(lp87
Vmaking
p88
a(dp89
VNamedEntityTag
p90
g78
sVCharacterOffsetEnd
p91
V17
p92
sVCharacterOffsetBegin
p93
V11
p94
sVPartOfSpeech
p95
VVBG
p96
sVLemma
p97
Vmake
p98
saa(lp99
Vbaggies
p100
a(dp101
VNamedEntityTag
p102
g78
sVCharacterOffsetEnd
p103
V25
p104
sVCharacterOffsetBegin
p105
V18
p106
sVPartOfSpeech
p107
VNNS
p108
sVLemma
p109
Vbaggy
p110
saa(lp111
Vof
p112
a(dp113
VNamedEntityTag
p114
g78
sVCharacterOffsetEnd
p115
V28
p116
sVCharacterOffsetBegin
p117
V26
p118
sVPartOfSpeech
p119
VIN
p120
sVLemma
p121
Vof
p122
saa(lp123
Vcookies
p124
a(dp125
VNamedEntityTag
p126
g78
sVCharacterOffsetEnd
p127
V36
p128
sVCharacterOffsetBegin
p129
V29
p130
sVPartOfSpeech
p131
VNNS
p132
sVLemma
p133
Vcookie
p134
saa(lp135
Vwith
p136
a(dp137
VNamedEntityTag
p138
g78
sVCharacterOffsetEnd
p139
V41
p140
sVCharacterOffsetBegin
p141
V37
p142
sVPartOfSpeech
p143
VIN
p144
sVLemma
p145
Vwith
p146
saa(lp147
g46
a(dp148
VNormalizedNamedEntityTag
p149
V8.0
p150
sVLemma
p151
g46
sVCharacterOffsetEnd
p152
V43
p153
sVPartOfSpeech
p154
VCD
p155
sVCharacterOffsetBegin
p156
V42
p157
sVNamedEntityTag
p158
VNUMBER
p159
saa(lp160
Vcookies
p161
a(dp162
VNamedEntityTag
p163
g78
sVCharacterOffsetEnd
p164
V51
p165
sVCharacterOffsetBegin
p166
V44
p167
sVPartOfSpeech
p168
VNNS
p169
sVLemma
p170
Vcookie
p171
saa(lp172
Vin
p173
a(dp174
VNamedEntityTag
p175
g78
sVCharacterOffsetEnd
p176
V54
p177
sVCharacterOffsetBegin
p178
V52
p179
sVPartOfSpeech
p180
VIN
p181
sVLemma
p182
Vin
p183
saa(lp184
Veach
p185
a(dp186
VNamedEntityTag
p187
g78
sVCharacterOffsetEnd
p188
V59
p189
sVCharacterOffsetBegin
p190
V55
p191
sVPartOfSpeech
p192
VDT
p193
sVLemma
p194
Veach
p195
saa(lp196
Vbag
p197
a(dp198
VNamedEntityTag
p199
g78
sVCharacterOffsetEnd
p200
V63
p201
sVCharacterOffsetBegin
p202
V60
p203
sVPartOfSpeech
p204
VNN
p205
sVLemma
p206
Vbag
p207
saa(lp208
V.
p209
a(dp210
VNamedEntityTag
p211
g78
sVCharacterOffsetEnd
p212
V65
p213
sVCharacterOffsetBegin
p214
V64
p215
sVPartOfSpeech
p216
g209
sVLemma
p217
g209
saasVindexeddependencies
p218
(lp219
(lp220
Vroot
p221
aVROOT-0
p222
aVmaking-3
p223
aa(lp224
Vnsubj
p225
aVmaking-3
p226
aVMaria-1
p227
aa(lp228
Vaux
p229
aVmaking-3
p230
aVwas-2
p231
aa(lp232
Vdobj
p233
aVmaking-3
p234
aVbaggies-4
p235
aa(lp236
Vprep_of
p237
aVbaggies-4
p238
aVcookies-6
p239
aa(lp240
Vnum
p241
aVcookies-9
p242
aV8-8
p243
aa(lp244
Vprep_with
p245
aVcookies-6
p246
aVcookies-9
p247
aa(lp248
Vdet
p249
aVbag-12
p250
aVeach-11
p251
aa(lp252
Vprep_in
p253
aVcookies-9
p254
aVbag-12
p255
aasa(dp256
Vparsetree
p257
V(ROOT (SBARQ (SBAR (IN If) (S (NP (PRP she)) (VP (VBD had) (NP (NP (CD 5) (NN chocolate) (NN chip) (NNS cookies)) (CC and) (NP (CD 19) (NN oatmeal) (NNS cookies)))))) (, ,) (WHADVP (WRB how) (NP (JJ many) (NNS baggies))) (SQ (MD could) (NP (PRP she)) (VP (VB make))) (. ?)))
p258
sVtext
p259
VIf she had 5 chocolate chip cookies and 19 oatmeal cookies , how many baggies could she make ?
p260
sVdependencies
p261
(lp262
(lp263
Vroot
p264
aVROOT
p265
aVmake
p266
aa(lp267
Vmark
p268
aVhad
p269
aVIf
p270
aa(lp271
Vnsubj
p272
aVhad
p273
aVshe
p274
aa(lp275
Vadvcl
p276
aVmake
p277
aVhad
p278
aa(lp279
Vnum
p280
aVcookies
p281
aV5
p282
aa(lp283
Vnn
p284
aVcookies
p285
aVchocolate
p286
aa(lp287
Vnn
p288
aVcookies
p289
aVchip
p290
aa(lp291
Vdobj
p292
aVhad
p293
aVcookies
p294
aa(lp295
Vnum
p296
aVcookies
p297
aV19
p298
aa(lp299
Vnn
p300
aVcookies
p301
aVoatmeal
p302
aa(lp303
Vconj_and
p304
aVcookies
p305
aVcookies
p306
aa(lp307
Vadvmod
p308
aVmake
p309
aVhow
p310
aa(lp311
Vamod
p312
aVbaggies
p313
aVmany
p314
aa(lp315
Vdep
p316
aVhow
p317
aVbaggies
p318
aa(lp319
Vaux
p320
aVmake
p321
aVcould
p322
aa(lp323
Vnsubj
p324
aVmake
p325
aVshe
p326
aasVwords
p327
(lp328
(lp329
VIf
p330
a(dp331
VNamedEntityTag
p332
g78
sVCharacterOffsetEnd
p333
V68
p334
sVCharacterOffsetBegin
p335
V66
p336
sVPartOfSpeech
p337
VIN
p338
sVLemma
p339
Vif
p340
saa(lp341
Vshe
p342
a(dp343
VNamedEntityTag
p344
g78
sVCharacterOffsetEnd
p345
V72
p346
sVCharacterOffsetBegin
p347
V69
p348
sVPartOfSpeech
p349
VPRP
p350
sVLemma
p351
Vshe
p352
saa(lp353
Vhad
p354
a(dp355
VNamedEntityTag
p356
g78
sVCharacterOffsetEnd
p357
V76
p358
sVCharacterOffsetBegin
p359
V73
p360
sVPartOfSpeech
p361
VVBD
p362
sVLemma
p363
Vhave
p364
saa(lp365
g282
a(dp366
VNormalizedNamedEntityTag
p367
V5.0
p368
sVLemma
p369
g282
sVCharacterOffsetEnd
p370
V78
p371
sVPartOfSpeech
p372
VCD
p373
sVCharacterOffsetBegin
p374
V77
p375
sVNamedEntityTag
p376
VNUMBER
p377
saa(lp378
Vchocolate
p379
a(dp380
VNamedEntityTag
p381
g78
sVCharacterOffsetEnd
p382
V88
p383
sVCharacterOffsetBegin
p384
V79
p385
sVPartOfSpeech
p386
VNN
p387
sVLemma
p388
Vchocolate
p389
saa(lp390
Vchip
p391
a(dp392
VNamedEntityTag
p393
g78
sVCharacterOffsetEnd
p394
V93
p395
sVCharacterOffsetBegin
p396
V89
p397
sVPartOfSpeech
p398
VNN
p399
sVLemma
p400
Vchip
p401
saa(lp402
Vcookies
p403
a(dp404
VNamedEntityTag
p405
g78
sVCharacterOffsetEnd
p406
V101
p407
sVCharacterOffsetBegin
p408
V94
p409
sVPartOfSpeech
p410
VNNS
p411
sVLemma
p412
Vcookie
p413
saa(lp414
Vand
p415
a(dp416
VNamedEntityTag
p417
g78
sVCharacterOffsetEnd
p418
V105
p419
sVCharacterOffsetBegin
p420
V102
p421
sVPartOfSpeech
p422
VCC
p423
sVLemma
p424
Vand
p425
saa(lp426
V19
p427
a(dp428
VNormalizedNamedEntityTag
p429
V19.0
p430
sVLemma
p431
V19
p432
sVCharacterOffsetEnd
p433
V108
p434
sVPartOfSpeech
p435
VCD
p436
sVCharacterOffsetBegin
p437
V106
p438
sVNamedEntityTag
p439
VNUMBER
p440
saa(lp441
Voatmeal
p442
a(dp443
VNamedEntityTag
p444
g78
sVCharacterOffsetEnd
p445
V116
p446
sVCharacterOffsetBegin
p447
V109
p448
sVPartOfSpeech
p449
VNN
p450
sVLemma
p451
Voatmeal
p452
saa(lp453
Vcookies
p454
a(dp455
VNamedEntityTag
p456
g78
sVCharacterOffsetEnd
p457
V124
p458
sVCharacterOffsetBegin
p459
V117
p460
sVPartOfSpeech
p461
VNNS
p462
sVLemma
p463
Vcookie
p464
saa(lp465
V,
p466
a(dp467
VNamedEntityTag
p468
g78
sVCharacterOffsetEnd
p469
V126
p470
sVCharacterOffsetBegin
p471
V125
p472
sVPartOfSpeech
p473
g466
sVLemma
p474
g466
saa(lp475
Vhow
p476
a(dp477
VNamedEntityTag
p478
g78
sVCharacterOffsetEnd
p479
V130
p480
sVCharacterOffsetBegin
p481
V127
p482
sVPartOfSpeech
p483
VWRB
p484
sVLemma
p485
Vhow
p486
saa(lp487
Vmany
p488
a(dp489
VNamedEntityTag
p490
g78
sVCharacterOffsetEnd
p491
V135
p492
sVCharacterOffsetBegin
p493
V131
p494
sVPartOfSpeech
p495
VJJ
p496
sVLemma
p497
Vmany
p498
saa(lp499
Vbaggies
p500
a(dp501
VNamedEntityTag
p502
g78
sVCharacterOffsetEnd
p503
V143
p504
sVCharacterOffsetBegin
p505
V136
p506
sVPartOfSpeech
p507
VNNS
p508
sVLemma
p509
Vbaggy
p510
saa(lp511
Vcould
p512
a(dp513
VNamedEntityTag
p514
g78
sVCharacterOffsetEnd
p515
V149
p516
sVCharacterOffsetBegin
p517
V144
p518
sVPartOfSpeech
p519
VMD
p520
sVLemma
p521
Vcould
p522
saa(lp523
Vshe
p524
a(dp525
VNamedEntityTag
p526
g78
sVCharacterOffsetEnd
p527
V153
p528
sVCharacterOffsetBegin
p529
V150
p530
sVPartOfSpeech
p531
VPRP
p532
sVLemma
p533
Vshe
p534
saa(lp535
Vmake
p536
a(dp537
VNamedEntityTag
p538
g78
sVCharacterOffsetEnd
p539
V158
p540
sVCharacterOffsetBegin
p541
V154
p542
sVPartOfSpeech
p543
VVB
p544
sVLemma
p545
Vmake
p546
saa(lp547
V?
p548
a(dp549
VNamedEntityTag
p550
g78
sVCharacterOffsetEnd
p551
V160
p552
sVCharacterOffsetBegin
p553
V159
p554
sVPartOfSpeech
p555
g209
sVLemma
p556
g548
saasVindexeddependencies
p557
(lp558
(lp559
Vroot
p560
aVROOT-0
p561
aVmake-18
p562
aa(lp563
Vmark
p564
aVhad-3
p565
aVIf-1
p566
aa(lp567
Vnsubj
p568
aVhad-3
p569
aVshe-2
p570
aa(lp571
Vadvcl
p572
aVmake-18
p573
aVhad-3
p574
aa(lp575
Vnum
p576
aVcookies-7
p577
aV5-4
p578
aa(lp579
Vnn
p580
aVcookies-7
p581
aVchocolate-5
p582
aa(lp583
Vnn
p584
aVcookies-7
p585
aVchip-6
p586
aa(lp587
Vdobj
p588
aVhad-3
p589
aVcookies-7
p590
aa(lp591
Vnum
p592
aVcookies-11
p593
aV19-9
p594
aa(lp595
Vnn
p596
aVcookies-11
p597
aVoatmeal-10
p598
aa(lp599
Vconj_and
p600
aVcookies-7
p601
aVcookies-11
p602
aa(lp603
Vadvmod
p604
aVmake-18
p605
aVhow-13
p606
aa(lp607
Vamod
p608
aVbaggies-15
p609
aVmany-14
p610
aa(lp611
Vdep
p612
aVhow-13
p613
aVbaggies-15
p614
aa(lp615
Vaux
p616
aVmake-18
p617
aVcould-16
p618
aa(lp619
Vnsubj
p620
aVmake-18
p621
aVshe-17
p622
aasas.