(dp0
Vcoref
p1
(lp2
(lp3
(lp4
(lp5
Vshe
p6
aI1
aI1
aI1
aI2
aa(lp7
Vher older sister
p8
aI0
aI16
aI14
aI17
aaa(lp9
(lp10
Vher
p11
aI1
aI15
aI15
aI16
aa(lp12
Vher older sister
p13
aI0
aI16
aI14
aI17
aaaasVsentences
p14
(lp15
(dp16
Vparsetree
p17
V(ROOT (S (IN For) (NP (NNP Halloween) (NNP Sarah)) (VP (VBD received) (NP (NP (CD 66) (NNS pieces)) (PP (IN of) (NP (NN candy)))) (PP (IN from) (NP (NP (NNS neighbors)) (CC and) (NP (CD 15) (NNS pieces)))) (PP (IN from) (NP (PRP$ her) (JJR older) (NN sister)))) (. .)))
p18
sVtext
p19
VFor Halloween Sarah received 66 pieces of candy from neighbors and 15 pieces from her older sister .
p20
sVdependencies
p21
(lp22
(lp23
Vroot
p24
aVROOT
p25
aVreceived
p26
aa(lp27
Vdep
p28
aVreceived
p29
aVFor
p30
aa(lp31
Vnn
p32
aVSarah
p33
aVHalloween
p34
aa(lp35
Vnsubj
p36
aVreceived
p37
aVSarah
p38
aa(lp39
Vnum
p40
aVpieces
p41
aV66
p42
aa(lp43
Vdobj
p44
aVreceived
p45
aVpieces
p46
aa(lp47
Vprep_of
p48
aVpieces
p49
aVcandy
p50
aa(lp51
Vprep_from
p52
aVreceived
p53
aVneighbors
p54
aa(lp55
Vnum
p56
aVpieces
p57
aV15
p58
aa(lp59
Vconj_and
p60
aVneighbors
p61
aVpieces
p62
aa(lp63
Vposs
p64
aVsister
p65
aVher
p66
aa(lp67
Vamod
p68
aVsister
p69
aVolder
p70
aa(lp71
Vprep_from
p72
aVreceived
p73
aVsister
p74
aasVwords
p75
(lp76
(lp77
VFor
p78
a(dp79
VNamedEntityTag
p80
VO
p81
sVCharacterOffsetEnd
p82
V4
p83
sVCharacterOffsetBegin
p84
V1
p85
sVPartOfSpeech
p86
VIN
p87
sVLemma
p88
Vfor
p89
saa(lp90
VHalloween
p91
a(dp92
VNormalizedNamedEntityTag
p93
VXXXX-10-31
p94
sVTimex
p95
V<TIMEX3 tid="t1" type="DATE" value="XXXX-10-31">Halloween</TIMEX3>
p96
sVLemma
p97
VHalloween
p98
sVCharacterOffsetEnd
p99
V14
p100
sVPartOfSpeech
p101
VNNP
p102
sVCharacterOffsetBegin
p103
V5
p104
sVNamedEntityTag
p105
VDATE
p106
saa(lp107
VSarah
p108
a(dp109
VNamedEntityTag
p110
VPERSON
p111
sVCharacterOffsetEnd
p112
V20
p113
sVCharacterOffsetBegin
p114
V15
p115
sVPartOfSpeech
p116
VNNP
p117
sVLemma
p118
VSarah
p119
saa(lp120
Vreceived
p121
a(dp122
VNamedEntityTag
p123
g81
sVCharacterOffsetEnd
p124
V29
p125
sVCharacterOffsetBegin
p126
V21
p127
sVPartOfSpeech
p128
VVBD
p129
sVLemma
p130
Vreceive
p131
saa(lp132
V66
p133
a(dp134
VNormalizedNamedEntityTag
p135
V66.0
p136
sVLemma
p137
V66
p138
sVCharacterOffsetEnd
p139
V32
p140
sVPartOfSpeech
p141
VCD
p142
sVCharacterOffsetBegin
p143
V30
p144
sVNamedEntityTag
p145
VNUMBER
p146
saa(lp147
Vpieces
p148
a(dp149
VNamedEntityTag
p150
g81
sVCharacterOffsetEnd
p151
V39
p152
sVCharacterOffsetBegin
p153
V33
p154
sVPartOfSpeech
p155
VNNS
p156
sVLemma
p157
Vpiece
p158
saa(lp159
Vof
p160
a(dp161
VNamedEntityTag
p162
g81
sVCharacterOffsetEnd
p163
V42
p164
sVCharacterOffsetBegin
p165
V40
p166
sVPartOfSpeech
p167
VIN
p168
sVLemma
p169
Vof
p170
saa(lp171
Vcandy
p172
a(dp173
VNamedEntityTag
p174
g81
sVCharacterOffsetEnd
p175
V48
p176
sVCharacterOffsetBegin
p177
V43
p178
sVPartOfSpeech
p179
VNN
p180
sVLemma
p181
Vcandy
p182
saa(lp183
Vfrom
p184
a(dp185
VNamedEntityTag
p186
g81
sVCharacterOffsetEnd
p187
V53
p188
sVCharacterOffsetBegin
p189
V49
p190
sVPartOfSpeech
p191
VIN
p192
sVLemma
p193
Vfrom
p194
saa(lp195
Vneighbors
p196
a(dp197
VNamedEntityTag
p198
g81
sVCharacterOffsetEnd
p199
V63
p200
sVCharacterOffsetBegin
p201
V54
p202
sVPartOfSpeech
p203
VNNS
p204
sVLemma
p205
Vneighbor
p206
saa(lp207
Vand
p208
a(dp209
VNamedEntityTag
p210
g81
sVCharacterOffsetEnd
p211
V67
p212
sVCharacterOffsetBegin
p213
V64
p214
sVPartOfSpeech
p215
VCC
p216
sVLemma
p217
Vand
p218
saa(lp219
V15
p220
a(dp221
VNormalizedNamedEntityTag
p222
V15.0
p223
sVLemma
p224
V15
p225
sVCharacterOffsetEnd
p226
V70
p227
sVPartOfSpeech
p228
VCD
p229
sVCharacterOffsetBegin
p230
V68
p231
sVNamedEntityTag
p232
VNUMBER
p233
saa(lp234
Vpieces
p235
a(dp236
VNamedEntityTag
p237
g81
sVCharacterOffsetEnd
p238
V77
p239
sVCharacterOffsetBegin
p240
V71
p241
sVPartOfSpeech
p242
VNNS
p243
sVLemma
p244
Vpiece
p245
saa(lp246
Vfrom
p247
a(dp248
VNamedEntityTag
p249
g81
sVCharacterOffsetEnd
p250
V82
p251
sVCharacterOffsetBegin
p252
V78
p253
sVPartOfSpeech
p254
VIN
p255
sVLemma
p256
Vfrom
p257
saa(lp258
Vher
p259
a(dp260
VNamedEntityTag
p261
g81
sVCharacterOffsetEnd
p262
V86
p263
sVCharacterOffsetBegin
p264
V83
p265
sVPartOfSpeech
p266
VPRP$
p267
sVLemma
p268
Vshe
p269
saa(lp270
Volder
p271
a(dp272
VNamedEntityTag
p273
g81
sVCharacterOffsetEnd
p274
V92
p275
sVCharacterOffsetBegin
p276
V87
p277
sVPartOfSpeech
p278
VJJR
p279
sVLemma
p280
Volder
p281
saa(lp282
Vsister
p283
a(dp284
VNamedEntityTag
p285
g81
sVCharacterOffsetEnd
p286
V99
p287
sVCharacterOffsetBegin
p288
V93
p289
sVPartOfSpeech
p290
VNN
p291
sVLemma
p292
Vsister
p293
saa(lp294
V.
p295
a(dp296
VNamedEntityTag
p297
g81
sVCharacterOffsetEnd
p298
V101
p299
sVCharacterOffsetBegin
p300
V100
p301
sVPartOfSpeech
p302
g295
sVLemma
p303
g295
saasVindexeddependencies
p304
(lp305
(lp306
Vroot
p307
aVROOT-0
p308
aVreceived-4
p309
aa(lp310
Vdep
p311
aVreceived-4
p312
aVFor-1
p313
aa(lp314
Vnn
p315
aVSarah-3
p316
aVHalloween-2
p317
aa(lp318
Vnsubj
p319
aVreceived-4
p320
aVSarah-3
p321
aa(lp322
Vnum
p323
aVpieces-6
p324
aV66-5
p325
aa(lp326
Vdobj
p327
aVreceived-4
p328
aVpieces-6
p329
aa(lp330
Vprep_of
p331
aVpieces-6
p332
aVcandy-8
p333
aa(lp334
Vprep_from
p335
aVreceived-4
p336
aVneighbors-10
p337
aa(lp338
Vnum
p339
aVpieces-13
p340
aV15-12
p341
aa(lp342
Vconj_and
p343
aVneighbors-10
p344
aVpieces-13
p345
aa(lp346
Vposs
p347
aVsister-17
p348
aVher-15
p349
aa(lp350
Vamod
p351
aVsister-17
p352
aVolder-16
p353
aa(lp354
Vprep_from
p355
aVreceived-4
p356
aVsister-17
p357
aasa(dp358
Vparsetree
p359
V(ROOT (SBARQ (SBAR (IN If) (S (NP (PRP she)) (ADVP (RB only)) (VP (VBD ate) (NP (NP (CD 9) (NNS pieces)) (NP (DT a) (NN day)))))) (, ,) (WHADVP (WRB how) (RB long)) (SQ (VP (MD would)) (NP (DT the) (NN candy)) (ADVP (JJ last)) (NP (PRP$ her)) (. ?))))
p360
sVtext
p361
VIf she only ate 9 pieces a day , how long would the candy last her ?
p362
sVdependencies
p363
(lp364
(lp365
Vroot
p366
aVROOT
p367
aVwould
p368
aa(lp369
Vmark
p370
aVate
p371
aVIf
p372
aa(lp373
Vnsubj
p374
aVate
p375
aVshe
p376
aa(lp377
Vadvmod
p378
aVate
p379
aVonly
p380
aa(lp381
Vadvcl
p382
aVwould
p383
aVate
p384
aa(lp385
Vnum
p386
aVpieces
p387
aV9
p388
aa(lp389
Vdobj
p390
aVate
p391
aVpieces
p392
aa(lp393
Vdet
p394
aVday
p395
aVa
p396
aa(lp397
Vdep
p398
aVpieces
p399
aVday
p400
aa(lp401
Vadvmod
p402
aVlong
p403
aVhow
p404
aa(lp405
Vadvmod
p406
aVwould
p407
aVlong
p408
aa(lp409
Vdet
p410
aVcandy
p411
aVthe
p412
aa(lp413
Vdep
p414
aVwould
p415
aVcandy
p416
aa(lp417
Vadvmod
p418
aVwould
p419
aVlast
p420
aa(lp421
Vdep
p422
aVwould
p423
aVher
p424
aasVwords
p425
(lp426
(lp427
VIf
p428
a(dp429
VNamedEntityTag
p430
g81
sVCharacterOffsetEnd
p431
V104
p432
sVCharacterOffsetBegin
p433
V102
p434
sVPartOfSpeech
p435
VIN
p436
sVLemma
p437
Vif
p438
saa(lp439
Vshe
p440
a(dp441
VNamedEntityTag
p442
g81
sVCharacterOffsetEnd
p443
V108
p444
sVCharacterOffsetBegin
p445
V105
p446
sVPartOfSpeech
p447
VPRP
p448
sVLemma
p449
Vshe
p450
saa(lp451
Vonly
p452
a(dp453
VNamedEntityTag
p454
g81
sVCharacterOffsetEnd
p455
V113
p456
sVCharacterOffsetBegin
p457
V109
p458
sVPartOfSpeech
p459
VRB
p460
sVLemma
p461
Vonly
p462
saa(lp463
Vate
p464
a(dp465
VNamedEntityTag
p466
g81
sVCharacterOffsetEnd
p467
V117
p468
sVCharacterOffsetBegin
p469
V114
p470
sVPartOfSpeech
p471
VVBD
p472
sVLemma
p473
Veat
p474
saa(lp475
g388
a(dp476
VNormalizedNamedEntityTag
p477
V9.0
p478
sVLemma
p479
g388
sVCharacterOffsetEnd
p480
V119
p481
sVPartOfSpeech
p482
VCD
p483
sVCharacterOffsetBegin
p484
V118
p485
sVNamedEntityTag
p486
VNUMBER
p487
saa(lp488
Vpieces
p489
a(dp490
VNamedEntityTag
p491
g81
sVCharacterOffsetEnd
p492
V126
p493
sVCharacterOffsetBegin
p494
V120
p495
sVPartOfSpeech
p496
VNNS
p497
sVLemma
p498
Vpiece
p499
saa(lp500
g396
a(dp501
VNormalizedNamedEntityTag
p502
VP1D
p503
sVTimex
p504
V<TIMEX3 tid="t2" type="DURATION" value="P1D">a day</TIMEX3>
p505
sVLemma
p506
g396
sVCharacterOffsetEnd
p507
V128
p508
sVPartOfSpeech
p509
VDT
p510
sVCharacterOffsetBegin
p511
V127
p512
sVNamedEntityTag
p513
VDURATION
p514
saa(lp515
Vday
p516
a(dp517
VNormalizedNamedEntityTag
p518
VP1D
p519
sVTimex
p520
V<TIMEX3 tid="t2" type="DURATION" value="P1D">a day</TIMEX3>
p521
sVLemma
p522
Vday
p523
sVCharacterOffsetEnd
p524
V132
p525
sVPartOfSpeech
p526
VNN
p527
sVCharacterOffsetBegin
p528
V129
p529
sVNamedEntityTag
p530
VDURATION
p531
saa(lp532
V,
p533
a(dp534
VNamedEntityTag
p535
g81
sVCharacterOffsetEnd
p536
V134
p537
sVCharacterOffsetBegin
p538
V133
p539
sVPartOfSpeech
p540
g533
sVLemma
p541
g533
saa(lp542
Vhow
p543
a(dp544
VNamedEntityTag
p545
g81
sVCharacterOffsetEnd
p546
V138
p547
sVCharacterOffsetBegin
p548
V135
p549
sVPartOfSpeech
p550
VWRB
p551
sVLemma
p552
Vhow
p553
saa(lp554
Vlong
p555
a(dp556
VNamedEntityTag
p557
g81
sVCharacterOffsetEnd
p558
V143
p559
sVCharacterOffsetBegin
p560
V139
p561
sVPartOfSpeech
p562
VRB
p563
sVLemma
p564
Vlong
p565
saa(lp566
Vwould
p567
a(dp568
VNamedEntityTag
p569
g81
sVCharacterOffsetEnd
p570
V149
p571
sVCharacterOffsetBegin
p572
V144
p573
sVPartOfSpeech
p574
VMD
p575
sVLemma
p576
Vwould
p577
saa(lp578
Vthe
p579
a(dp580
VNamedEntityTag
p581
g81
sVCharacterOffsetEnd
p582
V153
p583
sVCharacterOffsetBegin
p584
V150
p585
sVPartOfSpeech
p586
VDT
p587
sVLemma
p588
Vthe
p589
saa(lp590
Vcandy
p591
a(dp592
VNamedEntityTag
p593
g81
sVCharacterOffsetEnd
p594
V159
p595
sVCharacterOffsetBegin
p596
V154
p597
sVPartOfSpeech
p598
VNN
p599
sVLemma
p600
Vcandy
p601
saa(lp602
Vlast
p603
a(dp604
VNamedEntityTag
p605
g81
sVCharacterOffsetEnd
p606
V164
p607
sVCharacterOffsetBegin
p608
V160
p609
sVPartOfSpeech
p610
VJJ
p611
sVLemma
p612
Vlast
p613
saa(lp614
Vher
p615
a(dp616
VNamedEntityTag
p617
g81
sVCharacterOffsetEnd
p618
V168
p619
sVCharacterOffsetBegin
p620
V165
p621
sVPartOfSpeech
p622
VPRP$
p623
sVLemma
p624
Vshe
p625
saa(lp626
V?
p627
a(dp628
VNamedEntityTag
p629
g81
sVCharacterOffsetEnd
p630
V170
p631
sVCharacterOffsetBegin
p632
V169
p633
sVPartOfSpeech
p634
g295
sVLemma
p635
g627
saasVindexeddependencies
p636
(lp637
(lp638
Vroot
p639
aVROOT-0
p640
aVwould-12
p641
aa(lp642
Vmark
p643
aVate-4
p644
aVIf-1
p645
aa(lp646
Vnsubj
p647
aVate-4
p648
aVshe-2
p649
aa(lp650
Vadvmod
p651
aVate-4
p652
aVonly-3
p653
aa(lp654
Vadvcl
p655
aVwould-12
p656
aVate-4
p657
aa(lp658
Vnum
p659
aVpieces-6
p660
aV9-5
p661
aa(lp662
Vdobj
p663
aVate-4
p664
aVpieces-6
p665
aa(lp666
Vdet
p667
aVday-8
p668
aVa-7
p669
aa(lp670
Vdep
p671
aVpieces-6
p672
aVday-8
p673
aa(lp674
Vadvmod
p675
aVlong-11
p676
aVhow-10
p677
aa(lp678
Vadvmod
p679
aVwould-12
p680
aVlong-11
p681
aa(lp682
Vdet
p683
aVcandy-14
p684
aVthe-13
p685
aa(lp686
Vdep
p687
aVwould-12
p688
aVcandy-14
p689
aa(lp690
Vadvmod
p691
aVwould-12
p692
aVlast-15
p693
aa(lp694
Vdep
p695
aVwould-12
p696
aVher-16
p697
aasas.