(dp0
Vcoref
p1
(lp2
(lp3
(lp4
(lp5
Vher
p6
aI0
aI5
aI5
aI6
aa(lp7
VTiffany
p8
aI0
aI0
aI0
aI1
aaa(lp9
(lp10
Vher
p11
aI0
aI10
aI10
aI11
aa(lp12
VTiffany
p13
aI0
aI0
aI0
aI1
aaa(lp14
(lp15
Vshe
p16
aI1
aI1
aI1
aI2
aa(lp17
VTiffany
p18
aI0
aI0
aI0
aI1
aaaa(lp19
(lp20
(lp21
Vthe albums
p22
aI1
aI27
aI26
aI28
aa(lp23
V5 different albums
p24
aI1
aI8
aI6
aI9
aaaasVsentences
p25
(lp26
(dp27
Vparsetree
p28
V(ROOT (S (NP (NNP Tiffany)) (VP (VBD uploaded) (NP (CD 7) (NNS pictures)) (PP (IN from) (NP (NP (PRP$ her) (NN phone)) (CC and) (NP (CD 13)))) (PP (IN from) (NP (PRP$ her) (NN camera))) (PP (TO to) (NP (NN facebook)))) (. .)))
p29
sVtext
p30
VTiffany uploaded 7 pictures from her phone and 13 from her camera to facebook .
p31
sVdependencies
p32
(lp33
(lp34
Vroot
p35
aVROOT
p36
aVuploaded
p37
aa(lp38
Vnsubj
p39
aVuploaded
p40
aVTiffany
p41
aa(lp42
Vnum
p43
aVpictures
p44
aV7
p45
aa(lp46
Vdobj
p47
aVuploaded
p48
aVpictures
p49
aa(lp50
Vposs
p51
aVphone
p52
aVher
p53
aa(lp54
Vprep_from
p55
aVuploaded
p56
aVphone
p57
aa(lp58
Vconj_and
p59
aVphone
p60
aV13
p61
aa(lp62
Vposs
p63
aVcamera
p64
aVher
p65
aa(lp66
Vprep_from
p67
aVuploaded
p68
aVcamera
p69
aa(lp70
Vprep_to
p71
aVuploaded
p72
aVfacebook
p73
aasVwords
p74
(lp75
(lp76
VTiffany
p77
a(dp78
VNamedEntityTag
p79
VPERSON
p80
sVCharacterOffsetEnd
p81
V8
p82
sVCharacterOffsetBegin
p83
V1
p84
sVPartOfSpeech
p85
VNNP
p86
sVLemma
p87
VTiffany
p88
saa(lp89
Vuploaded
p90
a(dp91
VNamedEntityTag
p92
VO
p93
sVCharacterOffsetEnd
p94
V17
p95
sVCharacterOffsetBegin
p96
V9
p97
sVPartOfSpeech
p98
VVBD
p99
sVLemma
p100
Vupload
p101
saa(lp102
g45
a(dp103
VNormalizedNamedEntityTag
p104
V7.0
p105
sVLemma
p106
g45
sVCharacterOffsetEnd
p107
V19
p108
sVPartOfSpeech
p109
VCD
p110
sVCharacterOffsetBegin
p111
V18
p112
sVNamedEntityTag
p113
VNUMBER
p114
saa(lp115
Vpictures
p116
a(dp117
VNamedEntityTag
p118
g93
sVCharacterOffsetEnd
p119
V28
p120
sVCharacterOffsetBegin
p121
V20
p122
sVPartOfSpeech
p123
VNNS
p124
sVLemma
p125
Vpicture
p126
saa(lp127
Vfrom
p128
a(dp129
VNamedEntityTag
p130
g93
sVCharacterOffsetEnd
p131
V33
p132
sVCharacterOffsetBegin
p133
V29
p134
sVPartOfSpeech
p135
VIN
p136
sVLemma
p137
Vfrom
p138
saa(lp139
Vher
p140
a(dp141
VNamedEntityTag
p142
g93
sVCharacterOffsetEnd
p143
V37
p144
sVCharacterOffsetBegin
p145
V34
p146
sVPartOfSpeech
p147
VPRP$
p148
sVLemma
p149
Vshe
p150
saa(lp151
Vphone
p152
a(dp153
VNamedEntityTag
p154
g93
sVCharacterOffsetEnd
p155
V43
p156
sVCharacterOffsetBegin
p157
V38
p158
sVPartOfSpeech
p159
VNN
p160
sVLemma
p161
Vphone
p162
saa(lp163
Vand
p164
a(dp165
VNamedEntityTag
p166
g93
sVCharacterOffsetEnd
p167
V47
p168
sVCharacterOffsetBegin
p169
V44
p170
sVPartOfSpeech
p171
VCC
p172
sVLemma
p173
Vand
p174
saa(lp175
V13
p176
a(dp177
VNormalizedNamedEntityTag
p178
V13.0
p179
sVLemma
p180
V13
p181
sVCharacterOffsetEnd
p182
V50
p183
sVPartOfSpeech
p184
VCD
p185
sVCharacterOffsetBegin
p186
V48
p187
sVNamedEntityTag
p188
VNUMBER
p189
saa(lp190
Vfrom
p191
a(dp192
VNamedEntityTag
p193
g93
sVCharacterOffsetEnd
p194
V55
p195
sVCharacterOffsetBegin
p196
V51
p197
sVPartOfSpeech
p198
VIN
p199
sVLemma
p200
Vfrom
p201
saa(lp202
Vher
p203
a(dp204
VNamedEntityTag
p205
g93
sVCharacterOffsetEnd
p206
V59
p207
sVCharacterOffsetBegin
p208
V56
p209
sVPartOfSpeech
p210
VPRP$
p211
sVLemma
p212
Vshe
p213
saa(lp214
Vcamera
p215
a(dp216
VNamedEntityTag
p217
g93
sVCharacterOffsetEnd
p218
V66
p219
sVCharacterOffsetBegin
p220
V60
p221
sVPartOfSpeech
p222
VNN
p223
sVLemma
p224
Vcamera
p225
saa(lp226
Vto
p227
a(dp228
VNamedEntityTag
p229
g93
sVCharacterOffsetEnd
p230
V69
p231
sVCharacterOffsetBegin
p232
V67
p233
sVPartOfSpeech
p234
VTO
p235
sVLemma
p236
Vto
p237
saa(lp238
Vfacebook
p239
a(dp240
VNamedEntityTag
p241
g93
sVCharacterOffsetEnd
p242
V78
p243
sVCharacterOffsetBegin
p244
V70
p245
sVPartOfSpeech
p246
VNN
p247
sVLemma
p248
Vfacebook
p249
saa(lp250
V.
p251
a(dp252
VNamedEntityTag
p253
g93
sVCharacterOffsetEnd
p254
V80
p255
sVCharacterOffsetBegin
p256
V79
p257
sVPartOfSpeech
p258
g251
sVLemma
p259
g251
saasVindexeddependencies
p260
(lp261
(lp262
Vroot
p263
aVROOT-0
p264
aVuploaded-2
p265
aa(lp266
Vnsubj
p267
aVuploaded-2
p268
aVTiffany-1
p269
aa(lp270
Vnum
p271
aVpictures-4
p272
aV7-3
p273
aa(lp274
Vdobj
p275
aVuploaded-2
p276
aVpictures-4
p277
aa(lp278
Vposs
p279
aVphone-7
p280
aVher-6
p281
aa(lp282
Vprep_from
p283
aVuploaded-2
p284
aVphone-7
p285
aa(lp286
Vconj_and
p287
aVphone-7
p288
aV13-9
p289
aa(lp290
Vposs
p291
aVcamera-12
p292
aVher-11
p293
aa(lp294
Vprep_from
p295
aVuploaded-2
p296
aVcamera-12
p297
aa(lp298
Vprep_to
p299
aVuploaded-2
p300
aVfacebook-14
p301
aasa(dp302
Vparsetree
p303
V(ROOT (SBARQ (SBAR (IN If) (S (NP (PRP she)) (VP (VBD sorted) (NP (DT the) (NNS pics)) (PP (IN into) (NP (CD 5) (JJ different) (NNS albums))) (PP (IN with) (NP (NP (DT the) (JJ same) (NN amount)) (PP (IN of) (NP (NP (NNS pics)) (PP (IN in) (NP (DT each) (NN album)))))))))) (, ,) (WHNP (WHADJP (WRB how) (JJ many)) (NNS pictures)) (SQ (VP (VBD were) (PP (IN in) (NP (NP (DT each)) (PP (IN of) (NP (DT the) (NNS albums))))))) (. ?)))
p304
sVtext
p305
VIf she sorted the pics into 5 different albums with the same amount of pics in each album , how many pictures were in each of the albums ?
p306
sVdependencies
p307
(lp308
(lp309
Vroot
p310
aVROOT
p311
aVwere
p312
aa(lp313
Vmark
p314
aVsorted
p315
aVIf
p316
aa(lp317
Vnsubj
p318
aVsorted
p319
aVshe
p320
aa(lp321
Vadvcl
p322
aVwere
p323
aVsorted
p324
aa(lp325
Vdet
p326
aVpics
p327
aVthe
p328
aa(lp329
Vdobj
p330
aVsorted
p331
aVpics
p332
aa(lp333
Vnum
p334
aValbums
p335
aV5
p336
aa(lp337
Vamod
p338
aValbums
p339
aVdifferent
p340
aa(lp341
Vprep_into
p342
aVsorted
p343
aValbums
p344
aa(lp345
Vdet
p346
aVamount
p347
aVthe
p348
aa(lp349
Vamod
p350
aVamount
p351
aVsame
p352
aa(lp353
Vprep_with
p354
aVsorted
p355
aVamount
p356
aa(lp357
Vprep_of
p358
aVamount
p359
aVpics
p360
aa(lp361
Vdet
p362
aValbum
p363
aVeach
p364
aa(lp365
Vprep_in
p366
aVpics
p367
aValbum
p368
aa(lp369
Vadvmod
p370
aVmany
p371
aVhow
p372
aa(lp373
Vamod
p374
aVpictures
p375
aVmany
p376
aa(lp377
Vnsubj
p378
aVwere
p379
aVpictures
p380
aa(lp381
Vprep_in
p382
aVwere
p383
aVeach
p384
aa(lp385
Vdet
p386
aValbums
p387
aVthe
p388
aa(lp389
Vprep_of
p390
aVeach
p391
aValbums
p392
aasVwords
p393
(lp394
(lp395
VIf
p396
a(dp397
VNamedEntityTag
p398
g93
sVCharacterOffsetEnd
p399
V83
p400
sVCharacterOffsetBegin
p401
V81
p402
sVPartOfSpeech
p403
VIN
p404
sVLemma
p405
Vif
p406
saa(lp407
Vshe
p408
a(dp409
VNamedEntityTag
p410
g93
sVCharacterOffsetEnd
p411
V87
p412
sVCharacterOffsetBegin
p413
V84
p414
sVPartOfSpeech
p415
VPRP
p416
sVLemma
p417
Vshe
p418
saa(lp419
Vsorted
p420
a(dp421
VNamedEntityTag
p422
g93
sVCharacterOffsetEnd
p423
V94
p424
sVCharacterOffsetBegin
p425
V88
p426
sVPartOfSpeech
p427
VVBD
p428
sVLemma
p429
Vsort
p430
saa(lp431
Vthe
p432
a(dp433
VNamedEntityTag
p434
g93
sVCharacterOffsetEnd
p435
V98
p436
sVCharacterOffsetBegin
p437
V95
p438
sVPartOfSpeech
p439
VDT
p440
sVLemma
p441
Vthe
p442
saa(lp443
Vpics
p444
a(dp445
VNamedEntityTag
p446
g93
sVCharacterOffsetEnd
p447
V103
p448
sVCharacterOffsetBegin
p449
V99
p450
sVPartOfSpeech
p451
VNNS
p452
sVLemma
p453
Vpic
p454
saa(lp455
Vinto
p456
a(dp457
VNamedEntityTag
p458
g93
sVCharacterOffsetEnd
p459
V108
p460
sVCharacterOffsetBegin
p461
V104
p462
sVPartOfSpeech
p463
VIN
p464
sVLemma
p465
Vinto
p466
saa(lp467
g336
a(dp468
VNormalizedNamedEntityTag
p469
V5.0
p470
sVLemma
p471
g336
sVCharacterOffsetEnd
p472
V110
p473
sVPartOfSpeech
p474
VCD
p475
sVCharacterOffsetBegin
p476
V109
p477
sVNamedEntityTag
p478
VNUMBER
p479
saa(lp480
Vdifferent
p481
a(dp482
VNamedEntityTag
p483
g93
sVCharacterOffsetEnd
p484
V120
p485
sVCharacterOffsetBegin
p486
V111
p487
sVPartOfSpeech
p488
VJJ
p489
sVLemma
p490
Vdifferent
p491
saa(lp492
Valbums
p493
a(dp494
VNamedEntityTag
p495
g93
sVCharacterOffsetEnd
p496
V127
p497
sVCharacterOffsetBegin
p498
V121
p499
sVPartOfSpeech
p500
VNNS
p501
sVLemma
p502
Valbum
p503
saa(lp504
Vwith
p505
a(dp506
VNamedEntityTag
p507
g93
sVCharacterOffsetEnd
p508
V132
p509
sVCharacterOffsetBegin
p510
V128
p511
sVPartOfSpeech
p512
VIN
p513
sVLemma
p514
Vwith
p515
saa(lp516
Vthe
p517
a(dp518
VNamedEntityTag
p519
g93
sVCharacterOffsetEnd
p520
V136
p521
sVCharacterOffsetBegin
p522
V133
p523
sVPartOfSpeech
p524
VDT
p525
sVLemma
p526
Vthe
p527
saa(lp528
Vsame
p529
a(dp530
VNamedEntityTag
p531
g93
sVCharacterOffsetEnd
p532
V141
p533
sVCharacterOffsetBegin
p534
V137
p535
sVPartOfSpeech
p536
VJJ
p537
sVLemma
p538
Vsame
p539
saa(lp540
Vamount
p541
a(dp542
VNamedEntityTag
p543
g93
sVCharacterOffsetEnd
p544
V148
p545
sVCharacterOffsetBegin
p546
V142
p547
sVPartOfSpeech
p548
VNN
p549
sVLemma
p550
Vamount
p551
saa(lp552
Vof
p553
a(dp554
VNamedEntityTag
p555
g93
sVCharacterOffsetEnd
p556
V151
p557
sVCharacterOffsetBegin
p558
V149
p559
sVPartOfSpeech
p560
VIN
p561
sVLemma
p562
Vof
p563
saa(lp564
Vpics
p565
a(dp566
VNamedEntityTag
p567
g93
sVCharacterOffsetEnd
p568
V156
p569
sVCharacterOffsetBegin
p570
V152
p571
sVPartOfSpeech
p572
VNNS
p573
sVLemma
p574
Vpic
p575
saa(lp576
Vin
p577
a(dp578
VNamedEntityTag
p579
g93
sVCharacterOffsetEnd
p580
V159
p581
sVCharacterOffsetBegin
p582
V157
p583
sVPartOfSpeech
p584
VIN
p585
sVLemma
p586
Vin
p587
saa(lp588
Veach
p589
a(dp590
VNamedEntityTag
p591
g93
sVCharacterOffsetEnd
p592
V164
p593
sVCharacterOffsetBegin
p594
V160
p595
sVPartOfSpeech
p596
VDT
p597
sVLemma
p598
Veach
p599
saa(lp600
Valbum
p601
a(dp602
VNamedEntityTag
p603
g93
sVCharacterOffsetEnd
p604
V170
p605
sVCharacterOffsetBegin
p606
V165
p607
sVPartOfSpeech
p608
VNN
p609
sVLemma
p610
Valbum
p611
saa(lp612
V,
p613
a(dp614
VNamedEntityTag
p615
g93
sVCharacterOffsetEnd
p616
V172
p617
sVCharacterOffsetBegin
p618
V171
p619
sVPartOfSpeech
p620
g613
sVLemma
p621
g613
saa(lp622
Vhow
p623
a(dp624
VNamedEntityTag
p625
g93
sVCharacterOffsetEnd
p626
V176
p627
sVCharacterOffsetBegin
p628
V173
p629
sVPartOfSpeech
p630
VWRB
p631
sVLemma
p632
Vhow
p633
saa(lp634
Vmany
p635
a(dp636
VNamedEntityTag
p637
g93
sVCharacterOffsetEnd
p638
V181
p639
sVCharacterOffsetBegin
p640
V177
p641
sVPartOfSpeech
p642
VJJ
p643
sVLemma
p644
Vmany
p645
saa(lp646
Vpictures
p647
a(dp648
VNamedEntityTag
p649
g93
sVCharacterOffsetEnd
p650
V190
p651
sVCharacterOffsetBegin
p652
V182
p653
sVPartOfSpeech
p654
VNNS
p655
sVLemma
p656
Vpicture
p657
saa(lp658
Vwere
p659
a(dp660
VNamedEntityTag
p661
g93
sVCharacterOffsetEnd
p662
V195
p663
sVCharacterOffsetBegin
p664
V191
p665
sVPartOfSpeech
p666
VVBD
p667
sVLemma
p668
Vbe
p669
saa(lp670
Vin
p671
a(dp672
VNamedEntityTag
p673
g93
sVCharacterOffsetEnd
p674
V198
p675
sVCharacterOffsetBegin
p676
V196
p677
sVPartOfSpeech
p678
VIN
p679
sVLemma
p680
Vin
p681
saa(lp682
Veach
p683
a(dp684
VNamedEntityTag
p685
g93
sVCharacterOffsetEnd
p686
V203
p687
sVCharacterOffsetBegin
p688
V199
p689
sVPartOfSpeech
p690
VDT
p691
sVLemma
p692
Veach
p693
saa(lp694
Vof
p695
a(dp696
VNamedEntityTag
p697
g93
sVCharacterOffsetEnd
p698
V206
p699
sVCharacterOffsetBegin
p700
V204
p701
sVPartOfSpeech
p702
VIN
p703
sVLemma
p704
Vof
p705
saa(lp706
Vthe
p707
a(dp708
VNamedEntityTag
p709
g93
sVCharacterOffsetEnd
p710
V210
p711
sVCharacterOffsetBegin
p712
V207
p713
sVPartOfSpeech
p714
VDT
p715
sVLemma
p716
Vthe
p717
saa(lp718
Valbums
p719
a(dp720
VNamedEntityTag
p721
g93
sVCharacterOffsetEnd
p722
V217
p723
sVCharacterOffsetBegin
p724
V211
p725
sVPartOfSpeech
p726
VNNS
p727
sVLemma
p728
Valbum
p729
saa(lp730
V?
p731
a(dp732
VNamedEntityTag
p733
g93
sVCharacterOffsetEnd
p734
V219
p735
sVCharacterOffsetBegin
p736
V218
p737
sVPartOfSpeech
p738
g251
sVLemma
p739
g731
saasVindexeddependencies
p740
(lp741
(lp742
Vroot
p743
aVROOT-0
p744
aVwere-23
p745
aa(lp746
Vmark
p747
aVsorted-3
p748
aVIf-1
p749
aa(lp750
Vnsubj
p751
aVsorted-3
p752
aVshe-2
p753
aa(lp754
Vadvcl
p755
aVwere-23
p756
aVsorted-3
p757
aa(lp758
Vdet
p759
aVpics-5
p760
aVthe-4
p761
aa(lp762
Vdobj
p763
aVsorted-3
p764
aVpics-5
p765
aa(lp766
Vnum
p767
aValbums-9
p768
aV5-7
p769
aa(lp770
Vamod
p771
aValbums-9
p772
aVdifferent-8
p773
aa(lp774
Vprep_into
p775
aVsorted-3
p776
aValbums-9
p777
aa(lp778
Vdet
p779
aVamount-13
p780
aVthe-11
p781
aa(lp782
Vamod
p783
aVamount-13
p784
aVsame-12
p785
aa(lp786
Vprep_with
p787
aVsorted-3
p788
aVamount-13
p789
aa(lp790
Vprep_of
p791
aVamount-13
p792
aVpics-15
p793
aa(lp794
Vdet
p795
aValbum-18
p796
aVeach-17
p797
aa(lp798
Vprep_in
p799
aVpics-15
p800
aValbum-18
p801
aa(lp802
Vadvmod
p803
aVmany-21
p804
aVhow-20
p805
aa(lp806
Vamod
p807
aVpictures-22
p808
aVmany-21
p809
aa(lp810
Vnsubj
p811
aVwere-23
p812
aVpictures-22
p813
aa(lp814
Vprep_in
p815
aVwere-23
p816
aVeach-25
p817
aa(lp818
Vdet
p819
aValbums-28
p820
aVthe-27
p821
aa(lp822
Vprep_of
p823
aVeach-25
p824
aValbums-28
p825
aasas.