(dp0
Vcoref
p1
(lp2
(lp3
(lp4
(lp5
Vthe bears
p6
aI1
aI3
aI2
aI4
aa(lp7
V5 giant stuffed bears in stock when they got another shipment with 7 bears in it
p8
aI0
aI7
aI4
aI20
aaaa(lp9
(lp10
(lp11
Vit
p12
aI0
aI19
aI19
aI20
aa(lp13
Vanother shipment
p14
aI0
aI14
aI13
aI15
aaaa(lp15
(lp16
(lp17
Vthey
p18
aI2
aI4
aI4
aI5
aa(lp19
VThe
p20
aI1
aI0
aI0
aI1
aaaasVsentences
p21
(lp22
(dp23
Vparsetree
p24
V(ROOT (S (NP (DT A) (NN toy) (NN store)) (VP (VBD had) (NP (NP (ADJP (CD 5)) (JJ giant) (VBN stuffed) (NNS bears)) (PP (IN in) (NP (NP (NN stock)) (SBAR (WHADVP (WRB when)) (S (NP (PRP they)) (VP (VBD got) (NP (DT another) (NN shipment)) (PP (IN with) (NP (CD 7) (NNS bears))) (PP (IN in) (NP (PRP it)))))))))) (. .)))
p25
sVtext
p26
VA toy store had 5 giant stuffed bears in stock when they got another shipment with 7 bears in it .
p27
sVdependencies
p28
(lp29
(lp30
Vroot
p31
aVROOT
p32
aVhad
p33
aa(lp34
Vdet
p35
aVstore
p36
aVA
p37
aa(lp38
Vnn
p39
aVstore
p40
aVtoy
p41
aa(lp42
Vnsubj
p43
aVhad
p44
aVstore
p45
aa(lp46
Vamod
p47
aVbears
p48
aV5
p49
aa(lp50
Vamod
p51
aVbears
p52
aVgiant
p53
aa(lp54
Vamod
p55
aVbears
p56
aVstuffed
p57
aa(lp58
Vdobj
p59
aVhad
p60
aVbears
p61
aa(lp62
Vprep_in
p63
aVbears
p64
aVstock
p65
aa(lp66
Vadvmod
p67
aVgot
p68
aVwhen
p69
aa(lp70
Vnsubj
p71
aVgot
p72
aVthey
p73
aa(lp74
Vrcmod
p75
aVstock
p76
aVgot
p77
aa(lp78
Vdet
p79
aVshipment
p80
aVanother
p81
aa(lp82
Vdobj
p83
aVgot
p84
aVshipment
p85
aa(lp86
Vnum
p87
aVbears
p88
aV7
p89
aa(lp90
Vprep_with
p91
aVgot
p92
aVbears
p93
aa(lp94
Vprep_in
p95
aVgot
p96
aVit
p97
aasVwords
p98
(lp99
(lp100
g37
a(dp101
VNamedEntityTag
p102
VO
p103
sVCharacterOffsetEnd
p104
V2
p105
sVCharacterOffsetBegin
p106
V1
p107
sVPartOfSpeech
p108
VDT
p109
sVLemma
p110
Va
p111
saa(lp112
Vtoy
p113
a(dp114
VNamedEntityTag
p115
g103
sVCharacterOffsetEnd
p116
V6
p117
sVCharacterOffsetBegin
p118
V3
p119
sVPartOfSpeech
p120
VNN
p121
sVLemma
p122
Vtoy
p123
saa(lp124
Vstore
p125
a(dp126
VNamedEntityTag
p127
g103
sVCharacterOffsetEnd
p128
V12
p129
sVCharacterOffsetBegin
p130
g89
sVPartOfSpeech
p131
VNN
p132
sVLemma
p133
Vstore
p134
saa(lp135
Vhad
p136
a(dp137
VNamedEntityTag
p138
g103
sVCharacterOffsetEnd
p139
V16
p140
sVCharacterOffsetBegin
p141
V13
p142
sVPartOfSpeech
p143
VVBD
p144
sVLemma
p145
Vhave
p146
saa(lp147
g49
a(dp148
VNormalizedNamedEntityTag
p149
V5.0
p150
sVLemma
p151
g49
sVCharacterOffsetEnd
p152
V18
p153
sVPartOfSpeech
p154
VCD
p155
sVCharacterOffsetBegin
p156
V17
p157
sVNamedEntityTag
p158
VNUMBER
p159
saa(lp160
Vgiant
p161
a(dp162
VNamedEntityTag
p163
g103
sVCharacterOffsetEnd
p164
V24
p165
sVCharacterOffsetBegin
p166
V19
p167
sVPartOfSpeech
p168
VJJ
p169
sVLemma
p170
Vgiant
p171
saa(lp172
Vstuffed
p173
a(dp174
VNamedEntityTag
p175
g103
sVCharacterOffsetEnd
p176
V32
p177
sVCharacterOffsetBegin
p178
V25
p179
sVPartOfSpeech
p180
VVBN
p181
sVLemma
p182
Vstuff
p183
saa(lp184
Vbears
p185
a(dp186
VNamedEntityTag
p187
g103
sVCharacterOffsetEnd
p188
V38
p189
sVCharacterOffsetBegin
p190
V33
p191
sVPartOfSpeech
p192
VNNS
p193
sVLemma
p194
Vbear
p195
saa(lp196
Vin
p197
a(dp198
VNamedEntityTag
p199
g103
sVCharacterOffsetEnd
p200
V41
p201
sVCharacterOffsetBegin
p202
V39
p203
sVPartOfSpeech
p204
VIN
p205
sVLemma
p206
Vin
p207
saa(lp208
Vstock
p209
a(dp210
VNamedEntityTag
p211
g103
sVCharacterOffsetEnd
p212
V47
p213
sVCharacterOffsetBegin
p214
V42
p215
sVPartOfSpeech
p216
VNN
p217
sVLemma
p218
Vstock
p219
saa(lp220
Vwhen
p221
a(dp222
VNamedEntityTag
p223
g103
sVCharacterOffsetEnd
p224
V52
p225
sVCharacterOffsetBegin
p226
V48
p227
sVPartOfSpeech
p228
VWRB
p229
sVLemma
p230
Vwhen
p231
saa(lp232
Vthey
p233
a(dp234
VNamedEntityTag
p235
g103
sVCharacterOffsetEnd
p236
V57
p237
sVCharacterOffsetBegin
p238
V53
p239
sVPartOfSpeech
p240
VPRP
p241
sVLemma
p242
Vthey
p243
saa(lp244
Vgot
p245
a(dp246
VNamedEntityTag
p247
g103
sVCharacterOffsetEnd
p248
V61
p249
sVCharacterOffsetBegin
p250
V58
p251
sVPartOfSpeech
p252
VVBD
p253
sVLemma
p254
Vget
p255
saa(lp256
Vanother
p257
a(dp258
VNamedEntityTag
p259
g103
sVCharacterOffsetEnd
p260
V69
p261
sVCharacterOffsetBegin
p262
V62
p263
sVPartOfSpeech
p264
VDT
p265
sVLemma
p266
Vanother
p267
saa(lp268
Vshipment
p269
a(dp270
VNamedEntityTag
p271
g103
sVCharacterOffsetEnd
p272
V78
p273
sVCharacterOffsetBegin
p274
V70
p275
sVPartOfSpeech
p276
VNN
p277
sVLemma
p278
Vshipment
p279
saa(lp280
Vwith
p281
a(dp282
VNamedEntityTag
p283
g103
sVCharacterOffsetEnd
p284
V83
p285
sVCharacterOffsetBegin
p286
V79
p287
sVPartOfSpeech
p288
VIN
p289
sVLemma
p290
Vwith
p291
saa(lp292
g89
a(dp293
VNormalizedNamedEntityTag
p294
V7.0
p295
sVLemma
p296
g89
sVCharacterOffsetEnd
p297
V85
p298
sVPartOfSpeech
p299
VCD
p300
sVCharacterOffsetBegin
p301
V84
p302
sVNamedEntityTag
p303
VNUMBER
p304
saa(lp305
Vbears
p306
a(dp307
VNamedEntityTag
p308
g103
sVCharacterOffsetEnd
p309
V91
p310
sVCharacterOffsetBegin
p311
V86
p312
sVPartOfSpeech
p313
VNNS
p314
sVLemma
p315
Vbear
p316
saa(lp317
Vin
p318
a(dp319
VNamedEntityTag
p320
g103
sVCharacterOffsetEnd
p321
V94
p322
sVCharacterOffsetBegin
p323
V92
p324
sVPartOfSpeech
p325
VIN
p326
sVLemma
p327
Vin
p328
saa(lp329
Vit
p330
a(dp331
VNamedEntityTag
p332
g103
sVCharacterOffsetEnd
p333
V97
p334
sVCharacterOffsetBegin
p335
V95
p336
sVPartOfSpeech
p337
VPRP
p338
sVLemma
p339
Vit
p340
saa(lp341
V.
p342
a(dp343
VNamedEntityTag
p344
g103
sVCharacterOffsetEnd
p345
V99
p346
sVCharacterOffsetBegin
p347
V98
p348
sVPartOfSpeech
p349
g342
sVLemma
p350
g342
saasVindexeddependencies
p351
(lp352
(lp353
Vroot
p354
aVROOT-0
p355
aVhad-4
p356
aa(lp357
Vdet
p358
aVstore-3
p359
aVA-1
p360
aa(lp361
Vnn
p362
aVstore-3
p363
aVtoy-2
p364
aa(lp365
Vnsubj
p366
aVhad-4
p367
aVstore-3
p368
aa(lp369
Vamod
p370
aVbears-8
p371
aV5-5
p372
aa(lp373
Vamod
p374
aVbears-8
p375
aVgiant-6
p376
aa(lp377
Vamod
p378
aVbears-8
p379
aVstuffed-7
p380
aa(lp381
Vdobj
p382
aVhad-4
p383
aVbears-8
p384
aa(lp385
Vprep_in
p386
aVbears-8
p387
aVstock-10
p388
aa(lp389
Vadvmod
p390
aVgot-13
p391
aVwhen-11
p392
aa(lp393
Vnsubj
p394
aVgot-13
p395
aVthey-12
p396
aa(lp397
Vrcmod
p398
aVstock-10
p399
aVgot-13
p400
aa(lp401
Vdet
p402
aVshipment-15
p403
aVanother-14
p404
aa(lp405
Vdobj
p406
aVgot-13
p407
aVshipment-15
p408
aa(lp409
Vnum
p410
aVbears-18
p411
aV7-17
p412
aa(lp413
Vprep_with
p414
aVgot-13
p415
aVbears-18
p416
aa(lp417
Vprep_in
p418
aVgot-13
p419
aVit-20
p420
aasa(dp421
Vparsetree
p422
V(ROOT (S (NP (DT The)) (VP (VBN put) (NP (DT the) (NNS bears)) (PP (IN onto) (NP (NP (NNS shelves)) (PP (IN with) (NP (CD 6))))) (PP (IN on) (NP (DT each) (NN shelf)))) (. .)))
p423
sVtext
p424
VThe put the bears onto shelves with 6 on each shelf .
p425
sVdependencies
p426
(lp427
(lp428
Vroot
p429
aVROOT
p430
aVput
p431
aa(lp432
Vnsubj
p433
aVput
p434
aVThe
p435
aa(lp436
Vdet
p437
aVbears
p438
aVthe
p439
aa(lp440
Vdobj
p441
aVput
p442
aVbears
p443
aa(lp444
Vprep_onto
p445
aVput
p446
aVshelves
p447
aa(lp448
Vprep_with
p449
aVshelves
p450
ag117
aa(lp451
Vdet
p452
aVshelf
p453
aVeach
p454
aa(lp455
Vprep_on
p456
aVput
p457
aVshelf
p458
aasVwords
p459
(lp460
(lp461
VThe
p462
a(dp463
VNamedEntityTag
p464
g103
sVCharacterOffsetEnd
p465
V103
p466
sVCharacterOffsetBegin
p467
V100
p468
sVPartOfSpeech
p469
VDT
p470
sVLemma
p471
Vthe
p472
saa(lp473
Vput
p474
a(dp475
VNamedEntityTag
p476
g103
sVCharacterOffsetEnd
p477
V107
p478
sVCharacterOffsetBegin
p479
V104
p480
sVPartOfSpeech
p481
VVBN
p482
sVLemma
p483
Vput
p484
saa(lp485
Vthe
p486
a(dp487
VNamedEntityTag
p488
g103
sVCharacterOffsetEnd
p489
V111
p490
sVCharacterOffsetBegin
p491
V108
p492
sVPartOfSpeech
p493
VDT
p494
sVLemma
p495
Vthe
p496
saa(lp497
Vbears
p498
a(dp499
VNamedEntityTag
p500
g103
sVCharacterOffsetEnd
p501
V117
p502
sVCharacterOffsetBegin
p503
V112
p504
sVPartOfSpeech
p505
VNNS
p506
sVLemma
p507
Vbear
p508
saa(lp509
Vonto
p510
a(dp511
VNamedEntityTag
p512
g103
sVCharacterOffsetEnd
p513
V122
p514
sVCharacterOffsetBegin
p515
V118
p516
sVPartOfSpeech
p517
VIN
p518
sVLemma
p519
Vonto
p520
saa(lp521
Vshelves
p522
a(dp523
VNamedEntityTag
p524
g103
sVCharacterOffsetEnd
p525
V130
p526
sVCharacterOffsetBegin
p527
V123
p528
sVPartOfSpeech
p529
VNNS
p530
sVLemma
p531
Vshelf
p532
saa(lp533
Vwith
p534
a(dp535
VNamedEntityTag
p536
g103
sVCharacterOffsetEnd
p537
V135
p538
sVCharacterOffsetBegin
p539
V131
p540
sVPartOfSpeech
p541
VIN
p542
sVLemma
p543
Vwith
p544
saa(lp545
g117
a(dp546
VNormalizedNamedEntityTag
p547
V6.0
p548
sVLemma
p549
g117
sVCharacterOffsetEnd
p550
V137
p551
sVPartOfSpeech
p552
VCD
p553
sVCharacterOffsetBegin
p554
V136
p555
sVNamedEntityTag
p556
VNUMBER
p557
saa(lp558
Von
p559
a(dp560
VNamedEntityTag
p561
g103
sVCharacterOffsetEnd
p562
V140
p563
sVCharacterOffsetBegin
p564
V138
p565
sVPartOfSpeech
p566
VIN
p567
sVLemma
p568
Von
p569
saa(lp570
Veach
p571
a(dp572
VNamedEntityTag
p573
g103
sVCharacterOffsetEnd
p574
V145
p575
sVCharacterOffsetBegin
p576
V141
p577
sVPartOfSpeech
p578
VDT
p579
sVLemma
p580
Veach
p581
saa(lp582
Vshelf
p583
a(dp584
VNamedEntityTag
p585
g103
sVCharacterOffsetEnd
p586
V151
p587
sVCharacterOffsetBegin
p588
V146
p589
sVPartOfSpeech
p590
VNN
p591
sVLemma
p592
Vshelf
p593
saa(lp594
g342
a(dp595
VNamedEntityTag
p596
g103
sVCharacterOffsetEnd
p597
V153
p598
sVCharacterOffsetBegin
p599
V152
p600
sVPartOfSpeech
p601
g342
sVLemma
p602
g342
saasVindexeddependencies
p603
(lp604
(lp605
Vroot
p606
aVROOT-0
p607
aVput-2
p608
aa(lp609
Vnsubj
p610
aVput-2
p611
aVThe-1
p612
aa(lp613
Vdet
p614
aVbears-4
p615
aVthe-3
p616
aa(lp617
Vdobj
p618
aVput-2
p619
aVbears-4
p620
aa(lp621
Vprep_onto
p622
aVput-2
p623
aVshelves-6
p624
aa(lp625
Vprep_with
p626
aVshelves-6
p627
aV6-8
p628
aa(lp629
Vdet
p630
aVshelf-11
p631
aVeach-10
p632
aa(lp633
Vprep_on
p634
aVput-2
p635
aVshelf-11
p636
aasa(dp637
Vparsetree
p638
V(ROOT (SBARQ (WHNP (WHADJP (WRB How) (JJ many)) (NNS shelves)) (SQ (VBD did) (NP (PRP they)) (VP (VB use))) (. ?)))
p639
sVtext
p640
VHow many shelves did they use ?
p641
sVdependencies
p642
(lp643
(lp644
Vroot
p645
aVROOT
p646
aVuse
p647
aa(lp648
Vadvmod
p649
aVmany
p650
aVHow
p651
aa(lp652
Vamod
p653
aVshelves
p654
aVmany
p655
aa(lp656
Vdobj
p657
aVuse
p658
aVshelves
p659
aa(lp660
Vaux
p661
aVuse
p662
aVdid
p663
aa(lp664
Vnsubj
p665
aVuse
p666
aVthey
p667
aasVwords
p668
(lp669
(lp670
VHow
p671
a(dp672
VNamedEntityTag
p673
g103
sVCharacterOffsetEnd
p674
V157
p675
sVCharacterOffsetBegin
p676
V154
p677
sVPartOfSpeech
p678
VWRB
p679
sVLemma
p680
Vhow
p681
saa(lp682
Vmany
p683
a(dp684
VNamedEntityTag
p685
g103
sVCharacterOffsetEnd
p686
V162
p687
sVCharacterOffsetBegin
p688
V158
p689
sVPartOfSpeech
p690
VJJ
p691
sVLemma
p692
Vmany
p693
saa(lp694
Vshelves
p695
a(dp696
VNamedEntityTag
p697
g103
sVCharacterOffsetEnd
p698
V170
p699
sVCharacterOffsetBegin
p700
V163
p701
sVPartOfSpeech
p702
VNNS
p703
sVLemma
p704
Vshelf
p705
saa(lp706
Vdid
p707
a(dp708
VNamedEntityTag
p709
g103
sVCharacterOffsetEnd
p710
V174
p711
sVCharacterOffsetBegin
p712
V171
p713
sVPartOfSpeech
p714
VVBD
p715
sVLemma
p716
Vdo
p717
saa(lp718
Vthey
p719
a(dp720
VNamedEntityTag
p721
g103
sVCharacterOffsetEnd
p722
V179
p723
sVCharacterOffsetBegin
p724
V175
p725
sVPartOfSpeech
p726
VPRP
p727
sVLemma
p728
Vthey
p729
saa(lp730
Vuse
p731
a(dp732
VNamedEntityTag
p733
g103
sVCharacterOffsetEnd
p734
V183
p735
sVCharacterOffsetBegin
p736
V180
p737
sVPartOfSpeech
p738
VVB
p739
sVLemma
p740
Vuse
p741
saa(lp742
V?
p743
a(dp744
VNamedEntityTag
p745
g103
sVCharacterOffsetEnd
p746
V185
p747
sVCharacterOffsetBegin
p748
V184
p749
sVPartOfSpeech
p750
g342
sVLemma
p751
g743
saasVindexeddependencies
p752
(lp753
(lp754
Vroot
p755
aVROOT-0
p756
aVuse-6
p757
aa(lp758
Vadvmod
p759
aVmany-2
p760
aVHow-1
p761
aa(lp762
Vamod
p763
aVshelves-3
p764
aVmany-2
p765
aa(lp766
Vdobj
p767
aVuse-6
p768
aVshelves-3
p769
aa(lp770
Vaux
p771
aVuse-6
p772
aVdid-4
p773
aa(lp774
Vnsubj
p775
aVuse-6
p776
aVthey-5
p777
aasas.