(dp0
Vcoref
p1
(lp2
(lp3
(lp4
(lp5
VRosa
p6
aI0
aI0
aI0
aI1
aa(lp7
VRosa 's
p8
aI2
aI6
aI6
aI8
aaaa(lp9
(lp10
(lp11
VThe necklace
p12
aI1
aI1
aI0
aI2
aa(lp13
Va new beaded necklace
p14
aI0
aI5
aI2
aI6
aaaasVsentences
p15
(lp16
(dp17
Vparsetree
p18
V(ROOT (S (NP (NNP Rosa)) (VP (VBZ has) (NP (DT a) (JJ new) (JJ beaded) (NN necklace))) (. .)))
p19
sVtext
p20
VRosa has a new beaded necklace .
p21
sVdependencies
p22
(lp23
(lp24
Vroot
p25
aVROOT
p26
aVhas
p27
aa(lp28
Vnsubj
p29
aVhas
p30
aVRosa
p31
aa(lp32
Vdet
p33
aVnecklace
p34
aVa
p35
aa(lp36
Vamod
p37
aVnecklace
p38
aVnew
p39
aa(lp40
Vamod
p41
aVnecklace
p42
aVbeaded
p43
aa(lp44
Vdobj
p45
aVhas
p46
aVnecklace
p47
aasVwords
p48
(lp49
(lp50
VRosa
p51
a(dp52
VNamedEntityTag
p53
VPERSON
p54
sVCharacterOffsetEnd
p55
V5
p56
sVCharacterOffsetBegin
p57
V1
p58
sVPartOfSpeech
p59
VNNP
p60
sVLemma
p61
VRosa
p62
saa(lp63
Vhas
p64
a(dp65
VNamedEntityTag
p66
VO
p67
sVCharacterOffsetEnd
p68
V9
p69
sVCharacterOffsetBegin
p70
V6
p71
sVPartOfSpeech
p72
VVBZ
p73
sVLemma
p74
Vhave
p75
saa(lp76
g35
a(dp77
VNamedEntityTag
p78
g67
sVCharacterOffsetEnd
p79
V11
p80
sVCharacterOffsetBegin
p81
V10
p82
sVPartOfSpeech
p83
VDT
p84
sVLemma
p85
g35
saa(lp86
Vnew
p87
a(dp88
VNamedEntityTag
p89
g67
sVCharacterOffsetEnd
p90
V15
p91
sVCharacterOffsetBegin
p92
V12
p93
sVPartOfSpeech
p94
VJJ
p95
sVLemma
p96
Vnew
p97
saa(lp98
Vbeaded
p99
a(dp100
VNamedEntityTag
p101
g67
sVCharacterOffsetEnd
p102
V22
p103
sVCharacterOffsetBegin
p104
V16
p105
sVPartOfSpeech
p106
VJJ
p107
sVLemma
p108
Vbeaded
p109
saa(lp110
Vnecklace
p111
a(dp112
VNamedEntityTag
p113
g67
sVCharacterOffsetEnd
p114
V31
p115
sVCharacterOffsetBegin
p116
V23
p117
sVPartOfSpeech
p118
VNN
p119
sVLemma
p120
Vnecklace
p121
saa(lp122
V.
p123
a(dp124
VNamedEntityTag
p125
g67
sVCharacterOffsetEnd
p126
V33
p127
sVCharacterOffsetBegin
p128
V32
p129
sVPartOfSpeech
p130
g123
sVLemma
p131
g123
saasVindexeddependencies
p132
(lp133
(lp134
Vroot
p135
aVROOT-0
p136
aVhas-2
p137
aa(lp138
Vnsubj
p139
aVhas-2
p140
aVRosa-1
p141
aa(lp142
Vdet
p143
aVnecklace-6
p144
aVa-3
p145
aa(lp146
Vamod
p147
aVnecklace-6
p148
aVnew-4
p149
aa(lp150
Vamod
p151
aVnecklace-6
p152
aVbeaded-5
p153
aa(lp154
Vdobj
p155
aVhas-2
p156
aVnecklace-6
p157
aasa(dp158
Vparsetree
p159
V(ROOT (S (NP (DT The) (NN necklace)) (VP (VBZ has) (NP (NP (CD 6) (JJ blue) (NNS beads)) (CC and) (NP (CD 54) (JJ white) (NNS beads)))) (. .)))
p160
sVtext
p161
VThe necklace has 6 blue beads and 54 white beads .
p162
sVdependencies
p163
(lp164
(lp165
Vroot
p166
aVROOT
p167
aVhas
p168
aa(lp169
Vdet
p170
aVnecklace
p171
aVThe
p172
aa(lp173
Vnsubj
p174
aVhas
p175
aVnecklace
p176
aa(lp177
Vnum
p178
aVbeads
p179
ag71
aa(lp180
Vamod
p181
aVbeads
p182
aVblue
p183
aa(lp184
Vdobj
p185
aVhas
p186
aVbeads
p187
aa(lp188
Vnum
p189
aVbeads
p190
aV54
p191
aa(lp192
Vamod
p193
aVbeads
p194
aVwhite
p195
aa(lp196
Vconj_and
p197
aVbeads
p198
aVbeads
p199
aasVwords
p200
(lp201
(lp202
VThe
p203
a(dp204
VNamedEntityTag
p205
g67
sVCharacterOffsetEnd
p206
V37
p207
sVCharacterOffsetBegin
p208
V34
p209
sVPartOfSpeech
p210
VDT
p211
sVLemma
p212
Vthe
p213
saa(lp214
Vnecklace
p215
a(dp216
VNamedEntityTag
p217
g67
sVCharacterOffsetEnd
p218
V46
p219
sVCharacterOffsetBegin
p220
V38
p221
sVPartOfSpeech
p222
VNN
p223
sVLemma
p224
Vnecklace
p225
saa(lp226
Vhas
p227
a(dp228
VNamedEntityTag
p229
g67
sVCharacterOffsetEnd
p230
V50
p231
sVCharacterOffsetBegin
p232
V47
p233
sVPartOfSpeech
p234
VVBZ
p235
sVLemma
p236
Vhave
p237
saa(lp238
g71
a(dp239
VNormalizedNamedEntityTag
p240
V6.0
p241
sVLemma
p242
g71
sVCharacterOffsetEnd
p243
V52
p244
sVPartOfSpeech
p245
VCD
p246
sVCharacterOffsetBegin
p247
V51
p248
sVNamedEntityTag
p249
VNUMBER
p250
saa(lp251
Vblue
p252
a(dp253
VNamedEntityTag
p254
g67
sVCharacterOffsetEnd
p255
V57
p256
sVCharacterOffsetBegin
p257
V53
p258
sVPartOfSpeech
p259
VJJ
p260
sVLemma
p261
Vblue
p262
saa(lp263
Vbeads
p264
a(dp265
VNamedEntityTag
p266
g67
sVCharacterOffsetEnd
p267
V63
p268
sVCharacterOffsetBegin
p269
V58
p270
sVPartOfSpeech
p271
VNNS
p272
sVLemma
p273
Vbead
p274
saa(lp275
Vand
p276
a(dp277
VNamedEntityTag
p278
g67
sVCharacterOffsetEnd
p279
V67
p280
sVCharacterOffsetBegin
p281
V64
p282
sVPartOfSpeech
p283
VCC
p284
sVLemma
p285
Vand
p286
saa(lp287
V54
p288
a(dp289
VNormalizedNamedEntityTag
p290
V54.0
p291
sVLemma
p292
V54
p293
sVCharacterOffsetEnd
p294
V70
p295
sVPartOfSpeech
p296
VCD
p297
sVCharacterOffsetBegin
p298
V68
p299
sVNamedEntityTag
p300
VNUMBER
p301
saa(lp302
Vwhite
p303
a(dp304
VNamedEntityTag
p305
g67
sVCharacterOffsetEnd
p306
V76
p307
sVCharacterOffsetBegin
p308
V71
p309
sVPartOfSpeech
p310
VJJ
p311
sVLemma
p312
Vwhite
p313
saa(lp314
Vbeads
p315
a(dp316
VNamedEntityTag
p317
g67
sVCharacterOffsetEnd
p318
V82
p319
sVCharacterOffsetBegin
p320
V77
p321
sVPartOfSpeech
p322
VNNS
p323
sVLemma
p324
Vbead
p325
saa(lp326
g123
a(dp327
VNamedEntityTag
p328
g67
sVCharacterOffsetEnd
p329
V84
p330
sVCharacterOffsetBegin
p331
V83
p332
sVPartOfSpeech
p333
g123
sVLemma
p334
g123
saasVindexeddependencies
p335
(lp336
(lp337
Vroot
p338
aVROOT-0
p339
aVhas-3
p340
aa(lp341
Vdet
p342
aVnecklace-2
p343
aVThe-1
p344
aa(lp345
Vnsubj
p346
aVhas-3
p347
aVnecklace-2
p348
aa(lp349
Vnum
p350
aVbeads-6
p351
aV6-4
p352
aa(lp353
Vamod
p354
aVbeads-6
p355
aVblue-5
p356
aa(lp357
Vdobj
p358
aVhas-3
p359
aVbeads-6
p360
aa(lp361
Vnum
p362
aVbeads-10
p363
aV54-8
p364
aa(lp365
Vamod
p366
aVbeads-10
p367
aVwhite-9
p368
aa(lp369
Vconj_and
p370
aVbeads-6
p371
aVbeads-10
p372
aasa(dp373
Vparsetree
p374
V(ROOT (SBARQ (WHNP (WHNP (WDT What) (NN percentage)) (PP (IN of) (NP (NP (DT the) (NNS beads)) (PP (IN on) (NP (NP (NNP Rosa) (POS 's)) (NN necklace)))))) (SQ (VP (VBP are) (ADJP (JJ blue)))) (. ?)))
p375
sVtext
p376
VWhat percentage of the beads on Rosa's necklace are blue ?
p377
sVdependencies
p378
(lp379
(lp380
Vroot
p381
aVROOT
p382
aVblue
p383
aa(lp384
Vdet
p385
aVpercentage
p386
aVWhat
p387
aa(lp388
Vnsubj
p389
aVblue
p390
aVpercentage
p391
aa(lp392
Vdet
p393
aVbeads
p394
aVthe
p395
aa(lp396
Vprep_of
p397
aVpercentage
p398
aVbeads
p399
aa(lp400
Vposs
p401
aVnecklace
p402
aVRosa
p403
aa(lp404
Vprep_on
p405
aVbeads
p406
aVnecklace
p407
aa(lp408
Vcop
p409
aVblue
p410
aVare
p411
aasVwords
p412
(lp413
(lp414
VWhat
p415
a(dp416
VNamedEntityTag
p417
g67
sVCharacterOffsetEnd
p418
V89
p419
sVCharacterOffsetBegin
p420
V85
p421
sVPartOfSpeech
p422
VWDT
p423
sVLemma
p424
Vwhat
p425
saa(lp426
Vpercentage
p427
a(dp428
VNamedEntityTag
p429
g67
sVCharacterOffsetEnd
p430
V100
p431
sVCharacterOffsetBegin
p432
V90
p433
sVPartOfSpeech
p434
VNN
p435
sVLemma
p436
Vpercentage
p437
saa(lp438
Vof
p439
a(dp440
VNamedEntityTag
p441
g67
sVCharacterOffsetEnd
p442
V103
p443
sVCharacterOffsetBegin
p444
V101
p445
sVPartOfSpeech
p446
VIN
p447
sVLemma
p448
Vof
p449
saa(lp450
Vthe
p451
a(dp452
VNamedEntityTag
p453
g67
sVCharacterOffsetEnd
p454
V107
p455
sVCharacterOffsetBegin
p456
V104
p457
sVPartOfSpeech
p458
VDT
p459
sVLemma
p460
Vthe
p461
saa(lp462
Vbeads
p463
a(dp464
VNamedEntityTag
p465
g67
sVCharacterOffsetEnd
p466
V113
p467
sVCharacterOffsetBegin
p468
V108
p469
sVPartOfSpeech
p470
VNNS
p471
sVLemma
p472
Vbead
p473
saa(lp474
Von
p475
a(dp476
VNamedEntityTag
p477
g67
sVCharacterOffsetEnd
p478
V116
p479
sVCharacterOffsetBegin
p480
V114
p481
sVPartOfSpeech
p482
VIN
p483
sVLemma
p484
Von
p485
saa(lp486
VRosa
p487
a(dp488
VNamedEntityTag
p489
VPERSON
p490
sVCharacterOffsetEnd
p491
V121
p492
sVCharacterOffsetBegin
p493
V117
p494
sVPartOfSpeech
p495
VNNP
p496
sVLemma
p497
VRosa
p498
saa(lp499
V's
p500
a(dp501
VNamedEntityTag
p502
g67
sVCharacterOffsetEnd
p503
V123
p504
sVCharacterOffsetBegin
p505
V121
p506
sVPartOfSpeech
p507
VPOS
p508
sVLemma
p509
V's
p510
saa(lp511
Vnecklace
p512
a(dp513
VNamedEntityTag
p514
g67
sVCharacterOffsetEnd
p515
V132
p516
sVCharacterOffsetBegin
p517
V124
p518
sVPartOfSpeech
p519
VNN
p520
sVLemma
p521
Vnecklace
p522
saa(lp523
Vare
p524
a(dp525
VNamedEntityTag
p526
g67
sVCharacterOffsetEnd
p527
V136
p528
sVCharacterOffsetBegin
p529
V133
p530
sVPartOfSpeech
p531
VVBP
p532
sVLemma
p533
Vbe
p534
saa(lp535
Vblue
p536
a(dp537
VNamedEntityTag
p538
g67
sVCharacterOffsetEnd
p539
V141
p540
sVCharacterOffsetBegin
p541
V137
p542
sVPartOfSpeech
p543
VJJ
p544
sVLemma
p545
Vblue
p546
saa(lp547
V?
p548
a(dp549
VNamedEntityTag
p550
g67
sVCharacterOffsetEnd
p551
V143
p552
sVCharacterOffsetBegin
p553
V142
p554
sVPartOfSpeech
p555
g123
sVLemma
p556
g548
saasVindexeddependencies
p557
(lp558
(lp559
Vroot
p560
aVROOT-0
p561
aVblue-11
p562
aa(lp563
Vdet
p564
aVpercentage-2
p565
aVWhat-1
p566
aa(lp567
Vnsubj
p568
aVblue-11
p569
aVpercentage-2
p570
aa(lp571
Vdet
p572
aVbeads-5
p573
aVthe-4
p574
aa(lp575
Vprep_of
p576
aVpercentage-2
p577
aVbeads-5
p578
aa(lp579
Vposs
p580
aVnecklace-9
p581
aVRosa-7
p582
aa(lp583
Vprep_on
p584
aVbeads-5
p585
aVnecklace-9
p586
aa(lp587
Vcop
p588
aVblue-11
p589
aVare-10
p590
aasas.