(dp0
Vcoref
p1
(lp2
(lp3
(lp4
(lp5
Vher
p6
aI0
aI4
aI4
aI5
aa(lp7
VHalloween Janet
p8
aI0
aI2
aI1
aI3
aaa(lp9
(lp10
VJanet
p11
aI1
aI0
aI0
aI1
aa(lp12
VHalloween Janet
p13
aI0
aI2
aI1
aI3
aaa(lp14
(lp15
Vher
p16
aI1
aI7
aI7
aI8
aa(lp17
VHalloween Janet
p18
aI0
aI2
aI1
aI3
aaaa(lp19
(lp20
(lp21
Vthey
p22
aI0
aI9
aI9
aI10
aa(lp23
VHalloween Janet and her sister
p24
aI0
aI2
aI1
aI6
aaa(lp25
(lp26
Vthey
p27
aI2
aI1
aI1
aI2
aa(lp28
VHalloween Janet and her sister
p29
aI0
aI2
aI1
aI6
aaa(lp30
(lp31
Vthey
p32
aI2
aI13
aI13
aI14
aa(lp33
VHalloween Janet and her sister
p34
aI0
aI2
aI1
aI6
aaaa(lp35
(lp36
(lp37
Vher sister
p38
aI1
aI8
aI7
aI9
aa(lp39
Vher sister
p40
aI0
aI5
aI4
aI6
aaaasVsentences
p41
(lp42
(dp43
Vparsetree
p44
V(ROOT (S (SBAR (IN For) (S (NP (NP (NNP Halloween) (NNP Janet)) (CC and) (NP (PRP$ her) (NN sister))) (VP (VBD combined) (NP (DT the) (NN candy))))) (NP (PRP they)) (VP (VBD received)) (. .)))
p45
sVtext
p46
VFor Halloween Janet and her sister combined the candy they received .
p47
sVdependencies
p48
(lp49
(lp50
Vroot
p51
aVROOT
p52
aVreceived
p53
aa(lp54
Vmark
p55
aVcombined
p56
aVFor
p57
aa(lp58
Vnn
p59
aVJanet
p60
aVHalloween
p61
aa(lp62
Vnsubj
p63
aVcombined
p64
aVJanet
p65
aa(lp66
Vposs
p67
aVsister
p68
aVher
p69
aa(lp70
Vconj_and
p71
aVJanet
p72
aVsister
p73
aa(lp74
Vadvcl
p75
aVreceived
p76
aVcombined
p77
aa(lp78
Vdet
p79
aVcandy
p80
aVthe
p81
aa(lp82
Vdobj
p83
aVcombined
p84
aVcandy
p85
aa(lp86
Vnsubj
p87
aVreceived
p88
aVthey
p89
aasVwords
p90
(lp91
(lp92
VFor
p93
a(dp94
VNamedEntityTag
p95
VO
p96
sVCharacterOffsetEnd
p97
V4
p98
sVCharacterOffsetBegin
p99
V1
p100
sVPartOfSpeech
p101
VIN
p102
sVLemma
p103
Vfor
p104
saa(lp105
VHalloween
p106
a(dp107
VTimex
p108
V<TIMEX3 tid="t1" type="DATE" value="XXXX-10-31">Halloween</TIMEX3>
p109
sVCharacterOffsetEnd
p110
V14
p111
sVLemma
p112
VHalloween
p113
sVPartOfSpeech
p114
VNNP
p115
sVCharacterOffsetBegin
p116
V5
p117
sVNamedEntityTag
p118
VPERSON
p119
saa(lp120
VJanet
p121
a(dp122
VNamedEntityTag
p123
VPERSON
p124
sVCharacterOffsetEnd
p125
V20
p126
sVCharacterOffsetBegin
p127
V15
p128
sVPartOfSpeech
p129
VNNP
p130
sVLemma
p131
VJanet
p132
saa(lp133
Vand
p134
a(dp135
VNamedEntityTag
p136
g96
sVCharacterOffsetEnd
p137
V24
p138
sVCharacterOffsetBegin
p139
V21
p140
sVPartOfSpeech
p141
VCC
p142
sVLemma
p143
Vand
p144
saa(lp145
Vher
p146
a(dp147
VNamedEntityTag
p148
g96
sVCharacterOffsetEnd
p149
V28
p150
sVCharacterOffsetBegin
p151
V25
p152
sVPartOfSpeech
p153
VPRP$
p154
sVLemma
p155
Vshe
p156
saa(lp157
Vsister
p158
a(dp159
VNamedEntityTag
p160
g96
sVCharacterOffsetEnd
p161
V35
p162
sVCharacterOffsetBegin
p163
V29
p164
sVPartOfSpeech
p165
VNN
p166
sVLemma
p167
Vsister
p168
saa(lp169
Vcombined
p170
a(dp171
VNamedEntityTag
p172
g96
sVCharacterOffsetEnd
p173
V44
p174
sVCharacterOffsetBegin
p175
V36
p176
sVPartOfSpeech
p177
VVBD
p178
sVLemma
p179
Vcombine
p180
saa(lp181
Vthe
p182
a(dp183
VNamedEntityTag
p184
g96
sVCharacterOffsetEnd
p185
V48
p186
sVCharacterOffsetBegin
p187
V45
p188
sVPartOfSpeech
p189
VDT
p190
sVLemma
p191
Vthe
p192
saa(lp193
Vcandy
p194
a(dp195
VNamedEntityTag
p196
g96
sVCharacterOffsetEnd
p197
V54
p198
sVCharacterOffsetBegin
p199
V49
p200
sVPartOfSpeech
p201
VNN
p202
sVLemma
p203
Vcandy
p204
saa(lp205
Vthey
p206
a(dp207
VNamedEntityTag
p208
g96
sVCharacterOffsetEnd
p209
V59
p210
sVCharacterOffsetBegin
p211
V55
p212
sVPartOfSpeech
p213
VPRP
p214
sVLemma
p215
Vthey
p216
saa(lp217
Vreceived
p218
a(dp219
VNamedEntityTag
p220
g96
sVCharacterOffsetEnd
p221
V68
p222
sVCharacterOffsetBegin
p223
V60
p224
sVPartOfSpeech
p225
VVBD
p226
sVLemma
p227
Vreceive
p228
saa(lp229
V.
p230
a(dp231
VNamedEntityTag
p232
g96
sVCharacterOffsetEnd
p233
V70
p234
sVCharacterOffsetBegin
p235
V69
p236
sVPartOfSpeech
p237
g230
sVLemma
p238
g230
saasVindexeddependencies
p239
(lp240
(lp241
Vroot
p242
aVROOT-0
p243
aVreceived-11
p244
aa(lp245
Vmark
p246
aVcombined-7
p247
aVFor-1
p248
aa(lp249
Vnn
p250
aVJanet-3
p251
aVHalloween-2
p252
aa(lp253
Vnsubj
p254
aVcombined-7
p255
aVJanet-3
p256
aa(lp257
Vposs
p258
aVsister-6
p259
aVher-5
p260
aa(lp261
Vconj_and
p262
aVJanet-3
p263
aVsister-6
p264
aa(lp265
Vadvcl
p266
aVreceived-11
p267
aVcombined-7
p268
aa(lp269
Vdet
p270
aVcandy-9
p271
aVthe-8
p272
aa(lp273
Vdobj
p274
aVcombined-7
p275
aVcandy-9
p276
aa(lp277
Vnsubj
p278
aVreceived-11
p279
aVthey-10
p280
aasa(dp281
Vparsetree
p282
V(ROOT (S (NP (NNP Janet)) (VP (VBD had) (NP (NP (CD 34) (NNS pieces)) (PP (IN of) (NP (NN candy)))) (SBAR (IN while) (S (NP (PRP$ her) (NN sister)) (VP (VBD had) (NP (CD 33)))))) (. .)))
p283
sVtext
p284
VJanet had 34 pieces of candy while her sister had 33 .
p285
sVdependencies
p286
(lp287
(lp288
Vroot
p289
aVROOT
p290
aVhad
p291
aa(lp292
Vnsubj
p293
aVhad
p294
aVJanet
p295
aa(lp296
Vnum
p297
aVpieces
p298
aV34
p299
aa(lp300
Vdobj
p301
aVhad
p302
aVpieces
p303
aa(lp304
Vprep_of
p305
aVpieces
p306
aVcandy
p307
aa(lp308
Vmark
p309
aVhad
p310
aVwhile
p311
aa(lp312
Vposs
p313
aVsister
p314
aVher
p315
aa(lp316
Vnsubj
p317
aVhad
p318
aVsister
p319
aa(lp320
Vadvcl
p321
aVhad
p322
aVhad
p323
aa(lp324
Vdobj
p325
aVhad
p326
aV33
p327
aasVwords
p328
(lp329
(lp330
VJanet
p331
a(dp332
VNamedEntityTag
p333
VPERSON
p334
sVCharacterOffsetEnd
p335
V76
p336
sVCharacterOffsetBegin
p337
V71
p338
sVPartOfSpeech
p339
VNNP
p340
sVLemma
p341
VJanet
p342
saa(lp343
Vhad
p344
a(dp345
VNamedEntityTag
p346
g96
sVCharacterOffsetEnd
p347
V80
p348
sVCharacterOffsetBegin
p349
V77
p350
sVPartOfSpeech
p351
VVBD
p352
sVLemma
p353
Vhave
p354
saa(lp355
V34
p356
a(dp357
VNormalizedNamedEntityTag
p358
V34.0
p359
sVLemma
p360
V34
p361
sVCharacterOffsetEnd
p362
V83
p363
sVPartOfSpeech
p364
VCD
p365
sVCharacterOffsetBegin
p366
V81
p367
sVNamedEntityTag
p368
VNUMBER
p369
saa(lp370
Vpieces
p371
a(dp372
VNamedEntityTag
p373
g96
sVCharacterOffsetEnd
p374
V90
p375
sVCharacterOffsetBegin
p376
V84
p377
sVPartOfSpeech
p378
VNNS
p379
sVLemma
p380
Vpiece
p381
saa(lp382
Vof
p383
a(dp384
VNamedEntityTag
p385
g96
sVCharacterOffsetEnd
p386
V93
p387
sVCharacterOffsetBegin
p388
V91
p389
sVPartOfSpeech
p390
VIN
p391
sVLemma
p392
Vof
p393
saa(lp394
Vcandy
p395
a(dp396
VNamedEntityTag
p397
g96
sVCharacterOffsetEnd
p398
V99
p399
sVCharacterOffsetBegin
p400
V94
p401
sVPartOfSpeech
p402
VNN
p403
sVLemma
p404
Vcandy
p405
saa(lp406
Vwhile
p407
a(dp408
VNamedEntityTag
p409
g96
sVCharacterOffsetEnd
p410
V105
p411
sVCharacterOffsetBegin
p412
V100
p413
sVPartOfSpeech
p414
VIN
p415
sVLemma
p416
Vwhile
p417
saa(lp418
Vher
p419
a(dp420
VNamedEntityTag
p421
g96
sVCharacterOffsetEnd
p422
V109
p423
sVCharacterOffsetBegin
p424
V106
p425
sVPartOfSpeech
p426
VPRP$
p427
sVLemma
p428
Vshe
p429
saa(lp430
Vsister
p431
a(dp432
VNamedEntityTag
p433
g96
sVCharacterOffsetEnd
p434
V116
p435
sVCharacterOffsetBegin
p436
V110
p437
sVPartOfSpeech
p438
VNN
p439
sVLemma
p440
Vsister
p441
saa(lp442
Vhad
p443
a(dp444
VNamedEntityTag
p445
g96
sVCharacterOffsetEnd
p446
V120
p447
sVCharacterOffsetBegin
p448
V117
p449
sVPartOfSpeech
p450
VVBD
p451
sVLemma
p452
Vhave
p453
saa(lp454
V33
p455
a(dp456
VNormalizedNamedEntityTag
p457
V33.0
p458
sVLemma
p459
V33
p460
sVCharacterOffsetEnd
p461
V123
p462
sVPartOfSpeech
p463
VCD
p464
sVCharacterOffsetBegin
p465
V121
p466
sVNamedEntityTag
p467
VNUMBER
p468
saa(lp469
g230
a(dp470
VNamedEntityTag
p471
g96
sVCharacterOffsetEnd
p472
V125
p473
sVCharacterOffsetBegin
p474
V124
p475
sVPartOfSpeech
p476
g230
sVLemma
p477
g230
saasVindexeddependencies
p478
(lp479
(lp480
Vroot
p481
aVROOT-0
p482
aVhad-2
p483
aa(lp484
Vnsubj
p485
aVhad-2
p486
aVJanet-1
p487
aa(lp488
Vnum
p489
aVpieces-4
p490
aV34-3
p491
aa(lp492
Vdobj
p493
aVhad-2
p494
aVpieces-4
p495
aa(lp496
Vprep_of
p497
aVpieces-4
p498
aVcandy-6
p499
aa(lp500
Vmark
p501
aVhad-10
p502
aVwhile-7
p503
aa(lp504
Vposs
p505
aVsister-9
p506
aVher-8
p507
aa(lp508
Vnsubj
p509
aVhad-10
p510
aVsister-9
p511
aa(lp512
Vadvcl
p513
aVhad-2
p514
aVhad-10
p515
aa(lp516
Vdobj
p517
aVhad-10
p518
aV33-11
p519
aasa(dp520
Vparsetree
p521
V(ROOT (SBARQ (SBAR (IN If) (S (NP (PRP they)) (VP (VBD ate) (NP (CD 4) (NNS pieces)) (NP-TMP (DT the) (JJ first) (NN night))))) (, ,) (WHNP (WHADJP (WRB how) (JJ many)) (NNS pieces)) (SQ (VBP do) (NP (PRP they)) (VP (VBP have) (VP (VBN left)))) (. ?)))
p522
sVtext
p523
VIf they ate 4 pieces the first night , how many pieces do they have left ?
p524
sVdependencies
p525
(lp526
(lp527
Vroot
p528
aVROOT
p529
aVleft
p530
aa(lp531
Vmark
p532
aVate
p533
aVIf
p534
aa(lp535
Vnsubj
p536
aVate
p537
aVthey
p538
aa(lp539
Vadvcl
p540
aVleft
p541
aVate
p542
aa(lp543
Vnum
p544
aVpieces
p545
ag98
aa(lp546
Vdobj
p547
aVate
p548
aVpieces
p549
aa(lp550
Vdet
p551
aVnight
p552
aVthe
p553
aa(lp554
Vamod
p555
aVnight
p556
aVfirst
p557
aa(lp558
Vtmod
p559
aVate
p560
aVnight
p561
aa(lp562
Vadvmod
p563
aVmany
p564
aVhow
p565
aa(lp566
Vamod
p567
aVpieces
p568
aVmany
p569
aa(lp570
Vdobj
p571
aVleft
p572
aVpieces
p573
aa(lp574
Vaux
p575
aVleft
p576
aVdo
p577
aa(lp578
Vnsubj
p579
aVleft
p580
aVthey
p581
aa(lp582
Vaux
p583
aVleft
p584
aVhave
p585
aasVwords
p586
(lp587
(lp588
VIf
p589
a(dp590
VNamedEntityTag
p591
g96
sVCharacterOffsetEnd
p592
V128
p593
sVCharacterOffsetBegin
p594
V126
p595
sVPartOfSpeech
p596
VIN
p597
sVLemma
p598
Vif
p599
saa(lp600
Vthey
p601
a(dp602
VNamedEntityTag
p603
g96
sVCharacterOffsetEnd
p604
V133
p605
sVCharacterOffsetBegin
p606
V129
p607
sVPartOfSpeech
p608
VPRP
p609
sVLemma
p610
Vthey
p611
saa(lp612
Vate
p613
a(dp614
VNamedEntityTag
p615
g96
sVCharacterOffsetEnd
p616
V137
p617
sVCharacterOffsetBegin
p618
V134
p619
sVPartOfSpeech
p620
VVBD
p621
sVLemma
p622
Veat
p623
saa(lp624
g98
a(dp625
VNormalizedNamedEntityTag
p626
V4.0
p627
sVLemma
p628
g98
sVCharacterOffsetEnd
p629
V139
p630
sVPartOfSpeech
p631
VCD
p632
sVCharacterOffsetBegin
p633
V138
p634
sVNamedEntityTag
p635
VNUMBER
p636
saa(lp637
Vpieces
p638
a(dp639
VNamedEntityTag
p640
g96
sVCharacterOffsetEnd
p641
V146
p642
sVCharacterOffsetBegin
p643
V140
p644
sVPartOfSpeech
p645
VNNS
p646
sVLemma
p647
Vpiece
p648
saa(lp649
Vthe
p650
a(dp651
VNamedEntityTag
p652
g96
sVCharacterOffsetEnd
p653
V150
p654
sVCharacterOffsetBegin
p655
V147
p656
sVPartOfSpeech
p657
VDT
p658
sVLemma
p659
Vthe
p660
saa(lp661
Vfirst
p662
a(dp663
VNormalizedNamedEntityTag
p664
V1.0
p665
sVLemma
p666
Vfirst
p667
sVCharacterOffsetEnd
p668
V156
p669
sVPartOfSpeech
p670
VJJ
p671
sVCharacterOffsetBegin
p672
V151
p673
sVNamedEntityTag
p674
VORDINAL
p675
saa(lp676
Vnight
p677
a(dp678
VNormalizedNamedEntityTag
p679
VTNI
p680
sVTimex
p681
V<TIMEX3 tid="t2" type="TIME" value="TNI">night</TIMEX3>
p682
sVLemma
p683
Vnight
p684
sVCharacterOffsetEnd
p685
V162
p686
sVPartOfSpeech
p687
VNN
p688
sVCharacterOffsetBegin
p689
V157
p690
sVNamedEntityTag
p691
VTIME
p692
saa(lp693
V,
p694
a(dp695
VNamedEntityTag
p696
g96
sVCharacterOffsetEnd
p697
V164
p698
sVCharacterOffsetBegin
p699
V163
p700
sVPartOfSpeech
p701
g694
sVLemma
p702
g694
saa(lp703
Vhow
p704
a(dp705
VNamedEntityTag
p706
g96
sVCharacterOffsetEnd
p707
V168
p708
sVCharacterOffsetBegin
p709
V165
p710
sVPartOfSpeech
p711
VWRB
p712
sVLemma
p713
Vhow
p714
saa(lp715
Vmany
p716
a(dp717
VNamedEntityTag
p718
g96
sVCharacterOffsetEnd
p719
V173
p720
sVCharacterOffsetBegin
p721
V169
p722
sVPartOfSpeech
p723
VJJ
p724
sVLemma
p725
Vmany
p726
saa(lp727
Vpieces
p728
a(dp729
VNamedEntityTag
p730
g96
sVCharacterOffsetEnd
p731
V180
p732
sVCharacterOffsetBegin
p733
V174
p734
sVPartOfSpeech
p735
VNNS
p736
sVLemma
p737
Vpiece
p738
saa(lp739
Vdo
p740
a(dp741
VNamedEntityTag
p742
g96
sVCharacterOffsetEnd
p743
V183
p744
sVCharacterOffsetBegin
p745
V181
p746
sVPartOfSpeech
p747
VVBP
p748
sVLemma
p749
Vdo
p750
saa(lp751
Vthey
p752
a(dp753
VNamedEntityTag
p754
g96
sVCharacterOffsetEnd
p755
V188
p756
sVCharacterOffsetBegin
p757
V184
p758
sVPartOfSpeech
p759
VPRP
p760
sVLemma
p761
Vthey
p762
saa(lp763
Vhave
p764
a(dp765
VNamedEntityTag
p766
g96
sVCharacterOffsetEnd
p767
V193
p768
sVCharacterOffsetBegin
p769
V189
p770
sVPartOfSpeech
p771
VVBP
p772
sVLemma
p773
Vhave
p774
saa(lp775
Vleft
p776
a(dp777
VNamedEntityTag
p778
g96
sVCharacterOffsetEnd
p779
V198
p780
sVCharacterOffsetBegin
p781
V194
p782
sVPartOfSpeech
p783
VVBN
p784
sVLemma
p785
Vleave
p786
saa(lp787
V?
p788
a(dp789
VNamedEntityTag
p790
g96
sVCharacterOffsetEnd
p791
V200
p792
sVCharacterOffsetBegin
p793
V199
p794
sVPartOfSpeech
p795
g230
sVLemma
p796
g788
saasVindexeddependencies
p797
(lp798
(lp799
Vroot
p800
aVROOT-0
p801
aVleft-16
p802
aa(lp803
Vmark
p804
aVate-3
p805
aVIf-1
p806
aa(lp807
Vnsubj
p808
aVate-3
p809
aVthey-2
p810
aa(lp811
Vadvcl
p812
aVleft-16
p813
aVate-3
p814
aa(lp815
Vnum
p816
aVpieces-5
p817
aV4-4
p818
aa(lp819
Vdobj
p820
aVate-3
p821
aVpieces-5
p822
aa(lp823
Vdet
p824
aVnight-8
p825
aVthe-6
p826
aa(lp827
Vamod
p828
aVnight-8
p829
aVfirst-7
p830
aa(lp831
Vtmod
p832
aVate-3
p833
aVnight-8
p834
aa(lp835
Vadvmod
p836
aVmany-11
p837
aVhow-10
p838
aa(lp839
Vamod
p840
aVpieces-12
p841
aVmany-11
p842
aa(lp843
Vdobj
p844
aVleft-16
p845
aVpieces-12
p846
aa(lp847
Vaux
p848
aVleft-16
p849
aVdo-13
p850
aa(lp851
Vnsubj
p852
aVleft-16
p853
aVthey-14
p854
aa(lp855
Vaux
p856
aVleft-16
p857
aVhave-15
p858
aasas.