(dp0
Vcoref
p1
(lp2
(lp3
(lp4
(lp5
Vhis
p6
aI0
aI3
aI3
aI4
aa(lp7
VLuke
p8
aI0
aI0
aI0
aI1
aaa(lp9
(lp10
Vhe
p11
aI1
aI1
aI1
aI2
aa(lp12
VLuke
p13
aI0
aI0
aI0
aI1
aaa(lp14
(lp15
Vhe
p16
aI1
aI20
aI20
aI21
aa(lp17
VLuke
p18
aI0
aI0
aI0
aI1
aaaa(lp19
(lp20
(lp21
V3
p22
aI1
aI3
aI3
aI4
aa(lp23
g22
aI0
aI10
aI10
aI11
aaaa(lp24
(lp25
(lp26
Vthe binder
p27
aI1
aI14
aI13
aI15
aa(lp28
Va binder with 3
p29
aI0
aI8
aI7
aI11
aaaasVsentences
p30
(lp31
(dp32
Vparsetree
p33
V(ROOT (S (NP (NNP Luke)) (VP (VBD was) (VP (VBG organizing) (NP (PRP$ his) (NN baseball) (NNS cards)) (PP (IN in) (NP (NP (DT a) (NN binder)) (PP (IN with) (NP (CD 3))))) (PP (IN on) (NP (DT each) (NN page))))) (. .)))
p34
sVtext
p35
VLuke was organizing his baseball cards in a binder with 3 on each page .
p36
sVdependencies
p37
(lp38
(lp39
Vroot
p40
aVROOT
p41
aVorganizing
p42
aa(lp43
Vnsubj
p44
aVorganizing
p45
aVLuke
p46
aa(lp47
Vaux
p48
aVorganizing
p49
aVwas
p50
aa(lp51
Vposs
p52
aVcards
p53
aVhis
p54
aa(lp55
Vnn
p56
aVcards
p57
aVbaseball
p58
aa(lp59
Vdobj
p60
aVorganizing
p61
aVcards
p62
aa(lp63
Vdet
p64
aVbinder
p65
aVa
p66
aa(lp67
Vprep_in
p68
aVorganizing
p69
aVbinder
p70
aa(lp71
Vprep_with
p72
aVbinder
p73
ag22
aa(lp74
Vdet
p75
aVpage
p76
aVeach
p77
aa(lp78
Vprep_on
p79
aVorganizing
p80
aVpage
p81
aasVwords
p82
(lp83
(lp84
VLuke
p85
a(dp86
VNamedEntityTag
p87
VPERSON
p88
sVCharacterOffsetEnd
p89
V5
p90
sVCharacterOffsetBegin
p91
V1
p92
sVPartOfSpeech
p93
VNNP
p94
sVLemma
p95
VLuke
p96
saa(lp97
Vwas
p98
a(dp99
VNamedEntityTag
p100
VO
p101
sVCharacterOffsetEnd
p102
V9
p103
sVCharacterOffsetBegin
p104
V6
p105
sVPartOfSpeech
p106
VVBD
p107
sVLemma
p108
Vbe
p109
saa(lp110
Vorganizing
p111
a(dp112
VNamedEntityTag
p113
g101
sVCharacterOffsetEnd
p114
V20
p115
sVCharacterOffsetBegin
p116
V10
p117
sVPartOfSpeech
p118
VVBG
p119
sVLemma
p120
Vorganize
p121
saa(lp122
Vhis
p123
a(dp124
VNamedEntityTag
p125
g101
sVCharacterOffsetEnd
p126
V24
p127
sVCharacterOffsetBegin
p128
V21
p129
sVPartOfSpeech
p130
VPRP$
p131
sVLemma
p132
Vhe
p133
saa(lp134
Vbaseball
p135
a(dp136
VNamedEntityTag
p137
g101
sVCharacterOffsetEnd
p138
V33
p139
sVCharacterOffsetBegin
p140
V25
p141
sVPartOfSpeech
p142
VNN
p143
sVLemma
p144
Vbaseball
p145
saa(lp146
Vcards
p147
a(dp148
VNamedEntityTag
p149
g101
sVCharacterOffsetEnd
p150
V39
p151
sVCharacterOffsetBegin
p152
V34
p153
sVPartOfSpeech
p154
VNNS
p155
sVLemma
p156
Vcard
p157
saa(lp158
Vin
p159
a(dp160
VNamedEntityTag
p161
g101
sVCharacterOffsetEnd
p162
V42
p163
sVCharacterOffsetBegin
p164
V40
p165
sVPartOfSpeech
p166
VIN
p167
sVLemma
p168
Vin
p169
saa(lp170
g66
a(dp171
VNamedEntityTag
p172
g101
sVCharacterOffsetEnd
p173
V44
p174
sVCharacterOffsetBegin
p175
V43
p176
sVPartOfSpeech
p177
VDT
p178
sVLemma
p179
g66
saa(lp180
Vbinder
p181
a(dp182
VNamedEntityTag
p183
g101
sVCharacterOffsetEnd
p184
V51
p185
sVCharacterOffsetBegin
p186
V45
p187
sVPartOfSpeech
p188
VNN
p189
sVLemma
p190
Vbinder
p191
saa(lp192
Vwith
p193
a(dp194
VNamedEntityTag
p195
g101
sVCharacterOffsetEnd
p196
V56
p197
sVCharacterOffsetBegin
p198
V52
p199
sVPartOfSpeech
p200
VIN
p201
sVLemma
p202
Vwith
p203
saa(lp204
g22
a(dp205
VNormalizedNamedEntityTag
p206
V3.0
p207
sVLemma
p208
g22
sVCharacterOffsetEnd
p209
V58
p210
sVPartOfSpeech
p211
VCD
p212
sVCharacterOffsetBegin
p213
V57
p214
sVNamedEntityTag
p215
VNUMBER
p216
saa(lp217
Von
p218
a(dp219
VNamedEntityTag
p220
g101
sVCharacterOffsetEnd
p221
V61
p222
sVCharacterOffsetBegin
p223
V59
p224
sVPartOfSpeech
p225
VIN
p226
sVLemma
p227
Von
p228
saa(lp229
Veach
p230
a(dp231
VNamedEntityTag
p232
g101
sVCharacterOffsetEnd
p233
V66
p234
sVCharacterOffsetBegin
p235
V62
p236
sVPartOfSpeech
p237
VDT
p238
sVLemma
p239
Veach
p240
saa(lp241
Vpage
p242
a(dp243
VNamedEntityTag
p244
g101
sVCharacterOffsetEnd
p245
V71
p246
sVCharacterOffsetBegin
p247
V67
p248
sVPartOfSpeech
p249
VNN
p250
sVLemma
p251
Vpage
p252
saa(lp253
V.
p254
a(dp255
VNamedEntityTag
p256
g101
sVCharacterOffsetEnd
p257
V73
p258
sVCharacterOffsetBegin
p259
V72
p260
sVPartOfSpeech
p261
g254
sVLemma
p262
g254
saasVindexeddependencies
p263
(lp264
(lp265
Vroot
p266
aVROOT-0
p267
aVorganizing-3
p268
aa(lp269
Vnsubj
p270
aVorganizing-3
p271
aVLuke-1
p272
aa(lp273
Vaux
p274
aVorganizing-3
p275
aVwas-2
p276
aa(lp277
Vposs
p278
aVcards-6
p279
aVhis-4
p280
aa(lp281
Vnn
p282
aVcards-6
p283
aVbaseball-5
p284
aa(lp285
Vdobj
p286
aVorganizing-3
p287
aVcards-6
p288
aa(lp289
Vdet
p290
aVbinder-9
p291
aVa-8
p292
aa(lp293
Vprep_in
p294
aVorganizing-3
p295
aVbinder-9
p296
aa(lp297
Vprep_with
p298
aVbinder-9
p299
aV3-11
p300
aa(lp301
Vdet
p302
aVpage-14
p303
aVeach-13
p304
aa(lp305
Vprep_on
p306
aVorganizing-3
p307
aVpage-14
p308
aasa(dp309
Vparsetree
p310
V(ROOT (SBARQ (SBAR (IN If) (S (NP (PRP he)) (VP (VBD had) (S (NP (NP (CD 3) (JJ new) (NNS cards)) (CC and) (NP (CD 9) (JJ old) (NNS cards))) (VP (TO to) (VP (VB put) (PP (IN in) (NP (DT the) (NN binder))))))))) (, ,) (WHNP (WHADJP (WRB how) (JJ many)) (NNS pages)) (SQ (MD would) (NP (PRP he)) (VP (VB use))) (. ?)))
p311
sVtext
p312
VIf he had 3 new cards and 9 old cards to put in the binder , how many pages would he use ?
p313
sVdependencies
p314
(lp315
(lp316
Vroot
p317
aVROOT
p318
aVuse
p319
aa(lp320
Vmark
p321
aVhad
p322
aVIf
p323
aa(lp324
Vnsubj
p325
aVhad
p326
aVhe
p327
aa(lp328
Vadvcl
p329
aVuse
p330
aVhad
p331
aa(lp332
Vnum
p333
aVcards
p334
ag22
aa(lp335
Vamod
p336
aVcards
p337
aVnew
p338
aa(lp339
Vdobj
p340
aVhad
p341
aVcards
p342
aa(lp343
Vnum
p344
aVcards
p345
ag103
aa(lp346
Vamod
p347
aVcards
p348
aVold
p349
aa(lp350
Vconj_and
p351
aVcards
p352
aVcards
p353
aa(lp354
Vaux
p355
aVput
p356
aVto
p357
aa(lp358
Vccomp
p359
aVhad
p360
aVput
p361
aa(lp362
Vdet
p363
aVbinder
p364
aVthe
p365
aa(lp366
Vprep_in
p367
aVput
p368
aVbinder
p369
aa(lp370
Vadvmod
p371
aVmany
p372
aVhow
p373
aa(lp374
Vamod
p375
aVpages
p376
aVmany
p377
aa(lp378
Vdobj
p379
aVuse
p380
aVpages
p381
aa(lp382
Vaux
p383
aVuse
p384
aVwould
p385
aa(lp386
Vnsubj
p387
aVuse
p388
aVhe
p389
aasVwords
p390
(lp391
(lp392
VIf
p393
a(dp394
VNamedEntityTag
p395
g101
sVCharacterOffsetEnd
p396
V76
p397
sVCharacterOffsetBegin
p398
V74
p399
sVPartOfSpeech
p400
VIN
p401
sVLemma
p402
Vif
p403
saa(lp404
Vhe
p405
a(dp406
VNamedEntityTag
p407
g101
sVCharacterOffsetEnd
p408
V79
p409
sVCharacterOffsetBegin
p410
V77
p411
sVPartOfSpeech
p412
VPRP
p413
sVLemma
p414
Vhe
p415
saa(lp416
Vhad
p417
a(dp418
VNamedEntityTag
p419
g101
sVCharacterOffsetEnd
p420
V83
p421
sVCharacterOffsetBegin
p422
V80
p423
sVPartOfSpeech
p424
VVBD
p425
sVLemma
p426
Vhave
p427
saa(lp428
g22
a(dp429
VNormalizedNamedEntityTag
p430
V3.0
p431
sVLemma
p432
g22
sVCharacterOffsetEnd
p433
V85
p434
sVPartOfSpeech
p435
VCD
p436
sVCharacterOffsetBegin
p437
V84
p438
sVNamedEntityTag
p439
VNUMBER
p440
saa(lp441
Vnew
p442
a(dp443
VNamedEntityTag
p444
g101
sVCharacterOffsetEnd
p445
V89
p446
sVCharacterOffsetBegin
p447
V86
p448
sVPartOfSpeech
p449
VJJ
p450
sVLemma
p451
Vnew
p452
saa(lp453
Vcards
p454
a(dp455
VNamedEntityTag
p456
g101
sVCharacterOffsetEnd
p457
V95
p458
sVCharacterOffsetBegin
p459
V90
p460
sVPartOfSpeech
p461
VNNS
p462
sVLemma
p463
Vcard
p464
saa(lp465
Vand
p466
a(dp467
VNamedEntityTag
p468
g101
sVCharacterOffsetEnd
p469
V99
p470
sVCharacterOffsetBegin
p471
V96
p472
sVPartOfSpeech
p473
VCC
p474
sVLemma
p475
Vand
p476
saa(lp477
g103
a(dp478
VNormalizedNamedEntityTag
p479
V9.0
p480
sVLemma
p481
g103
sVCharacterOffsetEnd
p482
V101
p483
sVPartOfSpeech
p484
VCD
p485
sVCharacterOffsetBegin
p486
V100
p487
sVNamedEntityTag
p488
VNUMBER
p489
saa(lp490
Vold
p491
a(dp492
VNamedEntityTag
p493
g101
sVCharacterOffsetEnd
p494
V105
p495
sVCharacterOffsetBegin
p496
V102
p497
sVPartOfSpeech
p498
VJJ
p499
sVLemma
p500
Vold
p501
saa(lp502
Vcards
p503
a(dp504
VNamedEntityTag
p505
g101
sVCharacterOffsetEnd
p506
V111
p507
sVCharacterOffsetBegin
p508
V106
p509
sVPartOfSpeech
p510
VNNS
p511
sVLemma
p512
Vcard
p513
saa(lp514
Vto
p515
a(dp516
VNamedEntityTag
p517
g101
sVCharacterOffsetEnd
p518
V114
p519
sVCharacterOffsetBegin
p520
V112
p521
sVPartOfSpeech
p522
VTO
p523
sVLemma
p524
Vto
p525
saa(lp526
Vput
p527
a(dp528
VNamedEntityTag
p529
g101
sVCharacterOffsetEnd
p530
V118
p531
sVCharacterOffsetBegin
p532
V115
p533
sVPartOfSpeech
p534
VVB
p535
sVLemma
p536
Vput
p537
saa(lp538
Vin
p539
a(dp540
VNamedEntityTag
p541
g101
sVCharacterOffsetEnd
p542
V121
p543
sVCharacterOffsetBegin
p544
V119
p545
sVPartOfSpeech
p546
VIN
p547
sVLemma
p548
Vin
p549
saa(lp550
Vthe
p551
a(dp552
VNamedEntityTag
p553
g101
sVCharacterOffsetEnd
p554
V125
p555
sVCharacterOffsetBegin
p556
V122
p557
sVPartOfSpeech
p558
VDT
p559
sVLemma
p560
Vthe
p561
saa(lp562
Vbinder
p563
a(dp564
VNamedEntityTag
p565
g101
sVCharacterOffsetEnd
p566
V132
p567
sVCharacterOffsetBegin
p568
V126
p569
sVPartOfSpeech
p570
VNN
p571
sVLemma
p572
Vbinder
p573
saa(lp574
V,
p575
a(dp576
VNamedEntityTag
p577
g101
sVCharacterOffsetEnd
p578
V134
p579
sVCharacterOffsetBegin
p580
V133
p581
sVPartOfSpeech
p582
g575
sVLemma
p583
g575
saa(lp584
Vhow
p585
a(dp586
VNamedEntityTag
p587
g101
sVCharacterOffsetEnd
p588
V138
p589
sVCharacterOffsetBegin
p590
V135
p591
sVPartOfSpeech
p592
VWRB
p593
sVLemma
p594
Vhow
p595
saa(lp596
Vmany
p597
a(dp598
VNamedEntityTag
p599
g101
sVCharacterOffsetEnd
p600
V143
p601
sVCharacterOffsetBegin
p602
V139
p603
sVPartOfSpeech
p604
VJJ
p605
sVLemma
p606
Vmany
p607
saa(lp608
Vpages
p609
a(dp610
VNamedEntityTag
p611
g101
sVCharacterOffsetEnd
p612
V149
p613
sVCharacterOffsetBegin
p614
V144
p615
sVPartOfSpeech
p616
VNNS
p617
sVLemma
p618
Vpage
p619
saa(lp620
Vwould
p621
a(dp622
VNamedEntityTag
p623
g101
sVCharacterOffsetEnd
p624
V155
p625
sVCharacterOffsetBegin
p626
V150
p627
sVPartOfSpeech
p628
VMD
p629
sVLemma
p630
Vwould
p631
saa(lp632
Vhe
p633
a(dp634
VNamedEntityTag
p635
g101
sVCharacterOffsetEnd
p636
V158
p637
sVCharacterOffsetBegin
p638
V156
p639
sVPartOfSpeech
p640
VPRP
p641
sVLemma
p642
Vhe
p643
saa(lp644
Vuse
p645
a(dp646
VNamedEntityTag
p647
g101
sVCharacterOffsetEnd
p648
V162
p649
sVCharacterOffsetBegin
p650
V159
p651
sVPartOfSpeech
p652
VVB
p653
sVLemma
p654
Vuse
p655
saa(lp656
V?
p657
a(dp658
VNamedEntityTag
p659
g101
sVCharacterOffsetEnd
p660
V164
p661
sVCharacterOffsetBegin
p662
V163
p663
sVPartOfSpeech
p664
g254
sVLemma
p665
g657
saasVindexeddependencies
p666
(lp667
(lp668
Vroot
p669
aVROOT-0
p670
aVuse-22
p671
aa(lp672
Vmark
p673
aVhad-3
p674
aVIf-1
p675
aa(lp676
Vnsubj
p677
aVhad-3
p678
aVhe-2
p679
aa(lp680
Vadvcl
p681
aVuse-22
p682
aVhad-3
p683
aa(lp684
Vnum
p685
aVcards-6
p686
aV3-4
p687
aa(lp688
Vamod
p689
aVcards-6
p690
aVnew-5
p691
aa(lp692
Vdobj
p693
aVhad-3
p694
aVcards-6
p695
aa(lp696
Vnum
p697
aVcards-10
p698
aV9-8
p699
aa(lp700
Vamod
p701
aVcards-10
p702
aVold-9
p703
aa(lp704
Vconj_and
p705
aVcards-6
p706
aVcards-10
p707
aa(lp708
Vaux
p709
aVput-12
p710
aVto-11
p711
aa(lp712
Vccomp
p713
aVhad-3
p714
aVput-12
p715
aa(lp716
Vdet
p717
aVbinder-15
p718
aVthe-14
p719
aa(lp720
Vprep_in
p721
aVput-12
p722
aVbinder-15
p723
aa(lp724
Vadvmod
p725
aVmany-18
p726
aVhow-17
p727
aa(lp728
Vamod
p729
aVpages-19
p730
aVmany-18
p731
aa(lp732
Vdobj
p733
aVuse-22
p734
aVpages-19
p735
aa(lp736
Vaux
p737
aVuse-22
p738
aVwould-20
p739
aa(lp740
Vnsubj
p741
aVuse-22
p742
aVhe-21
p743
aasas.