(dp0
Vcoref
p1
(lp2
(lp3
(lp4
(lp5
Vthe group
p6
aI1
aI14
aI13
aI15
aa(lp7
VA group of 3 friends
p8
aI0
aI1
aI0
aI5
aaaasVsentences
p9
(lp10
(dp11
Vparsetree
p12
V(ROOT (S (NP (NP (DT A) (NN group)) (PP (IN of) (NP (CD 3) (NNS friends)))) (VP (VBD went) (PP (IN into) (NP (DT a) (NN restaurant)))) (. .)))
p13
sVtext
p14
VA group of 3 friends went into a restaurant .
p15
sVdependencies
p16
(lp17
(lp18
Vroot
p19
aVROOT
p20
aVwent
p21
aa(lp22
Vdet
p23
aVgroup
p24
aVA
p25
aa(lp26
Vnsubj
p27
aVwent
p28
aVgroup
p29
aa(lp30
Vnum
p31
aVfriends
p32
aV3
p33
aa(lp34
Vprep_of
p35
aVgroup
p36
aVfriends
p37
aa(lp38
Vdet
p39
aVrestaurant
p40
aVa
p41
aa(lp42
Vprep_into
p43
aVwent
p44
aVrestaurant
p45
aasVwords
p46
(lp47
(lp48
g25
a(dp49
VNamedEntityTag
p50
VO
p51
sVCharacterOffsetEnd
p52
V2
p53
sVCharacterOffsetBegin
p54
V1
p55
sVPartOfSpeech
p56
VDT
p57
sVLemma
p58
g41
saa(lp59
Vgroup
p60
a(dp61
VNamedEntityTag
p62
g51
sVCharacterOffsetEnd
p63
V8
p64
sVCharacterOffsetBegin
p65
g33
sVPartOfSpeech
p66
VNN
p67
sVLemma
p68
Vgroup
p69
saa(lp70
Vof
p71
a(dp72
VNamedEntityTag
p73
g51
sVCharacterOffsetEnd
p74
V11
p75
sVCharacterOffsetBegin
p76
V9
p77
sVPartOfSpeech
p78
VIN
p79
sVLemma
p80
Vof
p81
saa(lp82
g33
a(dp83
VNormalizedNamedEntityTag
p84
V3.0
p85
sVLemma
p86
g33
sVCharacterOffsetEnd
p87
V13
p88
sVPartOfSpeech
p89
VCD
p90
sVCharacterOffsetBegin
p91
V12
p92
sVNamedEntityTag
p93
VNUMBER
p94
saa(lp95
Vfriends
p96
a(dp97
VNamedEntityTag
p98
g51
sVCharacterOffsetEnd
p99
V21
p100
sVCharacterOffsetBegin
p101
V14
p102
sVPartOfSpeech
p103
VNNS
p104
sVLemma
p105
Vfriend
p106
saa(lp107
Vwent
p108
a(dp109
VNamedEntityTag
p110
g51
sVCharacterOffsetEnd
p111
V26
p112
sVCharacterOffsetBegin
p113
V22
p114
sVPartOfSpeech
p115
VVBD
p116
sVLemma
p117
Vgo
p118
saa(lp119
Vinto
p120
a(dp121
VNamedEntityTag
p122
g51
sVCharacterOffsetEnd
p123
V31
p124
sVCharacterOffsetBegin
p125
V27
p126
sVPartOfSpeech
p127
VIN
p128
sVLemma
p129
Vinto
p130
saa(lp131
g41
a(dp132
VNamedEntityTag
p133
g51
sVCharacterOffsetEnd
p134
V33
p135
sVCharacterOffsetBegin
p136
V32
p137
sVPartOfSpeech
p138
VDT
p139
sVLemma
p140
g41
saa(lp141
Vrestaurant
p142
a(dp143
VNamedEntityTag
p144
g51
sVCharacterOffsetEnd
p145
V44
p146
sVCharacterOffsetBegin
p147
V34
p148
sVPartOfSpeech
p149
VNN
p150
sVLemma
p151
Vrestaurant
p152
saa(lp153
V.
p154
a(dp155
VNamedEntityTag
p156
g51
sVCharacterOffsetEnd
p157
V46
p158
sVCharacterOffsetBegin
p159
V45
p160
sVPartOfSpeech
p161
g154
sVLemma
p162
g154
saasVindexeddependencies
p163
(lp164
(lp165
Vroot
p166
aVROOT-0
p167
aVwent-6
p168
aa(lp169
Vdet
p170
aVgroup-2
p171
aVA-1
p172
aa(lp173
Vnsubj
p174
aVwent-6
p175
aVgroup-2
p176
aa(lp177
Vnum
p178
aVfriends-5
p179
aV3-4
p180
aa(lp181
Vprep_of
p182
aVgroup-2
p183
aVfriends-5
p184
aa(lp185
Vdet
p186
aVrestaurant-9
p187
aVa-8
p188
aa(lp189
Vprep_into
p190
aVwent-6
p191
aVrestaurant-9
p192
aasa(dp193
Vparsetree
p194
V(ROOT (S (NP (DT The) (NN chef)) (ADVP (RB already)) (VP (VBD had) (NP (NP (CD 6) (NN chicken) (NNS wings)) (SBAR (S (VP (VP (VBD cooked)) (CC but) (VP (VBD cooked) (NP (QP (CD 3) (JJR more))) (PP (IN for) (NP (DT the) (NN group))))))))) (. .)))
p195
sVtext
p196
VThe chef already had 6 chicken wings cooked but cooked 3 more for the group .
p197
sVdependencies
p198
(lp199
(lp200
Vroot
p201
aVROOT
p202
aVhad
p203
aa(lp204
Vdet
p205
aVchef
p206
aVThe
p207
aa(lp208
Vnsubj
p209
aVhad
p210
aVchef
p211
aa(lp212
Vadvmod
p213
aVhad
p214
aValready
p215
aa(lp216
Vnum
p217
aVwings
p218
aV6
p219
aa(lp220
Vnn
p221
aVwings
p222
aVchicken
p223
aa(lp224
Vdobj
p225
aVhad
p226
aVwings
p227
aa(lp228
Vrcmod
p229
aVwings
p230
aVcooked
p231
aa(lp232
Vconj_but
p233
aVcooked
p234
aVcooked
p235
aa(lp236
Vdobj
p237
aVcooked
p238
ag33
aa(lp239
Vquantmod
p240
ag33
aVmore
p241
aa(lp242
Vdet
p243
aVgroup
p244
aVthe
p245
aa(lp246
Vprep_for
p247
aVcooked
p248
aVgroup
p249
aasVwords
p250
(lp251
(lp252
VThe
p253
a(dp254
VNamedEntityTag
p255
g51
sVCharacterOffsetEnd
p256
V50
p257
sVCharacterOffsetBegin
p258
V47
p259
sVPartOfSpeech
p260
VDT
p261
sVLemma
p262
Vthe
p263
saa(lp264
Vchef
p265
a(dp266
VNamedEntityTag
p267
g51
sVCharacterOffsetEnd
p268
V55
p269
sVCharacterOffsetBegin
p270
V51
p271
sVPartOfSpeech
p272
VNN
p273
sVLemma
p274
Vchef
p275
saa(lp276
Valready
p277
a(dp278
VNamedEntityTag
p279
g51
sVCharacterOffsetEnd
p280
V63
p281
sVCharacterOffsetBegin
p282
V56
p283
sVPartOfSpeech
p284
VRB
p285
sVLemma
p286
Valready
p287
saa(lp288
Vhad
p289
a(dp290
VNamedEntityTag
p291
g51
sVCharacterOffsetEnd
p292
V67
p293
sVCharacterOffsetBegin
p294
V64
p295
sVPartOfSpeech
p296
VVBD
p297
sVLemma
p298
Vhave
p299
saa(lp300
g219
a(dp301
VNormalizedNamedEntityTag
p302
V6.0
p303
sVLemma
p304
g219
sVCharacterOffsetEnd
p305
V69
p306
sVPartOfSpeech
p307
VCD
p308
sVCharacterOffsetBegin
p309
V68
p310
sVNamedEntityTag
p311
VNUMBER
p312
saa(lp313
Vchicken
p314
a(dp315
VNamedEntityTag
p316
g51
sVCharacterOffsetEnd
p317
V77
p318
sVCharacterOffsetBegin
p319
V70
p320
sVPartOfSpeech
p321
VNN
p322
sVLemma
p323
Vchicken
p324
saa(lp325
Vwings
p326
a(dp327
VNamedEntityTag
p328
g51
sVCharacterOffsetEnd
p329
V83
p330
sVCharacterOffsetBegin
p331
V78
p332
sVPartOfSpeech
p333
VNNS
p334
sVLemma
p335
Vwing
p336
saa(lp337
Vcooked
p338
a(dp339
VNamedEntityTag
p340
g51
sVCharacterOffsetEnd
p341
V90
p342
sVCharacterOffsetBegin
p343
V84
p344
sVPartOfSpeech
p345
VVBD
p346
sVLemma
p347
Vcook
p348
saa(lp349
Vbut
p350
a(dp351
VNamedEntityTag
p352
g51
sVCharacterOffsetEnd
p353
V94
p354
sVCharacterOffsetBegin
p355
V91
p356
sVPartOfSpeech
p357
VCC
p358
sVLemma
p359
Vbut
p360
saa(lp361
Vcooked
p362
a(dp363
VNamedEntityTag
p364
g51
sVCharacterOffsetEnd
p365
V101
p366
sVCharacterOffsetBegin
p367
V95
p368
sVPartOfSpeech
p369
VVBD
p370
sVLemma
p371
Vcook
p372
saa(lp373
g33
a(dp374
VNormalizedNamedEntityTag
p375
V3.0
p376
sVLemma
p377
g33
sVCharacterOffsetEnd
p378
V103
p379
sVPartOfSpeech
p380
VCD
p381
sVCharacterOffsetBegin
p382
V102
p383
sVNamedEntityTag
p384
VNUMBER
p385
saa(lp386
Vmore
p387
a(dp388
VNamedEntityTag
p389
g51
sVCharacterOffsetEnd
p390
V108
p391
sVCharacterOffsetBegin
p392
V104
p393
sVPartOfSpeech
p394
VJJR
p395
sVLemma
p396
Vmore
p397
saa(lp398
Vfor
p399
a(dp400
VNamedEntityTag
p401
g51
sVCharacterOffsetEnd
p402
V112
p403
sVCharacterOffsetBegin
p404
V109
p405
sVPartOfSpeech
p406
VIN
p407
sVLemma
p408
Vfor
p409
saa(lp410
Vthe
p411
a(dp412
VNamedEntityTag
p413
g51
sVCharacterOffsetEnd
p414
V116
p415
sVCharacterOffsetBegin
p416
V113
p417
sVPartOfSpeech
p418
VDT
p419
sVLemma
p420
Vthe
p421
saa(lp422
Vgroup
p423
a(dp424
VNamedEntityTag
p425
g51
sVCharacterOffsetEnd
p426
V122
p427
sVCharacterOffsetBegin
p428
V117
p429
sVPartOfSpeech
p430
VNN
p431
sVLemma
p432
Vgroup
p433
saa(lp434
g154
a(dp435
VNamedEntityTag
p436
g51
sVCharacterOffsetEnd
p437
V124
p438
sVCharacterOffsetBegin
p439
V123
p440
sVPartOfSpeech
p441
g154
sVLemma
p442
g154
saasVindexeddependencies
p443
(lp444
(lp445
Vroot
p446
aVROOT-0
p447
aVhad-4
p448
aa(lp449
Vdet
p450
aVchef-2
p451
aVThe-1
p452
aa(lp453
Vnsubj
p454
aVhad-4
p455
aVchef-2
p456
aa(lp457
Vadvmod
p458
aVhad-4
p459
aValready-3
p460
aa(lp461
Vnum
p462
aVwings-7
p463
aV6-5
p464
aa(lp465
Vnn
p466
aVwings-7
p467
aVchicken-6
p468
aa(lp469
Vdobj
p470
aVhad-4
p471
aVwings-7
p472
aa(lp473
Vrcmod
p474
aVwings-7
p475
aVcooked-8
p476
aa(lp477
Vconj_but
p478
aVcooked-8
p479
aVcooked-10
p480
aa(lp481
Vdobj
p482
aVcooked-10
p483
aV3-11
p484
aa(lp485
Vquantmod
p486
aV3-11
p487
aVmore-12
p488
aa(lp489
Vdet
p490
aVgroup-15
p491
aVthe-14
p492
aa(lp493
Vprep_for
p494
aVcooked-10
p495
aVgroup-15
p496
aasa(dp497
Vparsetree
p498
V(ROOT (SBAR (IN If) (S (NP (PRP they)) (DT each) (VP (VBD got) (NP (DT the) (JJ same) (NN amount)) (SBAR (SBARQ (WHADJP (WRB how) (JJ many)) (SQ (MD would) (NP (DT each) (NN person)) (VP (VB get))) (. ?)))))))
p499
sVtext
p500
VIf they each got the same amount how many would each person get ?
p501
sVdependencies
p502
(lp503
(lp504
Vroot
p505
aVROOT
p506
aVgot
p507
aa(lp508
Vmark
p509
aVgot
p510
aVIf
p511
aa(lp512
Vnsubj
p513
aVgot
p514
aVthey
p515
aa(lp516
Vdep
p517
aVgot
p518
aVeach
p519
aa(lp520
Vdet
p521
aVamount
p522
aVthe
p523
aa(lp524
Vamod
p525
aVamount
p526
aVsame
p527
aa(lp528
Vdobj
p529
aVgot
p530
aVamount
p531
aa(lp532
Vadvmod
p533
aVmany
p534
aVhow
p535
aa(lp536
Vdep
p537
aVget
p538
aVmany
p539
aa(lp540
Vaux
p541
aVget
p542
aVwould
p543
aa(lp544
Vdet
p545
aVperson
p546
aVeach
p547
aa(lp548
Vnsubj
p549
aVget
p550
aVperson
p551
aa(lp552
Vdep
p553
aVgot
p554
aVget
p555
aasVwords
p556
(lp557
(lp558
VIf
p559
a(dp560
VNamedEntityTag
p561
g51
sVCharacterOffsetEnd
p562
V127
p563
sVCharacterOffsetBegin
p564
V125
p565
sVPartOfSpeech
p566
VIN
p567
sVLemma
p568
Vif
p569
saa(lp570
Vthey
p571
a(dp572
VNamedEntityTag
p573
g51
sVCharacterOffsetEnd
p574
V132
p575
sVCharacterOffsetBegin
p576
V128
p577
sVPartOfSpeech
p578
VPRP
p579
sVLemma
p580
Vthey
p581
saa(lp582
Veach
p583
a(dp584
VNamedEntityTag
p585
g51
sVCharacterOffsetEnd
p586
V137
p587
sVCharacterOffsetBegin
p588
V133
p589
sVPartOfSpeech
p590
VDT
p591
sVLemma
p592
Veach
p593
saa(lp594
Vgot
p595
a(dp596
VNamedEntityTag
p597
g51
sVCharacterOffsetEnd
p598
V141
p599
sVCharacterOffsetBegin
p600
V138
p601
sVPartOfSpeech
p602
VVBD
p603
sVLemma
p604
Vget
p605
saa(lp606
Vthe
p607
a(dp608
VNamedEntityTag
p609
g51
sVCharacterOffsetEnd
p610
V145
p611
sVCharacterOffsetBegin
p612
V142
p613
sVPartOfSpeech
p614
VDT
p615
sVLemma
p616
Vthe
p617
saa(lp618
Vsame
p619
a(dp620
VNamedEntityTag
p621
g51
sVCharacterOffsetEnd
p622
V150
p623
sVCharacterOffsetBegin
p624
V146
p625
sVPartOfSpeech
p626
VJJ
p627
sVLemma
p628
Vsame
p629
saa(lp630
Vamount
p631
a(dp632
VNamedEntityTag
p633
g51
sVCharacterOffsetEnd
p634
V157
p635
sVCharacterOffsetBegin
p636
V151
p637
sVPartOfSpeech
p638
VNN
p639
sVLemma
p640
Vamount
p641
saa(lp642
Vhow
p643
a(dp644
VNamedEntityTag
p645
g51
sVCharacterOffsetEnd
p646
V161
p647
sVCharacterOffsetBegin
p648
V158
p649
sVPartOfSpeech
p650
VWRB
p651
sVLemma
p652
Vhow
p653
saa(lp654
Vmany
p655
a(dp656
VNamedEntityTag
p657
g51
sVCharacterOffsetEnd
p658
V166
p659
sVCharacterOffsetBegin
p660
V162
p661
sVPartOfSpeech
p662
VJJ
p663
sVLemma
p664
Vmany
p665
saa(lp666
Vwould
p667
a(dp668
VNamedEntityTag
p669
g51
sVCharacterOffsetEnd
p670
V172
p671
sVCharacterOffsetBegin
p672
V167
p673
sVPartOfSpeech
p674
VMD
p675
sVLemma
p676
Vwould
p677
saa(lp678
Veach
p679
a(dp680
VNamedEntityTag
p681
g51
sVCharacterOffsetEnd
p682
V177
p683
sVCharacterOffsetBegin
p684
V173
p685
sVPartOfSpeech
p686
VDT
p687
sVLemma
p688
Veach
p689
saa(lp690
Vperson
p691
a(dp692
VNamedEntityTag
p693
g51
sVCharacterOffsetEnd
p694
V184
p695
sVCharacterOffsetBegin
p696
V178
p697
sVPartOfSpeech
p698
VNN
p699
sVLemma
p700
Vperson
p701
saa(lp702
Vget
p703
a(dp704
VNamedEntityTag
p705
g51
sVCharacterOffsetEnd
p706
V188
p707
sVCharacterOffsetBegin
p708
V185
p709
sVPartOfSpeech
p710
VVB
p711
sVLemma
p712
Vget
p713
saa(lp714
V?
p715
a(dp716
VNamedEntityTag
p717
g51
sVCharacterOffsetEnd
p718
V190
p719
sVCharacterOffsetBegin
p720
V189
p721
sVPartOfSpeech
p722
g154
sVLemma
p723
g715
saasVindexeddependencies
p724
(lp725
(lp726
Vroot
p727
aVROOT-0
p728
aVgot-4
p729
aa(lp730
Vmark
p731
aVgot-4
p732
aVIf-1
p733
aa(lp734
Vnsubj
p735
aVgot-4
p736
aVthey-2
p737
aa(lp738
Vdep
p739
aVgot-4
p740
aVeach-3
p741
aa(lp742
Vdet
p743
aVamount-7
p744
aVthe-5
p745
aa(lp746
Vamod
p747
aVamount-7
p748
aVsame-6
p749
aa(lp750
Vdobj
p751
aVgot-4
p752
aVamount-7
p753
aa(lp754
Vadvmod
p755
aVmany-9
p756
aVhow-8
p757
aa(lp758
Vdep
p759
aVget-13
p760
aVmany-9
p761
aa(lp762
Vaux
p763
aVget-13
p764
aVwould-10
p765
aa(lp766
Vdet
p767
aVperson-12
p768
aVeach-11
p769
aa(lp770
Vnsubj
p771
aVget-13
p772
aVperson-12
p773
aa(lp774
Vdep
p775
aVgot-4
p776
aVget-13
p777
aasas.