(dp0
Vcoref
p1
(lp2
(lp3
(lp4
(lp5
V6
p6
aI1
aI7
aI7
aI8
aa(lp7
g6
aI0
aI4
aI4
aI5
aaaa(lp8
(lp9
(lp10
Vthe bears
p11
aI1
aI3
aI2
aI4
aa(lp12
V6 giant stuffed bears in stock when they got another shipment with 18 bears in it
p13
aI0
aI7
aI4
aI20
aaaa(lp14
(lp15
(lp16
Vit
p17
aI0
aI19
aI19
aI20
aa(lp18
Vanother shipment
p19
aI0
aI14
aI13
aI15
aaaa(lp20
(lp21
(lp22
Vthey
p23
aI2
aI4
aI4
aI5
aa(lp24
VThe
p25
aI1
aI0
aI0
aI1
aaaasVsentences
p26
(lp27
(dp28
Vparsetree
p29
V(ROOT (S (NP (DT A) (NN toy) (NN store)) (VP (VBD had) (NP (NP (ADJP (CD 6)) (JJ giant) (VBN stuffed) (NNS bears)) (PP (IN in) (NP (NP (NN stock)) (SBAR (WHADVP (WRB when)) (S (NP (PRP they)) (VP (VBD got) (NP (DT another) (NN shipment)) (PP (IN with) (NP (CD 18) (NNS bears))) (PP (IN in) (NP (PRP it)))))))))) (. .)))
p30
sVtext
p31
VA toy store had 6 giant stuffed bears in stock when they got another shipment with 18 bears in it .
p32
sVdependencies
p33
(lp34
(lp35
Vroot
p36
aVROOT
p37
aVhad
p38
aa(lp39
Vdet
p40
aVstore
p41
aVA
p42
aa(lp43
Vnn
p44
aVstore
p45
aVtoy
p46
aa(lp47
Vnsubj
p48
aVhad
p49
aVstore
p50
aa(lp51
Vamod
p52
aVbears
p53
ag6
aa(lp54
Vamod
p55
aVbears
p56
aVgiant
p57
aa(lp58
Vamod
p59
aVbears
p60
aVstuffed
p61
aa(lp62
Vdobj
p63
aVhad
p64
aVbears
p65
aa(lp66
Vprep_in
p67
aVbears
p68
aVstock
p69
aa(lp70
Vadvmod
p71
aVgot
p72
aVwhen
p73
aa(lp74
Vnsubj
p75
aVgot
p76
aVthey
p77
aa(lp78
Vrcmod
p79
aVstock
p80
aVgot
p81
aa(lp82
Vdet
p83
aVshipment
p84
aVanother
p85
aa(lp86
Vdobj
p87
aVgot
p88
aVshipment
p89
aa(lp90
Vnum
p91
aVbears
p92
aV18
p93
aa(lp94
Vprep_with
p95
aVgot
p96
aVbears
p97
aa(lp98
Vprep_in
p99
aVgot
p100
aVit
p101
aasVwords
p102
(lp103
(lp104
g42
a(dp105
VNamedEntityTag
p106
VO
p107
sVCharacterOffsetEnd
p108
V2
p109
sVCharacterOffsetBegin
p110
V1
p111
sVPartOfSpeech
p112
VDT
p113
sVLemma
p114
Va
p115
saa(lp116
Vtoy
p117
a(dp118
VNamedEntityTag
p119
g107
sVCharacterOffsetEnd
p120
g6
sVCharacterOffsetBegin
p121
V3
p122
sVPartOfSpeech
p123
VNN
p124
sVLemma
p125
Vtoy
p126
saa(lp127
Vstore
p128
a(dp129
VNamedEntityTag
p130
g107
sVCharacterOffsetEnd
p131
V12
p132
sVCharacterOffsetBegin
p133
V7
p134
sVPartOfSpeech
p135
VNN
p136
sVLemma
p137
Vstore
p138
saa(lp139
Vhad
p140
a(dp141
VNamedEntityTag
p142
g107
sVCharacterOffsetEnd
p143
V16
p144
sVCharacterOffsetBegin
p145
V13
p146
sVPartOfSpeech
p147
VVBD
p148
sVLemma
p149
Vhave
p150
saa(lp151
g6
a(dp152
VNormalizedNamedEntityTag
p153
V6.0
p154
sVLemma
p155
g6
sVCharacterOffsetEnd
p156
V18
p157
sVPartOfSpeech
p158
VCD
p159
sVCharacterOffsetBegin
p160
V17
p161
sVNamedEntityTag
p162
VNUMBER
p163
saa(lp164
Vgiant
p165
a(dp166
VNamedEntityTag
p167
g107
sVCharacterOffsetEnd
p168
V24
p169
sVCharacterOffsetBegin
p170
V19
p171
sVPartOfSpeech
p172
VJJ
p173
sVLemma
p174
Vgiant
p175
saa(lp176
Vstuffed
p177
a(dp178
VNamedEntityTag
p179
g107
sVCharacterOffsetEnd
p180
V32
p181
sVCharacterOffsetBegin
p182
V25
p183
sVPartOfSpeech
p184
VVBN
p185
sVLemma
p186
Vstuff
p187
saa(lp188
Vbears
p189
a(dp190
VNamedEntityTag
p191
g107
sVCharacterOffsetEnd
p192
V38
p193
sVCharacterOffsetBegin
p194
V33
p195
sVPartOfSpeech
p196
VNNS
p197
sVLemma
p198
Vbear
p199
saa(lp200
Vin
p201
a(dp202
VNamedEntityTag
p203
g107
sVCharacterOffsetEnd
p204
V41
p205
sVCharacterOffsetBegin
p206
V39
p207
sVPartOfSpeech
p208
VIN
p209
sVLemma
p210
Vin
p211
saa(lp212
Vstock
p213
a(dp214
VNamedEntityTag
p215
g107
sVCharacterOffsetEnd
p216
V47
p217
sVCharacterOffsetBegin
p218
V42
p219
sVPartOfSpeech
p220
VNN
p221
sVLemma
p222
Vstock
p223
saa(lp224
Vwhen
p225
a(dp226
VNamedEntityTag
p227
g107
sVCharacterOffsetEnd
p228
V52
p229
sVCharacterOffsetBegin
p230
V48
p231
sVPartOfSpeech
p232
VWRB
p233
sVLemma
p234
Vwhen
p235
saa(lp236
Vthey
p237
a(dp238
VNamedEntityTag
p239
g107
sVCharacterOffsetEnd
p240
V57
p241
sVCharacterOffsetBegin
p242
V53
p243
sVPartOfSpeech
p244
VPRP
p245
sVLemma
p246
Vthey
p247
saa(lp248
Vgot
p249
a(dp250
VNamedEntityTag
p251
g107
sVCharacterOffsetEnd
p252
V61
p253
sVCharacterOffsetBegin
p254
V58
p255
sVPartOfSpeech
p256
VVBD
p257
sVLemma
p258
Vget
p259
saa(lp260
Vanother
p261
a(dp262
VNamedEntityTag
p263
g107
sVCharacterOffsetEnd
p264
V69
p265
sVCharacterOffsetBegin
p266
V62
p267
sVPartOfSpeech
p268
VDT
p269
sVLemma
p270
Vanother
p271
saa(lp272
Vshipment
p273
a(dp274
VNamedEntityTag
p275
g107
sVCharacterOffsetEnd
p276
V78
p277
sVCharacterOffsetBegin
p278
V70
p279
sVPartOfSpeech
p280
VNN
p281
sVLemma
p282
Vshipment
p283
saa(lp284
Vwith
p285
a(dp286
VNamedEntityTag
p287
g107
sVCharacterOffsetEnd
p288
V83
p289
sVCharacterOffsetBegin
p290
V79
p291
sVPartOfSpeech
p292
VIN
p293
sVLemma
p294
Vwith
p295
saa(lp296
V18
p297
a(dp298
VNormalizedNamedEntityTag
p299
V18.0
p300
sVLemma
p301
V18
p302
sVCharacterOffsetEnd
p303
V86
p304
sVPartOfSpeech
p305
VCD
p306
sVCharacterOffsetBegin
p307
V84
p308
sVNamedEntityTag
p309
VNUMBER
p310
saa(lp311
Vbears
p312
a(dp313
VNamedEntityTag
p314
g107
sVCharacterOffsetEnd
p315
V92
p316
sVCharacterOffsetBegin
p317
V87
p318
sVPartOfSpeech
p319
VNNS
p320
sVLemma
p321
Vbear
p322
saa(lp323
Vin
p324
a(dp325
VNamedEntityTag
p326
g107
sVCharacterOffsetEnd
p327
V95
p328
sVCharacterOffsetBegin
p329
V93
p330
sVPartOfSpeech
p331
VIN
p332
sVLemma
p333
Vin
p334
saa(lp335
Vit
p336
a(dp337
VNamedEntityTag
p338
g107
sVCharacterOffsetEnd
p339
V98
p340
sVCharacterOffsetBegin
p341
V96
p342
sVPartOfSpeech
p343
VPRP
p344
sVLemma
p345
Vit
p346
saa(lp347
V.
p348
a(dp349
VNamedEntityTag
p350
g107
sVCharacterOffsetEnd
p351
V100
p352
sVCharacterOffsetBegin
p353
V99
p354
sVPartOfSpeech
p355
g348
sVLemma
p356
g348
saasVindexeddependencies
p357
(lp358
(lp359
Vroot
p360
aVROOT-0
p361
aVhad-4
p362
aa(lp363
Vdet
p364
aVstore-3
p365
aVA-1
p366
aa(lp367
Vnn
p368
aVstore-3
p369
aVtoy-2
p370
aa(lp371
Vnsubj
p372
aVhad-4
p373
aVstore-3
p374
aa(lp375
Vamod
p376
aVbears-8
p377
aV6-5
p378
aa(lp379
Vamod
p380
aVbears-8
p381
aVgiant-6
p382
aa(lp383
Vamod
p384
aVbears-8
p385
aVstuffed-7
p386
aa(lp387
Vdobj
p388
aVhad-4
p389
aVbears-8
p390
aa(lp391
Vprep_in
p392
aVbears-8
p393
aVstock-10
p394
aa(lp395
Vadvmod
p396
aVgot-13
p397
aVwhen-11
p398
aa(lp399
Vnsubj
p400
aVgot-13
p401
aVthey-12
p402
aa(lp403
Vrcmod
p404
aVstock-10
p405
aVgot-13
p406
aa(lp407
Vdet
p408
aVshipment-15
p409
aVanother-14
p410
aa(lp411
Vdobj
p412
aVgot-13
p413
aVshipment-15
p414
aa(lp415
Vnum
p416
aVbears-18
p417
aV18-17
p418
aa(lp419
Vprep_with
p420
aVgot-13
p421
aVbears-18
p422
aa(lp423
Vprep_in
p424
aVgot-13
p425
aVit-20
p426
aasa(dp427
Vparsetree
p428
V(ROOT (S (NP (DT The)) (VP (VBN put) (NP (DT the) (NNS bears)) (PP (IN onto) (NP (NP (NNS shelves)) (PP (IN with) (NP (CD 6))))) (PP (IN on) (NP (DT each) (NN shelf)))) (. .)))
p429
sVtext
p430
VThe put the bears onto shelves with 6 on each shelf .
p431
sVdependencies
p432
(lp433
(lp434
Vroot
p435
aVROOT
p436
aVput
p437
aa(lp438
Vnsubj
p439
aVput
p440
aVThe
p441
aa(lp442
Vdet
p443
aVbears
p444
aVthe
p445
aa(lp446
Vdobj
p447
aVput
p448
aVbears
p449
aa(lp450
Vprep_onto
p451
aVput
p452
aVshelves
p453
aa(lp454
Vprep_with
p455
aVshelves
p456
ag6
aa(lp457
Vdet
p458
aVshelf
p459
aVeach
p460
aa(lp461
Vprep_on
p462
aVput
p463
aVshelf
p464
aasVwords
p465
(lp466
(lp467
VThe
p468
a(dp469
VNamedEntityTag
p470
g107
sVCharacterOffsetEnd
p471
V104
p472
sVCharacterOffsetBegin
p473
V101
p474
sVPartOfSpeech
p475
VDT
p476
sVLemma
p477
Vthe
p478
saa(lp479
Vput
p480
a(dp481
VNamedEntityTag
p482
g107
sVCharacterOffsetEnd
p483
V108
p484
sVCharacterOffsetBegin
p485
V105
p486
sVPartOfSpeech
p487
VVBN
p488
sVLemma
p489
Vput
p490
saa(lp491
Vthe
p492
a(dp493
VNamedEntityTag
p494
g107
sVCharacterOffsetEnd
p495
V112
p496
sVCharacterOffsetBegin
p497
V109
p498
sVPartOfSpeech
p499
VDT
p500
sVLemma
p501
Vthe
p502
saa(lp503
Vbears
p504
a(dp505
VNamedEntityTag
p506
g107
sVCharacterOffsetEnd
p507
V118
p508
sVCharacterOffsetBegin
p509
V113
p510
sVPartOfSpeech
p511
VNNS
p512
sVLemma
p513
Vbear
p514
saa(lp515
Vonto
p516
a(dp517
VNamedEntityTag
p518
g107
sVCharacterOffsetEnd
p519
V123
p520
sVCharacterOffsetBegin
p521
V119
p522
sVPartOfSpeech
p523
VIN
p524
sVLemma
p525
Vonto
p526
saa(lp527
Vshelves
p528
a(dp529
VNamedEntityTag
p530
g107
sVCharacterOffsetEnd
p531
V131
p532
sVCharacterOffsetBegin
p533
V124
p534
sVPartOfSpeech
p535
VNNS
p536
sVLemma
p537
Vshelf
p538
saa(lp539
Vwith
p540
a(dp541
VNamedEntityTag
p542
g107
sVCharacterOffsetEnd
p543
V136
p544
sVCharacterOffsetBegin
p545
V132
p546
sVPartOfSpeech
p547
VIN
p548
sVLemma
p549
Vwith
p550
saa(lp551
g6
a(dp552
VNormalizedNamedEntityTag
p553
V6.0
p554
sVLemma
p555
g6
sVCharacterOffsetEnd
p556
V138
p557
sVPartOfSpeech
p558
VCD
p559
sVCharacterOffsetBegin
p560
V137
p561
sVNamedEntityTag
p562
VNUMBER
p563
saa(lp564
Von
p565
a(dp566
VNamedEntityTag
p567
g107
sVCharacterOffsetEnd
p568
V141
p569
sVCharacterOffsetBegin
p570
V139
p571
sVPartOfSpeech
p572
VIN
p573
sVLemma
p574
Von
p575
saa(lp576
Veach
p577
a(dp578
VNamedEntityTag
p579
g107
sVCharacterOffsetEnd
p580
V146
p581
sVCharacterOffsetBegin
p582
V142
p583
sVPartOfSpeech
p584
VDT
p585
sVLemma
p586
Veach
p587
saa(lp588
Vshelf
p589
a(dp590
VNamedEntityTag
p591
g107
sVCharacterOffsetEnd
p592
V152
p593
sVCharacterOffsetBegin
p594
V147
p595
sVPartOfSpeech
p596
VNN
p597
sVLemma
p598
Vshelf
p599
saa(lp600
g348
a(dp601
VNamedEntityTag
p602
g107
sVCharacterOffsetEnd
p603
V154
p604
sVCharacterOffsetBegin
p605
V153
p606
sVPartOfSpeech
p607
g348
sVLemma
p608
g348
saasVindexeddependencies
p609
(lp610
(lp611
Vroot
p612
aVROOT-0
p613
aVput-2
p614
aa(lp615
Vnsubj
p616
aVput-2
p617
aVThe-1
p618
aa(lp619
Vdet
p620
aVbears-4
p621
aVthe-3
p622
aa(lp623
Vdobj
p624
aVput-2
p625
aVbears-4
p626
aa(lp627
Vprep_onto
p628
aVput-2
p629
aVshelves-6
p630
aa(lp631
Vprep_with
p632
aVshelves-6
p633
aV6-8
p634
aa(lp635
Vdet
p636
aVshelf-11
p637
aVeach-10
p638
aa(lp639
Vprep_on
p640
aVput-2
p641
aVshelf-11
p642
aasa(dp643
Vparsetree
p644
V(ROOT (SBARQ (WHNP (WHADJP (WRB How) (JJ many)) (NNS shelves)) (SQ (VBD did) (NP (PRP they)) (VP (VB use))) (. ?)))
p645
sVtext
p646
VHow many shelves did they use ?
p647
sVdependencies
p648
(lp649
(lp650
Vroot
p651
aVROOT
p652
aVuse
p653
aa(lp654
Vadvmod
p655
aVmany
p656
aVHow
p657
aa(lp658
Vamod
p659
aVshelves
p660
aVmany
p661
aa(lp662
Vdobj
p663
aVuse
p664
aVshelves
p665
aa(lp666
Vaux
p667
aVuse
p668
aVdid
p669
aa(lp670
Vnsubj
p671
aVuse
p672
aVthey
p673
aasVwords
p674
(lp675
(lp676
VHow
p677
a(dp678
VNamedEntityTag
p679
g107
sVCharacterOffsetEnd
p680
V158
p681
sVCharacterOffsetBegin
p682
V155
p683
sVPartOfSpeech
p684
VWRB
p685
sVLemma
p686
Vhow
p687
saa(lp688
Vmany
p689
a(dp690
VNamedEntityTag
p691
g107
sVCharacterOffsetEnd
p692
V163
p693
sVCharacterOffsetBegin
p694
V159
p695
sVPartOfSpeech
p696
VJJ
p697
sVLemma
p698
Vmany
p699
saa(lp700
Vshelves
p701
a(dp702
VNamedEntityTag
p703
g107
sVCharacterOffsetEnd
p704
V171
p705
sVCharacterOffsetBegin
p706
V164
p707
sVPartOfSpeech
p708
VNNS
p709
sVLemma
p710
Vshelf
p711
saa(lp712
Vdid
p713
a(dp714
VNamedEntityTag
p715
g107
sVCharacterOffsetEnd
p716
V175
p717
sVCharacterOffsetBegin
p718
V172
p719
sVPartOfSpeech
p720
VVBD
p721
sVLemma
p722
Vdo
p723
saa(lp724
Vthey
p725
a(dp726
VNamedEntityTag
p727
g107
sVCharacterOffsetEnd
p728
V180
p729
sVCharacterOffsetBegin
p730
V176
p731
sVPartOfSpeech
p732
VPRP
p733
sVLemma
p734
Vthey
p735
saa(lp736
Vuse
p737
a(dp738
VNamedEntityTag
p739
g107
sVCharacterOffsetEnd
p740
V184
p741
sVCharacterOffsetBegin
p742
V181
p743
sVPartOfSpeech
p744
VVB
p745
sVLemma
p746
Vuse
p747
saa(lp748
V?
p749
a(dp750
VNamedEntityTag
p751
g107
sVCharacterOffsetEnd
p752
V186
p753
sVCharacterOffsetBegin
p754
V185
p755
sVPartOfSpeech
p756
g348
sVLemma
p757
g749
saasVindexeddependencies
p758
(lp759
(lp760
Vroot
p761
aVROOT-0
p762
aVuse-6
p763
aa(lp764
Vadvmod
p765
aVmany-2
p766
aVHow-1
p767
aa(lp768
Vamod
p769
aVshelves-3
p770
aVmany-2
p771
aa(lp772
Vdobj
p773
aVuse-6
p774
aVshelves-3
p775
aa(lp776
Vaux
p777
aVuse-6
p778
aVdid-4
p779
aa(lp780
Vnsubj
p781
aVuse-6
p782
aVthey-5
p783
aasas.