(dp0
Vcoref
p1
(lp2
(lp3
(lp4
(lp5
VThe tea shop
p6
aI1
aI2
aI0
aI3
aa(lp7
VLacey 's Tea Shop
p8
aI0
aI3
aI0
aI4
aaaa(lp9
(lp10
(lp11
Vthe teas
p12
aI2
aI4
aI3
aI5
aa(lp13
V10 teas in all , 3 of which were caffeinated
p14
aI1
aI5
aI4
aI14
aaaasVsentences
p15
(lp16
(dp17
Vparsetree
p18
V(ROOT (S (NP (NP (NNP Lacey) (POS 's)) (NNP Tea) (NNP Shop)) (VP (VBZ has) (VP (VP (VBN caffeinated) (NP (NN tea))) (CC and) (VP (VBN decaffeinated) (NP (NN tea))))) (. .)))
p19
sVtext
p20
VLacey's Tea Shop has caffeinated tea and decaffeinated tea .
p21
sVdependencies
p22
(lp23
(lp24
Vroot
p25
aVROOT
p26
aVcaffeinated
p27
aa(lp28
Vposs
p29
aVShop
p30
aVLacey
p31
aa(lp32
Vnn
p33
aVShop
p34
aVTea
p35
aa(lp36
Vnsubj
p37
aVcaffeinated
p38
aVShop
p39
aa(lp40
Vaux
p41
aVcaffeinated
p42
aVhas
p43
aa(lp44
Vdobj
p45
aVcaffeinated
p46
aVtea
p47
aa(lp48
Vconj_and
p49
aVcaffeinated
p50
aVdecaffeinated
p51
aa(lp52
Vdobj
p53
aVdecaffeinated
p54
aVtea
p55
aasVwords
p56
(lp57
(lp58
VLacey
p59
a(dp60
VNamedEntityTag
p61
VPERSON
p62
sVCharacterOffsetEnd
p63
V6
p64
sVCharacterOffsetBegin
p65
V1
p66
sVPartOfSpeech
p67
VNNP
p68
sVLemma
p69
VLacey
p70
saa(lp71
V's
p72
a(dp73
VNamedEntityTag
p74
VO
p75
sVCharacterOffsetEnd
p76
V8
p77
sVCharacterOffsetBegin
p78
g64
sVPartOfSpeech
p79
VPOS
p80
sVLemma
p81
V's
p82
saa(lp83
VTea
p84
a(dp85
VNamedEntityTag
p86
g75
sVCharacterOffsetEnd
p87
V12
p88
sVCharacterOffsetBegin
p89
V9
p90
sVPartOfSpeech
p91
VNNP
p92
sVLemma
p93
VTea
p94
saa(lp95
VShop
p96
a(dp97
VNamedEntityTag
p98
g75
sVCharacterOffsetEnd
p99
V17
p100
sVCharacterOffsetBegin
p101
V13
p102
sVPartOfSpeech
p103
VNNP
p104
sVLemma
p105
VShop
p106
saa(lp107
Vhas
p108
a(dp109
VNamedEntityTag
p110
g75
sVCharacterOffsetEnd
p111
V21
p112
sVCharacterOffsetBegin
p113
V18
p114
sVPartOfSpeech
p115
VVBZ
p116
sVLemma
p117
Vhave
p118
saa(lp119
Vcaffeinated
p120
a(dp121
VNamedEntityTag
p122
g75
sVCharacterOffsetEnd
p123
V33
p124
sVCharacterOffsetBegin
p125
V22
p126
sVPartOfSpeech
p127
VVBN
p128
sVLemma
p129
Vcaffeinate
p130
saa(lp131
Vtea
p132
a(dp133
VNamedEntityTag
p134
g75
sVCharacterOffsetEnd
p135
V37
p136
sVCharacterOffsetBegin
p137
V34
p138
sVPartOfSpeech
p139
VNN
p140
sVLemma
p141
Vtea
p142
saa(lp143
Vand
p144
a(dp145
VNamedEntityTag
p146
g75
sVCharacterOffsetEnd
p147
V41
p148
sVCharacterOffsetBegin
p149
V38
p150
sVPartOfSpeech
p151
VCC
p152
sVLemma
p153
Vand
p154
saa(lp155
Vdecaffeinated
p156
a(dp157
VNamedEntityTag
p158
g75
sVCharacterOffsetEnd
p159
V55
p160
sVCharacterOffsetBegin
p161
V42
p162
sVPartOfSpeech
p163
VVBN
p164
sVLemma
p165
Vdecaffeinate
p166
saa(lp167
Vtea
p168
a(dp169
VNamedEntityTag
p170
g75
sVCharacterOffsetEnd
p171
V59
p172
sVCharacterOffsetBegin
p173
V56
p174
sVPartOfSpeech
p175
VNN
p176
sVLemma
p177
Vtea
p178
saa(lp179
V.
p180
a(dp181
VNamedEntityTag
p182
g75
sVCharacterOffsetEnd
p183
V61
p184
sVCharacterOffsetBegin
p185
V60
p186
sVPartOfSpeech
p187
g180
sVLemma
p188
g180
saasVindexeddependencies
p189
(lp190
(lp191
Vroot
p192
aVROOT-0
p193
aVcaffeinated-6
p194
aa(lp195
Vposs
p196
aVShop-4
p197
aVLacey-1
p198
aa(lp199
Vnn
p200
aVShop-4
p201
aVTea-3
p202
aa(lp203
Vnsubj
p204
aVcaffeinated-6
p205
aVShop-4
p206
aa(lp207
Vaux
p208
aVcaffeinated-6
p209
aVhas-5
p210
aa(lp211
Vdobj
p212
aVcaffeinated-6
p213
aVtea-7
p214
aa(lp215
Vconj_and
p216
aVcaffeinated-6
p217
aVdecaffeinated-9
p218
aa(lp219
Vdobj
p220
aVdecaffeinated-9
p221
aVtea-10
p222
aasa(dp223
Vparsetree
p224
V(ROOT (S (NP (DT The) (NN tea) (NN shop)) (VP (VBD served) (NP (NP (CD 10) (NNS teas)) (PP (IN in) (NP (NP (DT all)) (, ,) (SBAR (WHNP (NP (CD 3)) (WHPP (IN of) (WHNP (WDT which)))) (S (VP (VBD were) (VP (VBN caffeinated))))))))) (. .)))
p225
sVtext
p226
VThe tea shop served 10 teas in all , 3 of which were caffeinated .
p227
sVdependencies
p228
(lp229
(lp230
Vroot
p231
aVROOT
p232
aVserved
p233
aa(lp234
Vdet
p235
aVshop
p236
aVThe
p237
aa(lp238
Vnn
p239
aVshop
p240
aVtea
p241
aa(lp242
Vnsubj
p243
aVserved
p244
aVshop
p245
aa(lp246
Vnum
p247
aVteas
p248
aV10
p249
aa(lp250
Vdobj
p251
aVserved
p252
aVteas
p253
aa(lp254
Vprep_in
p255
aVteas
p256
aVall
p257
aa(lp258
Vnsubjpass
p259
aVcaffeinated
p260
aV3
p261
aa(lp262
Vprep_of
p263
ag261
aVwhich
p264
aa(lp265
Vauxpass
p266
aVcaffeinated
p267
aVwere
p268
aa(lp269
Vrcmod
p270
aVall
p271
aVcaffeinated
p272
aasVwords
p273
(lp274
(lp275
VThe
p276
a(dp277
VNamedEntityTag
p278
g75
sVCharacterOffsetEnd
p279
V65
p280
sVCharacterOffsetBegin
p281
V62
p282
sVPartOfSpeech
p283
VDT
p284
sVLemma
p285
Vthe
p286
saa(lp287
Vtea
p288
a(dp289
VNamedEntityTag
p290
g75
sVCharacterOffsetEnd
p291
V69
p292
sVCharacterOffsetBegin
p293
V66
p294
sVPartOfSpeech
p295
VNN
p296
sVLemma
p297
Vtea
p298
saa(lp299
Vshop
p300
a(dp301
VNamedEntityTag
p302
g75
sVCharacterOffsetEnd
p303
V74
p304
sVCharacterOffsetBegin
p305
V70
p306
sVPartOfSpeech
p307
VNN
p308
sVLemma
p309
Vshop
p310
saa(lp311
Vserved
p312
a(dp313
VNamedEntityTag
p314
g75
sVCharacterOffsetEnd
p315
V81
p316
sVCharacterOffsetBegin
p317
V75
p318
sVPartOfSpeech
p319
VVBD
p320
sVLemma
p321
Vserve
p322
saa(lp323
V10
p324
a(dp325
VNormalizedNamedEntityTag
p326
V10.0
p327
sVLemma
p328
V10
p329
sVCharacterOffsetEnd
p330
V84
p331
sVPartOfSpeech
p332
VCD
p333
sVCharacterOffsetBegin
p334
V82
p335
sVNamedEntityTag
p336
VNUMBER
p337
saa(lp338
Vteas
p339
a(dp340
VNamedEntityTag
p341
g75
sVCharacterOffsetEnd
p342
V89
p343
sVCharacterOffsetBegin
p344
V85
p345
sVPartOfSpeech
p346
VNNS
p347
sVLemma
p348
Vtea
p349
saa(lp350
Vin
p351
a(dp352
VNamedEntityTag
p353
g75
sVCharacterOffsetEnd
p354
V92
p355
sVCharacterOffsetBegin
p356
V90
p357
sVPartOfSpeech
p358
VIN
p359
sVLemma
p360
Vin
p361
saa(lp362
Vall
p363
a(dp364
VNamedEntityTag
p365
g75
sVCharacterOffsetEnd
p366
V96
p367
sVCharacterOffsetBegin
p368
V93
p369
sVPartOfSpeech
p370
VDT
p371
sVLemma
p372
Vall
p373
saa(lp374
V,
p375
a(dp376
VNamedEntityTag
p377
g75
sVCharacterOffsetEnd
p378
V98
p379
sVCharacterOffsetBegin
p380
V97
p381
sVPartOfSpeech
p382
g375
sVLemma
p383
g375
saa(lp384
g261
a(dp385
VNormalizedNamedEntityTag
p386
V3.0
p387
sVLemma
p388
g261
sVCharacterOffsetEnd
p389
V100
p390
sVPartOfSpeech
p391
VCD
p392
sVCharacterOffsetBegin
p393
V99
p394
sVNamedEntityTag
p395
VNUMBER
p396
saa(lp397
Vof
p398
a(dp399
VNamedEntityTag
p400
g75
sVCharacterOffsetEnd
p401
V103
p402
sVCharacterOffsetBegin
p403
V101
p404
sVPartOfSpeech
p405
VIN
p406
sVLemma
p407
Vof
p408
saa(lp409
Vwhich
p410
a(dp411
VNamedEntityTag
p412
g75
sVCharacterOffsetEnd
p413
V109
p414
sVCharacterOffsetBegin
p415
V104
p416
sVPartOfSpeech
p417
VWDT
p418
sVLemma
p419
Vwhich
p420
saa(lp421
Vwere
p422
a(dp423
VNamedEntityTag
p424
g75
sVCharacterOffsetEnd
p425
V114
p426
sVCharacterOffsetBegin
p427
V110
p428
sVPartOfSpeech
p429
VVBD
p430
sVLemma
p431
Vbe
p432
saa(lp433
Vcaffeinated
p434
a(dp435
VNamedEntityTag
p436
g75
sVCharacterOffsetEnd
p437
V126
p438
sVCharacterOffsetBegin
p439
V115
p440
sVPartOfSpeech
p441
VVBN
p442
sVLemma
p443
Vcaffeinate
p444
saa(lp445
g180
a(dp446
VNamedEntityTag
p447
g75
sVCharacterOffsetEnd
p448
V128
p449
sVCharacterOffsetBegin
p450
V127
p451
sVPartOfSpeech
p452
g180
sVLemma
p453
g180
saasVindexeddependencies
p454
(lp455
(lp456
Vroot
p457
aVROOT-0
p458
aVserved-4
p459
aa(lp460
Vdet
p461
aVshop-3
p462
aVThe-1
p463
aa(lp464
Vnn
p465
aVshop-3
p466
aVtea-2
p467
aa(lp468
Vnsubj
p469
aVserved-4
p470
aVshop-3
p471
aa(lp472
Vnum
p473
aVteas-6
p474
aV10-5
p475
aa(lp476
Vdobj
p477
aVserved-4
p478
aVteas-6
p479
aa(lp480
Vprep_in
p481
aVteas-6
p482
aVall-8
p483
aa(lp484
Vnsubjpass
p485
aVcaffeinated-14
p486
aV3-10
p487
aa(lp488
Vprep_of
p489
aV3-10
p490
aVwhich-12
p491
aa(lp492
Vauxpass
p493
aVcaffeinated-14
p494
aVwere-13
p495
aa(lp496
Vrcmod
p497
aVall-8
p498
aVcaffeinated-14
p499
aasa(dp500
Vparsetree
p501
V(ROOT (SBARQ (WHNP (WHNP (WDT What) (NN percentage)) (PP (IN of) (NP (DT the) (NNS teas)))) (SQ (VBD were) (VP (VBN caffeinated))) (. ?)))
p502
sVtext
p503
VWhat percentage of the teas were caffeinated ?
p504
sVdependencies
p505
(lp506
(lp507
Vroot
p508
aVROOT
p509
aVcaffeinated
p510
aa(lp511
Vdet
p512
aVpercentage
p513
aVWhat
p514
aa(lp515
Vnsubjpass
p516
aVcaffeinated
p517
aVpercentage
p518
aa(lp519
Vdet
p520
aVteas
p521
aVthe
p522
aa(lp523
Vprep_of
p524
aVpercentage
p525
aVteas
p526
aa(lp527
Vauxpass
p528
aVcaffeinated
p529
aVwere
p530
aasVwords
p531
(lp532
(lp533
VWhat
p534
a(dp535
VNamedEntityTag
p536
g75
sVCharacterOffsetEnd
p537
V133
p538
sVCharacterOffsetBegin
p539
V129
p540
sVPartOfSpeech
p541
VWDT
p542
sVLemma
p543
Vwhat
p544
saa(lp545
Vpercentage
p546
a(dp547
VNamedEntityTag
p548
g75
sVCharacterOffsetEnd
p549
V144
p550
sVCharacterOffsetBegin
p551
V134
p552
sVPartOfSpeech
p553
VNN
p554
sVLemma
p555
Vpercentage
p556
saa(lp557
Vof
p558
a(dp559
VNamedEntityTag
p560
g75
sVCharacterOffsetEnd
p561
V147
p562
sVCharacterOffsetBegin
p563
V145
p564
sVPartOfSpeech
p565
VIN
p566
sVLemma
p567
Vof
p568
saa(lp569
Vthe
p570
a(dp571
VNamedEntityTag
p572
g75
sVCharacterOffsetEnd
p573
V151
p574
sVCharacterOffsetBegin
p575
V148
p576
sVPartOfSpeech
p577
VDT
p578
sVLemma
p579
Vthe
p580
saa(lp581
Vteas
p582
a(dp583
VNamedEntityTag
p584
g75
sVCharacterOffsetEnd
p585
V156
p586
sVCharacterOffsetBegin
p587
V152
p588
sVPartOfSpeech
p589
VNNS
p590
sVLemma
p591
Vtea
p592
saa(lp593
Vwere
p594
a(dp595
VNamedEntityTag
p596
g75
sVCharacterOffsetEnd
p597
V161
p598
sVCharacterOffsetBegin
p599
V157
p600
sVPartOfSpeech
p601
VVBD
p602
sVLemma
p603
Vbe
p604
saa(lp605
Vcaffeinated
p606
a(dp607
VNamedEntityTag
p608
g75
sVCharacterOffsetEnd
p609
V173
p610
sVCharacterOffsetBegin
p611
V162
p612
sVPartOfSpeech
p613
VVBN
p614
sVLemma
p615
Vcaffeinate
p616
saa(lp617
V?
p618
a(dp619
VNamedEntityTag
p620
g75
sVCharacterOffsetEnd
p621
V175
p622
sVCharacterOffsetBegin
p623
V174
p624
sVPartOfSpeech
p625
g180
sVLemma
p626
g618
saasVindexeddependencies
p627
(lp628
(lp629
Vroot
p630
aVROOT-0
p631
aVcaffeinated-7
p632
aa(lp633
Vdet
p634
aVpercentage-2
p635
aVWhat-1
p636
aa(lp637
Vnsubjpass
p638
aVcaffeinated-7
p639
aVpercentage-2
p640
aa(lp641
Vdet
p642
aVteas-5
p643
aVthe-4
p644
aa(lp645
Vprep_of
p646
aVpercentage-2
p647
aVteas-5
p648
aa(lp649
Vauxpass
p650
aVcaffeinated-7
p651
aVwere-6
p652
aasas.