(dp0
Vcoref
p1
(lp2
(lp3
(lp4
(lp5
Vthe flowers
p6
aI1
aI18
aI17
aI19
aa(lp7
V5 flowers
p8
aI0
aI5
aI4
aI6
aaaasVsentences
p9
(lp10
(dp11
Vparsetree
p12
V(ROOT (S (NP (DT A) (NN vase)) (VP (MD can) (VP (VB hold) (NP (CD 5) (NNS flowers)))) (. .)))
p13
sVtext
p14
VA vase can hold 5 flowers .
p15
sVdependencies
p16
(lp17
(lp18
Vroot
p19
aVROOT
p20
aVhold
p21
aa(lp22
Vdet
p23
aVvase
p24
aVA
p25
aa(lp26
Vnsubj
p27
aVhold
p28
aVvase
p29
aa(lp30
Vaux
p31
aVhold
p32
aVcan
p33
aa(lp34
Vnum
p35
aVflowers
p36
aV5
p37
aa(lp38
Vdobj
p39
aVhold
p40
aVflowers
p41
aasVwords
p42
(lp43
(lp44
g25
a(dp45
VNamedEntityTag
p46
VO
p47
sVCharacterOffsetEnd
p48
V2
p49
sVCharacterOffsetBegin
p50
V1
p51
sVPartOfSpeech
p52
VDT
p53
sVLemma
p54
Va
p55
saa(lp56
Vvase
p57
a(dp58
VNamedEntityTag
p59
g47
sVCharacterOffsetEnd
p60
V7
p61
sVCharacterOffsetBegin
p62
V3
p63
sVPartOfSpeech
p64
VNN
p65
sVLemma
p66
Vvase
p67
saa(lp68
Vcan
p69
a(dp70
VNamedEntityTag
p71
g47
sVCharacterOffsetEnd
p72
V11
p73
sVCharacterOffsetBegin
p74
V8
p75
sVPartOfSpeech
p76
VMD
p77
sVLemma
p78
Vcan
p79
saa(lp80
Vhold
p81
a(dp82
VNamedEntityTag
p83
g47
sVCharacterOffsetEnd
p84
V16
p85
sVCharacterOffsetBegin
p86
V12
p87
sVPartOfSpeech
p88
VVB
p89
sVLemma
p90
Vhold
p91
saa(lp92
g37
a(dp93
VNormalizedNamedEntityTag
p94
V5.0
p95
sVLemma
p96
g37
sVCharacterOffsetEnd
p97
V18
p98
sVPartOfSpeech
p99
VCD
p100
sVCharacterOffsetBegin
p101
V17
p102
sVNamedEntityTag
p103
VNUMBER
p104
saa(lp105
Vflowers
p106
a(dp107
VNamedEntityTag
p108
g47
sVCharacterOffsetEnd
p109
V26
p110
sVCharacterOffsetBegin
p111
V19
p112
sVPartOfSpeech
p113
VNNS
p114
sVLemma
p115
Vflower
p116
saa(lp117
V.
p118
a(dp119
VNamedEntityTag
p120
g47
sVCharacterOffsetEnd
p121
V28
p122
sVCharacterOffsetBegin
p123
V27
p124
sVPartOfSpeech
p125
g118
sVLemma
p126
g118
saasVindexeddependencies
p127
(lp128
(lp129
Vroot
p130
aVROOT-0
p131
aVhold-4
p132
aa(lp133
Vdet
p134
aVvase-2
p135
aVA-1
p136
aa(lp137
Vnsubj
p138
aVhold-4
p139
aVvase-2
p140
aa(lp141
Vaux
p142
aVhold-4
p143
aVcan-3
p144
aa(lp145
Vnum
p146
aVflowers-6
p147
aV5-5
p148
aa(lp149
Vdobj
p150
aVhold-4
p151
aVflowers-6
p152
aasa(dp153
Vparsetree
p154
V(ROOT (SBARQ (SBAR (IN If) (S (NP (PRP you)) (VP (VBD had) (NP (NP (CD 6) (NNS carnations)) (CC and) (NP (CD 19) (NNS roses)))))) (, ,) (WHNP (WHADJP (WRB how) (JJ many)) (NNS vases)) (SQ (MD would) (NP (PRP you)) (VP (VB need) (S (VP (TO to) (VP (VB hold) (NP (DT the) (NNS flowers))))))) (. ?)))
p155
sVtext
p156
VIf you had 6 carnations and 19 roses , how many vases would you need to hold the flowers ?
p157
sVdependencies
p158
(lp159
(lp160
Vroot
p161
aVROOT
p162
aVneed
p163
aa(lp164
Vmark
p165
aVhad
p166
aVIf
p167
aa(lp168
Vnsubj
p169
aVhad
p170
aVyou
p171
aa(lp172
Vadvcl
p173
aVneed
p174
aVhad
p175
aa(lp176
Vnum
p177
aVcarnations
p178
aV6
p179
aa(lp180
Vdobj
p181
aVhad
p182
aVcarnations
p183
aa(lp184
Vnum
p185
aVroses
p186
aV19
p187
aa(lp188
Vconj_and
p189
aVcarnations
p190
aVroses
p191
aa(lp192
Vadvmod
p193
aVmany
p194
aVhow
p195
aa(lp196
Vamod
p197
aVvases
p198
aVmany
p199
aa(lp200
Vdep
p201
aVneed
p202
aVvases
p203
aa(lp204
Vaux
p205
aVneed
p206
aVwould
p207
aa(lp208
Vnsubj
p209
aVneed
p210
aVyou
p211
aa(lp212
Vaux
p213
aVhold
p214
aVto
p215
aa(lp216
Vxcomp
p217
aVneed
p218
aVhold
p219
aa(lp220
Vdet
p221
aVflowers
p222
aVthe
p223
aa(lp224
Vdobj
p225
aVhold
p226
aVflowers
p227
aasVwords
p228
(lp229
(lp230
VIf
p231
a(dp232
VNamedEntityTag
p233
g47
sVCharacterOffsetEnd
p234
V31
p235
sVCharacterOffsetBegin
p236
V29
p237
sVPartOfSpeech
p238
VIN
p239
sVLemma
p240
Vif
p241
saa(lp242
Vyou
p243
a(dp244
VNamedEntityTag
p245
g47
sVCharacterOffsetEnd
p246
V35
p247
sVCharacterOffsetBegin
p248
V32
p249
sVPartOfSpeech
p250
VPRP
p251
sVLemma
p252
Vyou
p253
saa(lp254
Vhad
p255
a(dp256
VNamedEntityTag
p257
g47
sVCharacterOffsetEnd
p258
V39
p259
sVCharacterOffsetBegin
p260
V36
p261
sVPartOfSpeech
p262
VVBD
p263
sVLemma
p264
Vhave
p265
saa(lp266
g179
a(dp267
VNormalizedNamedEntityTag
p268
V6.0
p269
sVLemma
p270
g179
sVCharacterOffsetEnd
p271
V41
p272
sVPartOfSpeech
p273
VCD
p274
sVCharacterOffsetBegin
p275
V40
p276
sVNamedEntityTag
p277
VNUMBER
p278
saa(lp279
Vcarnations
p280
a(dp281
VNamedEntityTag
p282
g47
sVCharacterOffsetEnd
p283
V52
p284
sVCharacterOffsetBegin
p285
V42
p286
sVPartOfSpeech
p287
VNNS
p288
sVLemma
p289
Vcarnation
p290
saa(lp291
Vand
p292
a(dp293
VNamedEntityTag
p294
g47
sVCharacterOffsetEnd
p295
V56
p296
sVCharacterOffsetBegin
p297
V53
p298
sVPartOfSpeech
p299
VCC
p300
sVLemma
p301
Vand
p302
saa(lp303
V19
p304
a(dp305
VNormalizedNamedEntityTag
p306
V19.0
p307
sVLemma
p308
V19
p309
sVCharacterOffsetEnd
p310
V59
p311
sVPartOfSpeech
p312
VCD
p313
sVCharacterOffsetBegin
p314
V57
p315
sVNamedEntityTag
p316
VNUMBER
p317
saa(lp318
Vroses
p319
a(dp320
VNamedEntityTag
p321
g47
sVCharacterOffsetEnd
p322
V65
p323
sVCharacterOffsetBegin
p324
V60
p325
sVPartOfSpeech
p326
VNNS
p327
sVLemma
p328
Vrose
p329
saa(lp330
V,
p331
a(dp332
VNamedEntityTag
p333
g47
sVCharacterOffsetEnd
p334
V67
p335
sVCharacterOffsetBegin
p336
V66
p337
sVPartOfSpeech
p338
g331
sVLemma
p339
g331
saa(lp340
Vhow
p341
a(dp342
VNamedEntityTag
p343
g47
sVCharacterOffsetEnd
p344
V71
p345
sVCharacterOffsetBegin
p346
V68
p347
sVPartOfSpeech
p348
VWRB
p349
sVLemma
p350
Vhow
p351
saa(lp352
Vmany
p353
a(dp354
VNamedEntityTag
p355
g47
sVCharacterOffsetEnd
p356
V76
p357
sVCharacterOffsetBegin
p358
V72
p359
sVPartOfSpeech
p360
VJJ
p361
sVLemma
p362
Vmany
p363
saa(lp364
Vvases
p365
a(dp366
VNamedEntityTag
p367
g47
sVCharacterOffsetEnd
p368
V82
p369
sVCharacterOffsetBegin
p370
V77
p371
sVPartOfSpeech
p372
VNNS
p373
sVLemma
p374
Vvase
p375
saa(lp376
Vwould
p377
a(dp378
VNamedEntityTag
p379
g47
sVCharacterOffsetEnd
p380
V88
p381
sVCharacterOffsetBegin
p382
V83
p383
sVPartOfSpeech
p384
VMD
p385
sVLemma
p386
Vwould
p387
saa(lp388
Vyou
p389
a(dp390
VNamedEntityTag
p391
g47
sVCharacterOffsetEnd
p392
V92
p393
sVCharacterOffsetBegin
p394
V89
p395
sVPartOfSpeech
p396
VPRP
p397
sVLemma
p398
Vyou
p399
saa(lp400
Vneed
p401
a(dp402
VNamedEntityTag
p403
g47
sVCharacterOffsetEnd
p404
V97
p405
sVCharacterOffsetBegin
p406
V93
p407
sVPartOfSpeech
p408
VVB
p409
sVLemma
p410
Vneed
p411
saa(lp412
Vto
p413
a(dp414
VNamedEntityTag
p415
g47
sVCharacterOffsetEnd
p416
V100
p417
sVCharacterOffsetBegin
p418
V98
p419
sVPartOfSpeech
p420
VTO
p421
sVLemma
p422
Vto
p423
saa(lp424
Vhold
p425
a(dp426
VNamedEntityTag
p427
g47
sVCharacterOffsetEnd
p428
V105
p429
sVCharacterOffsetBegin
p430
V101
p431
sVPartOfSpeech
p432
VVB
p433
sVLemma
p434
Vhold
p435
saa(lp436
Vthe
p437
a(dp438
VNamedEntityTag
p439
g47
sVCharacterOffsetEnd
p440
V109
p441
sVCharacterOffsetBegin
p442
V106
p443
sVPartOfSpeech
p444
VDT
p445
sVLemma
p446
Vthe
p447
saa(lp448
Vflowers
p449
a(dp450
VNamedEntityTag
p451
g47
sVCharacterOffsetEnd
p452
V117
p453
sVCharacterOffsetBegin
p454
V110
p455
sVPartOfSpeech
p456
VNNS
p457
sVLemma
p458
Vflower
p459
saa(lp460
V?
p461
a(dp462
VNamedEntityTag
p463
g47
sVCharacterOffsetEnd
p464
V119
p465
sVCharacterOffsetBegin
p466
V118
p467
sVPartOfSpeech
p468
g118
sVLemma
p469
g461
saasVindexeddependencies
p470
(lp471
(lp472
Vroot
p473
aVROOT-0
p474
aVneed-15
p475
aa(lp476
Vmark
p477
aVhad-3
p478
aVIf-1
p479
aa(lp480
Vnsubj
p481
aVhad-3
p482
aVyou-2
p483
aa(lp484
Vadvcl
p485
aVneed-15
p486
aVhad-3
p487
aa(lp488
Vnum
p489
aVcarnations-5
p490
aV6-4
p491
aa(lp492
Vdobj
p493
aVhad-3
p494
aVcarnations-5
p495
aa(lp496
Vnum
p497
aVroses-8
p498
aV19-7
p499
aa(lp500
Vconj_and
p501
aVcarnations-5
p502
aVroses-8
p503
aa(lp504
Vadvmod
p505
aVmany-11
p506
aVhow-10
p507
aa(lp508
Vamod
p509
aVvases-12
p510
aVmany-11
p511
aa(lp512
Vdep
p513
aVneed-15
p514
aVvases-12
p515
aa(lp516
Vaux
p517
aVneed-15
p518
aVwould-13
p519
aa(lp520
Vnsubj
p521
aVneed-15
p522
aVyou-14
p523
aa(lp524
Vaux
p525
aVhold-17
p526
aVto-16
p527
aa(lp528
Vxcomp
p529
aVneed-15
p530
aVhold-17
p531
aa(lp532
Vdet
p533
aVflowers-19
p534
aVthe-18
p535
aa(lp536
Vdobj
p537
aVhold-17
p538
aVflowers-19
p539
aasas.