(dp0
Vcoref
p1
(lp2
(lp3
(lp4
(lp5
Vthem
p6
aI1
aI4
aI4
aI5
aa(lp7
VThere school 's baseball team had 12 new players and 44 returning players .
p8
aI0
aI0
aI0
aI14
aaaa(lp9
(lp10
(lp11
Vgroups
p12
aI1
aI16
aI16
aI17
aa(lp13
Vgroups
p14
aI1
aI6
aI6
aI7
aaaasVsentences
p15
(lp16
(dp17
Vparsetree
p18
V(ROOT (NP (NP (EX There)) (SBAR (S (NP (NP (NN school) (POS 's)) (NN baseball) (NN team)) (VP (VBD had) (NP (NP (CD 12) (JJ new) (NNS players)) (CC and) (NP (CD 44) (VBG returning) (NNS players)))))) (. .)))
p19
sVtext
p20
VThere school's baseball team had 12 new players and 44 returning players .
p21
sVdependencies
p22
(lp23
(lp24
Vroot
p25
aVROOT
p26
aVThere
p27
aa(lp28
Vposs
p29
aVteam
p30
aVschool
p31
aa(lp32
Vnn
p33
aVteam
p34
aVbaseball
p35
aa(lp36
Vnsubj
p37
aVhad
p38
aVteam
p39
aa(lp40
Vrcmod
p41
aVThere
p42
aVhad
p43
aa(lp44
Vnum
p45
aVplayers
p46
aV12
p47
aa(lp48
Vamod
p49
aVplayers
p50
aVnew
p51
aa(lp52
Vdobj
p53
aVhad
p54
aVplayers
p55
aa(lp56
Vnum
p57
aVplayers
p58
aV44
p59
aa(lp60
Vamod
p61
aVplayers
p62
aVreturning
p63
aa(lp64
Vconj_and
p65
aVplayers
p66
aVplayers
p67
aasVwords
p68
(lp69
(lp70
VThere
p71
a(dp72
VNamedEntityTag
p73
VO
p74
sVCharacterOffsetEnd
p75
V6
p76
sVCharacterOffsetBegin
p77
V1
p78
sVPartOfSpeech
p79
VEX
p80
sVLemma
p81
Vthere
p82
saa(lp83
Vschool
p84
a(dp85
VNamedEntityTag
p86
g74
sVCharacterOffsetEnd
p87
V13
p88
sVCharacterOffsetBegin
p89
V7
p90
sVPartOfSpeech
p91
VNN
p92
sVLemma
p93
Vschool
p94
saa(lp95
V's
p96
a(dp97
VNamedEntityTag
p98
g74
sVCharacterOffsetEnd
p99
V15
p100
sVCharacterOffsetBegin
p101
V13
p102
sVPartOfSpeech
p103
VPOS
p104
sVLemma
p105
V's
p106
saa(lp107
Vbaseball
p108
a(dp109
VNamedEntityTag
p110
g74
sVCharacterOffsetEnd
p111
V24
p112
sVCharacterOffsetBegin
p113
V16
p114
sVPartOfSpeech
p115
VNN
p116
sVLemma
p117
Vbaseball
p118
saa(lp119
Vteam
p120
a(dp121
VNamedEntityTag
p122
g74
sVCharacterOffsetEnd
p123
V29
p124
sVCharacterOffsetBegin
p125
V25
p126
sVPartOfSpeech
p127
VNN
p128
sVLemma
p129
Vteam
p130
saa(lp131
Vhad
p132
a(dp133
VNamedEntityTag
p134
g74
sVCharacterOffsetEnd
p135
V33
p136
sVCharacterOffsetBegin
p137
V30
p138
sVPartOfSpeech
p139
VVBD
p140
sVLemma
p141
Vhave
p142
saa(lp143
V12
p144
a(dp145
VNormalizedNamedEntityTag
p146
V12.0
p147
sVLemma
p148
V12
p149
sVCharacterOffsetEnd
p150
V36
p151
sVPartOfSpeech
p152
VCD
p153
sVCharacterOffsetBegin
p154
V34
p155
sVNamedEntityTag
p156
VNUMBER
p157
saa(lp158
Vnew
p159
a(dp160
VNamedEntityTag
p161
g74
sVCharacterOffsetEnd
p162
V40
p163
sVCharacterOffsetBegin
p164
V37
p165
sVPartOfSpeech
p166
VJJ
p167
sVLemma
p168
Vnew
p169
saa(lp170
Vplayers
p171
a(dp172
VNamedEntityTag
p173
g74
sVCharacterOffsetEnd
p174
V48
p175
sVCharacterOffsetBegin
p176
V41
p177
sVPartOfSpeech
p178
VNNS
p179
sVLemma
p180
Vplayer
p181
saa(lp182
Vand
p183
a(dp184
VNamedEntityTag
p185
g74
sVCharacterOffsetEnd
p186
V52
p187
sVCharacterOffsetBegin
p188
V49
p189
sVPartOfSpeech
p190
VCC
p191
sVLemma
p192
Vand
p193
saa(lp194
V44
p195
a(dp196
VNormalizedNamedEntityTag
p197
V44.0
p198
sVLemma
p199
V44
p200
sVCharacterOffsetEnd
p201
V55
p202
sVPartOfSpeech
p203
VCD
p204
sVCharacterOffsetBegin
p205
V53
p206
sVNamedEntityTag
p207
VNUMBER
p208
saa(lp209
Vreturning
p210
a(dp211
VNamedEntityTag
p212
g74
sVCharacterOffsetEnd
p213
V65
p214
sVCharacterOffsetBegin
p215
V56
p216
sVPartOfSpeech
p217
VVBG
p218
sVLemma
p219
Vreturn
p220
saa(lp221
Vplayers
p222
a(dp223
VNamedEntityTag
p224
g74
sVCharacterOffsetEnd
p225
V73
p226
sVCharacterOffsetBegin
p227
V66
p228
sVPartOfSpeech
p229
VNNS
p230
sVLemma
p231
Vplayer
p232
saa(lp233
V.
p234
a(dp235
VNamedEntityTag
p236
g74
sVCharacterOffsetEnd
p237
V75
p238
sVCharacterOffsetBegin
p239
V74
p240
sVPartOfSpeech
p241
g234
sVLemma
p242
g234
saasVindexeddependencies
p243
(lp244
(lp245
Vroot
p246
aVROOT-0
p247
aVThere-1
p248
aa(lp249
Vposs
p250
aVteam-5
p251
aVschool-2
p252
aa(lp253
Vnn
p254
aVteam-5
p255
aVbaseball-4
p256
aa(lp257
Vnsubj
p258
aVhad-6
p259
aVteam-5
p260
aa(lp261
Vrcmod
p262
aVThere-1
p263
aVhad-6
p264
aa(lp265
Vnum
p266
aVplayers-9
p267
aV12-7
p268
aa(lp269
Vamod
p270
aVplayers-9
p271
aVnew-8
p272
aa(lp273
Vdobj
p274
aVhad-6
p275
aVplayers-9
p276
aa(lp277
Vnum
p278
aVplayers-13
p279
aV44-11
p280
aa(lp281
Vamod
p282
aVplayers-13
p283
aVreturning-12
p284
aa(lp285
Vconj_and
p286
aVplayers-9
p287
aVplayers-13
p288
aasa(dp289
Vparsetree
p290
V(ROOT (FRAG (SBAR (IN If) (S (NP (DT the) (NN coach)) (VP (VBD put) (NP (PRP them)) (PP (IN into) (NP (NNS groups))) (PP (IN with) (NP (NP (CD 8) (NNS players)) (PP (IN in) (NP (DT each) (NN group))))) (, ,) (SBAR (WHADJP (WRB how) (JJ many)) (S (NP (NNS groups)) (VP (MD would) (ADVP (RB there)) (VP (VB be)))))))) (. ?)))
p291
sVtext
p292
VIf the coach put them into groups with 8 players in each group , how many groups would there be ?
p293
sVdependencies
p294
(lp295
(lp296
Vroot
p297
aVROOT
p298
aVput
p299
aa(lp300
Vmark
p301
aVput
p302
aVIf
p303
aa(lp304
Vdet
p305
aVcoach
p306
aVthe
p307
aa(lp308
Vnsubj
p309
aVput
p310
aVcoach
p311
aa(lp312
Vdobj
p313
aVput
p314
aVthem
p315
aa(lp316
Vprep_into
p317
aVput
p318
aVgroups
p319
aa(lp320
Vnum
p321
aVplayers
p322
aV8
p323
aa(lp324
Vprep_with
p325
aVput
p326
aVplayers
p327
aa(lp328
Vdet
p329
aVgroup
p330
aVeach
p331
aa(lp332
Vprep_in
p333
aVplayers
p334
aVgroup
p335
aa(lp336
Vadvmod
p337
aVmany
p338
aVhow
p339
aa(lp340
Vdep
p341
aVbe
p342
aVmany
p343
aa(lp344
Vnsubj
p345
aVbe
p346
aVgroups
p347
aa(lp348
Vaux
p349
aVbe
p350
aVwould
p351
aa(lp352
Vadvmod
p353
aVbe
p354
aVthere
p355
aa(lp356
Vdep
p357
aVput
p358
aVbe
p359
aasVwords
p360
(lp361
(lp362
VIf
p363
a(dp364
VNamedEntityTag
p365
g74
sVCharacterOffsetEnd
p366
V78
p367
sVCharacterOffsetBegin
p368
V76
p369
sVPartOfSpeech
p370
VIN
p371
sVLemma
p372
Vif
p373
saa(lp374
Vthe
p375
a(dp376
VNamedEntityTag
p377
g74
sVCharacterOffsetEnd
p378
V82
p379
sVCharacterOffsetBegin
p380
V79
p381
sVPartOfSpeech
p382
VDT
p383
sVLemma
p384
Vthe
p385
saa(lp386
Vcoach
p387
a(dp388
VNamedEntityTag
p389
g74
sVCharacterOffsetEnd
p390
V88
p391
sVCharacterOffsetBegin
p392
V83
p393
sVPartOfSpeech
p394
VNN
p395
sVLemma
p396
Vcoach
p397
saa(lp398
Vput
p399
a(dp400
VNamedEntityTag
p401
g74
sVCharacterOffsetEnd
p402
V92
p403
sVCharacterOffsetBegin
p404
V89
p405
sVPartOfSpeech
p406
VVBD
p407
sVLemma
p408
Vput
p409
saa(lp410
Vthem
p411
a(dp412
VNamedEntityTag
p413
g74
sVCharacterOffsetEnd
p414
V97
p415
sVCharacterOffsetBegin
p416
V93
p417
sVPartOfSpeech
p418
VPRP
p419
sVLemma
p420
Vthey
p421
saa(lp422
Vinto
p423
a(dp424
VNamedEntityTag
p425
g74
sVCharacterOffsetEnd
p426
V102
p427
sVCharacterOffsetBegin
p428
V98
p429
sVPartOfSpeech
p430
VIN
p431
sVLemma
p432
Vinto
p433
saa(lp434
Vgroups
p435
a(dp436
VNamedEntityTag
p437
g74
sVCharacterOffsetEnd
p438
V109
p439
sVCharacterOffsetBegin
p440
V103
p441
sVPartOfSpeech
p442
VNNS
p443
sVLemma
p444
Vgroup
p445
saa(lp446
Vwith
p447
a(dp448
VNamedEntityTag
p449
g74
sVCharacterOffsetEnd
p450
V114
p451
sVCharacterOffsetBegin
p452
V110
p453
sVPartOfSpeech
p454
VIN
p455
sVLemma
p456
Vwith
p457
saa(lp458
g323
a(dp459
VNormalizedNamedEntityTag
p460
V8.0
p461
sVLemma
p462
g323
sVCharacterOffsetEnd
p463
V116
p464
sVPartOfSpeech
p465
VCD
p466
sVCharacterOffsetBegin
p467
V115
p468
sVNamedEntityTag
p469
VNUMBER
p470
saa(lp471
Vplayers
p472
a(dp473
VNamedEntityTag
p474
g74
sVCharacterOffsetEnd
p475
V124
p476
sVCharacterOffsetBegin
p477
V117
p478
sVPartOfSpeech
p479
VNNS
p480
sVLemma
p481
Vplayer
p482
saa(lp483
Vin
p484
a(dp485
VNamedEntityTag
p486
g74
sVCharacterOffsetEnd
p487
V127
p488
sVCharacterOffsetBegin
p489
V125
p490
sVPartOfSpeech
p491
VIN
p492
sVLemma
p493
Vin
p494
saa(lp495
Veach
p496
a(dp497
VNamedEntityTag
p498
g74
sVCharacterOffsetEnd
p499
V132
p500
sVCharacterOffsetBegin
p501
V128
p502
sVPartOfSpeech
p503
VDT
p504
sVLemma
p505
Veach
p506
saa(lp507
Vgroup
p508
a(dp509
VNamedEntityTag
p510
g74
sVCharacterOffsetEnd
p511
V138
p512
sVCharacterOffsetBegin
p513
V133
p514
sVPartOfSpeech
p515
VNN
p516
sVLemma
p517
Vgroup
p518
saa(lp519
V,
p520
a(dp521
VNamedEntityTag
p522
g74
sVCharacterOffsetEnd
p523
V140
p524
sVCharacterOffsetBegin
p525
V139
p526
sVPartOfSpeech
p527
g520
sVLemma
p528
g520
saa(lp529
Vhow
p530
a(dp531
VNamedEntityTag
p532
g74
sVCharacterOffsetEnd
p533
V144
p534
sVCharacterOffsetBegin
p535
V141
p536
sVPartOfSpeech
p537
VWRB
p538
sVLemma
p539
Vhow
p540
saa(lp541
Vmany
p542
a(dp543
VNamedEntityTag
p544
g74
sVCharacterOffsetEnd
p545
V149
p546
sVCharacterOffsetBegin
p547
V145
p548
sVPartOfSpeech
p549
VJJ
p550
sVLemma
p551
Vmany
p552
saa(lp553
Vgroups
p554
a(dp555
VNamedEntityTag
p556
g74
sVCharacterOffsetEnd
p557
V156
p558
sVCharacterOffsetBegin
p559
V150
p560
sVPartOfSpeech
p561
VNNS
p562
sVLemma
p563
Vgroup
p564
saa(lp565
Vwould
p566
a(dp567
VNamedEntityTag
p568
g74
sVCharacterOffsetEnd
p569
V162
p570
sVCharacterOffsetBegin
p571
V157
p572
sVPartOfSpeech
p573
VMD
p574
sVLemma
p575
Vwould
p576
saa(lp577
Vthere
p578
a(dp579
VNamedEntityTag
p580
g74
sVCharacterOffsetEnd
p581
V168
p582
sVCharacterOffsetBegin
p583
V163
p584
sVPartOfSpeech
p585
VRB
p586
sVLemma
p587
Vthere
p588
saa(lp589
Vbe
p590
a(dp591
VNamedEntityTag
p592
g74
sVCharacterOffsetEnd
p593
V171
p594
sVCharacterOffsetBegin
p595
V169
p596
sVPartOfSpeech
p597
VVB
p598
sVLemma
p599
Vbe
p600
saa(lp601
V?
p602
a(dp603
VNamedEntityTag
p604
g74
sVCharacterOffsetEnd
p605
V173
p606
sVCharacterOffsetBegin
p607
V172
p608
sVPartOfSpeech
p609
g234
sVLemma
p610
g602
saasVindexeddependencies
p611
(lp612
(lp613
Vroot
p614
aVROOT-0
p615
aVput-4
p616
aa(lp617
Vmark
p618
aVput-4
p619
aVIf-1
p620
aa(lp621
Vdet
p622
aVcoach-3
p623
aVthe-2
p624
aa(lp625
Vnsubj
p626
aVput-4
p627
aVcoach-3
p628
aa(lp629
Vdobj
p630
aVput-4
p631
aVthem-5
p632
aa(lp633
Vprep_into
p634
aVput-4
p635
aVgroups-7
p636
aa(lp637
Vnum
p638
aVplayers-10
p639
aV8-9
p640
aa(lp641
Vprep_with
p642
aVput-4
p643
aVplayers-10
p644
aa(lp645
Vdet
p646
aVgroup-13
p647
aVeach-12
p648
aa(lp649
Vprep_in
p650
aVplayers-10
p651
aVgroup-13
p652
aa(lp653
Vadvmod
p654
aVmany-16
p655
aVhow-15
p656
aa(lp657
Vdep
p658
aVbe-20
p659
aVmany-16
p660
aa(lp661
Vnsubj
p662
aVbe-20
p663
aVgroups-17
p664
aa(lp665
Vaux
p666
aVbe-20
p667
aVwould-18
p668
aa(lp669
Vadvmod
p670
aVbe-20
p671
aVthere-19
p672
aa(lp673
Vdep
p674
aVput-4
p675
aVbe-20
p676
aasas.