(dp0
Vcoref
p1
(lp2
(lp3
(lp4
(lp5
Vhe
p6
aI1
aI1
aI1
aI2
aa(lp7
VFrank
p8
aI0
aI0
aI0
aI1
aaa(lp9
(lp10
Vhis
p11
aI1
aI7
aI7
aI8
aa(lp12
VFrank
p13
aI0
aI0
aI0
aI1
aaa(lp14
(lp15
Vhe
p16
aI1
aI16
aI16
aI17
aa(lp17
VFrank
p18
aI0
aI0
aI0
aI1
aaaasVsentences
p19
(lp20
(dp21
Vparsetree
p22
V(ROOT (S (NP (NNP Frank)) (VP (VBD had) (VP (VBN saved) (PRT (RP up)) (NP (CD 3) (NNS dollars)))) (. .)))
p23
sVtext
p24
VFrank had saved up 3 dollars .
p25
sVdependencies
p26
(lp27
(lp28
Vroot
p29
aVROOT
p30
aVsaved
p31
aa(lp32
Vnsubj
p33
aVsaved
p34
aVFrank
p35
aa(lp36
Vaux
p37
aVsaved
p38
aVhad
p39
aa(lp40
Vprt
p41
aVsaved
p42
aVup
p43
aa(lp44
Vnum
p45
aVdollars
p46
aV3
p47
aa(lp48
Vdobj
p49
aVsaved
p50
aVdollars
p51
aasVwords
p52
(lp53
(lp54
VFrank
p55
a(dp56
VNamedEntityTag
p57
VPERSON
p58
sVCharacterOffsetEnd
p59
V6
p60
sVCharacterOffsetBegin
p61
V1
p62
sVPartOfSpeech
p63
VNNP
p64
sVLemma
p65
VFrank
p66
saa(lp67
Vhad
p68
a(dp69
VNamedEntityTag
p70
VO
p71
sVCharacterOffsetEnd
p72
V10
p73
sVCharacterOffsetBegin
p74
V7
p75
sVPartOfSpeech
p76
VVBD
p77
sVLemma
p78
Vhave
p79
saa(lp80
Vsaved
p81
a(dp82
VNamedEntityTag
p83
g71
sVCharacterOffsetEnd
p84
V16
p85
sVCharacterOffsetBegin
p86
V11
p87
sVPartOfSpeech
p88
VVBN
p89
sVLemma
p90
Vsave
p91
saa(lp92
Vup
p93
a(dp94
VNamedEntityTag
p95
g71
sVCharacterOffsetEnd
p96
V19
p97
sVCharacterOffsetBegin
p98
V17
p99
sVPartOfSpeech
p100
VRP
p101
sVLemma
p102
Vup
p103
saa(lp104
g47
a(dp105
VNormalizedNamedEntityTag
p106
V$3.0
p107
sVLemma
p108
g47
sVCharacterOffsetEnd
p109
V21
p110
sVPartOfSpeech
p111
VCD
p112
sVCharacterOffsetBegin
p113
V20
p114
sVNamedEntityTag
p115
VMONEY
p116
saa(lp117
Vdollars
p118
a(dp119
VNormalizedNamedEntityTag
p120
V$3.0
p121
sVLemma
p122
Vdollar
p123
sVCharacterOffsetEnd
p124
V29
p125
sVPartOfSpeech
p126
VNNS
p127
sVCharacterOffsetBegin
p128
V22
p129
sVNamedEntityTag
p130
VMONEY
p131
saa(lp132
V.
p133
a(dp134
VNamedEntityTag
p135
g71
sVCharacterOffsetEnd
p136
V31
p137
sVCharacterOffsetBegin
p138
V30
p139
sVPartOfSpeech
p140
g133
sVLemma
p141
g133
saasVindexeddependencies
p142
(lp143
(lp144
Vroot
p145
aVROOT-0
p146
aVsaved-3
p147
aa(lp148
Vnsubj
p149
aVsaved-3
p150
aVFrank-1
p151
aa(lp152
Vaux
p153
aVsaved-3
p154
aVhad-2
p155
aa(lp156
Vprt
p157
aVsaved-3
p158
aVup-4
p159
aa(lp160
Vnum
p161
aVdollars-6
p162
aV3-5
p163
aa(lp164
Vdobj
p165
aVsaved-3
p166
aVdollars-6
p167
aasa(dp168
Vparsetree
p169
V(ROOT (SBARQ (SBAR (IN If) (S (NP (PRP he)) (VP (VBD received) (NP (NP (DT another) (CD 37) (NNS dollars)) (PP (IN for) (NP (PRP$ his) (NN allowance))))))) (, ,) (WHNP (WHADJP (WRB how) (JJ many)) (NP (NP (CD 8) (NN dollar)) (NP (NNS toys)))) (SQ (MD could) (NP (PRP he)) (VP (VB buy))) (. ?)))
p170
sVtext
p171
VIf he received another 37 dollars for his allowance , how many 8 dollar toys could he buy ?
p172
sVdependencies
p173
(lp174
(lp175
Vroot
p176
aVROOT
p177
aVbuy
p178
aa(lp179
Vmark
p180
aVreceived
p181
aVIf
p182
aa(lp183
Vnsubj
p184
aVreceived
p185
aVhe
p186
aa(lp187
Vadvcl
p188
aVbuy
p189
aVreceived
p190
aa(lp191
Vdet
p192
aVdollars
p193
aVanother
p194
aa(lp195
Vnum
p196
aVdollars
p197
aV37
p198
aa(lp199
Vdobj
p200
aVreceived
p201
aVdollars
p202
aa(lp203
Vposs
p204
aVallowance
p205
aVhis
p206
aa(lp207
Vprep_for
p208
aVdollars
p209
aVallowance
p210
aa(lp211
Vadvmod
p212
aVmany
p213
aVhow
p214
aa(lp215
Vamod
p216
aVdollar
p217
aVmany
p218
aa(lp219
Vnum
p220
aVdollar
p221
aV8
p222
aa(lp223
Vdobj
p224
aVbuy
p225
aVdollar
p226
aa(lp227
Vdep
p228
aVdollar
p229
aVtoys
p230
aa(lp231
Vaux
p232
aVbuy
p233
aVcould
p234
aa(lp235
Vnsubj
p236
aVbuy
p237
aVhe
p238
aasVwords
p239
(lp240
(lp241
VIf
p242
a(dp243
VNamedEntityTag
p244
g71
sVCharacterOffsetEnd
p245
V34
p246
sVCharacterOffsetBegin
p247
V32
p248
sVPartOfSpeech
p249
VIN
p250
sVLemma
p251
Vif
p252
saa(lp253
Vhe
p254
a(dp255
VNamedEntityTag
p256
g71
sVCharacterOffsetEnd
p257
V37
p258
sVCharacterOffsetBegin
p259
V35
p260
sVPartOfSpeech
p261
VPRP
p262
sVLemma
p263
Vhe
p264
saa(lp265
Vreceived
p266
a(dp267
VNamedEntityTag
p268
g71
sVCharacterOffsetEnd
p269
V46
p270
sVCharacterOffsetBegin
p271
V38
p272
sVPartOfSpeech
p273
VVBD
p274
sVLemma
p275
Vreceive
p276
saa(lp277
Vanother
p278
a(dp279
VNamedEntityTag
p280
g71
sVCharacterOffsetEnd
p281
V54
p282
sVCharacterOffsetBegin
p283
V47
p284
sVPartOfSpeech
p285
VDT
p286
sVLemma
p287
Vanother
p288
saa(lp289
V37
p290
a(dp291
VNormalizedNamedEntityTag
p292
V$37.0
p293
sVLemma
p294
V37
p295
sVCharacterOffsetEnd
p296
V57
p297
sVPartOfSpeech
p298
VCD
p299
sVCharacterOffsetBegin
p300
V55
p301
sVNamedEntityTag
p302
VMONEY
p303
saa(lp304
Vdollars
p305
a(dp306
VNormalizedNamedEntityTag
p307
V$37.0
p308
sVLemma
p309
Vdollar
p310
sVCharacterOffsetEnd
p311
V65
p312
sVPartOfSpeech
p313
VNNS
p314
sVCharacterOffsetBegin
p315
V58
p316
sVNamedEntityTag
p317
VMONEY
p318
saa(lp319
Vfor
p320
a(dp321
VNamedEntityTag
p322
g71
sVCharacterOffsetEnd
p323
V69
p324
sVCharacterOffsetBegin
p325
V66
p326
sVPartOfSpeech
p327
VIN
p328
sVLemma
p329
Vfor
p330
saa(lp331
Vhis
p332
a(dp333
VNamedEntityTag
p334
g71
sVCharacterOffsetEnd
p335
V73
p336
sVCharacterOffsetBegin
p337
V70
p338
sVPartOfSpeech
p339
VPRP$
p340
sVLemma
p341
Vhe
p342
saa(lp343
Vallowance
p344
a(dp345
VNamedEntityTag
p346
g71
sVCharacterOffsetEnd
p347
V83
p348
sVCharacterOffsetBegin
p349
V74
p350
sVPartOfSpeech
p351
VNN
p352
sVLemma
p353
Vallowance
p354
saa(lp355
V,
p356
a(dp357
VNamedEntityTag
p358
g71
sVCharacterOffsetEnd
p359
V85
p360
sVCharacterOffsetBegin
p361
V84
p362
sVPartOfSpeech
p363
g356
sVLemma
p364
g356
saa(lp365
Vhow
p366
a(dp367
VNamedEntityTag
p368
g71
sVCharacterOffsetEnd
p369
V89
p370
sVCharacterOffsetBegin
p371
V86
p372
sVPartOfSpeech
p373
VWRB
p374
sVLemma
p375
Vhow
p376
saa(lp377
Vmany
p378
a(dp379
VNamedEntityTag
p380
g71
sVCharacterOffsetEnd
p381
V94
p382
sVCharacterOffsetBegin
p383
V90
p384
sVPartOfSpeech
p385
VJJ
p386
sVLemma
p387
Vmany
p388
saa(lp389
g222
a(dp390
VNormalizedNamedEntityTag
p391
V$8.0
p392
sVLemma
p393
g222
sVCharacterOffsetEnd
p394
V96
p395
sVPartOfSpeech
p396
VCD
p397
sVCharacterOffsetBegin
p398
V95
p399
sVNamedEntityTag
p400
VMONEY
p401
saa(lp402
Vdollar
p403
a(dp404
VNormalizedNamedEntityTag
p405
V$8.0
p406
sVLemma
p407
Vdollar
p408
sVCharacterOffsetEnd
p409
V103
p410
sVPartOfSpeech
p411
VNN
p412
sVCharacterOffsetBegin
p413
V97
p414
sVNamedEntityTag
p415
VMONEY
p416
saa(lp417
Vtoys
p418
a(dp419
VNamedEntityTag
p420
g71
sVCharacterOffsetEnd
p421
V108
p422
sVCharacterOffsetBegin
p423
V104
p424
sVPartOfSpeech
p425
VNNS
p426
sVLemma
p427
Vtoy
p428
saa(lp429
Vcould
p430
a(dp431
VNamedEntityTag
p432
g71
sVCharacterOffsetEnd
p433
V114
p434
sVCharacterOffsetBegin
p435
V109
p436
sVPartOfSpeech
p437
VMD
p438
sVLemma
p439
Vcould
p440
saa(lp441
Vhe
p442
a(dp443
VNamedEntityTag
p444
g71
sVCharacterOffsetEnd
p445
V117
p446
sVCharacterOffsetBegin
p447
V115
p448
sVPartOfSpeech
p449
VPRP
p450
sVLemma
p451
Vhe
p452
saa(lp453
Vbuy
p454
a(dp455
VNamedEntityTag
p456
g71
sVCharacterOffsetEnd
p457
V121
p458
sVCharacterOffsetBegin
p459
V118
p460
sVPartOfSpeech
p461
VVB
p462
sVLemma
p463
Vbuy
p464
saa(lp465
V?
p466
a(dp467
VNamedEntityTag
p468
g71
sVCharacterOffsetEnd
p469
V123
p470
sVCharacterOffsetBegin
p471
V122
p472
sVPartOfSpeech
p473
g133
sVLemma
p474
g466
saasVindexeddependencies
p475
(lp476
(lp477
Vroot
p478
aVROOT-0
p479
aVbuy-18
p480
aa(lp481
Vmark
p482
aVreceived-3
p483
aVIf-1
p484
aa(lp485
Vnsubj
p486
aVreceived-3
p487
aVhe-2
p488
aa(lp489
Vadvcl
p490
aVbuy-18
p491
aVreceived-3
p492
aa(lp493
Vdet
p494
aVdollars-6
p495
aVanother-4
p496
aa(lp497
Vnum
p498
aVdollars-6
p499
aV37-5
p500
aa(lp501
Vdobj
p502
aVreceived-3
p503
aVdollars-6
p504
aa(lp505
Vposs
p506
aVallowance-9
p507
aVhis-8
p508
aa(lp509
Vprep_for
p510
aVdollars-6
p511
aVallowance-9
p512
aa(lp513
Vadvmod
p514
aVmany-12
p515
aVhow-11
p516
aa(lp517
Vamod
p518
aVdollar-14
p519
aVmany-12
p520
aa(lp521
Vnum
p522
aVdollar-14
p523
aV8-13
p524
aa(lp525
Vdobj
p526
aVbuy-18
p527
aVdollar-14
p528
aa(lp529
Vdep
p530
aVdollar-14
p531
aVtoys-15
p532
aa(lp533
Vaux
p534
aVbuy-18
p535
aVcould-16
p536
aa(lp537
Vnsubj
p538
aVbuy-18
p539
aVhe-17
p540
aasas.