(dp0
Vcoref
p1
(lp2
(lp3
(lp4
(lp5
Vhe
p6
aI1
aI1
aI1
aI2
aa(lp7
VSam
p8
aI0
aI0
aI0
aI1
aaa(lp9
(lp10
Vhis
p11
aI1
aI7
aI7
aI8
aa(lp12
VSam
p13
aI0
aI0
aI0
aI1
aaa(lp14
(lp15
Vhe
p16
aI1
aI16
aI16
aI17
aa(lp17
VSam
p18
aI0
aI0
aI0
aI1
aaaasVsentences
p19
(lp20
(dp21
Vparsetree
p22
V(ROOT (S (NP (NNP Sam)) (VP (VBD had) (VP (VBN saved) (PRT (RP up)) (NP (CD 8) (NNS dollars)))) (. .)))
p23
sVtext
p24
VSam had saved up 8 dollars .
p25
sVdependencies
p26
(lp27
(lp28
Vroot
p29
aVROOT
p30
aVsaved
p31
aa(lp32
Vnsubj
p33
aVsaved
p34
aVSam
p35
aa(lp36
Vaux
p37
aVsaved
p38
aVhad
p39
aa(lp40
Vprt
p41
aVsaved
p42
aVup
p43
aa(lp44
Vnum
p45
aVdollars
p46
aV8
p47
aa(lp48
Vdobj
p49
aVsaved
p50
aVdollars
p51
aasVwords
p52
(lp53
(lp54
VSam
p55
a(dp56
VNamedEntityTag
p57
VPERSON
p58
sVCharacterOffsetEnd
p59
V4
p60
sVCharacterOffsetBegin
p61
V1
p62
sVPartOfSpeech
p63
VNNP
p64
sVLemma
p65
VSam
p66
saa(lp67
Vhad
p68
a(dp69
VNamedEntityTag
p70
VO
p71
sVCharacterOffsetEnd
p72
g47
sVCharacterOffsetBegin
p73
V5
p74
sVPartOfSpeech
p75
VVBD
p76
sVLemma
p77
Vhave
p78
saa(lp79
Vsaved
p80
a(dp81
VNamedEntityTag
p82
g71
sVCharacterOffsetEnd
p83
V14
p84
sVCharacterOffsetBegin
p85
V9
p86
sVPartOfSpeech
p87
VVBN
p88
sVLemma
p89
Vsave
p90
saa(lp91
Vup
p92
a(dp93
VNamedEntityTag
p94
g71
sVCharacterOffsetEnd
p95
V17
p96
sVCharacterOffsetBegin
p97
V15
p98
sVPartOfSpeech
p99
VRP
p100
sVLemma
p101
Vup
p102
saa(lp103
g47
a(dp104
VNormalizedNamedEntityTag
p105
V$8.0
p106
sVLemma
p107
g47
sVCharacterOffsetEnd
p108
V19
p109
sVPartOfSpeech
p110
VCD
p111
sVCharacterOffsetBegin
p112
V18
p113
sVNamedEntityTag
p114
VMONEY
p115
saa(lp116
Vdollars
p117
a(dp118
VNormalizedNamedEntityTag
p119
V$8.0
p120
sVLemma
p121
Vdollar
p122
sVCharacterOffsetEnd
p123
V27
p124
sVPartOfSpeech
p125
VNNS
p126
sVCharacterOffsetBegin
p127
V20
p128
sVNamedEntityTag
p129
VMONEY
p130
saa(lp131
V.
p132
a(dp133
VNamedEntityTag
p134
g71
sVCharacterOffsetEnd
p135
V29
p136
sVCharacterOffsetBegin
p137
V28
p138
sVPartOfSpeech
p139
g132
sVLemma
p140
g132
saasVindexeddependencies
p141
(lp142
(lp143
Vroot
p144
aVROOT-0
p145
aVsaved-3
p146
aa(lp147
Vnsubj
p148
aVsaved-3
p149
aVSam-1
p150
aa(lp151
Vaux
p152
aVsaved-3
p153
aVhad-2
p154
aa(lp155
Vprt
p156
aVsaved-3
p157
aVup-4
p158
aa(lp159
Vnum
p160
aVdollars-6
p161
aV8-5
p162
aa(lp163
Vdobj
p164
aVsaved-3
p165
aVdollars-6
p166
aasa(dp167
Vparsetree
p168
V(ROOT (SBARQ (SBAR (IN If) (S (NP (PRP he)) (VP (VBD received) (NP (NP (DT another) (CD 7) (NNS dollars)) (PP (IN for) (NP (PRP$ his) (NN allowance))))))) (, ,) (WHNP (WHADJP (WRB how) (JJ many)) (NP (NP (CD 3) (NN dollar)) (NP (NNS toys)))) (SQ (MD could) (NP (PRP he)) (VP (VB buy))) (. ?)))
p169
sVtext
p170
VIf he received another 7 dollars for his allowance , how many 3 dollar toys could he buy ?
p171
sVdependencies
p172
(lp173
(lp174
Vroot
p175
aVROOT
p176
aVbuy
p177
aa(lp178
Vmark
p179
aVreceived
p180
aVIf
p181
aa(lp182
Vnsubj
p183
aVreceived
p184
aVhe
p185
aa(lp186
Vadvcl
p187
aVbuy
p188
aVreceived
p189
aa(lp190
Vdet
p191
aVdollars
p192
aVanother
p193
aa(lp194
Vnum
p195
aVdollars
p196
aV7
p197
aa(lp198
Vdobj
p199
aVreceived
p200
aVdollars
p201
aa(lp202
Vposs
p203
aVallowance
p204
aVhis
p205
aa(lp206
Vprep_for
p207
aVdollars
p208
aVallowance
p209
aa(lp210
Vadvmod
p211
aVmany
p212
aVhow
p213
aa(lp214
Vamod
p215
aVdollar
p216
aVmany
p217
aa(lp218
Vnum
p219
aVdollar
p220
aV3
p221
aa(lp222
Vdobj
p223
aVbuy
p224
aVdollar
p225
aa(lp226
Vdep
p227
aVdollar
p228
aVtoys
p229
aa(lp230
Vaux
p231
aVbuy
p232
aVcould
p233
aa(lp234
Vnsubj
p235
aVbuy
p236
aVhe
p237
aasVwords
p238
(lp239
(lp240
VIf
p241
a(dp242
VNamedEntityTag
p243
g71
sVCharacterOffsetEnd
p244
V32
p245
sVCharacterOffsetBegin
p246
V30
p247
sVPartOfSpeech
p248
VIN
p249
sVLemma
p250
Vif
p251
saa(lp252
Vhe
p253
a(dp254
VNamedEntityTag
p255
g71
sVCharacterOffsetEnd
p256
V35
p257
sVCharacterOffsetBegin
p258
V33
p259
sVPartOfSpeech
p260
VPRP
p261
sVLemma
p262
Vhe
p263
saa(lp264
Vreceived
p265
a(dp266
VNamedEntityTag
p267
g71
sVCharacterOffsetEnd
p268
V44
p269
sVCharacterOffsetBegin
p270
V36
p271
sVPartOfSpeech
p272
VVBD
p273
sVLemma
p274
Vreceive
p275
saa(lp276
Vanother
p277
a(dp278
VNamedEntityTag
p279
g71
sVCharacterOffsetEnd
p280
V52
p281
sVCharacterOffsetBegin
p282
V45
p283
sVPartOfSpeech
p284
VDT
p285
sVLemma
p286
Vanother
p287
saa(lp288
g197
a(dp289
VNormalizedNamedEntityTag
p290
V$7.0
p291
sVLemma
p292
g197
sVCharacterOffsetEnd
p293
V54
p294
sVPartOfSpeech
p295
VCD
p296
sVCharacterOffsetBegin
p297
V53
p298
sVNamedEntityTag
p299
VMONEY
p300
saa(lp301
Vdollars
p302
a(dp303
VNormalizedNamedEntityTag
p304
V$7.0
p305
sVLemma
p306
Vdollar
p307
sVCharacterOffsetEnd
p308
V62
p309
sVPartOfSpeech
p310
VNNS
p311
sVCharacterOffsetBegin
p312
V55
p313
sVNamedEntityTag
p314
VMONEY
p315
saa(lp316
Vfor
p317
a(dp318
VNamedEntityTag
p319
g71
sVCharacterOffsetEnd
p320
V66
p321
sVCharacterOffsetBegin
p322
V63
p323
sVPartOfSpeech
p324
VIN
p325
sVLemma
p326
Vfor
p327
saa(lp328
Vhis
p329
a(dp330
VNamedEntityTag
p331
g71
sVCharacterOffsetEnd
p332
V70
p333
sVCharacterOffsetBegin
p334
V67
p335
sVPartOfSpeech
p336
VPRP$
p337
sVLemma
p338
Vhe
p339
saa(lp340
Vallowance
p341
a(dp342
VNamedEntityTag
p343
g71
sVCharacterOffsetEnd
p344
V80
p345
sVCharacterOffsetBegin
p346
V71
p347
sVPartOfSpeech
p348
VNN
p349
sVLemma
p350
Vallowance
p351
saa(lp352
V,
p353
a(dp354
VNamedEntityTag
p355
g71
sVCharacterOffsetEnd
p356
V82
p357
sVCharacterOffsetBegin
p358
V81
p359
sVPartOfSpeech
p360
g353
sVLemma
p361
g353
saa(lp362
Vhow
p363
a(dp364
VNamedEntityTag
p365
g71
sVCharacterOffsetEnd
p366
V86
p367
sVCharacterOffsetBegin
p368
V83
p369
sVPartOfSpeech
p370
VWRB
p371
sVLemma
p372
Vhow
p373
saa(lp374
Vmany
p375
a(dp376
VNamedEntityTag
p377
g71
sVCharacterOffsetEnd
p378
V91
p379
sVCharacterOffsetBegin
p380
V87
p381
sVPartOfSpeech
p382
VJJ
p383
sVLemma
p384
Vmany
p385
saa(lp386
g221
a(dp387
VNormalizedNamedEntityTag
p388
V$3.0
p389
sVLemma
p390
g221
sVCharacterOffsetEnd
p391
V93
p392
sVPartOfSpeech
p393
VCD
p394
sVCharacterOffsetBegin
p395
V92
p396
sVNamedEntityTag
p397
VMONEY
p398
saa(lp399
Vdollar
p400
a(dp401
VNormalizedNamedEntityTag
p402
V$3.0
p403
sVLemma
p404
Vdollar
p405
sVCharacterOffsetEnd
p406
V100
p407
sVPartOfSpeech
p408
VNN
p409
sVCharacterOffsetBegin
p410
V94
p411
sVNamedEntityTag
p412
VMONEY
p413
saa(lp414
Vtoys
p415
a(dp416
VNamedEntityTag
p417
g71
sVCharacterOffsetEnd
p418
V105
p419
sVCharacterOffsetBegin
p420
V101
p421
sVPartOfSpeech
p422
VNNS
p423
sVLemma
p424
Vtoy
p425
saa(lp426
Vcould
p427
a(dp428
VNamedEntityTag
p429
g71
sVCharacterOffsetEnd
p430
V111
p431
sVCharacterOffsetBegin
p432
V106
p433
sVPartOfSpeech
p434
VMD
p435
sVLemma
p436
Vcould
p437
saa(lp438
Vhe
p439
a(dp440
VNamedEntityTag
p441
g71
sVCharacterOffsetEnd
p442
V114
p443
sVCharacterOffsetBegin
p444
V112
p445
sVPartOfSpeech
p446
VPRP
p447
sVLemma
p448
Vhe
p449
saa(lp450
Vbuy
p451
a(dp452
VNamedEntityTag
p453
g71
sVCharacterOffsetEnd
p454
V118
p455
sVCharacterOffsetBegin
p456
V115
p457
sVPartOfSpeech
p458
VVB
p459
sVLemma
p460
Vbuy
p461
saa(lp462
V?
p463
a(dp464
VNamedEntityTag
p465
g71
sVCharacterOffsetEnd
p466
V120
p467
sVCharacterOffsetBegin
p468
V119
p469
sVPartOfSpeech
p470
g132
sVLemma
p471
g463
saasVindexeddependencies
p472
(lp473
(lp474
Vroot
p475
aVROOT-0
p476
aVbuy-18
p477
aa(lp478
Vmark
p479
aVreceived-3
p480
aVIf-1
p481
aa(lp482
Vnsubj
p483
aVreceived-3
p484
aVhe-2
p485
aa(lp486
Vadvcl
p487
aVbuy-18
p488
aVreceived-3
p489
aa(lp490
Vdet
p491
aVdollars-6
p492
aVanother-4
p493
aa(lp494
Vnum
p495
aVdollars-6
p496
aV7-5
p497
aa(lp498
Vdobj
p499
aVreceived-3
p500
aVdollars-6
p501
aa(lp502
Vposs
p503
aVallowance-9
p504
aVhis-8
p505
aa(lp506
Vprep_for
p507
aVdollars-6
p508
aVallowance-9
p509
aa(lp510
Vadvmod
p511
aVmany-12
p512
aVhow-11
p513
aa(lp514
Vamod
p515
aVdollar-14
p516
aVmany-12
p517
aa(lp518
Vnum
p519
aVdollar-14
p520
aV3-13
p521
aa(lp522
Vdobj
p523
aVbuy-18
p524
aVdollar-14
p525
aa(lp526
Vdep
p527
aVdollar-14
p528
aVtoys-15
p529
aa(lp530
Vaux
p531
aVbuy-18
p532
aVcould-16
p533
aa(lp534
Vnsubj
p535
aVbuy-18
p536
aVhe-17
p537
aasas.