(dp0
Vcoref
p1
(lp2
(lp3
(lp4
(lp5
Vhe
p6
aI1
aI1
aI1
aI2
aa(lp7
VPaul
p8
aI0
aI0
aI0
aI1
aaa(lp9
(lp10
Vhim
p11
aI1
aI15
aI15
aI16
aa(lp12
VPaul
p13
aI0
aI0
aI0
aI1
aaaasVsentences
p14
(lp15
(dp16
Vparsetree
p17
V(ROOT (S (NP (NNP Paul)) (VP (VBD made) (NP (NP (CD 3) (NNS dollars)) (VP (VBG mowing) (NP (NP (NNS lawns)) (CC and) (NP (CD 3) (NNS dollars) (NN weed) (NN eating)))))) (. .)))
p18
sVtext
p19
VPaul made 3 dollars mowing lawns and 3 dollars weed eating .
p20
sVdependencies
p21
(lp22
(lp23
Vroot
p24
aVROOT
p25
aVmade
p26
aa(lp27
Vnsubj
p28
aVmade
p29
aVPaul
p30
aa(lp31
Vnum
p32
aVdollars
p33
aV3
p34
aa(lp35
Vdobj
p36
aVmade
p37
aVdollars
p38
aa(lp39
Vvmod
p40
aVdollars
p41
aVmowing
p42
aa(lp43
Vdobj
p44
aVmowing
p45
aVlawns
p46
aa(lp47
Vnum
p48
aVeating
p49
ag34
aa(lp50
Vnn
p51
aVeating
p52
aVdollars
p53
aa(lp54
Vnn
p55
aVeating
p56
aVweed
p57
aa(lp58
Vconj_and
p59
aVlawns
p60
aVeating
p61
aasVwords
p62
(lp63
(lp64
VPaul
p65
a(dp66
VNamedEntityTag
p67
VPERSON
p68
sVCharacterOffsetEnd
p69
V5
p70
sVCharacterOffsetBegin
p71
V1
p72
sVPartOfSpeech
p73
VNNP
p74
sVLemma
p75
VPaul
p76
saa(lp77
Vmade
p78
a(dp79
VNamedEntityTag
p80
VO
p81
sVCharacterOffsetEnd
p82
V10
p83
sVCharacterOffsetBegin
p84
V6
p85
sVPartOfSpeech
p86
VVBD
p87
sVLemma
p88
Vmake
p89
saa(lp90
g34
a(dp91
VNormalizedNamedEntityTag
p92
V$3.0
p93
sVLemma
p94
g34
sVCharacterOffsetEnd
p95
V12
p96
sVPartOfSpeech
p97
VCD
p98
sVCharacterOffsetBegin
p99
V11
p100
sVNamedEntityTag
p101
VMONEY
p102
saa(lp103
Vdollars
p104
a(dp105
VNormalizedNamedEntityTag
p106
V$3.0
p107
sVLemma
p108
Vdollar
p109
sVCharacterOffsetEnd
p110
V20
p111
sVPartOfSpeech
p112
VNNS
p113
sVCharacterOffsetBegin
p114
V13
p115
sVNamedEntityTag
p116
VMONEY
p117
saa(lp118
Vmowing
p119
a(dp120
VNamedEntityTag
p121
g81
sVCharacterOffsetEnd
p122
V27
p123
sVCharacterOffsetBegin
p124
V21
p125
sVPartOfSpeech
p126
VVBG
p127
sVLemma
p128
Vmow
p129
saa(lp130
Vlawns
p131
a(dp132
VNamedEntityTag
p133
g81
sVCharacterOffsetEnd
p134
V33
p135
sVCharacterOffsetBegin
p136
V28
p137
sVPartOfSpeech
p138
VNNS
p139
sVLemma
p140
Vlawn
p141
saa(lp142
Vand
p143
a(dp144
VNamedEntityTag
p145
g81
sVCharacterOffsetEnd
p146
V37
p147
sVCharacterOffsetBegin
p148
V34
p149
sVPartOfSpeech
p150
VCC
p151
sVLemma
p152
Vand
p153
saa(lp154
g34
a(dp155
VNormalizedNamedEntityTag
p156
V$3.0
p157
sVLemma
p158
g34
sVCharacterOffsetEnd
p159
V39
p160
sVPartOfSpeech
p161
VCD
p162
sVCharacterOffsetBegin
p163
V38
p164
sVNamedEntityTag
p165
VMONEY
p166
saa(lp167
Vdollars
p168
a(dp169
VNormalizedNamedEntityTag
p170
V$3.0
p171
sVLemma
p172
Vdollar
p173
sVCharacterOffsetEnd
p174
V47
p175
sVPartOfSpeech
p176
VNNS
p177
sVCharacterOffsetBegin
p178
V40
p179
sVNamedEntityTag
p180
VMONEY
p181
saa(lp182
Vweed
p183
a(dp184
VNamedEntityTag
p185
g81
sVCharacterOffsetEnd
p186
V52
p187
sVCharacterOffsetBegin
p188
V48
p189
sVPartOfSpeech
p190
VNN
p191
sVLemma
p192
Vweed
p193
saa(lp194
Veating
p195
a(dp196
VNamedEntityTag
p197
g81
sVCharacterOffsetEnd
p198
V59
p199
sVCharacterOffsetBegin
p200
V53
p201
sVPartOfSpeech
p202
VNN
p203
sVLemma
p204
Veating
p205
saa(lp206
V.
p207
a(dp208
VNamedEntityTag
p209
g81
sVCharacterOffsetEnd
p210
V61
p211
sVCharacterOffsetBegin
p212
V60
p213
sVPartOfSpeech
p214
g207
sVLemma
p215
g207
saasVindexeddependencies
p216
(lp217
(lp218
Vroot
p219
aVROOT-0
p220
aVmade-2
p221
aa(lp222
Vnsubj
p223
aVmade-2
p224
aVPaul-1
p225
aa(lp226
Vnum
p227
aVdollars-4
p228
aV3-3
p229
aa(lp230
Vdobj
p231
aVmade-2
p232
aVdollars-4
p233
aa(lp234
Vvmod
p235
aVdollars-4
p236
aVmowing-5
p237
aa(lp238
Vdobj
p239
aVmowing-5
p240
aVlawns-6
p241
aa(lp242
Vnum
p243
aVeating-11
p244
aV3-8
p245
aa(lp246
Vnn
p247
aVeating-11
p248
aVdollars-9
p249
aa(lp250
Vnn
p251
aVeating-11
p252
aVweed-10
p253
aa(lp254
Vconj_and
p255
aVlawns-6
p256
aVeating-11
p257
aasa(dp258
Vparsetree
p259
V(ROOT (SBARQ (SBAR (IN If) (S (NP (PRP he)) (ADVP (RB only)) (VP (VBD spent) (NP (CD 3) (NN dollar)) (NP-TMP (DT a) (NN week))))) (, ,) (WHADVP (WRB how) (RB long)) (SQ (VP (MD would)) (NP (DT the) (NN money)) (ADVP (JJ last)) (NP (PRP him)) (. ?))))
p260
sVtext
p261
VIf he only spent 3 dollar a week , how long would the money last him ?
p262
sVdependencies
p263
(lp264
(lp265
Vroot
p266
aVROOT
p267
aVwould
p268
aa(lp269
Vmark
p270
aVspent
p271
aVIf
p272
aa(lp273
Vnsubj
p274
aVspent
p275
aVhe
p276
aa(lp277
Vadvmod
p278
aVspent
p279
aVonly
p280
aa(lp281
Vadvcl
p282
aVwould
p283
aVspent
p284
aa(lp285
Vnum
p286
aVdollar
p287
ag34
aa(lp288
Vdobj
p289
aVspent
p290
aVdollar
p291
aa(lp292
Vdet
p293
aVweek
p294
aVa
p295
aa(lp296
Vtmod
p297
aVspent
p298
aVweek
p299
aa(lp300
Vadvmod
p301
aVlong
p302
aVhow
p303
aa(lp304
Vadvmod
p305
aVwould
p306
aVlong
p307
aa(lp308
Vdet
p309
aVmoney
p310
aVthe
p311
aa(lp312
Vdep
p313
aVwould
p314
aVmoney
p315
aa(lp316
Vadvmod
p317
aVwould
p318
aVlast
p319
aa(lp320
Vdep
p321
aVwould
p322
aVhim
p323
aasVwords
p324
(lp325
(lp326
VIf
p327
a(dp328
VNamedEntityTag
p329
g81
sVCharacterOffsetEnd
p330
V64
p331
sVCharacterOffsetBegin
p332
V62
p333
sVPartOfSpeech
p334
VIN
p335
sVLemma
p336
Vif
p337
saa(lp338
Vhe
p339
a(dp340
VNamedEntityTag
p341
g81
sVCharacterOffsetEnd
p342
V67
p343
sVCharacterOffsetBegin
p344
V65
p345
sVPartOfSpeech
p346
VPRP
p347
sVLemma
p348
Vhe
p349
saa(lp350
Vonly
p351
a(dp352
VNamedEntityTag
p353
g81
sVCharacterOffsetEnd
p354
V72
p355
sVCharacterOffsetBegin
p356
V68
p357
sVPartOfSpeech
p358
VRB
p359
sVLemma
p360
Vonly
p361
saa(lp362
Vspent
p363
a(dp364
VNamedEntityTag
p365
g81
sVCharacterOffsetEnd
p366
V78
p367
sVCharacterOffsetBegin
p368
V73
p369
sVPartOfSpeech
p370
VVBD
p371
sVLemma
p372
Vspend
p373
saa(lp374
g34
a(dp375
VNormalizedNamedEntityTag
p376
V$3.0
p377
sVLemma
p378
g34
sVCharacterOffsetEnd
p379
V80
p380
sVPartOfSpeech
p381
VCD
p382
sVCharacterOffsetBegin
p383
V79
p384
sVNamedEntityTag
p385
VMONEY
p386
saa(lp387
Vdollar
p388
a(dp389
VNormalizedNamedEntityTag
p390
V$3.0
p391
sVLemma
p392
Vdollar
p393
sVCharacterOffsetEnd
p394
V87
p395
sVPartOfSpeech
p396
VNN
p397
sVCharacterOffsetBegin
p398
V81
p399
sVNamedEntityTag
p400
VMONEY
p401
saa(lp402
g295
a(dp403
VNormalizedNamedEntityTag
p404
VP1W
p405
sVTimex
p406
V<TIMEX3 tid="t1" type="DURATION" value="P1W">a week</TIMEX3>
p407
sVLemma
p408
g295
sVCharacterOffsetEnd
p409
V89
p410
sVPartOfSpeech
p411
VDT
p412
sVCharacterOffsetBegin
p413
V88
p414
sVNamedEntityTag
p415
VDURATION
p416
saa(lp417
Vweek
p418
a(dp419
VNormalizedNamedEntityTag
p420
VP1W
p421
sVTimex
p422
V<TIMEX3 tid="t1" type="DURATION" value="P1W">a week</TIMEX3>
p423
sVLemma
p424
Vweek
p425
sVCharacterOffsetEnd
p426
V94
p427
sVPartOfSpeech
p428
VNN
p429
sVCharacterOffsetBegin
p430
V90
p431
sVNamedEntityTag
p432
VDURATION
p433
saa(lp434
V,
p435
a(dp436
VNamedEntityTag
p437
g81
sVCharacterOffsetEnd
p438
V96
p439
sVCharacterOffsetBegin
p440
V95
p441
sVPartOfSpeech
p442
g435
sVLemma
p443
g435
saa(lp444
Vhow
p445
a(dp446
VNamedEntityTag
p447
g81
sVCharacterOffsetEnd
p448
V100
p449
sVCharacterOffsetBegin
p450
V97
p451
sVPartOfSpeech
p452
VWRB
p453
sVLemma
p454
Vhow
p455
saa(lp456
Vlong
p457
a(dp458
VNamedEntityTag
p459
g81
sVCharacterOffsetEnd
p460
V105
p461
sVCharacterOffsetBegin
p462
V101
p463
sVPartOfSpeech
p464
VRB
p465
sVLemma
p466
Vlong
p467
saa(lp468
Vwould
p469
a(dp470
VNamedEntityTag
p471
g81
sVCharacterOffsetEnd
p472
V111
p473
sVCharacterOffsetBegin
p474
V106
p475
sVPartOfSpeech
p476
VMD
p477
sVLemma
p478
Vwould
p479
saa(lp480
Vthe
p481
a(dp482
VNamedEntityTag
p483
g81
sVCharacterOffsetEnd
p484
V115
p485
sVCharacterOffsetBegin
p486
V112
p487
sVPartOfSpeech
p488
VDT
p489
sVLemma
p490
Vthe
p491
saa(lp492
Vmoney
p493
a(dp494
VNamedEntityTag
p495
g81
sVCharacterOffsetEnd
p496
V121
p497
sVCharacterOffsetBegin
p498
V116
p499
sVPartOfSpeech
p500
VNN
p501
sVLemma
p502
Vmoney
p503
saa(lp504
Vlast
p505
a(dp506
VNamedEntityTag
p507
g81
sVCharacterOffsetEnd
p508
V126
p509
sVCharacterOffsetBegin
p510
V122
p511
sVPartOfSpeech
p512
VJJ
p513
sVLemma
p514
Vlast
p515
saa(lp516
Vhim
p517
a(dp518
VNamedEntityTag
p519
g81
sVCharacterOffsetEnd
p520
V130
p521
sVCharacterOffsetBegin
p522
V127
p523
sVPartOfSpeech
p524
VPRP
p525
sVLemma
p526
Vhe
p527
saa(lp528
V?
p529
a(dp530
VNamedEntityTag
p531
g81
sVCharacterOffsetEnd
p532
V132
p533
sVCharacterOffsetBegin
p534
V131
p535
sVPartOfSpeech
p536
g207
sVLemma
p537
g529
saasVindexeddependencies
p538
(lp539
(lp540
Vroot
p541
aVROOT-0
p542
aVwould-12
p543
aa(lp544
Vmark
p545
aVspent-4
p546
aVIf-1
p547
aa(lp548
Vnsubj
p549
aVspent-4
p550
aVhe-2
p551
aa(lp552
Vadvmod
p553
aVspent-4
p554
aVonly-3
p555
aa(lp556
Vadvcl
p557
aVwould-12
p558
aVspent-4
p559
aa(lp560
Vnum
p561
aVdollar-6
p562
aV3-5
p563
aa(lp564
Vdobj
p565
aVspent-4
p566
aVdollar-6
p567
aa(lp568
Vdet
p569
aVweek-8
p570
aVa-7
p571
aa(lp572
Vtmod
p573
aVspent-4
p574
aVweek-8
p575
aa(lp576
Vadvmod
p577
aVlong-11
p578
aVhow-10
p579
aa(lp580
Vadvmod
p581
aVwould-12
p582
aVlong-11
p583
aa(lp584
Vdet
p585
aVmoney-14
p586
aVthe-13
p587
aa(lp588
Vdep
p589
aVwould-12
p590
aVmoney-14
p591
aa(lp592
Vadvmod
p593
aVwould-12
p594
aVlast-15
p595
aa(lp596
Vdep
p597
aVwould-12
p598
aVhim-16
p599
aasas.