(dp0
Vcoref
p1
(lp2
(lp3
(lp4
(lp5
Vshe
p6
aI1
aI1
aI1
aI2
aa(lp7
VRobin
p8
aI0
aI0
aI0
aI1
aaa(lp9
(lp10
Vshe
p11
aI1
aI16
aI16
aI17
aa(lp12
VRobin
p13
aI0
aI0
aI0
aI1
aaaasVsentences
p14
(lp15
(dp16
Vparsetree
p17
V(ROOT (S (NP (NNP Robin)) (VP (VBD was) (VP (VBG making) (NP (NP (NNS baggies)) (PP (IN of) (NP (NP (NNS cookies)) (PP (IN with) (NP (NP (CD 6) (NNS cookies)) (PP (IN in) (NP (DT each) (NN bag)))))))))) (. .)))
p18
sVtext
p19
VRobin was making baggies of cookies with 6 cookies in each bag .
p20
sVdependencies
p21
(lp22
(lp23
Vroot
p24
aVROOT
p25
aVmaking
p26
aa(lp27
Vnsubj
p28
aVmaking
p29
aVRobin
p30
aa(lp31
Vaux
p32
aVmaking
p33
aVwas
p34
aa(lp35
Vdobj
p36
aVmaking
p37
aVbaggies
p38
aa(lp39
Vprep_of
p40
aVbaggies
p41
aVcookies
p42
aa(lp43
Vnum
p44
aVcookies
p45
aV6
p46
aa(lp47
Vprep_with
p48
aVcookies
p49
aVcookies
p50
aa(lp51
Vdet
p52
aVbag
p53
aVeach
p54
aa(lp55
Vprep_in
p56
aVcookies
p57
aVbag
p58
aasVwords
p59
(lp60
(lp61
VRobin
p62
a(dp63
VNamedEntityTag
p64
VPERSON
p65
sVCharacterOffsetEnd
p66
g46
sVCharacterOffsetBegin
p67
V1
p68
sVPartOfSpeech
p69
VNNP
p70
sVLemma
p71
VRobin
p72
saa(lp73
Vwas
p74
a(dp75
VNamedEntityTag
p76
VO
p77
sVCharacterOffsetEnd
p78
V10
p79
sVCharacterOffsetBegin
p80
V7
p81
sVPartOfSpeech
p82
VVBD
p83
sVLemma
p84
Vbe
p85
saa(lp86
Vmaking
p87
a(dp88
VNamedEntityTag
p89
g77
sVCharacterOffsetEnd
p90
V17
p91
sVCharacterOffsetBegin
p92
V11
p93
sVPartOfSpeech
p94
VVBG
p95
sVLemma
p96
Vmake
p97
saa(lp98
Vbaggies
p99
a(dp100
VNamedEntityTag
p101
g77
sVCharacterOffsetEnd
p102
V25
p103
sVCharacterOffsetBegin
p104
V18
p105
sVPartOfSpeech
p106
VNNS
p107
sVLemma
p108
Vbaggy
p109
saa(lp110
Vof
p111
a(dp112
VNamedEntityTag
p113
g77
sVCharacterOffsetEnd
p114
V28
p115
sVCharacterOffsetBegin
p116
V26
p117
sVPartOfSpeech
p118
VIN
p119
sVLemma
p120
Vof
p121
saa(lp122
Vcookies
p123
a(dp124
VNamedEntityTag
p125
g77
sVCharacterOffsetEnd
p126
V36
p127
sVCharacterOffsetBegin
p128
V29
p129
sVPartOfSpeech
p130
VNNS
p131
sVLemma
p132
Vcookie
p133
saa(lp134
Vwith
p135
a(dp136
VNamedEntityTag
p137
g77
sVCharacterOffsetEnd
p138
V41
p139
sVCharacterOffsetBegin
p140
V37
p141
sVPartOfSpeech
p142
VIN
p143
sVLemma
p144
Vwith
p145
saa(lp146
g46
a(dp147
VNormalizedNamedEntityTag
p148
V6.0
p149
sVLemma
p150
g46
sVCharacterOffsetEnd
p151
V43
p152
sVPartOfSpeech
p153
VCD
p154
sVCharacterOffsetBegin
p155
V42
p156
sVNamedEntityTag
p157
VNUMBER
p158
saa(lp159
Vcookies
p160
a(dp161
VNamedEntityTag
p162
g77
sVCharacterOffsetEnd
p163
V51
p164
sVCharacterOffsetBegin
p165
V44
p166
sVPartOfSpeech
p167
VNNS
p168
sVLemma
p169
Vcookie
p170
saa(lp171
Vin
p172
a(dp173
VNamedEntityTag
p174
g77
sVCharacterOffsetEnd
p175
V54
p176
sVCharacterOffsetBegin
p177
V52
p178
sVPartOfSpeech
p179
VIN
p180
sVLemma
p181
Vin
p182
saa(lp183
Veach
p184
a(dp185
VNamedEntityTag
p186
g77
sVCharacterOffsetEnd
p187
V59
p188
sVCharacterOffsetBegin
p189
V55
p190
sVPartOfSpeech
p191
VDT
p192
sVLemma
p193
Veach
p194
saa(lp195
Vbag
p196
a(dp197
VNamedEntityTag
p198
g77
sVCharacterOffsetEnd
p199
V63
p200
sVCharacterOffsetBegin
p201
V60
p202
sVPartOfSpeech
p203
VNN
p204
sVLemma
p205
Vbag
p206
saa(lp207
V.
p208
a(dp209
VNamedEntityTag
p210
g77
sVCharacterOffsetEnd
p211
V65
p212
sVCharacterOffsetBegin
p213
V64
p214
sVPartOfSpeech
p215
g208
sVLemma
p216
g208
saasVindexeddependencies
p217
(lp218
(lp219
Vroot
p220
aVROOT-0
p221
aVmaking-3
p222
aa(lp223
Vnsubj
p224
aVmaking-3
p225
aVRobin-1
p226
aa(lp227
Vaux
p228
aVmaking-3
p229
aVwas-2
p230
aa(lp231
Vdobj
p232
aVmaking-3
p233
aVbaggies-4
p234
aa(lp235
Vprep_of
p236
aVbaggies-4
p237
aVcookies-6
p238
aa(lp239
Vnum
p240
aVcookies-9
p241
aV6-8
p242
aa(lp243
Vprep_with
p244
aVcookies-6
p245
aVcookies-9
p246
aa(lp247
Vdet
p248
aVbag-12
p249
aVeach-11
p250
aa(lp251
Vprep_in
p252
aVcookies-9
p253
aVbag-12
p254
aasa(dp255
Vparsetree
p256
V(ROOT (SBARQ (SBAR (IN If) (S (NP (PRP she)) (VP (VBD had) (NP (NP (CD 23) (NN chocolate) (NN chip) (NNS cookies)) (CC and) (NP (CD 25) (NN oatmeal) (NNS cookies)))))) (, ,) (WHADVP (WRB how) (NP (JJ many) (NNS baggies))) (SQ (MD could) (NP (PRP she)) (VP (VB make))) (. ?)))
p257
sVtext
p258
VIf she had 23 chocolate chip cookies and 25 oatmeal cookies , how many baggies could she make ?
p259
sVdependencies
p260
(lp261
(lp262
Vroot
p263
aVROOT
p264
aVmake
p265
aa(lp266
Vmark
p267
aVhad
p268
aVIf
p269
aa(lp270
Vnsubj
p271
aVhad
p272
aVshe
p273
aa(lp274
Vadvcl
p275
aVmake
p276
aVhad
p277
aa(lp278
Vnum
p279
aVcookies
p280
aV23
p281
aa(lp282
Vnn
p283
aVcookies
p284
aVchocolate
p285
aa(lp286
Vnn
p287
aVcookies
p288
aVchip
p289
aa(lp290
Vdobj
p291
aVhad
p292
aVcookies
p293
aa(lp294
Vnum
p295
aVcookies
p296
aV25
p297
aa(lp298
Vnn
p299
aVcookies
p300
aVoatmeal
p301
aa(lp302
Vconj_and
p303
aVcookies
p304
aVcookies
p305
aa(lp306
Vadvmod
p307
aVmake
p308
aVhow
p309
aa(lp310
Vamod
p311
aVbaggies
p312
aVmany
p313
aa(lp314
Vdep
p315
aVhow
p316
aVbaggies
p317
aa(lp318
Vaux
p319
aVmake
p320
aVcould
p321
aa(lp322
Vnsubj
p323
aVmake
p324
aVshe
p325
aasVwords
p326
(lp327
(lp328
VIf
p329
a(dp330
VNamedEntityTag
p331
g77
sVCharacterOffsetEnd
p332
V68
p333
sVCharacterOffsetBegin
p334
V66
p335
sVPartOfSpeech
p336
VIN
p337
sVLemma
p338
Vif
p339
saa(lp340
Vshe
p341
a(dp342
VNamedEntityTag
p343
g77
sVCharacterOffsetEnd
p344
V72
p345
sVCharacterOffsetBegin
p346
V69
p347
sVPartOfSpeech
p348
VPRP
p349
sVLemma
p350
Vshe
p351
saa(lp352
Vhad
p353
a(dp354
VNamedEntityTag
p355
g77
sVCharacterOffsetEnd
p356
V76
p357
sVCharacterOffsetBegin
p358
V73
p359
sVPartOfSpeech
p360
VVBD
p361
sVLemma
p362
Vhave
p363
saa(lp364
V23
p365
a(dp366
VNormalizedNamedEntityTag
p367
V23.0
p368
sVLemma
p369
V23
p370
sVCharacterOffsetEnd
p371
V79
p372
sVPartOfSpeech
p373
VCD
p374
sVCharacterOffsetBegin
p375
V77
p376
sVNamedEntityTag
p377
VNUMBER
p378
saa(lp379
Vchocolate
p380
a(dp381
VNamedEntityTag
p382
g77
sVCharacterOffsetEnd
p383
V89
p384
sVCharacterOffsetBegin
p385
V80
p386
sVPartOfSpeech
p387
VNN
p388
sVLemma
p389
Vchocolate
p390
saa(lp391
Vchip
p392
a(dp393
VNamedEntityTag
p394
g77
sVCharacterOffsetEnd
p395
V94
p396
sVCharacterOffsetBegin
p397
V90
p398
sVPartOfSpeech
p399
VNN
p400
sVLemma
p401
Vchip
p402
saa(lp403
Vcookies
p404
a(dp405
VNamedEntityTag
p406
g77
sVCharacterOffsetEnd
p407
V102
p408
sVCharacterOffsetBegin
p409
V95
p410
sVPartOfSpeech
p411
VNNS
p412
sVLemma
p413
Vcookie
p414
saa(lp415
Vand
p416
a(dp417
VNamedEntityTag
p418
g77
sVCharacterOffsetEnd
p419
V106
p420
sVCharacterOffsetBegin
p421
V103
p422
sVPartOfSpeech
p423
VCC
p424
sVLemma
p425
Vand
p426
saa(lp427
V25
p428
a(dp429
VNormalizedNamedEntityTag
p430
V25.0
p431
sVLemma
p432
V25
p433
sVCharacterOffsetEnd
p434
V109
p435
sVPartOfSpeech
p436
VCD
p437
sVCharacterOffsetBegin
p438
V107
p439
sVNamedEntityTag
p440
VNUMBER
p441
saa(lp442
Voatmeal
p443
a(dp444
VNamedEntityTag
p445
g77
sVCharacterOffsetEnd
p446
V117
p447
sVCharacterOffsetBegin
p448
V110
p449
sVPartOfSpeech
p450
VNN
p451
sVLemma
p452
Voatmeal
p453
saa(lp454
Vcookies
p455
a(dp456
VNamedEntityTag
p457
g77
sVCharacterOffsetEnd
p458
V125
p459
sVCharacterOffsetBegin
p460
V118
p461
sVPartOfSpeech
p462
VNNS
p463
sVLemma
p464
Vcookie
p465
saa(lp466
V,
p467
a(dp468
VNamedEntityTag
p469
g77
sVCharacterOffsetEnd
p470
V127
p471
sVCharacterOffsetBegin
p472
V126
p473
sVPartOfSpeech
p474
g467
sVLemma
p475
g467
saa(lp476
Vhow
p477
a(dp478
VNamedEntityTag
p479
g77
sVCharacterOffsetEnd
p480
V131
p481
sVCharacterOffsetBegin
p482
V128
p483
sVPartOfSpeech
p484
VWRB
p485
sVLemma
p486
Vhow
p487
saa(lp488
Vmany
p489
a(dp490
VNamedEntityTag
p491
g77
sVCharacterOffsetEnd
p492
V136
p493
sVCharacterOffsetBegin
p494
V132
p495
sVPartOfSpeech
p496
VJJ
p497
sVLemma
p498
Vmany
p499
saa(lp500
Vbaggies
p501
a(dp502
VNamedEntityTag
p503
g77
sVCharacterOffsetEnd
p504
V144
p505
sVCharacterOffsetBegin
p506
V137
p507
sVPartOfSpeech
p508
VNNS
p509
sVLemma
p510
Vbaggy
p511
saa(lp512
Vcould
p513
a(dp514
VNamedEntityTag
p515
g77
sVCharacterOffsetEnd
p516
V150
p517
sVCharacterOffsetBegin
p518
V145
p519
sVPartOfSpeech
p520
VMD
p521
sVLemma
p522
Vcould
p523
saa(lp524
Vshe
p525
a(dp526
VNamedEntityTag
p527
g77
sVCharacterOffsetEnd
p528
V154
p529
sVCharacterOffsetBegin
p530
V151
p531
sVPartOfSpeech
p532
VPRP
p533
sVLemma
p534
Vshe
p535
saa(lp536
Vmake
p537
a(dp538
VNamedEntityTag
p539
g77
sVCharacterOffsetEnd
p540
V159
p541
sVCharacterOffsetBegin
p542
V155
p543
sVPartOfSpeech
p544
VVB
p545
sVLemma
p546
Vmake
p547
saa(lp548
V?
p549
a(dp550
VNamedEntityTag
p551
g77
sVCharacterOffsetEnd
p552
V161
p553
sVCharacterOffsetBegin
p554
V160
p555
sVPartOfSpeech
p556
g208
sVLemma
p557
g549
saasVindexeddependencies
p558
(lp559
(lp560
Vroot
p561
aVROOT-0
p562
aVmake-18
p563
aa(lp564
Vmark
p565
aVhad-3
p566
aVIf-1
p567
aa(lp568
Vnsubj
p569
aVhad-3
p570
aVshe-2
p571
aa(lp572
Vadvcl
p573
aVmake-18
p574
aVhad-3
p575
aa(lp576
Vnum
p577
aVcookies-7
p578
aV23-4
p579
aa(lp580
Vnn
p581
aVcookies-7
p582
aVchocolate-5
p583
aa(lp584
Vnn
p585
aVcookies-7
p586
aVchip-6
p587
aa(lp588
Vdobj
p589
aVhad-3
p590
aVcookies-7
p591
aa(lp592
Vnum
p593
aVcookies-11
p594
aV25-9
p595
aa(lp596
Vnn
p597
aVcookies-11
p598
aVoatmeal-10
p599
aa(lp600
Vconj_and
p601
aVcookies-7
p602
aVcookies-11
p603
aa(lp604
Vadvmod
p605
aVmake-18
p606
aVhow-13
p607
aa(lp608
Vamod
p609
aVbaggies-15
p610
aVmany-14
p611
aa(lp612
Vdep
p613
aVhow-13
p614
aVbaggies-15
p615
aa(lp616
Vaux
p617
aVmake-18
p618
aVcould-16
p619
aa(lp620
Vnsubj
p621
aVmake-18
p622
aVshe-17
p623
aasas.