(dp0
Vcoref
p1
(lp2
(lp3
(lp4
(lp5
Vthey
p6
aI1
aI1
aI1
aI2
aa(lp7
V23 managers
p8
aI0
aI5
aI4
aI6
aaaasVsentences
p9
(lp10
(dp11
Vparsetree
p12
V(ROOT (S (PP (IN At) (NP (DT a) (NN company) (NN picnic))) (NP (NP (CD 23) (NNS managers)) (CC and) (NP (CD 7) (NNS employees))) (VP (VBD decided) (S (VP (TO to) (VP (VB start) (NP (NP (DT a) (NN game)) (PP (IN of) (NP (NN volleyball)))))))) (. .)))
p13
sVtext
p14
VAt a company picnic 23 managers and 7 employees decided to start a game of volleyball .
p15
sVdependencies
p16
(lp17
(lp18
Vroot
p19
aVROOT
p20
aVdecided
p21
aa(lp22
Vdet
p23
aVpicnic
p24
aVa
p25
aa(lp26
Vnn
p27
aVpicnic
p28
aVcompany
p29
aa(lp30
Vprep_at
p31
aVdecided
p32
aVpicnic
p33
aa(lp34
Vnum
p35
aVmanagers
p36
aV23
p37
aa(lp38
Vnsubj
p39
aVdecided
p40
aVmanagers
p41
aa(lp42
Vnum
p43
aVemployees
p44
aV7
p45
aa(lp46
Vconj_and
p47
aVmanagers
p48
aVemployees
p49
aa(lp50
Vaux
p51
aVstart
p52
aVto
p53
aa(lp54
Vxcomp
p55
aVdecided
p56
aVstart
p57
aa(lp58
Vdet
p59
aVgame
p60
ag25
aa(lp61
Vdobj
p62
aVstart
p63
aVgame
p64
aa(lp65
Vprep_of
p66
aVgame
p67
aVvolleyball
p68
aasVwords
p69
(lp70
(lp71
VAt
p72
a(dp73
VNamedEntityTag
p74
VO
p75
sVCharacterOffsetEnd
p76
V3
p77
sVCharacterOffsetBegin
p78
V1
p79
sVPartOfSpeech
p80
VIN
p81
sVLemma
p82
Vat
p83
saa(lp84
g25
a(dp85
VNamedEntityTag
p86
g75
sVCharacterOffsetEnd
p87
V5
p88
sVCharacterOffsetBegin
p89
V4
p90
sVPartOfSpeech
p91
VDT
p92
sVLemma
p93
g25
saa(lp94
Vcompany
p95
a(dp96
VNamedEntityTag
p97
g75
sVCharacterOffsetEnd
p98
V13
p99
sVCharacterOffsetBegin
p100
V6
p101
sVPartOfSpeech
p102
VNN
p103
sVLemma
p104
Vcompany
p105
saa(lp106
Vpicnic
p107
a(dp108
VNamedEntityTag
p109
g75
sVCharacterOffsetEnd
p110
V20
p111
sVCharacterOffsetBegin
p112
V14
p113
sVPartOfSpeech
p114
VNN
p115
sVLemma
p116
Vpicnic
p117
saa(lp118
V23
p119
a(dp120
VNormalizedNamedEntityTag
p121
V23.0
p122
sVLemma
p123
V23
p124
sVCharacterOffsetEnd
p125
V23
p126
sVPartOfSpeech
p127
VCD
p128
sVCharacterOffsetBegin
p129
V21
p130
sVNamedEntityTag
p131
VNUMBER
p132
saa(lp133
Vmanagers
p134
a(dp135
VNamedEntityTag
p136
g75
sVCharacterOffsetEnd
p137
V32
p138
sVCharacterOffsetBegin
p139
V24
p140
sVPartOfSpeech
p141
VNNS
p142
sVLemma
p143
Vmanager
p144
saa(lp145
Vand
p146
a(dp147
VNamedEntityTag
p148
g75
sVCharacterOffsetEnd
p149
V36
p150
sVCharacterOffsetBegin
p151
V33
p152
sVPartOfSpeech
p153
VCC
p154
sVLemma
p155
Vand
p156
saa(lp157
g45
a(dp158
VNormalizedNamedEntityTag
p159
V7.0
p160
sVLemma
p161
g45
sVCharacterOffsetEnd
p162
V38
p163
sVPartOfSpeech
p164
VCD
p165
sVCharacterOffsetBegin
p166
V37
p167
sVNamedEntityTag
p168
VNUMBER
p169
saa(lp170
Vemployees
p171
a(dp172
VNamedEntityTag
p173
g75
sVCharacterOffsetEnd
p174
V48
p175
sVCharacterOffsetBegin
p176
V39
p177
sVPartOfSpeech
p178
VNNS
p179
sVLemma
p180
Vemployee
p181
saa(lp182
Vdecided
p183
a(dp184
VNamedEntityTag
p185
g75
sVCharacterOffsetEnd
p186
V56
p187
sVCharacterOffsetBegin
p188
V49
p189
sVPartOfSpeech
p190
VVBD
p191
sVLemma
p192
Vdecide
p193
saa(lp194
Vto
p195
a(dp196
VNamedEntityTag
p197
g75
sVCharacterOffsetEnd
p198
V59
p199
sVCharacterOffsetBegin
p200
V57
p201
sVPartOfSpeech
p202
VTO
p203
sVLemma
p204
Vto
p205
saa(lp206
Vstart
p207
a(dp208
VNamedEntityTag
p209
g75
sVCharacterOffsetEnd
p210
V65
p211
sVCharacterOffsetBegin
p212
V60
p213
sVPartOfSpeech
p214
VVB
p215
sVLemma
p216
Vstart
p217
saa(lp218
g25
a(dp219
VNamedEntityTag
p220
g75
sVCharacterOffsetEnd
p221
V67
p222
sVCharacterOffsetBegin
p223
V66
p224
sVPartOfSpeech
p225
VDT
p226
sVLemma
p227
g25
saa(lp228
Vgame
p229
a(dp230
VNamedEntityTag
p231
g75
sVCharacterOffsetEnd
p232
V72
p233
sVCharacterOffsetBegin
p234
V68
p235
sVPartOfSpeech
p236
VNN
p237
sVLemma
p238
Vgame
p239
saa(lp240
Vof
p241
a(dp242
VNamedEntityTag
p243
g75
sVCharacterOffsetEnd
p244
V75
p245
sVCharacterOffsetBegin
p246
V73
p247
sVPartOfSpeech
p248
VIN
p249
sVLemma
p250
Vof
p251
saa(lp252
Vvolleyball
p253
a(dp254
VNamedEntityTag
p255
g75
sVCharacterOffsetEnd
p256
V86
p257
sVCharacterOffsetBegin
p258
V76
p259
sVPartOfSpeech
p260
VNN
p261
sVLemma
p262
Vvolleyball
p263
saa(lp264
V.
p265
a(dp266
VNamedEntityTag
p267
g75
sVCharacterOffsetEnd
p268
V88
p269
sVCharacterOffsetBegin
p270
V87
p271
sVPartOfSpeech
p272
g265
sVLemma
p273
g265
saasVindexeddependencies
p274
(lp275
(lp276
Vroot
p277
aVROOT-0
p278
aVdecided-10
p279
aa(lp280
Vdet
p281
aVpicnic-4
p282
aVa-2
p283
aa(lp284
Vnn
p285
aVpicnic-4
p286
aVcompany-3
p287
aa(lp288
Vprep_at
p289
aVdecided-10
p290
aVpicnic-4
p291
aa(lp292
Vnum
p293
aVmanagers-6
p294
aV23-5
p295
aa(lp296
Vnsubj
p297
aVdecided-10
p298
aVmanagers-6
p299
aa(lp300
Vnum
p301
aVemployees-9
p302
aV7-8
p303
aa(lp304
Vconj_and
p305
aVmanagers-6
p306
aVemployees-9
p307
aa(lp308
Vaux
p309
aVstart-12
p310
aVto-11
p311
aa(lp312
Vxcomp
p313
aVdecided-10
p314
aVstart-12
p315
aa(lp316
Vdet
p317
aVgame-14
p318
aVa-13
p319
aa(lp320
Vdobj
p321
aVstart-12
p322
aVgame-14
p323
aa(lp324
Vprep_of
p325
aVgame-14
p326
aVvolleyball-16
p327
aasa(dp328
Vparsetree
p329
V(ROOT (SBARQ (SBAR (IN If) (S (NP (PRP they)) (VP (VBD split) (PP (IN into) (NP (CD 6) (NNS teams)))))) (WHNP (WHADJP (WRB how) (JJ many)) (NNS people)) (SQ (VP (MD would) (VP (VB be) (PP (IN on) (NP (DT each) (NN team)))))) (. ?)))
p330
sVtext
p331
VIf they split into 6 teams how many people would be on each team ?
p332
sVdependencies
p333
(lp334
(lp335
Vroot
p336
aVROOT
p337
aVbe
p338
aa(lp339
Vmark
p340
aVsplit
p341
aVIf
p342
aa(lp343
Vnsubj
p344
aVsplit
p345
aVthey
p346
aa(lp347
Vdep
p348
aVbe
p349
aVsplit
p350
aa(lp351
Vnum
p352
aVteams
p353
ag101
aa(lp354
Vprep_into
p355
aVsplit
p356
aVteams
p357
aa(lp358
Vadvmod
p359
aVmany
p360
aVhow
p361
aa(lp362
Vamod
p363
aVpeople
p364
aVmany
p365
aa(lp366
Vnsubj
p367
aVbe
p368
aVpeople
p369
aa(lp370
Vaux
p371
aVbe
p372
aVwould
p373
aa(lp374
Vdet
p375
aVteam
p376
aVeach
p377
aa(lp378
Vprep_on
p379
aVbe
p380
aVteam
p381
aasVwords
p382
(lp383
(lp384
VIf
p385
a(dp386
VNamedEntityTag
p387
g75
sVCharacterOffsetEnd
p388
V91
p389
sVCharacterOffsetBegin
p390
V89
p391
sVPartOfSpeech
p392
VIN
p393
sVLemma
p394
Vif
p395
saa(lp396
Vthey
p397
a(dp398
VNamedEntityTag
p399
g75
sVCharacterOffsetEnd
p400
V96
p401
sVCharacterOffsetBegin
p402
V92
p403
sVPartOfSpeech
p404
VPRP
p405
sVLemma
p406
Vthey
p407
saa(lp408
Vsplit
p409
a(dp410
VNamedEntityTag
p411
g75
sVCharacterOffsetEnd
p412
V102
p413
sVCharacterOffsetBegin
p414
V97
p415
sVPartOfSpeech
p416
VVBD
p417
sVLemma
p418
Vsplit
p419
saa(lp420
Vinto
p421
a(dp422
VNamedEntityTag
p423
g75
sVCharacterOffsetEnd
p424
V107
p425
sVCharacterOffsetBegin
p426
V103
p427
sVPartOfSpeech
p428
VIN
p429
sVLemma
p430
Vinto
p431
saa(lp432
g101
a(dp433
VNormalizedNamedEntityTag
p434
V6.0
p435
sVLemma
p436
g101
sVCharacterOffsetEnd
p437
V109
p438
sVPartOfSpeech
p439
VCD
p440
sVCharacterOffsetBegin
p441
V108
p442
sVNamedEntityTag
p443
VNUMBER
p444
saa(lp445
Vteams
p446
a(dp447
VNamedEntityTag
p448
g75
sVCharacterOffsetEnd
p449
V115
p450
sVCharacterOffsetBegin
p451
V110
p452
sVPartOfSpeech
p453
VNNS
p454
sVLemma
p455
Vteam
p456
saa(lp457
Vhow
p458
a(dp459
VNamedEntityTag
p460
g75
sVCharacterOffsetEnd
p461
V119
p462
sVCharacterOffsetBegin
p463
V116
p464
sVPartOfSpeech
p465
VWRB
p466
sVLemma
p467
Vhow
p468
saa(lp469
Vmany
p470
a(dp471
VNamedEntityTag
p472
g75
sVCharacterOffsetEnd
p473
V124
p474
sVCharacterOffsetBegin
p475
V120
p476
sVPartOfSpeech
p477
VJJ
p478
sVLemma
p479
Vmany
p480
saa(lp481
Vpeople
p482
a(dp483
VNamedEntityTag
p484
g75
sVCharacterOffsetEnd
p485
V131
p486
sVCharacterOffsetBegin
p487
V125
p488
sVPartOfSpeech
p489
VNNS
p490
sVLemma
p491
Vpeople
p492
saa(lp493
Vwould
p494
a(dp495
VNamedEntityTag
p496
g75
sVCharacterOffsetEnd
p497
V137
p498
sVCharacterOffsetBegin
p499
V132
p500
sVPartOfSpeech
p501
VMD
p502
sVLemma
p503
Vwould
p504
saa(lp505
Vbe
p506
a(dp507
VNamedEntityTag
p508
g75
sVCharacterOffsetEnd
p509
V140
p510
sVCharacterOffsetBegin
p511
V138
p512
sVPartOfSpeech
p513
VVB
p514
sVLemma
p515
Vbe
p516
saa(lp517
Von
p518
a(dp519
VNamedEntityTag
p520
g75
sVCharacterOffsetEnd
p521
V143
p522
sVCharacterOffsetBegin
p523
V141
p524
sVPartOfSpeech
p525
VIN
p526
sVLemma
p527
Von
p528
saa(lp529
Veach
p530
a(dp531
VNamedEntityTag
p532
g75
sVCharacterOffsetEnd
p533
V148
p534
sVCharacterOffsetBegin
p535
V144
p536
sVPartOfSpeech
p537
VDT
p538
sVLemma
p539
Veach
p540
saa(lp541
Vteam
p542
a(dp543
VNamedEntityTag
p544
g75
sVCharacterOffsetEnd
p545
V153
p546
sVCharacterOffsetBegin
p547
V149
p548
sVPartOfSpeech
p549
VNN
p550
sVLemma
p551
Vteam
p552
saa(lp553
V?
p554
a(dp555
VNamedEntityTag
p556
g75
sVCharacterOffsetEnd
p557
V155
p558
sVCharacterOffsetBegin
p559
V154
p560
sVPartOfSpeech
p561
g265
sVLemma
p562
g554
saasVindexeddependencies
p563
(lp564
(lp565
Vroot
p566
aVROOT-0
p567
aVbe-11
p568
aa(lp569
Vmark
p570
aVsplit-3
p571
aVIf-1
p572
aa(lp573
Vnsubj
p574
aVsplit-3
p575
aVthey-2
p576
aa(lp577
Vdep
p578
aVbe-11
p579
aVsplit-3
p580
aa(lp581
Vnum
p582
aVteams-6
p583
aV6-5
p584
aa(lp585
Vprep_into
p586
aVsplit-3
p587
aVteams-6
p588
aa(lp589
Vadvmod
p590
aVmany-8
p591
aVhow-7
p592
aa(lp593
Vamod
p594
aVpeople-9
p595
aVmany-8
p596
aa(lp597
Vnsubj
p598
aVbe-11
p599
aVpeople-9
p600
aa(lp601
Vaux
p602
aVbe-11
p603
aVwould-10
p604
aa(lp605
Vdet
p606
aVteam-14
p607
aVeach-13
p608
aa(lp609
Vprep_on
p610
aVbe-11
p611
aVteam-14
p612
aasas.