(dp0
Vcoref
p1
(lp2
(lp3
(lp4
(lp5
Vthe art club
p6
aI1
aI9
aI7
aI10
aa(lp7
VThe art club
p8
aI0
aI2
aI0
aI3
aaaa(lp9
(lp10
(lp11
Vthe election
p12
aI1
aI13
aI12
aI14
aa(lp13
Van election to select a president
p14
aI0
aI5
aI4
aI10
aaaa(lp15
(lp16
(lp17
Vthe members
p18
aI2
aI4
aI3
aI5
aa(lp19
Vthe 20 members of the art club
p20
aI1
aI5
aI3
aI10
aaaasVsentences
p21
(lp22
(dp23
Vparsetree
p24
V(ROOT (S (NP (DT The) (NN art) (NN club)) (VP (VBD had) (NP (DT an) (NN election) (S (VP (TO to) (VP (VB select) (NP (DT a) (NN president))))))) (. .)))
p25
sVtext
p26
VThe art club had an election to select a president .
p27
sVdependencies
p28
(lp29
(lp30
Vroot
p31
aVROOT
p32
aVhad
p33
aa(lp34
Vdet
p35
aVclub
p36
aVThe
p37
aa(lp38
Vnn
p39
aVclub
p40
aVart
p41
aa(lp42
Vnsubj
p43
aVhad
p44
aVclub
p45
aa(lp46
Vdet
p47
aVelection
p48
aVan
p49
aa(lp50
Vdobj
p51
aVhad
p52
aVelection
p53
aa(lp54
Vaux
p55
aVselect
p56
aVto
p57
aa(lp58
Vvmod
p59
aVelection
p60
aVselect
p61
aa(lp62
Vdet
p63
aVpresident
p64
aVa
p65
aa(lp66
Vdobj
p67
aVselect
p68
aVpresident
p69
aasVwords
p70
(lp71
(lp72
VThe
p73
a(dp74
VNamedEntityTag
p75
VO
p76
sVCharacterOffsetEnd
p77
V4
p78
sVCharacterOffsetBegin
p79
V1
p80
sVPartOfSpeech
p81
VDT
p82
sVLemma
p83
Vthe
p84
saa(lp85
Vart
p86
a(dp87
VNamedEntityTag
p88
g76
sVCharacterOffsetEnd
p89
V8
p90
sVCharacterOffsetBegin
p91
V5
p92
sVPartOfSpeech
p93
VNN
p94
sVLemma
p95
Vart
p96
saa(lp97
Vclub
p98
a(dp99
VNamedEntityTag
p100
g76
sVCharacterOffsetEnd
p101
V13
p102
sVCharacterOffsetBegin
p103
V9
p104
sVPartOfSpeech
p105
VNN
p106
sVLemma
p107
Vclub
p108
saa(lp109
Vhad
p110
a(dp111
VNamedEntityTag
p112
g76
sVCharacterOffsetEnd
p113
V17
p114
sVCharacterOffsetBegin
p115
V14
p116
sVPartOfSpeech
p117
VVBD
p118
sVLemma
p119
Vhave
p120
saa(lp121
Van
p122
a(dp123
VNamedEntityTag
p124
g76
sVCharacterOffsetEnd
p125
V20
p126
sVCharacterOffsetBegin
p127
V18
p128
sVPartOfSpeech
p129
VDT
p130
sVLemma
p131
g65
saa(lp132
Velection
p133
a(dp134
VNamedEntityTag
p135
g76
sVCharacterOffsetEnd
p136
V29
p137
sVCharacterOffsetBegin
p138
V21
p139
sVPartOfSpeech
p140
VNN
p141
sVLemma
p142
Velection
p143
saa(lp144
Vto
p145
a(dp146
VNamedEntityTag
p147
g76
sVCharacterOffsetEnd
p148
V32
p149
sVCharacterOffsetBegin
p150
V30
p151
sVPartOfSpeech
p152
VTO
p153
sVLemma
p154
Vto
p155
saa(lp156
Vselect
p157
a(dp158
VNamedEntityTag
p159
g76
sVCharacterOffsetEnd
p160
V39
p161
sVCharacterOffsetBegin
p162
V33
p163
sVPartOfSpeech
p164
VVB
p165
sVLemma
p166
Vselect
p167
saa(lp168
g65
a(dp169
VNamedEntityTag
p170
g76
sVCharacterOffsetEnd
p171
V41
p172
sVCharacterOffsetBegin
p173
V40
p174
sVPartOfSpeech
p175
VDT
p176
sVLemma
p177
g65
saa(lp178
Vpresident
p179
a(dp180
VNamedEntityTag
p181
g76
sVCharacterOffsetEnd
p182
V51
p183
sVCharacterOffsetBegin
p184
V42
p185
sVPartOfSpeech
p186
VNN
p187
sVLemma
p188
Vpresident
p189
saa(lp190
V.
p191
a(dp192
VNamedEntityTag
p193
g76
sVCharacterOffsetEnd
p194
V53
p195
sVCharacterOffsetBegin
p196
V52
p197
sVPartOfSpeech
p198
g191
sVLemma
p199
g191
saasVindexeddependencies
p200
(lp201
(lp202
Vroot
p203
aVROOT-0
p204
aVhad-4
p205
aa(lp206
Vdet
p207
aVclub-3
p208
aVThe-1
p209
aa(lp210
Vnn
p211
aVclub-3
p212
aVart-2
p213
aa(lp214
Vnsubj
p215
aVhad-4
p216
aVclub-3
p217
aa(lp218
Vdet
p219
aVelection-6
p220
aVan-5
p221
aa(lp222
Vdobj
p223
aVhad-4
p224
aVelection-6
p225
aa(lp226
Vaux
p227
aVselect-8
p228
aVto-7
p229
aa(lp230
Vvmod
p231
aVelection-6
p232
aVselect-8
p233
aa(lp234
Vdet
p235
aVpresident-10
p236
aVa-9
p237
aa(lp238
Vdobj
p239
aVselect-8
p240
aVpresident-10
p241
aasa(dp242
Vparsetree
p243
V(ROOT (S (NP (NP (CD 4)) (PP (ADVP (IN out)) (IN of) (NP (NP (DT the) (CD 20) (NNS members)) (PP (IN of) (NP (DT the) (NN art) (NN club)))))) (VP (VBD voted) (PP (IN in) (NP (DT the) (NN election)))) (. .)))
p244
sVtext
p245
V4 out of the 20 members of the art club voted in the election .
p246
sVdependencies
p247
(lp248
(lp249
Vroot
p250
aVROOT
p251
aVvoted
p252
aa(lp253
Vnsubj
p254
aVvoted
p255
ag78
aa(lp256
Vdet
p257
aVmembers
p258
aVthe
p259
aa(lp260
Vnum
p261
aVmembers
p262
aV20
p263
aa(lp264
Vprep_out_of
p265
ag78
aVmembers
p266
aa(lp267
Vdet
p268
aVclub
p269
aVthe
p270
aa(lp271
Vnn
p272
aVclub
p273
aVart
p274
aa(lp275
Vprep_of
p276
aVmembers
p277
aVclub
p278
aa(lp279
Vdet
p280
aVelection
p281
aVthe
p282
aa(lp283
Vprep_in
p284
aVvoted
p285
aVelection
p286
aasVwords
p287
(lp288
(lp289
g78
a(dp290
VNormalizedNamedEntityTag
p291
V4.0
p292
sVLemma
p293
g78
sVCharacterOffsetEnd
p294
V55
p295
sVPartOfSpeech
p296
VCD
p297
sVCharacterOffsetBegin
p298
V54
p299
sVNamedEntityTag
p300
VNUMBER
p301
saa(lp302
Vout
p303
a(dp304
VNamedEntityTag
p305
g76
sVCharacterOffsetEnd
p306
V59
p307
sVCharacterOffsetBegin
p308
V56
p309
sVPartOfSpeech
p310
VIN
p311
sVLemma
p312
Vout
p313
saa(lp314
Vof
p315
a(dp316
VNamedEntityTag
p317
g76
sVCharacterOffsetEnd
p318
V62
p319
sVCharacterOffsetBegin
p320
V60
p321
sVPartOfSpeech
p322
VIN
p323
sVLemma
p324
Vof
p325
saa(lp326
Vthe
p327
a(dp328
VNamedEntityTag
p329
g76
sVCharacterOffsetEnd
p330
V66
p331
sVCharacterOffsetBegin
p332
V63
p333
sVPartOfSpeech
p334
VDT
p335
sVLemma
p336
Vthe
p337
saa(lp338
V20
p339
a(dp340
VNormalizedNamedEntityTag
p341
V20.0
p342
sVLemma
p343
V20
p344
sVCharacterOffsetEnd
p345
V69
p346
sVPartOfSpeech
p347
VCD
p348
sVCharacterOffsetBegin
p349
V67
p350
sVNamedEntityTag
p351
VNUMBER
p352
saa(lp353
Vmembers
p354
a(dp355
VNamedEntityTag
p356
g76
sVCharacterOffsetEnd
p357
V77
p358
sVCharacterOffsetBegin
p359
V70
p360
sVPartOfSpeech
p361
VNNS
p362
sVLemma
p363
Vmember
p364
saa(lp365
Vof
p366
a(dp367
VNamedEntityTag
p368
g76
sVCharacterOffsetEnd
p369
V80
p370
sVCharacterOffsetBegin
p371
V78
p372
sVPartOfSpeech
p373
VIN
p374
sVLemma
p375
Vof
p376
saa(lp377
Vthe
p378
a(dp379
VNamedEntityTag
p380
g76
sVCharacterOffsetEnd
p381
V84
p382
sVCharacterOffsetBegin
p383
V81
p384
sVPartOfSpeech
p385
VDT
p386
sVLemma
p387
Vthe
p388
saa(lp389
Vart
p390
a(dp391
VNamedEntityTag
p392
g76
sVCharacterOffsetEnd
p393
V88
p394
sVCharacterOffsetBegin
p395
V85
p396
sVPartOfSpeech
p397
VNN
p398
sVLemma
p399
Vart
p400
saa(lp401
Vclub
p402
a(dp403
VNamedEntityTag
p404
g76
sVCharacterOffsetEnd
p405
V93
p406
sVCharacterOffsetBegin
p407
V89
p408
sVPartOfSpeech
p409
VNN
p410
sVLemma
p411
Vclub
p412
saa(lp413
Vvoted
p414
a(dp415
VNamedEntityTag
p416
g76
sVCharacterOffsetEnd
p417
V99
p418
sVCharacterOffsetBegin
p419
V94
p420
sVPartOfSpeech
p421
VVBD
p422
sVLemma
p423
Vvote
p424
saa(lp425
Vin
p426
a(dp427
VNamedEntityTag
p428
g76
sVCharacterOffsetEnd
p429
V102
p430
sVCharacterOffsetBegin
p431
V100
p432
sVPartOfSpeech
p433
VIN
p434
sVLemma
p435
Vin
p436
saa(lp437
Vthe
p438
a(dp439
VNamedEntityTag
p440
g76
sVCharacterOffsetEnd
p441
V106
p442
sVCharacterOffsetBegin
p443
V103
p444
sVPartOfSpeech
p445
VDT
p446
sVLemma
p447
Vthe
p448
saa(lp449
Velection
p450
a(dp451
VNamedEntityTag
p452
g76
sVCharacterOffsetEnd
p453
V115
p454
sVCharacterOffsetBegin
p455
V107
p456
sVPartOfSpeech
p457
VNN
p458
sVLemma
p459
Velection
p460
saa(lp461
g191
a(dp462
VNamedEntityTag
p463
g76
sVCharacterOffsetEnd
p464
V117
p465
sVCharacterOffsetBegin
p466
V116
p467
sVPartOfSpeech
p468
g191
sVLemma
p469
g191
saasVindexeddependencies
p470
(lp471
(lp472
Vroot
p473
aVROOT-0
p474
aVvoted-11
p475
aa(lp476
Vnsubj
p477
aVvoted-11
p478
aV4-1
p479
aa(lp480
Vdet
p481
aVmembers-6
p482
aVthe-4
p483
aa(lp484
Vnum
p485
aVmembers-6
p486
aV20-5
p487
aa(lp488
Vprep_out_of
p489
aV4-1
p490
aVmembers-6
p491
aa(lp492
Vdet
p493
aVclub-10
p494
aVthe-8
p495
aa(lp496
Vnn
p497
aVclub-10
p498
aVart-9
p499
aa(lp500
Vprep_of
p501
aVmembers-6
p502
aVclub-10
p503
aa(lp504
Vdet
p505
aVelection-14
p506
aVthe-13
p507
aa(lp508
Vprep_in
p509
aVvoted-11
p510
aVelection-14
p511
aasa(dp512
Vparsetree
p513
V(ROOT (SBARQ (WHNP (WHNP (WDT What) (NN percentage)) (PP (IN of) (NP (DT the) (NNS members)))) (SQ (VP (VBD voted))) (. ?)))
p514
sVtext
p515
VWhat percentage of the members voted ?
p516
sVdependencies
p517
(lp518
(lp519
Vroot
p520
aVROOT
p521
aVvoted
p522
aa(lp523
Vdet
p524
aVpercentage
p525
aVWhat
p526
aa(lp527
Vnsubj
p528
aVvoted
p529
aVpercentage
p530
aa(lp531
Vdet
p532
aVmembers
p533
aVthe
p534
aa(lp535
Vprep_of
p536
aVpercentage
p537
aVmembers
p538
aasVwords
p539
(lp540
(lp541
VWhat
p542
a(dp543
VNamedEntityTag
p544
g76
sVCharacterOffsetEnd
p545
V122
p546
sVCharacterOffsetBegin
p547
V118
p548
sVPartOfSpeech
p549
VWDT
p550
sVLemma
p551
Vwhat
p552
saa(lp553
Vpercentage
p554
a(dp555
VNamedEntityTag
p556
g76
sVCharacterOffsetEnd
p557
V133
p558
sVCharacterOffsetBegin
p559
V123
p560
sVPartOfSpeech
p561
VNN
p562
sVLemma
p563
Vpercentage
p564
saa(lp565
Vof
p566
a(dp567
VNamedEntityTag
p568
g76
sVCharacterOffsetEnd
p569
V136
p570
sVCharacterOffsetBegin
p571
V134
p572
sVPartOfSpeech
p573
VIN
p574
sVLemma
p575
Vof
p576
saa(lp577
Vthe
p578
a(dp579
VNamedEntityTag
p580
g76
sVCharacterOffsetEnd
p581
V140
p582
sVCharacterOffsetBegin
p583
V137
p584
sVPartOfSpeech
p585
VDT
p586
sVLemma
p587
Vthe
p588
saa(lp589
Vmembers
p590
a(dp591
VNamedEntityTag
p592
g76
sVCharacterOffsetEnd
p593
V148
p594
sVCharacterOffsetBegin
p595
V141
p596
sVPartOfSpeech
p597
VNNS
p598
sVLemma
p599
Vmember
p600
saa(lp601
Vvoted
p602
a(dp603
VNamedEntityTag
p604
g76
sVCharacterOffsetEnd
p605
V154
p606
sVCharacterOffsetBegin
p607
V149
p608
sVPartOfSpeech
p609
VVBD
p610
sVLemma
p611
Vvote
p612
saa(lp613
V?
p614
a(dp615
VNamedEntityTag
p616
g76
sVCharacterOffsetEnd
p617
V156
p618
sVCharacterOffsetBegin
p619
V155
p620
sVPartOfSpeech
p621
g191
sVLemma
p622
g614
saasVindexeddependencies
p623
(lp624
(lp625
Vroot
p626
aVROOT-0
p627
aVvoted-6
p628
aa(lp629
Vdet
p630
aVpercentage-2
p631
aVWhat-1
p632
aa(lp633
Vnsubj
p634
aVvoted-6
p635
aVpercentage-2
p636
aa(lp637
Vdet
p638
aVmembers-5
p639
aVthe-4
p640
aa(lp641
Vprep_of
p642
aVpercentage-2
p643
aVmembers-5
p644
aasas.