(dp0
Vcoref
p1
(lp2
(lp3
(lp4
(lp5
VThe council
p6
aI1
aI1
aI0
aI2
aa(lp7
VThe city council
p8
aI0
aI2
aI0
aI3
aaaa(lp9
(lp10
(lp11
Vthe new tax
p12
aI1
aI18
aI16
aI19
aa(lp13
Va new tax
p14
aI0
aI7
aI5
aI8
aaa(lp15
(lp16
Vthe tax
p17
aI2
aI8
aI7
aI9
aa(lp18
Va new tax
p19
aI0
aI7
aI5
aI8
aaaa(lp20
(lp21
(lp22
Vfavor of the tax
p23
aI2
aI5
aI5
aI9
aa(lp24
Vfavor of the new tax
p25
aI1
aI14
aI14
aI19
aaaasVsentences
p26
(lp27
(dp28
Vparsetree
p29
V(ROOT (S (NP (DT The) (NN city) (NN council)) (VP (VBD voted) (PP (IN on) (NP (DT a) (JJ new) (NN tax)))) (. .)))
p30
sVtext
p31
VThe city council voted on a new tax .
p32
sVdependencies
p33
(lp34
(lp35
Vroot
p36
aVROOT
p37
aVvoted
p38
aa(lp39
Vdet
p40
aVcouncil
p41
aVThe
p42
aa(lp43
Vnn
p44
aVcouncil
p45
aVcity
p46
aa(lp47
Vnsubj
p48
aVvoted
p49
aVcouncil
p50
aa(lp51
Vdet
p52
aVtax
p53
aVa
p54
aa(lp55
Vamod
p56
aVtax
p57
aVnew
p58
aa(lp59
Vprep_on
p60
aVvoted
p61
aVtax
p62
aasVwords
p63
(lp64
(lp65
VThe
p66
a(dp67
VNamedEntityTag
p68
VO
p69
sVCharacterOffsetEnd
p70
V4
p71
sVCharacterOffsetBegin
p72
V1
p73
sVPartOfSpeech
p74
VDT
p75
sVLemma
p76
Vthe
p77
saa(lp78
Vcity
p79
a(dp80
VNamedEntityTag
p81
g69
sVCharacterOffsetEnd
p82
V9
p83
sVCharacterOffsetBegin
p84
V5
p85
sVPartOfSpeech
p86
VNN
p87
sVLemma
p88
Vcity
p89
saa(lp90
Vcouncil
p91
a(dp92
VNamedEntityTag
p93
g69
sVCharacterOffsetEnd
p94
V17
p95
sVCharacterOffsetBegin
p96
V10
p97
sVPartOfSpeech
p98
VNN
p99
sVLemma
p100
Vcouncil
p101
saa(lp102
Vvoted
p103
a(dp104
VNamedEntityTag
p105
g69
sVCharacterOffsetEnd
p106
V23
p107
sVCharacterOffsetBegin
p108
V18
p109
sVPartOfSpeech
p110
VVBD
p111
sVLemma
p112
Vvote
p113
saa(lp114
Von
p115
a(dp116
VNamedEntityTag
p117
g69
sVCharacterOffsetEnd
p118
V26
p119
sVCharacterOffsetBegin
p120
V24
p121
sVPartOfSpeech
p122
VIN
p123
sVLemma
p124
Von
p125
saa(lp126
g54
a(dp127
VNamedEntityTag
p128
g69
sVCharacterOffsetEnd
p129
V28
p130
sVCharacterOffsetBegin
p131
V27
p132
sVPartOfSpeech
p133
VDT
p134
sVLemma
p135
g54
saa(lp136
Vnew
p137
a(dp138
VNamedEntityTag
p139
g69
sVCharacterOffsetEnd
p140
V32
p141
sVCharacterOffsetBegin
p142
V29
p143
sVPartOfSpeech
p144
VJJ
p145
sVLemma
p146
Vnew
p147
saa(lp148
Vtax
p149
a(dp150
VNamedEntityTag
p151
g69
sVCharacterOffsetEnd
p152
V36
p153
sVCharacterOffsetBegin
p154
V33
p155
sVPartOfSpeech
p156
VNN
p157
sVLemma
p158
Vtax
p159
saa(lp160
V.
p161
a(dp162
VNamedEntityTag
p163
g69
sVCharacterOffsetEnd
p164
V38
p165
sVCharacterOffsetBegin
p166
V37
p167
sVPartOfSpeech
p168
g161
sVLemma
p169
g161
saasVindexeddependencies
p170
(lp171
(lp172
Vroot
p173
aVROOT-0
p174
aVvoted-4
p175
aa(lp176
Vdet
p177
aVcouncil-3
p178
aVThe-1
p179
aa(lp180
Vnn
p181
aVcouncil-3
p182
aVcity-2
p183
aa(lp184
Vnsubj
p185
aVvoted-4
p186
aVcouncil-3
p187
aa(lp188
Vdet
p189
aVtax-8
p190
aVa-6
p191
aa(lp192
Vamod
p193
aVtax-8
p194
aVnew-7
p195
aa(lp196
Vprep_on
p197
aVvoted-4
p198
aVtax-8
p199
aasa(dp200
Vparsetree
p201
V(ROOT (S (S (NP (DT The) (NN council)) (VP (VBZ has) (NP (CD 40) (NNS members)))) (CC and) (S (NP (NP (CD 0.7) (NNS times)) (PP (IN of) (NP (DT the) (NN council) (NNS members)))) (VP (VBD voted) (PP (IN in) (NP (NP (NN favor)) (PP (IN of) (NP (DT the) (JJ new) (NN tax))))))) (. .)))
p202
sVtext
p203
VThe council has 40 members and 0.7 times of the council members voted in favor of the new tax .
p204
sVdependencies
p205
(lp206
(lp207
Vroot
p208
aVROOT
p209
aVhas
p210
aa(lp211
Vdet
p212
aVcouncil
p213
aVThe
p214
aa(lp215
Vnsubj
p216
aVhas
p217
aVcouncil
p218
aa(lp219
Vnum
p220
aVmembers
p221
aV40
p222
aa(lp223
Vdobj
p224
aVhas
p225
aVmembers
p226
aa(lp227
Vnum
p228
aVtimes
p229
aV0.7
p230
aa(lp231
Vnsubj
p232
aVvoted
p233
aVtimes
p234
aa(lp235
Vdet
p236
aVmembers
p237
aVthe
p238
aa(lp239
Vnn
p240
aVmembers
p241
aVcouncil
p242
aa(lp243
Vprep_of
p244
aVtimes
p245
aVmembers
p246
aa(lp247
Vconj_and
p248
aVhas
p249
aVvoted
p250
aa(lp251
Vprep_in
p252
aVvoted
p253
aVfavor
p254
aa(lp255
Vdet
p256
aVtax
p257
aVthe
p258
aa(lp259
Vamod
p260
aVtax
p261
aVnew
p262
aa(lp263
Vprep_of
p264
aVfavor
p265
aVtax
p266
aasVwords
p267
(lp268
(lp269
VThe
p270
a(dp271
VNamedEntityTag
p272
g69
sVCharacterOffsetEnd
p273
V42
p274
sVCharacterOffsetBegin
p275
V39
p276
sVPartOfSpeech
p277
VDT
p278
sVLemma
p279
Vthe
p280
saa(lp281
Vcouncil
p282
a(dp283
VNamedEntityTag
p284
g69
sVCharacterOffsetEnd
p285
V50
p286
sVCharacterOffsetBegin
p287
V43
p288
sVPartOfSpeech
p289
VNN
p290
sVLemma
p291
Vcouncil
p292
saa(lp293
Vhas
p294
a(dp295
VNamedEntityTag
p296
g69
sVCharacterOffsetEnd
p297
V54
p298
sVCharacterOffsetBegin
p299
V51
p300
sVPartOfSpeech
p301
VVBZ
p302
sVLemma
p303
Vhave
p304
saa(lp305
V40
p306
a(dp307
VNormalizedNamedEntityTag
p308
V40.0
p309
sVLemma
p310
V40
p311
sVCharacterOffsetEnd
p312
V57
p313
sVPartOfSpeech
p314
VCD
p315
sVCharacterOffsetBegin
p316
V55
p317
sVNamedEntityTag
p318
VNUMBER
p319
saa(lp320
Vmembers
p321
a(dp322
VNamedEntityTag
p323
g69
sVCharacterOffsetEnd
p324
V65
p325
sVCharacterOffsetBegin
p326
V58
p327
sVPartOfSpeech
p328
VNNS
p329
sVLemma
p330
Vmember
p331
saa(lp332
Vand
p333
a(dp334
VNamedEntityTag
p335
g69
sVCharacterOffsetEnd
p336
V69
p337
sVCharacterOffsetBegin
p338
V66
p339
sVPartOfSpeech
p340
VCC
p341
sVLemma
p342
Vand
p343
saa(lp344
V0.7
p345
a(dp346
VNormalizedNamedEntityTag
p347
V0.7
p348
sVLemma
p349
V0.7
p350
sVCharacterOffsetEnd
p351
V73
p352
sVPartOfSpeech
p353
VCD
p354
sVCharacterOffsetBegin
p355
V70
p356
sVNamedEntityTag
p357
VNUMBER
p358
saa(lp359
Vtimes
p360
a(dp361
VNamedEntityTag
p362
g69
sVCharacterOffsetEnd
p363
V79
p364
sVCharacterOffsetBegin
p365
V74
p366
sVPartOfSpeech
p367
VNNS
p368
sVLemma
p369
Vtime
p370
saa(lp371
Vof
p372
a(dp373
VNamedEntityTag
p374
g69
sVCharacterOffsetEnd
p375
V82
p376
sVCharacterOffsetBegin
p377
V80
p378
sVPartOfSpeech
p379
VIN
p380
sVLemma
p381
Vof
p382
saa(lp383
Vthe
p384
a(dp385
VNamedEntityTag
p386
g69
sVCharacterOffsetEnd
p387
V86
p388
sVCharacterOffsetBegin
p389
V83
p390
sVPartOfSpeech
p391
VDT
p392
sVLemma
p393
Vthe
p394
saa(lp395
Vcouncil
p396
a(dp397
VNamedEntityTag
p398
g69
sVCharacterOffsetEnd
p399
V94
p400
sVCharacterOffsetBegin
p401
V87
p402
sVPartOfSpeech
p403
VNN
p404
sVLemma
p405
Vcouncil
p406
saa(lp407
Vmembers
p408
a(dp409
VNamedEntityTag
p410
g69
sVCharacterOffsetEnd
p411
V102
p412
sVCharacterOffsetBegin
p413
V95
p414
sVPartOfSpeech
p415
VNNS
p416
sVLemma
p417
Vmember
p418
saa(lp419
Vvoted
p420
a(dp421
VNamedEntityTag
p422
g69
sVCharacterOffsetEnd
p423
V108
p424
sVCharacterOffsetBegin
p425
V103
p426
sVPartOfSpeech
p427
VVBD
p428
sVLemma
p429
Vvote
p430
saa(lp431
Vin
p432
a(dp433
VNamedEntityTag
p434
g69
sVCharacterOffsetEnd
p435
V111
p436
sVCharacterOffsetBegin
p437
V109
p438
sVPartOfSpeech
p439
VIN
p440
sVLemma
p441
Vin
p442
saa(lp443
Vfavor
p444
a(dp445
VNamedEntityTag
p446
g69
sVCharacterOffsetEnd
p447
V117
p448
sVCharacterOffsetBegin
p449
V112
p450
sVPartOfSpeech
p451
VNN
p452
sVLemma
p453
Vfavor
p454
saa(lp455
Vof
p456
a(dp457
VNamedEntityTag
p458
g69
sVCharacterOffsetEnd
p459
V120
p460
sVCharacterOffsetBegin
p461
V118
p462
sVPartOfSpeech
p463
VIN
p464
sVLemma
p465
Vof
p466
saa(lp467
Vthe
p468
a(dp469
VNamedEntityTag
p470
g69
sVCharacterOffsetEnd
p471
V124
p472
sVCharacterOffsetBegin
p473
V121
p474
sVPartOfSpeech
p475
VDT
p476
sVLemma
p477
Vthe
p478
saa(lp479
Vnew
p480
a(dp481
VNamedEntityTag
p482
g69
sVCharacterOffsetEnd
p483
V128
p484
sVCharacterOffsetBegin
p485
V125
p486
sVPartOfSpeech
p487
VJJ
p488
sVLemma
p489
Vnew
p490
saa(lp491
Vtax
p492
a(dp493
VNamedEntityTag
p494
g69
sVCharacterOffsetEnd
p495
V132
p496
sVCharacterOffsetBegin
p497
V129
p498
sVPartOfSpeech
p499
VNN
p500
sVLemma
p501
Vtax
p502
saa(lp503
g161
a(dp504
VNamedEntityTag
p505
g69
sVCharacterOffsetEnd
p506
V134
p507
sVCharacterOffsetBegin
p508
V133
p509
sVPartOfSpeech
p510
g161
sVLemma
p511
g161
saasVindexeddependencies
p512
(lp513
(lp514
Vroot
p515
aVROOT-0
p516
aVhas-3
p517
aa(lp518
Vdet
p519
aVcouncil-2
p520
aVThe-1
p521
aa(lp522
Vnsubj
p523
aVhas-3
p524
aVcouncil-2
p525
aa(lp526
Vnum
p527
aVmembers-5
p528
aV40-4
p529
aa(lp530
Vdobj
p531
aVhas-3
p532
aVmembers-5
p533
aa(lp534
Vnum
p535
aVtimes-8
p536
aV0.7-7
p537
aa(lp538
Vnsubj
p539
aVvoted-13
p540
aVtimes-8
p541
aa(lp542
Vdet
p543
aVmembers-12
p544
aVthe-10
p545
aa(lp546
Vnn
p547
aVmembers-12
p548
aVcouncil-11
p549
aa(lp550
Vprep_of
p551
aVtimes-8
p552
aVmembers-12
p553
aa(lp554
Vconj_and
p555
aVhas-3
p556
aVvoted-13
p557
aa(lp558
Vprep_in
p559
aVvoted-13
p560
aVfavor-15
p561
aa(lp562
Vdet
p563
aVtax-19
p564
aVthe-17
p565
aa(lp566
Vamod
p567
aVtax-19
p568
aVnew-18
p569
aa(lp570
Vprep_of
p571
aVfavor-15
p572
aVtax-19
p573
aasa(dp574
Vparsetree
p575
V(ROOT (SBARQ (WHNP (WHADJP (WRB How) (JJ many)) (NNS members)) (SQ (VP (VBD voted) (PP (IN in) (NP (NP (NN favor)) (PP (IN of) (NP (DT the) (NN tax))))))) (. ?)))
p576
sVtext
p577
VHow many members voted in favor of the tax ?
p578
sVdependencies
p579
(lp580
(lp581
Vroot
p582
aVROOT
p583
aVvoted
p584
aa(lp585
Vadvmod
p586
aVmany
p587
aVHow
p588
aa(lp589
Vamod
p590
aVmembers
p591
aVmany
p592
aa(lp593
Vnsubj
p594
aVvoted
p595
aVmembers
p596
aa(lp597
Vprep_in
p598
aVvoted
p599
aVfavor
p600
aa(lp601
Vdet
p602
aVtax
p603
aVthe
p604
aa(lp605
Vprep_of
p606
aVfavor
p607
aVtax
p608
aasVwords
p609
(lp610
(lp611
VHow
p612
a(dp613
VNamedEntityTag
p614
g69
sVCharacterOffsetEnd
p615
V138
p616
sVCharacterOffsetBegin
p617
V135
p618
sVPartOfSpeech
p619
VWRB
p620
sVLemma
p621
Vhow
p622
saa(lp623
Vmany
p624
a(dp625
VNamedEntityTag
p626
g69
sVCharacterOffsetEnd
p627
V143
p628
sVCharacterOffsetBegin
p629
V139
p630
sVPartOfSpeech
p631
VJJ
p632
sVLemma
p633
Vmany
p634
saa(lp635
Vmembers
p636
a(dp637
VNamedEntityTag
p638
g69
sVCharacterOffsetEnd
p639
V151
p640
sVCharacterOffsetBegin
p641
V144
p642
sVPartOfSpeech
p643
VNNS
p644
sVLemma
p645
Vmember
p646
saa(lp647
Vvoted
p648
a(dp649
VNamedEntityTag
p650
g69
sVCharacterOffsetEnd
p651
V157
p652
sVCharacterOffsetBegin
p653
V152
p654
sVPartOfSpeech
p655
VVBD
p656
sVLemma
p657
Vvote
p658
saa(lp659
Vin
p660
a(dp661
VNamedEntityTag
p662
g69
sVCharacterOffsetEnd
p663
V160
p664
sVCharacterOffsetBegin
p665
V158
p666
sVPartOfSpeech
p667
VIN
p668
sVLemma
p669
Vin
p670
saa(lp671
Vfavor
p672
a(dp673
VNamedEntityTag
p674
g69
sVCharacterOffsetEnd
p675
V166
p676
sVCharacterOffsetBegin
p677
V161
p678
sVPartOfSpeech
p679
VNN
p680
sVLemma
p681
Vfavor
p682
saa(lp683
Vof
p684
a(dp685
VNamedEntityTag
p686
g69
sVCharacterOffsetEnd
p687
V169
p688
sVCharacterOffsetBegin
p689
V167
p690
sVPartOfSpeech
p691
VIN
p692
sVLemma
p693
Vof
p694
saa(lp695
Vthe
p696
a(dp697
VNamedEntityTag
p698
g69
sVCharacterOffsetEnd
p699
V173
p700
sVCharacterOffsetBegin
p701
V170
p702
sVPartOfSpeech
p703
VDT
p704
sVLemma
p705
Vthe
p706
saa(lp707
Vtax
p708
a(dp709
VNamedEntityTag
p710
g69
sVCharacterOffsetEnd
p711
V177
p712
sVCharacterOffsetBegin
p713
V174
p714
sVPartOfSpeech
p715
VNN
p716
sVLemma
p717
Vtax
p718
saa(lp719
V?
p720
a(dp721
VNamedEntityTag
p722
g69
sVCharacterOffsetEnd
p723
V179
p724
sVCharacterOffsetBegin
p725
V178
p726
sVPartOfSpeech
p727
g161
sVLemma
p728
g720
saasVindexeddependencies
p729
(lp730
(lp731
Vroot
p732
aVROOT-0
p733
aVvoted-4
p734
aa(lp735
Vadvmod
p736
aVmany-2
p737
aVHow-1
p738
aa(lp739
Vamod
p740
aVmembers-3
p741
aVmany-2
p742
aa(lp743
Vnsubj
p744
aVvoted-4
p745
aVmembers-3
p746
aa(lp747
Vprep_in
p748
aVvoted-4
p749
aVfavor-6
p750
aa(lp751
Vdet
p752
aVtax-9
p753
aVthe-8
p754
aa(lp755
Vprep_of
p756
aVfavor-6
p757
aVtax-9
p758
aasas.