(dp0
Vcoref
p1
(lp2
(lp3
(lp4
(lp5
Vshe
p6
aI1
aI1
aI1
aI2
aa(lp7
VAmy
p8
aI0
aI2
aI2
aI3
aaa(lp9
(lp10
Vher
p11
aI1
aI14
aI14
aI15
aa(lp12
VAmy
p13
aI0
aI2
aI2
aI3
aaaa(lp14
(lp15
(lp16
Vit
p17
aI1
aI12
aI12
aI13
aa(lp18
V4
p19
aI1
aI4
aI4
aI5
aaaasVsentences
p20
(lp21
(dp22
Vparsetree
p23
V(ROOT (S (PP (IN For) (NP (NN homework))) (NP (NNP Amy)) (VP (VBD had) (NP (NP (CD 18) (NN math) (NNS problems)) (CC and) (NP (CD 6) (NN spelling) (NNS problems)))) (. .)))
p24
sVtext
p25
VFor homework Amy had 18 math problems and 6 spelling problems .
p26
sVdependencies
p27
(lp28
(lp29
Vroot
p30
aVROOT
p31
aVhad
p32
aa(lp33
Vprep_for
p34
aVhad
p35
aVhomework
p36
aa(lp37
Vnsubj
p38
aVhad
p39
aVAmy
p40
aa(lp41
Vnum
p42
aVproblems
p43
aV18
p44
aa(lp45
Vnn
p46
aVproblems
p47
aVmath
p48
aa(lp49
Vdobj
p50
aVhad
p51
aVproblems
p52
aa(lp53
Vnum
p54
aVproblems
p55
aV6
p56
aa(lp57
Vnn
p58
aVproblems
p59
aVspelling
p60
aa(lp61
Vconj_and
p62
aVproblems
p63
aVproblems
p64
aasVwords
p65
(lp66
(lp67
VFor
p68
a(dp69
VNamedEntityTag
p70
VO
p71
sVCharacterOffsetEnd
p72
g19
sVCharacterOffsetBegin
p73
V1
p74
sVPartOfSpeech
p75
VIN
p76
sVLemma
p77
Vfor
p78
saa(lp79
Vhomework
p80
a(dp81
VNamedEntityTag
p82
g71
sVCharacterOffsetEnd
p83
V13
p84
sVCharacterOffsetBegin
p85
V5
p86
sVPartOfSpeech
p87
VNN
p88
sVLemma
p89
Vhomework
p90
saa(lp91
VAmy
p92
a(dp93
VNamedEntityTag
p94
VPERSON
p95
sVCharacterOffsetEnd
p96
V17
p97
sVCharacterOffsetBegin
p98
V14
p99
sVPartOfSpeech
p100
VNNP
p101
sVLemma
p102
VAmy
p103
saa(lp104
Vhad
p105
a(dp106
VNamedEntityTag
p107
g71
sVCharacterOffsetEnd
p108
V21
p109
sVCharacterOffsetBegin
p110
V18
p111
sVPartOfSpeech
p112
VVBD
p113
sVLemma
p114
Vhave
p115
saa(lp116
V18
p117
a(dp118
VNormalizedNamedEntityTag
p119
V18.0
p120
sVLemma
p121
V18
p122
sVCharacterOffsetEnd
p123
V24
p124
sVPartOfSpeech
p125
VCD
p126
sVCharacterOffsetBegin
p127
V22
p128
sVNamedEntityTag
p129
VNUMBER
p130
saa(lp131
Vmath
p132
a(dp133
VNamedEntityTag
p134
g71
sVCharacterOffsetEnd
p135
V29
p136
sVCharacterOffsetBegin
p137
V25
p138
sVPartOfSpeech
p139
VNN
p140
sVLemma
p141
Vmath
p142
saa(lp143
Vproblems
p144
a(dp145
VNamedEntityTag
p146
g71
sVCharacterOffsetEnd
p147
V38
p148
sVCharacterOffsetBegin
p149
V30
p150
sVPartOfSpeech
p151
VNNS
p152
sVLemma
p153
Vproblem
p154
saa(lp155
Vand
p156
a(dp157
VNamedEntityTag
p158
g71
sVCharacterOffsetEnd
p159
V42
p160
sVCharacterOffsetBegin
p161
V39
p162
sVPartOfSpeech
p163
VCC
p164
sVLemma
p165
Vand
p166
saa(lp167
g56
a(dp168
VNormalizedNamedEntityTag
p169
V6.0
p170
sVLemma
p171
g56
sVCharacterOffsetEnd
p172
V44
p173
sVPartOfSpeech
p174
VCD
p175
sVCharacterOffsetBegin
p176
V43
p177
sVNamedEntityTag
p178
VNUMBER
p179
saa(lp180
Vspelling
p181
a(dp182
VNamedEntityTag
p183
g71
sVCharacterOffsetEnd
p184
V53
p185
sVCharacterOffsetBegin
p186
V45
p187
sVPartOfSpeech
p188
VNN
p189
sVLemma
p190
Vspelling
p191
saa(lp192
Vproblems
p193
a(dp194
VNamedEntityTag
p195
g71
sVCharacterOffsetEnd
p196
V62
p197
sVCharacterOffsetBegin
p198
V54
p199
sVPartOfSpeech
p200
VNNS
p201
sVLemma
p202
Vproblem
p203
saa(lp204
V.
p205
a(dp206
VNamedEntityTag
p207
g71
sVCharacterOffsetEnd
p208
V64
p209
sVCharacterOffsetBegin
p210
V63
p211
sVPartOfSpeech
p212
g205
sVLemma
p213
g205
saasVindexeddependencies
p214
(lp215
(lp216
Vroot
p217
aVROOT-0
p218
aVhad-4
p219
aa(lp220
Vprep_for
p221
aVhad-4
p222
aVhomework-2
p223
aa(lp224
Vnsubj
p225
aVhad-4
p226
aVAmy-3
p227
aa(lp228
Vnum
p229
aVproblems-7
p230
aV18-5
p231
aa(lp232
Vnn
p233
aVproblems-7
p234
aVmath-6
p235
aa(lp236
Vdobj
p237
aVhad-4
p238
aVproblems-7
p239
aa(lp240
Vnum
p241
aVproblems-11
p242
aV6-9
p243
aa(lp244
Vnn
p245
aVproblems-11
p246
aVspelling-10
p247
aa(lp248
Vconj_and
p249
aVproblems-7
p250
aVproblems-11
p251
aasa(dp252
Vparsetree
p253
V(ROOT (SBAR (IN If) (S (NP (PRP she)) (VP (MD can) (VP (VB finish) (NP (CD 4) (NNS problems)) (PP (IN in) (NP (DT an) (NN hour))) (SBAR (SBARQ (WHNP (WRB how) (RB long)) (SQ (MD will) (NP (PRP it)) (VP (VB take) (S (NP (PRP her)) (VP (TO to) (VP (VB finish) (NP (PDT all) (DT the) (NNS problems))))))) (. ?))))))))
p254
sVtext
p255
VIf she can finish 4 problems in an hour how long will it take her to finish all the problems ?
p256
sVdependencies
p257
(lp258
(lp259
Vroot
p260
aVROOT
p261
aVfinish
p262
aa(lp263
Vmark
p264
aVfinish
p265
aVIf
p266
aa(lp267
Vnsubj
p268
aVfinish
p269
aVshe
p270
aa(lp271
Vaux
p272
aVfinish
p273
aVcan
p274
aa(lp275
Vnum
p276
aVproblems
p277
ag19
aa(lp278
Vdobj
p279
aVfinish
p280
aVproblems
p281
aa(lp282
Vdet
p283
aVhour
p284
aVan
p285
aa(lp286
Vprep_in
p287
aVfinish
p288
aVhour
p289
aa(lp290
Vadvmod
p291
aVlong
p292
aVhow
p293
aa(lp294
Vdep
p295
aVtake
p296
aVlong
p297
aa(lp298
Vaux
p299
aVtake
p300
aVwill
p301
aa(lp302
Vnsubj
p303
aVtake
p304
aVit
p305
aa(lp306
Vdep
p307
aVfinish
p308
aVtake
p309
aa(lp310
Vdobj
p311
aVtake
p312
aVher
p313
aa(lp314
Vaux
p315
aVfinish
p316
aVto
p317
aa(lp318
Vxcomp
p319
aVtake
p320
aVfinish
p321
aa(lp322
Vpredet
p323
aVproblems
p324
aVall
p325
aa(lp326
Vdet
p327
aVproblems
p328
aVthe
p329
aa(lp330
Vdobj
p331
aVfinish
p332
aVproblems
p333
aasVwords
p334
(lp335
(lp336
VIf
p337
a(dp338
VNamedEntityTag
p339
g71
sVCharacterOffsetEnd
p340
V67
p341
sVCharacterOffsetBegin
p342
V65
p343
sVPartOfSpeech
p344
VIN
p345
sVLemma
p346
Vif
p347
saa(lp348
Vshe
p349
a(dp350
VNamedEntityTag
p351
g71
sVCharacterOffsetEnd
p352
V71
p353
sVCharacterOffsetBegin
p354
V68
p355
sVPartOfSpeech
p356
VPRP
p357
sVLemma
p358
Vshe
p359
saa(lp360
Vcan
p361
a(dp362
VNamedEntityTag
p363
g71
sVCharacterOffsetEnd
p364
V75
p365
sVCharacterOffsetBegin
p366
V72
p367
sVPartOfSpeech
p368
VMD
p369
sVLemma
p370
Vcan
p371
saa(lp372
Vfinish
p373
a(dp374
VNamedEntityTag
p375
g71
sVCharacterOffsetEnd
p376
V82
p377
sVCharacterOffsetBegin
p378
V76
p379
sVPartOfSpeech
p380
VVB
p381
sVLemma
p382
Vfinish
p383
saa(lp384
g19
a(dp385
VNormalizedNamedEntityTag
p386
V4.0
p387
sVLemma
p388
g19
sVCharacterOffsetEnd
p389
V84
p390
sVPartOfSpeech
p391
VCD
p392
sVCharacterOffsetBegin
p393
V83
p394
sVNamedEntityTag
p395
VNUMBER
p396
saa(lp397
Vproblems
p398
a(dp399
VNamedEntityTag
p400
g71
sVCharacterOffsetEnd
p401
V93
p402
sVCharacterOffsetBegin
p403
V85
p404
sVPartOfSpeech
p405
VNNS
p406
sVLemma
p407
Vproblem
p408
saa(lp409
Vin
p410
a(dp411
VNamedEntityTag
p412
g71
sVCharacterOffsetEnd
p413
V96
p414
sVCharacterOffsetBegin
p415
V94
p416
sVPartOfSpeech
p417
VIN
p418
sVLemma
p419
Vin
p420
saa(lp421
Van
p422
a(dp423
VNormalizedNamedEntityTag
p424
VPT1H
p425
sVTimex
p426
V<TIMEX3 tid="t1" type="DURATION" value="PT1H">an hour</TIMEX3>
p427
sVLemma
p428
Va
p429
sVCharacterOffsetEnd
p430
V99
p431
sVPartOfSpeech
p432
VDT
p433
sVCharacterOffsetBegin
p434
V97
p435
sVNamedEntityTag
p436
VDURATION
p437
saa(lp438
Vhour
p439
a(dp440
VNormalizedNamedEntityTag
p441
VPT1H
p442
sVTimex
p443
V<TIMEX3 tid="t1" type="DURATION" value="PT1H">an hour</TIMEX3>
p444
sVLemma
p445
Vhour
p446
sVCharacterOffsetEnd
p447
V104
p448
sVPartOfSpeech
p449
VNN
p450
sVCharacterOffsetBegin
p451
V100
p452
sVNamedEntityTag
p453
VDURATION
p454
saa(lp455
Vhow
p456
a(dp457
VNamedEntityTag
p458
g71
sVCharacterOffsetEnd
p459
V108
p460
sVCharacterOffsetBegin
p461
V105
p462
sVPartOfSpeech
p463
VWRB
p464
sVLemma
p465
Vhow
p466
saa(lp467
Vlong
p468
a(dp469
VNamedEntityTag
p470
g71
sVCharacterOffsetEnd
p471
V113
p472
sVCharacterOffsetBegin
p473
V109
p474
sVPartOfSpeech
p475
VRB
p476
sVLemma
p477
Vlong
p478
saa(lp479
Vwill
p480
a(dp481
VNamedEntityTag
p482
g71
sVCharacterOffsetEnd
p483
V118
p484
sVCharacterOffsetBegin
p485
V114
p486
sVPartOfSpeech
p487
VMD
p488
sVLemma
p489
Vwill
p490
saa(lp491
Vit
p492
a(dp493
VNamedEntityTag
p494
g71
sVCharacterOffsetEnd
p495
V121
p496
sVCharacterOffsetBegin
p497
V119
p498
sVPartOfSpeech
p499
VPRP
p500
sVLemma
p501
Vit
p502
saa(lp503
Vtake
p504
a(dp505
VNamedEntityTag
p506
g71
sVCharacterOffsetEnd
p507
V126
p508
sVCharacterOffsetBegin
p509
V122
p510
sVPartOfSpeech
p511
VVB
p512
sVLemma
p513
Vtake
p514
saa(lp515
Vher
p516
a(dp517
VNamedEntityTag
p518
g71
sVCharacterOffsetEnd
p519
V130
p520
sVCharacterOffsetBegin
p521
V127
p522
sVPartOfSpeech
p523
VPRP
p524
sVLemma
p525
Vshe
p526
saa(lp527
Vto
p528
a(dp529
VNamedEntityTag
p530
g71
sVCharacterOffsetEnd
p531
V133
p532
sVCharacterOffsetBegin
p533
V131
p534
sVPartOfSpeech
p535
VTO
p536
sVLemma
p537
Vto
p538
saa(lp539
Vfinish
p540
a(dp541
VNamedEntityTag
p542
g71
sVCharacterOffsetEnd
p543
V140
p544
sVCharacterOffsetBegin
p545
V134
p546
sVPartOfSpeech
p547
VVB
p548
sVLemma
p549
Vfinish
p550
saa(lp551
Vall
p552
a(dp553
VNamedEntityTag
p554
g71
sVCharacterOffsetEnd
p555
V144
p556
sVCharacterOffsetBegin
p557
V141
p558
sVPartOfSpeech
p559
VPDT
p560
sVLemma
p561
Vall
p562
saa(lp563
Vthe
p564
a(dp565
VNamedEntityTag
p566
g71
sVCharacterOffsetEnd
p567
V148
p568
sVCharacterOffsetBegin
p569
V145
p570
sVPartOfSpeech
p571
VDT
p572
sVLemma
p573
Vthe
p574
saa(lp575
Vproblems
p576
a(dp577
VNamedEntityTag
p578
g71
sVCharacterOffsetEnd
p579
V157
p580
sVCharacterOffsetBegin
p581
V149
p582
sVPartOfSpeech
p583
VNNS
p584
sVLemma
p585
Vproblem
p586
saa(lp587
V?
p588
a(dp589
VNamedEntityTag
p590
g71
sVCharacterOffsetEnd
p591
V159
p592
sVCharacterOffsetBegin
p593
V158
p594
sVPartOfSpeech
p595
g205
sVLemma
p596
g588
saasVindexeddependencies
p597
(lp598
(lp599
Vroot
p600
aVROOT-0
p601
aVfinish-4
p602
aa(lp603
Vmark
p604
aVfinish-4
p605
aVIf-1
p606
aa(lp607
Vnsubj
p608
aVfinish-4
p609
aVshe-2
p610
aa(lp611
Vaux
p612
aVfinish-4
p613
aVcan-3
p614
aa(lp615
Vnum
p616
aVproblems-6
p617
aV4-5
p618
aa(lp619
Vdobj
p620
aVfinish-4
p621
aVproblems-6
p622
aa(lp623
Vdet
p624
aVhour-9
p625
aVan-8
p626
aa(lp627
Vprep_in
p628
aVfinish-4
p629
aVhour-9
p630
aa(lp631
Vadvmod
p632
aVlong-11
p633
aVhow-10
p634
aa(lp635
Vdep
p636
aVtake-14
p637
aVlong-11
p638
aa(lp639
Vaux
p640
aVtake-14
p641
aVwill-12
p642
aa(lp643
Vnsubj
p644
aVtake-14
p645
aVit-13
p646
aa(lp647
Vdep
p648
aVfinish-4
p649
aVtake-14
p650
aa(lp651
Vdobj
p652
aVtake-14
p653
aVher-15
p654
aa(lp655
Vaux
p656
aVfinish-17
p657
aVto-16
p658
aa(lp659
Vxcomp
p660
aVtake-14
p661
aVfinish-17
p662
aa(lp663
Vpredet
p664
aVproblems-20
p665
aVall-18
p666
aa(lp667
Vdet
p668
aVproblems-20
p669
aVthe-19
p670
aa(lp671
Vdobj
p672
aVfinish-17
p673
aVproblems-20
p674
aasas.