(dp0
Vcoref
p1
(lp2
(lp3
(lp4
(lp5
V3
p6
aI1
aI1
aI1
aI2
aa(lp7
g6
aI0
aI4
aI4
aI5
aaa(lp8
(lp9
Vit
p10
aI1
aI11
aI11
aI12
aa(lp11
g6
aI0
aI4
aI4
aI5
aaaasVsentences
p12
(lp13
(dp14
Vparsetree
p15
V(ROOT (S (NP (DT A) (NN pet) (NN shelter)) (VP (VBD had) (NP (NP (CD 3) (NNS puppies)) (SBAR (WHADVP (WRB when)) (S (NP (DT another) (CD 3)) (VP (VBD were) (VP (VBN brought) (PRT (RP in)))))))) (. .)))
p16
sVtext
p17
VA pet shelter had 3 puppies when another 3 were brought in .
p18
sVdependencies
p19
(lp20
(lp21
Vroot
p22
aVROOT
p23
aVhad
p24
aa(lp25
Vdet
p26
aVshelter
p27
aVA
p28
aa(lp29
Vnn
p30
aVshelter
p31
aVpet
p32
aa(lp33
Vnsubj
p34
aVhad
p35
aVshelter
p36
aa(lp37
Vnum
p38
aVpuppies
p39
ag6
aa(lp40
Vdobj
p41
aVhad
p42
aVpuppies
p43
aa(lp44
Vadvmod
p45
aVbrought
p46
aVwhen
p47
aa(lp48
Vdet
p49
ag6
aVanother
p50
aa(lp51
Vnsubjpass
p52
aVbrought
p53
ag6
aa(lp54
Vauxpass
p55
aVbrought
p56
aVwere
p57
aa(lp58
Vrcmod
p59
aVpuppies
p60
aVbrought
p61
aa(lp62
Vprt
p63
aVbrought
p64
aVin
p65
aasVwords
p66
(lp67
(lp68
g28
a(dp69
VNamedEntityTag
p70
VO
p71
sVCharacterOffsetEnd
p72
V2
p73
sVCharacterOffsetBegin
p74
V1
p75
sVPartOfSpeech
p76
VDT
p77
sVLemma
p78
Va
p79
saa(lp80
Vpet
p81
a(dp82
VNamedEntityTag
p83
g71
sVCharacterOffsetEnd
p84
V6
p85
sVCharacterOffsetBegin
p86
g6
sVPartOfSpeech
p87
VNN
p88
sVLemma
p89
Vpet
p90
saa(lp91
Vshelter
p92
a(dp93
VNamedEntityTag
p94
g71
sVCharacterOffsetEnd
p95
V14
p96
sVCharacterOffsetBegin
p97
V7
p98
sVPartOfSpeech
p99
VNN
p100
sVLemma
p101
Vshelter
p102
saa(lp103
Vhad
p104
a(dp105
VNamedEntityTag
p106
g71
sVCharacterOffsetEnd
p107
V18
p108
sVCharacterOffsetBegin
p109
V15
p110
sVPartOfSpeech
p111
VVBD
p112
sVLemma
p113
Vhave
p114
saa(lp115
g6
a(dp116
VNormalizedNamedEntityTag
p117
V3.0
p118
sVLemma
p119
g6
sVCharacterOffsetEnd
p120
V20
p121
sVPartOfSpeech
p122
VCD
p123
sVCharacterOffsetBegin
p124
V19
p125
sVNamedEntityTag
p126
VNUMBER
p127
saa(lp128
Vpuppies
p129
a(dp130
VNamedEntityTag
p131
g71
sVCharacterOffsetEnd
p132
V28
p133
sVCharacterOffsetBegin
p134
V21
p135
sVPartOfSpeech
p136
VNNS
p137
sVLemma
p138
Vpuppy
p139
saa(lp140
Vwhen
p141
a(dp142
VNamedEntityTag
p143
g71
sVCharacterOffsetEnd
p144
V33
p145
sVCharacterOffsetBegin
p146
V29
p147
sVPartOfSpeech
p148
VWRB
p149
sVLemma
p150
Vwhen
p151
saa(lp152
Vanother
p153
a(dp154
VNamedEntityTag
p155
g71
sVCharacterOffsetEnd
p156
V41
p157
sVCharacterOffsetBegin
p158
V34
p159
sVPartOfSpeech
p160
VDT
p161
sVLemma
p162
Vanother
p163
saa(lp164
g6
a(dp165
VNormalizedNamedEntityTag
p166
V3.0
p167
sVLemma
p168
g6
sVCharacterOffsetEnd
p169
V43
p170
sVPartOfSpeech
p171
VCD
p172
sVCharacterOffsetBegin
p173
V42
p174
sVNamedEntityTag
p175
VNUMBER
p176
saa(lp177
Vwere
p178
a(dp179
VNamedEntityTag
p180
g71
sVCharacterOffsetEnd
p181
V48
p182
sVCharacterOffsetBegin
p183
V44
p184
sVPartOfSpeech
p185
VVBD
p186
sVLemma
p187
Vbe
p188
saa(lp189
Vbrought
p190
a(dp191
VNamedEntityTag
p192
g71
sVCharacterOffsetEnd
p193
V56
p194
sVCharacterOffsetBegin
p195
V49
p196
sVPartOfSpeech
p197
VVBN
p198
sVLemma
p199
Vbring
p200
saa(lp201
Vin
p202
a(dp203
VNamedEntityTag
p204
g71
sVCharacterOffsetEnd
p205
V59
p206
sVCharacterOffsetBegin
p207
V57
p208
sVPartOfSpeech
p209
VRP
p210
sVLemma
p211
Vin
p212
saa(lp213
V.
p214
a(dp215
VNamedEntityTag
p216
g71
sVCharacterOffsetEnd
p217
V61
p218
sVCharacterOffsetBegin
p219
V60
p220
sVPartOfSpeech
p221
g214
sVLemma
p222
g214
saasVindexeddependencies
p223
(lp224
(lp225
Vroot
p226
aVROOT-0
p227
aVhad-4
p228
aa(lp229
Vdet
p230
aVshelter-3
p231
aVA-1
p232
aa(lp233
Vnn
p234
aVshelter-3
p235
aVpet-2
p236
aa(lp237
Vnsubj
p238
aVhad-4
p239
aVshelter-3
p240
aa(lp241
Vnum
p242
aVpuppies-6
p243
aV3-5
p244
aa(lp245
Vdobj
p246
aVhad-4
p247
aVpuppies-6
p248
aa(lp249
Vadvmod
p250
aVbrought-11
p251
aVwhen-7
p252
aa(lp253
Vdet
p254
aV3-9
p255
aVanother-8
p256
aa(lp257
Vnsubjpass
p258
aVbrought-11
p259
aV3-9
p260
aa(lp261
Vauxpass
p262
aVbrought-11
p263
aVwere-10
p264
aa(lp265
Vrcmod
p266
aVpuppies-6
p267
aVbrought-11
p268
aa(lp269
Vprt
p270
aVbrought-11
p271
aVin-12
p272
aasa(dp273
Vparsetree
p274
V(ROOT (SBARQ (SBAR (IN If) (S (NP (NP (CD 3) (NNS puppies)) (NP (DT a) (NN day))) (VP (VBP are) (VP (VBN adopted))))) (, ,) (WHNP (WRB how) (RB long)) (SQ (MD would) (NP (PRP it)) (VP (VB take) (PP (IN for) (NP (NP (DT all)) (PP (IN of) (NP (PRP them))))) (S (VP (TO to) (VP (VB be) (VP (VBN adopted))))))) (. ?)))
p275
sVtext
p276
VIf 3 puppies a day are adopted , how long would it take for all of them to be adopted ?
p277
sVdependencies
p278
(lp279
(lp280
Vroot
p281
aVROOT
p282
aVtake
p283
aa(lp284
Vmark
p285
aVadopted
p286
aVIf
p287
aa(lp288
Vnum
p289
aVpuppies
p290
ag6
aa(lp291
Vnsubjpass
p292
aVadopted
p293
aVpuppies
p294
aa(lp295
Vdet
p296
aVday
p297
ag79
aa(lp298
Vdep
p299
aVpuppies
p300
aVday
p301
aa(lp302
Vauxpass
p303
aVadopted
p304
aVare
p305
aa(lp306
Vadvcl
p307
aVtake
p308
aVadopted
p309
aa(lp310
Vadvmod
p311
aVlong
p312
aVhow
p313
aa(lp314
Vdep
p315
aVtake
p316
aVlong
p317
aa(lp318
Vaux
p319
aVtake
p320
aVwould
p321
aa(lp322
Vnsubj
p323
aVtake
p324
aVit
p325
aa(lp326
Vprep_for
p327
aVtake
p328
aVall
p329
aa(lp330
Vprep_of
p331
aVall
p332
aVthem
p333
aa(lp334
Vaux
p335
aVadopted
p336
aVto
p337
aa(lp338
Vauxpass
p339
aVadopted
p340
aVbe
p341
aa(lp342
Vxcomp
p343
aVtake
p344
aVadopted
p345
aasVwords
p346
(lp347
(lp348
VIf
p349
a(dp350
VNamedEntityTag
p351
g71
sVCharacterOffsetEnd
p352
V64
p353
sVCharacterOffsetBegin
p354
V62
p355
sVPartOfSpeech
p356
VIN
p357
sVLemma
p358
Vif
p359
saa(lp360
g6
a(dp361
VNormalizedNamedEntityTag
p362
V3.0
p363
sVLemma
p364
g6
sVCharacterOffsetEnd
p365
V66
p366
sVPartOfSpeech
p367
VCD
p368
sVCharacterOffsetBegin
p369
V65
p370
sVNamedEntityTag
p371
VNUMBER
p372
saa(lp373
Vpuppies
p374
a(dp375
VNamedEntityTag
p376
g71
sVCharacterOffsetEnd
p377
V74
p378
sVCharacterOffsetBegin
p379
V67
p380
sVPartOfSpeech
p381
VNNS
p382
sVLemma
p383
Vpuppy
p384
saa(lp385
g79
a(dp386
VNormalizedNamedEntityTag
p387
VP1D
p388
sVTimex
p389
V<TIMEX3 tid="t1" type="DURATION" value="P1D">a day</TIMEX3>
p390
sVLemma
p391
g79
sVCharacterOffsetEnd
p392
V76
p393
sVPartOfSpeech
p394
VDT
p395
sVCharacterOffsetBegin
p396
V75
p397
sVNamedEntityTag
p398
VDURATION
p399
saa(lp400
Vday
p401
a(dp402
VNormalizedNamedEntityTag
p403
VP1D
p404
sVTimex
p405
V<TIMEX3 tid="t1" type="DURATION" value="P1D">a day</TIMEX3>
p406
sVLemma
p407
Vday
p408
sVCharacterOffsetEnd
p409
V80
p410
sVPartOfSpeech
p411
VNN
p412
sVCharacterOffsetBegin
p413
V77
p414
sVNamedEntityTag
p415
VDURATION
p416
saa(lp417
Vare
p418
a(dp419
VNamedEntityTag
p420
g71
sVCharacterOffsetEnd
p421
V84
p422
sVCharacterOffsetBegin
p423
V81
p424
sVPartOfSpeech
p425
VVBP
p426
sVLemma
p427
Vbe
p428
saa(lp429
Vadopted
p430
a(dp431
VNamedEntityTag
p432
g71
sVCharacterOffsetEnd
p433
V92
p434
sVCharacterOffsetBegin
p435
V85
p436
sVPartOfSpeech
p437
VVBN
p438
sVLemma
p439
Vadopt
p440
saa(lp441
V,
p442
a(dp443
VNamedEntityTag
p444
g71
sVCharacterOffsetEnd
p445
V94
p446
sVCharacterOffsetBegin
p447
V93
p448
sVPartOfSpeech
p449
g442
sVLemma
p450
g442
saa(lp451
Vhow
p452
a(dp453
VNamedEntityTag
p454
g71
sVCharacterOffsetEnd
p455
V98
p456
sVCharacterOffsetBegin
p457
V95
p458
sVPartOfSpeech
p459
VWRB
p460
sVLemma
p461
Vhow
p462
saa(lp463
Vlong
p464
a(dp465
VNamedEntityTag
p466
g71
sVCharacterOffsetEnd
p467
V103
p468
sVCharacterOffsetBegin
p469
V99
p470
sVPartOfSpeech
p471
VRB
p472
sVLemma
p473
Vlong
p474
saa(lp475
Vwould
p476
a(dp477
VNamedEntityTag
p478
g71
sVCharacterOffsetEnd
p479
V109
p480
sVCharacterOffsetBegin
p481
V104
p482
sVPartOfSpeech
p483
VMD
p484
sVLemma
p485
Vwould
p486
saa(lp487
Vit
p488
a(dp489
VNamedEntityTag
p490
g71
sVCharacterOffsetEnd
p491
V112
p492
sVCharacterOffsetBegin
p493
V110
p494
sVPartOfSpeech
p495
VPRP
p496
sVLemma
p497
Vit
p498
saa(lp499
Vtake
p500
a(dp501
VNamedEntityTag
p502
g71
sVCharacterOffsetEnd
p503
V117
p504
sVCharacterOffsetBegin
p505
V113
p506
sVPartOfSpeech
p507
VVB
p508
sVLemma
p509
Vtake
p510
saa(lp511
Vfor
p512
a(dp513
VNamedEntityTag
p514
g71
sVCharacterOffsetEnd
p515
V121
p516
sVCharacterOffsetBegin
p517
V118
p518
sVPartOfSpeech
p519
VIN
p520
sVLemma
p521
Vfor
p522
saa(lp523
Vall
p524
a(dp525
VNamedEntityTag
p526
g71
sVCharacterOffsetEnd
p527
V125
p528
sVCharacterOffsetBegin
p529
V122
p530
sVPartOfSpeech
p531
VDT
p532
sVLemma
p533
Vall
p534
saa(lp535
Vof
p536
a(dp537
VNamedEntityTag
p538
g71
sVCharacterOffsetEnd
p539
V128
p540
sVCharacterOffsetBegin
p541
V126
p542
sVPartOfSpeech
p543
VIN
p544
sVLemma
p545
Vof
p546
saa(lp547
Vthem
p548
a(dp549
VNamedEntityTag
p550
g71
sVCharacterOffsetEnd
p551
V133
p552
sVCharacterOffsetBegin
p553
V129
p554
sVPartOfSpeech
p555
VPRP
p556
sVLemma
p557
Vthey
p558
saa(lp559
Vto
p560
a(dp561
VNamedEntityTag
p562
g71
sVCharacterOffsetEnd
p563
V136
p564
sVCharacterOffsetBegin
p565
V134
p566
sVPartOfSpeech
p567
VTO
p568
sVLemma
p569
Vto
p570
saa(lp571
Vbe
p572
a(dp573
VNamedEntityTag
p574
g71
sVCharacterOffsetEnd
p575
V139
p576
sVCharacterOffsetBegin
p577
V137
p578
sVPartOfSpeech
p579
VVB
p580
sVLemma
p581
Vbe
p582
saa(lp583
Vadopted
p584
a(dp585
VNamedEntityTag
p586
g71
sVCharacterOffsetEnd
p587
V147
p588
sVCharacterOffsetBegin
p589
V140
p590
sVPartOfSpeech
p591
VVBN
p592
sVLemma
p593
Vadopt
p594
saa(lp595
V?
p596
a(dp597
VNamedEntityTag
p598
g71
sVCharacterOffsetEnd
p599
V149
p600
sVCharacterOffsetBegin
p601
V148
p602
sVPartOfSpeech
p603
g214
sVLemma
p604
g596
saasVindexeddependencies
p605
(lp606
(lp607
Vroot
p608
aVROOT-0
p609
aVtake-13
p610
aa(lp611
Vmark
p612
aVadopted-7
p613
aVIf-1
p614
aa(lp615
Vnum
p616
aVpuppies-3
p617
aV3-2
p618
aa(lp619
Vnsubjpass
p620
aVadopted-7
p621
aVpuppies-3
p622
aa(lp623
Vdet
p624
aVday-5
p625
aVa-4
p626
aa(lp627
Vdep
p628
aVpuppies-3
p629
aVday-5
p630
aa(lp631
Vauxpass
p632
aVadopted-7
p633
aVare-6
p634
aa(lp635
Vadvcl
p636
aVtake-13
p637
aVadopted-7
p638
aa(lp639
Vadvmod
p640
aVlong-10
p641
aVhow-9
p642
aa(lp643
Vdep
p644
aVtake-13
p645
aVlong-10
p646
aa(lp647
Vaux
p648
aVtake-13
p649
aVwould-11
p650
aa(lp651
Vnsubj
p652
aVtake-13
p653
aVit-12
p654
aa(lp655
Vprep_for
p656
aVtake-13
p657
aVall-15
p658
aa(lp659
Vprep_of
p660
aVall-15
p661
aVthem-17
p662
aa(lp663
Vaux
p664
aVadopted-20
p665
aVto-18
p666
aa(lp667
Vauxpass
p668
aVadopted-20
p669
aVbe-19
p670
aa(lp671
Vxcomp
p672
aVtake-13
p673
aVadopted-20
p674
aasas.