(dp0
Vcoref
p1
(lp2
(lp3
(lp4
(lp5
Vhe
p6
aI1
aI1
aI1
aI2
aa(lp7
VLuke
p8
aI0
aI6
aI6
aI7
aaa(lp9
(lp10
Vhe
p11
aI1
aI17
aI17
aI18
aa(lp12
VLuke
p13
aI0
aI6
aI6
aI7
aaaasVsentences
p14
(lp15
(dp16
Vparsetree
p17
V(ROOT (S (SBAR (IN While) (S (VP (VBG playing) (PP (IN at) (NP (DT the) (NN arcade)))))) (, ,) (NP (NNP Luke)) (VP (VBD won) (NP (NP (NP (CD 2) (NNS tickets)) (VP (VBG playing) (S (VP (`` `) (VB whack) (NP (DT a) (NN mole)) ('' '))))) (CC and) (NP (NP (CD 13) (NNS tickets)) (VP (VBG playing) (`` `) (NP (NN skee) (NN ball)) ('' '))))) (. .)))
p18
sVtext
p19
VWhile playing at the arcade , Luke won 2 tickets playing 'whack a mole' and 13 tickets playing 'skee ball' .
p20
sVdependencies
p21
(lp22
(lp23
Vroot
p24
aVROOT
p25
aVwon
p26
aa(lp27
Vmark
p28
aVplaying
p29
aVWhile
p30
aa(lp31
Vadvcl
p32
aVwon
p33
aVplaying
p34
aa(lp35
Vdet
p36
aVarcade
p37
aVthe
p38
aa(lp39
Vprep_at
p40
aVplaying
p41
aVarcade
p42
aa(lp43
Vnsubj
p44
aVwon
p45
aVLuke
p46
aa(lp47
Vnum
p48
aVtickets
p49
aV2
p50
aa(lp51
Vdobj
p52
aVwon
p53
aVtickets
p54
aa(lp55
Vvmod
p56
aVtickets
p57
aVplaying
p58
aa(lp59
Vccomp
p60
aVplaying
p61
aVwhack
p62
aa(lp63
Vdet
p64
aVmole
p65
aVa
p66
aa(lp67
Vdobj
p68
aVwhack
p69
aVmole
p70
aa(lp71
Vnum
p72
aVtickets
p73
aV13
p74
aa(lp75
Vconj_and
p76
aVtickets
p77
aVtickets
p78
aa(lp79
Vvmod
p80
aVtickets
p81
aVplaying
p82
aa(lp83
Vnn
p84
aVball
p85
aVskee
p86
aa(lp87
Vdobj
p88
aVplaying
p89
aVball
p90
aasVwords
p91
(lp92
(lp93
VWhile
p94
a(dp95
VNamedEntityTag
p96
VO
p97
sVCharacterOffsetEnd
p98
V6
p99
sVCharacterOffsetBegin
p100
V1
p101
sVPartOfSpeech
p102
VIN
p103
sVLemma
p104
Vwhile
p105
saa(lp106
Vplaying
p107
a(dp108
VNamedEntityTag
p109
g97
sVCharacterOffsetEnd
p110
V14
p111
sVCharacterOffsetBegin
p112
V7
p113
sVPartOfSpeech
p114
VVBG
p115
sVLemma
p116
Vplay
p117
saa(lp118
Vat
p119
a(dp120
VNamedEntityTag
p121
g97
sVCharacterOffsetEnd
p122
V17
p123
sVCharacterOffsetBegin
p124
V15
p125
sVPartOfSpeech
p126
VIN
p127
sVLemma
p128
Vat
p129
saa(lp130
Vthe
p131
a(dp132
VNamedEntityTag
p133
g97
sVCharacterOffsetEnd
p134
V21
p135
sVCharacterOffsetBegin
p136
V18
p137
sVPartOfSpeech
p138
VDT
p139
sVLemma
p140
Vthe
p141
saa(lp142
Varcade
p143
a(dp144
VNamedEntityTag
p145
g97
sVCharacterOffsetEnd
p146
V28
p147
sVCharacterOffsetBegin
p148
V22
p149
sVPartOfSpeech
p150
VNN
p151
sVLemma
p152
Varcade
p153
saa(lp154
V,
p155
a(dp156
VNamedEntityTag
p157
g97
sVCharacterOffsetEnd
p158
V30
p159
sVCharacterOffsetBegin
p160
V29
p161
sVPartOfSpeech
p162
g155
sVLemma
p163
g155
saa(lp164
VLuke
p165
a(dp166
VNamedEntityTag
p167
VPERSON
p168
sVCharacterOffsetEnd
p169
V35
p170
sVCharacterOffsetBegin
p171
V31
p172
sVPartOfSpeech
p173
VNNP
p174
sVLemma
p175
VLuke
p176
saa(lp177
Vwon
p178
a(dp179
VNamedEntityTag
p180
g97
sVCharacterOffsetEnd
p181
V39
p182
sVCharacterOffsetBegin
p183
V36
p184
sVPartOfSpeech
p185
VVBD
p186
sVLemma
p187
Vwin
p188
saa(lp189
g50
a(dp190
VNormalizedNamedEntityTag
p191
V2.0
p192
sVLemma
p193
g50
sVCharacterOffsetEnd
p194
V41
p195
sVPartOfSpeech
p196
VCD
p197
sVCharacterOffsetBegin
p198
V40
p199
sVNamedEntityTag
p200
VNUMBER
p201
saa(lp202
Vtickets
p203
a(dp204
VNamedEntityTag
p205
g97
sVCharacterOffsetEnd
p206
V49
p207
sVCharacterOffsetBegin
p208
V42
p209
sVPartOfSpeech
p210
VNNS
p211
sVLemma
p212
Vticket
p213
saa(lp214
Vplaying
p215
a(dp216
VNamedEntityTag
p217
g97
sVCharacterOffsetEnd
p218
V57
p219
sVCharacterOffsetBegin
p220
V50
p221
sVPartOfSpeech
p222
VVBG
p223
sVLemma
p224
Vplay
p225
saa(lp226
V`
p227
a(dp228
VNamedEntityTag
p229
g97
sVCharacterOffsetEnd
p230
V59
p231
sVCharacterOffsetBegin
p232
V58
p233
sVPartOfSpeech
p234
V``
p235
sVLemma
p236
g227
saa(lp237
Vwhack
p238
a(dp239
VNamedEntityTag
p240
g97
sVCharacterOffsetEnd
p241
V64
p242
sVCharacterOffsetBegin
p243
V59
p244
sVPartOfSpeech
p245
VVB
p246
sVLemma
p247
Vwhack
p248
saa(lp249
g66
a(dp250
VNamedEntityTag
p251
g97
sVCharacterOffsetEnd
p252
V66
p253
sVCharacterOffsetBegin
p254
V65
p255
sVPartOfSpeech
p256
VDT
p257
sVLemma
p258
g66
saa(lp259
Vmole
p260
a(dp261
VNamedEntityTag
p262
g97
sVCharacterOffsetEnd
p263
V71
p264
sVCharacterOffsetBegin
p265
V67
p266
sVPartOfSpeech
p267
VNN
p268
sVLemma
p269
Vmole
p270
saa(lp271
V'
p272
a(dp273
VNamedEntityTag
p274
g97
sVCharacterOffsetEnd
p275
V72
p276
sVCharacterOffsetBegin
p277
V71
p278
sVPartOfSpeech
p279
V''
p280
sVLemma
p281
g272
saa(lp282
Vand
p283
a(dp284
VNamedEntityTag
p285
g97
sVCharacterOffsetEnd
p286
V76
p287
sVCharacterOffsetBegin
p288
V73
p289
sVPartOfSpeech
p290
VCC
p291
sVLemma
p292
Vand
p293
saa(lp294
V13
p295
a(dp296
VNormalizedNamedEntityTag
p297
V13.0
p298
sVLemma
p299
V13
p300
sVCharacterOffsetEnd
p301
V79
p302
sVPartOfSpeech
p303
VCD
p304
sVCharacterOffsetBegin
p305
V77
p306
sVNamedEntityTag
p307
VNUMBER
p308
saa(lp309
Vtickets
p310
a(dp311
VNamedEntityTag
p312
g97
sVCharacterOffsetEnd
p313
V87
p314
sVCharacterOffsetBegin
p315
V80
p316
sVPartOfSpeech
p317
VNNS
p318
sVLemma
p319
Vticket
p320
saa(lp321
Vplaying
p322
a(dp323
VNamedEntityTag
p324
g97
sVCharacterOffsetEnd
p325
V95
p326
sVCharacterOffsetBegin
p327
V88
p328
sVPartOfSpeech
p329
VVBG
p330
sVLemma
p331
Vplay
p332
saa(lp333
g227
a(dp334
VNamedEntityTag
p335
g97
sVCharacterOffsetEnd
p336
V97
p337
sVCharacterOffsetBegin
p338
V96
p339
sVPartOfSpeech
p340
V``
p341
sVLemma
p342
g227
saa(lp343
Vskee
p344
a(dp345
VNamedEntityTag
p346
g97
sVCharacterOffsetEnd
p347
V101
p348
sVCharacterOffsetBegin
p349
V97
p350
sVPartOfSpeech
p351
VNN
p352
sVLemma
p353
Vskee
p354
saa(lp355
Vball
p356
a(dp357
VNamedEntityTag
p358
g97
sVCharacterOffsetEnd
p359
V106
p360
sVCharacterOffsetBegin
p361
V102
p362
sVPartOfSpeech
p363
VNN
p364
sVLemma
p365
Vball
p366
saa(lp367
g272
a(dp368
VNamedEntityTag
p369
g97
sVCharacterOffsetEnd
p370
V107
p371
sVCharacterOffsetBegin
p372
V106
p373
sVPartOfSpeech
p374
V''
p375
sVLemma
p376
g272
saa(lp377
V.
p378
a(dp379
VNamedEntityTag
p380
g97
sVCharacterOffsetEnd
p381
V109
p382
sVCharacterOffsetBegin
p383
V108
p384
sVPartOfSpeech
p385
g378
sVLemma
p386
g378
saasVindexeddependencies
p387
(lp388
(lp389
Vroot
p390
aVROOT-0
p391
aVwon-8
p392
aa(lp393
Vmark
p394
aVplaying-2
p395
aVWhile-1
p396
aa(lp397
Vadvcl
p398
aVwon-8
p399
aVplaying-2
p400
aa(lp401
Vdet
p402
aVarcade-5
p403
aVthe-4
p404
aa(lp405
Vprep_at
p406
aVplaying-2
p407
aVarcade-5
p408
aa(lp409
Vnsubj
p410
aVwon-8
p411
aVLuke-7
p412
aa(lp413
Vnum
p414
aVtickets-10
p415
aV2-9
p416
aa(lp417
Vdobj
p418
aVwon-8
p419
aVtickets-10
p420
aa(lp421
Vvmod
p422
aVtickets-10
p423
aVplaying-11
p424
aa(lp425
Vccomp
p426
aVplaying-11
p427
aVwhack-13
p428
aa(lp429
Vdet
p430
aVmole-15
p431
aVa-14
p432
aa(lp433
Vdobj
p434
aVwhack-13
p435
aVmole-15
p436
aa(lp437
Vnum
p438
aVtickets-19
p439
aV13-18
p440
aa(lp441
Vconj_and
p442
aVtickets-10
p443
aVtickets-19
p444
aa(lp445
Vvmod
p446
aVtickets-19
p447
aVplaying-20
p448
aa(lp449
Vnn
p450
aVball-23
p451
aVskee-22
p452
aa(lp453
Vdobj
p454
aVplaying-20
p455
aVball-23
p456
aasa(dp457
Vparsetree
p458
V(ROOT (SBARQ (SBAR (IN If) (S (NP (PRP he)) (VP (VBD was) (VP (VBG trying) (S (VP (TO to) (VP (VB buy) (NP (NN candy)) (SBAR (IN that) (FRAG (NP (NP (ADJP (NN cost) (CD 3)) (NNS tickets)) (NP (DT a) (NN piece)))))))))))) (, ,) (WHNP (WRB how) (JJ many)) (SQ (MD could) (NP (PRP he)) (VP (VB buy))) (. ?)))
p459
sVtext
p460
VIf he was trying to buy candy that cost 3 tickets a piece , how many could he buy ?
p461
sVdependencies
p462
(lp463
(lp464
Vroot
p465
aVROOT
p466
aVbuy
p467
aa(lp468
Vmark
p469
aVtrying
p470
aVIf
p471
aa(lp472
Vnsubj
p473
aVtrying
p474
aVhe
p475
aa(lp476
Vaux
p477
aVtrying
p478
aVwas
p479
aa(lp480
Vadvcl
p481
aVbuy
p482
aVtrying
p483
aa(lp484
Vaux
p485
aVbuy
p486
aVto
p487
aa(lp488
Vxcomp
p489
aVtrying
p490
aVbuy
p491
aa(lp492
Vdobj
p493
aVbuy
p494
aVcandy
p495
aa(lp496
Vmark
p497
aVtickets
p498
aVthat
p499
aa(lp500
Vamod
p501
aVtickets
p502
aVcost
p503
aa(lp504
Vnumber
p505
aVcost
p506
aV3
p507
aa(lp508
Vdep
p509
aVbuy
p510
aVtickets
p511
aa(lp512
Vdet
p513
aVpiece
p514
ag66
aa(lp515
Vdep
p516
aVtickets
p517
aVpiece
p518
aa(lp519
Vadvmod
p520
aVmany
p521
aVhow
p522
aa(lp523
Vdep
p524
aVbuy
p525
aVmany
p526
aa(lp527
Vaux
p528
aVbuy
p529
aVcould
p530
aa(lp531
Vnsubj
p532
aVbuy
p533
aVhe
p534
aasVwords
p535
(lp536
(lp537
VIf
p538
a(dp539
VNamedEntityTag
p540
g97
sVCharacterOffsetEnd
p541
V112
p542
sVCharacterOffsetBegin
p543
V110
p544
sVPartOfSpeech
p545
VIN
p546
sVLemma
p547
Vif
p548
saa(lp549
Vhe
p550
a(dp551
VNamedEntityTag
p552
g97
sVCharacterOffsetEnd
p553
V115
p554
sVCharacterOffsetBegin
p555
V113
p556
sVPartOfSpeech
p557
VPRP
p558
sVLemma
p559
Vhe
p560
saa(lp561
Vwas
p562
a(dp563
VNamedEntityTag
p564
g97
sVCharacterOffsetEnd
p565
V119
p566
sVCharacterOffsetBegin
p567
V116
p568
sVPartOfSpeech
p569
VVBD
p570
sVLemma
p571
Vbe
p572
saa(lp573
Vtrying
p574
a(dp575
VNamedEntityTag
p576
g97
sVCharacterOffsetEnd
p577
V126
p578
sVCharacterOffsetBegin
p579
V120
p580
sVPartOfSpeech
p581
VVBG
p582
sVLemma
p583
Vtry
p584
saa(lp585
Vto
p586
a(dp587
VNamedEntityTag
p588
g97
sVCharacterOffsetEnd
p589
V129
p590
sVCharacterOffsetBegin
p591
V127
p592
sVPartOfSpeech
p593
VTO
p594
sVLemma
p595
Vto
p596
saa(lp597
Vbuy
p598
a(dp599
VNamedEntityTag
p600
g97
sVCharacterOffsetEnd
p601
V133
p602
sVCharacterOffsetBegin
p603
V130
p604
sVPartOfSpeech
p605
VVB
p606
sVLemma
p607
Vbuy
p608
saa(lp609
Vcandy
p610
a(dp611
VNamedEntityTag
p612
g97
sVCharacterOffsetEnd
p613
V139
p614
sVCharacterOffsetBegin
p615
V134
p616
sVPartOfSpeech
p617
VNN
p618
sVLemma
p619
Vcandy
p620
saa(lp621
Vthat
p622
a(dp623
VNamedEntityTag
p624
g97
sVCharacterOffsetEnd
p625
V144
p626
sVCharacterOffsetBegin
p627
V140
p628
sVPartOfSpeech
p629
VIN
p630
sVLemma
p631
Vthat
p632
saa(lp633
Vcost
p634
a(dp635
VNamedEntityTag
p636
g97
sVCharacterOffsetEnd
p637
V149
p638
sVCharacterOffsetBegin
p639
V145
p640
sVPartOfSpeech
p641
VNN
p642
sVLemma
p643
Vcost
p644
saa(lp645
g507
a(dp646
VNormalizedNamedEntityTag
p647
V3.0
p648
sVLemma
p649
g507
sVCharacterOffsetEnd
p650
V151
p651
sVPartOfSpeech
p652
VCD
p653
sVCharacterOffsetBegin
p654
V150
p655
sVNamedEntityTag
p656
VNUMBER
p657
saa(lp658
Vtickets
p659
a(dp660
VNamedEntityTag
p661
g97
sVCharacterOffsetEnd
p662
V159
p663
sVCharacterOffsetBegin
p664
V152
p665
sVPartOfSpeech
p666
VNNS
p667
sVLemma
p668
Vticket
p669
saa(lp670
g66
a(dp671
VNamedEntityTag
p672
g97
sVCharacterOffsetEnd
p673
V161
p674
sVCharacterOffsetBegin
p675
V160
p676
sVPartOfSpeech
p677
VDT
p678
sVLemma
p679
g66
saa(lp680
Vpiece
p681
a(dp682
VNamedEntityTag
p683
g97
sVCharacterOffsetEnd
p684
V167
p685
sVCharacterOffsetBegin
p686
V162
p687
sVPartOfSpeech
p688
VNN
p689
sVLemma
p690
Vpiece
p691
saa(lp692
g155
a(dp693
VNamedEntityTag
p694
g97
sVCharacterOffsetEnd
p695
V169
p696
sVCharacterOffsetBegin
p697
V168
p698
sVPartOfSpeech
p699
g155
sVLemma
p700
g155
saa(lp701
Vhow
p702
a(dp703
VNamedEntityTag
p704
g97
sVCharacterOffsetEnd
p705
V173
p706
sVCharacterOffsetBegin
p707
V170
p708
sVPartOfSpeech
p709
VWRB
p710
sVLemma
p711
Vhow
p712
saa(lp713
Vmany
p714
a(dp715
VNamedEntityTag
p716
g97
sVCharacterOffsetEnd
p717
V178
p718
sVCharacterOffsetBegin
p719
V174
p720
sVPartOfSpeech
p721
VJJ
p722
sVLemma
p723
Vmany
p724
saa(lp725
Vcould
p726
a(dp727
VNamedEntityTag
p728
g97
sVCharacterOffsetEnd
p729
V184
p730
sVCharacterOffsetBegin
p731
V179
p732
sVPartOfSpeech
p733
VMD
p734
sVLemma
p735
Vcould
p736
saa(lp737
Vhe
p738
a(dp739
VNamedEntityTag
p740
g97
sVCharacterOffsetEnd
p741
V187
p742
sVCharacterOffsetBegin
p743
V185
p744
sVPartOfSpeech
p745
VPRP
p746
sVLemma
p747
Vhe
p748
saa(lp749
Vbuy
p750
a(dp751
VNamedEntityTag
p752
g97
sVCharacterOffsetEnd
p753
V191
p754
sVCharacterOffsetBegin
p755
V188
p756
sVPartOfSpeech
p757
VVB
p758
sVLemma
p759
Vbuy
p760
saa(lp761
V?
p762
a(dp763
VNamedEntityTag
p764
g97
sVCharacterOffsetEnd
p765
V193
p766
sVCharacterOffsetBegin
p767
V192
p768
sVPartOfSpeech
p769
g378
sVLemma
p770
g762
saasVindexeddependencies
p771
(lp772
(lp773
Vroot
p774
aVROOT-0
p775
aVbuy-19
p776
aa(lp777
Vmark
p778
aVtrying-4
p779
aVIf-1
p780
aa(lp781
Vnsubj
p782
aVtrying-4
p783
aVhe-2
p784
aa(lp785
Vaux
p786
aVtrying-4
p787
aVwas-3
p788
aa(lp789
Vadvcl
p790
aVbuy-19
p791
aVtrying-4
p792
aa(lp793
Vaux
p794
aVbuy-6
p795
aVto-5
p796
aa(lp797
Vxcomp
p798
aVtrying-4
p799
aVbuy-6
p800
aa(lp801
Vdobj
p802
aVbuy-6
p803
aVcandy-7
p804
aa(lp805
Vmark
p806
aVtickets-11
p807
aVthat-8
p808
aa(lp809
Vamod
p810
aVtickets-11
p811
aVcost-9
p812
aa(lp813
Vnumber
p814
aVcost-9
p815
aV3-10
p816
aa(lp817
Vdep
p818
aVbuy-6
p819
aVtickets-11
p820
aa(lp821
Vdet
p822
aVpiece-13
p823
aVa-12
p824
aa(lp825
Vdep
p826
aVtickets-11
p827
aVpiece-13
p828
aa(lp829
Vadvmod
p830
aVmany-16
p831
aVhow-15
p832
aa(lp833
Vdep
p834
aVbuy-19
p835
aVmany-16
p836
aa(lp837
Vaux
p838
aVbuy-19
p839
aVcould-17
p840
aa(lp841
Vnsubj
p842
aVbuy-19
p843
aVhe-18
p844
aasas.