(dp0
Vcoref
p1
(lp2
(lp3
(lp4
(lp5
Vthe group
p6
aI1
aI14
aI13
aI15
aa(lp7
VA group of 3 friends
p8
aI0
aI1
aI0
aI5
aaaasVsentences
p9
(lp10
(dp11
Vparsetree
p12
V(ROOT (S (NP (NP (DT A) (NN group)) (PP (IN of) (NP (CD 3) (NNS friends)))) (VP (VBD went) (PP (IN into) (NP (DT a) (NN restaurant)))) (. .)))
p13
sVtext
p14
VA group of 3 friends went into a restaurant .
p15
sVdependencies
p16
(lp17
(lp18
Vroot
p19
aVROOT
p20
aVwent
p21
aa(lp22
Vdet
p23
aVgroup
p24
aVA
p25
aa(lp26
Vnsubj
p27
aVwent
p28
aVgroup
p29
aa(lp30
Vnum
p31
aVfriends
p32
aV3
p33
aa(lp34
Vprep_of
p35
aVgroup
p36
aVfriends
p37
aa(lp38
Vdet
p39
aVrestaurant
p40
aVa
p41
aa(lp42
Vprep_into
p43
aVwent
p44
aVrestaurant
p45
aasVwords
p46
(lp47
(lp48
g25
a(dp49
VNamedEntityTag
p50
VO
p51
sVCharacterOffsetEnd
p52
V2
p53
sVCharacterOffsetBegin
p54
V1
p55
sVPartOfSpeech
p56
VDT
p57
sVLemma
p58
g41
saa(lp59
Vgroup
p60
a(dp61
VNamedEntityTag
p62
g51
sVCharacterOffsetEnd
p63
V8
p64
sVCharacterOffsetBegin
p65
g33
sVPartOfSpeech
p66
VNN
p67
sVLemma
p68
Vgroup
p69
saa(lp70
Vof
p71
a(dp72
VNamedEntityTag
p73
g51
sVCharacterOffsetEnd
p74
V11
p75
sVCharacterOffsetBegin
p76
V9
p77
sVPartOfSpeech
p78
VIN
p79
sVLemma
p80
Vof
p81
saa(lp82
g33
a(dp83
VNormalizedNamedEntityTag
p84
V3.0
p85
sVLemma
p86
g33
sVCharacterOffsetEnd
p87
V13
p88
sVPartOfSpeech
p89
VCD
p90
sVCharacterOffsetBegin
p91
V12
p92
sVNamedEntityTag
p93
VNUMBER
p94
saa(lp95
Vfriends
p96
a(dp97
VNamedEntityTag
p98
g51
sVCharacterOffsetEnd
p99
V21
p100
sVCharacterOffsetBegin
p101
V14
p102
sVPartOfSpeech
p103
VNNS
p104
sVLemma
p105
Vfriend
p106
saa(lp107
Vwent
p108
a(dp109
VNamedEntityTag
p110
g51
sVCharacterOffsetEnd
p111
V26
p112
sVCharacterOffsetBegin
p113
V22
p114
sVPartOfSpeech
p115
VVBD
p116
sVLemma
p117
Vgo
p118
saa(lp119
Vinto
p120
a(dp121
VNamedEntityTag
p122
g51
sVCharacterOffsetEnd
p123
V31
p124
sVCharacterOffsetBegin
p125
V27
p126
sVPartOfSpeech
p127
VIN
p128
sVLemma
p129
Vinto
p130
saa(lp131
g41
a(dp132
VNamedEntityTag
p133
g51
sVCharacterOffsetEnd
p134
V33
p135
sVCharacterOffsetBegin
p136
V32
p137
sVPartOfSpeech
p138
VDT
p139
sVLemma
p140
g41
saa(lp141
Vrestaurant
p142
a(dp143
VNamedEntityTag
p144
g51
sVCharacterOffsetEnd
p145
V44
p146
sVCharacterOffsetBegin
p147
V34
p148
sVPartOfSpeech
p149
VNN
p150
sVLemma
p151
Vrestaurant
p152
saa(lp153
V.
p154
a(dp155
VNamedEntityTag
p156
g51
sVCharacterOffsetEnd
p157
V46
p158
sVCharacterOffsetBegin
p159
V45
p160
sVPartOfSpeech
p161
g154
sVLemma
p162
g154
saasVindexeddependencies
p163
(lp164
(lp165
Vroot
p166
aVROOT-0
p167
aVwent-6
p168
aa(lp169
Vdet
p170
aVgroup-2
p171
aVA-1
p172
aa(lp173
Vnsubj
p174
aVwent-6
p175
aVgroup-2
p176
aa(lp177
Vnum
p178
aVfriends-5
p179
aV3-4
p180
aa(lp181
Vprep_of
p182
aVgroup-2
p183
aVfriends-5
p184
aa(lp185
Vdet
p186
aVrestaurant-9
p187
aVa-8
p188
aa(lp189
Vprep_into
p190
aVwent-6
p191
aVrestaurant-9
p192
aasa(dp193
Vparsetree
p194
V(ROOT (S (NP (DT The) (NN chef)) (ADVP (RB already)) (VP (VBD had) (NP (NP (CD 8) (NN chicken) (NNS wings)) (SBAR (S (VP (VP (VBD cooked)) (CC but) (VP (VBD cooked) (NP (QP (CD 10) (JJR more))) (PP (IN for) (NP (DT the) (NN group))))))))) (. .)))
p195
sVtext
p196
VThe chef already had 8 chicken wings cooked but cooked 10 more for the group .
p197
sVdependencies
p198
(lp199
(lp200
Vroot
p201
aVROOT
p202
aVhad
p203
aa(lp204
Vdet
p205
aVchef
p206
aVThe
p207
aa(lp208
Vnsubj
p209
aVhad
p210
aVchef
p211
aa(lp212
Vadvmod
p213
aVhad
p214
aValready
p215
aa(lp216
Vnum
p217
aVwings
p218
ag64
aa(lp219
Vnn
p220
aVwings
p221
aVchicken
p222
aa(lp223
Vdobj
p224
aVhad
p225
aVwings
p226
aa(lp227
Vrcmod
p228
aVwings
p229
aVcooked
p230
aa(lp231
Vconj_but
p232
aVcooked
p233
aVcooked
p234
aa(lp235
Vdobj
p236
aVcooked
p237
aV10
p238
aa(lp239
Vquantmod
p240
aV10
p241
aVmore
p242
aa(lp243
Vdet
p244
aVgroup
p245
aVthe
p246
aa(lp247
Vprep_for
p248
aVcooked
p249
aVgroup
p250
aasVwords
p251
(lp252
(lp253
VThe
p254
a(dp255
VNamedEntityTag
p256
g51
sVCharacterOffsetEnd
p257
V50
p258
sVCharacterOffsetBegin
p259
V47
p260
sVPartOfSpeech
p261
VDT
p262
sVLemma
p263
Vthe
p264
saa(lp265
Vchef
p266
a(dp267
VNamedEntityTag
p268
g51
sVCharacterOffsetEnd
p269
V55
p270
sVCharacterOffsetBegin
p271
V51
p272
sVPartOfSpeech
p273
VNN
p274
sVLemma
p275
Vchef
p276
saa(lp277
Valready
p278
a(dp279
VNamedEntityTag
p280
g51
sVCharacterOffsetEnd
p281
V63
p282
sVCharacterOffsetBegin
p283
V56
p284
sVPartOfSpeech
p285
VRB
p286
sVLemma
p287
Valready
p288
saa(lp289
Vhad
p290
a(dp291
VNamedEntityTag
p292
g51
sVCharacterOffsetEnd
p293
V67
p294
sVCharacterOffsetBegin
p295
V64
p296
sVPartOfSpeech
p297
VVBD
p298
sVLemma
p299
Vhave
p300
saa(lp301
g64
a(dp302
VNormalizedNamedEntityTag
p303
V8.0
p304
sVLemma
p305
g64
sVCharacterOffsetEnd
p306
V69
p307
sVPartOfSpeech
p308
VCD
p309
sVCharacterOffsetBegin
p310
V68
p311
sVNamedEntityTag
p312
VNUMBER
p313
saa(lp314
Vchicken
p315
a(dp316
VNamedEntityTag
p317
g51
sVCharacterOffsetEnd
p318
V77
p319
sVCharacterOffsetBegin
p320
V70
p321
sVPartOfSpeech
p322
VNN
p323
sVLemma
p324
Vchicken
p325
saa(lp326
Vwings
p327
a(dp328
VNamedEntityTag
p329
g51
sVCharacterOffsetEnd
p330
V83
p331
sVCharacterOffsetBegin
p332
V78
p333
sVPartOfSpeech
p334
VNNS
p335
sVLemma
p336
Vwing
p337
saa(lp338
Vcooked
p339
a(dp340
VNamedEntityTag
p341
g51
sVCharacterOffsetEnd
p342
V90
p343
sVCharacterOffsetBegin
p344
V84
p345
sVPartOfSpeech
p346
VVBD
p347
sVLemma
p348
Vcook
p349
saa(lp350
Vbut
p351
a(dp352
VNamedEntityTag
p353
g51
sVCharacterOffsetEnd
p354
V94
p355
sVCharacterOffsetBegin
p356
V91
p357
sVPartOfSpeech
p358
VCC
p359
sVLemma
p360
Vbut
p361
saa(lp362
Vcooked
p363
a(dp364
VNamedEntityTag
p365
g51
sVCharacterOffsetEnd
p366
V101
p367
sVCharacterOffsetBegin
p368
V95
p369
sVPartOfSpeech
p370
VVBD
p371
sVLemma
p372
Vcook
p373
saa(lp374
V10
p375
a(dp376
VNormalizedNamedEntityTag
p377
V10.0
p378
sVLemma
p379
V10
p380
sVCharacterOffsetEnd
p381
V104
p382
sVPartOfSpeech
p383
VCD
p384
sVCharacterOffsetBegin
p385
V102
p386
sVNamedEntityTag
p387
VNUMBER
p388
saa(lp389
Vmore
p390
a(dp391
VNamedEntityTag
p392
g51
sVCharacterOffsetEnd
p393
V109
p394
sVCharacterOffsetBegin
p395
V105
p396
sVPartOfSpeech
p397
VJJR
p398
sVLemma
p399
Vmore
p400
saa(lp401
Vfor
p402
a(dp403
VNamedEntityTag
p404
g51
sVCharacterOffsetEnd
p405
V113
p406
sVCharacterOffsetBegin
p407
V110
p408
sVPartOfSpeech
p409
VIN
p410
sVLemma
p411
Vfor
p412
saa(lp413
Vthe
p414
a(dp415
VNamedEntityTag
p416
g51
sVCharacterOffsetEnd
p417
V117
p418
sVCharacterOffsetBegin
p419
V114
p420
sVPartOfSpeech
p421
VDT
p422
sVLemma
p423
Vthe
p424
saa(lp425
Vgroup
p426
a(dp427
VNamedEntityTag
p428
g51
sVCharacterOffsetEnd
p429
V123
p430
sVCharacterOffsetBegin
p431
V118
p432
sVPartOfSpeech
p433
VNN
p434
sVLemma
p435
Vgroup
p436
saa(lp437
g154
a(dp438
VNamedEntityTag
p439
g51
sVCharacterOffsetEnd
p440
V125
p441
sVCharacterOffsetBegin
p442
V124
p443
sVPartOfSpeech
p444
g154
sVLemma
p445
g154
saasVindexeddependencies
p446
(lp447
(lp448
Vroot
p449
aVROOT-0
p450
aVhad-4
p451
aa(lp452
Vdet
p453
aVchef-2
p454
aVThe-1
p455
aa(lp456
Vnsubj
p457
aVhad-4
p458
aVchef-2
p459
aa(lp460
Vadvmod
p461
aVhad-4
p462
aValready-3
p463
aa(lp464
Vnum
p465
aVwings-7
p466
aV8-5
p467
aa(lp468
Vnn
p469
aVwings-7
p470
aVchicken-6
p471
aa(lp472
Vdobj
p473
aVhad-4
p474
aVwings-7
p475
aa(lp476
Vrcmod
p477
aVwings-7
p478
aVcooked-8
p479
aa(lp480
Vconj_but
p481
aVcooked-8
p482
aVcooked-10
p483
aa(lp484
Vdobj
p485
aVcooked-10
p486
aV10-11
p487
aa(lp488
Vquantmod
p489
aV10-11
p490
aVmore-12
p491
aa(lp492
Vdet
p493
aVgroup-15
p494
aVthe-14
p495
aa(lp496
Vprep_for
p497
aVcooked-10
p498
aVgroup-15
p499
aasa(dp500
Vparsetree
p501
V(ROOT (SBAR (IN If) (S (NP (PRP they)) (DT each) (VP (VBD got) (NP (DT the) (JJ same) (NN amount)) (SBAR (SBARQ (WHADJP (WRB how) (JJ many)) (SQ (MD would) (NP (DT each) (NN person)) (VP (VB get))) (. ?)))))))
p502
sVtext
p503
VIf they each got the same amount how many would each person get ?
p504
sVdependencies
p505
(lp506
(lp507
Vroot
p508
aVROOT
p509
aVgot
p510
aa(lp511
Vmark
p512
aVgot
p513
aVIf
p514
aa(lp515
Vnsubj
p516
aVgot
p517
aVthey
p518
aa(lp519
Vdep
p520
aVgot
p521
aVeach
p522
aa(lp523
Vdet
p524
aVamount
p525
aVthe
p526
aa(lp527
Vamod
p528
aVamount
p529
aVsame
p530
aa(lp531
Vdobj
p532
aVgot
p533
aVamount
p534
aa(lp535
Vadvmod
p536
aVmany
p537
aVhow
p538
aa(lp539
Vdep
p540
aVget
p541
aVmany
p542
aa(lp543
Vaux
p544
aVget
p545
aVwould
p546
aa(lp547
Vdet
p548
aVperson
p549
aVeach
p550
aa(lp551
Vnsubj
p552
aVget
p553
aVperson
p554
aa(lp555
Vdep
p556
aVgot
p557
aVget
p558
aasVwords
p559
(lp560
(lp561
VIf
p562
a(dp563
VNamedEntityTag
p564
g51
sVCharacterOffsetEnd
p565
V128
p566
sVCharacterOffsetBegin
p567
V126
p568
sVPartOfSpeech
p569
VIN
p570
sVLemma
p571
Vif
p572
saa(lp573
Vthey
p574
a(dp575
VNamedEntityTag
p576
g51
sVCharacterOffsetEnd
p577
V133
p578
sVCharacterOffsetBegin
p579
V129
p580
sVPartOfSpeech
p581
VPRP
p582
sVLemma
p583
Vthey
p584
saa(lp585
Veach
p586
a(dp587
VNamedEntityTag
p588
g51
sVCharacterOffsetEnd
p589
V138
p590
sVCharacterOffsetBegin
p591
V134
p592
sVPartOfSpeech
p593
VDT
p594
sVLemma
p595
Veach
p596
saa(lp597
Vgot
p598
a(dp599
VNamedEntityTag
p600
g51
sVCharacterOffsetEnd
p601
V142
p602
sVCharacterOffsetBegin
p603
V139
p604
sVPartOfSpeech
p605
VVBD
p606
sVLemma
p607
Vget
p608
saa(lp609
Vthe
p610
a(dp611
VNamedEntityTag
p612
g51
sVCharacterOffsetEnd
p613
V146
p614
sVCharacterOffsetBegin
p615
V143
p616
sVPartOfSpeech
p617
VDT
p618
sVLemma
p619
Vthe
p620
saa(lp621
Vsame
p622
a(dp623
VNamedEntityTag
p624
g51
sVCharacterOffsetEnd
p625
V151
p626
sVCharacterOffsetBegin
p627
V147
p628
sVPartOfSpeech
p629
VJJ
p630
sVLemma
p631
Vsame
p632
saa(lp633
Vamount
p634
a(dp635
VNamedEntityTag
p636
g51
sVCharacterOffsetEnd
p637
V158
p638
sVCharacterOffsetBegin
p639
V152
p640
sVPartOfSpeech
p641
VNN
p642
sVLemma
p643
Vamount
p644
saa(lp645
Vhow
p646
a(dp647
VNamedEntityTag
p648
g51
sVCharacterOffsetEnd
p649
V162
p650
sVCharacterOffsetBegin
p651
V159
p652
sVPartOfSpeech
p653
VWRB
p654
sVLemma
p655
Vhow
p656
saa(lp657
Vmany
p658
a(dp659
VNamedEntityTag
p660
g51
sVCharacterOffsetEnd
p661
V167
p662
sVCharacterOffsetBegin
p663
V163
p664
sVPartOfSpeech
p665
VJJ
p666
sVLemma
p667
Vmany
p668
saa(lp669
Vwould
p670
a(dp671
VNamedEntityTag
p672
g51
sVCharacterOffsetEnd
p673
V173
p674
sVCharacterOffsetBegin
p675
V168
p676
sVPartOfSpeech
p677
VMD
p678
sVLemma
p679
Vwould
p680
saa(lp681
Veach
p682
a(dp683
VNamedEntityTag
p684
g51
sVCharacterOffsetEnd
p685
V178
p686
sVCharacterOffsetBegin
p687
V174
p688
sVPartOfSpeech
p689
VDT
p690
sVLemma
p691
Veach
p692
saa(lp693
Vperson
p694
a(dp695
VNamedEntityTag
p696
g51
sVCharacterOffsetEnd
p697
V185
p698
sVCharacterOffsetBegin
p699
V179
p700
sVPartOfSpeech
p701
VNN
p702
sVLemma
p703
Vperson
p704
saa(lp705
Vget
p706
a(dp707
VNamedEntityTag
p708
g51
sVCharacterOffsetEnd
p709
V189
p710
sVCharacterOffsetBegin
p711
V186
p712
sVPartOfSpeech
p713
VVB
p714
sVLemma
p715
Vget
p716
saa(lp717
V?
p718
a(dp719
VNamedEntityTag
p720
g51
sVCharacterOffsetEnd
p721
V191
p722
sVCharacterOffsetBegin
p723
V190
p724
sVPartOfSpeech
p725
g154
sVLemma
p726
g718
saasVindexeddependencies
p727
(lp728
(lp729
Vroot
p730
aVROOT-0
p731
aVgot-4
p732
aa(lp733
Vmark
p734
aVgot-4
p735
aVIf-1
p736
aa(lp737
Vnsubj
p738
aVgot-4
p739
aVthey-2
p740
aa(lp741
Vdep
p742
aVgot-4
p743
aVeach-3
p744
aa(lp745
Vdet
p746
aVamount-7
p747
aVthe-5
p748
aa(lp749
Vamod
p750
aVamount-7
p751
aVsame-6
p752
aa(lp753
Vdobj
p754
aVgot-4
p755
aVamount-7
p756
aa(lp757
Vadvmod
p758
aVmany-9
p759
aVhow-8
p760
aa(lp761
Vdep
p762
aVget-13
p763
aVmany-9
p764
aa(lp765
Vaux
p766
aVget-13
p767
aVwould-10
p768
aa(lp769
Vdet
p770
aVperson-12
p771
aVeach-11
p772
aa(lp773
Vnsubj
p774
aVget-13
p775
aVperson-12
p776
aa(lp777
Vdep
p778
aVgot-4
p779
aVget-13
p780
aasas.