(dp0
Vcoref
p1
(lp2
(lp3
(lp4
(lp5
Vmushroom or pepperoni pizza
p6
aI0
aI9
aI6
aI10
aa(lp7
VThe lunch choices
p8
aI0
aI2
aI0
aI3
aaaa(lp9
(lp10
(lp11
Vthe cafeteria
p12
aI2
aI6
aI5
aI7
aa(lp13
VThe cafeteria
p14
aI1
aI1
aI0
aI2
aaaa(lp15
(lp16
(lp17
Vpizzas
p18
aI2
aI3
aI3
aI4
aa(lp19
V64 pizzas in all
p20
aI1
aI4
aI3
aI7
aaaa(lp21
(lp22
(lp23
Vmushroom pizzas
p24
aI2
aI2
aI2
aI4
aa(lp25
Vmushroom pizzas
p26
aI1
aI14
aI13
aI15
aaaasVsentences
p27
(lp28
(dp29
Vparsetree
p30
V(ROOT (S (NP (DT The) (NN lunch) (NNS choices)) (NP-TMP (JJ last) (NNP Friday)) (VP (VBD were) (NP (NN mushroom) (CC or) (NN pepperoni) (NN pizza))) (. .)))
p31
sVtext
p32
VThe lunch choices last Friday were mushroom or pepperoni pizza .
p33
sVdependencies
p34
(lp35
(lp36
Vroot
p37
aVROOT
p38
aVpizza
p39
aa(lp40
Vdet
p41
aVchoices
p42
aVThe
p43
aa(lp44
Vnn
p45
aVchoices
p46
aVlunch
p47
aa(lp48
Vnsubj
p49
aVpizza
p50
aVchoices
p51
aa(lp52
Vamod
p53
aVFriday
p54
aVlast
p55
aa(lp56
Vtmod
p57
aVpizza
p58
aVFriday
p59
aa(lp60
Vcop
p61
aVpizza
p62
aVwere
p63
aa(lp64
Vnn
p65
aVpizza
p66
aVmushroom
p67
aa(lp68
Vconj_or
p69
aVmushroom
p70
aVpepperoni
p71
aasVwords
p72
(lp73
(lp74
VThe
p75
a(dp76
VNamedEntityTag
p77
VO
p78
sVCharacterOffsetEnd
p79
V4
p80
sVCharacterOffsetBegin
p81
V1
p82
sVPartOfSpeech
p83
VDT
p84
sVLemma
p85
Vthe
p86
saa(lp87
Vlunch
p88
a(dp89
VNamedEntityTag
p90
g78
sVCharacterOffsetEnd
p91
V10
p92
sVCharacterOffsetBegin
p93
V5
p94
sVPartOfSpeech
p95
VNN
p96
sVLemma
p97
Vlunch
p98
saa(lp99
Vchoices
p100
a(dp101
VNamedEntityTag
p102
g78
sVCharacterOffsetEnd
p103
V18
p104
sVCharacterOffsetBegin
p105
V11
p106
sVPartOfSpeech
p107
VNNS
p108
sVLemma
p109
Vchoice
p110
saa(lp111
Vlast
p112
a(dp113
VNormalizedNamedEntityTag
p114
VXXXX-WXX-5
p115
sVTimex
p116
V<TIMEX3 alt_value="XXXX-WXX-5 OFFSET P-1W" anchorTimeID="t2" temporalFunction="true" tid="t1" type="DATE" valueFromFunction="tf0">last Friday</TIMEX3>
p117
sVLemma
p118
Vlast
p119
sVCharacterOffsetEnd
p120
V23
p121
sVPartOfSpeech
p122
VJJ
p123
sVCharacterOffsetBegin
p124
V19
p125
sVNamedEntityTag
p126
VDATE
p127
saa(lp128
VFriday
p129
a(dp130
VNormalizedNamedEntityTag
p131
VXXXX-WXX-5
p132
sVTimex
p133
V<TIMEX3 alt_value="XXXX-WXX-5 OFFSET P-1W" anchorTimeID="t2" temporalFunction="true" tid="t1" type="DATE" valueFromFunction="tf0">last Friday</TIMEX3>
p134
sVLemma
p135
VFriday
p136
sVCharacterOffsetEnd
p137
V30
p138
sVPartOfSpeech
p139
VNNP
p140
sVCharacterOffsetBegin
p141
V24
p142
sVNamedEntityTag
p143
VDATE
p144
saa(lp145
Vwere
p146
a(dp147
VNamedEntityTag
p148
g78
sVCharacterOffsetEnd
p149
V35
p150
sVCharacterOffsetBegin
p151
V31
p152
sVPartOfSpeech
p153
VVBD
p154
sVLemma
p155
Vbe
p156
saa(lp157
Vmushroom
p158
a(dp159
VNamedEntityTag
p160
g78
sVCharacterOffsetEnd
p161
V44
p162
sVCharacterOffsetBegin
p163
V36
p164
sVPartOfSpeech
p165
VNN
p166
sVLemma
p167
Vmushroom
p168
saa(lp169
Vor
p170
a(dp171
VNamedEntityTag
p172
g78
sVCharacterOffsetEnd
p173
V47
p174
sVCharacterOffsetBegin
p175
V45
p176
sVPartOfSpeech
p177
VCC
p178
sVLemma
p179
Vor
p180
saa(lp181
Vpepperoni
p182
a(dp183
VNamedEntityTag
p184
g78
sVCharacterOffsetEnd
p185
V57
p186
sVCharacterOffsetBegin
p187
V48
p188
sVPartOfSpeech
p189
VNN
p190
sVLemma
p191
Vpepperoni
p192
saa(lp193
Vpizza
p194
a(dp195
VNamedEntityTag
p196
g78
sVCharacterOffsetEnd
p197
V63
p198
sVCharacterOffsetBegin
p199
V58
p200
sVPartOfSpeech
p201
VNN
p202
sVLemma
p203
Vpizza
p204
saa(lp205
V.
p206
a(dp207
VNamedEntityTag
p208
g78
sVCharacterOffsetEnd
p209
V65
p210
sVCharacterOffsetBegin
p211
V64
p212
sVPartOfSpeech
p213
g206
sVLemma
p214
g206
saasVindexeddependencies
p215
(lp216
(lp217
Vroot
p218
aVROOT-0
p219
aVpizza-10
p220
aa(lp221
Vdet
p222
aVchoices-3
p223
aVThe-1
p224
aa(lp225
Vnn
p226
aVchoices-3
p227
aVlunch-2
p228
aa(lp229
Vnsubj
p230
aVpizza-10
p231
aVchoices-3
p232
aa(lp233
Vamod
p234
aVFriday-5
p235
aVlast-4
p236
aa(lp237
Vtmod
p238
aVpizza-10
p239
aVFriday-5
p240
aa(lp241
Vcop
p242
aVpizza-10
p243
aVwere-6
p244
aa(lp245
Vnn
p246
aVpizza-10
p247
aVmushroom-7
p248
aa(lp249
Vconj_or
p250
aVmushroom-7
p251
aVpepperoni-9
p252
aasa(dp253
Vparsetree
p254
V(ROOT (S (NP (DT The) (NN cafeteria)) (VP (VBD made) (NP (NP (CD 64) (NNS pizzas)) (PP (IN in) (NP (DT all)))) (, ,) (PP (NP (CD 0.75) (NNS times)) (IN of) (SBAR (WHNP (WDT which)) (S (VP (VBD were) (NP (NN mushroom) (NNS pizzas))))))) (. .)))
p255
sVtext
p256
VThe cafeteria made 64 pizzas in all , 0.75 times of which were mushroom pizzas .
p257
sVdependencies
p258
(lp259
(lp260
Vroot
p261
aVROOT
p262
aVmade
p263
aa(lp264
Vdet
p265
aVcafeteria
p266
aVThe
p267
aa(lp268
Vnsubj
p269
aVmade
p270
aVcafeteria
p271
aa(lp272
Vnum
p273
aVpizzas
p274
aV64
p275
aa(lp276
Vdobj
p277
aVmade
p278
aVpizzas
p279
aa(lp280
Vprep_in
p281
aVpizzas
p282
aVall
p283
aa(lp284
Vnum
p285
aVtimes
p286
aV0.75
p287
aa(lp288
Vnpadvmod
p289
aVmade
p290
aVtimes
p291
aa(lp292
Vnsubj
p293
aVpizzas
p294
aVwhich
p295
aa(lp296
Vcop
p297
aVpizzas
p298
aVwere
p299
aa(lp300
Vnn
p301
aVpizzas
p302
aVmushroom
p303
aa(lp304
Vprepc_of
p305
aVmade
p306
aVpizzas
p307
aasVwords
p308
(lp309
(lp310
VThe
p311
a(dp312
VNamedEntityTag
p313
g78
sVCharacterOffsetEnd
p314
V69
p315
sVCharacterOffsetBegin
p316
V66
p317
sVPartOfSpeech
p318
VDT
p319
sVLemma
p320
Vthe
p321
saa(lp322
Vcafeteria
p323
a(dp324
VNamedEntityTag
p325
g78
sVCharacterOffsetEnd
p326
V79
p327
sVCharacterOffsetBegin
p328
V70
p329
sVPartOfSpeech
p330
VNN
p331
sVLemma
p332
Vcafeteria
p333
saa(lp334
Vmade
p335
a(dp336
VNamedEntityTag
p337
g78
sVCharacterOffsetEnd
p338
V84
p339
sVCharacterOffsetBegin
p340
V80
p341
sVPartOfSpeech
p342
VVBD
p343
sVLemma
p344
Vmake
p345
saa(lp346
V64
p347
a(dp348
VNormalizedNamedEntityTag
p349
V64.0
p350
sVLemma
p351
V64
p352
sVCharacterOffsetEnd
p353
V87
p354
sVPartOfSpeech
p355
VCD
p356
sVCharacterOffsetBegin
p357
V85
p358
sVNamedEntityTag
p359
VNUMBER
p360
saa(lp361
Vpizzas
p362
a(dp363
VNamedEntityTag
p364
g78
sVCharacterOffsetEnd
p365
V94
p366
sVCharacterOffsetBegin
p367
V88
p368
sVPartOfSpeech
p369
VNNS
p370
sVLemma
p371
Vpizza
p372
saa(lp373
Vin
p374
a(dp375
VNamedEntityTag
p376
g78
sVCharacterOffsetEnd
p377
V97
p378
sVCharacterOffsetBegin
p379
V95
p380
sVPartOfSpeech
p381
VIN
p382
sVLemma
p383
Vin
p384
saa(lp385
Vall
p386
a(dp387
VNamedEntityTag
p388
g78
sVCharacterOffsetEnd
p389
V101
p390
sVCharacterOffsetBegin
p391
V98
p392
sVPartOfSpeech
p393
VDT
p394
sVLemma
p395
Vall
p396
saa(lp397
V,
p398
a(dp399
VNamedEntityTag
p400
g78
sVCharacterOffsetEnd
p401
V103
p402
sVCharacterOffsetBegin
p403
V102
p404
sVPartOfSpeech
p405
g398
sVLemma
p406
g398
saa(lp407
V0.75
p408
a(dp409
VNormalizedNamedEntityTag
p410
V0.75
p411
sVLemma
p412
V0.75
p413
sVCharacterOffsetEnd
p414
V108
p415
sVPartOfSpeech
p416
VCD
p417
sVCharacterOffsetBegin
p418
V104
p419
sVNamedEntityTag
p420
VNUMBER
p421
saa(lp422
Vtimes
p423
a(dp424
VNamedEntityTag
p425
g78
sVCharacterOffsetEnd
p426
V114
p427
sVCharacterOffsetBegin
p428
V109
p429
sVPartOfSpeech
p430
VNNS
p431
sVLemma
p432
Vtime
p433
saa(lp434
Vof
p435
a(dp436
VNamedEntityTag
p437
g78
sVCharacterOffsetEnd
p438
V117
p439
sVCharacterOffsetBegin
p440
V115
p441
sVPartOfSpeech
p442
VIN
p443
sVLemma
p444
Vof
p445
saa(lp446
Vwhich
p447
a(dp448
VNamedEntityTag
p449
g78
sVCharacterOffsetEnd
p450
V123
p451
sVCharacterOffsetBegin
p452
V118
p453
sVPartOfSpeech
p454
VWDT
p455
sVLemma
p456
Vwhich
p457
saa(lp458
Vwere
p459
a(dp460
VNamedEntityTag
p461
g78
sVCharacterOffsetEnd
p462
V128
p463
sVCharacterOffsetBegin
p464
V124
p465
sVPartOfSpeech
p466
VVBD
p467
sVLemma
p468
Vbe
p469
saa(lp470
Vmushroom
p471
a(dp472
VNamedEntityTag
p473
g78
sVCharacterOffsetEnd
p474
V137
p475
sVCharacterOffsetBegin
p476
V129
p477
sVPartOfSpeech
p478
VNN
p479
sVLemma
p480
Vmushroom
p481
saa(lp482
Vpizzas
p483
a(dp484
VNamedEntityTag
p485
g78
sVCharacterOffsetEnd
p486
V144
p487
sVCharacterOffsetBegin
p488
V138
p489
sVPartOfSpeech
p490
VNNS
p491
sVLemma
p492
Vpizza
p493
saa(lp494
g206
a(dp495
VNamedEntityTag
p496
g78
sVCharacterOffsetEnd
p497
V146
p498
sVCharacterOffsetBegin
p499
V145
p500
sVPartOfSpeech
p501
g206
sVLemma
p502
g206
saasVindexeddependencies
p503
(lp504
(lp505
Vroot
p506
aVROOT-0
p507
aVmade-3
p508
aa(lp509
Vdet
p510
aVcafeteria-2
p511
aVThe-1
p512
aa(lp513
Vnsubj
p514
aVmade-3
p515
aVcafeteria-2
p516
aa(lp517
Vnum
p518
aVpizzas-5
p519
aV64-4
p520
aa(lp521
Vdobj
p522
aVmade-3
p523
aVpizzas-5
p524
aa(lp525
Vprep_in
p526
aVpizzas-5
p527
aVall-7
p528
aa(lp529
Vnum
p530
aVtimes-10
p531
aV0.75-9
p532
aa(lp533
Vnpadvmod
p534
aVmade-3
p535
aVtimes-10
p536
aa(lp537
Vnsubj
p538
aVpizzas-15
p539
aVwhich-12
p540
aa(lp541
Vcop
p542
aVpizzas-15
p543
aVwere-13
p544
aa(lp545
Vnn
p546
aVpizzas-15
p547
aVmushroom-14
p548
aa(lp549
Vprepc_of
p550
aVmade-3
p551
aVpizzas-15
p552
aasa(dp553
Vparsetree
p554
V(ROOT (SBARQ (WHNP (WHADJP (WRB How) (JJ many)) (NP (NP (NN mushroom)) (NP (NNS pizzas)))) (SQ (VBD did) (NP (DT the) (NN cafeteria)) (VP (VB make))) (. ?)))
p555
sVtext
p556
VHow many mushroom pizzas did the cafeteria make ?
p557
sVdependencies
p558
(lp559
(lp560
Vroot
p561
aVROOT
p562
aVmake
p563
aa(lp564
Vadvmod
p565
aVmany
p566
aVHow
p567
aa(lp568
Vamod
p569
aVmushroom
p570
aVmany
p571
aa(lp572
Vdobj
p573
aVmake
p574
aVmushroom
p575
aa(lp576
Vdep
p577
aVmushroom
p578
aVpizzas
p579
aa(lp580
Vaux
p581
aVmake
p582
aVdid
p583
aa(lp584
Vdet
p585
aVcafeteria
p586
aVthe
p587
aa(lp588
Vnsubj
p589
aVmake
p590
aVcafeteria
p591
aasVwords
p592
(lp593
(lp594
VHow
p595
a(dp596
VNamedEntityTag
p597
g78
sVCharacterOffsetEnd
p598
V150
p599
sVCharacterOffsetBegin
p600
V147
p601
sVPartOfSpeech
p602
VWRB
p603
sVLemma
p604
Vhow
p605
saa(lp606
Vmany
p607
a(dp608
VNamedEntityTag
p609
g78
sVCharacterOffsetEnd
p610
V155
p611
sVCharacterOffsetBegin
p612
V151
p613
sVPartOfSpeech
p614
VJJ
p615
sVLemma
p616
Vmany
p617
saa(lp618
Vmushroom
p619
a(dp620
VNamedEntityTag
p621
g78
sVCharacterOffsetEnd
p622
V164
p623
sVCharacterOffsetBegin
p624
V156
p625
sVPartOfSpeech
p626
VNN
p627
sVLemma
p628
Vmushroom
p629
saa(lp630
Vpizzas
p631
a(dp632
VNamedEntityTag
p633
g78
sVCharacterOffsetEnd
p634
V171
p635
sVCharacterOffsetBegin
p636
V165
p637
sVPartOfSpeech
p638
VNNS
p639
sVLemma
p640
Vpizza
p641
saa(lp642
Vdid
p643
a(dp644
VNamedEntityTag
p645
g78
sVCharacterOffsetEnd
p646
V175
p647
sVCharacterOffsetBegin
p648
V172
p649
sVPartOfSpeech
p650
VVBD
p651
sVLemma
p652
Vdo
p653
saa(lp654
Vthe
p655
a(dp656
VNamedEntityTag
p657
g78
sVCharacterOffsetEnd
p658
V179
p659
sVCharacterOffsetBegin
p660
V176
p661
sVPartOfSpeech
p662
VDT
p663
sVLemma
p664
Vthe
p665
saa(lp666
Vcafeteria
p667
a(dp668
VNamedEntityTag
p669
g78
sVCharacterOffsetEnd
p670
V189
p671
sVCharacterOffsetBegin
p672
V180
p673
sVPartOfSpeech
p674
VNN
p675
sVLemma
p676
Vcafeteria
p677
saa(lp678
Vmake
p679
a(dp680
VNamedEntityTag
p681
g78
sVCharacterOffsetEnd
p682
V194
p683
sVCharacterOffsetBegin
p684
V190
p685
sVPartOfSpeech
p686
VVB
p687
sVLemma
p688
Vmake
p689
saa(lp690
V?
p691
a(dp692
VNamedEntityTag
p693
g78
sVCharacterOffsetEnd
p694
V196
p695
sVCharacterOffsetBegin
p696
V195
p697
sVPartOfSpeech
p698
g206
sVLemma
p699
g691
saasVindexeddependencies
p700
(lp701
(lp702
Vroot
p703
aVROOT-0
p704
aVmake-8
p705
aa(lp706
Vadvmod
p707
aVmany-2
p708
aVHow-1
p709
aa(lp710
Vamod
p711
aVmushroom-3
p712
aVmany-2
p713
aa(lp714
Vdobj
p715
aVmake-8
p716
aVmushroom-3
p717
aa(lp718
Vdep
p719
aVmushroom-3
p720
aVpizzas-4
p721
aa(lp722
Vaux
p723
aVmake-8
p724
aVdid-5
p725
aa(lp726
Vdet
p727
aVcafeteria-7
p728
aVthe-6
p729
aa(lp730
Vnsubj
p731
aVmake-8
p732
aVcafeteria-7
p733
aasas.