(dp0
Vcoref
p1
(lp2
(lp3
(lp4
(lp5
Vshe
p6
aI1
aI1
aI1
aI2
aa(lp7
VNancy 's
p8
aI0
aI0
aI0
aI2
aaa(lp9
(lp10
Vshe
p11
aI1
aI14
aI14
aI15
aa(lp12
VNancy 's
p13
aI0
aI0
aI0
aI2
aaaasVsentences
p14
(lp15
(dp16
Vparsetree
p17
V(ROOT (S (NP (NP (NNP Nancy) (POS 's)) (JJ old) (VBG washing) (NN machine)) (VP (MD could) (ADVP (RB only)) (VP (VB wash) (NP (NP (CD 9) (NNS pieces)) (PP (IN of) (NP (NN clothing)))) (PP (IN at) (NP (DT a) (NN time))))) (. .)))
p18
sVtext
p19
VNancy's old washing machine could only wash 9 pieces of clothing at a time .
p20
sVdependencies
p21
(lp22
(lp23
Vroot
p24
aVROOT
p25
aVwash
p26
aa(lp27
Vposs
p28
aVmachine
p29
aVNancy
p30
aa(lp31
Vamod
p32
aVmachine
p33
aVold
p34
aa(lp35
Vamod
p36
aVmachine
p37
aVwashing
p38
aa(lp39
Vnsubj
p40
aVwash
p41
aVmachine
p42
aa(lp43
Vaux
p44
aVwash
p45
aVcould
p46
aa(lp47
Vadvmod
p48
aVwash
p49
aVonly
p50
aa(lp51
Vnum
p52
aVpieces
p53
aV9
p54
aa(lp55
Vdobj
p56
aVwash
p57
aVpieces
p58
aa(lp59
Vprep_of
p60
aVpieces
p61
aVclothing
p62
aa(lp63
Vdet
p64
aVtime
p65
aVa
p66
aa(lp67
Vprep_at
p68
aVwash
p69
aVtime
p70
aasVwords
p71
(lp72
(lp73
VNancy
p74
a(dp75
VNamedEntityTag
p76
VPERSON
p77
sVCharacterOffsetEnd
p78
V6
p79
sVCharacterOffsetBegin
p80
V1
p81
sVPartOfSpeech
p82
VNNP
p83
sVLemma
p84
VNancy
p85
saa(lp86
V's
p87
a(dp88
VNamedEntityTag
p89
VO
p90
sVCharacterOffsetEnd
p91
V8
p92
sVCharacterOffsetBegin
p93
g79
sVPartOfSpeech
p94
VPOS
p95
sVLemma
p96
V's
p97
saa(lp98
Vold
p99
a(dp100
VNamedEntityTag
p101
g90
sVCharacterOffsetEnd
p102
V12
p103
sVCharacterOffsetBegin
p104
g54
sVPartOfSpeech
p105
VJJ
p106
sVLemma
p107
Vold
p108
saa(lp109
Vwashing
p110
a(dp111
VNamedEntityTag
p112
g90
sVCharacterOffsetEnd
p113
V20
p114
sVCharacterOffsetBegin
p115
V13
p116
sVPartOfSpeech
p117
VVBG
p118
sVLemma
p119
Vwash
p120
saa(lp121
Vmachine
p122
a(dp123
VNamedEntityTag
p124
g90
sVCharacterOffsetEnd
p125
V28
p126
sVCharacterOffsetBegin
p127
V21
p128
sVPartOfSpeech
p129
VNN
p130
sVLemma
p131
Vmachine
p132
saa(lp133
Vcould
p134
a(dp135
VNamedEntityTag
p136
g90
sVCharacterOffsetEnd
p137
V34
p138
sVCharacterOffsetBegin
p139
V29
p140
sVPartOfSpeech
p141
VMD
p142
sVLemma
p143
Vcould
p144
saa(lp145
Vonly
p146
a(dp147
VNamedEntityTag
p148
g90
sVCharacterOffsetEnd
p149
V39
p150
sVCharacterOffsetBegin
p151
V35
p152
sVPartOfSpeech
p153
VRB
p154
sVLemma
p155
Vonly
p156
saa(lp157
Vwash
p158
a(dp159
VNamedEntityTag
p160
g90
sVCharacterOffsetEnd
p161
V44
p162
sVCharacterOffsetBegin
p163
V40
p164
sVPartOfSpeech
p165
VVB
p166
sVLemma
p167
Vwash
p168
saa(lp169
g54
a(dp170
VNormalizedNamedEntityTag
p171
V9.0
p172
sVLemma
p173
g54
sVCharacterOffsetEnd
p174
V46
p175
sVPartOfSpeech
p176
VCD
p177
sVCharacterOffsetBegin
p178
V45
p179
sVNamedEntityTag
p180
VNUMBER
p181
saa(lp182
Vpieces
p183
a(dp184
VNamedEntityTag
p185
g90
sVCharacterOffsetEnd
p186
V53
p187
sVCharacterOffsetBegin
p188
V47
p189
sVPartOfSpeech
p190
VNNS
p191
sVLemma
p192
Vpiece
p193
saa(lp194
Vof
p195
a(dp196
VNamedEntityTag
p197
g90
sVCharacterOffsetEnd
p198
V56
p199
sVCharacterOffsetBegin
p200
V54
p201
sVPartOfSpeech
p202
VIN
p203
sVLemma
p204
Vof
p205
saa(lp206
Vclothing
p207
a(dp208
VNamedEntityTag
p209
g90
sVCharacterOffsetEnd
p210
V65
p211
sVCharacterOffsetBegin
p212
V57
p213
sVPartOfSpeech
p214
VNN
p215
sVLemma
p216
Vclothing
p217
saa(lp218
Vat
p219
a(dp220
VNamedEntityTag
p221
g90
sVCharacterOffsetEnd
p222
V68
p223
sVCharacterOffsetBegin
p224
V66
p225
sVPartOfSpeech
p226
VIN
p227
sVLemma
p228
Vat
p229
saa(lp230
g66
a(dp231
VNamedEntityTag
p232
g90
sVCharacterOffsetEnd
p233
V70
p234
sVCharacterOffsetBegin
p235
V69
p236
sVPartOfSpeech
p237
VDT
p238
sVLemma
p239
g66
saa(lp240
Vtime
p241
a(dp242
VNamedEntityTag
p243
g90
sVCharacterOffsetEnd
p244
V75
p245
sVCharacterOffsetBegin
p246
V71
p247
sVPartOfSpeech
p248
VNN
p249
sVLemma
p250
Vtime
p251
saa(lp252
V.
p253
a(dp254
VNamedEntityTag
p255
g90
sVCharacterOffsetEnd
p256
V77
p257
sVCharacterOffsetBegin
p258
V76
p259
sVPartOfSpeech
p260
g253
sVLemma
p261
g253
saasVindexeddependencies
p262
(lp263
(lp264
Vroot
p265
aVROOT-0
p266
aVwash-8
p267
aa(lp268
Vposs
p269
aVmachine-5
p270
aVNancy-1
p271
aa(lp272
Vamod
p273
aVmachine-5
p274
aVold-3
p275
aa(lp276
Vamod
p277
aVmachine-5
p278
aVwashing-4
p279
aa(lp280
Vnsubj
p281
aVwash-8
p282
aVmachine-5
p283
aa(lp284
Vaux
p285
aVwash-8
p286
aVcould-6
p287
aa(lp288
Vadvmod
p289
aVwash-8
p290
aVonly-7
p291
aa(lp292
Vnum
p293
aVpieces-10
p294
aV9-9
p295
aa(lp296
Vdobj
p297
aVwash-8
p298
aVpieces-10
p299
aa(lp300
Vprep_of
p301
aVpieces-10
p302
aVclothing-12
p303
aa(lp304
Vdet
p305
aVtime-15
p306
aVa-14
p307
aa(lp308
Vprep_at
p309
aVwash-8
p310
aVtime-15
p311
aasa(dp312
Vparsetree
p313
V(ROOT (SBAR (IN If) (S (NP (PRP she)) (VP (VBD had) (S (S (VP (TO to) (VP (VB wash) (NP (NP (CD 19) (NNS shirts)) (CC and) (NP (CD 8) (NNS sweaters)))))) (SBARQ (WHNP (WHADJP (WRB how) (JJ many)) (NNS loads)) (SQ (MD would) (NP (PRP she)) (VP (VB have) (S (VP (TO to) (VP (VB do)))))) (. ?)))))))
p314
sVtext
p315
VIf she had to wash 19 shirts and 8 sweaters how many loads would she have to do ?
p316
sVdependencies
p317
(lp318
(lp319
Vroot
p320
aVROOT
p321
aVhad
p322
aa(lp323
Vmark
p324
aVhad
p325
aVIf
p326
aa(lp327
Vnsubj
p328
aVhad
p329
aVshe
p330
aa(lp331
Vaux
p332
aVwash
p333
aVto
p334
aa(lp335
Vdep
p336
aVhad
p337
aVwash
p338
aa(lp339
Vnum
p340
aVshirts
p341
aV19
p342
aa(lp343
Vdobj
p344
aVwash
p345
aVshirts
p346
aa(lp347
Vnum
p348
aVsweaters
p349
ag92
aa(lp350
Vconj_and
p351
aVshirts
p352
aVsweaters
p353
aa(lp354
Vadvmod
p355
aVmany
p356
aVhow
p357
aa(lp358
Vamod
p359
aVloads
p360
aVmany
p361
aa(lp362
Vdep
p363
aVhave
p364
aVloads
p365
aa(lp366
Vaux
p367
aVhave
p368
aVwould
p369
aa(lp370
Vnsubj
p371
aVhave
p372
aVshe
p373
aa(lp374
Vparataxis
p375
aVwash
p376
aVhave
p377
aa(lp378
Vaux
p379
aVdo
p380
aVto
p381
aa(lp382
Vxcomp
p383
aVhave
p384
aVdo
p385
aasVwords
p386
(lp387
(lp388
VIf
p389
a(dp390
VNamedEntityTag
p391
g90
sVCharacterOffsetEnd
p392
V80
p393
sVCharacterOffsetBegin
p394
V78
p395
sVPartOfSpeech
p396
VIN
p397
sVLemma
p398
Vif
p399
saa(lp400
Vshe
p401
a(dp402
VNamedEntityTag
p403
g90
sVCharacterOffsetEnd
p404
V84
p405
sVCharacterOffsetBegin
p406
V81
p407
sVPartOfSpeech
p408
VPRP
p409
sVLemma
p410
Vshe
p411
saa(lp412
Vhad
p413
a(dp414
VNamedEntityTag
p415
g90
sVCharacterOffsetEnd
p416
V88
p417
sVCharacterOffsetBegin
p418
V85
p419
sVPartOfSpeech
p420
VVBD
p421
sVLemma
p422
Vhave
p423
saa(lp424
Vto
p425
a(dp426
VNamedEntityTag
p427
g90
sVCharacterOffsetEnd
p428
V91
p429
sVCharacterOffsetBegin
p430
V89
p431
sVPartOfSpeech
p432
VTO
p433
sVLemma
p434
Vto
p435
saa(lp436
Vwash
p437
a(dp438
VNamedEntityTag
p439
g90
sVCharacterOffsetEnd
p440
V96
p441
sVCharacterOffsetBegin
p442
V92
p443
sVPartOfSpeech
p444
VVB
p445
sVLemma
p446
Vwash
p447
saa(lp448
V19
p449
a(dp450
VNormalizedNamedEntityTag
p451
V19.0
p452
sVLemma
p453
V19
p454
sVCharacterOffsetEnd
p455
V99
p456
sVPartOfSpeech
p457
VCD
p458
sVCharacterOffsetBegin
p459
V97
p460
sVNamedEntityTag
p461
VNUMBER
p462
saa(lp463
Vshirts
p464
a(dp465
VNamedEntityTag
p466
g90
sVCharacterOffsetEnd
p467
V106
p468
sVCharacterOffsetBegin
p469
V100
p470
sVPartOfSpeech
p471
VNNS
p472
sVLemma
p473
Vshirt
p474
saa(lp475
Vand
p476
a(dp477
VNamedEntityTag
p478
g90
sVCharacterOffsetEnd
p479
V110
p480
sVCharacterOffsetBegin
p481
V107
p482
sVPartOfSpeech
p483
VCC
p484
sVLemma
p485
Vand
p486
saa(lp487
g92
a(dp488
VNormalizedNamedEntityTag
p489
V8.0
p490
sVLemma
p491
g92
sVCharacterOffsetEnd
p492
V112
p493
sVPartOfSpeech
p494
VCD
p495
sVCharacterOffsetBegin
p496
V111
p497
sVNamedEntityTag
p498
VNUMBER
p499
saa(lp500
Vsweaters
p501
a(dp502
VNamedEntityTag
p503
g90
sVCharacterOffsetEnd
p504
V121
p505
sVCharacterOffsetBegin
p506
V113
p507
sVPartOfSpeech
p508
VNNS
p509
sVLemma
p510
Vsweater
p511
saa(lp512
Vhow
p513
a(dp514
VNamedEntityTag
p515
g90
sVCharacterOffsetEnd
p516
V125
p517
sVCharacterOffsetBegin
p518
V122
p519
sVPartOfSpeech
p520
VWRB
p521
sVLemma
p522
Vhow
p523
saa(lp524
Vmany
p525
a(dp526
VNamedEntityTag
p527
g90
sVCharacterOffsetEnd
p528
V130
p529
sVCharacterOffsetBegin
p530
V126
p531
sVPartOfSpeech
p532
VJJ
p533
sVLemma
p534
Vmany
p535
saa(lp536
Vloads
p537
a(dp538
VNamedEntityTag
p539
g90
sVCharacterOffsetEnd
p540
V136
p541
sVCharacterOffsetBegin
p542
V131
p543
sVPartOfSpeech
p544
VNNS
p545
sVLemma
p546
Vload
p547
saa(lp548
Vwould
p549
a(dp550
VNamedEntityTag
p551
g90
sVCharacterOffsetEnd
p552
V142
p553
sVCharacterOffsetBegin
p554
V137
p555
sVPartOfSpeech
p556
VMD
p557
sVLemma
p558
Vwould
p559
saa(lp560
Vshe
p561
a(dp562
VNamedEntityTag
p563
g90
sVCharacterOffsetEnd
p564
V146
p565
sVCharacterOffsetBegin
p566
V143
p567
sVPartOfSpeech
p568
VPRP
p569
sVLemma
p570
Vshe
p571
saa(lp572
Vhave
p573
a(dp574
VNamedEntityTag
p575
g90
sVCharacterOffsetEnd
p576
V151
p577
sVCharacterOffsetBegin
p578
V147
p579
sVPartOfSpeech
p580
VVB
p581
sVLemma
p582
Vhave
p583
saa(lp584
Vto
p585
a(dp586
VNamedEntityTag
p587
g90
sVCharacterOffsetEnd
p588
V154
p589
sVCharacterOffsetBegin
p590
V152
p591
sVPartOfSpeech
p592
VTO
p593
sVLemma
p594
Vto
p595
saa(lp596
Vdo
p597
a(dp598
VNamedEntityTag
p599
g90
sVCharacterOffsetEnd
p600
V157
p601
sVCharacterOffsetBegin
p602
V155
p603
sVPartOfSpeech
p604
VVB
p605
sVLemma
p606
Vdo
p607
saa(lp608
V?
p609
a(dp610
VNamedEntityTag
p611
g90
sVCharacterOffsetEnd
p612
V159
p613
sVCharacterOffsetBegin
p614
V158
p615
sVPartOfSpeech
p616
g253
sVLemma
p617
g609
saasVindexeddependencies
p618
(lp619
(lp620
Vroot
p621
aVROOT-0
p622
aVhad-3
p623
aa(lp624
Vmark
p625
aVhad-3
p626
aVIf-1
p627
aa(lp628
Vnsubj
p629
aVhad-3
p630
aVshe-2
p631
aa(lp632
Vaux
p633
aVwash-5
p634
aVto-4
p635
aa(lp636
Vdep
p637
aVhad-3
p638
aVwash-5
p639
aa(lp640
Vnum
p641
aVshirts-7
p642
aV19-6
p643
aa(lp644
Vdobj
p645
aVwash-5
p646
aVshirts-7
p647
aa(lp648
Vnum
p649
aVsweaters-10
p650
aV8-9
p651
aa(lp652
Vconj_and
p653
aVshirts-7
p654
aVsweaters-10
p655
aa(lp656
Vadvmod
p657
aVmany-12
p658
aVhow-11
p659
aa(lp660
Vamod
p661
aVloads-13
p662
aVmany-12
p663
aa(lp664
Vdep
p665
aVhave-16
p666
aVloads-13
p667
aa(lp668
Vaux
p669
aVhave-16
p670
aVwould-14
p671
aa(lp672
Vnsubj
p673
aVhave-16
p674
aVshe-15
p675
aa(lp676
Vparataxis
p677
aVwash-5
p678
aVhave-16
p679
aa(lp680
Vaux
p681
aVdo-18
p682
aVto-17
p683
aa(lp684
Vxcomp
p685
aVhave-16
p686
aVdo-18
p687
aasas.