(dp0
Vcoref
p1
(lp2
(lp3
(lp4
(lp5
Vhe
p6
aI1
aI1
aI1
aI2
aa(lp7
VJerry
p8
aI0
aI0
aI0
aI1
aaa(lp9
(lp10
Vhim
p11
aI1
aI15
aI15
aI16
aa(lp12
VJerry
p13
aI0
aI0
aI0
aI1
aaaasVsentences
p14
(lp15
(dp16
Vparsetree
p17
V(ROOT (S (NP (NNP Jerry)) (VP (VBD made) (NP (NP (CD 14) (NNS dollars)) (VP (VBG mowing) (NP (NP (NNS lawns)) (CC and) (NP (CD 31) (NNS dollars) (NN weed) (NN eating)))))) (. .)))
p18
sVtext
p19
VJerry made 14 dollars mowing lawns and 31 dollars weed eating .
p20
sVdependencies
p21
(lp22
(lp23
Vroot
p24
aVROOT
p25
aVmade
p26
aa(lp27
Vnsubj
p28
aVmade
p29
aVJerry
p30
aa(lp31
Vnum
p32
aVdollars
p33
aV14
p34
aa(lp35
Vdobj
p36
aVmade
p37
aVdollars
p38
aa(lp39
Vvmod
p40
aVdollars
p41
aVmowing
p42
aa(lp43
Vdobj
p44
aVmowing
p45
aVlawns
p46
aa(lp47
Vnum
p48
aVeating
p49
aV31
p50
aa(lp51
Vnn
p52
aVeating
p53
aVdollars
p54
aa(lp55
Vnn
p56
aVeating
p57
aVweed
p58
aa(lp59
Vconj_and
p60
aVlawns
p61
aVeating
p62
aasVwords
p63
(lp64
(lp65
VJerry
p66
a(dp67
VNamedEntityTag
p68
VPERSON
p69
sVCharacterOffsetEnd
p70
V6
p71
sVCharacterOffsetBegin
p72
V1
p73
sVPartOfSpeech
p74
VNNP
p75
sVLemma
p76
VJerry
p77
saa(lp78
Vmade
p79
a(dp80
VNamedEntityTag
p81
VO
p82
sVCharacterOffsetEnd
p83
V11
p84
sVCharacterOffsetBegin
p85
V7
p86
sVPartOfSpeech
p87
VVBD
p88
sVLemma
p89
Vmake
p90
saa(lp91
V14
p92
a(dp93
VNormalizedNamedEntityTag
p94
V$14.0
p95
sVLemma
p96
V14
p97
sVCharacterOffsetEnd
p98
V14
p99
sVPartOfSpeech
p100
VCD
p101
sVCharacterOffsetBegin
p102
V12
p103
sVNamedEntityTag
p104
VMONEY
p105
saa(lp106
Vdollars
p107
a(dp108
VNormalizedNamedEntityTag
p109
V$14.0
p110
sVLemma
p111
Vdollar
p112
sVCharacterOffsetEnd
p113
V22
p114
sVPartOfSpeech
p115
VNNS
p116
sVCharacterOffsetBegin
p117
V15
p118
sVNamedEntityTag
p119
VMONEY
p120
saa(lp121
Vmowing
p122
a(dp123
VNamedEntityTag
p124
g82
sVCharacterOffsetEnd
p125
V29
p126
sVCharacterOffsetBegin
p127
V23
p128
sVPartOfSpeech
p129
VVBG
p130
sVLemma
p131
Vmow
p132
saa(lp133
Vlawns
p134
a(dp135
VNamedEntityTag
p136
g82
sVCharacterOffsetEnd
p137
V35
p138
sVCharacterOffsetBegin
p139
V30
p140
sVPartOfSpeech
p141
VNNS
p142
sVLemma
p143
Vlawn
p144
saa(lp145
Vand
p146
a(dp147
VNamedEntityTag
p148
g82
sVCharacterOffsetEnd
p149
V39
p150
sVCharacterOffsetBegin
p151
V36
p152
sVPartOfSpeech
p153
VCC
p154
sVLemma
p155
Vand
p156
saa(lp157
V31
p158
a(dp159
VNormalizedNamedEntityTag
p160
V$31.0
p161
sVLemma
p162
V31
p163
sVCharacterOffsetEnd
p164
V42
p165
sVPartOfSpeech
p166
VCD
p167
sVCharacterOffsetBegin
p168
V40
p169
sVNamedEntityTag
p170
VMONEY
p171
saa(lp172
Vdollars
p173
a(dp174
VNormalizedNamedEntityTag
p175
V$31.0
p176
sVLemma
p177
Vdollar
p178
sVCharacterOffsetEnd
p179
V50
p180
sVPartOfSpeech
p181
VNNS
p182
sVCharacterOffsetBegin
p183
V43
p184
sVNamedEntityTag
p185
VMONEY
p186
saa(lp187
Vweed
p188
a(dp189
VNamedEntityTag
p190
g82
sVCharacterOffsetEnd
p191
V55
p192
sVCharacterOffsetBegin
p193
V51
p194
sVPartOfSpeech
p195
VNN
p196
sVLemma
p197
Vweed
p198
saa(lp199
Veating
p200
a(dp201
VNamedEntityTag
p202
g82
sVCharacterOffsetEnd
p203
V62
p204
sVCharacterOffsetBegin
p205
V56
p206
sVPartOfSpeech
p207
VNN
p208
sVLemma
p209
Veating
p210
saa(lp211
V.
p212
a(dp213
VNamedEntityTag
p214
g82
sVCharacterOffsetEnd
p215
V64
p216
sVCharacterOffsetBegin
p217
V63
p218
sVPartOfSpeech
p219
g212
sVLemma
p220
g212
saasVindexeddependencies
p221
(lp222
(lp223
Vroot
p224
aVROOT-0
p225
aVmade-2
p226
aa(lp227
Vnsubj
p228
aVmade-2
p229
aVJerry-1
p230
aa(lp231
Vnum
p232
aVdollars-4
p233
aV14-3
p234
aa(lp235
Vdobj
p236
aVmade-2
p237
aVdollars-4
p238
aa(lp239
Vvmod
p240
aVdollars-4
p241
aVmowing-5
p242
aa(lp243
Vdobj
p244
aVmowing-5
p245
aVlawns-6
p246
aa(lp247
Vnum
p248
aVeating-11
p249
aV31-8
p250
aa(lp251
Vnn
p252
aVeating-11
p253
aVdollars-9
p254
aa(lp255
Vnn
p256
aVeating-11
p257
aVweed-10
p258
aa(lp259
Vconj_and
p260
aVlawns-6
p261
aVeating-11
p262
aasa(dp263
Vparsetree
p264
V(ROOT (SBARQ (SBAR (IN If) (S (NP (PRP he)) (ADVP (RB only)) (VP (VBD spent) (NP (CD 5) (NN dollar)) (NP-TMP (DT a) (NN week))))) (, ,) (WHADVP (WRB how) (RB long)) (SQ (VP (MD would)) (NP (DT the) (NN money)) (ADVP (JJ last)) (NP (PRP him)) (. ?))))
p265
sVtext
p266
VIf he only spent 5 dollar a week , how long would the money last him ?
p267
sVdependencies
p268
(lp269
(lp270
Vroot
p271
aVROOT
p272
aVwould
p273
aa(lp274
Vmark
p275
aVspent
p276
aVIf
p277
aa(lp278
Vnsubj
p279
aVspent
p280
aVhe
p281
aa(lp282
Vadvmod
p283
aVspent
p284
aVonly
p285
aa(lp286
Vadvcl
p287
aVwould
p288
aVspent
p289
aa(lp290
Vnum
p291
aVdollar
p292
aV5
p293
aa(lp294
Vdobj
p295
aVspent
p296
aVdollar
p297
aa(lp298
Vdet
p299
aVweek
p300
aVa
p301
aa(lp302
Vtmod
p303
aVspent
p304
aVweek
p305
aa(lp306
Vadvmod
p307
aVlong
p308
aVhow
p309
aa(lp310
Vadvmod
p311
aVwould
p312
aVlong
p313
aa(lp314
Vdet
p315
aVmoney
p316
aVthe
p317
aa(lp318
Vdep
p319
aVwould
p320
aVmoney
p321
aa(lp322
Vadvmod
p323
aVwould
p324
aVlast
p325
aa(lp326
Vdep
p327
aVwould
p328
aVhim
p329
aasVwords
p330
(lp331
(lp332
VIf
p333
a(dp334
VNamedEntityTag
p335
g82
sVCharacterOffsetEnd
p336
V67
p337
sVCharacterOffsetBegin
p338
V65
p339
sVPartOfSpeech
p340
VIN
p341
sVLemma
p342
Vif
p343
saa(lp344
Vhe
p345
a(dp346
VNamedEntityTag
p347
g82
sVCharacterOffsetEnd
p348
V70
p349
sVCharacterOffsetBegin
p350
V68
p351
sVPartOfSpeech
p352
VPRP
p353
sVLemma
p354
Vhe
p355
saa(lp356
Vonly
p357
a(dp358
VNamedEntityTag
p359
g82
sVCharacterOffsetEnd
p360
V75
p361
sVCharacterOffsetBegin
p362
V71
p363
sVPartOfSpeech
p364
VRB
p365
sVLemma
p366
Vonly
p367
saa(lp368
Vspent
p369
a(dp370
VNamedEntityTag
p371
g82
sVCharacterOffsetEnd
p372
V81
p373
sVCharacterOffsetBegin
p374
V76
p375
sVPartOfSpeech
p376
VVBD
p377
sVLemma
p378
Vspend
p379
saa(lp380
g293
a(dp381
VNormalizedNamedEntityTag
p382
V$5.0
p383
sVLemma
p384
g293
sVCharacterOffsetEnd
p385
V83
p386
sVPartOfSpeech
p387
VCD
p388
sVCharacterOffsetBegin
p389
V82
p390
sVNamedEntityTag
p391
VMONEY
p392
saa(lp393
Vdollar
p394
a(dp395
VNormalizedNamedEntityTag
p396
V$5.0
p397
sVLemma
p398
Vdollar
p399
sVCharacterOffsetEnd
p400
V90
p401
sVPartOfSpeech
p402
VNN
p403
sVCharacterOffsetBegin
p404
V84
p405
sVNamedEntityTag
p406
VMONEY
p407
saa(lp408
g301
a(dp409
VNormalizedNamedEntityTag
p410
VP1W
p411
sVTimex
p412
V<TIMEX3 tid="t1" type="DURATION" value="P1W">a week</TIMEX3>
p413
sVLemma
p414
g301
sVCharacterOffsetEnd
p415
V92
p416
sVPartOfSpeech
p417
VDT
p418
sVCharacterOffsetBegin
p419
V91
p420
sVNamedEntityTag
p421
VDURATION
p422
saa(lp423
Vweek
p424
a(dp425
VNormalizedNamedEntityTag
p426
VP1W
p427
sVTimex
p428
V<TIMEX3 tid="t1" type="DURATION" value="P1W">a week</TIMEX3>
p429
sVLemma
p430
Vweek
p431
sVCharacterOffsetEnd
p432
V97
p433
sVPartOfSpeech
p434
VNN
p435
sVCharacterOffsetBegin
p436
V93
p437
sVNamedEntityTag
p438
VDURATION
p439
saa(lp440
V,
p441
a(dp442
VNamedEntityTag
p443
g82
sVCharacterOffsetEnd
p444
V99
p445
sVCharacterOffsetBegin
p446
V98
p447
sVPartOfSpeech
p448
g441
sVLemma
p449
g441
saa(lp450
Vhow
p451
a(dp452
VNamedEntityTag
p453
g82
sVCharacterOffsetEnd
p454
V103
p455
sVCharacterOffsetBegin
p456
V100
p457
sVPartOfSpeech
p458
VWRB
p459
sVLemma
p460
Vhow
p461
saa(lp462
Vlong
p463
a(dp464
VNamedEntityTag
p465
g82
sVCharacterOffsetEnd
p466
V108
p467
sVCharacterOffsetBegin
p468
V104
p469
sVPartOfSpeech
p470
VRB
p471
sVLemma
p472
Vlong
p473
saa(lp474
Vwould
p475
a(dp476
VNamedEntityTag
p477
g82
sVCharacterOffsetEnd
p478
V114
p479
sVCharacterOffsetBegin
p480
V109
p481
sVPartOfSpeech
p482
VMD
p483
sVLemma
p484
Vwould
p485
saa(lp486
Vthe
p487
a(dp488
VNamedEntityTag
p489
g82
sVCharacterOffsetEnd
p490
V118
p491
sVCharacterOffsetBegin
p492
V115
p493
sVPartOfSpeech
p494
VDT
p495
sVLemma
p496
Vthe
p497
saa(lp498
Vmoney
p499
a(dp500
VNamedEntityTag
p501
g82
sVCharacterOffsetEnd
p502
V124
p503
sVCharacterOffsetBegin
p504
V119
p505
sVPartOfSpeech
p506
VNN
p507
sVLemma
p508
Vmoney
p509
saa(lp510
Vlast
p511
a(dp512
VNamedEntityTag
p513
g82
sVCharacterOffsetEnd
p514
V129
p515
sVCharacterOffsetBegin
p516
V125
p517
sVPartOfSpeech
p518
VJJ
p519
sVLemma
p520
Vlast
p521
saa(lp522
Vhim
p523
a(dp524
VNamedEntityTag
p525
g82
sVCharacterOffsetEnd
p526
V133
p527
sVCharacterOffsetBegin
p528
V130
p529
sVPartOfSpeech
p530
VPRP
p531
sVLemma
p532
Vhe
p533
saa(lp534
V?
p535
a(dp536
VNamedEntityTag
p537
g82
sVCharacterOffsetEnd
p538
V135
p539
sVCharacterOffsetBegin
p540
V134
p541
sVPartOfSpeech
p542
g212
sVLemma
p543
g535
saasVindexeddependencies
p544
(lp545
(lp546
Vroot
p547
aVROOT-0
p548
aVwould-12
p549
aa(lp550
Vmark
p551
aVspent-4
p552
aVIf-1
p553
aa(lp554
Vnsubj
p555
aVspent-4
p556
aVhe-2
p557
aa(lp558
Vadvmod
p559
aVspent-4
p560
aVonly-3
p561
aa(lp562
Vadvcl
p563
aVwould-12
p564
aVspent-4
p565
aa(lp566
Vnum
p567
aVdollar-6
p568
aV5-5
p569
aa(lp570
Vdobj
p571
aVspent-4
p572
aVdollar-6
p573
aa(lp574
Vdet
p575
aVweek-8
p576
aVa-7
p577
aa(lp578
Vtmod
p579
aVspent-4
p580
aVweek-8
p581
aa(lp582
Vadvmod
p583
aVlong-11
p584
aVhow-10
p585
aa(lp586
Vadvmod
p587
aVwould-12
p588
aVlong-11
p589
aa(lp590
Vdet
p591
aVmoney-14
p592
aVthe-13
p593
aa(lp594
Vdep
p595
aVwould-12
p596
aVmoney-14
p597
aa(lp598
Vadvmod
p599
aVwould-12
p600
aVlast-15
p601
aa(lp602
Vdep
p603
aVwould-12
p604
aVhim-16
p605
aasas.