(dp0
Vcoref
p1
(lp2
(lp3
(lp4
(lp5
Vhe
p6
aI1
aI1
aI1
aI2
aa(lp7
VNed
p8
aI0
aI6
aI6
aI7
aaa(lp9
(lp10
Vhe
p11
aI1
aI17
aI17
aI18
aa(lp12
VNed
p13
aI0
aI6
aI6
aI7
aaaasVsentences
p14
(lp15
(dp16
Vparsetree
p17
V(ROOT (S (SBAR (IN While) (S (VP (VBG playing) (PP (IN at) (NP (DT the) (NN arcade)))))) (, ,) (NP (NNP Ned)) (VP (VBD won) (NP (NP (NP (CD 26) (NNS tickets)) (VP (VBG playing) (S (VP (`` `) (VB whack) (NP (DT a) (NN mole)) ('' '))))) (CC and) (NP (NP (CD 19) (NNS tickets)) (VP (VBG playing) (`` `) (NP (NN skee) (NN ball)) ('' '))))) (. .)))
p18
sVtext
p19
VWhile playing at the arcade , Ned won 26 tickets playing 'whack a mole' and 19 tickets playing 'skee ball' .
p20
sVdependencies
p21
(lp22
(lp23
Vroot
p24
aVROOT
p25
aVwon
p26
aa(lp27
Vmark
p28
aVplaying
p29
aVWhile
p30
aa(lp31
Vadvcl
p32
aVwon
p33
aVplaying
p34
aa(lp35
Vdet
p36
aVarcade
p37
aVthe
p38
aa(lp39
Vprep_at
p40
aVplaying
p41
aVarcade
p42
aa(lp43
Vnsubj
p44
aVwon
p45
aVNed
p46
aa(lp47
Vnum
p48
aVtickets
p49
aV26
p50
aa(lp51
Vdobj
p52
aVwon
p53
aVtickets
p54
aa(lp55
Vvmod
p56
aVtickets
p57
aVplaying
p58
aa(lp59
Vccomp
p60
aVplaying
p61
aVwhack
p62
aa(lp63
Vdet
p64
aVmole
p65
aVa
p66
aa(lp67
Vdobj
p68
aVwhack
p69
aVmole
p70
aa(lp71
Vnum
p72
aVtickets
p73
aV19
p74
aa(lp75
Vconj_and
p76
aVtickets
p77
aVtickets
p78
aa(lp79
Vvmod
p80
aVtickets
p81
aVplaying
p82
aa(lp83
Vnn
p84
aVball
p85
aVskee
p86
aa(lp87
Vdobj
p88
aVplaying
p89
aVball
p90
aasVwords
p91
(lp92
(lp93
VWhile
p94
a(dp95
VNamedEntityTag
p96
VO
p97
sVCharacterOffsetEnd
p98
V6
p99
sVCharacterOffsetBegin
p100
V1
p101
sVPartOfSpeech
p102
VIN
p103
sVLemma
p104
Vwhile
p105
saa(lp106
Vplaying
p107
a(dp108
VNamedEntityTag
p109
g97
sVCharacterOffsetEnd
p110
V14
p111
sVCharacterOffsetBegin
p112
V7
p113
sVPartOfSpeech
p114
VVBG
p115
sVLemma
p116
Vplay
p117
saa(lp118
Vat
p119
a(dp120
VNamedEntityTag
p121
g97
sVCharacterOffsetEnd
p122
V17
p123
sVCharacterOffsetBegin
p124
V15
p125
sVPartOfSpeech
p126
VIN
p127
sVLemma
p128
Vat
p129
saa(lp130
Vthe
p131
a(dp132
VNamedEntityTag
p133
g97
sVCharacterOffsetEnd
p134
V21
p135
sVCharacterOffsetBegin
p136
V18
p137
sVPartOfSpeech
p138
VDT
p139
sVLemma
p140
Vthe
p141
saa(lp142
Varcade
p143
a(dp144
VNamedEntityTag
p145
g97
sVCharacterOffsetEnd
p146
V28
p147
sVCharacterOffsetBegin
p148
V22
p149
sVPartOfSpeech
p150
VNN
p151
sVLemma
p152
Varcade
p153
saa(lp154
V,
p155
a(dp156
VNamedEntityTag
p157
g97
sVCharacterOffsetEnd
p158
V30
p159
sVCharacterOffsetBegin
p160
V29
p161
sVPartOfSpeech
p162
g155
sVLemma
p163
g155
saa(lp164
VNed
p165
a(dp166
VNamedEntityTag
p167
VPERSON
p168
sVCharacterOffsetEnd
p169
V34
p170
sVCharacterOffsetBegin
p171
V31
p172
sVPartOfSpeech
p173
VNNP
p174
sVLemma
p175
VNed
p176
saa(lp177
Vwon
p178
a(dp179
VNamedEntityTag
p180
g97
sVCharacterOffsetEnd
p181
V38
p182
sVCharacterOffsetBegin
p183
V35
p184
sVPartOfSpeech
p185
VVBD
p186
sVLemma
p187
Vwin
p188
saa(lp189
V26
p190
a(dp191
VNormalizedNamedEntityTag
p192
V26.0
p193
sVLemma
p194
V26
p195
sVCharacterOffsetEnd
p196
V41
p197
sVPartOfSpeech
p198
VCD
p199
sVCharacterOffsetBegin
p200
V39
p201
sVNamedEntityTag
p202
VNUMBER
p203
saa(lp204
Vtickets
p205
a(dp206
VNamedEntityTag
p207
g97
sVCharacterOffsetEnd
p208
V49
p209
sVCharacterOffsetBegin
p210
V42
p211
sVPartOfSpeech
p212
VNNS
p213
sVLemma
p214
Vticket
p215
saa(lp216
Vplaying
p217
a(dp218
VNamedEntityTag
p219
g97
sVCharacterOffsetEnd
p220
V57
p221
sVCharacterOffsetBegin
p222
V50
p223
sVPartOfSpeech
p224
VVBG
p225
sVLemma
p226
Vplay
p227
saa(lp228
V`
p229
a(dp230
VNamedEntityTag
p231
g97
sVCharacterOffsetEnd
p232
V59
p233
sVCharacterOffsetBegin
p234
V58
p235
sVPartOfSpeech
p236
V``
p237
sVLemma
p238
g229
saa(lp239
Vwhack
p240
a(dp241
VNamedEntityTag
p242
g97
sVCharacterOffsetEnd
p243
V64
p244
sVCharacterOffsetBegin
p245
V59
p246
sVPartOfSpeech
p247
VVB
p248
sVLemma
p249
Vwhack
p250
saa(lp251
g66
a(dp252
VNamedEntityTag
p253
g97
sVCharacterOffsetEnd
p254
V66
p255
sVCharacterOffsetBegin
p256
V65
p257
sVPartOfSpeech
p258
VDT
p259
sVLemma
p260
g66
saa(lp261
Vmole
p262
a(dp263
VNamedEntityTag
p264
g97
sVCharacterOffsetEnd
p265
V71
p266
sVCharacterOffsetBegin
p267
V67
p268
sVPartOfSpeech
p269
VNN
p270
sVLemma
p271
Vmole
p272
saa(lp273
V'
p274
a(dp275
VNamedEntityTag
p276
g97
sVCharacterOffsetEnd
p277
V72
p278
sVCharacterOffsetBegin
p279
V71
p280
sVPartOfSpeech
p281
V''
p282
sVLemma
p283
g274
saa(lp284
Vand
p285
a(dp286
VNamedEntityTag
p287
g97
sVCharacterOffsetEnd
p288
V76
p289
sVCharacterOffsetBegin
p290
V73
p291
sVPartOfSpeech
p292
VCC
p293
sVLemma
p294
Vand
p295
saa(lp296
V19
p297
a(dp298
VNormalizedNamedEntityTag
p299
V19.0
p300
sVLemma
p301
V19
p302
sVCharacterOffsetEnd
p303
V79
p304
sVPartOfSpeech
p305
VCD
p306
sVCharacterOffsetBegin
p307
V77
p308
sVNamedEntityTag
p309
VNUMBER
p310
saa(lp311
Vtickets
p312
a(dp313
VNamedEntityTag
p314
g97
sVCharacterOffsetEnd
p315
V87
p316
sVCharacterOffsetBegin
p317
V80
p318
sVPartOfSpeech
p319
VNNS
p320
sVLemma
p321
Vticket
p322
saa(lp323
Vplaying
p324
a(dp325
VNamedEntityTag
p326
g97
sVCharacterOffsetEnd
p327
V95
p328
sVCharacterOffsetBegin
p329
V88
p330
sVPartOfSpeech
p331
VVBG
p332
sVLemma
p333
Vplay
p334
saa(lp335
g229
a(dp336
VNamedEntityTag
p337
g97
sVCharacterOffsetEnd
p338
V97
p339
sVCharacterOffsetBegin
p340
V96
p341
sVPartOfSpeech
p342
V``
p343
sVLemma
p344
g229
saa(lp345
Vskee
p346
a(dp347
VNamedEntityTag
p348
g97
sVCharacterOffsetEnd
p349
V101
p350
sVCharacterOffsetBegin
p351
V97
p352
sVPartOfSpeech
p353
VNN
p354
sVLemma
p355
Vskee
p356
saa(lp357
Vball
p358
a(dp359
VNamedEntityTag
p360
g97
sVCharacterOffsetEnd
p361
V106
p362
sVCharacterOffsetBegin
p363
V102
p364
sVPartOfSpeech
p365
VNN
p366
sVLemma
p367
Vball
p368
saa(lp369
g274
a(dp370
VNamedEntityTag
p371
g97
sVCharacterOffsetEnd
p372
V107
p373
sVCharacterOffsetBegin
p374
V106
p375
sVPartOfSpeech
p376
V''
p377
sVLemma
p378
g274
saa(lp379
V.
p380
a(dp381
VNamedEntityTag
p382
g97
sVCharacterOffsetEnd
p383
V109
p384
sVCharacterOffsetBegin
p385
V108
p386
sVPartOfSpeech
p387
g380
sVLemma
p388
g380
saasVindexeddependencies
p389
(lp390
(lp391
Vroot
p392
aVROOT-0
p393
aVwon-8
p394
aa(lp395
Vmark
p396
aVplaying-2
p397
aVWhile-1
p398
aa(lp399
Vadvcl
p400
aVwon-8
p401
aVplaying-2
p402
aa(lp403
Vdet
p404
aVarcade-5
p405
aVthe-4
p406
aa(lp407
Vprep_at
p408
aVplaying-2
p409
aVarcade-5
p410
aa(lp411
Vnsubj
p412
aVwon-8
p413
aVNed-7
p414
aa(lp415
Vnum
p416
aVtickets-10
p417
aV26-9
p418
aa(lp419
Vdobj
p420
aVwon-8
p421
aVtickets-10
p422
aa(lp423
Vvmod
p424
aVtickets-10
p425
aVplaying-11
p426
aa(lp427
Vccomp
p428
aVplaying-11
p429
aVwhack-13
p430
aa(lp431
Vdet
p432
aVmole-15
p433
aVa-14
p434
aa(lp435
Vdobj
p436
aVwhack-13
p437
aVmole-15
p438
aa(lp439
Vnum
p440
aVtickets-19
p441
aV19-18
p442
aa(lp443
Vconj_and
p444
aVtickets-10
p445
aVtickets-19
p446
aa(lp447
Vvmod
p448
aVtickets-19
p449
aVplaying-20
p450
aa(lp451
Vnn
p452
aVball-23
p453
aVskee-22
p454
aa(lp455
Vdobj
p456
aVplaying-20
p457
aVball-23
p458
aasa(dp459
Vparsetree
p460
V(ROOT (SBARQ (SBAR (IN If) (S (NP (PRP he)) (VP (VBD was) (VP (VBG trying) (S (VP (TO to) (VP (VB buy) (NP (NN candy)) (SBAR (IN that) (FRAG (NP (NP (ADJP (NN cost) (CD 9)) (NNS tickets)) (NP (DT a) (NN piece)))))))))))) (, ,) (WHNP (WRB how) (JJ many)) (SQ (MD could) (NP (PRP he)) (VP (VB buy))) (. ?)))
p461
sVtext
p462
VIf he was trying to buy candy that cost 9 tickets a piece , how many could he buy ?
p463
sVdependencies
p464
(lp465
(lp466
Vroot
p467
aVROOT
p468
aVbuy
p469
aa(lp470
Vmark
p471
aVtrying
p472
aVIf
p473
aa(lp474
Vnsubj
p475
aVtrying
p476
aVhe
p477
aa(lp478
Vaux
p479
aVtrying
p480
aVwas
p481
aa(lp482
Vadvcl
p483
aVbuy
p484
aVtrying
p485
aa(lp486
Vaux
p487
aVbuy
p488
aVto
p489
aa(lp490
Vxcomp
p491
aVtrying
p492
aVbuy
p493
aa(lp494
Vdobj
p495
aVbuy
p496
aVcandy
p497
aa(lp498
Vmark
p499
aVtickets
p500
aVthat
p501
aa(lp502
Vamod
p503
aVtickets
p504
aVcost
p505
aa(lp506
Vnumber
p507
aVcost
p508
aV9
p509
aa(lp510
Vdep
p511
aVbuy
p512
aVtickets
p513
aa(lp514
Vdet
p515
aVpiece
p516
ag66
aa(lp517
Vdep
p518
aVtickets
p519
aVpiece
p520
aa(lp521
Vadvmod
p522
aVmany
p523
aVhow
p524
aa(lp525
Vdep
p526
aVbuy
p527
aVmany
p528
aa(lp529
Vaux
p530
aVbuy
p531
aVcould
p532
aa(lp533
Vnsubj
p534
aVbuy
p535
aVhe
p536
aasVwords
p537
(lp538
(lp539
VIf
p540
a(dp541
VNamedEntityTag
p542
g97
sVCharacterOffsetEnd
p543
V112
p544
sVCharacterOffsetBegin
p545
V110
p546
sVPartOfSpeech
p547
VIN
p548
sVLemma
p549
Vif
p550
saa(lp551
Vhe
p552
a(dp553
VNamedEntityTag
p554
g97
sVCharacterOffsetEnd
p555
V115
p556
sVCharacterOffsetBegin
p557
V113
p558
sVPartOfSpeech
p559
VPRP
p560
sVLemma
p561
Vhe
p562
saa(lp563
Vwas
p564
a(dp565
VNamedEntityTag
p566
g97
sVCharacterOffsetEnd
p567
V119
p568
sVCharacterOffsetBegin
p569
V116
p570
sVPartOfSpeech
p571
VVBD
p572
sVLemma
p573
Vbe
p574
saa(lp575
Vtrying
p576
a(dp577
VNamedEntityTag
p578
g97
sVCharacterOffsetEnd
p579
V126
p580
sVCharacterOffsetBegin
p581
V120
p582
sVPartOfSpeech
p583
VVBG
p584
sVLemma
p585
Vtry
p586
saa(lp587
Vto
p588
a(dp589
VNamedEntityTag
p590
g97
sVCharacterOffsetEnd
p591
V129
p592
sVCharacterOffsetBegin
p593
V127
p594
sVPartOfSpeech
p595
VTO
p596
sVLemma
p597
Vto
p598
saa(lp599
Vbuy
p600
a(dp601
VNamedEntityTag
p602
g97
sVCharacterOffsetEnd
p603
V133
p604
sVCharacterOffsetBegin
p605
V130
p606
sVPartOfSpeech
p607
VVB
p608
sVLemma
p609
Vbuy
p610
saa(lp611
Vcandy
p612
a(dp613
VNamedEntityTag
p614
g97
sVCharacterOffsetEnd
p615
V139
p616
sVCharacterOffsetBegin
p617
V134
p618
sVPartOfSpeech
p619
VNN
p620
sVLemma
p621
Vcandy
p622
saa(lp623
Vthat
p624
a(dp625
VNamedEntityTag
p626
g97
sVCharacterOffsetEnd
p627
V144
p628
sVCharacterOffsetBegin
p629
V140
p630
sVPartOfSpeech
p631
VIN
p632
sVLemma
p633
Vthat
p634
saa(lp635
Vcost
p636
a(dp637
VNamedEntityTag
p638
g97
sVCharacterOffsetEnd
p639
V149
p640
sVCharacterOffsetBegin
p641
V145
p642
sVPartOfSpeech
p643
VNN
p644
sVLemma
p645
Vcost
p646
saa(lp647
g509
a(dp648
VNormalizedNamedEntityTag
p649
V9.0
p650
sVLemma
p651
g509
sVCharacterOffsetEnd
p652
V151
p653
sVPartOfSpeech
p654
VCD
p655
sVCharacterOffsetBegin
p656
V150
p657
sVNamedEntityTag
p658
VNUMBER
p659
saa(lp660
Vtickets
p661
a(dp662
VNamedEntityTag
p663
g97
sVCharacterOffsetEnd
p664
V159
p665
sVCharacterOffsetBegin
p666
V152
p667
sVPartOfSpeech
p668
VNNS
p669
sVLemma
p670
Vticket
p671
saa(lp672
g66
a(dp673
VNamedEntityTag
p674
g97
sVCharacterOffsetEnd
p675
V161
p676
sVCharacterOffsetBegin
p677
V160
p678
sVPartOfSpeech
p679
VDT
p680
sVLemma
p681
g66
saa(lp682
Vpiece
p683
a(dp684
VNamedEntityTag
p685
g97
sVCharacterOffsetEnd
p686
V167
p687
sVCharacterOffsetBegin
p688
V162
p689
sVPartOfSpeech
p690
VNN
p691
sVLemma
p692
Vpiece
p693
saa(lp694
g155
a(dp695
VNamedEntityTag
p696
g97
sVCharacterOffsetEnd
p697
V169
p698
sVCharacterOffsetBegin
p699
V168
p700
sVPartOfSpeech
p701
g155
sVLemma
p702
g155
saa(lp703
Vhow
p704
a(dp705
VNamedEntityTag
p706
g97
sVCharacterOffsetEnd
p707
V173
p708
sVCharacterOffsetBegin
p709
V170
p710
sVPartOfSpeech
p711
VWRB
p712
sVLemma
p713
Vhow
p714
saa(lp715
Vmany
p716
a(dp717
VNamedEntityTag
p718
g97
sVCharacterOffsetEnd
p719
V178
p720
sVCharacterOffsetBegin
p721
V174
p722
sVPartOfSpeech
p723
VJJ
p724
sVLemma
p725
Vmany
p726
saa(lp727
Vcould
p728
a(dp729
VNamedEntityTag
p730
g97
sVCharacterOffsetEnd
p731
V184
p732
sVCharacterOffsetBegin
p733
V179
p734
sVPartOfSpeech
p735
VMD
p736
sVLemma
p737
Vcould
p738
saa(lp739
Vhe
p740
a(dp741
VNamedEntityTag
p742
g97
sVCharacterOffsetEnd
p743
V187
p744
sVCharacterOffsetBegin
p745
V185
p746
sVPartOfSpeech
p747
VPRP
p748
sVLemma
p749
Vhe
p750
saa(lp751
Vbuy
p752
a(dp753
VNamedEntityTag
p754
g97
sVCharacterOffsetEnd
p755
V191
p756
sVCharacterOffsetBegin
p757
V188
p758
sVPartOfSpeech
p759
VVB
p760
sVLemma
p761
Vbuy
p762
saa(lp763
V?
p764
a(dp765
VNamedEntityTag
p766
g97
sVCharacterOffsetEnd
p767
V193
p768
sVCharacterOffsetBegin
p769
V192
p770
sVPartOfSpeech
p771
g380
sVLemma
p772
g764
saasVindexeddependencies
p773
(lp774
(lp775
Vroot
p776
aVROOT-0
p777
aVbuy-19
p778
aa(lp779
Vmark
p780
aVtrying-4
p781
aVIf-1
p782
aa(lp783
Vnsubj
p784
aVtrying-4
p785
aVhe-2
p786
aa(lp787
Vaux
p788
aVtrying-4
p789
aVwas-3
p790
aa(lp791
Vadvcl
p792
aVbuy-19
p793
aVtrying-4
p794
aa(lp795
Vaux
p796
aVbuy-6
p797
aVto-5
p798
aa(lp799
Vxcomp
p800
aVtrying-4
p801
aVbuy-6
p802
aa(lp803
Vdobj
p804
aVbuy-6
p805
aVcandy-7
p806
aa(lp807
Vmark
p808
aVtickets-11
p809
aVthat-8
p810
aa(lp811
Vamod
p812
aVtickets-11
p813
aVcost-9
p814
aa(lp815
Vnumber
p816
aVcost-9
p817
aV9-10
p818
aa(lp819
Vdep
p820
aVbuy-6
p821
aVtickets-11
p822
aa(lp823
Vdet
p824
aVpiece-13
p825
aVa-12
p826
aa(lp827
Vdep
p828
aVtickets-11
p829
aVpiece-13
p830
aa(lp831
Vadvmod
p832
aVmany-16
p833
aVhow-15
p834
aa(lp835
Vdep
p836
aVbuy-19
p837
aVmany-16
p838
aa(lp839
Vaux
p840
aVbuy-19
p841
aVcould-17
p842
aa(lp843
Vnsubj
p844
aVbuy-19
p845
aVhe-18
p846
aasas.