(dp0
Vcoref
p1
(lp2
(lp3
(lp4
(lp5
Vher
p6
aI0
aI10
aI10
aI11
aa(lp7
Vher
p8
aI0
aI5
aI5
aI6
aaa(lp9
(lp10
Vshe
p11
aI1
aI1
aI1
aI2
aa(lp12
Vher
p13
aI0
aI5
aI5
aI6
aaaa(lp14
(lp15
(lp16
Vthe albums
p17
aI1
aI27
aI26
aI28
aa(lp18
V4 different albums
p19
aI1
aI8
aI6
aI9
aaaasVsentences
p20
(lp21
(dp22
Vparsetree
p23
V(ROOT (S (NP (NN Wendy)) (VP (VBD uploaded) (NP (CD 22) (NNS pictures)) (PP (IN from) (NP (NP (PRP$ her) (NN phone)) (CC and) (NP (CD 2)))) (PP (IN from) (NP (PRP$ her) (NN camera))) (PP (TO to) (NP (NN facebook)))) (. .)))
p24
sVtext
p25
VWendy uploaded 22 pictures from her phone and 2 from her camera to facebook .
p26
sVdependencies
p27
(lp28
(lp29
Vroot
p30
aVROOT
p31
aVuploaded
p32
aa(lp33
Vnsubj
p34
aVuploaded
p35
aVWendy
p36
aa(lp37
Vnum
p38
aVpictures
p39
aV22
p40
aa(lp41
Vdobj
p42
aVuploaded
p43
aVpictures
p44
aa(lp45
Vposs
p46
aVphone
p47
aVher
p48
aa(lp49
Vprep_from
p50
aVuploaded
p51
aVphone
p52
aa(lp53
Vconj_and
p54
aVphone
p55
aV2
p56
aa(lp57
Vposs
p58
aVcamera
p59
aVher
p60
aa(lp61
Vprep_from
p62
aVuploaded
p63
aVcamera
p64
aa(lp65
Vprep_to
p66
aVuploaded
p67
aVfacebook
p68
aasVwords
p69
(lp70
(lp71
VWendy
p72
a(dp73
VNamedEntityTag
p74
VPERSON
p75
sVCharacterOffsetEnd
p76
V6
p77
sVCharacterOffsetBegin
p78
V1
p79
sVPartOfSpeech
p80
VNN
p81
sVLemma
p82
Vwendy
p83
saa(lp84
Vuploaded
p85
a(dp86
VNamedEntityTag
p87
VO
p88
sVCharacterOffsetEnd
p89
V15
p90
sVCharacterOffsetBegin
p91
V7
p92
sVPartOfSpeech
p93
VVBD
p94
sVLemma
p95
Vupload
p96
saa(lp97
V22
p98
a(dp99
VNormalizedNamedEntityTag
p100
V22.0
p101
sVLemma
p102
V22
p103
sVCharacterOffsetEnd
p104
V18
p105
sVPartOfSpeech
p106
VCD
p107
sVCharacterOffsetBegin
p108
V16
p109
sVNamedEntityTag
p110
VNUMBER
p111
saa(lp112
Vpictures
p113
a(dp114
VNamedEntityTag
p115
g88
sVCharacterOffsetEnd
p116
V27
p117
sVCharacterOffsetBegin
p118
V19
p119
sVPartOfSpeech
p120
VNNS
p121
sVLemma
p122
Vpicture
p123
saa(lp124
Vfrom
p125
a(dp126
VNamedEntityTag
p127
g88
sVCharacterOffsetEnd
p128
V32
p129
sVCharacterOffsetBegin
p130
V28
p131
sVPartOfSpeech
p132
VIN
p133
sVLemma
p134
Vfrom
p135
saa(lp136
Vher
p137
a(dp138
VNamedEntityTag
p139
g88
sVCharacterOffsetEnd
p140
V36
p141
sVCharacterOffsetBegin
p142
V33
p143
sVPartOfSpeech
p144
VPRP$
p145
sVLemma
p146
Vshe
p147
saa(lp148
Vphone
p149
a(dp150
VNamedEntityTag
p151
g88
sVCharacterOffsetEnd
p152
V42
p153
sVCharacterOffsetBegin
p154
V37
p155
sVPartOfSpeech
p156
VNN
p157
sVLemma
p158
Vphone
p159
saa(lp160
Vand
p161
a(dp162
VNamedEntityTag
p163
g88
sVCharacterOffsetEnd
p164
V46
p165
sVCharacterOffsetBegin
p166
V43
p167
sVPartOfSpeech
p168
VCC
p169
sVLemma
p170
Vand
p171
saa(lp172
g56
a(dp173
VNormalizedNamedEntityTag
p174
V2.0
p175
sVLemma
p176
g56
sVCharacterOffsetEnd
p177
V48
p178
sVPartOfSpeech
p179
VCD
p180
sVCharacterOffsetBegin
p181
V47
p182
sVNamedEntityTag
p183
VNUMBER
p184
saa(lp185
Vfrom
p186
a(dp187
VNamedEntityTag
p188
g88
sVCharacterOffsetEnd
p189
V53
p190
sVCharacterOffsetBegin
p191
V49
p192
sVPartOfSpeech
p193
VIN
p194
sVLemma
p195
Vfrom
p196
saa(lp197
Vher
p198
a(dp199
VNamedEntityTag
p200
g88
sVCharacterOffsetEnd
p201
V57
p202
sVCharacterOffsetBegin
p203
V54
p204
sVPartOfSpeech
p205
VPRP$
p206
sVLemma
p207
Vshe
p208
saa(lp209
Vcamera
p210
a(dp211
VNamedEntityTag
p212
g88
sVCharacterOffsetEnd
p213
V64
p214
sVCharacterOffsetBegin
p215
V58
p216
sVPartOfSpeech
p217
VNN
p218
sVLemma
p219
Vcamera
p220
saa(lp221
Vto
p222
a(dp223
VNamedEntityTag
p224
g88
sVCharacterOffsetEnd
p225
V67
p226
sVCharacterOffsetBegin
p227
V65
p228
sVPartOfSpeech
p229
VTO
p230
sVLemma
p231
Vto
p232
saa(lp233
Vfacebook
p234
a(dp235
VNamedEntityTag
p236
g88
sVCharacterOffsetEnd
p237
V76
p238
sVCharacterOffsetBegin
p239
V68
p240
sVPartOfSpeech
p241
VNN
p242
sVLemma
p243
Vfacebook
p244
saa(lp245
V.
p246
a(dp247
VNamedEntityTag
p248
g88
sVCharacterOffsetEnd
p249
V78
p250
sVCharacterOffsetBegin
p251
V77
p252
sVPartOfSpeech
p253
g246
sVLemma
p254
g246
saasVindexeddependencies
p255
(lp256
(lp257
Vroot
p258
aVROOT-0
p259
aVuploaded-2
p260
aa(lp261
Vnsubj
p262
aVuploaded-2
p263
aVWendy-1
p264
aa(lp265
Vnum
p266
aVpictures-4
p267
aV22-3
p268
aa(lp269
Vdobj
p270
aVuploaded-2
p271
aVpictures-4
p272
aa(lp273
Vposs
p274
aVphone-7
p275
aVher-6
p276
aa(lp277
Vprep_from
p278
aVuploaded-2
p279
aVphone-7
p280
aa(lp281
Vconj_and
p282
aVphone-7
p283
aV2-9
p284
aa(lp285
Vposs
p286
aVcamera-12
p287
aVher-11
p288
aa(lp289
Vprep_from
p290
aVuploaded-2
p291
aVcamera-12
p292
aa(lp293
Vprep_to
p294
aVuploaded-2
p295
aVfacebook-14
p296
aasa(dp297
Vparsetree
p298
V(ROOT (SBARQ (SBAR (IN If) (S (NP (PRP she)) (VP (VBD sorted) (NP (DT the) (NNS pics)) (PP (IN into) (NP (CD 4) (JJ different) (NNS albums))) (PP (IN with) (NP (NP (DT the) (JJ same) (NN amount)) (PP (IN of) (NP (NP (NNS pics)) (PP (IN in) (NP (DT each) (NN album)))))))))) (, ,) (WHNP (WHADJP (WRB how) (JJ many)) (NNS pictures)) (SQ (VP (VBD were) (PP (IN in) (NP (NP (DT each)) (PP (IN of) (NP (DT the) (NNS albums))))))) (. ?)))
p299
sVtext
p300
VIf she sorted the pics into 4 different albums with the same amount of pics in each album , how many pictures were in each of the albums ?
p301
sVdependencies
p302
(lp303
(lp304
Vroot
p305
aVROOT
p306
aVwere
p307
aa(lp308
Vmark
p309
aVsorted
p310
aVIf
p311
aa(lp312
Vnsubj
p313
aVsorted
p314
aVshe
p315
aa(lp316
Vadvcl
p317
aVwere
p318
aVsorted
p319
aa(lp320
Vdet
p321
aVpics
p322
aVthe
p323
aa(lp324
Vdobj
p325
aVsorted
p326
aVpics
p327
aa(lp328
Vnum
p329
aValbums
p330
aV4
p331
aa(lp332
Vamod
p333
aValbums
p334
aVdifferent
p335
aa(lp336
Vprep_into
p337
aVsorted
p338
aValbums
p339
aa(lp340
Vdet
p341
aVamount
p342
aVthe
p343
aa(lp344
Vamod
p345
aVamount
p346
aVsame
p347
aa(lp348
Vprep_with
p349
aVsorted
p350
aVamount
p351
aa(lp352
Vprep_of
p353
aVamount
p354
aVpics
p355
aa(lp356
Vdet
p357
aValbum
p358
aVeach
p359
aa(lp360
Vprep_in
p361
aVpics
p362
aValbum
p363
aa(lp364
Vadvmod
p365
aVmany
p366
aVhow
p367
aa(lp368
Vamod
p369
aVpictures
p370
aVmany
p371
aa(lp372
Vnsubj
p373
aVwere
p374
aVpictures
p375
aa(lp376
Vprep_in
p377
aVwere
p378
aVeach
p379
aa(lp380
Vdet
p381
aValbums
p382
aVthe
p383
aa(lp384
Vprep_of
p385
aVeach
p386
aValbums
p387
aasVwords
p388
(lp389
(lp390
VIf
p391
a(dp392
VNamedEntityTag
p393
g88
sVCharacterOffsetEnd
p394
V81
p395
sVCharacterOffsetBegin
p396
V79
p397
sVPartOfSpeech
p398
VIN
p399
sVLemma
p400
Vif
p401
saa(lp402
Vshe
p403
a(dp404
VNamedEntityTag
p405
g88
sVCharacterOffsetEnd
p406
V85
p407
sVCharacterOffsetBegin
p408
V82
p409
sVPartOfSpeech
p410
VPRP
p411
sVLemma
p412
Vshe
p413
saa(lp414
Vsorted
p415
a(dp416
VNamedEntityTag
p417
g88
sVCharacterOffsetEnd
p418
V92
p419
sVCharacterOffsetBegin
p420
V86
p421
sVPartOfSpeech
p422
VVBD
p423
sVLemma
p424
Vsort
p425
saa(lp426
Vthe
p427
a(dp428
VNamedEntityTag
p429
g88
sVCharacterOffsetEnd
p430
V96
p431
sVCharacterOffsetBegin
p432
V93
p433
sVPartOfSpeech
p434
VDT
p435
sVLemma
p436
Vthe
p437
saa(lp438
Vpics
p439
a(dp440
VNamedEntityTag
p441
g88
sVCharacterOffsetEnd
p442
V101
p443
sVCharacterOffsetBegin
p444
V97
p445
sVPartOfSpeech
p446
VNNS
p447
sVLemma
p448
Vpic
p449
saa(lp450
Vinto
p451
a(dp452
VNamedEntityTag
p453
g88
sVCharacterOffsetEnd
p454
V106
p455
sVCharacterOffsetBegin
p456
V102
p457
sVPartOfSpeech
p458
VIN
p459
sVLemma
p460
Vinto
p461
saa(lp462
g331
a(dp463
VNormalizedNamedEntityTag
p464
V4.0
p465
sVLemma
p466
g331
sVCharacterOffsetEnd
p467
V108
p468
sVPartOfSpeech
p469
VCD
p470
sVCharacterOffsetBegin
p471
V107
p472
sVNamedEntityTag
p473
VNUMBER
p474
saa(lp475
Vdifferent
p476
a(dp477
VNamedEntityTag
p478
g88
sVCharacterOffsetEnd
p479
V118
p480
sVCharacterOffsetBegin
p481
V109
p482
sVPartOfSpeech
p483
VJJ
p484
sVLemma
p485
Vdifferent
p486
saa(lp487
Valbums
p488
a(dp489
VNamedEntityTag
p490
g88
sVCharacterOffsetEnd
p491
V125
p492
sVCharacterOffsetBegin
p493
V119
p494
sVPartOfSpeech
p495
VNNS
p496
sVLemma
p497
Valbum
p498
saa(lp499
Vwith
p500
a(dp501
VNamedEntityTag
p502
g88
sVCharacterOffsetEnd
p503
V130
p504
sVCharacterOffsetBegin
p505
V126
p506
sVPartOfSpeech
p507
VIN
p508
sVLemma
p509
Vwith
p510
saa(lp511
Vthe
p512
a(dp513
VNamedEntityTag
p514
g88
sVCharacterOffsetEnd
p515
V134
p516
sVCharacterOffsetBegin
p517
V131
p518
sVPartOfSpeech
p519
VDT
p520
sVLemma
p521
Vthe
p522
saa(lp523
Vsame
p524
a(dp525
VNamedEntityTag
p526
g88
sVCharacterOffsetEnd
p527
V139
p528
sVCharacterOffsetBegin
p529
V135
p530
sVPartOfSpeech
p531
VJJ
p532
sVLemma
p533
Vsame
p534
saa(lp535
Vamount
p536
a(dp537
VNamedEntityTag
p538
g88
sVCharacterOffsetEnd
p539
V146
p540
sVCharacterOffsetBegin
p541
V140
p542
sVPartOfSpeech
p543
VNN
p544
sVLemma
p545
Vamount
p546
saa(lp547
Vof
p548
a(dp549
VNamedEntityTag
p550
g88
sVCharacterOffsetEnd
p551
V149
p552
sVCharacterOffsetBegin
p553
V147
p554
sVPartOfSpeech
p555
VIN
p556
sVLemma
p557
Vof
p558
saa(lp559
Vpics
p560
a(dp561
VNamedEntityTag
p562
g88
sVCharacterOffsetEnd
p563
V154
p564
sVCharacterOffsetBegin
p565
V150
p566
sVPartOfSpeech
p567
VNNS
p568
sVLemma
p569
Vpic
p570
saa(lp571
Vin
p572
a(dp573
VNamedEntityTag
p574
g88
sVCharacterOffsetEnd
p575
V157
p576
sVCharacterOffsetBegin
p577
V155
p578
sVPartOfSpeech
p579
VIN
p580
sVLemma
p581
Vin
p582
saa(lp583
Veach
p584
a(dp585
VNamedEntityTag
p586
g88
sVCharacterOffsetEnd
p587
V162
p588
sVCharacterOffsetBegin
p589
V158
p590
sVPartOfSpeech
p591
VDT
p592
sVLemma
p593
Veach
p594
saa(lp595
Valbum
p596
a(dp597
VNamedEntityTag
p598
g88
sVCharacterOffsetEnd
p599
V168
p600
sVCharacterOffsetBegin
p601
V163
p602
sVPartOfSpeech
p603
VNN
p604
sVLemma
p605
Valbum
p606
saa(lp607
V,
p608
a(dp609
VNamedEntityTag
p610
g88
sVCharacterOffsetEnd
p611
V170
p612
sVCharacterOffsetBegin
p613
V169
p614
sVPartOfSpeech
p615
g608
sVLemma
p616
g608
saa(lp617
Vhow
p618
a(dp619
VNamedEntityTag
p620
g88
sVCharacterOffsetEnd
p621
V174
p622
sVCharacterOffsetBegin
p623
V171
p624
sVPartOfSpeech
p625
VWRB
p626
sVLemma
p627
Vhow
p628
saa(lp629
Vmany
p630
a(dp631
VNamedEntityTag
p632
g88
sVCharacterOffsetEnd
p633
V179
p634
sVCharacterOffsetBegin
p635
V175
p636
sVPartOfSpeech
p637
VJJ
p638
sVLemma
p639
Vmany
p640
saa(lp641
Vpictures
p642
a(dp643
VNamedEntityTag
p644
g88
sVCharacterOffsetEnd
p645
V188
p646
sVCharacterOffsetBegin
p647
V180
p648
sVPartOfSpeech
p649
VNNS
p650
sVLemma
p651
Vpicture
p652
saa(lp653
Vwere
p654
a(dp655
VNamedEntityTag
p656
g88
sVCharacterOffsetEnd
p657
V193
p658
sVCharacterOffsetBegin
p659
V189
p660
sVPartOfSpeech
p661
VVBD
p662
sVLemma
p663
Vbe
p664
saa(lp665
Vin
p666
a(dp667
VNamedEntityTag
p668
g88
sVCharacterOffsetEnd
p669
V196
p670
sVCharacterOffsetBegin
p671
V194
p672
sVPartOfSpeech
p673
VIN
p674
sVLemma
p675
Vin
p676
saa(lp677
Veach
p678
a(dp679
VNamedEntityTag
p680
g88
sVCharacterOffsetEnd
p681
V201
p682
sVCharacterOffsetBegin
p683
V197
p684
sVPartOfSpeech
p685
VDT
p686
sVLemma
p687
Veach
p688
saa(lp689
Vof
p690
a(dp691
VNamedEntityTag
p692
g88
sVCharacterOffsetEnd
p693
V204
p694
sVCharacterOffsetBegin
p695
V202
p696
sVPartOfSpeech
p697
VIN
p698
sVLemma
p699
Vof
p700
saa(lp701
Vthe
p702
a(dp703
VNamedEntityTag
p704
g88
sVCharacterOffsetEnd
p705
V208
p706
sVCharacterOffsetBegin
p707
V205
p708
sVPartOfSpeech
p709
VDT
p710
sVLemma
p711
Vthe
p712
saa(lp713
Valbums
p714
a(dp715
VNamedEntityTag
p716
g88
sVCharacterOffsetEnd
p717
V215
p718
sVCharacterOffsetBegin
p719
V209
p720
sVPartOfSpeech
p721
VNNS
p722
sVLemma
p723
Valbum
p724
saa(lp725
V?
p726
a(dp727
VNamedEntityTag
p728
g88
sVCharacterOffsetEnd
p729
V217
p730
sVCharacterOffsetBegin
p731
V216
p732
sVPartOfSpeech
p733
g246
sVLemma
p734
g726
saasVindexeddependencies
p735
(lp736
(lp737
Vroot
p738
aVROOT-0
p739
aVwere-23
p740
aa(lp741
Vmark
p742
aVsorted-3
p743
aVIf-1
p744
aa(lp745
Vnsubj
p746
aVsorted-3
p747
aVshe-2
p748
aa(lp749
Vadvcl
p750
aVwere-23
p751
aVsorted-3
p752
aa(lp753
Vdet
p754
aVpics-5
p755
aVthe-4
p756
aa(lp757
Vdobj
p758
aVsorted-3
p759
aVpics-5
p760
aa(lp761
Vnum
p762
aValbums-9
p763
aV4-7
p764
aa(lp765
Vamod
p766
aValbums-9
p767
aVdifferent-8
p768
aa(lp769
Vprep_into
p770
aVsorted-3
p771
aValbums-9
p772
aa(lp773
Vdet
p774
aVamount-13
p775
aVthe-11
p776
aa(lp777
Vamod
p778
aVamount-13
p779
aVsame-12
p780
aa(lp781
Vprep_with
p782
aVsorted-3
p783
aVamount-13
p784
aa(lp785
Vprep_of
p786
aVamount-13
p787
aVpics-15
p788
aa(lp789
Vdet
p790
aValbum-18
p791
aVeach-17
p792
aa(lp793
Vprep_in
p794
aVpics-15
p795
aValbum-18
p796
aa(lp797
Vadvmod
p798
aVmany-21
p799
aVhow-20
p800
aa(lp801
Vamod
p802
aVpictures-22
p803
aVmany-21
p804
aa(lp805
Vnsubj
p806
aVwere-23
p807
aVpictures-22
p808
aa(lp809
Vprep_in
p810
aVwere-23
p811
aVeach-25
p812
aa(lp813
Vdet
p814
aValbums-28
p815
aVthe-27
p816
aa(lp817
Vprep_of
p818
aVeach-25
p819
aValbums-28
p820
aasas.