(dp0
Vcoref
p1
(lp2
(lp3
(lp4
(lp5
Vsalmon filet and steak
p6
aI0
aI14
aI13
aI17
aa(lp7
Vthe two dinner specials at Owen 's favorite restaurant
p8
aI0
aI6
aI3
aI12
aaaa(lp9
(lp10
(lp11
VThe restaurant
p12
aI1
aI1
aI0
aI2
aa(lp13
VOwen 's favorite restaurant
p14
aI0
aI11
aI8
aI12
aaa(lp15
(lp16
Vthe restaurant
p17
aI2
aI6
aI5
aI7
aa(lp18
VOwen 's favorite restaurant
p19
aI0
aI11
aI8
aI12
aaaa(lp20
(lp21
(lp22
Vsalmon filets
p23
aI2
aI2
aI2
aI4
aa(lp24
Vsalmon filets
p25
aI1
aI14
aI13
aI15
aaa(lp26
(lp27
Vfilets
p28
aI2
aI3
aI3
aI4
aa(lp29
Vsalmon filets
p30
aI1
aI14
aI13
aI15
aaaasVsentences
p31
(lp32
(dp33
Vparsetree
p34
V(ROOT (S (NP-TMP (JJ Last) (NN night)) (, ,) (NP (NP (DT the) (CD two) (NN dinner) (NNS specials)) (PP (IN at) (NP (NP (NNP Owen) (POS 's)) (JJ favorite) (NN restaurant)))) (VP (VBD were) (NP (NN salmon) (NN filet) (CC and) (NN steak))) (. .)))
p35
sVtext
p36
VLast night , the two dinner specials at Owen's favorite restaurant were salmon filet and steak .
p37
sVdependencies
p38
(lp39
(lp40
Vroot
p41
aVROOT
p42
aVfilet
p43
aa(lp44
Vamod
p45
aVnight
p46
aVLast
p47
aa(lp48
Vtmod
p49
aVfilet
p50
aVnight
p51
aa(lp52
Vdet
p53
aVspecials
p54
aVthe
p55
aa(lp56
Vnum
p57
aVspecials
p58
aVtwo
p59
aa(lp60
Vnn
p61
aVspecials
p62
aVdinner
p63
aa(lp64
Vnsubj
p65
aVfilet
p66
aVspecials
p67
aa(lp68
Vposs
p69
aVrestaurant
p70
aVOwen
p71
aa(lp72
Vamod
p73
aVrestaurant
p74
aVfavorite
p75
aa(lp76
Vprep_at
p77
aVspecials
p78
aVrestaurant
p79
aa(lp80
Vcop
p81
aVfilet
p82
aVwere
p83
aa(lp84
Vnn
p85
aVfilet
p86
aVsalmon
p87
aa(lp88
Vconj_and
p89
aVfilet
p90
aVsteak
p91
aasVwords
p92
(lp93
(lp94
VLast
p95
a(dp96
VNormalizedNamedEntityTag
p97
VTNI
p98
sVTimex
p99
V<TIMEX3 alt_value="TNI OFFSET P-1D" anchorTimeID="t2" temporalFunction="true" tid="t1" type="DATE" valueFromFunction="tf0">Last night</TIMEX3>
p100
sVLemma
p101
Vlast
p102
sVCharacterOffsetEnd
p103
V5
p104
sVPartOfSpeech
p105
VJJ
p106
sVCharacterOffsetBegin
p107
V1
p108
sVNamedEntityTag
p109
VDATE
p110
saa(lp111
Vnight
p112
a(dp113
VNormalizedNamedEntityTag
p114
VTNI
p115
sVTimex
p116
V<TIMEX3 alt_value="TNI OFFSET P-1D" anchorTimeID="t2" temporalFunction="true" tid="t1" type="DATE" valueFromFunction="tf0">Last night</TIMEX3>
p117
sVLemma
p118
Vnight
p119
sVCharacterOffsetEnd
p120
V11
p121
sVPartOfSpeech
p122
VNN
p123
sVCharacterOffsetBegin
p124
V6
p125
sVNamedEntityTag
p126
VDATE
p127
saa(lp128
V,
p129
a(dp130
VNamedEntityTag
p131
VO
p132
sVCharacterOffsetEnd
p133
V13
p134
sVCharacterOffsetBegin
p135
V12
p136
sVPartOfSpeech
p137
g129
sVLemma
p138
g129
saa(lp139
Vthe
p140
a(dp141
VNamedEntityTag
p142
g132
sVCharacterOffsetEnd
p143
V17
p144
sVCharacterOffsetBegin
p145
V14
p146
sVPartOfSpeech
p147
VDT
p148
sVLemma
p149
Vthe
p150
saa(lp151
Vtwo
p152
a(dp153
VNormalizedNamedEntityTag
p154
V2.0
p155
sVLemma
p156
Vtwo
p157
sVCharacterOffsetEnd
p158
V21
p159
sVPartOfSpeech
p160
VCD
p161
sVCharacterOffsetBegin
p162
V18
p163
sVNamedEntityTag
p164
VNUMBER
p165
saa(lp166
Vdinner
p167
a(dp168
VNamedEntityTag
p169
g132
sVCharacterOffsetEnd
p170
V28
p171
sVCharacterOffsetBegin
p172
V22
p173
sVPartOfSpeech
p174
VNN
p175
sVLemma
p176
Vdinner
p177
saa(lp178
Vspecials
p179
a(dp180
VNamedEntityTag
p181
g132
sVCharacterOffsetEnd
p182
V37
p183
sVCharacterOffsetBegin
p184
V29
p185
sVPartOfSpeech
p186
VNNS
p187
sVLemma
p188
Vspecial
p189
saa(lp190
Vat
p191
a(dp192
VNamedEntityTag
p193
g132
sVCharacterOffsetEnd
p194
V40
p195
sVCharacterOffsetBegin
p196
V38
p197
sVPartOfSpeech
p198
VIN
p199
sVLemma
p200
Vat
p201
saa(lp202
VOwen
p203
a(dp204
VNamedEntityTag
p205
VPERSON
p206
sVCharacterOffsetEnd
p207
V45
p208
sVCharacterOffsetBegin
p209
V41
p210
sVPartOfSpeech
p211
VNNP
p212
sVLemma
p213
VOwen
p214
saa(lp215
V's
p216
a(dp217
VNamedEntityTag
p218
g132
sVCharacterOffsetEnd
p219
V47
p220
sVCharacterOffsetBegin
p221
V45
p222
sVPartOfSpeech
p223
VPOS
p224
sVLemma
p225
V's
p226
saa(lp227
Vfavorite
p228
a(dp229
VNamedEntityTag
p230
g132
sVCharacterOffsetEnd
p231
V56
p232
sVCharacterOffsetBegin
p233
V48
p234
sVPartOfSpeech
p235
VJJ
p236
sVLemma
p237
Vfavorite
p238
saa(lp239
Vrestaurant
p240
a(dp241
VNamedEntityTag
p242
g132
sVCharacterOffsetEnd
p243
V67
p244
sVCharacterOffsetBegin
p245
V57
p246
sVPartOfSpeech
p247
VNN
p248
sVLemma
p249
Vrestaurant
p250
saa(lp251
Vwere
p252
a(dp253
VNamedEntityTag
p254
g132
sVCharacterOffsetEnd
p255
V72
p256
sVCharacterOffsetBegin
p257
V68
p258
sVPartOfSpeech
p259
VVBD
p260
sVLemma
p261
Vbe
p262
saa(lp263
Vsalmon
p264
a(dp265
VNamedEntityTag
p266
g132
sVCharacterOffsetEnd
p267
V79
p268
sVCharacterOffsetBegin
p269
V73
p270
sVPartOfSpeech
p271
VNN
p272
sVLemma
p273
Vsalmon
p274
saa(lp275
Vfilet
p276
a(dp277
VNamedEntityTag
p278
g132
sVCharacterOffsetEnd
p279
V85
p280
sVCharacterOffsetBegin
p281
V80
p282
sVPartOfSpeech
p283
VNN
p284
sVLemma
p285
Vfilet
p286
saa(lp287
Vand
p288
a(dp289
VNamedEntityTag
p290
g132
sVCharacterOffsetEnd
p291
V89
p292
sVCharacterOffsetBegin
p293
V86
p294
sVPartOfSpeech
p295
VCC
p296
sVLemma
p297
Vand
p298
saa(lp299
Vsteak
p300
a(dp301
VNamedEntityTag
p302
g132
sVCharacterOffsetEnd
p303
V95
p304
sVCharacterOffsetBegin
p305
V90
p306
sVPartOfSpeech
p307
VNN
p308
sVLemma
p309
Vsteak
p310
saa(lp311
V.
p312
a(dp313
VNamedEntityTag
p314
g132
sVCharacterOffsetEnd
p315
V97
p316
sVCharacterOffsetBegin
p317
V96
p318
sVPartOfSpeech
p319
g312
sVLemma
p320
g312
saasVindexeddependencies
p321
(lp322
(lp323
Vroot
p324
aVROOT-0
p325
aVfilet-15
p326
aa(lp327
Vamod
p328
aVnight-2
p329
aVLast-1
p330
aa(lp331
Vtmod
p332
aVfilet-15
p333
aVnight-2
p334
aa(lp335
Vdet
p336
aVspecials-7
p337
aVthe-4
p338
aa(lp339
Vnum
p340
aVspecials-7
p341
aVtwo-5
p342
aa(lp343
Vnn
p344
aVspecials-7
p345
aVdinner-6
p346
aa(lp347
Vnsubj
p348
aVfilet-15
p349
aVspecials-7
p350
aa(lp351
Vposs
p352
aVrestaurant-12
p353
aVOwen-9
p354
aa(lp355
Vamod
p356
aVrestaurant-12
p357
aVfavorite-11
p358
aa(lp359
Vprep_at
p360
aVspecials-7
p361
aVrestaurant-12
p362
aa(lp363
Vcop
p364
aVfilet-15
p365
aVwere-13
p366
aa(lp367
Vnn
p368
aVfilet-15
p369
aVsalmon-14
p370
aa(lp371
Vconj_and
p372
aVfilet-15
p373
aVsteak-17
p374
aasa(dp375
Vparsetree
p376
V(ROOT (S (NP (DT The) (NN restaurant)) (VP (VBD served) (NP (NP (CD 84) (NNS specials)) (PP (IN in) (NP (DT all)))) (, ,) (PP (NP (CD 0.25) (NNS times)) (IN of) (SBAR (WHNP (WDT which)) (S (VP (VBD were) (NP (NN salmon) (NNS filets))))))) (. .)))
p377
sVtext
p378
VThe restaurant served 84 specials in all , 0.25 times of which were salmon filets .
p379
sVdependencies
p380
(lp381
(lp382
Vroot
p383
aVROOT
p384
aVserved
p385
aa(lp386
Vdet
p387
aVrestaurant
p388
aVThe
p389
aa(lp390
Vnsubj
p391
aVserved
p392
aVrestaurant
p393
aa(lp394
Vnum
p395
aVspecials
p396
aV84
p397
aa(lp398
Vdobj
p399
aVserved
p400
aVspecials
p401
aa(lp402
Vprep_in
p403
aVspecials
p404
aVall
p405
aa(lp406
Vnum
p407
aVtimes
p408
aV0.25
p409
aa(lp410
Vnpadvmod
p411
aVserved
p412
aVtimes
p413
aa(lp414
Vnsubj
p415
aVfilets
p416
aVwhich
p417
aa(lp418
Vcop
p419
aVfilets
p420
aVwere
p421
aa(lp422
Vnn
p423
aVfilets
p424
aVsalmon
p425
aa(lp426
Vprepc_of
p427
aVserved
p428
aVfilets
p429
aasVwords
p430
(lp431
(lp432
VThe
p433
a(dp434
VNamedEntityTag
p435
g132
sVCharacterOffsetEnd
p436
V101
p437
sVCharacterOffsetBegin
p438
V98
p439
sVPartOfSpeech
p440
VDT
p441
sVLemma
p442
Vthe
p443
saa(lp444
Vrestaurant
p445
a(dp446
VNamedEntityTag
p447
g132
sVCharacterOffsetEnd
p448
V112
p449
sVCharacterOffsetBegin
p450
V102
p451
sVPartOfSpeech
p452
VNN
p453
sVLemma
p454
Vrestaurant
p455
saa(lp456
Vserved
p457
a(dp458
VNamedEntityTag
p459
g132
sVCharacterOffsetEnd
p460
V119
p461
sVCharacterOffsetBegin
p462
V113
p463
sVPartOfSpeech
p464
VVBD
p465
sVLemma
p466
Vserve
p467
saa(lp468
V84
p469
a(dp470
VNormalizedNamedEntityTag
p471
V84.0
p472
sVLemma
p473
V84
p474
sVCharacterOffsetEnd
p475
V122
p476
sVPartOfSpeech
p477
VCD
p478
sVCharacterOffsetBegin
p479
V120
p480
sVNamedEntityTag
p481
VNUMBER
p482
saa(lp483
Vspecials
p484
a(dp485
VNamedEntityTag
p486
g132
sVCharacterOffsetEnd
p487
V131
p488
sVCharacterOffsetBegin
p489
V123
p490
sVPartOfSpeech
p491
VNNS
p492
sVLemma
p493
Vspecial
p494
saa(lp495
Vin
p496
a(dp497
VNamedEntityTag
p498
g132
sVCharacterOffsetEnd
p499
V134
p500
sVCharacterOffsetBegin
p501
V132
p502
sVPartOfSpeech
p503
VIN
p504
sVLemma
p505
Vin
p506
saa(lp507
Vall
p508
a(dp509
VNamedEntityTag
p510
g132
sVCharacterOffsetEnd
p511
V138
p512
sVCharacterOffsetBegin
p513
V135
p514
sVPartOfSpeech
p515
VDT
p516
sVLemma
p517
Vall
p518
saa(lp519
g129
a(dp520
VNamedEntityTag
p521
g132
sVCharacterOffsetEnd
p522
V140
p523
sVCharacterOffsetBegin
p524
V139
p525
sVPartOfSpeech
p526
g129
sVLemma
p527
g129
saa(lp528
V0.25
p529
a(dp530
VNormalizedNamedEntityTag
p531
V0.25
p532
sVLemma
p533
V0.25
p534
sVCharacterOffsetEnd
p535
V145
p536
sVPartOfSpeech
p537
VCD
p538
sVCharacterOffsetBegin
p539
V141
p540
sVNamedEntityTag
p541
VNUMBER
p542
saa(lp543
Vtimes
p544
a(dp545
VNamedEntityTag
p546
g132
sVCharacterOffsetEnd
p547
V151
p548
sVCharacterOffsetBegin
p549
V146
p550
sVPartOfSpeech
p551
VNNS
p552
sVLemma
p553
Vtime
p554
saa(lp555
Vof
p556
a(dp557
VNamedEntityTag
p558
g132
sVCharacterOffsetEnd
p559
V154
p560
sVCharacterOffsetBegin
p561
V152
p562
sVPartOfSpeech
p563
VIN
p564
sVLemma
p565
Vof
p566
saa(lp567
Vwhich
p568
a(dp569
VNamedEntityTag
p570
g132
sVCharacterOffsetEnd
p571
V160
p572
sVCharacterOffsetBegin
p573
V155
p574
sVPartOfSpeech
p575
VWDT
p576
sVLemma
p577
Vwhich
p578
saa(lp579
Vwere
p580
a(dp581
VNamedEntityTag
p582
g132
sVCharacterOffsetEnd
p583
V165
p584
sVCharacterOffsetBegin
p585
V161
p586
sVPartOfSpeech
p587
VVBD
p588
sVLemma
p589
Vbe
p590
saa(lp591
Vsalmon
p592
a(dp593
VNamedEntityTag
p594
g132
sVCharacterOffsetEnd
p595
V172
p596
sVCharacterOffsetBegin
p597
V166
p598
sVPartOfSpeech
p599
VNN
p600
sVLemma
p601
Vsalmon
p602
saa(lp603
Vfilets
p604
a(dp605
VNamedEntityTag
p606
g132
sVCharacterOffsetEnd
p607
V179
p608
sVCharacterOffsetBegin
p609
V173
p610
sVPartOfSpeech
p611
VNNS
p612
sVLemma
p613
Vfilet
p614
saa(lp615
g312
a(dp616
VNamedEntityTag
p617
g132
sVCharacterOffsetEnd
p618
V181
p619
sVCharacterOffsetBegin
p620
V180
p621
sVPartOfSpeech
p622
g312
sVLemma
p623
g312
saasVindexeddependencies
p624
(lp625
(lp626
Vroot
p627
aVROOT-0
p628
aVserved-3
p629
aa(lp630
Vdet
p631
aVrestaurant-2
p632
aVThe-1
p633
aa(lp634
Vnsubj
p635
aVserved-3
p636
aVrestaurant-2
p637
aa(lp638
Vnum
p639
aVspecials-5
p640
aV84-4
p641
aa(lp642
Vdobj
p643
aVserved-3
p644
aVspecials-5
p645
aa(lp646
Vprep_in
p647
aVspecials-5
p648
aVall-7
p649
aa(lp650
Vnum
p651
aVtimes-10
p652
aV0.25-9
p653
aa(lp654
Vnpadvmod
p655
aVserved-3
p656
aVtimes-10
p657
aa(lp658
Vnsubj
p659
aVfilets-15
p660
aVwhich-12
p661
aa(lp662
Vcop
p663
aVfilets-15
p664
aVwere-13
p665
aa(lp666
Vnn
p667
aVfilets-15
p668
aVsalmon-14
p669
aa(lp670
Vprepc_of
p671
aVserved-3
p672
aVfilets-15
p673
aasa(dp674
Vparsetree
p675
V(ROOT (SBARQ (WHNP (WHADJP (WRB How) (JJ many)) (NP (NP (NN salmon)) (NP (NNS filets)))) (SQ (VBD did) (NP (DT the) (NN restaurant)) (VP (VB serve))) (. ?)))
p676
sVtext
p677
VHow many salmon filets did the restaurant serve ?
p678
sVdependencies
p679
(lp680
(lp681
Vroot
p682
aVROOT
p683
aVserve
p684
aa(lp685
Vadvmod
p686
aVmany
p687
aVHow
p688
aa(lp689
Vamod
p690
aVsalmon
p691
aVmany
p692
aa(lp693
Vdobj
p694
aVserve
p695
aVsalmon
p696
aa(lp697
Vdep
p698
aVsalmon
p699
aVfilets
p700
aa(lp701
Vaux
p702
aVserve
p703
aVdid
p704
aa(lp705
Vdet
p706
aVrestaurant
p707
aVthe
p708
aa(lp709
Vnsubj
p710
aVserve
p711
aVrestaurant
p712
aasVwords
p713
(lp714
(lp715
VHow
p716
a(dp717
VNamedEntityTag
p718
g132
sVCharacterOffsetEnd
p719
V185
p720
sVCharacterOffsetBegin
p721
V182
p722
sVPartOfSpeech
p723
VWRB
p724
sVLemma
p725
Vhow
p726
saa(lp727
Vmany
p728
a(dp729
VNamedEntityTag
p730
g132
sVCharacterOffsetEnd
p731
V190
p732
sVCharacterOffsetBegin
p733
V186
p734
sVPartOfSpeech
p735
VJJ
p736
sVLemma
p737
Vmany
p738
saa(lp739
Vsalmon
p740
a(dp741
VNamedEntityTag
p742
g132
sVCharacterOffsetEnd
p743
V197
p744
sVCharacterOffsetBegin
p745
V191
p746
sVPartOfSpeech
p747
VNN
p748
sVLemma
p749
Vsalmon
p750
saa(lp751
Vfilets
p752
a(dp753
VNamedEntityTag
p754
g132
sVCharacterOffsetEnd
p755
V204
p756
sVCharacterOffsetBegin
p757
V198
p758
sVPartOfSpeech
p759
VNNS
p760
sVLemma
p761
Vfilet
p762
saa(lp763
Vdid
p764
a(dp765
VNamedEntityTag
p766
g132
sVCharacterOffsetEnd
p767
V208
p768
sVCharacterOffsetBegin
p769
V205
p770
sVPartOfSpeech
p771
VVBD
p772
sVLemma
p773
Vdo
p774
saa(lp775
Vthe
p776
a(dp777
VNamedEntityTag
p778
g132
sVCharacterOffsetEnd
p779
V212
p780
sVCharacterOffsetBegin
p781
V209
p782
sVPartOfSpeech
p783
VDT
p784
sVLemma
p785
Vthe
p786
saa(lp787
Vrestaurant
p788
a(dp789
VNamedEntityTag
p790
g132
sVCharacterOffsetEnd
p791
V223
p792
sVCharacterOffsetBegin
p793
V213
p794
sVPartOfSpeech
p795
VNN
p796
sVLemma
p797
Vrestaurant
p798
saa(lp799
Vserve
p800
a(dp801
VNamedEntityTag
p802
g132
sVCharacterOffsetEnd
p803
V229
p804
sVCharacterOffsetBegin
p805
V224
p806
sVPartOfSpeech
p807
VVB
p808
sVLemma
p809
Vserve
p810
saa(lp811
V?
p812
a(dp813
VNamedEntityTag
p814
g132
sVCharacterOffsetEnd
p815
V231
p816
sVCharacterOffsetBegin
p817
V230
p818
sVPartOfSpeech
p819
g312
sVLemma
p820
g812
saasVindexeddependencies
p821
(lp822
(lp823
Vroot
p824
aVROOT-0
p825
aVserve-8
p826
aa(lp827
Vadvmod
p828
aVmany-2
p829
aVHow-1
p830
aa(lp831
Vamod
p832
aVsalmon-3
p833
aVmany-2
p834
aa(lp835
Vdobj
p836
aVserve-8
p837
aVsalmon-3
p838
aa(lp839
Vdep
p840
aVsalmon-3
p841
aVfilets-4
p842
aa(lp843
Vaux
p844
aVserve-8
p845
aVdid-5
p846
aa(lp847
Vdet
p848
aVrestaurant-7
p849
aVthe-6
p850
aa(lp851
Vnsubj
p852
aVserve-8
p853
aVrestaurant-7
p854
aasas.