(dp0
Vcoref
p1
(lp2
(lp3
(lp4
(lp5
Vthe bears
p6
aI1
aI3
aI2
aI4
aa(lp7
V17 giant stuffed bears in stock when they got another shipment with 10 bears in it
p8
aI0
aI7
aI4
aI20
aaaa(lp9
(lp10
(lp11
Vit
p12
aI0
aI19
aI19
aI20
aa(lp13
Vanother shipment
p14
aI0
aI14
aI13
aI15
aaaa(lp15
(lp16
(lp17
Vthey
p18
aI2
aI4
aI4
aI5
aa(lp19
VThe
p20
aI1
aI0
aI0
aI1
aaaasVsentences
p21
(lp22
(dp23
Vparsetree
p24
V(ROOT (S (NP (DT A) (NN toy) (NN store)) (VP (VBD had) (NP (NP (ADJP (CD 17)) (JJ giant) (VBN stuffed) (NNS bears)) (PP (IN in) (NP (NP (NN stock)) (SBAR (WHADVP (WRB when)) (S (NP (PRP they)) (VP (VBD got) (NP (DT another) (NN shipment)) (PP (IN with) (NP (CD 10) (NNS bears))) (PP (IN in) (NP (PRP it)))))))))) (. .)))
p25
sVtext
p26
VA toy store had 17 giant stuffed bears in stock when they got another shipment with 10 bears in it .
p27
sVdependencies
p28
(lp29
(lp30
Vroot
p31
aVROOT
p32
aVhad
p33
aa(lp34
Vdet
p35
aVstore
p36
aVA
p37
aa(lp38
Vnn
p39
aVstore
p40
aVtoy
p41
aa(lp42
Vnsubj
p43
aVhad
p44
aVstore
p45
aa(lp46
Vamod
p47
aVbears
p48
aV17
p49
aa(lp50
Vamod
p51
aVbears
p52
aVgiant
p53
aa(lp54
Vamod
p55
aVbears
p56
aVstuffed
p57
aa(lp58
Vdobj
p59
aVhad
p60
aVbears
p61
aa(lp62
Vprep_in
p63
aVbears
p64
aVstock
p65
aa(lp66
Vadvmod
p67
aVgot
p68
aVwhen
p69
aa(lp70
Vnsubj
p71
aVgot
p72
aVthey
p73
aa(lp74
Vrcmod
p75
aVstock
p76
aVgot
p77
aa(lp78
Vdet
p79
aVshipment
p80
aVanother
p81
aa(lp82
Vdobj
p83
aVgot
p84
aVshipment
p85
aa(lp86
Vnum
p87
aVbears
p88
aV10
p89
aa(lp90
Vprep_with
p91
aVgot
p92
aVbears
p93
aa(lp94
Vprep_in
p95
aVgot
p96
aVit
p97
aasVwords
p98
(lp99
(lp100
g37
a(dp101
VNamedEntityTag
p102
VO
p103
sVCharacterOffsetEnd
p104
V2
p105
sVCharacterOffsetBegin
p106
V1
p107
sVPartOfSpeech
p108
VDT
p109
sVLemma
p110
Va
p111
saa(lp112
Vtoy
p113
a(dp114
VNamedEntityTag
p115
g103
sVCharacterOffsetEnd
p116
V6
p117
sVCharacterOffsetBegin
p118
V3
p119
sVPartOfSpeech
p120
VNN
p121
sVLemma
p122
Vtoy
p123
saa(lp124
Vstore
p125
a(dp126
VNamedEntityTag
p127
g103
sVCharacterOffsetEnd
p128
V12
p129
sVCharacterOffsetBegin
p130
V7
p131
sVPartOfSpeech
p132
VNN
p133
sVLemma
p134
Vstore
p135
saa(lp136
Vhad
p137
a(dp138
VNamedEntityTag
p139
g103
sVCharacterOffsetEnd
p140
V16
p141
sVCharacterOffsetBegin
p142
V13
p143
sVPartOfSpeech
p144
VVBD
p145
sVLemma
p146
Vhave
p147
saa(lp148
V17
p149
a(dp150
VNormalizedNamedEntityTag
p151
V17.0
p152
sVLemma
p153
V17
p154
sVCharacterOffsetEnd
p155
V19
p156
sVPartOfSpeech
p157
VCD
p158
sVCharacterOffsetBegin
p159
V17
p160
sVNamedEntityTag
p161
VNUMBER
p162
saa(lp163
Vgiant
p164
a(dp165
VNamedEntityTag
p166
g103
sVCharacterOffsetEnd
p167
V25
p168
sVCharacterOffsetBegin
p169
V20
p170
sVPartOfSpeech
p171
VJJ
p172
sVLemma
p173
Vgiant
p174
saa(lp175
Vstuffed
p176
a(dp177
VNamedEntityTag
p178
g103
sVCharacterOffsetEnd
p179
V33
p180
sVCharacterOffsetBegin
p181
V26
p182
sVPartOfSpeech
p183
VVBN
p184
sVLemma
p185
Vstuff
p186
saa(lp187
Vbears
p188
a(dp189
VNamedEntityTag
p190
g103
sVCharacterOffsetEnd
p191
V39
p192
sVCharacterOffsetBegin
p193
V34
p194
sVPartOfSpeech
p195
VNNS
p196
sVLemma
p197
Vbear
p198
saa(lp199
Vin
p200
a(dp201
VNamedEntityTag
p202
g103
sVCharacterOffsetEnd
p203
V42
p204
sVCharacterOffsetBegin
p205
V40
p206
sVPartOfSpeech
p207
VIN
p208
sVLemma
p209
Vin
p210
saa(lp211
Vstock
p212
a(dp213
VNamedEntityTag
p214
g103
sVCharacterOffsetEnd
p215
V48
p216
sVCharacterOffsetBegin
p217
V43
p218
sVPartOfSpeech
p219
VNN
p220
sVLemma
p221
Vstock
p222
saa(lp223
Vwhen
p224
a(dp225
VNamedEntityTag
p226
g103
sVCharacterOffsetEnd
p227
V53
p228
sVCharacterOffsetBegin
p229
V49
p230
sVPartOfSpeech
p231
VWRB
p232
sVLemma
p233
Vwhen
p234
saa(lp235
Vthey
p236
a(dp237
VNamedEntityTag
p238
g103
sVCharacterOffsetEnd
p239
V58
p240
sVCharacterOffsetBegin
p241
V54
p242
sVPartOfSpeech
p243
VPRP
p244
sVLemma
p245
Vthey
p246
saa(lp247
Vgot
p248
a(dp249
VNamedEntityTag
p250
g103
sVCharacterOffsetEnd
p251
V62
p252
sVCharacterOffsetBegin
p253
V59
p254
sVPartOfSpeech
p255
VVBD
p256
sVLemma
p257
Vget
p258
saa(lp259
Vanother
p260
a(dp261
VNamedEntityTag
p262
g103
sVCharacterOffsetEnd
p263
V70
p264
sVCharacterOffsetBegin
p265
V63
p266
sVPartOfSpeech
p267
VDT
p268
sVLemma
p269
Vanother
p270
saa(lp271
Vshipment
p272
a(dp273
VNamedEntityTag
p274
g103
sVCharacterOffsetEnd
p275
V79
p276
sVCharacterOffsetBegin
p277
V71
p278
sVPartOfSpeech
p279
VNN
p280
sVLemma
p281
Vshipment
p282
saa(lp283
Vwith
p284
a(dp285
VNamedEntityTag
p286
g103
sVCharacterOffsetEnd
p287
V84
p288
sVCharacterOffsetBegin
p289
V80
p290
sVPartOfSpeech
p291
VIN
p292
sVLemma
p293
Vwith
p294
saa(lp295
V10
p296
a(dp297
VNormalizedNamedEntityTag
p298
V10.0
p299
sVLemma
p300
V10
p301
sVCharacterOffsetEnd
p302
V87
p303
sVPartOfSpeech
p304
VCD
p305
sVCharacterOffsetBegin
p306
V85
p307
sVNamedEntityTag
p308
VNUMBER
p309
saa(lp310
Vbears
p311
a(dp312
VNamedEntityTag
p313
g103
sVCharacterOffsetEnd
p314
V93
p315
sVCharacterOffsetBegin
p316
V88
p317
sVPartOfSpeech
p318
VNNS
p319
sVLemma
p320
Vbear
p321
saa(lp322
Vin
p323
a(dp324
VNamedEntityTag
p325
g103
sVCharacterOffsetEnd
p326
V96
p327
sVCharacterOffsetBegin
p328
V94
p329
sVPartOfSpeech
p330
VIN
p331
sVLemma
p332
Vin
p333
saa(lp334
Vit
p335
a(dp336
VNamedEntityTag
p337
g103
sVCharacterOffsetEnd
p338
V99
p339
sVCharacterOffsetBegin
p340
V97
p341
sVPartOfSpeech
p342
VPRP
p343
sVLemma
p344
Vit
p345
saa(lp346
V.
p347
a(dp348
VNamedEntityTag
p349
g103
sVCharacterOffsetEnd
p350
V101
p351
sVCharacterOffsetBegin
p352
V100
p353
sVPartOfSpeech
p354
g347
sVLemma
p355
g347
saasVindexeddependencies
p356
(lp357
(lp358
Vroot
p359
aVROOT-0
p360
aVhad-4
p361
aa(lp362
Vdet
p363
aVstore-3
p364
aVA-1
p365
aa(lp366
Vnn
p367
aVstore-3
p368
aVtoy-2
p369
aa(lp370
Vnsubj
p371
aVhad-4
p372
aVstore-3
p373
aa(lp374
Vamod
p375
aVbears-8
p376
aV17-5
p377
aa(lp378
Vamod
p379
aVbears-8
p380
aVgiant-6
p381
aa(lp382
Vamod
p383
aVbears-8
p384
aVstuffed-7
p385
aa(lp386
Vdobj
p387
aVhad-4
p388
aVbears-8
p389
aa(lp390
Vprep_in
p391
aVbears-8
p392
aVstock-10
p393
aa(lp394
Vadvmod
p395
aVgot-13
p396
aVwhen-11
p397
aa(lp398
Vnsubj
p399
aVgot-13
p400
aVthey-12
p401
aa(lp402
Vrcmod
p403
aVstock-10
p404
aVgot-13
p405
aa(lp406
Vdet
p407
aVshipment-15
p408
aVanother-14
p409
aa(lp410
Vdobj
p411
aVgot-13
p412
aVshipment-15
p413
aa(lp414
Vnum
p415
aVbears-18
p416
aV10-17
p417
aa(lp418
Vprep_with
p419
aVgot-13
p420
aVbears-18
p421
aa(lp422
Vprep_in
p423
aVgot-13
p424
aVit-20
p425
aasa(dp426
Vparsetree
p427
V(ROOT (S (NP (DT The)) (VP (VBN put) (NP (DT the) (NNS bears)) (PP (IN onto) (NP (NP (NNS shelves)) (PP (IN with) (NP (CD 9))))) (PP (IN on) (NP (DT each) (NN shelf)))) (. .)))
p428
sVtext
p429
VThe put the bears onto shelves with 9 on each shelf .
p430
sVdependencies
p431
(lp432
(lp433
Vroot
p434
aVROOT
p435
aVput
p436
aa(lp437
Vnsubj
p438
aVput
p439
aVThe
p440
aa(lp441
Vdet
p442
aVbears
p443
aVthe
p444
aa(lp445
Vdobj
p446
aVput
p447
aVbears
p448
aa(lp449
Vprep_onto
p450
aVput
p451
aVshelves
p452
aa(lp453
Vprep_with
p454
aVshelves
p455
aV9
p456
aa(lp457
Vdet
p458
aVshelf
p459
aVeach
p460
aa(lp461
Vprep_on
p462
aVput
p463
aVshelf
p464
aasVwords
p465
(lp466
(lp467
VThe
p468
a(dp469
VNamedEntityTag
p470
g103
sVCharacterOffsetEnd
p471
V105
p472
sVCharacterOffsetBegin
p473
V102
p474
sVPartOfSpeech
p475
VDT
p476
sVLemma
p477
Vthe
p478
saa(lp479
Vput
p480
a(dp481
VNamedEntityTag
p482
g103
sVCharacterOffsetEnd
p483
V109
p484
sVCharacterOffsetBegin
p485
V106
p486
sVPartOfSpeech
p487
VVBN
p488
sVLemma
p489
Vput
p490
saa(lp491
Vthe
p492
a(dp493
VNamedEntityTag
p494
g103
sVCharacterOffsetEnd
p495
V113
p496
sVCharacterOffsetBegin
p497
V110
p498
sVPartOfSpeech
p499
VDT
p500
sVLemma
p501
Vthe
p502
saa(lp503
Vbears
p504
a(dp505
VNamedEntityTag
p506
g103
sVCharacterOffsetEnd
p507
V119
p508
sVCharacterOffsetBegin
p509
V114
p510
sVPartOfSpeech
p511
VNNS
p512
sVLemma
p513
Vbear
p514
saa(lp515
Vonto
p516
a(dp517
VNamedEntityTag
p518
g103
sVCharacterOffsetEnd
p519
V124
p520
sVCharacterOffsetBegin
p521
V120
p522
sVPartOfSpeech
p523
VIN
p524
sVLemma
p525
Vonto
p526
saa(lp527
Vshelves
p528
a(dp529
VNamedEntityTag
p530
g103
sVCharacterOffsetEnd
p531
V132
p532
sVCharacterOffsetBegin
p533
V125
p534
sVPartOfSpeech
p535
VNNS
p536
sVLemma
p537
Vshelf
p538
saa(lp539
Vwith
p540
a(dp541
VNamedEntityTag
p542
g103
sVCharacterOffsetEnd
p543
V137
p544
sVCharacterOffsetBegin
p545
V133
p546
sVPartOfSpeech
p547
VIN
p548
sVLemma
p549
Vwith
p550
saa(lp551
g456
a(dp552
VNormalizedNamedEntityTag
p553
V9.0
p554
sVLemma
p555
g456
sVCharacterOffsetEnd
p556
V139
p557
sVPartOfSpeech
p558
VCD
p559
sVCharacterOffsetBegin
p560
V138
p561
sVNamedEntityTag
p562
VNUMBER
p563
saa(lp564
Von
p565
a(dp566
VNamedEntityTag
p567
g103
sVCharacterOffsetEnd
p568
V142
p569
sVCharacterOffsetBegin
p570
V140
p571
sVPartOfSpeech
p572
VIN
p573
sVLemma
p574
Von
p575
saa(lp576
Veach
p577
a(dp578
VNamedEntityTag
p579
g103
sVCharacterOffsetEnd
p580
V147
p581
sVCharacterOffsetBegin
p582
V143
p583
sVPartOfSpeech
p584
VDT
p585
sVLemma
p586
Veach
p587
saa(lp588
Vshelf
p589
a(dp590
VNamedEntityTag
p591
g103
sVCharacterOffsetEnd
p592
V153
p593
sVCharacterOffsetBegin
p594
V148
p595
sVPartOfSpeech
p596
VNN
p597
sVLemma
p598
Vshelf
p599
saa(lp600
g347
a(dp601
VNamedEntityTag
p602
g103
sVCharacterOffsetEnd
p603
V155
p604
sVCharacterOffsetBegin
p605
V154
p606
sVPartOfSpeech
p607
g347
sVLemma
p608
g347
saasVindexeddependencies
p609
(lp610
(lp611
Vroot
p612
aVROOT-0
p613
aVput-2
p614
aa(lp615
Vnsubj
p616
aVput-2
p617
aVThe-1
p618
aa(lp619
Vdet
p620
aVbears-4
p621
aVthe-3
p622
aa(lp623
Vdobj
p624
aVput-2
p625
aVbears-4
p626
aa(lp627
Vprep_onto
p628
aVput-2
p629
aVshelves-6
p630
aa(lp631
Vprep_with
p632
aVshelves-6
p633
aV9-8
p634
aa(lp635
Vdet
p636
aVshelf-11
p637
aVeach-10
p638
aa(lp639
Vprep_on
p640
aVput-2
p641
aVshelf-11
p642
aasa(dp643
Vparsetree
p644
V(ROOT (SBARQ (WHNP (WHADJP (WRB How) (JJ many)) (NNS shelves)) (SQ (VBD did) (NP (PRP they)) (VP (VB use))) (. ?)))
p645
sVtext
p646
VHow many shelves did they use ?
p647
sVdependencies
p648
(lp649
(lp650
Vroot
p651
aVROOT
p652
aVuse
p653
aa(lp654
Vadvmod
p655
aVmany
p656
aVHow
p657
aa(lp658
Vamod
p659
aVshelves
p660
aVmany
p661
aa(lp662
Vdobj
p663
aVuse
p664
aVshelves
p665
aa(lp666
Vaux
p667
aVuse
p668
aVdid
p669
aa(lp670
Vnsubj
p671
aVuse
p672
aVthey
p673
aasVwords
p674
(lp675
(lp676
VHow
p677
a(dp678
VNamedEntityTag
p679
g103
sVCharacterOffsetEnd
p680
V159
p681
sVCharacterOffsetBegin
p682
V156
p683
sVPartOfSpeech
p684
VWRB
p685
sVLemma
p686
Vhow
p687
saa(lp688
Vmany
p689
a(dp690
VNamedEntityTag
p691
g103
sVCharacterOffsetEnd
p692
V164
p693
sVCharacterOffsetBegin
p694
V160
p695
sVPartOfSpeech
p696
VJJ
p697
sVLemma
p698
Vmany
p699
saa(lp700
Vshelves
p701
a(dp702
VNamedEntityTag
p703
g103
sVCharacterOffsetEnd
p704
V172
p705
sVCharacterOffsetBegin
p706
V165
p707
sVPartOfSpeech
p708
VNNS
p709
sVLemma
p710
Vshelf
p711
saa(lp712
Vdid
p713
a(dp714
VNamedEntityTag
p715
g103
sVCharacterOffsetEnd
p716
V176
p717
sVCharacterOffsetBegin
p718
V173
p719
sVPartOfSpeech
p720
VVBD
p721
sVLemma
p722
Vdo
p723
saa(lp724
Vthey
p725
a(dp726
VNamedEntityTag
p727
g103
sVCharacterOffsetEnd
p728
V181
p729
sVCharacterOffsetBegin
p730
V177
p731
sVPartOfSpeech
p732
VPRP
p733
sVLemma
p734
Vthey
p735
saa(lp736
Vuse
p737
a(dp738
VNamedEntityTag
p739
g103
sVCharacterOffsetEnd
p740
V185
p741
sVCharacterOffsetBegin
p742
V182
p743
sVPartOfSpeech
p744
VVB
p745
sVLemma
p746
Vuse
p747
saa(lp748
V?
p749
a(dp750
VNamedEntityTag
p751
g103
sVCharacterOffsetEnd
p752
V187
p753
sVCharacterOffsetBegin
p754
V186
p755
sVPartOfSpeech
p756
g347
sVLemma
p757
g749
saasVindexeddependencies
p758
(lp759
(lp760
Vroot
p761
aVROOT-0
p762
aVuse-6
p763
aa(lp764
Vadvmod
p765
aVmany-2
p766
aVHow-1
p767
aa(lp768
Vamod
p769
aVshelves-3
p770
aVmany-2
p771
aa(lp772
Vdobj
p773
aVuse-6
p774
aVshelves-3
p775
aa(lp776
Vaux
p777
aVuse-6
p778
aVdid-4
p779
aa(lp780
Vnsubj
p781
aVuse-6
p782
aVthey-5
p783
aasas.