(dp0
Vcoref
p1
(lp2
(lp3
(lp4
(lp5
Vhe
p6
aI0
aI12
aI12
aI13
aa(lp7
VVictor
p8
aI0
aI0
aI0
aI1
aaa(lp9
(lp10
Vhe
p11
aI1
aI1
aI1
aI2
aa(lp12
VVictor
p13
aI0
aI0
aI0
aI1
aaa(lp14
(lp15
Vhe
p16
aI1
aI21
aI21
aI22
aa(lp17
VVictor
p18
aI0
aI0
aI0
aI1
aaaasVsentences
p19
(lp20
(dp21
Vparsetree
p22
V(ROOT (S (S (NP (NNP Victor)) (VP (VBD was) (VP (VBG helping) (NP (NP (DT the) (NN cafeteria)) (SBAR (S (NP (NNS workers)) (VP (VBP pick) (PRT (RP up)) (NP (NN lunch) (NNS trays))))))))) (, ,) (CC but) (S (NP (PRP he)) (VP (MD could) (ADVP (RB only)) (VP (VB carry) (NP (CD 7) (NNS trays)) (PP (IN at) (NP (DT a) (NN time)))))) (. .)))
p23
sVtext
p24
VVictor was helping the cafeteria workers pick up lunch trays , but he could only carry 7 trays at a time .
p25
sVdependencies
p26
(lp27
(lp28
Vroot
p29
aVROOT
p30
aVhelping
p31
aa(lp32
Vnsubj
p33
aVhelping
p34
aVVictor
p35
aa(lp36
Vaux
p37
aVhelping
p38
aVwas
p39
aa(lp40
Vdet
p41
aVcafeteria
p42
aVthe
p43
aa(lp44
Vdobj
p45
aVhelping
p46
aVcafeteria
p47
aa(lp48
Vnsubj
p49
aVpick
p50
aVworkers
p51
aa(lp52
Vrcmod
p53
aVcafeteria
p54
aVpick
p55
aa(lp56
Vprt
p57
aVpick
p58
aVup
p59
aa(lp60
Vnn
p61
aVtrays
p62
aVlunch
p63
aa(lp64
Vdobj
p65
aVpick
p66
aVtrays
p67
aa(lp68
Vnsubj
p69
aVcarry
p70
aVhe
p71
aa(lp72
Vaux
p73
aVcarry
p74
aVcould
p75
aa(lp76
Vadvmod
p77
aVcarry
p78
aVonly
p79
aa(lp80
Vconj_but
p81
aVhelping
p82
aVcarry
p83
aa(lp84
Vnum
p85
aVtrays
p86
aV7
p87
aa(lp88
Vdobj
p89
aVcarry
p90
aVtrays
p91
aa(lp92
Vdet
p93
aVtime
p94
aVa
p95
aa(lp96
Vprep_at
p97
aVcarry
p98
aVtime
p99
aasVwords
p100
(lp101
(lp102
VVictor
p103
a(dp104
VNamedEntityTag
p105
VPERSON
p106
sVCharacterOffsetEnd
p107
g87
sVCharacterOffsetBegin
p108
V1
p109
sVPartOfSpeech
p110
VNNP
p111
sVLemma
p112
VVictor
p113
saa(lp114
Vwas
p115
a(dp116
VNamedEntityTag
p117
VO
p118
sVCharacterOffsetEnd
p119
V11
p120
sVCharacterOffsetBegin
p121
V8
p122
sVPartOfSpeech
p123
VVBD
p124
sVLemma
p125
Vbe
p126
saa(lp127
Vhelping
p128
a(dp129
VNamedEntityTag
p130
g118
sVCharacterOffsetEnd
p131
V19
p132
sVCharacterOffsetBegin
p133
V12
p134
sVPartOfSpeech
p135
VVBG
p136
sVLemma
p137
Vhelp
p138
saa(lp139
Vthe
p140
a(dp141
VNamedEntityTag
p142
g118
sVCharacterOffsetEnd
p143
V23
p144
sVCharacterOffsetBegin
p145
V20
p146
sVPartOfSpeech
p147
VDT
p148
sVLemma
p149
Vthe
p150
saa(lp151
Vcafeteria
p152
a(dp153
VNamedEntityTag
p154
g118
sVCharacterOffsetEnd
p155
V33
p156
sVCharacterOffsetBegin
p157
V24
p158
sVPartOfSpeech
p159
VNN
p160
sVLemma
p161
Vcafeteria
p162
saa(lp163
Vworkers
p164
a(dp165
VNamedEntityTag
p166
g118
sVCharacterOffsetEnd
p167
V41
p168
sVCharacterOffsetBegin
p169
V34
p170
sVPartOfSpeech
p171
VNNS
p172
sVLemma
p173
Vworker
p174
saa(lp175
Vpick
p176
a(dp177
VNamedEntityTag
p178
g118
sVCharacterOffsetEnd
p179
V46
p180
sVCharacterOffsetBegin
p181
V42
p182
sVPartOfSpeech
p183
VVBP
p184
sVLemma
p185
Vpick
p186
saa(lp187
Vup
p188
a(dp189
VNamedEntityTag
p190
g118
sVCharacterOffsetEnd
p191
V49
p192
sVCharacterOffsetBegin
p193
V47
p194
sVPartOfSpeech
p195
VRP
p196
sVLemma
p197
Vup
p198
saa(lp199
Vlunch
p200
a(dp201
VNamedEntityTag
p202
g118
sVCharacterOffsetEnd
p203
V55
p204
sVCharacterOffsetBegin
p205
V50
p206
sVPartOfSpeech
p207
VNN
p208
sVLemma
p209
Vlunch
p210
saa(lp211
Vtrays
p212
a(dp213
VNamedEntityTag
p214
g118
sVCharacterOffsetEnd
p215
V61
p216
sVCharacterOffsetBegin
p217
V56
p218
sVPartOfSpeech
p219
VNNS
p220
sVLemma
p221
Vtray
p222
saa(lp223
V,
p224
a(dp225
VNamedEntityTag
p226
g118
sVCharacterOffsetEnd
p227
V63
p228
sVCharacterOffsetBegin
p229
V62
p230
sVPartOfSpeech
p231
g224
sVLemma
p232
g224
saa(lp233
Vbut
p234
a(dp235
VNamedEntityTag
p236
g118
sVCharacterOffsetEnd
p237
V67
p238
sVCharacterOffsetBegin
p239
V64
p240
sVPartOfSpeech
p241
VCC
p242
sVLemma
p243
Vbut
p244
saa(lp245
Vhe
p246
a(dp247
VNamedEntityTag
p248
g118
sVCharacterOffsetEnd
p249
V70
p250
sVCharacterOffsetBegin
p251
V68
p252
sVPartOfSpeech
p253
VPRP
p254
sVLemma
p255
Vhe
p256
saa(lp257
Vcould
p258
a(dp259
VNamedEntityTag
p260
g118
sVCharacterOffsetEnd
p261
V76
p262
sVCharacterOffsetBegin
p263
V71
p264
sVPartOfSpeech
p265
VMD
p266
sVLemma
p267
Vcould
p268
saa(lp269
Vonly
p270
a(dp271
VNamedEntityTag
p272
g118
sVCharacterOffsetEnd
p273
V81
p274
sVCharacterOffsetBegin
p275
V77
p276
sVPartOfSpeech
p277
VRB
p278
sVLemma
p279
Vonly
p280
saa(lp281
Vcarry
p282
a(dp283
VNamedEntityTag
p284
g118
sVCharacterOffsetEnd
p285
V87
p286
sVCharacterOffsetBegin
p287
V82
p288
sVPartOfSpeech
p289
VVB
p290
sVLemma
p291
Vcarry
p292
saa(lp293
g87
a(dp294
VNormalizedNamedEntityTag
p295
V7.0
p296
sVLemma
p297
g87
sVCharacterOffsetEnd
p298
V89
p299
sVPartOfSpeech
p300
VCD
p301
sVCharacterOffsetBegin
p302
V88
p303
sVNamedEntityTag
p304
VNUMBER
p305
saa(lp306
Vtrays
p307
a(dp308
VNamedEntityTag
p309
g118
sVCharacterOffsetEnd
p310
V95
p311
sVCharacterOffsetBegin
p312
V90
p313
sVPartOfSpeech
p314
VNNS
p315
sVLemma
p316
Vtray
p317
saa(lp318
Vat
p319
a(dp320
VNamedEntityTag
p321
g118
sVCharacterOffsetEnd
p322
V98
p323
sVCharacterOffsetBegin
p324
V96
p325
sVPartOfSpeech
p326
VIN
p327
sVLemma
p328
Vat
p329
saa(lp330
g95
a(dp331
VNamedEntityTag
p332
g118
sVCharacterOffsetEnd
p333
V100
p334
sVCharacterOffsetBegin
p335
V99
p336
sVPartOfSpeech
p337
VDT
p338
sVLemma
p339
g95
saa(lp340
Vtime
p341
a(dp342
VNamedEntityTag
p343
g118
sVCharacterOffsetEnd
p344
V105
p345
sVCharacterOffsetBegin
p346
V101
p347
sVPartOfSpeech
p348
VNN
p349
sVLemma
p350
Vtime
p351
saa(lp352
V.
p353
a(dp354
VNamedEntityTag
p355
g118
sVCharacterOffsetEnd
p356
V107
p357
sVCharacterOffsetBegin
p358
V106
p359
sVPartOfSpeech
p360
g353
sVLemma
p361
g353
saasVindexeddependencies
p362
(lp363
(lp364
Vroot
p365
aVROOT-0
p366
aVhelping-3
p367
aa(lp368
Vnsubj
p369
aVhelping-3
p370
aVVictor-1
p371
aa(lp372
Vaux
p373
aVhelping-3
p374
aVwas-2
p375
aa(lp376
Vdet
p377
aVcafeteria-5
p378
aVthe-4
p379
aa(lp380
Vdobj
p381
aVhelping-3
p382
aVcafeteria-5
p383
aa(lp384
Vnsubj
p385
aVpick-7
p386
aVworkers-6
p387
aa(lp388
Vrcmod
p389
aVcafeteria-5
p390
aVpick-7
p391
aa(lp392
Vprt
p393
aVpick-7
p394
aVup-8
p395
aa(lp396
Vnn
p397
aVtrays-10
p398
aVlunch-9
p399
aa(lp400
Vdobj
p401
aVpick-7
p402
aVtrays-10
p403
aa(lp404
Vnsubj
p405
aVcarry-16
p406
aVhe-13
p407
aa(lp408
Vaux
p409
aVcarry-16
p410
aVcould-14
p411
aa(lp412
Vadvmod
p413
aVcarry-16
p414
aVonly-15
p415
aa(lp416
Vconj_but
p417
aVhelping-3
p418
aVcarry-16
p419
aa(lp420
Vnum
p421
aVtrays-18
p422
aV7-17
p423
aa(lp424
Vdobj
p425
aVcarry-16
p426
aVtrays-18
p427
aa(lp428
Vdet
p429
aVtime-21
p430
aVa-20
p431
aa(lp432
Vprep_at
p433
aVcarry-16
p434
aVtime-21
p435
aasa(dp436
Vparsetree
p437
V(ROOT (SBARQ (SBAR (IN If) (S (NP (PRP he)) (VP (VBD had) (S (VP (TO to) (VP (VB pick) (PRT (RP up)) (NP (NP (CD 23) (NNS trays)) (PP (IN from) (NP (NP (CD one) (NN table)) (CC and) (NP (CD 5) (NNS trays))))) (PP (IN from) (NP (DT another))))))))) (, ,) (WHNP (WHADJP (WRB how) (JJ many)) (NNS trips)) (SQ (MD will) (NP (PRP he)) (VP (VB make))) (. ?)))
p438
sVtext
p439
VIf he had to pick up 23 trays from one table and 5 trays from another , how many trips will he make ?
p440
sVdependencies
p441
(lp442
(lp443
Vroot
p444
aVROOT
p445
aVmake
p446
aa(lp447
Vmark
p448
aVhad
p449
aVIf
p450
aa(lp451
Vnsubj
p452
aVhad
p453
aVhe
p454
aa(lp455
Vadvcl
p456
aVmake
p457
aVhad
p458
aa(lp459
Vaux
p460
aVpick
p461
aVto
p462
aa(lp463
Vxcomp
p464
aVhad
p465
aVpick
p466
aa(lp467
Vprt
p468
aVpick
p469
aVup
p470
aa(lp471
Vnum
p472
aVtrays
p473
aV23
p474
aa(lp475
Vdobj
p476
aVpick
p477
aVtrays
p478
aa(lp479
Vnum
p480
aVtable
p481
aVone
p482
aa(lp483
Vprep_from
p484
aVtrays
p485
aVtable
p486
aa(lp487
Vnum
p488
aVtrays
p489
aV5
p490
aa(lp491
Vconj_and
p492
aVtable
p493
aVtrays
p494
aa(lp495
Vprep_from
p496
aVpick
p497
aVanother
p498
aa(lp499
Vadvmod
p500
aVmany
p501
aVhow
p502
aa(lp503
Vamod
p504
aVtrips
p505
aVmany
p506
aa(lp507
Vdobj
p508
aVmake
p509
aVtrips
p510
aa(lp511
Vaux
p512
aVmake
p513
aVwill
p514
aa(lp515
Vnsubj
p516
aVmake
p517
aVhe
p518
aasVwords
p519
(lp520
(lp521
VIf
p522
a(dp523
VNamedEntityTag
p524
g118
sVCharacterOffsetEnd
p525
V110
p526
sVCharacterOffsetBegin
p527
V108
p528
sVPartOfSpeech
p529
VIN
p530
sVLemma
p531
Vif
p532
saa(lp533
Vhe
p534
a(dp535
VNamedEntityTag
p536
g118
sVCharacterOffsetEnd
p537
V113
p538
sVCharacterOffsetBegin
p539
V111
p540
sVPartOfSpeech
p541
VPRP
p542
sVLemma
p543
Vhe
p544
saa(lp545
Vhad
p546
a(dp547
VNamedEntityTag
p548
g118
sVCharacterOffsetEnd
p549
V117
p550
sVCharacterOffsetBegin
p551
V114
p552
sVPartOfSpeech
p553
VVBD
p554
sVLemma
p555
Vhave
p556
saa(lp557
Vto
p558
a(dp559
VNamedEntityTag
p560
g118
sVCharacterOffsetEnd
p561
V120
p562
sVCharacterOffsetBegin
p563
V118
p564
sVPartOfSpeech
p565
VTO
p566
sVLemma
p567
Vto
p568
saa(lp569
Vpick
p570
a(dp571
VNamedEntityTag
p572
g118
sVCharacterOffsetEnd
p573
V125
p574
sVCharacterOffsetBegin
p575
V121
p576
sVPartOfSpeech
p577
VVB
p578
sVLemma
p579
Vpick
p580
saa(lp581
Vup
p582
a(dp583
VNamedEntityTag
p584
g118
sVCharacterOffsetEnd
p585
V128
p586
sVCharacterOffsetBegin
p587
V126
p588
sVPartOfSpeech
p589
VRP
p590
sVLemma
p591
Vup
p592
saa(lp593
V23
p594
a(dp595
VNormalizedNamedEntityTag
p596
V23.0
p597
sVLemma
p598
V23
p599
sVCharacterOffsetEnd
p600
V131
p601
sVPartOfSpeech
p602
VCD
p603
sVCharacterOffsetBegin
p604
V129
p605
sVNamedEntityTag
p606
VNUMBER
p607
saa(lp608
Vtrays
p609
a(dp610
VNamedEntityTag
p611
g118
sVCharacterOffsetEnd
p612
V137
p613
sVCharacterOffsetBegin
p614
V132
p615
sVPartOfSpeech
p616
VNNS
p617
sVLemma
p618
Vtray
p619
saa(lp620
Vfrom
p621
a(dp622
VNamedEntityTag
p623
g118
sVCharacterOffsetEnd
p624
V142
p625
sVCharacterOffsetBegin
p626
V138
p627
sVPartOfSpeech
p628
VIN
p629
sVLemma
p630
Vfrom
p631
saa(lp632
Vone
p633
a(dp634
VNormalizedNamedEntityTag
p635
V1.0
p636
sVLemma
p637
Vone
p638
sVCharacterOffsetEnd
p639
V146
p640
sVPartOfSpeech
p641
VCD
p642
sVCharacterOffsetBegin
p643
V143
p644
sVNamedEntityTag
p645
VNUMBER
p646
saa(lp647
Vtable
p648
a(dp649
VNamedEntityTag
p650
g118
sVCharacterOffsetEnd
p651
V152
p652
sVCharacterOffsetBegin
p653
V147
p654
sVPartOfSpeech
p655
VNN
p656
sVLemma
p657
Vtable
p658
saa(lp659
Vand
p660
a(dp661
VNamedEntityTag
p662
g118
sVCharacterOffsetEnd
p663
V156
p664
sVCharacterOffsetBegin
p665
V153
p666
sVPartOfSpeech
p667
VCC
p668
sVLemma
p669
Vand
p670
saa(lp671
g490
a(dp672
VNormalizedNamedEntityTag
p673
V5.0
p674
sVLemma
p675
g490
sVCharacterOffsetEnd
p676
V158
p677
sVPartOfSpeech
p678
VCD
p679
sVCharacterOffsetBegin
p680
V157
p681
sVNamedEntityTag
p682
VNUMBER
p683
saa(lp684
Vtrays
p685
a(dp686
VNamedEntityTag
p687
g118
sVCharacterOffsetEnd
p688
V164
p689
sVCharacterOffsetBegin
p690
V159
p691
sVPartOfSpeech
p692
VNNS
p693
sVLemma
p694
Vtray
p695
saa(lp696
Vfrom
p697
a(dp698
VNamedEntityTag
p699
g118
sVCharacterOffsetEnd
p700
V169
p701
sVCharacterOffsetBegin
p702
V165
p703
sVPartOfSpeech
p704
VIN
p705
sVLemma
p706
Vfrom
p707
saa(lp708
Vanother
p709
a(dp710
VNamedEntityTag
p711
g118
sVCharacterOffsetEnd
p712
V177
p713
sVCharacterOffsetBegin
p714
V170
p715
sVPartOfSpeech
p716
VDT
p717
sVLemma
p718
Vanother
p719
saa(lp720
g224
a(dp721
VNamedEntityTag
p722
g118
sVCharacterOffsetEnd
p723
V179
p724
sVCharacterOffsetBegin
p725
V178
p726
sVPartOfSpeech
p727
g224
sVLemma
p728
g224
saa(lp729
Vhow
p730
a(dp731
VNamedEntityTag
p732
g118
sVCharacterOffsetEnd
p733
V183
p734
sVCharacterOffsetBegin
p735
V180
p736
sVPartOfSpeech
p737
VWRB
p738
sVLemma
p739
Vhow
p740
saa(lp741
Vmany
p742
a(dp743
VNamedEntityTag
p744
g118
sVCharacterOffsetEnd
p745
V188
p746
sVCharacterOffsetBegin
p747
V184
p748
sVPartOfSpeech
p749
VJJ
p750
sVLemma
p751
Vmany
p752
saa(lp753
Vtrips
p754
a(dp755
VNamedEntityTag
p756
g118
sVCharacterOffsetEnd
p757
V194
p758
sVCharacterOffsetBegin
p759
V189
p760
sVPartOfSpeech
p761
VNNS
p762
sVLemma
p763
Vtrip
p764
saa(lp765
Vwill
p766
a(dp767
VNamedEntityTag
p768
g118
sVCharacterOffsetEnd
p769
V199
p770
sVCharacterOffsetBegin
p771
V195
p772
sVPartOfSpeech
p773
VMD
p774
sVLemma
p775
Vwill
p776
saa(lp777
Vhe
p778
a(dp779
VNamedEntityTag
p780
g118
sVCharacterOffsetEnd
p781
V202
p782
sVCharacterOffsetBegin
p783
V200
p784
sVPartOfSpeech
p785
VPRP
p786
sVLemma
p787
Vhe
p788
saa(lp789
Vmake
p790
a(dp791
VNamedEntityTag
p792
g118
sVCharacterOffsetEnd
p793
V207
p794
sVCharacterOffsetBegin
p795
V203
p796
sVPartOfSpeech
p797
VVB
p798
sVLemma
p799
Vmake
p800
saa(lp801
V?
p802
a(dp803
VNamedEntityTag
p804
g118
sVCharacterOffsetEnd
p805
V209
p806
sVCharacterOffsetBegin
p807
V208
p808
sVPartOfSpeech
p809
g353
sVLemma
p810
g802
saasVindexeddependencies
p811
(lp812
(lp813
Vroot
p814
aVROOT-0
p815
aVmake-23
p816
aa(lp817
Vmark
p818
aVhad-3
p819
aVIf-1
p820
aa(lp821
Vnsubj
p822
aVhad-3
p823
aVhe-2
p824
aa(lp825
Vadvcl
p826
aVmake-23
p827
aVhad-3
p828
aa(lp829
Vaux
p830
aVpick-5
p831
aVto-4
p832
aa(lp833
Vxcomp
p834
aVhad-3
p835
aVpick-5
p836
aa(lp837
Vprt
p838
aVpick-5
p839
aVup-6
p840
aa(lp841
Vnum
p842
aVtrays-8
p843
aV23-7
p844
aa(lp845
Vdobj
p846
aVpick-5
p847
aVtrays-8
p848
aa(lp849
Vnum
p850
aVtable-11
p851
aVone-10
p852
aa(lp853
Vprep_from
p854
aVtrays-8
p855
aVtable-11
p856
aa(lp857
Vnum
p858
aVtrays-14
p859
aV5-13
p860
aa(lp861
Vconj_and
p862
aVtable-11
p863
aVtrays-14
p864
aa(lp865
Vprep_from
p866
aVpick-5
p867
aVanother-16
p868
aa(lp869
Vadvmod
p870
aVmany-19
p871
aVhow-18
p872
aa(lp873
Vamod
p874
aVtrips-20
p875
aVmany-19
p876
aa(lp877
Vdobj
p878
aVmake-23
p879
aVtrips-20
p880
aa(lp881
Vaux
p882
aVmake-23
p883
aVwill-21
p884
aa(lp885
Vnsubj
p886
aVmake-23
p887
aVhe-22
p888
aasas.