(dp0
Vcoref
p1
(lp2
(lp3
(lp4
(lp5
Vthey
p6
aI1
aI21
aI21
aI22
aa(lp7
V9 people
p8
aI1
aI6
aI5
aI7
aaaasVsentences
p9
(lp10
(dp11
Vparsetree
p12
V(ROOT (S (NP (NP (NNP Debby) (POS 's)) (NN class)) (VP (VBZ is) (VP (VBG going) (PP (IN on) (NP (DT a) (NN field) (NN trip))) (PP (TO to) (NP (DT the) (NN zoo))))) (. .)))
p13
sVtext
p14
VDebby's class is going on a field trip to the zoo .
p15
sVdependencies
p16
(lp17
(lp18
Vroot
p19
aVROOT
p20
aVgoing
p21
aa(lp22
Vposs
p23
aVclass
p24
aVDebby
p25
aa(lp26
Vnsubj
p27
aVgoing
p28
aVclass
p29
aa(lp30
Vaux
p31
aVgoing
p32
aVis
p33
aa(lp34
Vdet
p35
aVtrip
p36
aVa
p37
aa(lp38
Vnn
p39
aVtrip
p40
aVfield
p41
aa(lp42
Vprep_on
p43
aVgoing
p44
aVtrip
p45
aa(lp46
Vdet
p47
aVzoo
p48
aVthe
p49
aa(lp50
Vprep_to
p51
aVgoing
p52
aVzoo
p53
aasVwords
p54
(lp55
(lp56
VDebby
p57
a(dp58
VNamedEntityTag
p59
VPERSON
p60
sVCharacterOffsetEnd
p61
V6
p62
sVCharacterOffsetBegin
p63
V1
p64
sVPartOfSpeech
p65
VNNP
p66
sVLemma
p67
VDebby
p68
saa(lp69
V's
p70
a(dp71
VNamedEntityTag
p72
VO
p73
sVCharacterOffsetEnd
p74
V8
p75
sVCharacterOffsetBegin
p76
g62
sVPartOfSpeech
p77
VPOS
p78
sVLemma
p79
V's
p80
saa(lp81
Vclass
p82
a(dp83
VNamedEntityTag
p84
g73
sVCharacterOffsetEnd
p85
V14
p86
sVCharacterOffsetBegin
p87
V9
p88
sVPartOfSpeech
p89
VNN
p90
sVLemma
p91
Vclass
p92
saa(lp93
Vis
p94
a(dp95
VNamedEntityTag
p96
g73
sVCharacterOffsetEnd
p97
V17
p98
sVCharacterOffsetBegin
p99
V15
p100
sVPartOfSpeech
p101
VVBZ
p102
sVLemma
p103
Vbe
p104
saa(lp105
Vgoing
p106
a(dp107
VNamedEntityTag
p108
g73
sVCharacterOffsetEnd
p109
V23
p110
sVCharacterOffsetBegin
p111
V18
p112
sVPartOfSpeech
p113
VVBG
p114
sVLemma
p115
Vgo
p116
saa(lp117
Von
p118
a(dp119
VNamedEntityTag
p120
g73
sVCharacterOffsetEnd
p121
V26
p122
sVCharacterOffsetBegin
p123
V24
p124
sVPartOfSpeech
p125
VIN
p126
sVLemma
p127
Von
p128
saa(lp129
g37
a(dp130
VNamedEntityTag
p131
g73
sVCharacterOffsetEnd
p132
V28
p133
sVCharacterOffsetBegin
p134
V27
p135
sVPartOfSpeech
p136
VDT
p137
sVLemma
p138
g37
saa(lp139
Vfield
p140
a(dp141
VNamedEntityTag
p142
g73
sVCharacterOffsetEnd
p143
V34
p144
sVCharacterOffsetBegin
p145
V29
p146
sVPartOfSpeech
p147
VNN
p148
sVLemma
p149
Vfield
p150
saa(lp151
Vtrip
p152
a(dp153
VNamedEntityTag
p154
g73
sVCharacterOffsetEnd
p155
V39
p156
sVCharacterOffsetBegin
p157
V35
p158
sVPartOfSpeech
p159
VNN
p160
sVLemma
p161
Vtrip
p162
saa(lp163
Vto
p164
a(dp165
VNamedEntityTag
p166
g73
sVCharacterOffsetEnd
p167
V42
p168
sVCharacterOffsetBegin
p169
V40
p170
sVPartOfSpeech
p171
VTO
p172
sVLemma
p173
Vto
p174
saa(lp175
Vthe
p176
a(dp177
VNamedEntityTag
p178
g73
sVCharacterOffsetEnd
p179
V46
p180
sVCharacterOffsetBegin
p181
V43
p182
sVPartOfSpeech
p183
VDT
p184
sVLemma
p185
Vthe
p186
saa(lp187
Vzoo
p188
a(dp189
VNamedEntityTag
p190
g73
sVCharacterOffsetEnd
p191
V50
p192
sVCharacterOffsetBegin
p193
V47
p194
sVPartOfSpeech
p195
VNN
p196
sVLemma
p197
Vzoo
p198
saa(lp199
V.
p200
a(dp201
VNamedEntityTag
p202
g73
sVCharacterOffsetEnd
p203
V52
p204
sVCharacterOffsetBegin
p205
V51
p206
sVPartOfSpeech
p207
g200
sVLemma
p208
g200
saasVindexeddependencies
p209
(lp210
(lp211
Vroot
p212
aVROOT-0
p213
aVgoing-5
p214
aa(lp215
Vposs
p216
aVclass-3
p217
aVDebby-1
p218
aa(lp219
Vnsubj
p220
aVgoing-5
p221
aVclass-3
p222
aa(lp223
Vaux
p224
aVgoing-5
p225
aVis-4
p226
aa(lp227
Vdet
p228
aVtrip-9
p229
aVa-7
p230
aa(lp231
Vnn
p232
aVtrip-9
p233
aVfield-8
p234
aa(lp235
Vprep_on
p236
aVgoing-5
p237
aVtrip-9
p238
aa(lp239
Vdet
p240
aVzoo-12
p241
aVthe-11
p242
aa(lp243
Vprep_to
p244
aVgoing-5
p245
aVzoo-12
p246
aasa(dp247
Vparsetree
p248
V(ROOT (SBARQ (SBAR (IN If) (S (S (NP (DT each) (NN van)) (VP (MD can) (VP (VB hold) (NP (CD 9) (NNS people))))) (CC and) (S (NP (EX there)) (VP (VBP are) (NP (NP (CD 40) (NNS students)) (CC and) (NP (NP (CD 14) (NNS adults)) (VP (VBG going)))))))) (, ,) (WHNP (WHADJP (WRB how) (JJ many)) (NNS vans)) (SQ (MD will) (NP (PRP they)) (VP (VB need))) (. ?)))
p249
sVtext
p250
VIf each van can hold 9 people and there are 40 students and 14 adults going , how many vans will they need ?
p251
sVdependencies
p252
(lp253
(lp254
Vroot
p255
aVROOT
p256
aVneed
p257
aa(lp258
Vmark
p259
aVhold
p260
aVIf
p261
aa(lp262
Vdet
p263
aVvan
p264
aVeach
p265
aa(lp266
Vnsubj
p267
aVhold
p268
aVvan
p269
aa(lp270
Vaux
p271
aVhold
p272
aVcan
p273
aa(lp274
Vadvcl
p275
aVneed
p276
aVhold
p277
aa(lp278
Vnum
p279
aVpeople
p280
ag88
aa(lp281
Vdobj
p282
aVhold
p283
aVpeople
p284
aa(lp285
Vexpl
p286
aVare
p287
aVthere
p288
aa(lp289
Vconj_and
p290
aVhold
p291
aVare
p292
aa(lp293
Vnum
p294
aVstudents
p295
aV40
p296
aa(lp297
Vnsubj
p298
aVare
p299
aVstudents
p300
aa(lp301
Vnum
p302
aVadults
p303
aV14
p304
aa(lp305
Vconj_and
p306
aVstudents
p307
aVadults
p308
aa(lp309
Vvmod
p310
aVadults
p311
aVgoing
p312
aa(lp313
Vadvmod
p314
aVmany
p315
aVhow
p316
aa(lp317
Vamod
p318
aVvans
p319
aVmany
p320
aa(lp321
Vdobj
p322
aVneed
p323
aVvans
p324
aa(lp325
Vaux
p326
aVneed
p327
aVwill
p328
aa(lp329
Vnsubj
p330
aVneed
p331
aVthey
p332
aasVwords
p333
(lp334
(lp335
VIf
p336
a(dp337
VNamedEntityTag
p338
g73
sVCharacterOffsetEnd
p339
V55
p340
sVCharacterOffsetBegin
p341
V53
p342
sVPartOfSpeech
p343
VIN
p344
sVLemma
p345
Vif
p346
saa(lp347
Veach
p348
a(dp349
VNamedEntityTag
p350
g73
sVCharacterOffsetEnd
p351
V60
p352
sVCharacterOffsetBegin
p353
V56
p354
sVPartOfSpeech
p355
VDT
p356
sVLemma
p357
Veach
p358
saa(lp359
Vvan
p360
a(dp361
VNamedEntityTag
p362
g73
sVCharacterOffsetEnd
p363
V64
p364
sVCharacterOffsetBegin
p365
V61
p366
sVPartOfSpeech
p367
VNN
p368
sVLemma
p369
Vvan
p370
saa(lp371
Vcan
p372
a(dp373
VNamedEntityTag
p374
g73
sVCharacterOffsetEnd
p375
V68
p376
sVCharacterOffsetBegin
p377
V65
p378
sVPartOfSpeech
p379
VMD
p380
sVLemma
p381
Vcan
p382
saa(lp383
Vhold
p384
a(dp385
VNamedEntityTag
p386
g73
sVCharacterOffsetEnd
p387
V73
p388
sVCharacterOffsetBegin
p389
V69
p390
sVPartOfSpeech
p391
VVB
p392
sVLemma
p393
Vhold
p394
saa(lp395
g88
a(dp396
VNormalizedNamedEntityTag
p397
V9.0
p398
sVLemma
p399
g88
sVCharacterOffsetEnd
p400
V75
p401
sVPartOfSpeech
p402
VCD
p403
sVCharacterOffsetBegin
p404
V74
p405
sVNamedEntityTag
p406
VNUMBER
p407
saa(lp408
Vpeople
p409
a(dp410
VNamedEntityTag
p411
g73
sVCharacterOffsetEnd
p412
V82
p413
sVCharacterOffsetBegin
p414
V76
p415
sVPartOfSpeech
p416
VNNS
p417
sVLemma
p418
Vpeople
p419
saa(lp420
Vand
p421
a(dp422
VNamedEntityTag
p423
g73
sVCharacterOffsetEnd
p424
V86
p425
sVCharacterOffsetBegin
p426
V83
p427
sVPartOfSpeech
p428
VCC
p429
sVLemma
p430
Vand
p431
saa(lp432
Vthere
p433
a(dp434
VNamedEntityTag
p435
g73
sVCharacterOffsetEnd
p436
V92
p437
sVCharacterOffsetBegin
p438
V87
p439
sVPartOfSpeech
p440
VEX
p441
sVLemma
p442
Vthere
p443
saa(lp444
Vare
p445
a(dp446
VNamedEntityTag
p447
g73
sVCharacterOffsetEnd
p448
V96
p449
sVCharacterOffsetBegin
p450
V93
p451
sVPartOfSpeech
p452
VVBP
p453
sVLemma
p454
Vbe
p455
saa(lp456
V40
p457
a(dp458
VNormalizedNamedEntityTag
p459
V40.0
p460
sVLemma
p461
V40
p462
sVCharacterOffsetEnd
p463
V99
p464
sVPartOfSpeech
p465
VCD
p466
sVCharacterOffsetBegin
p467
V97
p468
sVNamedEntityTag
p469
VNUMBER
p470
saa(lp471
Vstudents
p472
a(dp473
VNamedEntityTag
p474
g73
sVCharacterOffsetEnd
p475
V108
p476
sVCharacterOffsetBegin
p477
V100
p478
sVPartOfSpeech
p479
VNNS
p480
sVLemma
p481
Vstudent
p482
saa(lp483
Vand
p484
a(dp485
VNamedEntityTag
p486
g73
sVCharacterOffsetEnd
p487
V112
p488
sVCharacterOffsetBegin
p489
V109
p490
sVPartOfSpeech
p491
VCC
p492
sVLemma
p493
Vand
p494
saa(lp495
V14
p496
a(dp497
VNormalizedNamedEntityTag
p498
V14.0
p499
sVLemma
p500
V14
p501
sVCharacterOffsetEnd
p502
V115
p503
sVPartOfSpeech
p504
VCD
p505
sVCharacterOffsetBegin
p506
V113
p507
sVNamedEntityTag
p508
VNUMBER
p509
saa(lp510
Vadults
p511
a(dp512
VNamedEntityTag
p513
g73
sVCharacterOffsetEnd
p514
V122
p515
sVCharacterOffsetBegin
p516
V116
p517
sVPartOfSpeech
p518
VNNS
p519
sVLemma
p520
Vadult
p521
saa(lp522
Vgoing
p523
a(dp524
VNamedEntityTag
p525
g73
sVCharacterOffsetEnd
p526
V128
p527
sVCharacterOffsetBegin
p528
V123
p529
sVPartOfSpeech
p530
VVBG
p531
sVLemma
p532
Vgo
p533
saa(lp534
V,
p535
a(dp536
VNamedEntityTag
p537
g73
sVCharacterOffsetEnd
p538
V130
p539
sVCharacterOffsetBegin
p540
V129
p541
sVPartOfSpeech
p542
g535
sVLemma
p543
g535
saa(lp544
Vhow
p545
a(dp546
VNamedEntityTag
p547
g73
sVCharacterOffsetEnd
p548
V134
p549
sVCharacterOffsetBegin
p550
V131
p551
sVPartOfSpeech
p552
VWRB
p553
sVLemma
p554
Vhow
p555
saa(lp556
Vmany
p557
a(dp558
VNamedEntityTag
p559
g73
sVCharacterOffsetEnd
p560
V139
p561
sVCharacterOffsetBegin
p562
V135
p563
sVPartOfSpeech
p564
VJJ
p565
sVLemma
p566
Vmany
p567
saa(lp568
Vvans
p569
a(dp570
VNamedEntityTag
p571
g73
sVCharacterOffsetEnd
p572
V144
p573
sVCharacterOffsetBegin
p574
V140
p575
sVPartOfSpeech
p576
VNNS
p577
sVLemma
p578
Vvan
p579
saa(lp580
Vwill
p581
a(dp582
VNamedEntityTag
p583
g73
sVCharacterOffsetEnd
p584
V149
p585
sVCharacterOffsetBegin
p586
V145
p587
sVPartOfSpeech
p588
VMD
p589
sVLemma
p590
Vwill
p591
saa(lp592
Vthey
p593
a(dp594
VNamedEntityTag
p595
g73
sVCharacterOffsetEnd
p596
V154
p597
sVCharacterOffsetBegin
p598
V150
p599
sVPartOfSpeech
p600
VPRP
p601
sVLemma
p602
Vthey
p603
saa(lp604
Vneed
p605
a(dp606
VNamedEntityTag
p607
g73
sVCharacterOffsetEnd
p608
V159
p609
sVCharacterOffsetBegin
p610
V155
p611
sVPartOfSpeech
p612
VVB
p613
sVLemma
p614
Vneed
p615
saa(lp616
V?
p617
a(dp618
VNamedEntityTag
p619
g73
sVCharacterOffsetEnd
p620
V161
p621
sVCharacterOffsetBegin
p622
V160
p623
sVPartOfSpeech
p624
g200
sVLemma
p625
g617
saasVindexeddependencies
p626
(lp627
(lp628
Vroot
p629
aVROOT-0
p630
aVneed-23
p631
aa(lp632
Vmark
p633
aVhold-5
p634
aVIf-1
p635
aa(lp636
Vdet
p637
aVvan-3
p638
aVeach-2
p639
aa(lp640
Vnsubj
p641
aVhold-5
p642
aVvan-3
p643
aa(lp644
Vaux
p645
aVhold-5
p646
aVcan-4
p647
aa(lp648
Vadvcl
p649
aVneed-23
p650
aVhold-5
p651
aa(lp652
Vnum
p653
aVpeople-7
p654
aV9-6
p655
aa(lp656
Vdobj
p657
aVhold-5
p658
aVpeople-7
p659
aa(lp660
Vexpl
p661
aVare-10
p662
aVthere-9
p663
aa(lp664
Vconj_and
p665
aVhold-5
p666
aVare-10
p667
aa(lp668
Vnum
p669
aVstudents-12
p670
aV40-11
p671
aa(lp672
Vnsubj
p673
aVare-10
p674
aVstudents-12
p675
aa(lp676
Vnum
p677
aVadults-15
p678
aV14-14
p679
aa(lp680
Vconj_and
p681
aVstudents-12
p682
aVadults-15
p683
aa(lp684
Vvmod
p685
aVadults-15
p686
aVgoing-16
p687
aa(lp688
Vadvmod
p689
aVmany-19
p690
aVhow-18
p691
aa(lp692
Vamod
p693
aVvans-20
p694
aVmany-19
p695
aa(lp696
Vdobj
p697
aVneed-23
p698
aVvans-20
p699
aa(lp700
Vaux
p701
aVneed-23
p702
aVwill-21
p703
aa(lp704
Vnsubj
p705
aVneed-23
p706
aVthey-22
p707
aasas.