(dp0
Vcoref
p1
(lp2
(lp3
(lp4
(lp5
Vher
p6
aI0
aI14
aI14
aI15
aa(lp7
VHalloween Emily
p8
aI0
aI2
aI1
aI3
aaa(lp9
(lp10
Vshe
p11
aI1
aI1
aI1
aI2
aa(lp12
VHalloween Emily
p13
aI0
aI2
aI1
aI3
aaa(lp14
(lp15
Vher
p16
aI1
aI15
aI15
aI16
aa(lp17
VHalloween Emily
p18
aI0
aI2
aI1
aI3
aaaasVsentences
p19
(lp20
(dp21
Vparsetree
p22
V(ROOT (S (IN For) (NP (NNP Halloween) (NNP Emily)) (VP (VBD received) (NP (NP (CD 5) (NNS pieces)) (PP (IN of) (NP (NN candy)))) (PP (IN from) (NP (NP (NNS neighbors)) (CC and) (NP (CD 13) (NNS pieces)))) (PP (IN from) (NP (PRP$ her) (JJR older) (NN sister)))) (. .)))
p23
sVtext
p24
VFor Halloween Emily received 5 pieces of candy from neighbors and 13 pieces from her older sister .
p25
sVdependencies
p26
(lp27
(lp28
Vroot
p29
aVROOT
p30
aVreceived
p31
aa(lp32
Vdep
p33
aVreceived
p34
aVFor
p35
aa(lp36
Vnn
p37
aVEmily
p38
aVHalloween
p39
aa(lp40
Vnsubj
p41
aVreceived
p42
aVEmily
p43
aa(lp44
Vnum
p45
aVpieces
p46
aV5
p47
aa(lp48
Vdobj
p49
aVreceived
p50
aVpieces
p51
aa(lp52
Vprep_of
p53
aVpieces
p54
aVcandy
p55
aa(lp56
Vprep_from
p57
aVreceived
p58
aVneighbors
p59
aa(lp60
Vnum
p61
aVpieces
p62
aV13
p63
aa(lp64
Vconj_and
p65
aVneighbors
p66
aVpieces
p67
aa(lp68
Vposs
p69
aVsister
p70
aVher
p71
aa(lp72
Vamod
p73
aVsister
p74
aVolder
p75
aa(lp76
Vprep_from
p77
aVreceived
p78
aVsister
p79
aasVwords
p80
(lp81
(lp82
VFor
p83
a(dp84
VNamedEntityTag
p85
VO
p86
sVCharacterOffsetEnd
p87
V4
p88
sVCharacterOffsetBegin
p89
V1
p90
sVPartOfSpeech
p91
VIN
p92
sVLemma
p93
Vfor
p94
saa(lp95
VHalloween
p96
a(dp97
VNormalizedNamedEntityTag
p98
VXXXX-10-31
p99
sVTimex
p100
V<TIMEX3 tid="t1" type="DATE" value="XXXX-10-31">Halloween</TIMEX3>
p101
sVLemma
p102
VHalloween
p103
sVCharacterOffsetEnd
p104
V14
p105
sVPartOfSpeech
p106
VNNP
p107
sVCharacterOffsetBegin
p108
g47
sVNamedEntityTag
p109
VDATE
p110
saa(lp111
VEmily
p112
a(dp113
VNamedEntityTag
p114
g86
sVCharacterOffsetEnd
p115
V20
p116
sVCharacterOffsetBegin
p117
V15
p118
sVPartOfSpeech
p119
VNNP
p120
sVLemma
p121
VEmily
p122
saa(lp123
Vreceived
p124
a(dp125
VNamedEntityTag
p126
g86
sVCharacterOffsetEnd
p127
V29
p128
sVCharacterOffsetBegin
p129
V21
p130
sVPartOfSpeech
p131
VVBD
p132
sVLemma
p133
Vreceive
p134
saa(lp135
g47
a(dp136
VNormalizedNamedEntityTag
p137
V5.0
p138
sVLemma
p139
g47
sVCharacterOffsetEnd
p140
V31
p141
sVPartOfSpeech
p142
VCD
p143
sVCharacterOffsetBegin
p144
V30
p145
sVNamedEntityTag
p146
VNUMBER
p147
saa(lp148
Vpieces
p149
a(dp150
VNamedEntityTag
p151
g86
sVCharacterOffsetEnd
p152
V38
p153
sVCharacterOffsetBegin
p154
V32
p155
sVPartOfSpeech
p156
VNNS
p157
sVLemma
p158
Vpiece
p159
saa(lp160
Vof
p161
a(dp162
VNamedEntityTag
p163
g86
sVCharacterOffsetEnd
p164
V41
p165
sVCharacterOffsetBegin
p166
V39
p167
sVPartOfSpeech
p168
VIN
p169
sVLemma
p170
Vof
p171
saa(lp172
Vcandy
p173
a(dp174
VNamedEntityTag
p175
g86
sVCharacterOffsetEnd
p176
V47
p177
sVCharacterOffsetBegin
p178
V42
p179
sVPartOfSpeech
p180
VNN
p181
sVLemma
p182
Vcandy
p183
saa(lp184
Vfrom
p185
a(dp186
VNamedEntityTag
p187
g86
sVCharacterOffsetEnd
p188
V52
p189
sVCharacterOffsetBegin
p190
V48
p191
sVPartOfSpeech
p192
VIN
p193
sVLemma
p194
Vfrom
p195
saa(lp196
Vneighbors
p197
a(dp198
VNamedEntityTag
p199
g86
sVCharacterOffsetEnd
p200
V62
p201
sVCharacterOffsetBegin
p202
V53
p203
sVPartOfSpeech
p204
VNNS
p205
sVLemma
p206
Vneighbor
p207
saa(lp208
Vand
p209
a(dp210
VNamedEntityTag
p211
g86
sVCharacterOffsetEnd
p212
V66
p213
sVCharacterOffsetBegin
p214
V63
p215
sVPartOfSpeech
p216
VCC
p217
sVLemma
p218
Vand
p219
saa(lp220
V13
p221
a(dp222
VNormalizedNamedEntityTag
p223
V13.0
p224
sVLemma
p225
V13
p226
sVCharacterOffsetEnd
p227
V69
p228
sVPartOfSpeech
p229
VCD
p230
sVCharacterOffsetBegin
p231
V67
p232
sVNamedEntityTag
p233
VNUMBER
p234
saa(lp235
Vpieces
p236
a(dp237
VNamedEntityTag
p238
g86
sVCharacterOffsetEnd
p239
V76
p240
sVCharacterOffsetBegin
p241
V70
p242
sVPartOfSpeech
p243
VNNS
p244
sVLemma
p245
Vpiece
p246
saa(lp247
Vfrom
p248
a(dp249
VNamedEntityTag
p250
g86
sVCharacterOffsetEnd
p251
V81
p252
sVCharacterOffsetBegin
p253
V77
p254
sVPartOfSpeech
p255
VIN
p256
sVLemma
p257
Vfrom
p258
saa(lp259
Vher
p260
a(dp261
VNamedEntityTag
p262
g86
sVCharacterOffsetEnd
p263
V85
p264
sVCharacterOffsetBegin
p265
V82
p266
sVPartOfSpeech
p267
VPRP$
p268
sVLemma
p269
Vshe
p270
saa(lp271
Volder
p272
a(dp273
VNamedEntityTag
p274
g86
sVCharacterOffsetEnd
p275
V91
p276
sVCharacterOffsetBegin
p277
V86
p278
sVPartOfSpeech
p279
VJJR
p280
sVLemma
p281
Volder
p282
saa(lp283
Vsister
p284
a(dp285
VNamedEntityTag
p286
g86
sVCharacterOffsetEnd
p287
V98
p288
sVCharacterOffsetBegin
p289
V92
p290
sVPartOfSpeech
p291
VNN
p292
sVLemma
p293
Vsister
p294
saa(lp295
V.
p296
a(dp297
VNamedEntityTag
p298
g86
sVCharacterOffsetEnd
p299
V100
p300
sVCharacterOffsetBegin
p301
V99
p302
sVPartOfSpeech
p303
g296
sVLemma
p304
g296
saasVindexeddependencies
p305
(lp306
(lp307
Vroot
p308
aVROOT-0
p309
aVreceived-4
p310
aa(lp311
Vdep
p312
aVreceived-4
p313
aVFor-1
p314
aa(lp315
Vnn
p316
aVEmily-3
p317
aVHalloween-2
p318
aa(lp319
Vnsubj
p320
aVreceived-4
p321
aVEmily-3
p322
aa(lp323
Vnum
p324
aVpieces-6
p325
aV5-5
p326
aa(lp327
Vdobj
p328
aVreceived-4
p329
aVpieces-6
p330
aa(lp331
Vprep_of
p332
aVpieces-6
p333
aVcandy-8
p334
aa(lp335
Vprep_from
p336
aVreceived-4
p337
aVneighbors-10
p338
aa(lp339
Vnum
p340
aVpieces-13
p341
aV13-12
p342
aa(lp343
Vconj_and
p344
aVneighbors-10
p345
aVpieces-13
p346
aa(lp347
Vposs
p348
aVsister-17
p349
aVher-15
p350
aa(lp351
Vamod
p352
aVsister-17
p353
aVolder-16
p354
aa(lp355
Vprep_from
p356
aVreceived-4
p357
aVsister-17
p358
aasa(dp359
Vparsetree
p360
V(ROOT (SBARQ (SBAR (IN If) (S (NP (PRP she)) (ADVP (RB only)) (VP (VBD ate) (NP (NP (CD 9) (NNS pieces)) (NP (DT a) (NN day)))))) (, ,) (WHADVP (WRB how) (RB long)) (SQ (VP (MD would)) (NP (DT the) (NN candy)) (ADVP (JJ last)) (NP (PRP$ her)) (. ?))))
p361
sVtext
p362
VIf she only ate 9 pieces a day , how long would the candy last her ?
p363
sVdependencies
p364
(lp365
(lp366
Vroot
p367
aVROOT
p368
aVwould
p369
aa(lp370
Vmark
p371
aVate
p372
aVIf
p373
aa(lp374
Vnsubj
p375
aVate
p376
aVshe
p377
aa(lp378
Vadvmod
p379
aVate
p380
aVonly
p381
aa(lp382
Vadvcl
p383
aVwould
p384
aVate
p385
aa(lp386
Vnum
p387
aVpieces
p388
aV9
p389
aa(lp390
Vdobj
p391
aVate
p392
aVpieces
p393
aa(lp394
Vdet
p395
aVday
p396
aVa
p397
aa(lp398
Vdep
p399
aVpieces
p400
aVday
p401
aa(lp402
Vadvmod
p403
aVlong
p404
aVhow
p405
aa(lp406
Vadvmod
p407
aVwould
p408
aVlong
p409
aa(lp410
Vdet
p411
aVcandy
p412
aVthe
p413
aa(lp414
Vdep
p415
aVwould
p416
aVcandy
p417
aa(lp418
Vadvmod
p419
aVwould
p420
aVlast
p421
aa(lp422
Vdep
p423
aVwould
p424
aVher
p425
aasVwords
p426
(lp427
(lp428
VIf
p429
a(dp430
VNamedEntityTag
p431
g86
sVCharacterOffsetEnd
p432
V103
p433
sVCharacterOffsetBegin
p434
V101
p435
sVPartOfSpeech
p436
VIN
p437
sVLemma
p438
Vif
p439
saa(lp440
Vshe
p441
a(dp442
VNamedEntityTag
p443
g86
sVCharacterOffsetEnd
p444
V107
p445
sVCharacterOffsetBegin
p446
V104
p447
sVPartOfSpeech
p448
VPRP
p449
sVLemma
p450
Vshe
p451
saa(lp452
Vonly
p453
a(dp454
VNamedEntityTag
p455
g86
sVCharacterOffsetEnd
p456
V112
p457
sVCharacterOffsetBegin
p458
V108
p459
sVPartOfSpeech
p460
VRB
p461
sVLemma
p462
Vonly
p463
saa(lp464
Vate
p465
a(dp466
VNamedEntityTag
p467
g86
sVCharacterOffsetEnd
p468
V116
p469
sVCharacterOffsetBegin
p470
V113
p471
sVPartOfSpeech
p472
VVBD
p473
sVLemma
p474
Veat
p475
saa(lp476
g389
a(dp477
VNormalizedNamedEntityTag
p478
V9.0
p479
sVLemma
p480
g389
sVCharacterOffsetEnd
p481
V118
p482
sVPartOfSpeech
p483
VCD
p484
sVCharacterOffsetBegin
p485
V117
p486
sVNamedEntityTag
p487
VNUMBER
p488
saa(lp489
Vpieces
p490
a(dp491
VNamedEntityTag
p492
g86
sVCharacterOffsetEnd
p493
V125
p494
sVCharacterOffsetBegin
p495
V119
p496
sVPartOfSpeech
p497
VNNS
p498
sVLemma
p499
Vpiece
p500
saa(lp501
g397
a(dp502
VNormalizedNamedEntityTag
p503
VP1D
p504
sVTimex
p505
V<TIMEX3 tid="t2" type="DURATION" value="P1D">a day</TIMEX3>
p506
sVLemma
p507
g397
sVCharacterOffsetEnd
p508
V127
p509
sVPartOfSpeech
p510
VDT
p511
sVCharacterOffsetBegin
p512
V126
p513
sVNamedEntityTag
p514
VDURATION
p515
saa(lp516
Vday
p517
a(dp518
VNormalizedNamedEntityTag
p519
VP1D
p520
sVTimex
p521
V<TIMEX3 tid="t2" type="DURATION" value="P1D">a day</TIMEX3>
p522
sVLemma
p523
Vday
p524
sVCharacterOffsetEnd
p525
V131
p526
sVPartOfSpeech
p527
VNN
p528
sVCharacterOffsetBegin
p529
V128
p530
sVNamedEntityTag
p531
VDURATION
p532
saa(lp533
V,
p534
a(dp535
VNamedEntityTag
p536
g86
sVCharacterOffsetEnd
p537
V133
p538
sVCharacterOffsetBegin
p539
V132
p540
sVPartOfSpeech
p541
g534
sVLemma
p542
g534
saa(lp543
Vhow
p544
a(dp545
VNamedEntityTag
p546
g86
sVCharacterOffsetEnd
p547
V137
p548
sVCharacterOffsetBegin
p549
V134
p550
sVPartOfSpeech
p551
VWRB
p552
sVLemma
p553
Vhow
p554
saa(lp555
Vlong
p556
a(dp557
VNamedEntityTag
p558
g86
sVCharacterOffsetEnd
p559
V142
p560
sVCharacterOffsetBegin
p561
V138
p562
sVPartOfSpeech
p563
VRB
p564
sVLemma
p565
Vlong
p566
saa(lp567
Vwould
p568
a(dp569
VNamedEntityTag
p570
g86
sVCharacterOffsetEnd
p571
V148
p572
sVCharacterOffsetBegin
p573
V143
p574
sVPartOfSpeech
p575
VMD
p576
sVLemma
p577
Vwould
p578
saa(lp579
Vthe
p580
a(dp581
VNamedEntityTag
p582
g86
sVCharacterOffsetEnd
p583
V152
p584
sVCharacterOffsetBegin
p585
V149
p586
sVPartOfSpeech
p587
VDT
p588
sVLemma
p589
Vthe
p590
saa(lp591
Vcandy
p592
a(dp593
VNamedEntityTag
p594
g86
sVCharacterOffsetEnd
p595
V158
p596
sVCharacterOffsetBegin
p597
V153
p598
sVPartOfSpeech
p599
VNN
p600
sVLemma
p601
Vcandy
p602
saa(lp603
Vlast
p604
a(dp605
VNamedEntityTag
p606
g86
sVCharacterOffsetEnd
p607
V163
p608
sVCharacterOffsetBegin
p609
V159
p610
sVPartOfSpeech
p611
VJJ
p612
sVLemma
p613
Vlast
p614
saa(lp615
Vher
p616
a(dp617
VNamedEntityTag
p618
g86
sVCharacterOffsetEnd
p619
V167
p620
sVCharacterOffsetBegin
p621
V164
p622
sVPartOfSpeech
p623
VPRP$
p624
sVLemma
p625
Vshe
p626
saa(lp627
V?
p628
a(dp629
VNamedEntityTag
p630
g86
sVCharacterOffsetEnd
p631
V169
p632
sVCharacterOffsetBegin
p633
V168
p634
sVPartOfSpeech
p635
g296
sVLemma
p636
g628
saasVindexeddependencies
p637
(lp638
(lp639
Vroot
p640
aVROOT-0
p641
aVwould-12
p642
aa(lp643
Vmark
p644
aVate-4
p645
aVIf-1
p646
aa(lp647
Vnsubj
p648
aVate-4
p649
aVshe-2
p650
aa(lp651
Vadvmod
p652
aVate-4
p653
aVonly-3
p654
aa(lp655
Vadvcl
p656
aVwould-12
p657
aVate-4
p658
aa(lp659
Vnum
p660
aVpieces-6
p661
aV9-5
p662
aa(lp663
Vdobj
p664
aVate-4
p665
aVpieces-6
p666
aa(lp667
Vdet
p668
aVday-8
p669
aVa-7
p670
aa(lp671
Vdep
p672
aVpieces-6
p673
aVday-8
p674
aa(lp675
Vadvmod
p676
aVlong-11
p677
aVhow-10
p678
aa(lp679
Vadvmod
p680
aVwould-12
p681
aVlong-11
p682
aa(lp683
Vdet
p684
aVcandy-14
p685
aVthe-13
p686
aa(lp687
Vdep
p688
aVwould-12
p689
aVcandy-14
p690
aa(lp691
Vadvmod
p692
aVwould-12
p693
aVlast-15
p694
aa(lp695
Vdep
p696
aVwould-12
p697
aVher-16
p698
aasas.