(dp0
Vcoref
p1
(lp2
(lp3
(lp4
(lp5
Vhe
p6
aI1
aI1
aI1
aI2
aa(lp7
VFrank
p8
aI0
aI0
aI0
aI1
aaa(lp9
(lp10
Vhim
p11
aI1
aI15
aI15
aI16
aa(lp12
VFrank
p13
aI0
aI0
aI0
aI1
aaaasVsentences
p14
(lp15
(dp16
Vparsetree
p17
V(ROOT (S (NP (NNP Frank)) (VP (VBD made) (NP (NP (CD 5) (NNS dollars)) (VP (VBG mowing) (NP (NP (NNS lawns)) (CC and) (NP (CD 58) (NNS dollars) (NN weed) (NN eating)))))) (. .)))
p18
sVtext
p19
VFrank made 5 dollars mowing lawns and 58 dollars weed eating .
p20
sVdependencies
p21
(lp22
(lp23
Vroot
p24
aVROOT
p25
aVmade
p26
aa(lp27
Vnsubj
p28
aVmade
p29
aVFrank
p30
aa(lp31
Vnum
p32
aVdollars
p33
aV5
p34
aa(lp35
Vdobj
p36
aVmade
p37
aVdollars
p38
aa(lp39
Vvmod
p40
aVdollars
p41
aVmowing
p42
aa(lp43
Vdobj
p44
aVmowing
p45
aVlawns
p46
aa(lp47
Vnum
p48
aVeating
p49
aV58
p50
aa(lp51
Vnn
p52
aVeating
p53
aVdollars
p54
aa(lp55
Vnn
p56
aVeating
p57
aVweed
p58
aa(lp59
Vconj_and
p60
aVlawns
p61
aVeating
p62
aasVwords
p63
(lp64
(lp65
VFrank
p66
a(dp67
VNamedEntityTag
p68
VPERSON
p69
sVCharacterOffsetEnd
p70
V6
p71
sVCharacterOffsetBegin
p72
V1
p73
sVPartOfSpeech
p74
VNNP
p75
sVLemma
p76
VFrank
p77
saa(lp78
Vmade
p79
a(dp80
VNamedEntityTag
p81
VO
p82
sVCharacterOffsetEnd
p83
V11
p84
sVCharacterOffsetBegin
p85
V7
p86
sVPartOfSpeech
p87
VVBD
p88
sVLemma
p89
Vmake
p90
saa(lp91
g34
a(dp92
VNormalizedNamedEntityTag
p93
V$5.0
p94
sVLemma
p95
g34
sVCharacterOffsetEnd
p96
V13
p97
sVPartOfSpeech
p98
VCD
p99
sVCharacterOffsetBegin
p100
V12
p101
sVNamedEntityTag
p102
VMONEY
p103
saa(lp104
Vdollars
p105
a(dp106
VNormalizedNamedEntityTag
p107
V$5.0
p108
sVLemma
p109
Vdollar
p110
sVCharacterOffsetEnd
p111
V21
p112
sVPartOfSpeech
p113
VNNS
p114
sVCharacterOffsetBegin
p115
V14
p116
sVNamedEntityTag
p117
VMONEY
p118
saa(lp119
Vmowing
p120
a(dp121
VNamedEntityTag
p122
g82
sVCharacterOffsetEnd
p123
V28
p124
sVCharacterOffsetBegin
p125
V22
p126
sVPartOfSpeech
p127
VVBG
p128
sVLemma
p129
Vmow
p130
saa(lp131
Vlawns
p132
a(dp133
VNamedEntityTag
p134
g82
sVCharacterOffsetEnd
p135
V34
p136
sVCharacterOffsetBegin
p137
V29
p138
sVPartOfSpeech
p139
VNNS
p140
sVLemma
p141
Vlawn
p142
saa(lp143
Vand
p144
a(dp145
VNamedEntityTag
p146
g82
sVCharacterOffsetEnd
p147
V38
p148
sVCharacterOffsetBegin
p149
V35
p150
sVPartOfSpeech
p151
VCC
p152
sVLemma
p153
Vand
p154
saa(lp155
V58
p156
a(dp157
VNormalizedNamedEntityTag
p158
V$58.0
p159
sVLemma
p160
V58
p161
sVCharacterOffsetEnd
p162
V41
p163
sVPartOfSpeech
p164
VCD
p165
sVCharacterOffsetBegin
p166
V39
p167
sVNamedEntityTag
p168
VMONEY
p169
saa(lp170
Vdollars
p171
a(dp172
VNormalizedNamedEntityTag
p173
V$58.0
p174
sVLemma
p175
Vdollar
p176
sVCharacterOffsetEnd
p177
V49
p178
sVPartOfSpeech
p179
VNNS
p180
sVCharacterOffsetBegin
p181
V42
p182
sVNamedEntityTag
p183
VMONEY
p184
saa(lp185
Vweed
p186
a(dp187
VNamedEntityTag
p188
g82
sVCharacterOffsetEnd
p189
V54
p190
sVCharacterOffsetBegin
p191
V50
p192
sVPartOfSpeech
p193
VNN
p194
sVLemma
p195
Vweed
p196
saa(lp197
Veating
p198
a(dp199
VNamedEntityTag
p200
g82
sVCharacterOffsetEnd
p201
V61
p202
sVCharacterOffsetBegin
p203
V55
p204
sVPartOfSpeech
p205
VNN
p206
sVLemma
p207
Veating
p208
saa(lp209
V.
p210
a(dp211
VNamedEntityTag
p212
g82
sVCharacterOffsetEnd
p213
V63
p214
sVCharacterOffsetBegin
p215
V62
p216
sVPartOfSpeech
p217
g210
sVLemma
p218
g210
saasVindexeddependencies
p219
(lp220
(lp221
Vroot
p222
aVROOT-0
p223
aVmade-2
p224
aa(lp225
Vnsubj
p226
aVmade-2
p227
aVFrank-1
p228
aa(lp229
Vnum
p230
aVdollars-4
p231
aV5-3
p232
aa(lp233
Vdobj
p234
aVmade-2
p235
aVdollars-4
p236
aa(lp237
Vvmod
p238
aVdollars-4
p239
aVmowing-5
p240
aa(lp241
Vdobj
p242
aVmowing-5
p243
aVlawns-6
p244
aa(lp245
Vnum
p246
aVeating-11
p247
aV58-8
p248
aa(lp249
Vnn
p250
aVeating-11
p251
aVdollars-9
p252
aa(lp253
Vnn
p254
aVeating-11
p255
aVweed-10
p256
aa(lp257
Vconj_and
p258
aVlawns-6
p259
aVeating-11
p260
aasa(dp261
Vparsetree
p262
V(ROOT (SBARQ (SBAR (IN If) (S (NP (PRP he)) (ADVP (RB only)) (VP (VBD spent) (NP (CD 7) (NN dollar)) (NP-TMP (DT a) (NN week))))) (, ,) (WHADVP (WRB how) (RB long)) (SQ (VP (MD would)) (NP (DT the) (NN money)) (ADVP (JJ last)) (NP (PRP him)) (. ?))))
p263
sVtext
p264
VIf he only spent 7 dollar a week , how long would the money last him ?
p265
sVdependencies
p266
(lp267
(lp268
Vroot
p269
aVROOT
p270
aVwould
p271
aa(lp272
Vmark
p273
aVspent
p274
aVIf
p275
aa(lp276
Vnsubj
p277
aVspent
p278
aVhe
p279
aa(lp280
Vadvmod
p281
aVspent
p282
aVonly
p283
aa(lp284
Vadvcl
p285
aVwould
p286
aVspent
p287
aa(lp288
Vnum
p289
aVdollar
p290
ag86
aa(lp291
Vdobj
p292
aVspent
p293
aVdollar
p294
aa(lp295
Vdet
p296
aVweek
p297
aVa
p298
aa(lp299
Vtmod
p300
aVspent
p301
aVweek
p302
aa(lp303
Vadvmod
p304
aVlong
p305
aVhow
p306
aa(lp307
Vadvmod
p308
aVwould
p309
aVlong
p310
aa(lp311
Vdet
p312
aVmoney
p313
aVthe
p314
aa(lp315
Vdep
p316
aVwould
p317
aVmoney
p318
aa(lp319
Vadvmod
p320
aVwould
p321
aVlast
p322
aa(lp323
Vdep
p324
aVwould
p325
aVhim
p326
aasVwords
p327
(lp328
(lp329
VIf
p330
a(dp331
VNamedEntityTag
p332
g82
sVCharacterOffsetEnd
p333
V66
p334
sVCharacterOffsetBegin
p335
V64
p336
sVPartOfSpeech
p337
VIN
p338
sVLemma
p339
Vif
p340
saa(lp341
Vhe
p342
a(dp343
VNamedEntityTag
p344
g82
sVCharacterOffsetEnd
p345
V69
p346
sVCharacterOffsetBegin
p347
V67
p348
sVPartOfSpeech
p349
VPRP
p350
sVLemma
p351
Vhe
p352
saa(lp353
Vonly
p354
a(dp355
VNamedEntityTag
p356
g82
sVCharacterOffsetEnd
p357
V74
p358
sVCharacterOffsetBegin
p359
V70
p360
sVPartOfSpeech
p361
VRB
p362
sVLemma
p363
Vonly
p364
saa(lp365
Vspent
p366
a(dp367
VNamedEntityTag
p368
g82
sVCharacterOffsetEnd
p369
V80
p370
sVCharacterOffsetBegin
p371
V75
p372
sVPartOfSpeech
p373
VVBD
p374
sVLemma
p375
Vspend
p376
saa(lp377
g86
a(dp378
VNormalizedNamedEntityTag
p379
V$7.0
p380
sVLemma
p381
g86
sVCharacterOffsetEnd
p382
V82
p383
sVPartOfSpeech
p384
VCD
p385
sVCharacterOffsetBegin
p386
V81
p387
sVNamedEntityTag
p388
VMONEY
p389
saa(lp390
Vdollar
p391
a(dp392
VNormalizedNamedEntityTag
p393
V$7.0
p394
sVLemma
p395
Vdollar
p396
sVCharacterOffsetEnd
p397
V89
p398
sVPartOfSpeech
p399
VNN
p400
sVCharacterOffsetBegin
p401
V83
p402
sVNamedEntityTag
p403
VMONEY
p404
saa(lp405
g298
a(dp406
VNormalizedNamedEntityTag
p407
VP1W
p408
sVTimex
p409
V<TIMEX3 tid="t1" type="DURATION" value="P1W">a week</TIMEX3>
p410
sVLemma
p411
g298
sVCharacterOffsetEnd
p412
V91
p413
sVPartOfSpeech
p414
VDT
p415
sVCharacterOffsetBegin
p416
V90
p417
sVNamedEntityTag
p418
VDURATION
p419
saa(lp420
Vweek
p421
a(dp422
VNormalizedNamedEntityTag
p423
VP1W
p424
sVTimex
p425
V<TIMEX3 tid="t1" type="DURATION" value="P1W">a week</TIMEX3>
p426
sVLemma
p427
Vweek
p428
sVCharacterOffsetEnd
p429
V96
p430
sVPartOfSpeech
p431
VNN
p432
sVCharacterOffsetBegin
p433
V92
p434
sVNamedEntityTag
p435
VDURATION
p436
saa(lp437
V,
p438
a(dp439
VNamedEntityTag
p440
g82
sVCharacterOffsetEnd
p441
V98
p442
sVCharacterOffsetBegin
p443
V97
p444
sVPartOfSpeech
p445
g438
sVLemma
p446
g438
saa(lp447
Vhow
p448
a(dp449
VNamedEntityTag
p450
g82
sVCharacterOffsetEnd
p451
V102
p452
sVCharacterOffsetBegin
p453
V99
p454
sVPartOfSpeech
p455
VWRB
p456
sVLemma
p457
Vhow
p458
saa(lp459
Vlong
p460
a(dp461
VNamedEntityTag
p462
g82
sVCharacterOffsetEnd
p463
V107
p464
sVCharacterOffsetBegin
p465
V103
p466
sVPartOfSpeech
p467
VRB
p468
sVLemma
p469
Vlong
p470
saa(lp471
Vwould
p472
a(dp473
VNamedEntityTag
p474
g82
sVCharacterOffsetEnd
p475
V113
p476
sVCharacterOffsetBegin
p477
V108
p478
sVPartOfSpeech
p479
VMD
p480
sVLemma
p481
Vwould
p482
saa(lp483
Vthe
p484
a(dp485
VNamedEntityTag
p486
g82
sVCharacterOffsetEnd
p487
V117
p488
sVCharacterOffsetBegin
p489
V114
p490
sVPartOfSpeech
p491
VDT
p492
sVLemma
p493
Vthe
p494
saa(lp495
Vmoney
p496
a(dp497
VNamedEntityTag
p498
g82
sVCharacterOffsetEnd
p499
V123
p500
sVCharacterOffsetBegin
p501
V118
p502
sVPartOfSpeech
p503
VNN
p504
sVLemma
p505
Vmoney
p506
saa(lp507
Vlast
p508
a(dp509
VNamedEntityTag
p510
g82
sVCharacterOffsetEnd
p511
V128
p512
sVCharacterOffsetBegin
p513
V124
p514
sVPartOfSpeech
p515
VJJ
p516
sVLemma
p517
Vlast
p518
saa(lp519
Vhim
p520
a(dp521
VNamedEntityTag
p522
g82
sVCharacterOffsetEnd
p523
V132
p524
sVCharacterOffsetBegin
p525
V129
p526
sVPartOfSpeech
p527
VPRP
p528
sVLemma
p529
Vhe
p530
saa(lp531
V?
p532
a(dp533
VNamedEntityTag
p534
g82
sVCharacterOffsetEnd
p535
V134
p536
sVCharacterOffsetBegin
p537
V133
p538
sVPartOfSpeech
p539
g210
sVLemma
p540
g532
saasVindexeddependencies
p541
(lp542
(lp543
Vroot
p544
aVROOT-0
p545
aVwould-12
p546
aa(lp547
Vmark
p548
aVspent-4
p549
aVIf-1
p550
aa(lp551
Vnsubj
p552
aVspent-4
p553
aVhe-2
p554
aa(lp555
Vadvmod
p556
aVspent-4
p557
aVonly-3
p558
aa(lp559
Vadvcl
p560
aVwould-12
p561
aVspent-4
p562
aa(lp563
Vnum
p564
aVdollar-6
p565
aV7-5
p566
aa(lp567
Vdobj
p568
aVspent-4
p569
aVdollar-6
p570
aa(lp571
Vdet
p572
aVweek-8
p573
aVa-7
p574
aa(lp575
Vtmod
p576
aVspent-4
p577
aVweek-8
p578
aa(lp579
Vadvmod
p580
aVlong-11
p581
aVhow-10
p582
aa(lp583
Vadvmod
p584
aVwould-12
p585
aVlong-11
p586
aa(lp587
Vdet
p588
aVmoney-14
p589
aVthe-13
p590
aa(lp591
Vdep
p592
aVwould-12
p593
aVmoney-14
p594
aa(lp595
Vadvmod
p596
aVwould-12
p597
aVlast-15
p598
aa(lp599
Vdep
p600
aVwould-12
p601
aVhim-16
p602
aasas.