(dp0
Vcoref
p1
(lp2
(lp3
(lp4
(lp5
Vshe
p6
aI1
aI1
aI1
aI2
aa(lp7
VLana
p8
aI0
aI0
aI0
aI1
aaa(lp9
(lp10
VLana
p11
aI1
aI15
aI15
aI16
aa(lp12
VLana
p13
aI0
aI0
aI0
aI1
aaaasVsentences
p14
(lp15
(dp16
Vparsetree
p17
V(ROOT (S (NP (NNP Lana)) (VP (VBD picked) (S (NP (NP (CD 36) (NNS tulips)) (CC and) (NP (CD 37) (NNS roses))) (VP (TO to) (VP (VB make) (NP (NN flower) (NNS bouquets)))))) (. .)))
p18
sVtext
p19
VLana picked 36 tulips and 37 roses to make flower bouquets .
p20
sVdependencies
p21
(lp22
(lp23
Vroot
p24
aVROOT
p25
aVpicked
p26
aa(lp27
Vnsubj
p28
aVpicked
p29
aVLana
p30
aa(lp31
Vnum
p32
aVtulips
p33
aV36
p34
aa(lp35
Vdobj
p36
aVpicked
p37
aVtulips
p38
aa(lp39
Vnum
p40
aVroses
p41
aV37
p42
aa(lp43
Vconj_and
p44
aVtulips
p45
aVroses
p46
aa(lp47
Vaux
p48
aVmake
p49
aVto
p50
aa(lp51
Vxcomp
p52
aVpicked
p53
aVmake
p54
aa(lp55
Vnn
p56
aVbouquets
p57
aVflower
p58
aa(lp59
Vdobj
p60
aVmake
p61
aVbouquets
p62
aasVwords
p63
(lp64
(lp65
VLana
p66
a(dp67
VNamedEntityTag
p68
VPERSON
p69
sVCharacterOffsetEnd
p70
V5
p71
sVCharacterOffsetBegin
p72
V1
p73
sVPartOfSpeech
p74
VNNP
p75
sVLemma
p76
VLana
p77
saa(lp78
Vpicked
p79
a(dp80
VNamedEntityTag
p81
VO
p82
sVCharacterOffsetEnd
p83
V12
p84
sVCharacterOffsetBegin
p85
V6
p86
sVPartOfSpeech
p87
VVBD
p88
sVLemma
p89
Vpick
p90
saa(lp91
V36
p92
a(dp93
VNormalizedNamedEntityTag
p94
V36.0
p95
sVLemma
p96
V36
p97
sVCharacterOffsetEnd
p98
V15
p99
sVPartOfSpeech
p100
VCD
p101
sVCharacterOffsetBegin
p102
V13
p103
sVNamedEntityTag
p104
VNUMBER
p105
saa(lp106
Vtulips
p107
a(dp108
VNamedEntityTag
p109
g82
sVCharacterOffsetEnd
p110
V22
p111
sVCharacterOffsetBegin
p112
V16
p113
sVPartOfSpeech
p114
VNNS
p115
sVLemma
p116
Vtulip
p117
saa(lp118
Vand
p119
a(dp120
VNamedEntityTag
p121
g82
sVCharacterOffsetEnd
p122
V26
p123
sVCharacterOffsetBegin
p124
V23
p125
sVPartOfSpeech
p126
VCC
p127
sVLemma
p128
Vand
p129
saa(lp130
V37
p131
a(dp132
VNormalizedNamedEntityTag
p133
V37.0
p134
sVLemma
p135
V37
p136
sVCharacterOffsetEnd
p137
V29
p138
sVPartOfSpeech
p139
VCD
p140
sVCharacterOffsetBegin
p141
V27
p142
sVNamedEntityTag
p143
VNUMBER
p144
saa(lp145
Vroses
p146
a(dp147
VNamedEntityTag
p148
g82
sVCharacterOffsetEnd
p149
V35
p150
sVCharacterOffsetBegin
p151
V30
p152
sVPartOfSpeech
p153
VNNS
p154
sVLemma
p155
Vrose
p156
saa(lp157
Vto
p158
a(dp159
VNamedEntityTag
p160
g82
sVCharacterOffsetEnd
p161
V38
p162
sVCharacterOffsetBegin
p163
V36
p164
sVPartOfSpeech
p165
VTO
p166
sVLemma
p167
Vto
p168
saa(lp169
Vmake
p170
a(dp171
VNamedEntityTag
p172
g82
sVCharacterOffsetEnd
p173
V43
p174
sVCharacterOffsetBegin
p175
V39
p176
sVPartOfSpeech
p177
VVB
p178
sVLemma
p179
Vmake
p180
saa(lp181
Vflower
p182
a(dp183
VNamedEntityTag
p184
g82
sVCharacterOffsetEnd
p185
V50
p186
sVCharacterOffsetBegin
p187
V44
p188
sVPartOfSpeech
p189
VNN
p190
sVLemma
p191
Vflower
p192
saa(lp193
Vbouquets
p194
a(dp195
VNamedEntityTag
p196
g82
sVCharacterOffsetEnd
p197
V59
p198
sVCharacterOffsetBegin
p199
V51
p200
sVPartOfSpeech
p201
VNNS
p202
sVLemma
p203
Vbouquet
p204
saa(lp205
V.
p206
a(dp207
VNamedEntityTag
p208
g82
sVCharacterOffsetEnd
p209
V61
p210
sVCharacterOffsetBegin
p211
V60
p212
sVPartOfSpeech
p213
g206
sVLemma
p214
g206
saasVindexeddependencies
p215
(lp216
(lp217
Vroot
p218
aVROOT-0
p219
aVpicked-2
p220
aa(lp221
Vnsubj
p222
aVpicked-2
p223
aVLana-1
p224
aa(lp225
Vnum
p226
aVtulips-4
p227
aV36-3
p228
aa(lp229
Vdobj
p230
aVpicked-2
p231
aVtulips-4
p232
aa(lp233
Vnum
p234
aVroses-7
p235
aV37-6
p236
aa(lp237
Vconj_and
p238
aVtulips-4
p239
aVroses-7
p240
aa(lp241
Vaux
p242
aVmake-9
p243
aVto-8
p244
aa(lp245
Vxcomp
p246
aVpicked-2
p247
aVmake-9
p248
aa(lp249
Vnn
p250
aVbouquets-11
p251
aVflower-10
p252
aa(lp253
Vdobj
p254
aVmake-9
p255
aVbouquets-11
p256
aasa(dp257
Vparsetree
p258
V(ROOT (SBARQ (SBAR (IN If) (S (NP (PRP she)) (ADVP (RB only)) (VP (VBD used) (NP (NP (CD 70)) (PP (IN of) (NP (DT the) (NNS flowers)))) (ADVP (IN though))))) (, ,) (WHNP (WHADJP (WRB how) (JJ many)) (ADJP (JJ extra)) (NNS flowers)) (SQ (VBD did) (NP (NNP Lana)) (VP (VB pick))) (. ?)))
p259
sVtext
p260
VIf she only used 70 of the flowers though , how many extra flowers did Lana pick ?
p261
sVdependencies
p262
(lp263
(lp264
Vroot
p265
aVROOT
p266
aVpick
p267
aa(lp268
Vmark
p269
aVused
p270
aVIf
p271
aa(lp272
Vnsubj
p273
aVused
p274
aVshe
p275
aa(lp276
Vadvmod
p277
aVused
p278
aVonly
p279
aa(lp280
Vadvcl
p281
aVpick
p282
aVused
p283
aa(lp284
Vdobj
p285
aVused
p286
aV70
p287
aa(lp288
Vdet
p289
aVflowers
p290
aVthe
p291
aa(lp292
Vprep_of
p293
aV70
p294
aVflowers
p295
aa(lp296
Vadvmod
p297
aVused
p298
aVthough
p299
aa(lp300
Vadvmod
p301
aVmany
p302
aVhow
p303
aa(lp304
Vamod
p305
aVflowers
p306
aVmany
p307
aa(lp308
Vamod
p309
aVflowers
p310
aVextra
p311
aa(lp312
Vdobj
p313
aVpick
p314
aVflowers
p315
aa(lp316
Vaux
p317
aVpick
p318
aVdid
p319
aa(lp320
Vnsubj
p321
aVpick
p322
aVLana
p323
aasVwords
p324
(lp325
(lp326
VIf
p327
a(dp328
VNamedEntityTag
p329
g82
sVCharacterOffsetEnd
p330
V64
p331
sVCharacterOffsetBegin
p332
V62
p333
sVPartOfSpeech
p334
VIN
p335
sVLemma
p336
Vif
p337
saa(lp338
Vshe
p339
a(dp340
VNamedEntityTag
p341
g82
sVCharacterOffsetEnd
p342
V68
p343
sVCharacterOffsetBegin
p344
V65
p345
sVPartOfSpeech
p346
VPRP
p347
sVLemma
p348
Vshe
p349
saa(lp350
Vonly
p351
a(dp352
VNamedEntityTag
p353
g82
sVCharacterOffsetEnd
p354
V73
p355
sVCharacterOffsetBegin
p356
V69
p357
sVPartOfSpeech
p358
VRB
p359
sVLemma
p360
Vonly
p361
saa(lp362
Vused
p363
a(dp364
VNamedEntityTag
p365
g82
sVCharacterOffsetEnd
p366
V78
p367
sVCharacterOffsetBegin
p368
V74
p369
sVPartOfSpeech
p370
VVBD
p371
sVLemma
p372
Vuse
p373
saa(lp374
V70
p375
a(dp376
VNormalizedNamedEntityTag
p377
V70.0
p378
sVLemma
p379
V70
p380
sVCharacterOffsetEnd
p381
V81
p382
sVPartOfSpeech
p383
VCD
p384
sVCharacterOffsetBegin
p385
V79
p386
sVNamedEntityTag
p387
VNUMBER
p388
saa(lp389
Vof
p390
a(dp391
VNamedEntityTag
p392
g82
sVCharacterOffsetEnd
p393
V84
p394
sVCharacterOffsetBegin
p395
V82
p396
sVPartOfSpeech
p397
VIN
p398
sVLemma
p399
Vof
p400
saa(lp401
Vthe
p402
a(dp403
VNamedEntityTag
p404
g82
sVCharacterOffsetEnd
p405
V88
p406
sVCharacterOffsetBegin
p407
V85
p408
sVPartOfSpeech
p409
VDT
p410
sVLemma
p411
Vthe
p412
saa(lp413
Vflowers
p414
a(dp415
VNamedEntityTag
p416
g82
sVCharacterOffsetEnd
p417
V96
p418
sVCharacterOffsetBegin
p419
V89
p420
sVPartOfSpeech
p421
VNNS
p422
sVLemma
p423
Vflower
p424
saa(lp425
Vthough
p426
a(dp427
VNamedEntityTag
p428
g82
sVCharacterOffsetEnd
p429
V103
p430
sVCharacterOffsetBegin
p431
V97
p432
sVPartOfSpeech
p433
VIN
p434
sVLemma
p435
Vthough
p436
saa(lp437
V,
p438
a(dp439
VNamedEntityTag
p440
g82
sVCharacterOffsetEnd
p441
V105
p442
sVCharacterOffsetBegin
p443
V104
p444
sVPartOfSpeech
p445
g438
sVLemma
p446
g438
saa(lp447
Vhow
p448
a(dp449
VNamedEntityTag
p450
g82
sVCharacterOffsetEnd
p451
V109
p452
sVCharacterOffsetBegin
p453
V106
p454
sVPartOfSpeech
p455
VWRB
p456
sVLemma
p457
Vhow
p458
saa(lp459
Vmany
p460
a(dp461
VNamedEntityTag
p462
g82
sVCharacterOffsetEnd
p463
V114
p464
sVCharacterOffsetBegin
p465
V110
p466
sVPartOfSpeech
p467
VJJ
p468
sVLemma
p469
Vmany
p470
saa(lp471
Vextra
p472
a(dp473
VNamedEntityTag
p474
g82
sVCharacterOffsetEnd
p475
V120
p476
sVCharacterOffsetBegin
p477
V115
p478
sVPartOfSpeech
p479
VJJ
p480
sVLemma
p481
Vextra
p482
saa(lp483
Vflowers
p484
a(dp485
VNamedEntityTag
p486
g82
sVCharacterOffsetEnd
p487
V128
p488
sVCharacterOffsetBegin
p489
V121
p490
sVPartOfSpeech
p491
VNNS
p492
sVLemma
p493
Vflower
p494
saa(lp495
Vdid
p496
a(dp497
VNamedEntityTag
p498
g82
sVCharacterOffsetEnd
p499
V132
p500
sVCharacterOffsetBegin
p501
V129
p502
sVPartOfSpeech
p503
VVBD
p504
sVLemma
p505
Vdo
p506
saa(lp507
VLana
p508
a(dp509
VNamedEntityTag
p510
VPERSON
p511
sVCharacterOffsetEnd
p512
V137
p513
sVCharacterOffsetBegin
p514
V133
p515
sVPartOfSpeech
p516
VNNP
p517
sVLemma
p518
VLana
p519
saa(lp520
Vpick
p521
a(dp522
VNamedEntityTag
p523
g82
sVCharacterOffsetEnd
p524
V142
p525
sVCharacterOffsetBegin
p526
V138
p527
sVPartOfSpeech
p528
VVB
p529
sVLemma
p530
Vpick
p531
saa(lp532
V?
p533
a(dp534
VNamedEntityTag
p535
g82
sVCharacterOffsetEnd
p536
V144
p537
sVCharacterOffsetBegin
p538
V143
p539
sVPartOfSpeech
p540
g206
sVLemma
p541
g533
saasVindexeddependencies
p542
(lp543
(lp544
Vroot
p545
aVROOT-0
p546
aVpick-17
p547
aa(lp548
Vmark
p549
aVused-4
p550
aVIf-1
p551
aa(lp552
Vnsubj
p553
aVused-4
p554
aVshe-2
p555
aa(lp556
Vadvmod
p557
aVused-4
p558
aVonly-3
p559
aa(lp560
Vadvcl
p561
aVpick-17
p562
aVused-4
p563
aa(lp564
Vdobj
p565
aVused-4
p566
aV70-5
p567
aa(lp568
Vdet
p569
aVflowers-8
p570
aVthe-7
p571
aa(lp572
Vprep_of
p573
aV70-5
p574
aVflowers-8
p575
aa(lp576
Vadvmod
p577
aVused-4
p578
aVthough-9
p579
aa(lp580
Vadvmod
p581
aVmany-12
p582
aVhow-11
p583
aa(lp584
Vamod
p585
aVflowers-14
p586
aVmany-12
p587
aa(lp588
Vamod
p589
aVflowers-14
p590
aVextra-13
p591
aa(lp592
Vdobj
p593
aVpick-17
p594
aVflowers-14
p595
aa(lp596
Vaux
p597
aVpick-17
p598
aVdid-15
p599
aa(lp600
Vnsubj
p601
aVpick-17
p602
aVLana-16
p603
aasas.