(dp0
Vcoref
p1
(lp2
(lp3
(lp4
(lp5
VShe
p6
aI1
aI0
aI0
aI1
aa(lp7
VCarmen
p8
aI0
aI0
aI0
aI1
aaaa(lp9
(lp10
(lp11
V40
p12
aI1
aI6
aI6
aI7
aa(lp13
V40
p14
aI1
aI2
aI2
aI3
aaaa(lp15
(lp16
(lp17
Vthe pins
p18
aI2
aI4
aI3
aI5
aa(lp19
V40 yellow pins
p20
aI1
aI4
aI2
aI5
aaaasVsentences
p21
(lp22
(dp23
Vparsetree
p24
V(ROOT (S (NP (NNP Carmen)) (VP (VBD ordered) (NP (NP (DT a) (NN set)) (PP (IN of) (NP (JJ yellow) (CC and) (JJ blue) (NNS pins))))) (. .)))
p25
sVtext
p26
VCarmen ordered a set of yellow and blue pins .
p27
sVdependencies
p28
(lp29
(lp30
Vroot
p31
aVROOT
p32
aVordered
p33
aa(lp34
Vnsubj
p35
aVordered
p36
aVCarmen
p37
aa(lp38
Vdet
p39
aVset
p40
aVa
p41
aa(lp42
Vdobj
p43
aVordered
p44
aVset
p45
aa(lp46
Vamod
p47
aVpins
p48
aVyellow
p49
aa(lp50
Vconj_and
p51
aVyellow
p52
aVblue
p53
aa(lp54
Vprep_of
p55
aVset
p56
aVpins
p57
aasVwords
p58
(lp59
(lp60
VCarmen
p61
a(dp62
VNamedEntityTag
p63
VPERSON
p64
sVCharacterOffsetEnd
p65
V7
p66
sVCharacterOffsetBegin
p67
V1
p68
sVPartOfSpeech
p69
VNNP
p70
sVLemma
p71
VCarmen
p72
saa(lp73
Vordered
p74
a(dp75
VNamedEntityTag
p76
VO
p77
sVCharacterOffsetEnd
p78
V15
p79
sVCharacterOffsetBegin
p80
V8
p81
sVPartOfSpeech
p82
VVBD
p83
sVLemma
p84
Vorder
p85
saa(lp86
g41
a(dp87
VNamedEntityTag
p88
g77
sVCharacterOffsetEnd
p89
V17
p90
sVCharacterOffsetBegin
p91
V16
p92
sVPartOfSpeech
p93
VDT
p94
sVLemma
p95
g41
saa(lp96
Vset
p97
a(dp98
VNamedEntityTag
p99
g77
sVCharacterOffsetEnd
p100
V21
p101
sVCharacterOffsetBegin
p102
V18
p103
sVPartOfSpeech
p104
VNN
p105
sVLemma
p106
Vset
p107
saa(lp108
Vof
p109
a(dp110
VNamedEntityTag
p111
g77
sVCharacterOffsetEnd
p112
V24
p113
sVCharacterOffsetBegin
p114
V22
p115
sVPartOfSpeech
p116
VIN
p117
sVLemma
p118
Vof
p119
saa(lp120
Vyellow
p121
a(dp122
VNamedEntityTag
p123
g77
sVCharacterOffsetEnd
p124
V31
p125
sVCharacterOffsetBegin
p126
V25
p127
sVPartOfSpeech
p128
VJJ
p129
sVLemma
p130
Vyellow
p131
saa(lp132
Vand
p133
a(dp134
VNamedEntityTag
p135
g77
sVCharacterOffsetEnd
p136
V35
p137
sVCharacterOffsetBegin
p138
V32
p139
sVPartOfSpeech
p140
VCC
p141
sVLemma
p142
Vand
p143
saa(lp144
Vblue
p145
a(dp146
VNamedEntityTag
p147
g77
sVCharacterOffsetEnd
p148
V40
p149
sVCharacterOffsetBegin
p150
V36
p151
sVPartOfSpeech
p152
VJJ
p153
sVLemma
p154
Vblue
p155
saa(lp156
Vpins
p157
a(dp158
VNamedEntityTag
p159
g77
sVCharacterOffsetEnd
p160
V45
p161
sVCharacterOffsetBegin
p162
V41
p163
sVPartOfSpeech
p164
VNNS
p165
sVLemma
p166
Vpin
p167
saa(lp168
V.
p169
a(dp170
VNamedEntityTag
p171
g77
sVCharacterOffsetEnd
p172
V47
p173
sVCharacterOffsetBegin
p174
V46
p175
sVPartOfSpeech
p176
g169
sVLemma
p177
g169
saasVindexeddependencies
p178
(lp179
(lp180
Vroot
p181
aVROOT-0
p182
aVordered-2
p183
aa(lp184
Vnsubj
p185
aVordered-2
p186
aVCarmen-1
p187
aa(lp188
Vdet
p189
aVset-4
p190
aVa-3
p191
aa(lp192
Vdobj
p193
aVordered-2
p194
aVset-4
p195
aa(lp196
Vamod
p197
aVpins-9
p198
aVyellow-6
p199
aa(lp200
Vconj_and
p201
aVyellow-6
p202
aVblue-8
p203
aa(lp204
Vprep_of
p205
aVset-4
p206
aVpins-9
p207
aasa(dp208
Vparsetree
p209
V(ROOT (S (NP (PRP She)) (VP (VBD received) (NP (NP (CD 40) (JJ yellow) (NNS pins)) (CC and) (NP (CD 40) (JJ blue) (NNS pins)))) (. .)))
p210
sVtext
p211
VShe received 40 yellow pins and 40 blue pins .
p212
sVdependencies
p213
(lp214
(lp215
Vroot
p216
aVROOT
p217
aVreceived
p218
aa(lp219
Vnsubj
p220
aVreceived
p221
aVShe
p222
aa(lp223
Vnum
p224
aVpins
p225
aV40
p226
aa(lp227
Vamod
p228
aVpins
p229
aVyellow
p230
aa(lp231
Vdobj
p232
aVreceived
p233
aVpins
p234
aa(lp235
Vnum
p236
aVpins
p237
aV40
p238
aa(lp239
Vamod
p240
aVpins
p241
aVblue
p242
aa(lp243
Vconj_and
p244
aVpins
p245
aVpins
p246
aasVwords
p247
(lp248
(lp249
VShe
p250
a(dp251
VNamedEntityTag
p252
g77
sVCharacterOffsetEnd
p253
V51
p254
sVCharacterOffsetBegin
p255
V48
p256
sVPartOfSpeech
p257
VPRP
p258
sVLemma
p259
Vshe
p260
saa(lp261
Vreceived
p262
a(dp263
VNamedEntityTag
p264
g77
sVCharacterOffsetEnd
p265
V60
p266
sVCharacterOffsetBegin
p267
V52
p268
sVPartOfSpeech
p269
VVBD
p270
sVLemma
p271
Vreceive
p272
saa(lp273
V40
p274
a(dp275
VNormalizedNamedEntityTag
p276
V40.0
p277
sVLemma
p278
V40
p279
sVCharacterOffsetEnd
p280
V63
p281
sVPartOfSpeech
p282
VCD
p283
sVCharacterOffsetBegin
p284
V61
p285
sVNamedEntityTag
p286
VNUMBER
p287
saa(lp288
Vyellow
p289
a(dp290
VNamedEntityTag
p291
g77
sVCharacterOffsetEnd
p292
V70
p293
sVCharacterOffsetBegin
p294
V64
p295
sVPartOfSpeech
p296
VJJ
p297
sVLemma
p298
Vyellow
p299
saa(lp300
Vpins
p301
a(dp302
VNamedEntityTag
p303
g77
sVCharacterOffsetEnd
p304
V75
p305
sVCharacterOffsetBegin
p306
V71
p307
sVPartOfSpeech
p308
VNNS
p309
sVLemma
p310
Vpin
p311
saa(lp312
Vand
p313
a(dp314
VNamedEntityTag
p315
g77
sVCharacterOffsetEnd
p316
V79
p317
sVCharacterOffsetBegin
p318
V76
p319
sVPartOfSpeech
p320
VCC
p321
sVLemma
p322
Vand
p323
saa(lp324
V40
p325
a(dp326
VNormalizedNamedEntityTag
p327
V40.0
p328
sVLemma
p329
V40
p330
sVCharacterOffsetEnd
p331
V82
p332
sVPartOfSpeech
p333
VCD
p334
sVCharacterOffsetBegin
p335
V80
p336
sVNamedEntityTag
p337
VNUMBER
p338
saa(lp339
Vblue
p340
a(dp341
VNamedEntityTag
p342
g77
sVCharacterOffsetEnd
p343
V87
p344
sVCharacterOffsetBegin
p345
V83
p346
sVPartOfSpeech
p347
VJJ
p348
sVLemma
p349
Vblue
p350
saa(lp351
Vpins
p352
a(dp353
VNamedEntityTag
p354
g77
sVCharacterOffsetEnd
p355
V92
p356
sVCharacterOffsetBegin
p357
V88
p358
sVPartOfSpeech
p359
VNNS
p360
sVLemma
p361
Vpin
p362
saa(lp363
g169
a(dp364
VNamedEntityTag
p365
g77
sVCharacterOffsetEnd
p366
V94
p367
sVCharacterOffsetBegin
p368
V93
p369
sVPartOfSpeech
p370
g169
sVLemma
p371
g169
saasVindexeddependencies
p372
(lp373
(lp374
Vroot
p375
aVROOT-0
p376
aVreceived-2
p377
aa(lp378
Vnsubj
p379
aVreceived-2
p380
aVShe-1
p381
aa(lp382
Vnum
p383
aVpins-5
p384
aV40-3
p385
aa(lp386
Vamod
p387
aVpins-5
p388
aVyellow-4
p389
aa(lp390
Vdobj
p391
aVreceived-2
p392
aVpins-5
p393
aa(lp394
Vnum
p395
aVpins-9
p396
aV40-7
p397
aa(lp398
Vamod
p399
aVpins-9
p400
aVblue-8
p401
aa(lp402
Vconj_and
p403
aVpins-5
p404
aVpins-9
p405
aasa(dp406
Vparsetree
p407
V(ROOT (SBARQ (WHNP (WHNP (WDT What) (NN percentage)) (PP (IN of) (NP (DT the) (NNS pins)))) (SQ (VP (VBD were) (ADJP (JJ yellow)))) (. ?)))
p408
sVtext
p409
VWhat percentage of the pins were yellow ?
p410
sVdependencies
p411
(lp412
(lp413
Vroot
p414
aVROOT
p415
aVyellow
p416
aa(lp417
Vdet
p418
aVpercentage
p419
aVWhat
p420
aa(lp421
Vnsubj
p422
aVyellow
p423
aVpercentage
p424
aa(lp425
Vdet
p426
aVpins
p427
aVthe
p428
aa(lp429
Vprep_of
p430
aVpercentage
p431
aVpins
p432
aa(lp433
Vcop
p434
aVyellow
p435
aVwere
p436
aasVwords
p437
(lp438
(lp439
VWhat
p440
a(dp441
VNamedEntityTag
p442
g77
sVCharacterOffsetEnd
p443
V99
p444
sVCharacterOffsetBegin
p445
V95
p446
sVPartOfSpeech
p447
VWDT
p448
sVLemma
p449
Vwhat
p450
saa(lp451
Vpercentage
p452
a(dp453
VNamedEntityTag
p454
g77
sVCharacterOffsetEnd
p455
V110
p456
sVCharacterOffsetBegin
p457
V100
p458
sVPartOfSpeech
p459
VNN
p460
sVLemma
p461
Vpercentage
p462
saa(lp463
Vof
p464
a(dp465
VNamedEntityTag
p466
g77
sVCharacterOffsetEnd
p467
V113
p468
sVCharacterOffsetBegin
p469
V111
p470
sVPartOfSpeech
p471
VIN
p472
sVLemma
p473
Vof
p474
saa(lp475
Vthe
p476
a(dp477
VNamedEntityTag
p478
g77
sVCharacterOffsetEnd
p479
V117
p480
sVCharacterOffsetBegin
p481
V114
p482
sVPartOfSpeech
p483
VDT
p484
sVLemma
p485
Vthe
p486
saa(lp487
Vpins
p488
a(dp489
VNamedEntityTag
p490
g77
sVCharacterOffsetEnd
p491
V122
p492
sVCharacterOffsetBegin
p493
V118
p494
sVPartOfSpeech
p495
VNNS
p496
sVLemma
p497
Vpin
p498
saa(lp499
Vwere
p500
a(dp501
VNamedEntityTag
p502
g77
sVCharacterOffsetEnd
p503
V127
p504
sVCharacterOffsetBegin
p505
V123
p506
sVPartOfSpeech
p507
VVBD
p508
sVLemma
p509
Vbe
p510
saa(lp511
Vyellow
p512
a(dp513
VNamedEntityTag
p514
g77
sVCharacterOffsetEnd
p515
V134
p516
sVCharacterOffsetBegin
p517
V128
p518
sVPartOfSpeech
p519
VJJ
p520
sVLemma
p521
Vyellow
p522
saa(lp523
V?
p524
a(dp525
VNamedEntityTag
p526
g77
sVCharacterOffsetEnd
p527
V136
p528
sVCharacterOffsetBegin
p529
V135
p530
sVPartOfSpeech
p531
g169
sVLemma
p532
g524
saasVindexeddependencies
p533
(lp534
(lp535
Vroot
p536
aVROOT-0
p537
aVyellow-7
p538
aa(lp539
Vdet
p540
aVpercentage-2
p541
aVWhat-1
p542
aa(lp543
Vnsubj
p544
aVyellow-7
p545
aVpercentage-2
p546
aa(lp547
Vdet
p548
aVpins-5
p549
aVthe-4
p550
aa(lp551
Vprep_of
p552
aVpercentage-2
p553
aVpins-5
p554
aa(lp555
Vcop
p556
aVyellow-7
p557
aVwere-6
p558
aasas.