(dp0
Vcoref
p1
(lp2
(lp3
(lp4
(lp5
Vthem
p6
aI1
aI14
aI14
aI15
aa(lp7
V6 enemies total
p8
aI1
aI5
aI4
aI7
aaaasVsentences
p9
(lp10
(dp11
Vparsetree
p12
V(ROOT (S (PP (IN In) (NP (DT a) (NN video) (NN game))) (, ,) (NP (DT each) (NN enemy)) (VP (VBD defeated) (SBAR (S (VP (VBZ gives) (NP (PRP you)) (NP (CD 3) (NNS points)))))) (. .)))
p13
sVtext
p14
VIn a video game , each enemy defeated gives you 3 points .
p15
sVdependencies
p16
(lp17
(lp18
Vroot
p19
aVROOT
p20
aVdefeated
p21
aa(lp22
Vdet
p23
aVgame
p24
aVa
p25
aa(lp26
Vnn
p27
aVgame
p28
aVvideo
p29
aa(lp30
Vprep_in
p31
aVdefeated
p32
aVgame
p33
aa(lp34
Vdet
p35
aVenemy
p36
aVeach
p37
aa(lp38
Vnsubj
p39
aVdefeated
p40
aVenemy
p41
aa(lp42
Vccomp
p43
aVdefeated
p44
aVgives
p45
aa(lp46
Viobj
p47
aVgives
p48
aVyou
p49
aa(lp50
Vnum
p51
aVpoints
p52
aV3
p53
aa(lp54
Vdobj
p55
aVgives
p56
aVpoints
p57
aasVwords
p58
(lp59
(lp60
VIn
p61
a(dp62
VNamedEntityTag
p63
VO
p64
sVCharacterOffsetEnd
p65
g53
sVCharacterOffsetBegin
p66
V1
p67
sVPartOfSpeech
p68
VIN
p69
sVLemma
p70
Vin
p71
saa(lp72
g25
a(dp73
VNamedEntityTag
p74
g64
sVCharacterOffsetEnd
p75
V5
p76
sVCharacterOffsetBegin
p77
V4
p78
sVPartOfSpeech
p79
VDT
p80
sVLemma
p81
g25
saa(lp82
Vvideo
p83
a(dp84
VNamedEntityTag
p85
g64
sVCharacterOffsetEnd
p86
V11
p87
sVCharacterOffsetBegin
p88
V6
p89
sVPartOfSpeech
p90
VNN
p91
sVLemma
p92
Vvideo
p93
saa(lp94
Vgame
p95
a(dp96
VNamedEntityTag
p97
g64
sVCharacterOffsetEnd
p98
V16
p99
sVCharacterOffsetBegin
p100
V12
p101
sVPartOfSpeech
p102
VNN
p103
sVLemma
p104
Vgame
p105
saa(lp106
V,
p107
a(dp108
VNamedEntityTag
p109
g64
sVCharacterOffsetEnd
p110
V18
p111
sVCharacterOffsetBegin
p112
V17
p113
sVPartOfSpeech
p114
g107
sVLemma
p115
g107
saa(lp116
Veach
p117
a(dp118
VNamedEntityTag
p119
g64
sVCharacterOffsetEnd
p120
V23
p121
sVCharacterOffsetBegin
p122
V19
p123
sVPartOfSpeech
p124
VDT
p125
sVLemma
p126
Veach
p127
saa(lp128
Venemy
p129
a(dp130
VNamedEntityTag
p131
g64
sVCharacterOffsetEnd
p132
V29
p133
sVCharacterOffsetBegin
p134
V24
p135
sVPartOfSpeech
p136
VNN
p137
sVLemma
p138
Venemy
p139
saa(lp140
Vdefeated
p141
a(dp142
VNamedEntityTag
p143
g64
sVCharacterOffsetEnd
p144
V38
p145
sVCharacterOffsetBegin
p146
V30
p147
sVPartOfSpeech
p148
VVBD
p149
sVLemma
p150
Vdefeat
p151
saa(lp152
Vgives
p153
a(dp154
VNamedEntityTag
p155
g64
sVCharacterOffsetEnd
p156
V44
p157
sVCharacterOffsetBegin
p158
V39
p159
sVPartOfSpeech
p160
VVBZ
p161
sVLemma
p162
Vgive
p163
saa(lp164
Vyou
p165
a(dp166
VNamedEntityTag
p167
g64
sVCharacterOffsetEnd
p168
V48
p169
sVCharacterOffsetBegin
p170
V45
p171
sVPartOfSpeech
p172
VPRP
p173
sVLemma
p174
Vyou
p175
saa(lp176
g53
a(dp177
VNormalizedNamedEntityTag
p178
V3.0
p179
sVLemma
p180
g53
sVCharacterOffsetEnd
p181
V50
p182
sVPartOfSpeech
p183
VCD
p184
sVCharacterOffsetBegin
p185
V49
p186
sVNamedEntityTag
p187
VNUMBER
p188
saa(lp189
Vpoints
p190
a(dp191
VNamedEntityTag
p192
g64
sVCharacterOffsetEnd
p193
V57
p194
sVCharacterOffsetBegin
p195
V51
p196
sVPartOfSpeech
p197
VNNS
p198
sVLemma
p199
Vpoint
p200
saa(lp201
V.
p202
a(dp203
VNamedEntityTag
p204
g64
sVCharacterOffsetEnd
p205
V59
p206
sVCharacterOffsetBegin
p207
V58
p208
sVPartOfSpeech
p209
g202
sVLemma
p210
g202
saasVindexeddependencies
p211
(lp212
(lp213
Vroot
p214
aVROOT-0
p215
aVdefeated-8
p216
aa(lp217
Vdet
p218
aVgame-4
p219
aVa-2
p220
aa(lp221
Vnn
p222
aVgame-4
p223
aVvideo-3
p224
aa(lp225
Vprep_in
p226
aVdefeated-8
p227
aVgame-4
p228
aa(lp229
Vdet
p230
aVenemy-7
p231
aVeach-6
p232
aa(lp233
Vnsubj
p234
aVdefeated-8
p235
aVenemy-7
p236
aa(lp237
Vccomp
p238
aVdefeated-8
p239
aVgives-9
p240
aa(lp241
Viobj
p242
aVgives-9
p243
aVyou-10
p244
aa(lp245
Vnum
p246
aVpoints-12
p247
aV3-11
p248
aa(lp249
Vdobj
p250
aVgives-9
p251
aVpoints-12
p252
aasa(dp253
Vparsetree
p254
V(ROOT (SBARQ (SBAR (IN If) (S (S (NP (DT a) (NN level)) (VP (VBZ has) (NP (NP (CD 6) (NNS enemies)) (JJ total)))) (CC and) (S (NP (PRP you)) (VP (VBP destroy) (NP (NP (QP (DT all) (CC but) (CD 2))) (PP (IN of) (NP (PRP them)))))))) (, ,) (WHNP (WHADJP (WRB how) (JJ many)) (NNS points)) (SQ (MD would) (NP (PRP you)) (VP (VB earn))) (. ?)))
p255
sVtext
p256
VIf a level has 6 enemies total and you destroy all but 2 of them , how many points would you earn ?
p257
sVdependencies
p258
(lp259
(lp260
Vroot
p261
aVROOT
p262
aVearn
p263
aa(lp264
Vmark
p265
aVhas
p266
aVIf
p267
aa(lp268
Vdet
p269
aVlevel
p270
ag25
aa(lp271
Vnsubj
p272
aVhas
p273
aVlevel
p274
aa(lp275
Vadvcl
p276
aVearn
p277
aVhas
p278
aa(lp279
Vnum
p280
aVenemies
p281
ag89
aa(lp282
Vdobj
p283
aVhas
p284
aVenemies
p285
aa(lp286
Vamod
p287
aVenemies
p288
aVtotal
p289
aa(lp290
Vnsubj
p291
aVdestroy
p292
aVyou
p293
aa(lp294
Vconj_and
p295
aVhas
p296
aVdestroy
p297
aa(lp298
Vdobj
p299
aVdestroy
p300
aVall
p301
aa(lp302
Vconj_but
p303
aVall
p304
aV2
p305
aa(lp306
Vprep_of
p307
aVall
p308
aVthem
p309
aa(lp310
Vadvmod
p311
aVmany
p312
aVhow
p313
aa(lp314
Vamod
p315
aVpoints
p316
aVmany
p317
aa(lp318
Vdobj
p319
aVearn
p320
aVpoints
p321
aa(lp322
Vaux
p323
aVearn
p324
aVwould
p325
aa(lp326
Vnsubj
p327
aVearn
p328
aVyou
p329
aasVwords
p330
(lp331
(lp332
VIf
p333
a(dp334
VNamedEntityTag
p335
g64
sVCharacterOffsetEnd
p336
V62
p337
sVCharacterOffsetBegin
p338
V60
p339
sVPartOfSpeech
p340
VIN
p341
sVLemma
p342
Vif
p343
saa(lp344
g25
a(dp345
VNamedEntityTag
p346
g64
sVCharacterOffsetEnd
p347
V64
p348
sVCharacterOffsetBegin
p349
V63
p350
sVPartOfSpeech
p351
VDT
p352
sVLemma
p353
g25
saa(lp354
Vlevel
p355
a(dp356
VNamedEntityTag
p357
g64
sVCharacterOffsetEnd
p358
V70
p359
sVCharacterOffsetBegin
p360
V65
p361
sVPartOfSpeech
p362
VNN
p363
sVLemma
p364
Vlevel
p365
saa(lp366
Vhas
p367
a(dp368
VNamedEntityTag
p369
g64
sVCharacterOffsetEnd
p370
V74
p371
sVCharacterOffsetBegin
p372
V71
p373
sVPartOfSpeech
p374
VVBZ
p375
sVLemma
p376
Vhave
p377
saa(lp378
g89
a(dp379
VNormalizedNamedEntityTag
p380
V6.0
p381
sVLemma
p382
g89
sVCharacterOffsetEnd
p383
V76
p384
sVPartOfSpeech
p385
VCD
p386
sVCharacterOffsetBegin
p387
V75
p388
sVNamedEntityTag
p389
VNUMBER
p390
saa(lp391
Venemies
p392
a(dp393
VNamedEntityTag
p394
g64
sVCharacterOffsetEnd
p395
V84
p396
sVCharacterOffsetBegin
p397
V77
p398
sVPartOfSpeech
p399
VNNS
p400
sVLemma
p401
Venemy
p402
saa(lp403
Vtotal
p404
a(dp405
VNamedEntityTag
p406
g64
sVCharacterOffsetEnd
p407
V90
p408
sVCharacterOffsetBegin
p409
V85
p410
sVPartOfSpeech
p411
VJJ
p412
sVLemma
p413
Vtotal
p414
saa(lp415
Vand
p416
a(dp417
VNamedEntityTag
p418
g64
sVCharacterOffsetEnd
p419
V94
p420
sVCharacterOffsetBegin
p421
V91
p422
sVPartOfSpeech
p423
VCC
p424
sVLemma
p425
Vand
p426
saa(lp427
Vyou
p428
a(dp429
VNamedEntityTag
p430
g64
sVCharacterOffsetEnd
p431
V98
p432
sVCharacterOffsetBegin
p433
V95
p434
sVPartOfSpeech
p435
VPRP
p436
sVLemma
p437
Vyou
p438
saa(lp439
Vdestroy
p440
a(dp441
VNamedEntityTag
p442
g64
sVCharacterOffsetEnd
p443
V106
p444
sVCharacterOffsetBegin
p445
V99
p446
sVPartOfSpeech
p447
VVBP
p448
sVLemma
p449
Vdestroy
p450
saa(lp451
Vall
p452
a(dp453
VNamedEntityTag
p454
g64
sVCharacterOffsetEnd
p455
V110
p456
sVCharacterOffsetBegin
p457
V107
p458
sVPartOfSpeech
p459
VDT
p460
sVLemma
p461
Vall
p462
saa(lp463
Vbut
p464
a(dp465
VNamedEntityTag
p466
g64
sVCharacterOffsetEnd
p467
V114
p468
sVCharacterOffsetBegin
p469
V111
p470
sVPartOfSpeech
p471
VCC
p472
sVLemma
p473
Vbut
p474
saa(lp475
g305
a(dp476
VNormalizedNamedEntityTag
p477
V2.0
p478
sVLemma
p479
g305
sVCharacterOffsetEnd
p480
V116
p481
sVPartOfSpeech
p482
VCD
p483
sVCharacterOffsetBegin
p484
V115
p485
sVNamedEntityTag
p486
VNUMBER
p487
saa(lp488
Vof
p489
a(dp490
VNamedEntityTag
p491
g64
sVCharacterOffsetEnd
p492
V119
p493
sVCharacterOffsetBegin
p494
V117
p495
sVPartOfSpeech
p496
VIN
p497
sVLemma
p498
Vof
p499
saa(lp500
Vthem
p501
a(dp502
VNamedEntityTag
p503
g64
sVCharacterOffsetEnd
p504
V124
p505
sVCharacterOffsetBegin
p506
V120
p507
sVPartOfSpeech
p508
VPRP
p509
sVLemma
p510
Vthey
p511
saa(lp512
g107
a(dp513
VNamedEntityTag
p514
g64
sVCharacterOffsetEnd
p515
V126
p516
sVCharacterOffsetBegin
p517
V125
p518
sVPartOfSpeech
p519
g107
sVLemma
p520
g107
saa(lp521
Vhow
p522
a(dp523
VNamedEntityTag
p524
g64
sVCharacterOffsetEnd
p525
V130
p526
sVCharacterOffsetBegin
p527
V127
p528
sVPartOfSpeech
p529
VWRB
p530
sVLemma
p531
Vhow
p532
saa(lp533
Vmany
p534
a(dp535
VNamedEntityTag
p536
g64
sVCharacterOffsetEnd
p537
V135
p538
sVCharacterOffsetBegin
p539
V131
p540
sVPartOfSpeech
p541
VJJ
p542
sVLemma
p543
Vmany
p544
saa(lp545
Vpoints
p546
a(dp547
VNamedEntityTag
p548
g64
sVCharacterOffsetEnd
p549
V142
p550
sVCharacterOffsetBegin
p551
V136
p552
sVPartOfSpeech
p553
VNNS
p554
sVLemma
p555
Vpoint
p556
saa(lp557
Vwould
p558
a(dp559
VNamedEntityTag
p560
g64
sVCharacterOffsetEnd
p561
V148
p562
sVCharacterOffsetBegin
p563
V143
p564
sVPartOfSpeech
p565
VMD
p566
sVLemma
p567
Vwould
p568
saa(lp569
Vyou
p570
a(dp571
VNamedEntityTag
p572
g64
sVCharacterOffsetEnd
p573
V152
p574
sVCharacterOffsetBegin
p575
V149
p576
sVPartOfSpeech
p577
VPRP
p578
sVLemma
p579
Vyou
p580
saa(lp581
Vearn
p582
a(dp583
VNamedEntityTag
p584
g64
sVCharacterOffsetEnd
p585
V157
p586
sVCharacterOffsetBegin
p587
V153
p588
sVPartOfSpeech
p589
VVB
p590
sVLemma
p591
Vearn
p592
saa(lp593
V?
p594
a(dp595
VNamedEntityTag
p596
g64
sVCharacterOffsetEnd
p597
V159
p598
sVCharacterOffsetBegin
p599
V158
p600
sVPartOfSpeech
p601
g202
sVLemma
p602
g594
saasVindexeddependencies
p603
(lp604
(lp605
Vroot
p606
aVROOT-0
p607
aVearn-22
p608
aa(lp609
Vmark
p610
aVhas-4
p611
aVIf-1
p612
aa(lp613
Vdet
p614
aVlevel-3
p615
aVa-2
p616
aa(lp617
Vnsubj
p618
aVhas-4
p619
aVlevel-3
p620
aa(lp621
Vadvcl
p622
aVearn-22
p623
aVhas-4
p624
aa(lp625
Vnum
p626
aVenemies-6
p627
aV6-5
p628
aa(lp629
Vdobj
p630
aVhas-4
p631
aVenemies-6
p632
aa(lp633
Vamod
p634
aVenemies-6
p635
aVtotal-7
p636
aa(lp637
Vnsubj
p638
aVdestroy-10
p639
aVyou-9
p640
aa(lp641
Vconj_and
p642
aVhas-4
p643
aVdestroy-10
p644
aa(lp645
Vdobj
p646
aVdestroy-10
p647
aVall-11
p648
aa(lp649
Vconj_but
p650
aVall-11
p651
aV2-13
p652
aa(lp653
Vprep_of
p654
aVall-11
p655
aVthem-15
p656
aa(lp657
Vadvmod
p658
aVmany-18
p659
aVhow-17
p660
aa(lp661
Vamod
p662
aVpoints-19
p663
aVmany-18
p664
aa(lp665
Vdobj
p666
aVearn-22
p667
aVpoints-19
p668
aa(lp669
Vaux
p670
aVearn-22
p671
aVwould-20
p672
aa(lp673
Vnsubj
p674
aVearn-22
p675
aVyou-21
p676
aasas.