(dp0
Vcoref
p1
(lp2
(lp3
(lp4
(lp5
Vshe
p6
aI1
aI19
aI19
aI20
aa(lp7
VOlivia
p8
aI1
aI8
aI8
aI9
aaaasVsentences
p9
(lp10
(dp11
Vparsetree
p12
V(ROOT (NP (NP (NP (DT Each) (NN chocolate) (NN bar)) (PP (IN in) (NP (DT a) (NN box) (NN cost)))) (ADJP ($ $) (CD 3)) (. .)))
p13
sVtext
p14
VEach chocolate bar in a box cost $3 .
p15
sVdependencies
p16
(lp17
(lp18
Vroot
p19
aVROOT
p20
aVbar
p21
aa(lp22
Vdet
p23
aVbar
p24
aVEach
p25
aa(lp26
Vnn
p27
aVbar
p28
aVchocolate
p29
aa(lp30
Vdet
p31
aVcost
p32
aVa
p33
aa(lp34
Vnn
p35
aVcost
p36
aVbox
p37
aa(lp38
Vprep_in
p39
aVbar
p40
aVcost
p41
aa(lp42
Vamod
p43
aVbar
p44
aV$
p45
aa(lp46
Vnumber
p47
ag45
aV3
p48
aasVwords
p49
(lp50
(lp51
VEach
p52
a(dp53
VNamedEntityTag
p54
VO
p55
sVCharacterOffsetEnd
p56
V5
p57
sVCharacterOffsetBegin
p58
V1
p59
sVPartOfSpeech
p60
VDT
p61
sVLemma
p62
Veach
p63
saa(lp64
Vchocolate
p65
a(dp66
VNamedEntityTag
p67
g55
sVCharacterOffsetEnd
p68
V15
p69
sVCharacterOffsetBegin
p70
V6
p71
sVPartOfSpeech
p72
VNN
p73
sVLemma
p74
Vchocolate
p75
saa(lp76
Vbar
p77
a(dp78
VNamedEntityTag
p79
g55
sVCharacterOffsetEnd
p80
V19
p81
sVCharacterOffsetBegin
p82
V16
p83
sVPartOfSpeech
p84
VNN
p85
sVLemma
p86
Vbar
p87
saa(lp88
Vin
p89
a(dp90
VNamedEntityTag
p91
g55
sVCharacterOffsetEnd
p92
V22
p93
sVCharacterOffsetBegin
p94
V20
p95
sVPartOfSpeech
p96
VIN
p97
sVLemma
p98
Vin
p99
saa(lp100
g33
a(dp101
VNamedEntityTag
p102
g55
sVCharacterOffsetEnd
p103
V24
p104
sVCharacterOffsetBegin
p105
V23
p106
sVPartOfSpeech
p107
VDT
p108
sVLemma
p109
g33
saa(lp110
Vbox
p111
a(dp112
VNamedEntityTag
p113
g55
sVCharacterOffsetEnd
p114
V28
p115
sVCharacterOffsetBegin
p116
V25
p117
sVPartOfSpeech
p118
VNN
p119
sVLemma
p120
Vbox
p121
saa(lp122
Vcost
p123
a(dp124
VNamedEntityTag
p125
g55
sVCharacterOffsetEnd
p126
V33
p127
sVCharacterOffsetBegin
p128
V29
p129
sVPartOfSpeech
p130
VNN
p131
sVLemma
p132
Vcost
p133
saa(lp134
g45
a(dp135
VNormalizedNamedEntityTag
p136
V$3.0
p137
sVLemma
p138
g45
sVCharacterOffsetEnd
p139
V35
p140
sVPartOfSpeech
p141
g45
sVCharacterOffsetBegin
p142
V34
p143
sVNamedEntityTag
p144
VMONEY
p145
saa(lp146
g48
a(dp147
VNormalizedNamedEntityTag
p148
V$3.0
p149
sVLemma
p150
g48
sVCharacterOffsetEnd
p151
V36
p152
sVPartOfSpeech
p153
VCD
p154
sVCharacterOffsetBegin
p155
V35
p156
sVNamedEntityTag
p157
VMONEY
p158
saa(lp159
V.
p160
a(dp161
VNamedEntityTag
p162
g55
sVCharacterOffsetEnd
p163
V38
p164
sVCharacterOffsetBegin
p165
V37
p166
sVPartOfSpeech
p167
g160
sVLemma
p168
g160
saasVindexeddependencies
p169
(lp170
(lp171
Vroot
p172
aVROOT-0
p173
aVbar-3
p174
aa(lp175
Vdet
p176
aVbar-3
p177
aVEach-1
p178
aa(lp179
Vnn
p180
aVbar-3
p181
aVchocolate-2
p182
aa(lp183
Vdet
p184
aVcost-7
p185
aVa-5
p186
aa(lp187
Vnn
p188
aVcost-7
p189
aVbox-6
p190
aa(lp191
Vprep_in
p192
aVbar-3
p193
aVcost-7
p194
aa(lp195
Vamod
p196
aVbar-3
p197
aV$-8
p198
aa(lp199
Vnumber
p200
aV$-8
p201
aV3-9
p202
aasa(dp203
Vparsetree
p204
V(ROOT (SBARQ (SBAR (IN If) (S (NP (DT a) (NN box)) (VP (VBD had) (NP (NP (CD 7) (NNS bars)) (SBAR (S (NP (NP (JJ total)) (CC and) (NP (NNP Olivia))) (VP (VBD sold) (NP (QP (DT all) (CC but) (CD 4)) (NNS bars))))))))) (, ,) (WHNP (WHADJP (WRB how) (JJ much)) (NN money)) (SQ (MD would) (NP (PRP she)) (VP (VB have) (VP (VBN made)))) (. ?)))
p205
sVtext
p206
VIf a box had 7 bars total and Olivia sold all but 4 bars , how much money would she have made ?
p207
sVdependencies
p208
(lp209
(lp210
Vroot
p211
aVROOT
p212
aVmade
p213
aa(lp214
Vmark
p215
aVhad
p216
aVIf
p217
aa(lp218
Vdet
p219
aVbox
p220
ag33
aa(lp221
Vnsubj
p222
aVhad
p223
aVbox
p224
aa(lp225
Vadvcl
p226
aVmade
p227
aVhad
p228
aa(lp229
Vnum
p230
aVbars
p231
aV7
p232
aa(lp233
Vdobj
p234
aVhad
p235
aVbars
p236
aa(lp237
Vnsubj
p238
aVsold
p239
aVtotal
p240
aa(lp241
Vconj_and
p242
aVtotal
p243
aVOlivia
p244
aa(lp245
Vrcmod
p246
aVbars
p247
aVsold
p248
aa(lp249
Vnum
p250
aVbars
p251
aVall
p252
aa(lp253
Vconj_but
p254
aVall
p255
aV4
p256
aa(lp257
Vdobj
p258
aVsold
p259
aVbars
p260
aa(lp261
Vadvmod
p262
aVmuch
p263
aVhow
p264
aa(lp265
Vamod
p266
aVmoney
p267
aVmuch
p268
aa(lp269
Vdobj
p270
aVmade
p271
aVmoney
p272
aa(lp273
Vaux
p274
aVmade
p275
aVwould
p276
aa(lp277
Vnsubj
p278
aVmade
p279
aVshe
p280
aa(lp281
Vaux
p282
aVmade
p283
aVhave
p284
aasVwords
p285
(lp286
(lp287
VIf
p288
a(dp289
VNamedEntityTag
p290
g55
sVCharacterOffsetEnd
p291
V41
p292
sVCharacterOffsetBegin
p293
V39
p294
sVPartOfSpeech
p295
VIN
p296
sVLemma
p297
Vif
p298
saa(lp299
g33
a(dp300
VNamedEntityTag
p301
g55
sVCharacterOffsetEnd
p302
V43
p303
sVCharacterOffsetBegin
p304
V42
p305
sVPartOfSpeech
p306
VDT
p307
sVLemma
p308
g33
saa(lp309
Vbox
p310
a(dp311
VNamedEntityTag
p312
g55
sVCharacterOffsetEnd
p313
V47
p314
sVCharacterOffsetBegin
p315
V44
p316
sVPartOfSpeech
p317
VNN
p318
sVLemma
p319
Vbox
p320
saa(lp321
Vhad
p322
a(dp323
VNamedEntityTag
p324
g55
sVCharacterOffsetEnd
p325
V51
p326
sVCharacterOffsetBegin
p327
V48
p328
sVPartOfSpeech
p329
VVBD
p330
sVLemma
p331
Vhave
p332
saa(lp333
g232
a(dp334
VNormalizedNamedEntityTag
p335
V7.0
p336
sVLemma
p337
g232
sVCharacterOffsetEnd
p338
V53
p339
sVPartOfSpeech
p340
VCD
p341
sVCharacterOffsetBegin
p342
V52
p343
sVNamedEntityTag
p344
VNUMBER
p345
saa(lp346
Vbars
p347
a(dp348
VNamedEntityTag
p349
g55
sVCharacterOffsetEnd
p350
V58
p351
sVCharacterOffsetBegin
p352
V54
p353
sVPartOfSpeech
p354
VNNS
p355
sVLemma
p356
Vbar
p357
saa(lp358
Vtotal
p359
a(dp360
VNamedEntityTag
p361
g55
sVCharacterOffsetEnd
p362
V64
p363
sVCharacterOffsetBegin
p364
V59
p365
sVPartOfSpeech
p366
VJJ
p367
sVLemma
p368
Vtotal
p369
saa(lp370
Vand
p371
a(dp372
VNamedEntityTag
p373
g55
sVCharacterOffsetEnd
p374
V68
p375
sVCharacterOffsetBegin
p376
V65
p377
sVPartOfSpeech
p378
VCC
p379
sVLemma
p380
Vand
p381
saa(lp382
VOlivia
p383
a(dp384
VNamedEntityTag
p385
VPERSON
p386
sVCharacterOffsetEnd
p387
V75
p388
sVCharacterOffsetBegin
p389
V69
p390
sVPartOfSpeech
p391
VNNP
p392
sVLemma
p393
VOlivia
p394
saa(lp395
Vsold
p396
a(dp397
VNamedEntityTag
p398
g55
sVCharacterOffsetEnd
p399
V80
p400
sVCharacterOffsetBegin
p401
V76
p402
sVPartOfSpeech
p403
VVBD
p404
sVLemma
p405
Vsell
p406
saa(lp407
Vall
p408
a(dp409
VNamedEntityTag
p410
g55
sVCharacterOffsetEnd
p411
V84
p412
sVCharacterOffsetBegin
p413
V81
p414
sVPartOfSpeech
p415
VDT
p416
sVLemma
p417
Vall
p418
saa(lp419
Vbut
p420
a(dp421
VNamedEntityTag
p422
g55
sVCharacterOffsetEnd
p423
V88
p424
sVCharacterOffsetBegin
p425
V85
p426
sVPartOfSpeech
p427
VCC
p428
sVLemma
p429
Vbut
p430
saa(lp431
g256
a(dp432
VNormalizedNamedEntityTag
p433
V4.0
p434
sVLemma
p435
g256
sVCharacterOffsetEnd
p436
V90
p437
sVPartOfSpeech
p438
VCD
p439
sVCharacterOffsetBegin
p440
V89
p441
sVNamedEntityTag
p442
VNUMBER
p443
saa(lp444
Vbars
p445
a(dp446
VNamedEntityTag
p447
g55
sVCharacterOffsetEnd
p448
V95
p449
sVCharacterOffsetBegin
p450
V91
p451
sVPartOfSpeech
p452
VNNS
p453
sVLemma
p454
Vbar
p455
saa(lp456
V,
p457
a(dp458
VNamedEntityTag
p459
g55
sVCharacterOffsetEnd
p460
V97
p461
sVCharacterOffsetBegin
p462
V96
p463
sVPartOfSpeech
p464
g457
sVLemma
p465
g457
saa(lp466
Vhow
p467
a(dp468
VNamedEntityTag
p469
g55
sVCharacterOffsetEnd
p470
V101
p471
sVCharacterOffsetBegin
p472
V98
p473
sVPartOfSpeech
p474
VWRB
p475
sVLemma
p476
Vhow
p477
saa(lp478
Vmuch
p479
a(dp480
VNamedEntityTag
p481
g55
sVCharacterOffsetEnd
p482
V106
p483
sVCharacterOffsetBegin
p484
V102
p485
sVPartOfSpeech
p486
VJJ
p487
sVLemma
p488
Vmuch
p489
saa(lp490
Vmoney
p491
a(dp492
VNamedEntityTag
p493
g55
sVCharacterOffsetEnd
p494
V112
p495
sVCharacterOffsetBegin
p496
V107
p497
sVPartOfSpeech
p498
VNN
p499
sVLemma
p500
Vmoney
p501
saa(lp502
Vwould
p503
a(dp504
VNamedEntityTag
p505
g55
sVCharacterOffsetEnd
p506
V118
p507
sVCharacterOffsetBegin
p508
V113
p509
sVPartOfSpeech
p510
VMD
p511
sVLemma
p512
Vwould
p513
saa(lp514
Vshe
p515
a(dp516
VNamedEntityTag
p517
g55
sVCharacterOffsetEnd
p518
V122
p519
sVCharacterOffsetBegin
p520
V119
p521
sVPartOfSpeech
p522
VPRP
p523
sVLemma
p524
Vshe
p525
saa(lp526
Vhave
p527
a(dp528
VNamedEntityTag
p529
g55
sVCharacterOffsetEnd
p530
V127
p531
sVCharacterOffsetBegin
p532
V123
p533
sVPartOfSpeech
p534
VVB
p535
sVLemma
p536
Vhave
p537
saa(lp538
Vmade
p539
a(dp540
VNamedEntityTag
p541
g55
sVCharacterOffsetEnd
p542
V132
p543
sVCharacterOffsetBegin
p544
V128
p545
sVPartOfSpeech
p546
VVBN
p547
sVLemma
p548
Vmake
p549
saa(lp550
V?
p551
a(dp552
VNamedEntityTag
p553
g55
sVCharacterOffsetEnd
p554
V134
p555
sVCharacterOffsetBegin
p556
V133
p557
sVPartOfSpeech
p558
g160
sVLemma
p559
g551
saasVindexeddependencies
p560
(lp561
(lp562
Vroot
p563
aVROOT-0
p564
aVmade-22
p565
aa(lp566
Vmark
p567
aVhad-4
p568
aVIf-1
p569
aa(lp570
Vdet
p571
aVbox-3
p572
aVa-2
p573
aa(lp574
Vnsubj
p575
aVhad-4
p576
aVbox-3
p577
aa(lp578
Vadvcl
p579
aVmade-22
p580
aVhad-4
p581
aa(lp582
Vnum
p583
aVbars-6
p584
aV7-5
p585
aa(lp586
Vdobj
p587
aVhad-4
p588
aVbars-6
p589
aa(lp590
Vnsubj
p591
aVsold-10
p592
aVtotal-7
p593
aa(lp594
Vconj_and
p595
aVtotal-7
p596
aVOlivia-9
p597
aa(lp598
Vrcmod
p599
aVbars-6
p600
aVsold-10
p601
aa(lp602
Vnum
p603
aVbars-14
p604
aVall-11
p605
aa(lp606
Vconj_but
p607
aVall-11
p608
aV4-13
p609
aa(lp610
Vdobj
p611
aVsold-10
p612
aVbars-14
p613
aa(lp614
Vadvmod
p615
aVmuch-17
p616
aVhow-16
p617
aa(lp618
Vamod
p619
aVmoney-18
p620
aVmuch-17
p621
aa(lp622
Vdobj
p623
aVmade-22
p624
aVmoney-18
p625
aa(lp626
Vaux
p627
aVmade-22
p628
aVwould-19
p629
aa(lp630
Vnsubj
p631
aVmade-22
p632
aVshe-20
p633
aa(lp634
Vaux
p635
aVmade-22
p636
aVhave-21
p637
aasas.