(dp0
Vcoref
p1
(lp2
(lp3
(lp4
(lp5
Vthe burgers
p6
aI2
aI4
aI3
aI5
aa(lp7
V75 burgers in all , 30 of which were well done
p8
aI1
aI6
aI5
aI16
aaaasVsentences
p9
(lp10
(dp11
Vparsetree
p12
V(ROOT (NP (NP (NP (NNP Dalton) (POS 's)) (NNPS Burgers)) (NP (NP (NNS cooks)) (UCP (VP (ADVP (NP (NP (PRP$ its) (NNS burgers)) (ADVP (RB either))) (RB well)) (VBN done)) (CC or) (ADJP (NN medium)))) (. .)))
p13
sVtext
p14
VDalton's Burgers cooks its burgers either well done or medium .
p15
sVdependencies
p16
(lp17
(lp18
Vroot
p19
aVROOT
p20
aVBurgers
p21
aa(lp22
Vposs
p23
aVBurgers
p24
aVDalton
p25
aa(lp26
Vdep
p27
aVBurgers
p28
aVcooks
p29
aa(lp30
Vposs
p31
aVburgers
p32
aVits
p33
aa(lp34
Vnpadvmod
p35
aVwell
p36
aVburgers
p37
aa(lp38
Vadvmod
p39
aVburgers
p40
aVeither
p41
aa(lp42
Vadvmod
p43
aVdone
p44
aVwell
p45
aa(lp46
Vdep
p47
aVcooks
p48
aVdone
p49
aa(lp50
Vconj_or
p51
aVdone
p52
aVmedium
p53
aasVwords
p54
(lp55
(lp56
VDalton
p57
a(dp58
VNamedEntityTag
p59
VPERSON
p60
sVCharacterOffsetEnd
p61
V7
p62
sVCharacterOffsetBegin
p63
V1
p64
sVPartOfSpeech
p65
VNNP
p66
sVLemma
p67
VDalton
p68
saa(lp69
V's
p70
a(dp71
VNamedEntityTag
p72
VO
p73
sVCharacterOffsetEnd
p74
V9
p75
sVCharacterOffsetBegin
p76
g62
sVPartOfSpeech
p77
VPOS
p78
sVLemma
p79
V's
p80
saa(lp81
VBurgers
p82
a(dp83
VNamedEntityTag
p84
VMISC
p85
sVCharacterOffsetEnd
p86
V17
p87
sVCharacterOffsetBegin
p88
V10
p89
sVPartOfSpeech
p90
VNNPS
p91
sVLemma
p92
VBurgers
p93
saa(lp94
Vcooks
p95
a(dp96
VNamedEntityTag
p97
g73
sVCharacterOffsetEnd
p98
V23
p99
sVCharacterOffsetBegin
p100
V18
p101
sVPartOfSpeech
p102
VNNS
p103
sVLemma
p104
Vcook
p105
saa(lp106
Vits
p107
a(dp108
VNamedEntityTag
p109
g73
sVCharacterOffsetEnd
p110
V27
p111
sVCharacterOffsetBegin
p112
V24
p113
sVPartOfSpeech
p114
VPRP$
p115
sVLemma
p116
Vits
p117
saa(lp118
Vburgers
p119
a(dp120
VNamedEntityTag
p121
g73
sVCharacterOffsetEnd
p122
V35
p123
sVCharacterOffsetBegin
p124
V28
p125
sVPartOfSpeech
p126
VNNS
p127
sVLemma
p128
Vburger
p129
saa(lp130
Veither
p131
a(dp132
VNamedEntityTag
p133
g73
sVCharacterOffsetEnd
p134
V42
p135
sVCharacterOffsetBegin
p136
V36
p137
sVPartOfSpeech
p138
VRB
p139
sVLemma
p140
Veither
p141
saa(lp142
Vwell
p143
a(dp144
VNamedEntityTag
p145
g73
sVCharacterOffsetEnd
p146
V47
p147
sVCharacterOffsetBegin
p148
V43
p149
sVPartOfSpeech
p150
VRB
p151
sVLemma
p152
Vwell
p153
saa(lp154
Vdone
p155
a(dp156
VNamedEntityTag
p157
g73
sVCharacterOffsetEnd
p158
V52
p159
sVCharacterOffsetBegin
p160
V48
p161
sVPartOfSpeech
p162
VVBN
p163
sVLemma
p164
Vdo
p165
saa(lp166
Vor
p167
a(dp168
VNamedEntityTag
p169
g73
sVCharacterOffsetEnd
p170
V55
p171
sVCharacterOffsetBegin
p172
V53
p173
sVPartOfSpeech
p174
VCC
p175
sVLemma
p176
Vor
p177
saa(lp178
Vmedium
p179
a(dp180
VNamedEntityTag
p181
g73
sVCharacterOffsetEnd
p182
V62
p183
sVCharacterOffsetBegin
p184
V56
p185
sVPartOfSpeech
p186
VNN
p187
sVLemma
p188
Vmedium
p189
saa(lp190
V.
p191
a(dp192
VNamedEntityTag
p193
g73
sVCharacterOffsetEnd
p194
V64
p195
sVCharacterOffsetBegin
p196
V63
p197
sVPartOfSpeech
p198
g191
sVLemma
p199
g191
saasVindexeddependencies
p200
(lp201
(lp202
Vroot
p203
aVROOT-0
p204
aVBurgers-3
p205
aa(lp206
Vposs
p207
aVBurgers-3
p208
aVDalton-1
p209
aa(lp210
Vdep
p211
aVBurgers-3
p212
aVcooks-4
p213
aa(lp214
Vposs
p215
aVburgers-6
p216
aVits-5
p217
aa(lp218
Vnpadvmod
p219
aVwell-8
p220
aVburgers-6
p221
aa(lp222
Vadvmod
p223
aVburgers-6
p224
aVeither-7
p225
aa(lp226
Vadvmod
p227
aVdone-9
p228
aVwell-8
p229
aa(lp230
Vdep
p231
aVcooks-4
p232
aVdone-9
p233
aa(lp234
Vconj_or
p235
aVdone-9
p236
aVmedium-11
p237
aasa(dp238
Vparsetree
p239
V(ROOT (S (NP-TMP (JJ Last) (NN night)) (NP (DT the) (NN restaurant)) (VP (VBD served) (NP (NP (CD 75) (NNS burgers)) (PP (IN in) (NP (NP (DT all)) (, ,) (SBAR (WHNP (NP (CD 30)) (WHPP (IN of) (WHNP (WDT which)))) (S (VP (VBD were) (VP (ADVP (RB well)) (VBN done))))))))) (. .)))
p240
sVtext
p241
VLast night the restaurant served 75 burgers in all , 30 of which were well done .
p242
sVdependencies
p243
(lp244
(lp245
Vroot
p246
aVROOT
p247
aVserved
p248
aa(lp249
Vamod
p250
aVnight
p251
aVLast
p252
aa(lp253
Vtmod
p254
aVserved
p255
aVnight
p256
aa(lp257
Vdet
p258
aVrestaurant
p259
aVthe
p260
aa(lp261
Vnsubj
p262
aVserved
p263
aVrestaurant
p264
aa(lp265
Vnum
p266
aVburgers
p267
aV75
p268
aa(lp269
Vdobj
p270
aVserved
p271
aVburgers
p272
aa(lp273
Vprep_in
p274
aVburgers
p275
aVall
p276
aa(lp277
Vnsubjpass
p278
aVdone
p279
aV30
p280
aa(lp281
Vprep_of
p282
aV30
p283
aVwhich
p284
aa(lp285
Vauxpass
p286
aVdone
p287
aVwere
p288
aa(lp289
Vadvmod
p290
aVdone
p291
aVwell
p292
aa(lp293
Vrcmod
p294
aVall
p295
aVdone
p296
aasVwords
p297
(lp298
(lp299
VLast
p300
a(dp301
VNormalizedNamedEntityTag
p302
VTNI
p303
sVTimex
p304
V<TIMEX3 alt_value="TNI OFFSET P-1D" anchorTimeID="t2" temporalFunction="true" tid="t1" type="DATE" valueFromFunction="tf0">Last night</TIMEX3>
p305
sVLemma
p306
Vlast
p307
sVCharacterOffsetEnd
p308
V69
p309
sVPartOfSpeech
p310
VJJ
p311
sVCharacterOffsetBegin
p312
V65
p313
sVNamedEntityTag
p314
VDATE
p315
saa(lp316
Vnight
p317
a(dp318
VNormalizedNamedEntityTag
p319
VTNI
p320
sVTimex
p321
V<TIMEX3 alt_value="TNI OFFSET P-1D" anchorTimeID="t2" temporalFunction="true" tid="t1" type="DATE" valueFromFunction="tf0">Last night</TIMEX3>
p322
sVLemma
p323
Vnight
p324
sVCharacterOffsetEnd
p325
V75
p326
sVPartOfSpeech
p327
VNN
p328
sVCharacterOffsetBegin
p329
V70
p330
sVNamedEntityTag
p331
VDATE
p332
saa(lp333
Vthe
p334
a(dp335
VNamedEntityTag
p336
g73
sVCharacterOffsetEnd
p337
V79
p338
sVCharacterOffsetBegin
p339
V76
p340
sVPartOfSpeech
p341
VDT
p342
sVLemma
p343
Vthe
p344
saa(lp345
Vrestaurant
p346
a(dp347
VNamedEntityTag
p348
g73
sVCharacterOffsetEnd
p349
V90
p350
sVCharacterOffsetBegin
p351
V80
p352
sVPartOfSpeech
p353
VNN
p354
sVLemma
p355
Vrestaurant
p356
saa(lp357
Vserved
p358
a(dp359
VNamedEntityTag
p360
g73
sVCharacterOffsetEnd
p361
V97
p362
sVCharacterOffsetBegin
p363
V91
p364
sVPartOfSpeech
p365
VVBD
p366
sVLemma
p367
Vserve
p368
saa(lp369
V75
p370
a(dp371
VNormalizedNamedEntityTag
p372
V75.0
p373
sVLemma
p374
V75
p375
sVCharacterOffsetEnd
p376
V100
p377
sVPartOfSpeech
p378
VCD
p379
sVCharacterOffsetBegin
p380
V98
p381
sVNamedEntityTag
p382
VNUMBER
p383
saa(lp384
Vburgers
p385
a(dp386
VNamedEntityTag
p387
g73
sVCharacterOffsetEnd
p388
V108
p389
sVCharacterOffsetBegin
p390
V101
p391
sVPartOfSpeech
p392
VNNS
p393
sVLemma
p394
Vburger
p395
saa(lp396
Vin
p397
a(dp398
VNamedEntityTag
p399
g73
sVCharacterOffsetEnd
p400
V111
p401
sVCharacterOffsetBegin
p402
V109
p403
sVPartOfSpeech
p404
VIN
p405
sVLemma
p406
Vin
p407
saa(lp408
Vall
p409
a(dp410
VNamedEntityTag
p411
g73
sVCharacterOffsetEnd
p412
V115
p413
sVCharacterOffsetBegin
p414
V112
p415
sVPartOfSpeech
p416
VDT
p417
sVLemma
p418
Vall
p419
saa(lp420
V,
p421
a(dp422
VNamedEntityTag
p423
g73
sVCharacterOffsetEnd
p424
V117
p425
sVCharacterOffsetBegin
p426
V116
p427
sVPartOfSpeech
p428
g421
sVLemma
p429
g421
saa(lp430
V30
p431
a(dp432
VNormalizedNamedEntityTag
p433
V30.0
p434
sVLemma
p435
V30
p436
sVCharacterOffsetEnd
p437
V120
p438
sVPartOfSpeech
p439
VCD
p440
sVCharacterOffsetBegin
p441
V118
p442
sVNamedEntityTag
p443
VNUMBER
p444
saa(lp445
Vof
p446
a(dp447
VNamedEntityTag
p448
g73
sVCharacterOffsetEnd
p449
V123
p450
sVCharacterOffsetBegin
p451
V121
p452
sVPartOfSpeech
p453
VIN
p454
sVLemma
p455
Vof
p456
saa(lp457
Vwhich
p458
a(dp459
VNamedEntityTag
p460
g73
sVCharacterOffsetEnd
p461
V129
p462
sVCharacterOffsetBegin
p463
V124
p464
sVPartOfSpeech
p465
VWDT
p466
sVLemma
p467
Vwhich
p468
saa(lp469
Vwere
p470
a(dp471
VNamedEntityTag
p472
g73
sVCharacterOffsetEnd
p473
V134
p474
sVCharacterOffsetBegin
p475
V130
p476
sVPartOfSpeech
p477
VVBD
p478
sVLemma
p479
Vbe
p480
saa(lp481
Vwell
p482
a(dp483
VNamedEntityTag
p484
g73
sVCharacterOffsetEnd
p485
V139
p486
sVCharacterOffsetBegin
p487
V135
p488
sVPartOfSpeech
p489
VRB
p490
sVLemma
p491
Vwell
p492
saa(lp493
Vdone
p494
a(dp495
VNamedEntityTag
p496
g73
sVCharacterOffsetEnd
p497
V144
p498
sVCharacterOffsetBegin
p499
V140
p500
sVPartOfSpeech
p501
VVBN
p502
sVLemma
p503
Vdo
p504
saa(lp505
g191
a(dp506
VNamedEntityTag
p507
g73
sVCharacterOffsetEnd
p508
V146
p509
sVCharacterOffsetBegin
p510
V145
p511
sVPartOfSpeech
p512
g191
sVLemma
p513
g191
saasVindexeddependencies
p514
(lp515
(lp516
Vroot
p517
aVROOT-0
p518
aVserved-5
p519
aa(lp520
Vamod
p521
aVnight-2
p522
aVLast-1
p523
aa(lp524
Vtmod
p525
aVserved-5
p526
aVnight-2
p527
aa(lp528
Vdet
p529
aVrestaurant-4
p530
aVthe-3
p531
aa(lp532
Vnsubj
p533
aVserved-5
p534
aVrestaurant-4
p535
aa(lp536
Vnum
p537
aVburgers-7
p538
aV75-6
p539
aa(lp540
Vdobj
p541
aVserved-5
p542
aVburgers-7
p543
aa(lp544
Vprep_in
p545
aVburgers-7
p546
aVall-9
p547
aa(lp548
Vnsubjpass
p549
aVdone-16
p550
aV30-11
p551
aa(lp552
Vprep_of
p553
aV30-11
p554
aVwhich-13
p555
aa(lp556
Vauxpass
p557
aVdone-16
p558
aVwere-14
p559
aa(lp560
Vadvmod
p561
aVdone-16
p562
aVwell-15
p563
aa(lp564
Vrcmod
p565
aVall-9
p566
aVdone-16
p567
aasa(dp568
Vparsetree
p569
V(ROOT (SBARQ (WHNP (WHNP (WDT What) (NN percentage)) (PP (IN of) (NP (DT the) (NNS burgers)))) (SQ (VBD were) (ADVP (RB well)) (VP (VBN done))) (. ?)))
p570
sVtext
p571
VWhat percentage of the burgers were well done ?
p572
sVdependencies
p573
(lp574
(lp575
Vroot
p576
aVROOT
p577
aVdone
p578
aa(lp579
Vdet
p580
aVpercentage
p581
aVWhat
p582
aa(lp583
Vnsubjpass
p584
aVdone
p585
aVpercentage
p586
aa(lp587
Vdet
p588
aVburgers
p589
aVthe
p590
aa(lp591
Vprep_of
p592
aVpercentage
p593
aVburgers
p594
aa(lp595
Vauxpass
p596
aVdone
p597
aVwere
p598
aa(lp599
Vadvmod
p600
aVdone
p601
aVwell
p602
aasVwords
p603
(lp604
(lp605
VWhat
p606
a(dp607
VNamedEntityTag
p608
g73
sVCharacterOffsetEnd
p609
V151
p610
sVCharacterOffsetBegin
p611
V147
p612
sVPartOfSpeech
p613
VWDT
p614
sVLemma
p615
Vwhat
p616
saa(lp617
Vpercentage
p618
a(dp619
VNamedEntityTag
p620
g73
sVCharacterOffsetEnd
p621
V162
p622
sVCharacterOffsetBegin
p623
V152
p624
sVPartOfSpeech
p625
VNN
p626
sVLemma
p627
Vpercentage
p628
saa(lp629
Vof
p630
a(dp631
VNamedEntityTag
p632
g73
sVCharacterOffsetEnd
p633
V165
p634
sVCharacterOffsetBegin
p635
V163
p636
sVPartOfSpeech
p637
VIN
p638
sVLemma
p639
Vof
p640
saa(lp641
Vthe
p642
a(dp643
VNamedEntityTag
p644
g73
sVCharacterOffsetEnd
p645
V169
p646
sVCharacterOffsetBegin
p647
V166
p648
sVPartOfSpeech
p649
VDT
p650
sVLemma
p651
Vthe
p652
saa(lp653
Vburgers
p654
a(dp655
VNamedEntityTag
p656
g73
sVCharacterOffsetEnd
p657
V177
p658
sVCharacterOffsetBegin
p659
V170
p660
sVPartOfSpeech
p661
VNNS
p662
sVLemma
p663
Vburger
p664
saa(lp665
Vwere
p666
a(dp667
VNamedEntityTag
p668
g73
sVCharacterOffsetEnd
p669
V182
p670
sVCharacterOffsetBegin
p671
V178
p672
sVPartOfSpeech
p673
VVBD
p674
sVLemma
p675
Vbe
p676
saa(lp677
Vwell
p678
a(dp679
VNamedEntityTag
p680
g73
sVCharacterOffsetEnd
p681
V187
p682
sVCharacterOffsetBegin
p683
V183
p684
sVPartOfSpeech
p685
VRB
p686
sVLemma
p687
Vwell
p688
saa(lp689
Vdone
p690
a(dp691
VNamedEntityTag
p692
g73
sVCharacterOffsetEnd
p693
V192
p694
sVCharacterOffsetBegin
p695
V188
p696
sVPartOfSpeech
p697
VVBN
p698
sVLemma
p699
Vdo
p700
saa(lp701
V?
p702
a(dp703
VNamedEntityTag
p704
g73
sVCharacterOffsetEnd
p705
V194
p706
sVCharacterOffsetBegin
p707
V193
p708
sVPartOfSpeech
p709
g191
sVLemma
p710
g702
saasVindexeddependencies
p711
(lp712
(lp713
Vroot
p714
aVROOT-0
p715
aVdone-8
p716
aa(lp717
Vdet
p718
aVpercentage-2
p719
aVWhat-1
p720
aa(lp721
Vnsubjpass
p722
aVdone-8
p723
aVpercentage-2
p724
aa(lp725
Vdet
p726
aVburgers-5
p727
aVthe-4
p728
aa(lp729
Vprep_of
p730
aVpercentage-2
p731
aVburgers-5
p732
aa(lp733
Vauxpass
p734
aVdone-8
p735
aVwere-6
p736
aa(lp737
Vadvmod
p738
aVdone-8
p739
aVwell-7
p740
aasas.