(dp0
Vcoref
p1
(lp2
(lp3
(lp4
(lp5
Vhe
p6
aI1
aI11
aI11
aI12
aa(lp7
VJerry
p8
aI0
aI0
aI0
aI1
aaa(lp9
(lp10
Vhis
p11
aI1
aI15
aI15
aI16
aa(lp12
VJerry
p13
aI0
aI0
aI0
aI1
aaaa(lp14
(lp15
(lp16
Vhis collection
p17
aI1
aI16
aI15
aI17
aa(lp18
Va complete collection
p19
aI0
aI13
aI11
aI14
aaaasVsentences
p20
(lp21
(dp22
Vparsetree
p23
V(ROOT (S (NP (NNP Jerry)) (VP (VP (VBD had) (NP (CD 7) (NN action) (NNS figures))) (, ,) (CC but) (VP (VBD needed) (NP (NP (CD 16) (NN total)) (PP (IN for) (NP (DT a) (JJ complete) (NN collection)))))) (. .)))
p24
sVtext
p25
VJerry had 7 action figures , but needed 16 total for a complete collection .
p26
sVdependencies
p27
(lp28
(lp29
Vroot
p30
aVROOT
p31
aVhad
p32
aa(lp33
Vnsubj
p34
aVhad
p35
aVJerry
p36
aa(lp37
Vnum
p38
aVfigures
p39
aV7
p40
aa(lp41
Vnn
p42
aVfigures
p43
aVaction
p44
aa(lp45
Vdobj
p46
aVhad
p47
aVfigures
p48
aa(lp49
Vconj_but
p50
aVhad
p51
aVneeded
p52
aa(lp53
Vnum
p54
aVtotal
p55
aV16
p56
aa(lp57
Vdobj
p58
aVneeded
p59
aVtotal
p60
aa(lp61
Vdet
p62
aVcollection
p63
aVa
p64
aa(lp65
Vamod
p66
aVcollection
p67
aVcomplete
p68
aa(lp69
Vprep_for
p70
aVtotal
p71
aVcollection
p72
aasVwords
p73
(lp74
(lp75
VJerry
p76
a(dp77
VNamedEntityTag
p78
VPERSON
p79
sVCharacterOffsetEnd
p80
V6
p81
sVCharacterOffsetBegin
p82
V1
p83
sVPartOfSpeech
p84
VNNP
p85
sVLemma
p86
VJerry
p87
saa(lp88
Vhad
p89
a(dp90
VNamedEntityTag
p91
VO
p92
sVCharacterOffsetEnd
p93
V10
p94
sVCharacterOffsetBegin
p95
g40
sVPartOfSpeech
p96
VVBD
p97
sVLemma
p98
Vhave
p99
saa(lp100
g40
a(dp101
VNormalizedNamedEntityTag
p102
V7.0
p103
sVLemma
p104
g40
sVCharacterOffsetEnd
p105
V12
p106
sVPartOfSpeech
p107
VCD
p108
sVCharacterOffsetBegin
p109
V11
p110
sVNamedEntityTag
p111
VNUMBER
p112
saa(lp113
Vaction
p114
a(dp115
VNamedEntityTag
p116
g92
sVCharacterOffsetEnd
p117
V19
p118
sVCharacterOffsetBegin
p119
V13
p120
sVPartOfSpeech
p121
VNN
p122
sVLemma
p123
Vaction
p124
saa(lp125
Vfigures
p126
a(dp127
VNamedEntityTag
p128
g92
sVCharacterOffsetEnd
p129
V27
p130
sVCharacterOffsetBegin
p131
V20
p132
sVPartOfSpeech
p133
VNNS
p134
sVLemma
p135
Vfigure
p136
saa(lp137
V,
p138
a(dp139
VNamedEntityTag
p140
g92
sVCharacterOffsetEnd
p141
V29
p142
sVCharacterOffsetBegin
p143
V28
p144
sVPartOfSpeech
p145
g138
sVLemma
p146
g138
saa(lp147
Vbut
p148
a(dp149
VNamedEntityTag
p150
g92
sVCharacterOffsetEnd
p151
V33
p152
sVCharacterOffsetBegin
p153
V30
p154
sVPartOfSpeech
p155
VCC
p156
sVLemma
p157
Vbut
p158
saa(lp159
Vneeded
p160
a(dp161
VNamedEntityTag
p162
g92
sVCharacterOffsetEnd
p163
V40
p164
sVCharacterOffsetBegin
p165
V34
p166
sVPartOfSpeech
p167
VVBD
p168
sVLemma
p169
Vneed
p170
saa(lp171
V16
p172
a(dp173
VNormalizedNamedEntityTag
p174
V16.0
p175
sVLemma
p176
V16
p177
sVCharacterOffsetEnd
p178
V43
p179
sVPartOfSpeech
p180
VCD
p181
sVCharacterOffsetBegin
p182
V41
p183
sVNamedEntityTag
p184
VNUMBER
p185
saa(lp186
Vtotal
p187
a(dp188
VNamedEntityTag
p189
g92
sVCharacterOffsetEnd
p190
V49
p191
sVCharacterOffsetBegin
p192
V44
p193
sVPartOfSpeech
p194
VNN
p195
sVLemma
p196
Vtotal
p197
saa(lp198
Vfor
p199
a(dp200
VNamedEntityTag
p201
g92
sVCharacterOffsetEnd
p202
V53
p203
sVCharacterOffsetBegin
p204
V50
p205
sVPartOfSpeech
p206
VIN
p207
sVLemma
p208
Vfor
p209
saa(lp210
g64
a(dp211
VNamedEntityTag
p212
g92
sVCharacterOffsetEnd
p213
V55
p214
sVCharacterOffsetBegin
p215
V54
p216
sVPartOfSpeech
p217
VDT
p218
sVLemma
p219
g64
saa(lp220
Vcomplete
p221
a(dp222
VNamedEntityTag
p223
g92
sVCharacterOffsetEnd
p224
V64
p225
sVCharacterOffsetBegin
p226
V56
p227
sVPartOfSpeech
p228
VJJ
p229
sVLemma
p230
Vcomplete
p231
saa(lp232
Vcollection
p233
a(dp234
VNamedEntityTag
p235
g92
sVCharacterOffsetEnd
p236
V75
p237
sVCharacterOffsetBegin
p238
V65
p239
sVPartOfSpeech
p240
VNN
p241
sVLemma
p242
Vcollection
p243
saa(lp244
V.
p245
a(dp246
VNamedEntityTag
p247
g92
sVCharacterOffsetEnd
p248
V77
p249
sVCharacterOffsetBegin
p250
V76
p251
sVPartOfSpeech
p252
g245
sVLemma
p253
g245
saasVindexeddependencies
p254
(lp255
(lp256
Vroot
p257
aVROOT-0
p258
aVhad-2
p259
aa(lp260
Vnsubj
p261
aVhad-2
p262
aVJerry-1
p263
aa(lp264
Vnum
p265
aVfigures-5
p266
aV7-3
p267
aa(lp268
Vnn
p269
aVfigures-5
p270
aVaction-4
p271
aa(lp272
Vdobj
p273
aVhad-2
p274
aVfigures-5
p275
aa(lp276
Vconj_but
p277
aVhad-2
p278
aVneeded-8
p279
aa(lp280
Vnum
p281
aVtotal-10
p282
aV16-9
p283
aa(lp284
Vdobj
p285
aVneeded-8
p286
aVtotal-10
p287
aa(lp288
Vdet
p289
aVcollection-14
p290
aVa-12
p291
aa(lp292
Vamod
p293
aVcollection-14
p294
aVcomplete-13
p295
aa(lp296
Vprep_for
p297
aVtotal-10
p298
aVcollection-14
p299
aasa(dp300
Vparsetree
p301
V(ROOT (SBARQ (SBAR (IN If) (FRAG (NP (NP (DT each) (CD one) (NNS costs)) (ADJP ($ $) (CD 8))))) (, ,) (WHNP (WHADJP (WRB how) (JJ much)) (NN money)) (SQ (MD would) (NP (PRP he)) (VP (VB need) (S (VP (TO to) (VP (VB finish) (NP (PRP$ his) (NN collection)))))) (. ?))))
p302
sVtext
p303
VIf each one costs $8 , how much money would he need to finish his collection ?
p304
sVdependencies
p305
(lp306
(lp307
Vroot
p308
aVROOT
p309
aVneed
p310
aa(lp311
Vmark
p312
aVcosts
p313
aVIf
p314
aa(lp315
Vdet
p316
aVcosts
p317
aVeach
p318
aa(lp319
Vnum
p320
aVcosts
p321
aVone
p322
aa(lp323
Vadvcl
p324
aVneed
p325
aVcosts
p326
aa(lp327
Vamod
p328
aVcosts
p329
aV$
p330
aa(lp331
Vnumber
p332
ag330
aV8
p333
aa(lp334
Vadvmod
p335
aVmuch
p336
aVhow
p337
aa(lp338
Vamod
p339
aVmoney
p340
aVmuch
p341
aa(lp342
Vdep
p343
aVneed
p344
aVmoney
p345
aa(lp346
Vaux
p347
aVneed
p348
aVwould
p349
aa(lp350
Vnsubj
p351
aVneed
p352
aVhe
p353
aa(lp354
Vaux
p355
aVfinish
p356
aVto
p357
aa(lp358
Vxcomp
p359
aVneed
p360
aVfinish
p361
aa(lp362
Vposs
p363
aVcollection
p364
aVhis
p365
aa(lp366
Vdobj
p367
aVfinish
p368
aVcollection
p369
aasVwords
p370
(lp371
(lp372
VIf
p373
a(dp374
VNamedEntityTag
p375
g92
sVCharacterOffsetEnd
p376
V80
p377
sVCharacterOffsetBegin
p378
V78
p379
sVPartOfSpeech
p380
VIN
p381
sVLemma
p382
Vif
p383
saa(lp384
Veach
p385
a(dp386
VNamedEntityTag
p387
g92
sVCharacterOffsetEnd
p388
V85
p389
sVCharacterOffsetBegin
p390
V81
p391
sVPartOfSpeech
p392
VDT
p393
sVLemma
p394
Veach
p395
saa(lp396
Vone
p397
a(dp398
VNormalizedNamedEntityTag
p399
V1.0
p400
sVLemma
p401
Vone
p402
sVCharacterOffsetEnd
p403
V89
p404
sVPartOfSpeech
p405
VCD
p406
sVCharacterOffsetBegin
p407
V86
p408
sVNamedEntityTag
p409
VNUMBER
p410
saa(lp411
Vcosts
p412
a(dp413
VNamedEntityTag
p414
g92
sVCharacterOffsetEnd
p415
V95
p416
sVCharacterOffsetBegin
p417
V90
p418
sVPartOfSpeech
p419
VNNS
p420
sVLemma
p421
Vcost
p422
saa(lp423
g330
a(dp424
VNormalizedNamedEntityTag
p425
V$8.0
p426
sVLemma
p427
g330
sVCharacterOffsetEnd
p428
V97
p429
sVPartOfSpeech
p430
g330
sVCharacterOffsetBegin
p431
V96
p432
sVNamedEntityTag
p433
VMONEY
p434
saa(lp435
g333
a(dp436
VNormalizedNamedEntityTag
p437
V$8.0
p438
sVLemma
p439
g333
sVCharacterOffsetEnd
p440
V98
p441
sVPartOfSpeech
p442
VCD
p443
sVCharacterOffsetBegin
p444
V97
p445
sVNamedEntityTag
p446
VMONEY
p447
saa(lp448
g138
a(dp449
VNamedEntityTag
p450
g92
sVCharacterOffsetEnd
p451
V100
p452
sVCharacterOffsetBegin
p453
V99
p454
sVPartOfSpeech
p455
g138
sVLemma
p456
g138
saa(lp457
Vhow
p458
a(dp459
VNamedEntityTag
p460
g92
sVCharacterOffsetEnd
p461
V104
p462
sVCharacterOffsetBegin
p463
V101
p464
sVPartOfSpeech
p465
VWRB
p466
sVLemma
p467
Vhow
p468
saa(lp469
Vmuch
p470
a(dp471
VNamedEntityTag
p472
g92
sVCharacterOffsetEnd
p473
V109
p474
sVCharacterOffsetBegin
p475
V105
p476
sVPartOfSpeech
p477
VJJ
p478
sVLemma
p479
Vmuch
p480
saa(lp481
Vmoney
p482
a(dp483
VNamedEntityTag
p484
g92
sVCharacterOffsetEnd
p485
V115
p486
sVCharacterOffsetBegin
p487
V110
p488
sVPartOfSpeech
p489
VNN
p490
sVLemma
p491
Vmoney
p492
saa(lp493
Vwould
p494
a(dp495
VNamedEntityTag
p496
g92
sVCharacterOffsetEnd
p497
V121
p498
sVCharacterOffsetBegin
p499
V116
p500
sVPartOfSpeech
p501
VMD
p502
sVLemma
p503
Vwould
p504
saa(lp505
Vhe
p506
a(dp507
VNamedEntityTag
p508
g92
sVCharacterOffsetEnd
p509
V124
p510
sVCharacterOffsetBegin
p511
V122
p512
sVPartOfSpeech
p513
VPRP
p514
sVLemma
p515
Vhe
p516
saa(lp517
Vneed
p518
a(dp519
VNamedEntityTag
p520
g92
sVCharacterOffsetEnd
p521
V129
p522
sVCharacterOffsetBegin
p523
V125
p524
sVPartOfSpeech
p525
VVB
p526
sVLemma
p527
Vneed
p528
saa(lp529
Vto
p530
a(dp531
VNamedEntityTag
p532
g92
sVCharacterOffsetEnd
p533
V132
p534
sVCharacterOffsetBegin
p535
V130
p536
sVPartOfSpeech
p537
VTO
p538
sVLemma
p539
Vto
p540
saa(lp541
Vfinish
p542
a(dp543
VNamedEntityTag
p544
g92
sVCharacterOffsetEnd
p545
V139
p546
sVCharacterOffsetBegin
p547
V133
p548
sVPartOfSpeech
p549
VVB
p550
sVLemma
p551
Vfinish
p552
saa(lp553
Vhis
p554
a(dp555
VNamedEntityTag
p556
g92
sVCharacterOffsetEnd
p557
V143
p558
sVCharacterOffsetBegin
p559
V140
p560
sVPartOfSpeech
p561
VPRP$
p562
sVLemma
p563
Vhe
p564
saa(lp565
Vcollection
p566
a(dp567
VNamedEntityTag
p568
g92
sVCharacterOffsetEnd
p569
V154
p570
sVCharacterOffsetBegin
p571
V144
p572
sVPartOfSpeech
p573
VNN
p574
sVLemma
p575
Vcollection
p576
saa(lp577
V?
p578
a(dp579
VNamedEntityTag
p580
g92
sVCharacterOffsetEnd
p581
V156
p582
sVCharacterOffsetBegin
p583
V155
p584
sVPartOfSpeech
p585
g245
sVLemma
p586
g578
saasVindexeddependencies
p587
(lp588
(lp589
Vroot
p590
aVROOT-0
p591
aVneed-13
p592
aa(lp593
Vmark
p594
aVcosts-4
p595
aVIf-1
p596
aa(lp597
Vdet
p598
aVcosts-4
p599
aVeach-2
p600
aa(lp601
Vnum
p602
aVcosts-4
p603
aVone-3
p604
aa(lp605
Vadvcl
p606
aVneed-13
p607
aVcosts-4
p608
aa(lp609
Vamod
p610
aVcosts-4
p611
aV$-5
p612
aa(lp613
Vnumber
p614
aV$-5
p615
aV8-6
p616
aa(lp617
Vadvmod
p618
aVmuch-9
p619
aVhow-8
p620
aa(lp621
Vamod
p622
aVmoney-10
p623
aVmuch-9
p624
aa(lp625
Vdep
p626
aVneed-13
p627
aVmoney-10
p628
aa(lp629
Vaux
p630
aVneed-13
p631
aVwould-11
p632
aa(lp633
Vnsubj
p634
aVneed-13
p635
aVhe-12
p636
aa(lp637
Vaux
p638
aVfinish-15
p639
aVto-14
p640
aa(lp641
Vxcomp
p642
aVneed-13
p643
aVfinish-15
p644
aa(lp645
Vposs
p646
aVcollection-17
p647
aVhis-16
p648
aa(lp649
Vdobj
p650
aVfinish-15
p651
aVcollection-17
p652
aasas.