(dp0
Vcoref
p1
(lp2
(lp3
(lp4
(lp5
Vthey
p6
aI1
aI12
aI12
aI13
aa(lp7
V16 friends playing a video game online when 7 players quit
p8
aI0
aI3
aI2
aI13
aaaasVsentences
p9
(lp10
(dp11
Vparsetree
p12
V(ROOT (S (NP (EX There)) (VP (VBD were) (NP (NP (CD 16) (NNS friends)) (VP (VBG playing) (NP (DT a) (NN video) (NN game)) (PP (NN online)) (SBAR (WHADVP (WRB when)) (S (NP (CD 7) (NNS players)) (VP (VBD quit))))))) (. .)))
p13
sVtext
p14
VThere were 16 friends playing a video game online when 7 players quit .
p15
sVdependencies
p16
(lp17
(lp18
Vroot
p19
aVROOT
p20
aVwere
p21
aa(lp22
Vexpl
p23
aVwere
p24
aVThere
p25
aa(lp26
Vnum
p27
aVfriends
p28
aV16
p29
aa(lp30
Vnsubj
p31
aVwere
p32
aVfriends
p33
aa(lp34
Vvmod
p35
aVfriends
p36
aVplaying
p37
aa(lp38
Vdet
p39
aVgame
p40
aVa
p41
aa(lp42
Vnn
p43
aVgame
p44
aVvideo
p45
aa(lp46
Vdobj
p47
aVplaying
p48
aVgame
p49
aa(lp50
Vprep
p51
aVplaying
p52
aVonline
p53
aa(lp54
Vadvmod
p55
aVquit
p56
aVwhen
p57
aa(lp58
Vnum
p59
aVplayers
p60
aV7
p61
aa(lp62
Vnsubj
p63
aVquit
p64
aVplayers
p65
aa(lp66
Vadvcl
p67
aVplaying
p68
aVquit
p69
aasVwords
p70
(lp71
(lp72
VThere
p73
a(dp74
VNamedEntityTag
p75
VO
p76
sVCharacterOffsetEnd
p77
V6
p78
sVCharacterOffsetBegin
p79
V1
p80
sVPartOfSpeech
p81
VEX
p82
sVLemma
p83
Vthere
p84
saa(lp85
Vwere
p86
a(dp87
VNamedEntityTag
p88
g76
sVCharacterOffsetEnd
p89
V11
p90
sVCharacterOffsetBegin
p91
g61
sVPartOfSpeech
p92
VVBD
p93
sVLemma
p94
Vbe
p95
saa(lp96
V16
p97
a(dp98
VNormalizedNamedEntityTag
p99
V16.0
p100
sVLemma
p101
V16
p102
sVCharacterOffsetEnd
p103
V14
p104
sVPartOfSpeech
p105
VCD
p106
sVCharacterOffsetBegin
p107
V12
p108
sVNamedEntityTag
p109
VNUMBER
p110
saa(lp111
Vfriends
p112
a(dp113
VNamedEntityTag
p114
g76
sVCharacterOffsetEnd
p115
V22
p116
sVCharacterOffsetBegin
p117
V15
p118
sVPartOfSpeech
p119
VNNS
p120
sVLemma
p121
Vfriend
p122
saa(lp123
Vplaying
p124
a(dp125
VNamedEntityTag
p126
g76
sVCharacterOffsetEnd
p127
V30
p128
sVCharacterOffsetBegin
p129
V23
p130
sVPartOfSpeech
p131
VVBG
p132
sVLemma
p133
Vplay
p134
saa(lp135
g41
a(dp136
VNamedEntityTag
p137
g76
sVCharacterOffsetEnd
p138
V32
p139
sVCharacterOffsetBegin
p140
V31
p141
sVPartOfSpeech
p142
VDT
p143
sVLemma
p144
g41
saa(lp145
Vvideo
p146
a(dp147
VNamedEntityTag
p148
g76
sVCharacterOffsetEnd
p149
V38
p150
sVCharacterOffsetBegin
p151
V33
p152
sVPartOfSpeech
p153
VNN
p154
sVLemma
p155
Vvideo
p156
saa(lp157
Vgame
p158
a(dp159
VNamedEntityTag
p160
g76
sVCharacterOffsetEnd
p161
V43
p162
sVCharacterOffsetBegin
p163
V39
p164
sVPartOfSpeech
p165
VNN
p166
sVLemma
p167
Vgame
p168
saa(lp169
Vonline
p170
a(dp171
VNamedEntityTag
p172
g76
sVCharacterOffsetEnd
p173
V50
p174
sVCharacterOffsetBegin
p175
V44
p176
sVPartOfSpeech
p177
VNN
p178
sVLemma
p179
Vonline
p180
saa(lp181
Vwhen
p182
a(dp183
VNamedEntityTag
p184
g76
sVCharacterOffsetEnd
p185
V55
p186
sVCharacterOffsetBegin
p187
V51
p188
sVPartOfSpeech
p189
VWRB
p190
sVLemma
p191
Vwhen
p192
saa(lp193
g61
a(dp194
VNormalizedNamedEntityTag
p195
V7.0
p196
sVLemma
p197
g61
sVCharacterOffsetEnd
p198
V57
p199
sVPartOfSpeech
p200
VCD
p201
sVCharacterOffsetBegin
p202
V56
p203
sVNamedEntityTag
p204
VNUMBER
p205
saa(lp206
Vplayers
p207
a(dp208
VNamedEntityTag
p209
g76
sVCharacterOffsetEnd
p210
V65
p211
sVCharacterOffsetBegin
p212
V58
p213
sVPartOfSpeech
p214
VNNS
p215
sVLemma
p216
Vplayer
p217
saa(lp218
Vquit
p219
a(dp220
VNamedEntityTag
p221
g76
sVCharacterOffsetEnd
p222
V70
p223
sVCharacterOffsetBegin
p224
V66
p225
sVPartOfSpeech
p226
VVBD
p227
sVLemma
p228
Vquit
p229
saa(lp230
V.
p231
a(dp232
VNamedEntityTag
p233
g76
sVCharacterOffsetEnd
p234
V72
p235
sVCharacterOffsetBegin
p236
V71
p237
sVPartOfSpeech
p238
g231
sVLemma
p239
g231
saasVindexeddependencies
p240
(lp241
(lp242
Vroot
p243
aVROOT-0
p244
aVwere-2
p245
aa(lp246
Vexpl
p247
aVwere-2
p248
aVThere-1
p249
aa(lp250
Vnum
p251
aVfriends-4
p252
aV16-3
p253
aa(lp254
Vnsubj
p255
aVwere-2
p256
aVfriends-4
p257
aa(lp258
Vvmod
p259
aVfriends-4
p260
aVplaying-5
p261
aa(lp262
Vdet
p263
aVgame-8
p264
aVa-6
p265
aa(lp266
Vnn
p267
aVgame-8
p268
aVvideo-7
p269
aa(lp270
Vdobj
p271
aVplaying-5
p272
aVgame-8
p273
aa(lp274
Vprep
p275
aVplaying-5
p276
aVonline-9
p277
aa(lp278
Vadvmod
p279
aVquit-13
p280
aVwhen-10
p281
aa(lp282
Vnum
p283
aVplayers-12
p284
aV7-11
p285
aa(lp286
Vnsubj
p287
aVquit-13
p288
aVplayers-12
p289
aa(lp290
Vadvcl
p291
aVplaying-5
p292
aVquit-13
p293
aasa(dp294
Vparsetree
p295
V(ROOT (SBARQ (SBAR (IN If) (S (NP (DT each) (NN player)) (VP (VBD left) (SBAR (S (VP (VBD had) (NP (CD 8) (NNS lives)))))))) (, ,) (WHNP (WHADJP (WRB how) (JJ many)) (NNS lives)) (SQ (VBD did) (NP (PRP they)) (VP (VBP have) (NP (JJ total)))) (. ?)))
p296
sVtext
p297
VIf each player left had 8 lives , how many lives did they have total ?
p298
sVdependencies
p299
(lp300
(lp301
Vroot
p302
aVROOT
p303
aVhave
p304
aa(lp305
Vmark
p306
aVleft
p307
aVIf
p308
aa(lp309
Vdet
p310
aVplayer
p311
aVeach
p312
aa(lp313
Vnsubj
p314
aVleft
p315
aVplayer
p316
aa(lp317
Vadvcl
p318
aVhave
p319
aVleft
p320
aa(lp321
Vccomp
p322
aVleft
p323
aVhad
p324
aa(lp325
Vnum
p326
aVlives
p327
aV8
p328
aa(lp329
Vdobj
p330
aVhad
p331
aVlives
p332
aa(lp333
Vadvmod
p334
aVmany
p335
aVhow
p336
aa(lp337
Vamod
p338
aVlives
p339
aVmany
p340
aa(lp341
Vdep
p342
aVhave
p343
aVlives
p344
aa(lp345
Vaux
p346
aVhave
p347
aVdid
p348
aa(lp349
Vnsubj
p350
aVhave
p351
aVthey
p352
aa(lp353
Vdobj
p354
aVhave
p355
aVtotal
p356
aasVwords
p357
(lp358
(lp359
VIf
p360
a(dp361
VNamedEntityTag
p362
g76
sVCharacterOffsetEnd
p363
V75
p364
sVCharacterOffsetBegin
p365
V73
p366
sVPartOfSpeech
p367
VIN
p368
sVLemma
p369
Vif
p370
saa(lp371
Veach
p372
a(dp373
VNamedEntityTag
p374
g76
sVCharacterOffsetEnd
p375
V80
p376
sVCharacterOffsetBegin
p377
V76
p378
sVPartOfSpeech
p379
VDT
p380
sVLemma
p381
Veach
p382
saa(lp383
Vplayer
p384
a(dp385
VNamedEntityTag
p386
g76
sVCharacterOffsetEnd
p387
V87
p388
sVCharacterOffsetBegin
p389
V81
p390
sVPartOfSpeech
p391
VNN
p392
sVLemma
p393
Vplayer
p394
saa(lp395
Vleft
p396
a(dp397
VNamedEntityTag
p398
g76
sVCharacterOffsetEnd
p399
V92
p400
sVCharacterOffsetBegin
p401
V88
p402
sVPartOfSpeech
p403
VVBD
p404
sVLemma
p405
Vleave
p406
saa(lp407
Vhad
p408
a(dp409
VNamedEntityTag
p410
g76
sVCharacterOffsetEnd
p411
V96
p412
sVCharacterOffsetBegin
p413
V93
p414
sVPartOfSpeech
p415
VVBD
p416
sVLemma
p417
Vhave
p418
saa(lp419
g328
a(dp420
VNormalizedNamedEntityTag
p421
V8.0
p422
sVLemma
p423
g328
sVCharacterOffsetEnd
p424
V98
p425
sVPartOfSpeech
p426
VCD
p427
sVCharacterOffsetBegin
p428
V97
p429
sVNamedEntityTag
p430
VNUMBER
p431
saa(lp432
Vlives
p433
a(dp434
VNamedEntityTag
p435
g76
sVCharacterOffsetEnd
p436
V104
p437
sVCharacterOffsetBegin
p438
V99
p439
sVPartOfSpeech
p440
VNNS
p441
sVLemma
p442
Vlife
p443
saa(lp444
V,
p445
a(dp446
VNamedEntityTag
p447
g76
sVCharacterOffsetEnd
p448
V106
p449
sVCharacterOffsetBegin
p450
V105
p451
sVPartOfSpeech
p452
g445
sVLemma
p453
g445
saa(lp454
Vhow
p455
a(dp456
VNamedEntityTag
p457
g76
sVCharacterOffsetEnd
p458
V110
p459
sVCharacterOffsetBegin
p460
V107
p461
sVPartOfSpeech
p462
VWRB
p463
sVLemma
p464
Vhow
p465
saa(lp466
Vmany
p467
a(dp468
VNamedEntityTag
p469
g76
sVCharacterOffsetEnd
p470
V115
p471
sVCharacterOffsetBegin
p472
V111
p473
sVPartOfSpeech
p474
VJJ
p475
sVLemma
p476
Vmany
p477
saa(lp478
Vlives
p479
a(dp480
VNamedEntityTag
p481
g76
sVCharacterOffsetEnd
p482
V121
p483
sVCharacterOffsetBegin
p484
V116
p485
sVPartOfSpeech
p486
VNNS
p487
sVLemma
p488
Vlife
p489
saa(lp490
Vdid
p491
a(dp492
VNamedEntityTag
p493
g76
sVCharacterOffsetEnd
p494
V125
p495
sVCharacterOffsetBegin
p496
V122
p497
sVPartOfSpeech
p498
VVBD
p499
sVLemma
p500
Vdo
p501
saa(lp502
Vthey
p503
a(dp504
VNamedEntityTag
p505
g76
sVCharacterOffsetEnd
p506
V130
p507
sVCharacterOffsetBegin
p508
V126
p509
sVPartOfSpeech
p510
VPRP
p511
sVLemma
p512
Vthey
p513
saa(lp514
Vhave
p515
a(dp516
VNamedEntityTag
p517
g76
sVCharacterOffsetEnd
p518
V135
p519
sVCharacterOffsetBegin
p520
V131
p521
sVPartOfSpeech
p522
VVBP
p523
sVLemma
p524
Vhave
p525
saa(lp526
Vtotal
p527
a(dp528
VNamedEntityTag
p529
g76
sVCharacterOffsetEnd
p530
V141
p531
sVCharacterOffsetBegin
p532
V136
p533
sVPartOfSpeech
p534
VJJ
p535
sVLemma
p536
Vtotal
p537
saa(lp538
V?
p539
a(dp540
VNamedEntityTag
p541
g76
sVCharacterOffsetEnd
p542
V143
p543
sVCharacterOffsetBegin
p544
V142
p545
sVPartOfSpeech
p546
g231
sVLemma
p547
g539
saasVindexeddependencies
p548
(lp549
(lp550
Vroot
p551
aVROOT-0
p552
aVhave-14
p553
aa(lp554
Vmark
p555
aVleft-4
p556
aVIf-1
p557
aa(lp558
Vdet
p559
aVplayer-3
p560
aVeach-2
p561
aa(lp562
Vnsubj
p563
aVleft-4
p564
aVplayer-3
p565
aa(lp566
Vadvcl
p567
aVhave-14
p568
aVleft-4
p569
aa(lp570
Vccomp
p571
aVleft-4
p572
aVhad-5
p573
aa(lp574
Vnum
p575
aVlives-7
p576
aV8-6
p577
aa(lp578
Vdobj
p579
aVhad-5
p580
aVlives-7
p581
aa(lp582
Vadvmod
p583
aVmany-10
p584
aVhow-9
p585
aa(lp586
Vamod
p587
aVlives-11
p588
aVmany-10
p589
aa(lp590
Vdep
p591
aVhave-14
p592
aVlives-11
p593
aa(lp594
Vaux
p595
aVhave-14
p596
aVdid-12
p597
aa(lp598
Vnsubj
p599
aVhave-14
p600
aVthey-13
p601
aa(lp602
Vdobj
p603
aVhave-14
p604
aVtotal-15
p605
aasas.