(dp0
Vcoref
p1
(lp2
(lp3
(lp4
(lp5
Vhe
p6
aI1
aI1
aI1
aI2
aa(lp7
VMike
p8
aI0
aI0
aI0
aI1
aaa(lp9
(lp10
Vhe
p11
aI1
aI17
aI17
aI18
aa(lp12
VMike
p13
aI0
aI0
aI0
aI1
aaaasVsentences
p14
(lp15
(dp16
Vparsetree
p17
V(ROOT (S (S (NP (NNP Mike)) (VP (VBD had) (NP (CD 16) (NN video) (NNS games)))) (CC but) (S (NP (NP (CD 8)) (PP (IN of) (NP (PRP them)))) (VP (VBD were) (RB n't) (VP (VBG working)))) (. .)))
p18
sVtext
p19
VMike had 16 video games but 8 of them weren't working .
p20
sVdependencies
p21
(lp22
(lp23
Vroot
p24
aVROOT
p25
aVhad
p26
aa(lp27
Vnsubj
p28
aVhad
p29
aVMike
p30
aa(lp31
Vnum
p32
aVgames
p33
aV16
p34
aa(lp35
Vnn
p36
aVgames
p37
aVvideo
p38
aa(lp39
Vdobj
p40
aVhad
p41
aVgames
p42
aa(lp43
Vnsubj
p44
aVworking
p45
aV8
p46
aa(lp47
Vprep_of
p48
ag46
aVthem
p49
aa(lp50
Vaux
p51
aVworking
p52
aVwere
p53
aa(lp54
Vneg
p55
aVworking
p56
aVn't
p57
aa(lp58
Vconj_but
p59
aVhad
p60
aVworking
p61
aasVwords
p62
(lp63
(lp64
VMike
p65
a(dp66
VNamedEntityTag
p67
VPERSON
p68
sVCharacterOffsetEnd
p69
V5
p70
sVCharacterOffsetBegin
p71
V1
p72
sVPartOfSpeech
p73
VNNP
p74
sVLemma
p75
VMike
p76
saa(lp77
Vhad
p78
a(dp79
VNamedEntityTag
p80
VO
p81
sVCharacterOffsetEnd
p82
V9
p83
sVCharacterOffsetBegin
p84
V6
p85
sVPartOfSpeech
p86
VVBD
p87
sVLemma
p88
Vhave
p89
saa(lp90
V16
p91
a(dp92
VNormalizedNamedEntityTag
p93
V16.0
p94
sVLemma
p95
V16
p96
sVCharacterOffsetEnd
p97
V12
p98
sVPartOfSpeech
p99
VCD
p100
sVCharacterOffsetBegin
p101
V10
p102
sVNamedEntityTag
p103
VNUMBER
p104
saa(lp105
Vvideo
p106
a(dp107
VNamedEntityTag
p108
g81
sVCharacterOffsetEnd
p109
V18
p110
sVCharacterOffsetBegin
p111
V13
p112
sVPartOfSpeech
p113
VNN
p114
sVLemma
p115
Vvideo
p116
saa(lp117
Vgames
p118
a(dp119
VNamedEntityTag
p120
g81
sVCharacterOffsetEnd
p121
V24
p122
sVCharacterOffsetBegin
p123
V19
p124
sVPartOfSpeech
p125
VNNS
p126
sVLemma
p127
Vgame
p128
saa(lp129
Vbut
p130
a(dp131
VNamedEntityTag
p132
g81
sVCharacterOffsetEnd
p133
V28
p134
sVCharacterOffsetBegin
p135
V25
p136
sVPartOfSpeech
p137
VCC
p138
sVLemma
p139
Vbut
p140
saa(lp141
g46
a(dp142
VNormalizedNamedEntityTag
p143
V8.0
p144
sVLemma
p145
g46
sVCharacterOffsetEnd
p146
V30
p147
sVPartOfSpeech
p148
VCD
p149
sVCharacterOffsetBegin
p150
V29
p151
sVNamedEntityTag
p152
VNUMBER
p153
saa(lp154
Vof
p155
a(dp156
VNamedEntityTag
p157
g81
sVCharacterOffsetEnd
p158
V33
p159
sVCharacterOffsetBegin
p160
V31
p161
sVPartOfSpeech
p162
VIN
p163
sVLemma
p164
Vof
p165
saa(lp166
Vthem
p167
a(dp168
VNamedEntityTag
p169
g81
sVCharacterOffsetEnd
p170
V38
p171
sVCharacterOffsetBegin
p172
V34
p173
sVPartOfSpeech
p174
VPRP
p175
sVLemma
p176
Vthey
p177
saa(lp178
Vwere
p179
a(dp180
VNamedEntityTag
p181
g81
sVCharacterOffsetEnd
p182
V43
p183
sVCharacterOffsetBegin
p184
V39
p185
sVPartOfSpeech
p186
VVBD
p187
sVLemma
p188
Vbe
p189
saa(lp190
Vn't
p191
a(dp192
VNamedEntityTag
p193
g81
sVCharacterOffsetEnd
p194
V46
p195
sVCharacterOffsetBegin
p196
V43
p197
sVPartOfSpeech
p198
VRB
p199
sVLemma
p200
Vnot
p201
saa(lp202
Vworking
p203
a(dp204
VNamedEntityTag
p205
g81
sVCharacterOffsetEnd
p206
V54
p207
sVCharacterOffsetBegin
p208
V47
p209
sVPartOfSpeech
p210
VVBG
p211
sVLemma
p212
Vwork
p213
saa(lp214
V.
p215
a(dp216
VNamedEntityTag
p217
g81
sVCharacterOffsetEnd
p218
V56
p219
sVCharacterOffsetBegin
p220
V55
p221
sVPartOfSpeech
p222
g215
sVLemma
p223
g215
saasVindexeddependencies
p224
(lp225
(lp226
Vroot
p227
aVROOT-0
p228
aVhad-2
p229
aa(lp230
Vnsubj
p231
aVhad-2
p232
aVMike-1
p233
aa(lp234
Vnum
p235
aVgames-5
p236
aV16-3
p237
aa(lp238
Vnn
p239
aVgames-5
p240
aVvideo-4
p241
aa(lp242
Vdobj
p243
aVhad-2
p244
aVgames-5
p245
aa(lp246
Vnsubj
p247
aVworking-12
p248
aV8-7
p249
aa(lp250
Vprep_of
p251
aV8-7
p252
aVthem-9
p253
aa(lp254
Vaux
p255
aVworking-12
p256
aVwere-10
p257
aa(lp258
Vneg
p259
aVworking-12
p260
aVn't-11
p261
aa(lp262
Vconj_but
p263
aVhad-2
p264
aVworking-12
p265
aasa(dp266
Vparsetree
p267
V(ROOT (SBARQ (SBAR (IN If) (S (NP (PRP he)) (VP (VBD wanted) (S (VP (TO to) (VP (VB sell) (NP (NP (DT the) (VBG working) (NNS games)) (PP (IN for) (NP (NP ($ $) (CD 7)) (NP (DT each))))))))))) (, ,) (WHNP (WHADJP (WRB how) (JJ much)) (NN money)) (SQ (MD could) (NP (PRP he)) (VP (VB earn))) (. ?)))
p268
sVtext
p269
VIf he wanted to sell the working games for $7 each , how much money could he earn ?
p270
sVdependencies
p271
(lp272
(lp273
Vroot
p274
aVROOT
p275
aVearn
p276
aa(lp277
Vmark
p278
aVwanted
p279
aVIf
p280
aa(lp281
Vnsubj
p282
aVwanted
p283
aVhe
p284
aa(lp285
Vadvcl
p286
aVearn
p287
aVwanted
p288
aa(lp289
Vaux
p290
aVsell
p291
aVto
p292
aa(lp293
Vxcomp
p294
aVwanted
p295
aVsell
p296
aa(lp297
Vdet
p298
aVgames
p299
aVthe
p300
aa(lp301
Vamod
p302
aVgames
p303
aVworking
p304
aa(lp305
Vdobj
p306
aVsell
p307
aVgames
p308
aa(lp309
Vprep_for
p310
aVgames
p311
aV$
p312
aa(lp313
Vnum
p314
ag312
aV7
p315
aa(lp316
Vdep
p317
ag312
aVeach
p318
aa(lp319
Vadvmod
p320
aVmuch
p321
aVhow
p322
aa(lp323
Vamod
p324
aVmoney
p325
aVmuch
p326
aa(lp327
Vdobj
p328
aVearn
p329
aVmoney
p330
aa(lp331
Vaux
p332
aVearn
p333
aVcould
p334
aa(lp335
Vnsubj
p336
aVearn
p337
aVhe
p338
aasVwords
p339
(lp340
(lp341
VIf
p342
a(dp343
VNamedEntityTag
p344
g81
sVCharacterOffsetEnd
p345
V59
p346
sVCharacterOffsetBegin
p347
V57
p348
sVPartOfSpeech
p349
VIN
p350
sVLemma
p351
Vif
p352
saa(lp353
Vhe
p354
a(dp355
VNamedEntityTag
p356
g81
sVCharacterOffsetEnd
p357
V62
p358
sVCharacterOffsetBegin
p359
V60
p360
sVPartOfSpeech
p361
VPRP
p362
sVLemma
p363
Vhe
p364
saa(lp365
Vwanted
p366
a(dp367
VNamedEntityTag
p368
g81
sVCharacterOffsetEnd
p369
V69
p370
sVCharacterOffsetBegin
p371
V63
p372
sVPartOfSpeech
p373
VVBD
p374
sVLemma
p375
Vwant
p376
saa(lp377
Vto
p378
a(dp379
VNamedEntityTag
p380
g81
sVCharacterOffsetEnd
p381
V72
p382
sVCharacterOffsetBegin
p383
V70
p384
sVPartOfSpeech
p385
VTO
p386
sVLemma
p387
Vto
p388
saa(lp389
Vsell
p390
a(dp391
VNamedEntityTag
p392
g81
sVCharacterOffsetEnd
p393
V77
p394
sVCharacterOffsetBegin
p395
V73
p396
sVPartOfSpeech
p397
VVB
p398
sVLemma
p399
Vsell
p400
saa(lp401
Vthe
p402
a(dp403
VNamedEntityTag
p404
g81
sVCharacterOffsetEnd
p405
V81
p406
sVCharacterOffsetBegin
p407
V78
p408
sVPartOfSpeech
p409
VDT
p410
sVLemma
p411
Vthe
p412
saa(lp413
Vworking
p414
a(dp415
VNamedEntityTag
p416
g81
sVCharacterOffsetEnd
p417
V89
p418
sVCharacterOffsetBegin
p419
V82
p420
sVPartOfSpeech
p421
VVBG
p422
sVLemma
p423
Vwork
p424
saa(lp425
Vgames
p426
a(dp427
VNamedEntityTag
p428
g81
sVCharacterOffsetEnd
p429
V95
p430
sVCharacterOffsetBegin
p431
V90
p432
sVPartOfSpeech
p433
VNNS
p434
sVLemma
p435
Vgame
p436
saa(lp437
Vfor
p438
a(dp439
VNamedEntityTag
p440
g81
sVCharacterOffsetEnd
p441
V99
p442
sVCharacterOffsetBegin
p443
V96
p444
sVPartOfSpeech
p445
VIN
p446
sVLemma
p447
Vfor
p448
saa(lp449
g312
a(dp450
VNormalizedNamedEntityTag
p451
V$7.0
p452
sVLemma
p453
g312
sVCharacterOffsetEnd
p454
V101
p455
sVPartOfSpeech
p456
g312
sVCharacterOffsetBegin
p457
V100
p458
sVNamedEntityTag
p459
VMONEY
p460
saa(lp461
g315
a(dp462
VNormalizedNamedEntityTag
p463
V$7.0
p464
sVLemma
p465
g315
sVCharacterOffsetEnd
p466
V102
p467
sVPartOfSpeech
p468
VCD
p469
sVCharacterOffsetBegin
p470
V101
p471
sVNamedEntityTag
p472
VMONEY
p473
saa(lp474
Veach
p475
a(dp476
VNamedEntityTag
p477
g81
sVCharacterOffsetEnd
p478
V107
p479
sVCharacterOffsetBegin
p480
V103
p481
sVPartOfSpeech
p482
VDT
p483
sVLemma
p484
Veach
p485
saa(lp486
V,
p487
a(dp488
VNamedEntityTag
p489
g81
sVCharacterOffsetEnd
p490
V109
p491
sVCharacterOffsetBegin
p492
V108
p493
sVPartOfSpeech
p494
g487
sVLemma
p495
g487
saa(lp496
Vhow
p497
a(dp498
VNamedEntityTag
p499
g81
sVCharacterOffsetEnd
p500
V113
p501
sVCharacterOffsetBegin
p502
V110
p503
sVPartOfSpeech
p504
VWRB
p505
sVLemma
p506
Vhow
p507
saa(lp508
Vmuch
p509
a(dp510
VNamedEntityTag
p511
g81
sVCharacterOffsetEnd
p512
V118
p513
sVCharacterOffsetBegin
p514
V114
p515
sVPartOfSpeech
p516
VJJ
p517
sVLemma
p518
Vmuch
p519
saa(lp520
Vmoney
p521
a(dp522
VNamedEntityTag
p523
g81
sVCharacterOffsetEnd
p524
V124
p525
sVCharacterOffsetBegin
p526
V119
p527
sVPartOfSpeech
p528
VNN
p529
sVLemma
p530
Vmoney
p531
saa(lp532
Vcould
p533
a(dp534
VNamedEntityTag
p535
g81
sVCharacterOffsetEnd
p536
V130
p537
sVCharacterOffsetBegin
p538
V125
p539
sVPartOfSpeech
p540
VMD
p541
sVLemma
p542
Vcould
p543
saa(lp544
Vhe
p545
a(dp546
VNamedEntityTag
p547
g81
sVCharacterOffsetEnd
p548
V133
p549
sVCharacterOffsetBegin
p550
V131
p551
sVPartOfSpeech
p552
VPRP
p553
sVLemma
p554
Vhe
p555
saa(lp556
Vearn
p557
a(dp558
VNamedEntityTag
p559
g81
sVCharacterOffsetEnd
p560
V138
p561
sVCharacterOffsetBegin
p562
V134
p563
sVPartOfSpeech
p564
VVB
p565
sVLemma
p566
Vearn
p567
saa(lp568
V?
p569
a(dp570
VNamedEntityTag
p571
g81
sVCharacterOffsetEnd
p572
V140
p573
sVCharacterOffsetBegin
p574
V139
p575
sVPartOfSpeech
p576
g215
sVLemma
p577
g569
saasVindexeddependencies
p578
(lp579
(lp580
Vroot
p581
aVROOT-0
p582
aVearn-19
p583
aa(lp584
Vmark
p585
aVwanted-3
p586
aVIf-1
p587
aa(lp588
Vnsubj
p589
aVwanted-3
p590
aVhe-2
p591
aa(lp592
Vadvcl
p593
aVearn-19
p594
aVwanted-3
p595
aa(lp596
Vaux
p597
aVsell-5
p598
aVto-4
p599
aa(lp600
Vxcomp
p601
aVwanted-3
p602
aVsell-5
p603
aa(lp604
Vdet
p605
aVgames-8
p606
aVthe-6
p607
aa(lp608
Vamod
p609
aVgames-8
p610
aVworking-7
p611
aa(lp612
Vdobj
p613
aVsell-5
p614
aVgames-8
p615
aa(lp616
Vprep_for
p617
aVgames-8
p618
aV$-10
p619
aa(lp620
Vnum
p621
aV$-10
p622
aV7-11
p623
aa(lp624
Vdep
p625
aV$-10
p626
aVeach-12
p627
aa(lp628
Vadvmod
p629
aVmuch-15
p630
aVhow-14
p631
aa(lp632
Vamod
p633
aVmoney-16
p634
aVmuch-15
p635
aa(lp636
Vdobj
p637
aVearn-19
p638
aVmoney-16
p639
aa(lp640
Vaux
p641
aVearn-19
p642
aVcould-17
p643
aa(lp644
Vnsubj
p645
aVearn-19
p646
aVhe-18
p647
aasas.