(dp0
Vcoref
p1
(lp2
(lp3
(lp4
(lp5
Vhe
p6
aI2
aI1
aI1
aI2
aa(lp7
VA painter
p8
aI0
aI1
aI0
aI2
aaa(lp9
(lp10
Vhe
p11
aI2
aI11
aI11
aI12
aa(lp12
VA painter
p13
aI0
aI1
aI0
aI2
aaaasVsentences
p14
(lp15
(dp16
Vparsetree
p17
V(ROOT (S (NP (DT A) (NN painter)) (VP (VBN needed) (S (VP (TO to) (VP (VB paint) (NP (NP (CD 12) (NNS rooms)) (PP (IN in) (NP (DT a) (NN building)))))))) (. .)))
p18
sVtext
p19
VA painter needed to paint 12 rooms in a building .
p20
sVdependencies
p21
(lp22
(lp23
Vroot
p24
aVROOT
p25
aVneeded
p26
aa(lp27
Vdet
p28
aVpainter
p29
aVA
p30
aa(lp31
Vnsubj
p32
aVneeded
p33
aVpainter
p34
aa(lp35
Vaux
p36
aVpaint
p37
aVto
p38
aa(lp39
Vxcomp
p40
aVneeded
p41
aVpaint
p42
aa(lp43
Vnum
p44
aVrooms
p45
aV12
p46
aa(lp47
Vdobj
p48
aVpaint
p49
aVrooms
p50
aa(lp51
Vdet
p52
aVbuilding
p53
aVa
p54
aa(lp55
Vprep_in
p56
aVrooms
p57
aVbuilding
p58
aasVwords
p59
(lp60
(lp61
g30
a(dp62
VNamedEntityTag
p63
VO
p64
sVCharacterOffsetEnd
p65
V2
p66
sVCharacterOffsetBegin
p67
V1
p68
sVPartOfSpeech
p69
VDT
p70
sVLemma
p71
g54
saa(lp72
Vpainter
p73
a(dp74
VNamedEntityTag
p75
g64
sVCharacterOffsetEnd
p76
V10
p77
sVCharacterOffsetBegin
p78
V3
p79
sVPartOfSpeech
p80
VNN
p81
sVLemma
p82
Vpainter
p83
saa(lp84
Vneeded
p85
a(dp86
VNamedEntityTag
p87
g64
sVCharacterOffsetEnd
p88
V17
p89
sVCharacterOffsetBegin
p90
V11
p91
sVPartOfSpeech
p92
VVBN
p93
sVLemma
p94
Vneed
p95
saa(lp96
Vto
p97
a(dp98
VNamedEntityTag
p99
g64
sVCharacterOffsetEnd
p100
V20
p101
sVCharacterOffsetBegin
p102
V18
p103
sVPartOfSpeech
p104
VTO
p105
sVLemma
p106
Vto
p107
saa(lp108
Vpaint
p109
a(dp110
VNamedEntityTag
p111
g64
sVCharacterOffsetEnd
p112
V26
p113
sVCharacterOffsetBegin
p114
V21
p115
sVPartOfSpeech
p116
VVB
p117
sVLemma
p118
Vpaint
p119
saa(lp120
V12
p121
a(dp122
VNormalizedNamedEntityTag
p123
V12.0
p124
sVLemma
p125
V12
p126
sVCharacterOffsetEnd
p127
V29
p128
sVPartOfSpeech
p129
VCD
p130
sVCharacterOffsetBegin
p131
V27
p132
sVNamedEntityTag
p133
VNUMBER
p134
saa(lp135
Vrooms
p136
a(dp137
VNamedEntityTag
p138
g64
sVCharacterOffsetEnd
p139
V35
p140
sVCharacterOffsetBegin
p141
V30
p142
sVPartOfSpeech
p143
VNNS
p144
sVLemma
p145
Vroom
p146
saa(lp147
Vin
p148
a(dp149
VNamedEntityTag
p150
g64
sVCharacterOffsetEnd
p151
V38
p152
sVCharacterOffsetBegin
p153
V36
p154
sVPartOfSpeech
p155
VIN
p156
sVLemma
p157
Vin
p158
saa(lp159
g54
a(dp160
VNamedEntityTag
p161
g64
sVCharacterOffsetEnd
p162
V40
p163
sVCharacterOffsetBegin
p164
V39
p165
sVPartOfSpeech
p166
VDT
p167
sVLemma
p168
g54
saa(lp169
Vbuilding
p170
a(dp171
VNamedEntityTag
p172
g64
sVCharacterOffsetEnd
p173
V49
p174
sVCharacterOffsetBegin
p175
V41
p176
sVPartOfSpeech
p177
VNN
p178
sVLemma
p179
Vbuilding
p180
saa(lp181
V.
p182
a(dp183
VNamedEntityTag
p184
g64
sVCharacterOffsetEnd
p185
V51
p186
sVCharacterOffsetBegin
p187
V50
p188
sVPartOfSpeech
p189
g182
sVLemma
p190
g182
saasVindexeddependencies
p191
(lp192
(lp193
Vroot
p194
aVROOT-0
p195
aVneeded-3
p196
aa(lp197
Vdet
p198
aVpainter-2
p199
aVA-1
p200
aa(lp201
Vnsubj
p202
aVneeded-3
p203
aVpainter-2
p204
aa(lp205
Vaux
p206
aVpaint-5
p207
aVto-4
p208
aa(lp209
Vxcomp
p210
aVneeded-3
p211
aVpaint-5
p212
aa(lp213
Vnum
p214
aVrooms-7
p215
aV12-6
p216
aa(lp217
Vdobj
p218
aVpaint-5
p219
aVrooms-7
p220
aa(lp221
Vdet
p222
aVbuilding-10
p223
aVa-9
p224
aa(lp225
Vprep_in
p226
aVrooms-7
p227
aVbuilding-10
p228
aasa(dp229
Vparsetree
p230
V(ROOT (S (NP (DT Each) (NN room)) (VP (VBZ takes) (NP (CD 7) (NNS hours)) (S (VP (TO to) (VP (VB paint))))) (. .)))
p231
sVtext
p232
VEach room takes 7 hours to paint .
p233
sVdependencies
p234
(lp235
(lp236
Vroot
p237
aVROOT
p238
aVtakes
p239
aa(lp240
Vdet
p241
aVroom
p242
aVEach
p243
aa(lp244
Vnsubj
p245
aVtakes
p246
aVroom
p247
aa(lp248
Vnum
p249
aVhours
p250
aV7
p251
aa(lp252
Vdobj
p253
aVtakes
p254
aVhours
p255
aa(lp256
Vaux
p257
aVpaint
p258
aVto
p259
aa(lp260
Vvmod
p261
aVtakes
p262
aVpaint
p263
aasVwords
p264
(lp265
(lp266
VEach
p267
a(dp268
VNamedEntityTag
p269
g64
sVCharacterOffsetEnd
p270
V56
p271
sVCharacterOffsetBegin
p272
V52
p273
sVPartOfSpeech
p274
VDT
p275
sVLemma
p276
Veach
p277
saa(lp278
Vroom
p279
a(dp280
VNamedEntityTag
p281
g64
sVCharacterOffsetEnd
p282
V61
p283
sVCharacterOffsetBegin
p284
V57
p285
sVPartOfSpeech
p286
VNN
p287
sVLemma
p288
Vroom
p289
saa(lp290
Vtakes
p291
a(dp292
VNamedEntityTag
p293
g64
sVCharacterOffsetEnd
p294
V67
p295
sVCharacterOffsetBegin
p296
V62
p297
sVPartOfSpeech
p298
VVBZ
p299
sVLemma
p300
Vtake
p301
saa(lp302
g251
a(dp303
VNormalizedNamedEntityTag
p304
VPT7H
p305
sVTimex
p306
V<TIMEX3 tid="t1" type="DURATION" value="PT7H">7 hours</TIMEX3>
p307
sVLemma
p308
g251
sVCharacterOffsetEnd
p309
V69
p310
sVPartOfSpeech
p311
VCD
p312
sVCharacterOffsetBegin
p313
V68
p314
sVNamedEntityTag
p315
VDURATION
p316
saa(lp317
Vhours
p318
a(dp319
VNormalizedNamedEntityTag
p320
VPT7H
p321
sVTimex
p322
V<TIMEX3 tid="t1" type="DURATION" value="PT7H">7 hours</TIMEX3>
p323
sVLemma
p324
Vhour
p325
sVCharacterOffsetEnd
p326
V75
p327
sVPartOfSpeech
p328
VNNS
p329
sVCharacterOffsetBegin
p330
V70
p331
sVNamedEntityTag
p332
VDURATION
p333
saa(lp334
Vto
p335
a(dp336
VNamedEntityTag
p337
g64
sVCharacterOffsetEnd
p338
V78
p339
sVCharacterOffsetBegin
p340
V76
p341
sVPartOfSpeech
p342
VTO
p343
sVLemma
p344
Vto
p345
saa(lp346
Vpaint
p347
a(dp348
VNamedEntityTag
p349
g64
sVCharacterOffsetEnd
p350
V84
p351
sVCharacterOffsetBegin
p352
V79
p353
sVPartOfSpeech
p354
VVB
p355
sVLemma
p356
Vpaint
p357
saa(lp358
g182
a(dp359
VNamedEntityTag
p360
g64
sVCharacterOffsetEnd
p361
V86
p362
sVCharacterOffsetBegin
p363
V85
p364
sVPartOfSpeech
p365
g182
sVLemma
p366
g182
saasVindexeddependencies
p367
(lp368
(lp369
Vroot
p370
aVROOT-0
p371
aVtakes-3
p372
aa(lp373
Vdet
p374
aVroom-2
p375
aVEach-1
p376
aa(lp377
Vnsubj
p378
aVtakes-3
p379
aVroom-2
p380
aa(lp381
Vnum
p382
aVhours-5
p383
aV7-4
p384
aa(lp385
Vdobj
p386
aVtakes-3
p387
aVhours-5
p388
aa(lp389
Vaux
p390
aVpaint-7
p391
aVto-6
p392
aa(lp393
Vvmod
p394
aVtakes-3
p395
aVpaint-7
p396
aasa(dp397
Vparsetree
p398
V(ROOT (SBARQ (SBAR (IN If) (S (NP (PRP he)) (ADVP (RB already)) (VP (VBD painted) (NP (CD 5) (NNS rooms))))) (, ,) (WHNP (WHNP (WRB how) (RB much)) (ADJP (RBR longer))) (SQ (MD will) (NP (PRP he)) (VP (VB take) (S (VP (TO to) (VP (VB paint) (NP (DT the) (NN rest))))))) (. ?)))
p399
sVtext
p400
VIf he already painted 5 rooms , how much longer will he take to paint the rest ?
p401
sVdependencies
p402
(lp403
(lp404
Vroot
p405
aVROOT
p406
aVtake
p407
aa(lp408
Vmark
p409
aVpainted
p410
aVIf
p411
aa(lp412
Vnsubj
p413
aVpainted
p414
aVhe
p415
aa(lp416
Vadvmod
p417
aVpainted
p418
aValready
p419
aa(lp420
Vadvcl
p421
aVtake
p422
aVpainted
p423
aa(lp424
Vnum
p425
aVrooms
p426
aV5
p427
aa(lp428
Vdobj
p429
aVpainted
p430
aVrooms
p431
aa(lp432
Vadvmod
p433
aVmuch
p434
aVhow
p435
aa(lp436
Vdep
p437
aVtake
p438
aVmuch
p439
aa(lp440
Vamod
p441
aVmuch
p442
aVlonger
p443
aa(lp444
Vaux
p445
aVtake
p446
aVwill
p447
aa(lp448
Vnsubj
p449
aVtake
p450
aVhe
p451
aa(lp452
Vaux
p453
aVpaint
p454
aVto
p455
aa(lp456
Vxcomp
p457
aVtake
p458
aVpaint
p459
aa(lp460
Vdet
p461
aVrest
p462
aVthe
p463
aa(lp464
Vdobj
p465
aVpaint
p466
aVrest
p467
aasVwords
p468
(lp469
(lp470
VIf
p471
a(dp472
VNamedEntityTag
p473
g64
sVCharacterOffsetEnd
p474
V89
p475
sVCharacterOffsetBegin
p476
V87
p477
sVPartOfSpeech
p478
VIN
p479
sVLemma
p480
Vif
p481
saa(lp482
Vhe
p483
a(dp484
VNamedEntityTag
p485
g64
sVCharacterOffsetEnd
p486
V92
p487
sVCharacterOffsetBegin
p488
V90
p489
sVPartOfSpeech
p490
VPRP
p491
sVLemma
p492
Vhe
p493
saa(lp494
Valready
p495
a(dp496
VNamedEntityTag
p497
g64
sVCharacterOffsetEnd
p498
V100
p499
sVCharacterOffsetBegin
p500
V93
p501
sVPartOfSpeech
p502
VRB
p503
sVLemma
p504
Valready
p505
saa(lp506
Vpainted
p507
a(dp508
VNamedEntityTag
p509
g64
sVCharacterOffsetEnd
p510
V108
p511
sVCharacterOffsetBegin
p512
V101
p513
sVPartOfSpeech
p514
VVBD
p515
sVLemma
p516
Vpaint
p517
saa(lp518
g427
a(dp519
VNormalizedNamedEntityTag
p520
V5.0
p521
sVLemma
p522
g427
sVCharacterOffsetEnd
p523
V110
p524
sVPartOfSpeech
p525
VCD
p526
sVCharacterOffsetBegin
p527
V109
p528
sVNamedEntityTag
p529
VNUMBER
p530
saa(lp531
Vrooms
p532
a(dp533
VNamedEntityTag
p534
g64
sVCharacterOffsetEnd
p535
V116
p536
sVCharacterOffsetBegin
p537
V111
p538
sVPartOfSpeech
p539
VNNS
p540
sVLemma
p541
Vroom
p542
saa(lp543
V,
p544
a(dp545
VNamedEntityTag
p546
g64
sVCharacterOffsetEnd
p547
V118
p548
sVCharacterOffsetBegin
p549
V117
p550
sVPartOfSpeech
p551
g544
sVLemma
p552
g544
saa(lp553
Vhow
p554
a(dp555
VNamedEntityTag
p556
g64
sVCharacterOffsetEnd
p557
V122
p558
sVCharacterOffsetBegin
p559
V119
p560
sVPartOfSpeech
p561
VWRB
p562
sVLemma
p563
Vhow
p564
saa(lp565
Vmuch
p566
a(dp567
VNamedEntityTag
p568
g64
sVCharacterOffsetEnd
p569
V127
p570
sVCharacterOffsetBegin
p571
V123
p572
sVPartOfSpeech
p573
VRB
p574
sVLemma
p575
Vmuch
p576
saa(lp577
Vlonger
p578
a(dp579
VNamedEntityTag
p580
g64
sVCharacterOffsetEnd
p581
V134
p582
sVCharacterOffsetBegin
p583
V128
p584
sVPartOfSpeech
p585
VRBR
p586
sVLemma
p587
Vlonger
p588
saa(lp589
Vwill
p590
a(dp591
VNamedEntityTag
p592
g64
sVCharacterOffsetEnd
p593
V139
p594
sVCharacterOffsetBegin
p595
V135
p596
sVPartOfSpeech
p597
VMD
p598
sVLemma
p599
Vwill
p600
saa(lp601
Vhe
p602
a(dp603
VNamedEntityTag
p604
g64
sVCharacterOffsetEnd
p605
V142
p606
sVCharacterOffsetBegin
p607
V140
p608
sVPartOfSpeech
p609
VPRP
p610
sVLemma
p611
Vhe
p612
saa(lp613
Vtake
p614
a(dp615
VNamedEntityTag
p616
g64
sVCharacterOffsetEnd
p617
V147
p618
sVCharacterOffsetBegin
p619
V143
p620
sVPartOfSpeech
p621
VVB
p622
sVLemma
p623
Vtake
p624
saa(lp625
Vto
p626
a(dp627
VNamedEntityTag
p628
g64
sVCharacterOffsetEnd
p629
V150
p630
sVCharacterOffsetBegin
p631
V148
p632
sVPartOfSpeech
p633
VTO
p634
sVLemma
p635
Vto
p636
saa(lp637
Vpaint
p638
a(dp639
VNamedEntityTag
p640
g64
sVCharacterOffsetEnd
p641
V156
p642
sVCharacterOffsetBegin
p643
V151
p644
sVPartOfSpeech
p645
VVB
p646
sVLemma
p647
Vpaint
p648
saa(lp649
Vthe
p650
a(dp651
VNamedEntityTag
p652
g64
sVCharacterOffsetEnd
p653
V160
p654
sVCharacterOffsetBegin
p655
V157
p656
sVPartOfSpeech
p657
VDT
p658
sVLemma
p659
Vthe
p660
saa(lp661
Vrest
p662
a(dp663
VNamedEntityTag
p664
g64
sVCharacterOffsetEnd
p665
V165
p666
sVCharacterOffsetBegin
p667
V161
p668
sVPartOfSpeech
p669
VNN
p670
sVLemma
p671
Vrest
p672
saa(lp673
V?
p674
a(dp675
VNamedEntityTag
p676
g64
sVCharacterOffsetEnd
p677
V167
p678
sVCharacterOffsetBegin
p679
V166
p680
sVPartOfSpeech
p681
g182
sVLemma
p682
g674
saasVindexeddependencies
p683
(lp684
(lp685
Vroot
p686
aVROOT-0
p687
aVtake-13
p688
aa(lp689
Vmark
p690
aVpainted-4
p691
aVIf-1
p692
aa(lp693
Vnsubj
p694
aVpainted-4
p695
aVhe-2
p696
aa(lp697
Vadvmod
p698
aVpainted-4
p699
aValready-3
p700
aa(lp701
Vadvcl
p702
aVtake-13
p703
aVpainted-4
p704
aa(lp705
Vnum
p706
aVrooms-6
p707
aV5-5
p708
aa(lp709
Vdobj
p710
aVpainted-4
p711
aVrooms-6
p712
aa(lp713
Vadvmod
p714
aVmuch-9
p715
aVhow-8
p716
aa(lp717
Vdep
p718
aVtake-13
p719
aVmuch-9
p720
aa(lp721
Vamod
p722
aVmuch-9
p723
aVlonger-10
p724
aa(lp725
Vaux
p726
aVtake-13
p727
aVwill-11
p728
aa(lp729
Vnsubj
p730
aVtake-13
p731
aVhe-12
p732
aa(lp733
Vaux
p734
aVpaint-15
p735
aVto-14
p736
aa(lp737
Vxcomp
p738
aVtake-13
p739
aVpaint-15
p740
aa(lp741
Vdet
p742
aVrest-17
p743
aVthe-16
p744
aa(lp745
Vdobj
p746
aVpaint-15
p747
aVrest-17
p748
aasas.