(dp0
Vcoref
p1
(lp2
(lp3
(lp4
(lp5
V5
p6
aI1
aI5
aI5
aI6
aa(lp7
g6
aI0
aI10
aI10
aI11
aaaa(lp8
(lp9
(lp10
Vthey
p11
aI1
aI12
aI12
aI13
aa(lp12
V8 friends playing a video game online when 5 players quit
p13
aI0
aI3
aI2
aI13
aaaasVsentences
p14
(lp15
(dp16
Vparsetree
p17
V(ROOT (S (NP (EX There)) (VP (VBD were) (NP (NP (CD 8) (NNS friends)) (VP (VBG playing) (NP (DT a) (NN video) (NN game)) (PP (NN online)) (SBAR (WHADVP (WRB when)) (S (NP (CD 5) (NNS players)) (VP (VBD quit))))))) (. .)))
p18
sVtext
p19
VThere were 8 friends playing a video game online when 5 players quit .
p20
sVdependencies
p21
(lp22
(lp23
Vroot
p24
aVROOT
p25
aVwere
p26
aa(lp27
Vexpl
p28
aVwere
p29
aVThere
p30
aa(lp31
Vnum
p32
aVfriends
p33
aV8
p34
aa(lp35
Vnsubj
p36
aVwere
p37
aVfriends
p38
aa(lp39
Vvmod
p40
aVfriends
p41
aVplaying
p42
aa(lp43
Vdet
p44
aVgame
p45
aVa
p46
aa(lp47
Vnn
p48
aVgame
p49
aVvideo
p50
aa(lp51
Vdobj
p52
aVplaying
p53
aVgame
p54
aa(lp55
Vprep
p56
aVplaying
p57
aVonline
p58
aa(lp59
Vadvmod
p60
aVquit
p61
aVwhen
p62
aa(lp63
Vnum
p64
aVplayers
p65
ag6
aa(lp66
Vnsubj
p67
aVquit
p68
aVplayers
p69
aa(lp70
Vadvcl
p71
aVplaying
p72
aVquit
p73
aasVwords
p74
(lp75
(lp76
VThere
p77
a(dp78
VNamedEntityTag
p79
VO
p80
sVCharacterOffsetEnd
p81
V6
p82
sVCharacterOffsetBegin
p83
V1
p84
sVPartOfSpeech
p85
VEX
p86
sVLemma
p87
Vthere
p88
saa(lp89
Vwere
p90
a(dp91
VNamedEntityTag
p92
g80
sVCharacterOffsetEnd
p93
V11
p94
sVCharacterOffsetBegin
p95
V7
p96
sVPartOfSpeech
p97
VVBD
p98
sVLemma
p99
Vbe
p100
saa(lp101
g34
a(dp102
VNormalizedNamedEntityTag
p103
V8.0
p104
sVLemma
p105
g34
sVCharacterOffsetEnd
p106
V13
p107
sVPartOfSpeech
p108
VCD
p109
sVCharacterOffsetBegin
p110
V12
p111
sVNamedEntityTag
p112
VNUMBER
p113
saa(lp114
Vfriends
p115
a(dp116
VNamedEntityTag
p117
g80
sVCharacterOffsetEnd
p118
V21
p119
sVCharacterOffsetBegin
p120
V14
p121
sVPartOfSpeech
p122
VNNS
p123
sVLemma
p124
Vfriend
p125
saa(lp126
Vplaying
p127
a(dp128
VNamedEntityTag
p129
g80
sVCharacterOffsetEnd
p130
V29
p131
sVCharacterOffsetBegin
p132
V22
p133
sVPartOfSpeech
p134
VVBG
p135
sVLemma
p136
Vplay
p137
saa(lp138
g46
a(dp139
VNamedEntityTag
p140
g80
sVCharacterOffsetEnd
p141
V31
p142
sVCharacterOffsetBegin
p143
V30
p144
sVPartOfSpeech
p145
VDT
p146
sVLemma
p147
g46
saa(lp148
Vvideo
p149
a(dp150
VNamedEntityTag
p151
g80
sVCharacterOffsetEnd
p152
V37
p153
sVCharacterOffsetBegin
p154
V32
p155
sVPartOfSpeech
p156
VNN
p157
sVLemma
p158
Vvideo
p159
saa(lp160
Vgame
p161
a(dp162
VNamedEntityTag
p163
g80
sVCharacterOffsetEnd
p164
V42
p165
sVCharacterOffsetBegin
p166
V38
p167
sVPartOfSpeech
p168
VNN
p169
sVLemma
p170
Vgame
p171
saa(lp172
Vonline
p173
a(dp174
VNamedEntityTag
p175
g80
sVCharacterOffsetEnd
p176
V49
p177
sVCharacterOffsetBegin
p178
V43
p179
sVPartOfSpeech
p180
VNN
p181
sVLemma
p182
Vonline
p183
saa(lp184
Vwhen
p185
a(dp186
VNamedEntityTag
p187
g80
sVCharacterOffsetEnd
p188
V54
p189
sVCharacterOffsetBegin
p190
V50
p191
sVPartOfSpeech
p192
VWRB
p193
sVLemma
p194
Vwhen
p195
saa(lp196
g6
a(dp197
VNormalizedNamedEntityTag
p198
V5.0
p199
sVLemma
p200
g6
sVCharacterOffsetEnd
p201
V56
p202
sVPartOfSpeech
p203
VCD
p204
sVCharacterOffsetBegin
p205
V55
p206
sVNamedEntityTag
p207
VNUMBER
p208
saa(lp209
Vplayers
p210
a(dp211
VNamedEntityTag
p212
g80
sVCharacterOffsetEnd
p213
V64
p214
sVCharacterOffsetBegin
p215
V57
p216
sVPartOfSpeech
p217
VNNS
p218
sVLemma
p219
Vplayer
p220
saa(lp221
Vquit
p222
a(dp223
VNamedEntityTag
p224
g80
sVCharacterOffsetEnd
p225
V69
p226
sVCharacterOffsetBegin
p227
V65
p228
sVPartOfSpeech
p229
VVBD
p230
sVLemma
p231
Vquit
p232
saa(lp233
V.
p234
a(dp235
VNamedEntityTag
p236
g80
sVCharacterOffsetEnd
p237
V71
p238
sVCharacterOffsetBegin
p239
V70
p240
sVPartOfSpeech
p241
g234
sVLemma
p242
g234
saasVindexeddependencies
p243
(lp244
(lp245
Vroot
p246
aVROOT-0
p247
aVwere-2
p248
aa(lp249
Vexpl
p250
aVwere-2
p251
aVThere-1
p252
aa(lp253
Vnum
p254
aVfriends-4
p255
aV8-3
p256
aa(lp257
Vnsubj
p258
aVwere-2
p259
aVfriends-4
p260
aa(lp261
Vvmod
p262
aVfriends-4
p263
aVplaying-5
p264
aa(lp265
Vdet
p266
aVgame-8
p267
aVa-6
p268
aa(lp269
Vnn
p270
aVgame-8
p271
aVvideo-7
p272
aa(lp273
Vdobj
p274
aVplaying-5
p275
aVgame-8
p276
aa(lp277
Vprep
p278
aVplaying-5
p279
aVonline-9
p280
aa(lp281
Vadvmod
p282
aVquit-13
p283
aVwhen-10
p284
aa(lp285
Vnum
p286
aVplayers-12
p287
aV5-11
p288
aa(lp289
Vnsubj
p290
aVquit-13
p291
aVplayers-12
p292
aa(lp293
Vadvcl
p294
aVplaying-5
p295
aVquit-13
p296
aasa(dp297
Vparsetree
p298
V(ROOT (SBARQ (SBAR (IN If) (S (NP (DT each) (NN player)) (VP (VBD left) (SBAR (S (VP (VBD had) (NP (CD 5) (NNS lives)))))))) (, ,) (WHNP (WHADJP (WRB how) (JJ many)) (NNS lives)) (SQ (VBD did) (NP (PRP they)) (VP (VBP have) (NP (JJ total)))) (. ?)))
p299
sVtext
p300
VIf each player left had 5 lives , how many lives did they have total ?
p301
sVdependencies
p302
(lp303
(lp304
Vroot
p305
aVROOT
p306
aVhave
p307
aa(lp308
Vmark
p309
aVleft
p310
aVIf
p311
aa(lp312
Vdet
p313
aVplayer
p314
aVeach
p315
aa(lp316
Vnsubj
p317
aVleft
p318
aVplayer
p319
aa(lp320
Vadvcl
p321
aVhave
p322
aVleft
p323
aa(lp324
Vccomp
p325
aVleft
p326
aVhad
p327
aa(lp328
Vnum
p329
aVlives
p330
ag6
aa(lp331
Vdobj
p332
aVhad
p333
aVlives
p334
aa(lp335
Vadvmod
p336
aVmany
p337
aVhow
p338
aa(lp339
Vamod
p340
aVlives
p341
aVmany
p342
aa(lp343
Vdep
p344
aVhave
p345
aVlives
p346
aa(lp347
Vaux
p348
aVhave
p349
aVdid
p350
aa(lp351
Vnsubj
p352
aVhave
p353
aVthey
p354
aa(lp355
Vdobj
p356
aVhave
p357
aVtotal
p358
aasVwords
p359
(lp360
(lp361
VIf
p362
a(dp363
VNamedEntityTag
p364
g80
sVCharacterOffsetEnd
p365
V74
p366
sVCharacterOffsetBegin
p367
V72
p368
sVPartOfSpeech
p369
VIN
p370
sVLemma
p371
Vif
p372
saa(lp373
Veach
p374
a(dp375
VNamedEntityTag
p376
g80
sVCharacterOffsetEnd
p377
V79
p378
sVCharacterOffsetBegin
p379
V75
p380
sVPartOfSpeech
p381
VDT
p382
sVLemma
p383
Veach
p384
saa(lp385
Vplayer
p386
a(dp387
VNamedEntityTag
p388
g80
sVCharacterOffsetEnd
p389
V86
p390
sVCharacterOffsetBegin
p391
V80
p392
sVPartOfSpeech
p393
VNN
p394
sVLemma
p395
Vplayer
p396
saa(lp397
Vleft
p398
a(dp399
VNamedEntityTag
p400
g80
sVCharacterOffsetEnd
p401
V91
p402
sVCharacterOffsetBegin
p403
V87
p404
sVPartOfSpeech
p405
VVBD
p406
sVLemma
p407
Vleave
p408
saa(lp409
Vhad
p410
a(dp411
VNamedEntityTag
p412
g80
sVCharacterOffsetEnd
p413
V95
p414
sVCharacterOffsetBegin
p415
V92
p416
sVPartOfSpeech
p417
VVBD
p418
sVLemma
p419
Vhave
p420
saa(lp421
g6
a(dp422
VNormalizedNamedEntityTag
p423
V5.0
p424
sVLemma
p425
g6
sVCharacterOffsetEnd
p426
V97
p427
sVPartOfSpeech
p428
VCD
p429
sVCharacterOffsetBegin
p430
V96
p431
sVNamedEntityTag
p432
VNUMBER
p433
saa(lp434
Vlives
p435
a(dp436
VNamedEntityTag
p437
g80
sVCharacterOffsetEnd
p438
V103
p439
sVCharacterOffsetBegin
p440
V98
p441
sVPartOfSpeech
p442
VNNS
p443
sVLemma
p444
Vlife
p445
saa(lp446
V,
p447
a(dp448
VNamedEntityTag
p449
g80
sVCharacterOffsetEnd
p450
V105
p451
sVCharacterOffsetBegin
p452
V104
p453
sVPartOfSpeech
p454
g447
sVLemma
p455
g447
saa(lp456
Vhow
p457
a(dp458
VNamedEntityTag
p459
g80
sVCharacterOffsetEnd
p460
V109
p461
sVCharacterOffsetBegin
p462
V106
p463
sVPartOfSpeech
p464
VWRB
p465
sVLemma
p466
Vhow
p467
saa(lp468
Vmany
p469
a(dp470
VNamedEntityTag
p471
g80
sVCharacterOffsetEnd
p472
V114
p473
sVCharacterOffsetBegin
p474
V110
p475
sVPartOfSpeech
p476
VJJ
p477
sVLemma
p478
Vmany
p479
saa(lp480
Vlives
p481
a(dp482
VNamedEntityTag
p483
g80
sVCharacterOffsetEnd
p484
V120
p485
sVCharacterOffsetBegin
p486
V115
p487
sVPartOfSpeech
p488
VNNS
p489
sVLemma
p490
Vlife
p491
saa(lp492
Vdid
p493
a(dp494
VNamedEntityTag
p495
g80
sVCharacterOffsetEnd
p496
V124
p497
sVCharacterOffsetBegin
p498
V121
p499
sVPartOfSpeech
p500
VVBD
p501
sVLemma
p502
Vdo
p503
saa(lp504
Vthey
p505
a(dp506
VNamedEntityTag
p507
g80
sVCharacterOffsetEnd
p508
V129
p509
sVCharacterOffsetBegin
p510
V125
p511
sVPartOfSpeech
p512
VPRP
p513
sVLemma
p514
Vthey
p515
saa(lp516
Vhave
p517
a(dp518
VNamedEntityTag
p519
g80
sVCharacterOffsetEnd
p520
V134
p521
sVCharacterOffsetBegin
p522
V130
p523
sVPartOfSpeech
p524
VVBP
p525
sVLemma
p526
Vhave
p527
saa(lp528
Vtotal
p529
a(dp530
VNamedEntityTag
p531
g80
sVCharacterOffsetEnd
p532
V140
p533
sVCharacterOffsetBegin
p534
V135
p535
sVPartOfSpeech
p536
VJJ
p537
sVLemma
p538
Vtotal
p539
saa(lp540
V?
p541
a(dp542
VNamedEntityTag
p543
g80
sVCharacterOffsetEnd
p544
V142
p545
sVCharacterOffsetBegin
p546
V141
p547
sVPartOfSpeech
p548
g234
sVLemma
p549
g541
saasVindexeddependencies
p550
(lp551
(lp552
Vroot
p553
aVROOT-0
p554
aVhave-14
p555
aa(lp556
Vmark
p557
aVleft-4
p558
aVIf-1
p559
aa(lp560
Vdet
p561
aVplayer-3
p562
aVeach-2
p563
aa(lp564
Vnsubj
p565
aVleft-4
p566
aVplayer-3
p567
aa(lp568
Vadvcl
p569
aVhave-14
p570
aVleft-4
p571
aa(lp572
Vccomp
p573
aVleft-4
p574
aVhad-5
p575
aa(lp576
Vnum
p577
aVlives-7
p578
aV5-6
p579
aa(lp580
Vdobj
p581
aVhad-5
p582
aVlives-7
p583
aa(lp584
Vadvmod
p585
aVmany-10
p586
aVhow-9
p587
aa(lp588
Vamod
p589
aVlives-11
p590
aVmany-10
p591
aa(lp592
Vdep
p593
aVhave-14
p594
aVlives-11
p595
aa(lp596
Vaux
p597
aVhave-14
p598
aVdid-12
p599
aa(lp600
Vnsubj
p601
aVhave-14
p602
aVthey-13
p603
aa(lp604
Vdobj
p605
aVhave-14
p606
aVtotal-15
p607
aasas.