(dp0
Vsentences
p1
(lp2
(dp3
Vparsetree
p4
V(ROOT (NP (NP (NP (DT Each) (NN chocolate) (NN bar)) (PP (IN in) (NP (DT a) (NN box) (NN cost)))) (ADJP ($ $) (CD 6)) (. .)))
p5
sVtext
p6
VEach chocolate bar in a box cost $6 .
p7
sVdependencies
p8
(lp9
(lp10
Vroot
p11
aVROOT
p12
aVbar
p13
aa(lp14
Vdet
p15
aVbar
p16
aVEach
p17
aa(lp18
Vnn
p19
aVbar
p20
aVchocolate
p21
aa(lp22
Vdet
p23
aVcost
p24
aVa
p25
aa(lp26
Vnn
p27
aVcost
p28
aVbox
p29
aa(lp30
Vprep_in
p31
aVbar
p32
aVcost
p33
aa(lp34
Vamod
p35
aVbar
p36
aV$
p37
aa(lp38
Vnumber
p39
ag37
aV6
p40
aasVwords
p41
(lp42
(lp43
VEach
p44
a(dp45
VNamedEntityTag
p46
VO
p47
sVCharacterOffsetEnd
p48
V5
p49
sVCharacterOffsetBegin
p50
V1
p51
sVPartOfSpeech
p52
VDT
p53
sVLemma
p54
Veach
p55
saa(lp56
Vchocolate
p57
a(dp58
VNamedEntityTag
p59
g47
sVCharacterOffsetEnd
p60
V15
p61
sVCharacterOffsetBegin
p62
g40
sVPartOfSpeech
p63
VNN
p64
sVLemma
p65
Vchocolate
p66
saa(lp67
Vbar
p68
a(dp69
VNamedEntityTag
p70
g47
sVCharacterOffsetEnd
p71
V19
p72
sVCharacterOffsetBegin
p73
V16
p74
sVPartOfSpeech
p75
VNN
p76
sVLemma
p77
Vbar
p78
saa(lp79
Vin
p80
a(dp81
VNamedEntityTag
p82
g47
sVCharacterOffsetEnd
p83
V22
p84
sVCharacterOffsetBegin
p85
V20
p86
sVPartOfSpeech
p87
VIN
p88
sVLemma
p89
Vin
p90
saa(lp91
g25
a(dp92
VNamedEntityTag
p93
g47
sVCharacterOffsetEnd
p94
V24
p95
sVCharacterOffsetBegin
p96
V23
p97
sVPartOfSpeech
p98
VDT
p99
sVLemma
p100
g25
saa(lp101
Vbox
p102
a(dp103
VNamedEntityTag
p104
g47
sVCharacterOffsetEnd
p105
V28
p106
sVCharacterOffsetBegin
p107
V25
p108
sVPartOfSpeech
p109
VNN
p110
sVLemma
p111
Vbox
p112
saa(lp113
Vcost
p114
a(dp115
VNamedEntityTag
p116
g47
sVCharacterOffsetEnd
p117
V33
p118
sVCharacterOffsetBegin
p119
V29
p120
sVPartOfSpeech
p121
VNN
p122
sVLemma
p123
Vcost
p124
saa(lp125
g37
a(dp126
VNormalizedNamedEntityTag
p127
V$6.0
p128
sVLemma
p129
g37
sVCharacterOffsetEnd
p130
V35
p131
sVPartOfSpeech
p132
g37
sVCharacterOffsetBegin
p133
V34
p134
sVNamedEntityTag
p135
VMONEY
p136
saa(lp137
g40
a(dp138
VNormalizedNamedEntityTag
p139
V$6.0
p140
sVLemma
p141
g40
sVCharacterOffsetEnd
p142
V36
p143
sVPartOfSpeech
p144
VCD
p145
sVCharacterOffsetBegin
p146
V35
p147
sVNamedEntityTag
p148
VMONEY
p149
saa(lp150
V.
p151
a(dp152
VNamedEntityTag
p153
g47
sVCharacterOffsetEnd
p154
V38
p155
sVCharacterOffsetBegin
p156
V37
p157
sVPartOfSpeech
p158
g151
sVLemma
p159
g151
saasVindexeddependencies
p160
(lp161
(lp162
Vroot
p163
aVROOT-0
p164
aVbar-3
p165
aa(lp166
Vdet
p167
aVbar-3
p168
aVEach-1
p169
aa(lp170
Vnn
p171
aVbar-3
p172
aVchocolate-2
p173
aa(lp174
Vdet
p175
aVcost-7
p176
aVa-5
p177
aa(lp178
Vnn
p179
aVcost-7
p180
aVbox-6
p181
aa(lp182
Vprep_in
p183
aVbar-3
p184
aVcost-7
p185
aa(lp186
Vamod
p187
aVbar-3
p188
aV$-8
p189
aa(lp190
Vnumber
p191
aV$-8
p192
aV6-9
p193
aasa(dp194
Vparsetree
p195
V(ROOT (SBARQ (SBAR (IN If) (S (NP (DT a) (NN box)) (VP (VBD had) (NP (NP (CD 13) (NNS bars)) (SBAR (S (NP (JJ total) (CC and) (NN Zoe)) (VP (VBD sold) (NP (QP (DT all) (CC but) (CD 6)) (NNS bars))))))))) (, ,) (WHNP (WHADJP (WRB how) (JJ much)) (NN money)) (SQ (MD would) (NP (PRP she)) (VP (VB have) (VP (VBN made)))) (. ?)))
p196
sVtext
p197
VIf a box had 13 bars total and Zoe sold all but 6 bars , how much money would she have made ?
p198
sVdependencies
p199
(lp200
(lp201
Vroot
p202
aVROOT
p203
aVmade
p204
aa(lp205
Vmark
p206
aVhad
p207
aVIf
p208
aa(lp209
Vdet
p210
aVbox
p211
ag25
aa(lp212
Vnsubj
p213
aVhad
p214
aVbox
p215
aa(lp216
Vadvcl
p217
aVmade
p218
aVhad
p219
aa(lp220
Vnum
p221
aVbars
p222
aV13
p223
aa(lp224
Vdobj
p225
aVhad
p226
aVbars
p227
aa(lp228
Vnsubj
p229
aVsold
p230
aVtotal
p231
aa(lp232
Vconj_and
p233
aVtotal
p234
aVZoe
p235
aa(lp236
Vrcmod
p237
aVbars
p238
aVsold
p239
aa(lp240
Vnum
p241
aVbars
p242
aVall
p243
aa(lp244
Vconj_but
p245
aVall
p246
ag40
aa(lp247
Vdobj
p248
aVsold
p249
aVbars
p250
aa(lp251
Vadvmod
p252
aVmuch
p253
aVhow
p254
aa(lp255
Vamod
p256
aVmoney
p257
aVmuch
p258
aa(lp259
Vdobj
p260
aVmade
p261
aVmoney
p262
aa(lp263
Vaux
p264
aVmade
p265
aVwould
p266
aa(lp267
Vnsubj
p268
aVmade
p269
aVshe
p270
aa(lp271
Vaux
p272
aVmade
p273
aVhave
p274
aasVwords
p275
(lp276
(lp277
VIf
p278
a(dp279
VNamedEntityTag
p280
g47
sVCharacterOffsetEnd
p281
V41
p282
sVCharacterOffsetBegin
p283
V39
p284
sVPartOfSpeech
p285
VIN
p286
sVLemma
p287
Vif
p288
saa(lp289
g25
a(dp290
VNamedEntityTag
p291
g47
sVCharacterOffsetEnd
p292
V43
p293
sVCharacterOffsetBegin
p294
V42
p295
sVPartOfSpeech
p296
VDT
p297
sVLemma
p298
g25
saa(lp299
Vbox
p300
a(dp301
VNamedEntityTag
p302
g47
sVCharacterOffsetEnd
p303
V47
p304
sVCharacterOffsetBegin
p305
V44
p306
sVPartOfSpeech
p307
VNN
p308
sVLemma
p309
Vbox
p310
saa(lp311
Vhad
p312
a(dp313
VNamedEntityTag
p314
g47
sVCharacterOffsetEnd
p315
V51
p316
sVCharacterOffsetBegin
p317
V48
p318
sVPartOfSpeech
p319
VVBD
p320
sVLemma
p321
Vhave
p322
saa(lp323
V13
p324
a(dp325
VNormalizedNamedEntityTag
p326
V13.0
p327
sVLemma
p328
V13
p329
sVCharacterOffsetEnd
p330
V54
p331
sVPartOfSpeech
p332
VCD
p333
sVCharacterOffsetBegin
p334
V52
p335
sVNamedEntityTag
p336
VNUMBER
p337
saa(lp338
Vbars
p339
a(dp340
VNamedEntityTag
p341
g47
sVCharacterOffsetEnd
p342
V59
p343
sVCharacterOffsetBegin
p344
V55
p345
sVPartOfSpeech
p346
VNNS
p347
sVLemma
p348
Vbar
p349
saa(lp350
Vtotal
p351
a(dp352
VNamedEntityTag
p353
g47
sVCharacterOffsetEnd
p354
V65
p355
sVCharacterOffsetBegin
p356
V60
p357
sVPartOfSpeech
p358
VJJ
p359
sVLemma
p360
Vtotal
p361
saa(lp362
Vand
p363
a(dp364
VNamedEntityTag
p365
g47
sVCharacterOffsetEnd
p366
V69
p367
sVCharacterOffsetBegin
p368
V66
p369
sVPartOfSpeech
p370
VCC
p371
sVLemma
p372
Vand
p373
saa(lp374
VZoe
p375
a(dp376
VNamedEntityTag
p377
VPERSON
p378
sVCharacterOffsetEnd
p379
V73
p380
sVCharacterOffsetBegin
p381
V70
p382
sVPartOfSpeech
p383
VNN
p384
sVLemma
p385
Vzoe
p386
saa(lp387
Vsold
p388
a(dp389
VNamedEntityTag
p390
g47
sVCharacterOffsetEnd
p391
V78
p392
sVCharacterOffsetBegin
p393
V74
p394
sVPartOfSpeech
p395
VVBD
p396
sVLemma
p397
Vsell
p398
saa(lp399
Vall
p400
a(dp401
VNamedEntityTag
p402
g47
sVCharacterOffsetEnd
p403
V82
p404
sVCharacterOffsetBegin
p405
V79
p406
sVPartOfSpeech
p407
VDT
p408
sVLemma
p409
Vall
p410
saa(lp411
Vbut
p412
a(dp413
VNamedEntityTag
p414
g47
sVCharacterOffsetEnd
p415
V86
p416
sVCharacterOffsetBegin
p417
V83
p418
sVPartOfSpeech
p419
VCC
p420
sVLemma
p421
Vbut
p422
saa(lp423
g40
a(dp424
VNormalizedNamedEntityTag
p425
V6.0
p426
sVLemma
p427
g40
sVCharacterOffsetEnd
p428
V88
p429
sVPartOfSpeech
p430
VCD
p431
sVCharacterOffsetBegin
p432
V87
p433
sVNamedEntityTag
p434
VNUMBER
p435
saa(lp436
Vbars
p437
a(dp438
VNamedEntityTag
p439
g47
sVCharacterOffsetEnd
p440
V93
p441
sVCharacterOffsetBegin
p442
V89
p443
sVPartOfSpeech
p444
VNNS
p445
sVLemma
p446
Vbar
p447
saa(lp448
V,
p449
a(dp450
VNamedEntityTag
p451
g47
sVCharacterOffsetEnd
p452
V95
p453
sVCharacterOffsetBegin
p454
V94
p455
sVPartOfSpeech
p456
g449
sVLemma
p457
g449
saa(lp458
Vhow
p459
a(dp460
VNamedEntityTag
p461
g47
sVCharacterOffsetEnd
p462
V99
p463
sVCharacterOffsetBegin
p464
V96
p465
sVPartOfSpeech
p466
VWRB
p467
sVLemma
p468
Vhow
p469
saa(lp470
Vmuch
p471
a(dp472
VNamedEntityTag
p473
g47
sVCharacterOffsetEnd
p474
V104
p475
sVCharacterOffsetBegin
p476
V100
p477
sVPartOfSpeech
p478
VJJ
p479
sVLemma
p480
Vmuch
p481
saa(lp482
Vmoney
p483
a(dp484
VNamedEntityTag
p485
g47
sVCharacterOffsetEnd
p486
V110
p487
sVCharacterOffsetBegin
p488
V105
p489
sVPartOfSpeech
p490
VNN
p491
sVLemma
p492
Vmoney
p493
saa(lp494
Vwould
p495
a(dp496
VNamedEntityTag
p497
g47
sVCharacterOffsetEnd
p498
V116
p499
sVCharacterOffsetBegin
p500
V111
p501
sVPartOfSpeech
p502
VMD
p503
sVLemma
p504
Vwould
p505
saa(lp506
Vshe
p507
a(dp508
VNamedEntityTag
p509
g47
sVCharacterOffsetEnd
p510
V120
p511
sVCharacterOffsetBegin
p512
V117
p513
sVPartOfSpeech
p514
VPRP
p515
sVLemma
p516
Vshe
p517
saa(lp518
Vhave
p519
a(dp520
VNamedEntityTag
p521
g47
sVCharacterOffsetEnd
p522
V125
p523
sVCharacterOffsetBegin
p524
V121
p525
sVPartOfSpeech
p526
VVB
p527
sVLemma
p528
Vhave
p529
saa(lp530
Vmade
p531
a(dp532
VNamedEntityTag
p533
g47
sVCharacterOffsetEnd
p534
V130
p535
sVCharacterOffsetBegin
p536
V126
p537
sVPartOfSpeech
p538
VVBN
p539
sVLemma
p540
Vmake
p541
saa(lp542
V?
p543
a(dp544
VNamedEntityTag
p545
g47
sVCharacterOffsetEnd
p546
V132
p547
sVCharacterOffsetBegin
p548
V131
p549
sVPartOfSpeech
p550
g151
sVLemma
p551
g543
saasVindexeddependencies
p552
(lp553
(lp554
Vroot
p555
aVROOT-0
p556
aVmade-22
p557
aa(lp558
Vmark
p559
aVhad-4
p560
aVIf-1
p561
aa(lp562
Vdet
p563
aVbox-3
p564
aVa-2
p565
aa(lp566
Vnsubj
p567
aVhad-4
p568
aVbox-3
p569
aa(lp570
Vadvcl
p571
aVmade-22
p572
aVhad-4
p573
aa(lp574
Vnum
p575
aVbars-6
p576
aV13-5
p577
aa(lp578
Vdobj
p579
aVhad-4
p580
aVbars-6
p581
aa(lp582
Vnsubj
p583
aVsold-10
p584
aVtotal-7
p585
aa(lp586
Vconj_and
p587
aVtotal-7
p588
aVZoe-9
p589
aa(lp590
Vrcmod
p591
aVbars-6
p592
aVsold-10
p593
aa(lp594
Vnum
p595
aVbars-14
p596
aVall-11
p597
aa(lp598
Vconj_but
p599
aVall-11
p600
aV6-13
p601
aa(lp602
Vdobj
p603
aVsold-10
p604
aVbars-14
p605
aa(lp606
Vadvmod
p607
aVmuch-17
p608
aVhow-16
p609
aa(lp610
Vamod
p611
aVmoney-18
p612
aVmuch-17
p613
aa(lp614
Vdobj
p615
aVmade-22
p616
aVmoney-18
p617
aa(lp618
Vaux
p619
aVmade-22
p620
aVwould-19
p621
aa(lp622
Vnsubj
p623
aVmade-22
p624
aVshe-20
p625
aa(lp626
Vaux
p627
aVmade-22
p628
aVhave-21
p629
aasas.