(dp0
Vcoref
p1
(lp2
(lp3
(lp4
(lp5
Vit
p6
aI1
aI7
aI7
aI8
aa(lp7
Veach box
p8
aI1
aI2
aI1
aI3
aaaa(lp9
(lp10
(lp11
Vpieces
p12
aI1
aI11
aI11
aI12
aa(lp13
V4 pieces inside it
p14
aI1
aI5
aI4
aI8
aaaasVsentences
p15
(lp16
(dp17
Vparsetree
p18
V(ROOT (S (NP (NNP Will)) (VP (VP (VBD bought) (NP (NP (CD 7) (NNS boxes)) (PP (IN of) (NP (NN chocolate) (NN candy))))) (CC and) (VP (VBD gave) (NP (CD 3)) (PP (TO to) (NP (PRP$ his) (JJ little) (NN brother))))) (. .)))
p19
sVtext
p20
VWill bought 7 boxes of chocolate candy and gave 3 to his little brother .
p21
sVdependencies
p22
(lp23
(lp24
Vroot
p25
aVROOT
p26
aVbought
p27
aa(lp28
Vnsubj
p29
aVbought
p30
aVWill
p31
aa(lp32
Vnum
p33
aVboxes
p34
aV7
p35
aa(lp36
Vdobj
p37
aVbought
p38
aVboxes
p39
aa(lp40
Vnn
p41
aVcandy
p42
aVchocolate
p43
aa(lp44
Vprep_of
p45
aVboxes
p46
aVcandy
p47
aa(lp48
Vconj_and
p49
aVbought
p50
aVgave
p51
aa(lp52
Vdobj
p53
aVgave
p54
aV3
p55
aa(lp56
Vposs
p57
aVbrother
p58
aVhis
p59
aa(lp60
Vamod
p61
aVbrother
p62
aVlittle
p63
aa(lp64
Vprep_to
p65
aVgave
p66
aVbrother
p67
aasVwords
p68
(lp69
(lp70
VWill
p71
a(dp72
VNamedEntityTag
p73
VO
p74
sVCharacterOffsetEnd
p75
V5
p76
sVCharacterOffsetBegin
p77
V1
p78
sVPartOfSpeech
p79
VNNP
p80
sVLemma
p81
VWill
p82
saa(lp83
Vbought
p84
a(dp85
VNamedEntityTag
p86
g74
sVCharacterOffsetEnd
p87
V12
p88
sVCharacterOffsetBegin
p89
V6
p90
sVPartOfSpeech
p91
VVBD
p92
sVLemma
p93
Vbuy
p94
saa(lp95
g35
a(dp96
VNormalizedNamedEntityTag
p97
V7.0
p98
sVLemma
p99
g35
sVCharacterOffsetEnd
p100
V14
p101
sVPartOfSpeech
p102
VCD
p103
sVCharacterOffsetBegin
p104
V13
p105
sVNamedEntityTag
p106
VNUMBER
p107
saa(lp108
Vboxes
p109
a(dp110
VNamedEntityTag
p111
g74
sVCharacterOffsetEnd
p112
V20
p113
sVCharacterOffsetBegin
p114
V15
p115
sVPartOfSpeech
p116
VNNS
p117
sVLemma
p118
Vbox
p119
saa(lp120
Vof
p121
a(dp122
VNamedEntityTag
p123
g74
sVCharacterOffsetEnd
p124
V23
p125
sVCharacterOffsetBegin
p126
V21
p127
sVPartOfSpeech
p128
VIN
p129
sVLemma
p130
Vof
p131
saa(lp132
Vchocolate
p133
a(dp134
VNamedEntityTag
p135
g74
sVCharacterOffsetEnd
p136
V33
p137
sVCharacterOffsetBegin
p138
V24
p139
sVPartOfSpeech
p140
VNN
p141
sVLemma
p142
Vchocolate
p143
saa(lp144
Vcandy
p145
a(dp146
VNamedEntityTag
p147
g74
sVCharacterOffsetEnd
p148
V39
p149
sVCharacterOffsetBegin
p150
V34
p151
sVPartOfSpeech
p152
VNN
p153
sVLemma
p154
Vcandy
p155
saa(lp156
Vand
p157
a(dp158
VNamedEntityTag
p159
g74
sVCharacterOffsetEnd
p160
V43
p161
sVCharacterOffsetBegin
p162
V40
p163
sVPartOfSpeech
p164
VCC
p165
sVLemma
p166
Vand
p167
saa(lp168
Vgave
p169
a(dp170
VNamedEntityTag
p171
g74
sVCharacterOffsetEnd
p172
V48
p173
sVCharacterOffsetBegin
p174
V44
p175
sVPartOfSpeech
p176
VVBD
p177
sVLemma
p178
Vgive
p179
saa(lp180
g55
a(dp181
VNormalizedNamedEntityTag
p182
V3.0
p183
sVLemma
p184
g55
sVCharacterOffsetEnd
p185
V50
p186
sVPartOfSpeech
p187
VCD
p188
sVCharacterOffsetBegin
p189
V49
p190
sVNamedEntityTag
p191
VNUMBER
p192
saa(lp193
Vto
p194
a(dp195
VNamedEntityTag
p196
g74
sVCharacterOffsetEnd
p197
V53
p198
sVCharacterOffsetBegin
p199
V51
p200
sVPartOfSpeech
p201
VTO
p202
sVLemma
p203
Vto
p204
saa(lp205
Vhis
p206
a(dp207
VNamedEntityTag
p208
g74
sVCharacterOffsetEnd
p209
V57
p210
sVCharacterOffsetBegin
p211
V54
p212
sVPartOfSpeech
p213
VPRP$
p214
sVLemma
p215
Vhe
p216
saa(lp217
Vlittle
p218
a(dp219
VNamedEntityTag
p220
g74
sVCharacterOffsetEnd
p221
V64
p222
sVCharacterOffsetBegin
p223
V58
p224
sVPartOfSpeech
p225
VJJ
p226
sVLemma
p227
Vlittle
p228
saa(lp229
Vbrother
p230
a(dp231
VNamedEntityTag
p232
g74
sVCharacterOffsetEnd
p233
V72
p234
sVCharacterOffsetBegin
p235
V65
p236
sVPartOfSpeech
p237
VNN
p238
sVLemma
p239
Vbrother
p240
saa(lp241
V.
p242
a(dp243
VNamedEntityTag
p244
g74
sVCharacterOffsetEnd
p245
V74
p246
sVCharacterOffsetBegin
p247
V73
p248
sVPartOfSpeech
p249
g242
sVLemma
p250
g242
saasVindexeddependencies
p251
(lp252
(lp253
Vroot
p254
aVROOT-0
p255
aVbought-2
p256
aa(lp257
Vnsubj
p258
aVbought-2
p259
aVWill-1
p260
aa(lp261
Vnum
p262
aVboxes-4
p263
aV7-3
p264
aa(lp265
Vdobj
p266
aVbought-2
p267
aVboxes-4
p268
aa(lp269
Vnn
p270
aVcandy-7
p271
aVchocolate-6
p272
aa(lp273
Vprep_of
p274
aVboxes-4
p275
aVcandy-7
p276
aa(lp277
Vconj_and
p278
aVbought-2
p279
aVgave-9
p280
aa(lp281
Vdobj
p282
aVgave-9
p283
aV3-10
p284
aa(lp285
Vposs
p286
aVbrother-14
p287
aVhis-12
p288
aa(lp289
Vamod
p290
aVbrother-14
p291
aVlittle-13
p292
aa(lp293
Vprep_to
p294
aVgave-9
p295
aVbrother-14
p296
aasa(dp297
Vparsetree
p298
V(ROOT (S (SBAR (IN If) (S (NP (DT each) (NN box)) (VP (VBZ has) (NP (NP (CD 4) (NNS pieces)) (PP (IN inside) (NP (PRP it)))) (, ,) (SBAR (WHADJP (WRB how) (JJ many)) (S (NP (NNS pieces)) (VP (VBD did))))))) (VP (MD Will) (ADVP (RB still)) (VP (VB have))) (. ?)))
p299
sVtext
p300
VIf each box has 4 pieces inside it , how many pieces did Will still have ?
p301
sVdependencies
p302
(lp303
(lp304
Vroot
p305
aVROOT
p306
aVhave
p307
aa(lp308
Vmark
p309
aVhas
p310
aVIf
p311
aa(lp312
Vdet
p313
aVbox
p314
aVeach
p315
aa(lp316
Vnsubj
p317
aVhas
p318
aVbox
p319
aa(lp320
Vcsubj
p321
aVhave
p322
aVhas
p323
aa(lp324
Vnum
p325
aVpieces
p326
aV4
p327
aa(lp328
Vdobj
p329
aVhas
p330
aVpieces
p331
aa(lp332
Vprep_inside
p333
aVpieces
p334
aVit
p335
aa(lp336
Vadvmod
p337
aVmany
p338
aVhow
p339
aa(lp340
Vdep
p341
aVdid
p342
aVmany
p343
aa(lp344
Vnsubj
p345
aVdid
p346
aVpieces
p347
aa(lp348
Vdep
p349
aVhas
p350
aVdid
p351
aa(lp352
Vaux
p353
aVhave
p354
aVWill
p355
aa(lp356
Vadvmod
p357
aVhave
p358
aVstill
p359
aasVwords
p360
(lp361
(lp362
VIf
p363
a(dp364
VNamedEntityTag
p365
g74
sVCharacterOffsetEnd
p366
V77
p367
sVCharacterOffsetBegin
p368
V75
p369
sVPartOfSpeech
p370
VIN
p371
sVLemma
p372
Vif
p373
saa(lp374
Veach
p375
a(dp376
VNamedEntityTag
p377
g74
sVCharacterOffsetEnd
p378
V82
p379
sVCharacterOffsetBegin
p380
V78
p381
sVPartOfSpeech
p382
VDT
p383
sVLemma
p384
Veach
p385
saa(lp386
Vbox
p387
a(dp388
VNamedEntityTag
p389
g74
sVCharacterOffsetEnd
p390
V86
p391
sVCharacterOffsetBegin
p392
V83
p393
sVPartOfSpeech
p394
VNN
p395
sVLemma
p396
Vbox
p397
saa(lp398
Vhas
p399
a(dp400
VNamedEntityTag
p401
g74
sVCharacterOffsetEnd
p402
V90
p403
sVCharacterOffsetBegin
p404
V87
p405
sVPartOfSpeech
p406
VVBZ
p407
sVLemma
p408
Vhave
p409
saa(lp410
g327
a(dp411
VNormalizedNamedEntityTag
p412
V4.0
p413
sVLemma
p414
g327
sVCharacterOffsetEnd
p415
V92
p416
sVPartOfSpeech
p417
VCD
p418
sVCharacterOffsetBegin
p419
V91
p420
sVNamedEntityTag
p421
VNUMBER
p422
saa(lp423
Vpieces
p424
a(dp425
VNamedEntityTag
p426
g74
sVCharacterOffsetEnd
p427
V99
p428
sVCharacterOffsetBegin
p429
V93
p430
sVPartOfSpeech
p431
VNNS
p432
sVLemma
p433
Vpiece
p434
saa(lp435
Vinside
p436
a(dp437
VNamedEntityTag
p438
g74
sVCharacterOffsetEnd
p439
V106
p440
sVCharacterOffsetBegin
p441
V100
p442
sVPartOfSpeech
p443
VIN
p444
sVLemma
p445
Vinside
p446
saa(lp447
Vit
p448
a(dp449
VNamedEntityTag
p450
g74
sVCharacterOffsetEnd
p451
V109
p452
sVCharacterOffsetBegin
p453
V107
p454
sVPartOfSpeech
p455
VPRP
p456
sVLemma
p457
Vit
p458
saa(lp459
V,
p460
a(dp461
VNamedEntityTag
p462
g74
sVCharacterOffsetEnd
p463
V111
p464
sVCharacterOffsetBegin
p465
V110
p466
sVPartOfSpeech
p467
g460
sVLemma
p468
g460
saa(lp469
Vhow
p470
a(dp471
VNamedEntityTag
p472
g74
sVCharacterOffsetEnd
p473
V115
p474
sVCharacterOffsetBegin
p475
V112
p476
sVPartOfSpeech
p477
VWRB
p478
sVLemma
p479
Vhow
p480
saa(lp481
Vmany
p482
a(dp483
VNamedEntityTag
p484
g74
sVCharacterOffsetEnd
p485
V120
p486
sVCharacterOffsetBegin
p487
V116
p488
sVPartOfSpeech
p489
VJJ
p490
sVLemma
p491
Vmany
p492
saa(lp493
Vpieces
p494
a(dp495
VNamedEntityTag
p496
g74
sVCharacterOffsetEnd
p497
V127
p498
sVCharacterOffsetBegin
p499
V121
p500
sVPartOfSpeech
p501
VNNS
p502
sVLemma
p503
Vpiece
p504
saa(lp505
Vdid
p506
a(dp507
VNamedEntityTag
p508
g74
sVCharacterOffsetEnd
p509
V131
p510
sVCharacterOffsetBegin
p511
V128
p512
sVPartOfSpeech
p513
VVBD
p514
sVLemma
p515
Vdo
p516
saa(lp517
VWill
p518
a(dp519
VNamedEntityTag
p520
g74
sVCharacterOffsetEnd
p521
V136
p522
sVCharacterOffsetBegin
p523
V132
p524
sVPartOfSpeech
p525
VMD
p526
sVLemma
p527
Vwill
p528
saa(lp529
Vstill
p530
a(dp531
VNamedEntityTag
p532
g74
sVCharacterOffsetEnd
p533
V142
p534
sVCharacterOffsetBegin
p535
V137
p536
sVPartOfSpeech
p537
VRB
p538
sVLemma
p539
Vstill
p540
saa(lp541
Vhave
p542
a(dp543
VNamedEntityTag
p544
g74
sVCharacterOffsetEnd
p545
V147
p546
sVCharacterOffsetBegin
p547
V143
p548
sVPartOfSpeech
p549
VVB
p550
sVLemma
p551
Vhave
p552
saa(lp553
V?
p554
a(dp555
VNamedEntityTag
p556
g74
sVCharacterOffsetEnd
p557
V149
p558
sVCharacterOffsetBegin
p559
V148
p560
sVPartOfSpeech
p561
g242
sVLemma
p562
g554
saasVindexeddependencies
p563
(lp564
(lp565
Vroot
p566
aVROOT-0
p567
aVhave-16
p568
aa(lp569
Vmark
p570
aVhas-4
p571
aVIf-1
p572
aa(lp573
Vdet
p574
aVbox-3
p575
aVeach-2
p576
aa(lp577
Vnsubj
p578
aVhas-4
p579
aVbox-3
p580
aa(lp581
Vcsubj
p582
aVhave-16
p583
aVhas-4
p584
aa(lp585
Vnum
p586
aVpieces-6
p587
aV4-5
p588
aa(lp589
Vdobj
p590
aVhas-4
p591
aVpieces-6
p592
aa(lp593
Vprep_inside
p594
aVpieces-6
p595
aVit-8
p596
aa(lp597
Vadvmod
p598
aVmany-11
p599
aVhow-10
p600
aa(lp601
Vdep
p602
aVdid-13
p603
aVmany-11
p604
aa(lp605
Vnsubj
p606
aVdid-13
p607
aVpieces-12
p608
aa(lp609
Vdep
p610
aVhas-4
p611
aVdid-13
p612
aa(lp613
Vaux
p614
aVhave-16
p615
aVWill-14
p616
aa(lp617
Vadvmod
p618
aVhave-16
p619
aVstill-15
p620
aasas.