(dp0
Vcoref
p1
(lp2
(lp3
(lp4
(lp5
Vhe
p6
aI1
aI1
aI1
aI2
aa(lp7
VMike
p8
aI0
aI0
aI0
aI1
aaa(lp9
(lp10
Vhe
p11
aI1
aI18
aI18
aI19
aa(lp12
VMike
p13
aI0
aI0
aI0
aI1
aaaasVsentences
p14
(lp15
(dp16
Vparsetree
p17
V(ROOT (S (S (NP (NNP Mike)) (VP (VBD invited) (NP (CD 13) (NNS friends)) (PP (TO to) (NP (DT a) (NN birthday) (NN party))))) (, ,) (CC but) (S (NP (CD 7)) (VP (MD could) (RB n't) (VP (VB come)))) (. .)))
p18
sVtext
p19
VMike invited 13 friends to a birthday party , but 7 couldn't come .
p20
sVdependencies
p21
(lp22
(lp23
Vroot
p24
aVROOT
p25
aVinvited
p26
aa(lp27
Vnsubj
p28
aVinvited
p29
aVMike
p30
aa(lp31
Vnum
p32
aVfriends
p33
aV13
p34
aa(lp35
Vdobj
p36
aVinvited
p37
aVfriends
p38
aa(lp39
Vdet
p40
aVparty
p41
aVa
p42
aa(lp43
Vnn
p44
aVparty
p45
aVbirthday
p46
aa(lp47
Vprep_to
p48
aVinvited
p49
aVparty
p50
aa(lp51
Vnsubj
p52
aVcome
p53
aV7
p54
aa(lp55
Vaux
p56
aVcome
p57
aVcould
p58
aa(lp59
Vneg
p60
aVcome
p61
aVn't
p62
aa(lp63
Vconj_but
p64
aVinvited
p65
aVcome
p66
aasVwords
p67
(lp68
(lp69
VMike
p70
a(dp71
VNamedEntityTag
p72
VPERSON
p73
sVCharacterOffsetEnd
p74
V5
p75
sVCharacterOffsetBegin
p76
V1
p77
sVPartOfSpeech
p78
VNNP
p79
sVLemma
p80
VMike
p81
saa(lp82
Vinvited
p83
a(dp84
VNamedEntityTag
p85
VO
p86
sVCharacterOffsetEnd
p87
V13
p88
sVCharacterOffsetBegin
p89
V6
p90
sVPartOfSpeech
p91
VVBD
p92
sVLemma
p93
Vinvite
p94
saa(lp95
V13
p96
a(dp97
VNormalizedNamedEntityTag
p98
V13.0
p99
sVLemma
p100
V13
p101
sVCharacterOffsetEnd
p102
V16
p103
sVPartOfSpeech
p104
VCD
p105
sVCharacterOffsetBegin
p106
V14
p107
sVNamedEntityTag
p108
VNUMBER
p109
saa(lp110
Vfriends
p111
a(dp112
VNamedEntityTag
p113
g86
sVCharacterOffsetEnd
p114
V24
p115
sVCharacterOffsetBegin
p116
V17
p117
sVPartOfSpeech
p118
VNNS
p119
sVLemma
p120
Vfriend
p121
saa(lp122
Vto
p123
a(dp124
VNamedEntityTag
p125
g86
sVCharacterOffsetEnd
p126
V27
p127
sVCharacterOffsetBegin
p128
V25
p129
sVPartOfSpeech
p130
VTO
p131
sVLemma
p132
Vto
p133
saa(lp134
g42
a(dp135
VNamedEntityTag
p136
g86
sVCharacterOffsetEnd
p137
V29
p138
sVCharacterOffsetBegin
p139
V28
p140
sVPartOfSpeech
p141
VDT
p142
sVLemma
p143
g42
saa(lp144
Vbirthday
p145
a(dp146
VNamedEntityTag
p147
g86
sVCharacterOffsetEnd
p148
V38
p149
sVCharacterOffsetBegin
p150
V30
p151
sVPartOfSpeech
p152
VNN
p153
sVLemma
p154
Vbirthday
p155
saa(lp156
Vparty
p157
a(dp158
VNamedEntityTag
p159
g86
sVCharacterOffsetEnd
p160
V44
p161
sVCharacterOffsetBegin
p162
V39
p163
sVPartOfSpeech
p164
VNN
p165
sVLemma
p166
Vparty
p167
saa(lp168
V,
p169
a(dp170
VNamedEntityTag
p171
g86
sVCharacterOffsetEnd
p172
V46
p173
sVCharacterOffsetBegin
p174
V45
p175
sVPartOfSpeech
p176
g169
sVLemma
p177
g169
saa(lp178
Vbut
p179
a(dp180
VNamedEntityTag
p181
g86
sVCharacterOffsetEnd
p182
V50
p183
sVCharacterOffsetBegin
p184
V47
p185
sVPartOfSpeech
p186
VCC
p187
sVLemma
p188
Vbut
p189
saa(lp190
g54
a(dp191
VNormalizedNamedEntityTag
p192
V7.0
p193
sVLemma
p194
g54
sVCharacterOffsetEnd
p195
V52
p196
sVPartOfSpeech
p197
VCD
p198
sVCharacterOffsetBegin
p199
V51
p200
sVNamedEntityTag
p201
VNUMBER
p202
saa(lp203
Vcould
p204
a(dp205
VNamedEntityTag
p206
g86
sVCharacterOffsetEnd
p207
V58
p208
sVCharacterOffsetBegin
p209
V53
p210
sVPartOfSpeech
p211
VMD
p212
sVLemma
p213
Vcould
p214
saa(lp215
Vn't
p216
a(dp217
VNamedEntityTag
p218
g86
sVCharacterOffsetEnd
p219
V61
p220
sVCharacterOffsetBegin
p221
V58
p222
sVPartOfSpeech
p223
VRB
p224
sVLemma
p225
Vnot
p226
saa(lp227
Vcome
p228
a(dp229
VNamedEntityTag
p230
g86
sVCharacterOffsetEnd
p231
V66
p232
sVCharacterOffsetBegin
p233
V62
p234
sVPartOfSpeech
p235
VVB
p236
sVLemma
p237
Vcome
p238
saa(lp239
V.
p240
a(dp241
VNamedEntityTag
p242
g86
sVCharacterOffsetEnd
p243
V68
p244
sVCharacterOffsetBegin
p245
V67
p246
sVPartOfSpeech
p247
g240
sVLemma
p248
g240
saasVindexeddependencies
p249
(lp250
(lp251
Vroot
p252
aVROOT-0
p253
aVinvited-2
p254
aa(lp255
Vnsubj
p256
aVinvited-2
p257
aVMike-1
p258
aa(lp259
Vnum
p260
aVfriends-4
p261
aV13-3
p262
aa(lp263
Vdobj
p264
aVinvited-2
p265
aVfriends-4
p266
aa(lp267
Vdet
p268
aVparty-8
p269
aVa-6
p270
aa(lp271
Vnn
p272
aVparty-8
p273
aVbirthday-7
p274
aa(lp275
Vprep_to
p276
aVinvited-2
p277
aVparty-8
p278
aa(lp279
Vnsubj
p280
aVcome-14
p281
aV7-11
p282
aa(lp283
Vaux
p284
aVcome-14
p285
aVcould-12
p286
aa(lp287
Vneg
p288
aVcome-14
p289
aVn't-13
p290
aa(lp291
Vconj_but
p292
aVinvited-2
p293
aVcome-14
p294
aasa(dp295
Vparsetree
p296
V(ROOT (SBARQ (SBAR (IN If) (S (NP (PRP he)) (VP (VBD wanted) (S (VP (TO to) (VP (VB buy) (NP (JJ enough) (NNS cupcakes)) (SBAR (IN so) (S (NP (DT each) (NN person)) (VP (MD could) (VP (VB have) (NP (RB exactly) (CD 4)))))))))))) (, ,) (WHNP (WRB how) (JJ many)) (SQ (MD should) (NP (PRP he)) (VP (VB buy))) (. ?)))
p297
sVtext
p298
VIf he wanted to buy enough cupcakes so each person could have exactly 4 , how many should he buy ?
p299
sVdependencies
p300
(lp301
(lp302
Vroot
p303
aVROOT
p304
aVbuy
p305
aa(lp306
Vmark
p307
aVwanted
p308
aVIf
p309
aa(lp310
Vnsubj
p311
aVwanted
p312
aVhe
p313
aa(lp314
Vadvcl
p315
aVbuy
p316
aVwanted
p317
aa(lp318
Vaux
p319
aVbuy
p320
aVto
p321
aa(lp322
Vxcomp
p323
aVwanted
p324
aVbuy
p325
aa(lp326
Vamod
p327
aVcupcakes
p328
aVenough
p329
aa(lp330
Vdobj
p331
aVbuy
p332
aVcupcakes
p333
aa(lp334
Vmark
p335
aVhave
p336
aVso
p337
aa(lp338
Vdet
p339
aVperson
p340
aVeach
p341
aa(lp342
Vnsubj
p343
aVhave
p344
aVperson
p345
aa(lp346
Vaux
p347
aVhave
p348
aVcould
p349
aa(lp350
Vadvcl
p351
aVbuy
p352
aVhave
p353
aa(lp354
Vadvmod
p355
aV4
p356
aVexactly
p357
aa(lp358
Vdobj
p359
aVhave
p360
ag356
aa(lp361
Vadvmod
p362
aVmany
p363
aVhow
p364
aa(lp365
Vdep
p366
aVbuy
p367
aVmany
p368
aa(lp369
Vaux
p370
aVbuy
p371
aVshould
p372
aa(lp373
Vnsubj
p374
aVbuy
p375
aVhe
p376
aasVwords
p377
(lp378
(lp379
VIf
p380
a(dp381
VNamedEntityTag
p382
g86
sVCharacterOffsetEnd
p383
V71
p384
sVCharacterOffsetBegin
p385
V69
p386
sVPartOfSpeech
p387
VIN
p388
sVLemma
p389
Vif
p390
saa(lp391
Vhe
p392
a(dp393
VNamedEntityTag
p394
g86
sVCharacterOffsetEnd
p395
V74
p396
sVCharacterOffsetBegin
p397
V72
p398
sVPartOfSpeech
p399
VPRP
p400
sVLemma
p401
Vhe
p402
saa(lp403
Vwanted
p404
a(dp405
VNamedEntityTag
p406
g86
sVCharacterOffsetEnd
p407
V81
p408
sVCharacterOffsetBegin
p409
V75
p410
sVPartOfSpeech
p411
VVBD
p412
sVLemma
p413
Vwant
p414
saa(lp415
Vto
p416
a(dp417
VNamedEntityTag
p418
g86
sVCharacterOffsetEnd
p419
V84
p420
sVCharacterOffsetBegin
p421
V82
p422
sVPartOfSpeech
p423
VTO
p424
sVLemma
p425
Vto
p426
saa(lp427
Vbuy
p428
a(dp429
VNamedEntityTag
p430
g86
sVCharacterOffsetEnd
p431
V88
p432
sVCharacterOffsetBegin
p433
V85
p434
sVPartOfSpeech
p435
VVB
p436
sVLemma
p437
Vbuy
p438
saa(lp439
Venough
p440
a(dp441
VNamedEntityTag
p442
g86
sVCharacterOffsetEnd
p443
V95
p444
sVCharacterOffsetBegin
p445
V89
p446
sVPartOfSpeech
p447
VJJ
p448
sVLemma
p449
Venough
p450
saa(lp451
Vcupcakes
p452
a(dp453
VNamedEntityTag
p454
g86
sVCharacterOffsetEnd
p455
V104
p456
sVCharacterOffsetBegin
p457
V96
p458
sVPartOfSpeech
p459
VNNS
p460
sVLemma
p461
Vcupcake
p462
saa(lp463
Vso
p464
a(dp465
VNamedEntityTag
p466
g86
sVCharacterOffsetEnd
p467
V107
p468
sVCharacterOffsetBegin
p469
V105
p470
sVPartOfSpeech
p471
VIN
p472
sVLemma
p473
Vso
p474
saa(lp475
Veach
p476
a(dp477
VNamedEntityTag
p478
g86
sVCharacterOffsetEnd
p479
V112
p480
sVCharacterOffsetBegin
p481
V108
p482
sVPartOfSpeech
p483
VDT
p484
sVLemma
p485
Veach
p486
saa(lp487
Vperson
p488
a(dp489
VNamedEntityTag
p490
g86
sVCharacterOffsetEnd
p491
V119
p492
sVCharacterOffsetBegin
p493
V113
p494
sVPartOfSpeech
p495
VNN
p496
sVLemma
p497
Vperson
p498
saa(lp499
Vcould
p500
a(dp501
VNamedEntityTag
p502
g86
sVCharacterOffsetEnd
p503
V125
p504
sVCharacterOffsetBegin
p505
V120
p506
sVPartOfSpeech
p507
VMD
p508
sVLemma
p509
Vcould
p510
saa(lp511
Vhave
p512
a(dp513
VNamedEntityTag
p514
g86
sVCharacterOffsetEnd
p515
V130
p516
sVCharacterOffsetBegin
p517
V126
p518
sVPartOfSpeech
p519
VVB
p520
sVLemma
p521
Vhave
p522
saa(lp523
Vexactly
p524
a(dp525
VNamedEntityTag
p526
g86
sVCharacterOffsetEnd
p527
V138
p528
sVCharacterOffsetBegin
p529
V131
p530
sVPartOfSpeech
p531
VRB
p532
sVLemma
p533
Vexactly
p534
saa(lp535
g356
a(dp536
VNormalizedNamedEntityTag
p537
V4.0
p538
sVLemma
p539
g356
sVCharacterOffsetEnd
p540
V140
p541
sVPartOfSpeech
p542
VCD
p543
sVCharacterOffsetBegin
p544
V139
p545
sVNamedEntityTag
p546
VNUMBER
p547
saa(lp548
g169
a(dp549
VNamedEntityTag
p550
g86
sVCharacterOffsetEnd
p551
V142
p552
sVCharacterOffsetBegin
p553
V141
p554
sVPartOfSpeech
p555
g169
sVLemma
p556
g169
saa(lp557
Vhow
p558
a(dp559
VNamedEntityTag
p560
g86
sVCharacterOffsetEnd
p561
V146
p562
sVCharacterOffsetBegin
p563
V143
p564
sVPartOfSpeech
p565
VWRB
p566
sVLemma
p567
Vhow
p568
saa(lp569
Vmany
p570
a(dp571
VNamedEntityTag
p572
g86
sVCharacterOffsetEnd
p573
V151
p574
sVCharacterOffsetBegin
p575
V147
p576
sVPartOfSpeech
p577
VJJ
p578
sVLemma
p579
Vmany
p580
saa(lp581
Vshould
p582
a(dp583
VNamedEntityTag
p584
g86
sVCharacterOffsetEnd
p585
V158
p586
sVCharacterOffsetBegin
p587
V152
p588
sVPartOfSpeech
p589
VMD
p590
sVLemma
p591
Vshould
p592
saa(lp593
Vhe
p594
a(dp595
VNamedEntityTag
p596
g86
sVCharacterOffsetEnd
p597
V161
p598
sVCharacterOffsetBegin
p599
V159
p600
sVPartOfSpeech
p601
VPRP
p602
sVLemma
p603
Vhe
p604
saa(lp605
Vbuy
p606
a(dp607
VNamedEntityTag
p608
g86
sVCharacterOffsetEnd
p609
V165
p610
sVCharacterOffsetBegin
p611
V162
p612
sVPartOfSpeech
p613
VVB
p614
sVLemma
p615
Vbuy
p616
saa(lp617
V?
p618
a(dp619
VNamedEntityTag
p620
g86
sVCharacterOffsetEnd
p621
V167
p622
sVCharacterOffsetBegin
p623
V166
p624
sVPartOfSpeech
p625
g240
sVLemma
p626
g618
saasVindexeddependencies
p627
(lp628
(lp629
Vroot
p630
aVROOT-0
p631
aVbuy-20
p632
aa(lp633
Vmark
p634
aVwanted-3
p635
aVIf-1
p636
aa(lp637
Vnsubj
p638
aVwanted-3
p639
aVhe-2
p640
aa(lp641
Vadvcl
p642
aVbuy-20
p643
aVwanted-3
p644
aa(lp645
Vaux
p646
aVbuy-5
p647
aVto-4
p648
aa(lp649
Vxcomp
p650
aVwanted-3
p651
aVbuy-5
p652
aa(lp653
Vamod
p654
aVcupcakes-7
p655
aVenough-6
p656
aa(lp657
Vdobj
p658
aVbuy-5
p659
aVcupcakes-7
p660
aa(lp661
Vmark
p662
aVhave-12
p663
aVso-8
p664
aa(lp665
Vdet
p666
aVperson-10
p667
aVeach-9
p668
aa(lp669
Vnsubj
p670
aVhave-12
p671
aVperson-10
p672
aa(lp673
Vaux
p674
aVhave-12
p675
aVcould-11
p676
aa(lp677
Vadvcl
p678
aVbuy-5
p679
aVhave-12
p680
aa(lp681
Vadvmod
p682
aV4-14
p683
aVexactly-13
p684
aa(lp685
Vdobj
p686
aVhave-12
p687
aV4-14
p688
aa(lp689
Vadvmod
p690
aVmany-17
p691
aVhow-16
p692
aa(lp693
Vdep
p694
aVbuy-20
p695
aVmany-17
p696
aa(lp697
Vaux
p698
aVbuy-20
p699
aVshould-18
p700
aa(lp701
Vnsubj
p702
aVbuy-20
p703
aVhe-19
p704
aasas.