(dp0
Vcoref
p1
(lp2
(lp3
(lp4
(lp5
Vhe
p6
aI1
aI1
aI1
aI2
aa(lp7
VA magician
p8
aI0
aI1
aI0
aI2
aaa(lp9
(lp10
Vhe
p11
aI1
aI13
aI13
aI14
aa(lp12
VA magician
p13
aI0
aI1
aI0
aI2
aaa(lp14
(lp15
Vhe
p16
aI1
aI22
aI22
aI23
aa(lp17
VA magician
p18
aI0
aI1
aI0
aI2
aaaasVsentences
p19
(lp20
(dp21
Vparsetree
p22
V(ROOT (S (NP (DT A) (NN magician)) (VP (VBD was) (VP (VBG selling) (NP (JJ magic) (NN card) (NNS decks)) (PP (IN for) (NP (NP (CD 2) (NNS dollars)) (NP (DT each)))))) (. .)))
p23
sVtext
p24
VA magician was selling magic card decks for 2 dollars each .
p25
sVdependencies
p26
(lp27
(lp28
Vroot
p29
aVROOT
p30
aVselling
p31
aa(lp32
Vdet
p33
aVmagician
p34
aVA
p35
aa(lp36
Vnsubj
p37
aVselling
p38
aVmagician
p39
aa(lp40
Vaux
p41
aVselling
p42
aVwas
p43
aa(lp44
Vamod
p45
aVdecks
p46
aVmagic
p47
aa(lp48
Vnn
p49
aVdecks
p50
aVcard
p51
aa(lp52
Vdobj
p53
aVselling
p54
aVdecks
p55
aa(lp56
Vnum
p57
aVdollars
p58
aV2
p59
aa(lp60
Vprep_for
p61
aVselling
p62
aVdollars
p63
aa(lp64
Vdep
p65
aVdollars
p66
aVeach
p67
aasVwords
p68
(lp69
(lp70
g35
a(dp71
VNamedEntityTag
p72
VO
p73
sVCharacterOffsetEnd
p74
g59
sVCharacterOffsetBegin
p75
V1
p76
sVPartOfSpeech
p77
VDT
p78
sVLemma
p79
Va
p80
saa(lp81
Vmagician
p82
a(dp83
VNamedEntityTag
p84
g73
sVCharacterOffsetEnd
p85
V11
p86
sVCharacterOffsetBegin
p87
V3
p88
sVPartOfSpeech
p89
VNN
p90
sVLemma
p91
Vmagician
p92
saa(lp93
Vwas
p94
a(dp95
VNamedEntityTag
p96
g73
sVCharacterOffsetEnd
p97
V15
p98
sVCharacterOffsetBegin
p99
V12
p100
sVPartOfSpeech
p101
VVBD
p102
sVLemma
p103
Vbe
p104
saa(lp105
Vselling
p106
a(dp107
VNamedEntityTag
p108
g73
sVCharacterOffsetEnd
p109
V23
p110
sVCharacterOffsetBegin
p111
V16
p112
sVPartOfSpeech
p113
VVBG
p114
sVLemma
p115
Vsell
p116
saa(lp117
Vmagic
p118
a(dp119
VNamedEntityTag
p120
g73
sVCharacterOffsetEnd
p121
V29
p122
sVCharacterOffsetBegin
p123
V24
p124
sVPartOfSpeech
p125
VJJ
p126
sVLemma
p127
Vmagic
p128
saa(lp129
Vcard
p130
a(dp131
VNamedEntityTag
p132
g73
sVCharacterOffsetEnd
p133
V34
p134
sVCharacterOffsetBegin
p135
V30
p136
sVPartOfSpeech
p137
VNN
p138
sVLemma
p139
Vcard
p140
saa(lp141
Vdecks
p142
a(dp143
VNamedEntityTag
p144
g73
sVCharacterOffsetEnd
p145
V40
p146
sVCharacterOffsetBegin
p147
V35
p148
sVPartOfSpeech
p149
VNNS
p150
sVLemma
p151
Vdeck
p152
saa(lp153
Vfor
p154
a(dp155
VNamedEntityTag
p156
g73
sVCharacterOffsetEnd
p157
V44
p158
sVCharacterOffsetBegin
p159
V41
p160
sVPartOfSpeech
p161
VIN
p162
sVLemma
p163
Vfor
p164
saa(lp165
g59
a(dp166
VNormalizedNamedEntityTag
p167
V$2.0
p168
sVLemma
p169
g59
sVCharacterOffsetEnd
p170
V46
p171
sVPartOfSpeech
p172
VCD
p173
sVCharacterOffsetBegin
p174
V45
p175
sVNamedEntityTag
p176
VMONEY
p177
saa(lp178
Vdollars
p179
a(dp180
VNormalizedNamedEntityTag
p181
V$2.0
p182
sVLemma
p183
Vdollar
p184
sVCharacterOffsetEnd
p185
V54
p186
sVPartOfSpeech
p187
VNNS
p188
sVCharacterOffsetBegin
p189
V47
p190
sVNamedEntityTag
p191
VMONEY
p192
saa(lp193
Veach
p194
a(dp195
VNamedEntityTag
p196
g73
sVCharacterOffsetEnd
p197
V59
p198
sVCharacterOffsetBegin
p199
V55
p200
sVPartOfSpeech
p201
VDT
p202
sVLemma
p203
Veach
p204
saa(lp205
V.
p206
a(dp207
VNamedEntityTag
p208
g73
sVCharacterOffsetEnd
p209
V61
p210
sVCharacterOffsetBegin
p211
V60
p212
sVPartOfSpeech
p213
g206
sVLemma
p214
g206
saasVindexeddependencies
p215
(lp216
(lp217
Vroot
p218
aVROOT-0
p219
aVselling-4
p220
aa(lp221
Vdet
p222
aVmagician-2
p223
aVA-1
p224
aa(lp225
Vnsubj
p226
aVselling-4
p227
aVmagician-2
p228
aa(lp229
Vaux
p230
aVselling-4
p231
aVwas-3
p232
aa(lp233
Vamod
p234
aVdecks-7
p235
aVmagic-5
p236
aa(lp237
Vnn
p238
aVdecks-7
p239
aVcard-6
p240
aa(lp241
Vdobj
p242
aVselling-4
p243
aVdecks-7
p244
aa(lp245
Vnum
p246
aVdollars-10
p247
aV2-9
p248
aa(lp249
Vprep_for
p250
aVselling-4
p251
aVdollars-10
p252
aa(lp253
Vdep
p254
aVdollars-10
p255
aVeach-11
p256
aasa(dp257
Vparsetree
p258
V(ROOT (SBARQ (SBAR (IN If) (S (NP (PRP he)) (VP (VBD started) (PP (PP (IN with) (NP (CD 5) (NNS decks))) (CC and) (PP (IN by) (NP (NP (DT the) (NN end)) (PP (IN of) (NP (NP (DT the) (NN day)) (SBAR (S (NP (PRP he)) (VP (VBD had) (NP (CD 3) (NN left))))))))))))) (, ,) (WHNP (WHADJP (WRB how) (JJ much)) (NN money)) (SQ (VBD did) (NP (PRP he)) (VP (VB earn))) (. ?)))
p259
sVtext
p260
VIf he started with 5 decks and by the end of the day he had 3 left , how much money did he earn ?
p261
sVdependencies
p262
(lp263
(lp264
Vroot
p265
aVROOT
p266
aVearn
p267
aa(lp268
Vmark
p269
aVstarted
p270
aVIf
p271
aa(lp272
Vnsubj
p273
aVstarted
p274
aVhe
p275
aa(lp276
Vadvcl
p277
aVearn
p278
aVstarted
p279
aa(lp280
Vconj_and
p281
aVstarted
p282
aVstarted
p283
aa(lp284
Vnum
p285
aVdecks
p286
aV5
p287
aa(lp288
Vprep_with
p289
aVstarted
p290
aVdecks
p291
aa(lp292
Vdet
p293
aVend
p294
aVthe
p295
aa(lp296
Vprep_by
p297
aVstarted
p298
aVend
p299
aa(lp300
Vdet
p301
aVday
p302
aVthe
p303
aa(lp304
Vprep_of
p305
aVend
p306
aVday
p307
aa(lp308
Vnsubj
p309
aVhad
p310
aVhe
p311
aa(lp312
Vrcmod
p313
aVday
p314
aVhad
p315
aa(lp316
Vnum
p317
aVleft
p318
ag88
aa(lp319
Vdobj
p320
aVhad
p321
aVleft
p322
aa(lp323
Vadvmod
p324
aVmuch
p325
aVhow
p326
aa(lp327
Vamod
p328
aVmoney
p329
aVmuch
p330
aa(lp331
Vdobj
p332
aVearn
p333
aVmoney
p334
aa(lp335
Vaux
p336
aVearn
p337
aVdid
p338
aa(lp339
Vnsubj
p340
aVearn
p341
aVhe
p342
aasVwords
p343
(lp344
(lp345
VIf
p346
a(dp347
VNamedEntityTag
p348
g73
sVCharacterOffsetEnd
p349
V64
p350
sVCharacterOffsetBegin
p351
V62
p352
sVPartOfSpeech
p353
VIN
p354
sVLemma
p355
Vif
p356
saa(lp357
Vhe
p358
a(dp359
VNamedEntityTag
p360
g73
sVCharacterOffsetEnd
p361
V67
p362
sVCharacterOffsetBegin
p363
V65
p364
sVPartOfSpeech
p365
VPRP
p366
sVLemma
p367
Vhe
p368
saa(lp369
Vstarted
p370
a(dp371
VNamedEntityTag
p372
g73
sVCharacterOffsetEnd
p373
V75
p374
sVCharacterOffsetBegin
p375
V68
p376
sVPartOfSpeech
p377
VVBD
p378
sVLemma
p379
Vstart
p380
saa(lp381
Vwith
p382
a(dp383
VNamedEntityTag
p384
g73
sVCharacterOffsetEnd
p385
V80
p386
sVCharacterOffsetBegin
p387
V76
p388
sVPartOfSpeech
p389
VIN
p390
sVLemma
p391
Vwith
p392
saa(lp393
g287
a(dp394
VNormalizedNamedEntityTag
p395
V5.0
p396
sVLemma
p397
g287
sVCharacterOffsetEnd
p398
V82
p399
sVPartOfSpeech
p400
VCD
p401
sVCharacterOffsetBegin
p402
V81
p403
sVNamedEntityTag
p404
VNUMBER
p405
saa(lp406
Vdecks
p407
a(dp408
VNamedEntityTag
p409
g73
sVCharacterOffsetEnd
p410
V88
p411
sVCharacterOffsetBegin
p412
V83
p413
sVPartOfSpeech
p414
VNNS
p415
sVLemma
p416
Vdeck
p417
saa(lp418
Vand
p419
a(dp420
VNamedEntityTag
p421
g73
sVCharacterOffsetEnd
p422
V92
p423
sVCharacterOffsetBegin
p424
V89
p425
sVPartOfSpeech
p426
VCC
p427
sVLemma
p428
Vand
p429
saa(lp430
Vby
p431
a(dp432
VNamedEntityTag
p433
g73
sVCharacterOffsetEnd
p434
V95
p435
sVCharacterOffsetBegin
p436
V93
p437
sVPartOfSpeech
p438
VIN
p439
sVLemma
p440
Vby
p441
saa(lp442
Vthe
p443
a(dp444
VNormalizedNamedEntityTag
p445
VTHIS
p446
sVTimex
p447
V<TIMEX3 alt_value="THIS P1D" anchorTimeID="t0" mod="LATE" temporalFunction="true" tid="t1" type="DATE" valueFromFunction="tf0">the end of the day</TIMEX3>
p448
sVLemma
p449
Vthe
p450
sVCharacterOffsetEnd
p451
V99
p452
sVPartOfSpeech
p453
VDT
p454
sVCharacterOffsetBegin
p455
V96
p456
sVNamedEntityTag
p457
VDATE
p458
saa(lp459
Vend
p460
a(dp461
VNormalizedNamedEntityTag
p462
VTHIS
p463
sVTimex
p464
V<TIMEX3 alt_value="THIS P1D" anchorTimeID="t0" mod="LATE" temporalFunction="true" tid="t1" type="DATE" valueFromFunction="tf0">the end of the day</TIMEX3>
p465
sVLemma
p466
Vend
p467
sVCharacterOffsetEnd
p468
V103
p469
sVPartOfSpeech
p470
VNN
p471
sVCharacterOffsetBegin
p472
V100
p473
sVNamedEntityTag
p474
VDATE
p475
saa(lp476
Vof
p477
a(dp478
VNormalizedNamedEntityTag
p479
VTHIS
p480
sVTimex
p481
V<TIMEX3 alt_value="THIS P1D" anchorTimeID="t0" mod="LATE" temporalFunction="true" tid="t1" type="DATE" valueFromFunction="tf0">the end of the day</TIMEX3>
p482
sVLemma
p483
Vof
p484
sVCharacterOffsetEnd
p485
V106
p486
sVPartOfSpeech
p487
VIN
p488
sVCharacterOffsetBegin
p489
V104
p490
sVNamedEntityTag
p491
VDATE
p492
saa(lp493
Vthe
p494
a(dp495
VNormalizedNamedEntityTag
p496
VTHIS
p497
sVTimex
p498
V<TIMEX3 alt_value="THIS P1D" anchorTimeID="t0" mod="LATE" temporalFunction="true" tid="t1" type="DATE" valueFromFunction="tf0">the end of the day</TIMEX3>
p499
sVLemma
p500
Vthe
p501
sVCharacterOffsetEnd
p502
V110
p503
sVPartOfSpeech
p504
VDT
p505
sVCharacterOffsetBegin
p506
V107
p507
sVNamedEntityTag
p508
VDATE
p509
saa(lp510
Vday
p511
a(dp512
VNormalizedNamedEntityTag
p513
VTHIS
p514
sVTimex
p515
V<TIMEX3 alt_value="THIS P1D" anchorTimeID="t0" mod="LATE" temporalFunction="true" tid="t1" type="DATE" valueFromFunction="tf0">the end of the day</TIMEX3>
p516
sVLemma
p517
Vday
p518
sVCharacterOffsetEnd
p519
V114
p520
sVPartOfSpeech
p521
VNN
p522
sVCharacterOffsetBegin
p523
V111
p524
sVNamedEntityTag
p525
VDATE
p526
saa(lp527
Vhe
p528
a(dp529
VNamedEntityTag
p530
g73
sVCharacterOffsetEnd
p531
V117
p532
sVCharacterOffsetBegin
p533
V115
p534
sVPartOfSpeech
p535
VPRP
p536
sVLemma
p537
Vhe
p538
saa(lp539
Vhad
p540
a(dp541
VNamedEntityTag
p542
g73
sVCharacterOffsetEnd
p543
V121
p544
sVCharacterOffsetBegin
p545
V118
p546
sVPartOfSpeech
p547
VVBD
p548
sVLemma
p549
Vhave
p550
saa(lp551
g88
a(dp552
VNormalizedNamedEntityTag
p553
V3.0
p554
sVLemma
p555
g88
sVCharacterOffsetEnd
p556
V123
p557
sVPartOfSpeech
p558
VCD
p559
sVCharacterOffsetBegin
p560
V122
p561
sVNamedEntityTag
p562
VNUMBER
p563
saa(lp564
Vleft
p565
a(dp566
VNamedEntityTag
p567
g73
sVCharacterOffsetEnd
p568
V128
p569
sVCharacterOffsetBegin
p570
V124
p571
sVPartOfSpeech
p572
VNN
p573
sVLemma
p574
Vleft
p575
saa(lp576
V,
p577
a(dp578
VNamedEntityTag
p579
g73
sVCharacterOffsetEnd
p580
V130
p581
sVCharacterOffsetBegin
p582
V129
p583
sVPartOfSpeech
p584
g577
sVLemma
p585
g577
saa(lp586
Vhow
p587
a(dp588
VNamedEntityTag
p589
g73
sVCharacterOffsetEnd
p590
V134
p591
sVCharacterOffsetBegin
p592
V131
p593
sVPartOfSpeech
p594
VWRB
p595
sVLemma
p596
Vhow
p597
saa(lp598
Vmuch
p599
a(dp600
VNamedEntityTag
p601
g73
sVCharacterOffsetEnd
p602
V139
p603
sVCharacterOffsetBegin
p604
V135
p605
sVPartOfSpeech
p606
VJJ
p607
sVLemma
p608
Vmuch
p609
saa(lp610
Vmoney
p611
a(dp612
VNamedEntityTag
p613
g73
sVCharacterOffsetEnd
p614
V145
p615
sVCharacterOffsetBegin
p616
V140
p617
sVPartOfSpeech
p618
VNN
p619
sVLemma
p620
Vmoney
p621
saa(lp622
Vdid
p623
a(dp624
VNamedEntityTag
p625
g73
sVCharacterOffsetEnd
p626
V149
p627
sVCharacterOffsetBegin
p628
V146
p629
sVPartOfSpeech
p630
VVBD
p631
sVLemma
p632
Vdo
p633
saa(lp634
Vhe
p635
a(dp636
VNamedEntityTag
p637
g73
sVCharacterOffsetEnd
p638
V152
p639
sVCharacterOffsetBegin
p640
V150
p641
sVPartOfSpeech
p642
VPRP
p643
sVLemma
p644
Vhe
p645
saa(lp646
Vearn
p647
a(dp648
VNamedEntityTag
p649
g73
sVCharacterOffsetEnd
p650
V157
p651
sVCharacterOffsetBegin
p652
V153
p653
sVPartOfSpeech
p654
VVB
p655
sVLemma
p656
Vearn
p657
saa(lp658
V?
p659
a(dp660
VNamedEntityTag
p661
g73
sVCharacterOffsetEnd
p662
V159
p663
sVCharacterOffsetBegin
p664
V158
p665
sVPartOfSpeech
p666
g206
sVLemma
p667
g659
saasVindexeddependencies
p668
(lp669
(lp670
Vroot
p671
aVROOT-0
p672
aVearn-24
p673
aa(lp674
Vmark
p675
aVstarted-3
p676
aVIf-1
p677
aa(lp678
Vnsubj
p679
aVstarted-3
p680
aVhe-2
p681
aa(lp682
Vadvcl
p683
aVearn-24
p684
aVstarted-3
p685
aa(lp686
Vconj_and
p687
aVstarted-3
p688
aVstarted-3
p689
aa(lp690
Vnum
p691
aVdecks-6
p692
aV5-5
p693
aa(lp694
Vprep_with
p695
aVstarted-3
p696
aVdecks-6
p697
aa(lp698
Vdet
p699
aVend-10
p700
aVthe-9
p701
aa(lp702
Vprep_by
p703
aVstarted-3
p704
aVend-10
p705
aa(lp706
Vdet
p707
aVday-13
p708
aVthe-12
p709
aa(lp710
Vprep_of
p711
aVend-10
p712
aVday-13
p713
aa(lp714
Vnsubj
p715
aVhad-15
p716
aVhe-14
p717
aa(lp718
Vrcmod
p719
aVday-13
p720
aVhad-15
p721
aa(lp722
Vnum
p723
aVleft-17
p724
aV3-16
p725
aa(lp726
Vdobj
p727
aVhad-15
p728
aVleft-17
p729
aa(lp730
Vadvmod
p731
aVmuch-20
p732
aVhow-19
p733
aa(lp734
Vamod
p735
aVmoney-21
p736
aVmuch-20
p737
aa(lp738
Vdobj
p739
aVearn-24
p740
aVmoney-21
p741
aa(lp742
Vaux
p743
aVearn-24
p744
aVdid-22
p745
aa(lp746
Vnsubj
p747
aVearn-24
p748
aVhe-23
p749
aasas.