(dp0
Vcoref
p1
(lp2
(lp3
(lp4
(lp5
Vhe
p6
aI1
aI5
aI5
aI6
aa(lp7
VAdam
p8
aI0
aI3
aI3
aI4
aaa(lp9
(lp10
VAdam
p11
aI2
aI11
aI11
aI12
aa(lp12
VAdam
p13
aI0
aI3
aI3
aI4
aaaa(lp14
(lp15
(lp16
Vthe ferris wheel
p17
aI2
aI16
aI14
aI17
aa(lp18
Vthe ferris wheel
p19
aI1
aI4
aI2
aI5
aaaasVsentences
p20
(lp21
(dp22
Vparsetree
p23
V(ROOT (S (PP (IN At) (NP (DT the) (JJ fair))) (NP (NNP Adam)) (VP (VBD bought) (NP (CD 13) (NNS tickets))) (. .)))
p24
sVtext
p25
VAt the fair Adam bought 13 tickets .
p26
sVdependencies
p27
(lp28
(lp29
Vroot
p30
aVROOT
p31
aVbought
p32
aa(lp33
Vdet
p34
aVfair
p35
aVthe
p36
aa(lp37
Vprep_at
p38
aVbought
p39
aVfair
p40
aa(lp41
Vnsubj
p42
aVbought
p43
aVAdam
p44
aa(lp45
Vnum
p46
aVtickets
p47
aV13
p48
aa(lp49
Vdobj
p50
aVbought
p51
aVtickets
p52
aasVwords
p53
(lp54
(lp55
VAt
p56
a(dp57
VNamedEntityTag
p58
VO
p59
sVCharacterOffsetEnd
p60
V3
p61
sVCharacterOffsetBegin
p62
V1
p63
sVPartOfSpeech
p64
VIN
p65
sVLemma
p66
Vat
p67
saa(lp68
Vthe
p69
a(dp70
VNamedEntityTag
p71
g59
sVCharacterOffsetEnd
p72
V7
p73
sVCharacterOffsetBegin
p74
V4
p75
sVPartOfSpeech
p76
VDT
p77
sVLemma
p78
Vthe
p79
saa(lp80
Vfair
p81
a(dp82
VNamedEntityTag
p83
g59
sVCharacterOffsetEnd
p84
V12
p85
sVCharacterOffsetBegin
p86
V8
p87
sVPartOfSpeech
p88
VJJ
p89
sVLemma
p90
Vfair
p91
saa(lp92
VAdam
p93
a(dp94
VNamedEntityTag
p95
VPERSON
p96
sVCharacterOffsetEnd
p97
V17
p98
sVCharacterOffsetBegin
p99
V13
p100
sVPartOfSpeech
p101
VNNP
p102
sVLemma
p103
VAdam
p104
saa(lp105
Vbought
p106
a(dp107
VNamedEntityTag
p108
g59
sVCharacterOffsetEnd
p109
V24
p110
sVCharacterOffsetBegin
p111
V18
p112
sVPartOfSpeech
p113
VVBD
p114
sVLemma
p115
Vbuy
p116
saa(lp117
V13
p118
a(dp119
VNormalizedNamedEntityTag
p120
V13.0
p121
sVLemma
p122
V13
p123
sVCharacterOffsetEnd
p124
V27
p125
sVPartOfSpeech
p126
VCD
p127
sVCharacterOffsetBegin
p128
V25
p129
sVNamedEntityTag
p130
VNUMBER
p131
saa(lp132
Vtickets
p133
a(dp134
VNamedEntityTag
p135
g59
sVCharacterOffsetEnd
p136
V35
p137
sVCharacterOffsetBegin
p138
V28
p139
sVPartOfSpeech
p140
VNNS
p141
sVLemma
p142
Vticket
p143
saa(lp144
V.
p145
a(dp146
VNamedEntityTag
p147
g59
sVCharacterOffsetEnd
p148
V37
p149
sVCharacterOffsetBegin
p150
V36
p151
sVPartOfSpeech
p152
g145
sVLemma
p153
g145
saasVindexeddependencies
p154
(lp155
(lp156
Vroot
p157
aVROOT-0
p158
aVbought-5
p159
aa(lp160
Vdet
p161
aVfair-3
p162
aVthe-2
p163
aa(lp164
Vprep_at
p165
aVbought-5
p166
aVfair-3
p167
aa(lp168
Vnsubj
p169
aVbought-5
p170
aVAdam-4
p171
aa(lp172
Vnum
p173
aVtickets-7
p174
aV13-6
p175
aa(lp176
Vdobj
p177
aVbought-5
p178
aVtickets-7
p179
aasa(dp180
Vparsetree
p181
V(ROOT (S (PP (IN After) (S (VP (VBG riding) (NP (DT the) (ADJP (JJ ferris)) (NN wheel))))) (NP (PRP he)) (VP (VBD had) (NP (NP (CD 4) (NNS tickets)) (SBAR (S (VP (VBD left)))))) (. .)))
p182
sVtext
p183
VAfter riding the ferris wheel he had 4 tickets left .
p184
sVdependencies
p185
(lp186
(lp187
Vroot
p188
aVROOT
p189
aVhad
p190
aa(lp191
Vprepc_after
p192
aVhad
p193
aVriding
p194
aa(lp195
Vdet
p196
aVwheel
p197
aVthe
p198
aa(lp199
Vamod
p200
aVwheel
p201
aVferris
p202
aa(lp203
Vdobj
p204
aVriding
p205
aVwheel
p206
aa(lp207
Vnsubj
p208
aVhad
p209
aVhe
p210
aa(lp211
Vnum
p212
aVtickets
p213
ag75
aa(lp214
Vdobj
p215
aVhad
p216
aVtickets
p217
aa(lp218
Vrcmod
p219
aVtickets
p220
aVleft
p221
aasVwords
p222
(lp223
(lp224
VAfter
p225
a(dp226
VNamedEntityTag
p227
g59
sVCharacterOffsetEnd
p228
V43
p229
sVCharacterOffsetBegin
p230
V38
p231
sVPartOfSpeech
p232
VIN
p233
sVLemma
p234
Vafter
p235
saa(lp236
Vriding
p237
a(dp238
VNamedEntityTag
p239
g59
sVCharacterOffsetEnd
p240
V50
p241
sVCharacterOffsetBegin
p242
V44
p243
sVPartOfSpeech
p244
VVBG
p245
sVLemma
p246
Vride
p247
saa(lp248
Vthe
p249
a(dp250
VNamedEntityTag
p251
g59
sVCharacterOffsetEnd
p252
V54
p253
sVCharacterOffsetBegin
p254
V51
p255
sVPartOfSpeech
p256
VDT
p257
sVLemma
p258
Vthe
p259
saa(lp260
Vferris
p261
a(dp262
VNamedEntityTag
p263
g59
sVCharacterOffsetEnd
p264
V61
p265
sVCharacterOffsetBegin
p266
V55
p267
sVPartOfSpeech
p268
VJJ
p269
sVLemma
p270
Vferris
p271
saa(lp272
Vwheel
p273
a(dp274
VNamedEntityTag
p275
g59
sVCharacterOffsetEnd
p276
V67
p277
sVCharacterOffsetBegin
p278
V62
p279
sVPartOfSpeech
p280
VNN
p281
sVLemma
p282
Vwheel
p283
saa(lp284
Vhe
p285
a(dp286
VNamedEntityTag
p287
g59
sVCharacterOffsetEnd
p288
V70
p289
sVCharacterOffsetBegin
p290
V68
p291
sVPartOfSpeech
p292
VPRP
p293
sVLemma
p294
Vhe
p295
saa(lp296
Vhad
p297
a(dp298
VNamedEntityTag
p299
g59
sVCharacterOffsetEnd
p300
V74
p301
sVCharacterOffsetBegin
p302
V71
p303
sVPartOfSpeech
p304
VVBD
p305
sVLemma
p306
Vhave
p307
saa(lp308
g75
a(dp309
VNormalizedNamedEntityTag
p310
V4.0
p311
sVLemma
p312
g75
sVCharacterOffsetEnd
p313
V76
p314
sVPartOfSpeech
p315
VCD
p316
sVCharacterOffsetBegin
p317
V75
p318
sVNamedEntityTag
p319
VNUMBER
p320
saa(lp321
Vtickets
p322
a(dp323
VNamedEntityTag
p324
g59
sVCharacterOffsetEnd
p325
V84
p326
sVCharacterOffsetBegin
p327
V77
p328
sVPartOfSpeech
p329
VNNS
p330
sVLemma
p331
Vticket
p332
saa(lp333
Vleft
p334
a(dp335
VNamedEntityTag
p336
g59
sVCharacterOffsetEnd
p337
V89
p338
sVCharacterOffsetBegin
p339
V85
p340
sVPartOfSpeech
p341
VVBD
p342
sVLemma
p343
Vleave
p344
saa(lp345
g145
a(dp346
VNamedEntityTag
p347
g59
sVCharacterOffsetEnd
p348
V91
p349
sVCharacterOffsetBegin
p350
V90
p351
sVPartOfSpeech
p352
g145
sVLemma
p353
g145
saasVindexeddependencies
p354
(lp355
(lp356
Vroot
p357
aVROOT-0
p358
aVhad-7
p359
aa(lp360
Vprepc_after
p361
aVhad-7
p362
aVriding-2
p363
aa(lp364
Vdet
p365
aVwheel-5
p366
aVthe-3
p367
aa(lp368
Vamod
p369
aVwheel-5
p370
aVferris-4
p371
aa(lp372
Vdobj
p373
aVriding-2
p374
aVwheel-5
p375
aa(lp376
Vnsubj
p377
aVhad-7
p378
aVhe-6
p379
aa(lp380
Vnum
p381
aVtickets-9
p382
aV4-8
p383
aa(lp384
Vdobj
p385
aVhad-7
p386
aVtickets-9
p387
aa(lp388
Vrcmod
p389
aVtickets-9
p390
aVleft-10
p391
aasa(dp392
Vparsetree
p393
V(ROOT (SBARQ (PP (IN If) (NP (NP (DT each) (NN ticket) (NN cost)) (NP (CD 9) (NNS dollars)))) (, ,) (WHNP (WHADJP (WRB how) (JJ much)) (NN money)) (SQ (VBD did) (NP (NNP Adam)) (VP (VB spend) (S (VP (VBG riding) (NP (DT the) (ADJP (JJ ferris)) (NN wheel)))))) (. ?)))
p394
sVtext
p395
VIf each ticket cost 9 dollars , how much money did Adam spend riding the ferris wheel ?
p396
sVdependencies
p397
(lp398
(lp399
Vroot
p400
aVROOT
p401
aVspend
p402
aa(lp403
Vdet
p404
aVcost
p405
aVeach
p406
aa(lp407
Vnn
p408
aVcost
p409
aVticket
p410
aa(lp411
Vprep_if
p412
aVspend
p413
aVcost
p414
aa(lp415
Vnum
p416
aVdollars
p417
aV9
p418
aa(lp419
Vdep
p420
aVcost
p421
aVdollars
p422
aa(lp423
Vadvmod
p424
aVmuch
p425
aVhow
p426
aa(lp427
Vamod
p428
aVmoney
p429
aVmuch
p430
aa(lp431
Vdobj
p432
aVspend
p433
aVmoney
p434
aa(lp435
Vaux
p436
aVspend
p437
aVdid
p438
aa(lp439
Vnsubj
p440
aVspend
p441
aVAdam
p442
aa(lp443
Vxcomp
p444
aVspend
p445
aVriding
p446
aa(lp447
Vdet
p448
aVwheel
p449
aVthe
p450
aa(lp451
Vamod
p452
aVwheel
p453
aVferris
p454
aa(lp455
Vdobj
p456
aVriding
p457
aVwheel
p458
aasVwords
p459
(lp460
(lp461
VIf
p462
a(dp463
VNamedEntityTag
p464
g59
sVCharacterOffsetEnd
p465
V94
p466
sVCharacterOffsetBegin
p467
V92
p468
sVPartOfSpeech
p469
VIN
p470
sVLemma
p471
Vif
p472
saa(lp473
Veach
p474
a(dp475
VNamedEntityTag
p476
g59
sVCharacterOffsetEnd
p477
V99
p478
sVCharacterOffsetBegin
p479
V95
p480
sVPartOfSpeech
p481
VDT
p482
sVLemma
p483
Veach
p484
saa(lp485
Vticket
p486
a(dp487
VNamedEntityTag
p488
g59
sVCharacterOffsetEnd
p489
V106
p490
sVCharacterOffsetBegin
p491
V100
p492
sVPartOfSpeech
p493
VNN
p494
sVLemma
p495
Vticket
p496
saa(lp497
Vcost
p498
a(dp499
VNamedEntityTag
p500
g59
sVCharacterOffsetEnd
p501
V111
p502
sVCharacterOffsetBegin
p503
V107
p504
sVPartOfSpeech
p505
VNN
p506
sVLemma
p507
Vcost
p508
saa(lp509
g418
a(dp510
VNormalizedNamedEntityTag
p511
V$9.0
p512
sVLemma
p513
g418
sVCharacterOffsetEnd
p514
V113
p515
sVPartOfSpeech
p516
VCD
p517
sVCharacterOffsetBegin
p518
V112
p519
sVNamedEntityTag
p520
VMONEY
p521
saa(lp522
Vdollars
p523
a(dp524
VNormalizedNamedEntityTag
p525
V$9.0
p526
sVLemma
p527
Vdollar
p528
sVCharacterOffsetEnd
p529
V121
p530
sVPartOfSpeech
p531
VNNS
p532
sVCharacterOffsetBegin
p533
V114
p534
sVNamedEntityTag
p535
VMONEY
p536
saa(lp537
V,
p538
a(dp539
VNamedEntityTag
p540
g59
sVCharacterOffsetEnd
p541
V123
p542
sVCharacterOffsetBegin
p543
V122
p544
sVPartOfSpeech
p545
g538
sVLemma
p546
g538
saa(lp547
Vhow
p548
a(dp549
VNamedEntityTag
p550
g59
sVCharacterOffsetEnd
p551
V127
p552
sVCharacterOffsetBegin
p553
V124
p554
sVPartOfSpeech
p555
VWRB
p556
sVLemma
p557
Vhow
p558
saa(lp559
Vmuch
p560
a(dp561
VNamedEntityTag
p562
g59
sVCharacterOffsetEnd
p563
V132
p564
sVCharacterOffsetBegin
p565
V128
p566
sVPartOfSpeech
p567
VJJ
p568
sVLemma
p569
Vmuch
p570
saa(lp571
Vmoney
p572
a(dp573
VNamedEntityTag
p574
g59
sVCharacterOffsetEnd
p575
V138
p576
sVCharacterOffsetBegin
p577
V133
p578
sVPartOfSpeech
p579
VNN
p580
sVLemma
p581
Vmoney
p582
saa(lp583
Vdid
p584
a(dp585
VNamedEntityTag
p586
g59
sVCharacterOffsetEnd
p587
V142
p588
sVCharacterOffsetBegin
p589
V139
p590
sVPartOfSpeech
p591
VVBD
p592
sVLemma
p593
Vdo
p594
saa(lp595
VAdam
p596
a(dp597
VNamedEntityTag
p598
VPERSON
p599
sVCharacterOffsetEnd
p600
V147
p601
sVCharacterOffsetBegin
p602
V143
p603
sVPartOfSpeech
p604
VNNP
p605
sVLemma
p606
VAdam
p607
saa(lp608
Vspend
p609
a(dp610
VNamedEntityTag
p611
g59
sVCharacterOffsetEnd
p612
V153
p613
sVCharacterOffsetBegin
p614
V148
p615
sVPartOfSpeech
p616
VVB
p617
sVLemma
p618
Vspend
p619
saa(lp620
Vriding
p621
a(dp622
VNamedEntityTag
p623
g59
sVCharacterOffsetEnd
p624
V160
p625
sVCharacterOffsetBegin
p626
V154
p627
sVPartOfSpeech
p628
VVBG
p629
sVLemma
p630
Vride
p631
saa(lp632
Vthe
p633
a(dp634
VNamedEntityTag
p635
g59
sVCharacterOffsetEnd
p636
V164
p637
sVCharacterOffsetBegin
p638
V161
p639
sVPartOfSpeech
p640
VDT
p641
sVLemma
p642
Vthe
p643
saa(lp644
Vferris
p645
a(dp646
VNamedEntityTag
p647
g59
sVCharacterOffsetEnd
p648
V171
p649
sVCharacterOffsetBegin
p650
V165
p651
sVPartOfSpeech
p652
VJJ
p653
sVLemma
p654
Vferris
p655
saa(lp656
Vwheel
p657
a(dp658
VNamedEntityTag
p659
g59
sVCharacterOffsetEnd
p660
V177
p661
sVCharacterOffsetBegin
p662
V172
p663
sVPartOfSpeech
p664
VNN
p665
sVLemma
p666
Vwheel
p667
saa(lp668
V?
p669
a(dp670
VNamedEntityTag
p671
g59
sVCharacterOffsetEnd
p672
V179
p673
sVCharacterOffsetBegin
p674
V178
p675
sVPartOfSpeech
p676
g145
sVLemma
p677
g669
saasVindexeddependencies
p678
(lp679
(lp680
Vroot
p681
aVROOT-0
p682
aVspend-13
p683
aa(lp684
Vdet
p685
aVcost-4
p686
aVeach-2
p687
aa(lp688
Vnn
p689
aVcost-4
p690
aVticket-3
p691
aa(lp692
Vprep_if
p693
aVspend-13
p694
aVcost-4
p695
aa(lp696
Vnum
p697
aVdollars-6
p698
aV9-5
p699
aa(lp700
Vdep
p701
aVcost-4
p702
aVdollars-6
p703
aa(lp704
Vadvmod
p705
aVmuch-9
p706
aVhow-8
p707
aa(lp708
Vamod
p709
aVmoney-10
p710
aVmuch-9
p711
aa(lp712
Vdobj
p713
aVspend-13
p714
aVmoney-10
p715
aa(lp716
Vaux
p717
aVspend-13
p718
aVdid-11
p719
aa(lp720
Vnsubj
p721
aVspend-13
p722
aVAdam-12
p723
aa(lp724
Vxcomp
p725
aVspend-13
p726
aVriding-14
p727
aa(lp728
Vdet
p729
aVwheel-17
p730
aVthe-15
p731
aa(lp732
Vamod
p733
aVwheel-17
p734
aVferris-16
p735
aa(lp736
Vdobj
p737
aVriding-14
p738
aVwheel-17
p739
aasas.