(dp0
Vcoref
p1
(lp2
(lp3
(lp4
(lp5
Vhis
p6
aI0
aI11
aI11
aI12
aa(lp7
VDave
p8
aI0
aI0
aI0
aI1
aaa(lp9
(lp10
VDave
p11
aI1
aI13
aI13
aI14
aa(lp12
VDave
p13
aI0
aI0
aI0
aI1
aaaa(lp14
(lp15
(lp16
Vit
p17
aI1
aI7
aI7
aI8
aa(lp18
Veach box
p19
aI1
aI2
aI1
aI3
aaaasVsentences
p20
(lp21
(dp22
Vparsetree
p23
V(ROOT (S (NP (NNP Dave)) (VP (VP (VBD bought) (NP (NP (CD 12) (NNS boxes)) (PP (IN of) (NP (NN chocolate) (NN candy))))) (CC and) (VP (VBD gave) (NP (CD 5)) (PP (TO to) (NP (PRP$ his) (JJ little) (NN brother))))) (. .)))
p24
sVtext
p25
VDave bought 12 boxes of chocolate candy and gave 5 to his little brother .
p26
sVdependencies
p27
(lp28
(lp29
Vroot
p30
aVROOT
p31
aVbought
p32
aa(lp33
Vnsubj
p34
aVbought
p35
aVDave
p36
aa(lp37
Vnum
p38
aVboxes
p39
aV12
p40
aa(lp41
Vdobj
p42
aVbought
p43
aVboxes
p44
aa(lp45
Vnn
p46
aVcandy
p47
aVchocolate
p48
aa(lp49
Vprep_of
p50
aVboxes
p51
aVcandy
p52
aa(lp53
Vconj_and
p54
aVbought
p55
aVgave
p56
aa(lp57
Vdobj
p58
aVgave
p59
aV5
p60
aa(lp61
Vposs
p62
aVbrother
p63
aVhis
p64
aa(lp65
Vamod
p66
aVbrother
p67
aVlittle
p68
aa(lp69
Vprep_to
p70
aVgave
p71
aVbrother
p72
aasVwords
p73
(lp74
(lp75
VDave
p76
a(dp77
VNamedEntityTag
p78
VPERSON
p79
sVCharacterOffsetEnd
p80
g60
sVCharacterOffsetBegin
p81
V1
p82
sVPartOfSpeech
p83
VNNP
p84
sVLemma
p85
VDave
p86
saa(lp87
Vbought
p88
a(dp89
VNamedEntityTag
p90
VO
p91
sVCharacterOffsetEnd
p92
V12
p93
sVCharacterOffsetBegin
p94
V6
p95
sVPartOfSpeech
p96
VVBD
p97
sVLemma
p98
Vbuy
p99
saa(lp100
V12
p101
a(dp102
VNormalizedNamedEntityTag
p103
V12.0
p104
sVLemma
p105
V12
p106
sVCharacterOffsetEnd
p107
V15
p108
sVPartOfSpeech
p109
VCD
p110
sVCharacterOffsetBegin
p111
V13
p112
sVNamedEntityTag
p113
VNUMBER
p114
saa(lp115
Vboxes
p116
a(dp117
VNamedEntityTag
p118
g91
sVCharacterOffsetEnd
p119
V21
p120
sVCharacterOffsetBegin
p121
V16
p122
sVPartOfSpeech
p123
VNNS
p124
sVLemma
p125
Vbox
p126
saa(lp127
Vof
p128
a(dp129
VNamedEntityTag
p130
g91
sVCharacterOffsetEnd
p131
V24
p132
sVCharacterOffsetBegin
p133
V22
p134
sVPartOfSpeech
p135
VIN
p136
sVLemma
p137
Vof
p138
saa(lp139
Vchocolate
p140
a(dp141
VNamedEntityTag
p142
g91
sVCharacterOffsetEnd
p143
V34
p144
sVCharacterOffsetBegin
p145
V25
p146
sVPartOfSpeech
p147
VNN
p148
sVLemma
p149
Vchocolate
p150
saa(lp151
Vcandy
p152
a(dp153
VNamedEntityTag
p154
g91
sVCharacterOffsetEnd
p155
V40
p156
sVCharacterOffsetBegin
p157
V35
p158
sVPartOfSpeech
p159
VNN
p160
sVLemma
p161
Vcandy
p162
saa(lp163
Vand
p164
a(dp165
VNamedEntityTag
p166
g91
sVCharacterOffsetEnd
p167
V44
p168
sVCharacterOffsetBegin
p169
V41
p170
sVPartOfSpeech
p171
VCC
p172
sVLemma
p173
Vand
p174
saa(lp175
Vgave
p176
a(dp177
VNamedEntityTag
p178
g91
sVCharacterOffsetEnd
p179
V49
p180
sVCharacterOffsetBegin
p181
V45
p182
sVPartOfSpeech
p183
VVBD
p184
sVLemma
p185
Vgive
p186
saa(lp187
g60
a(dp188
VNormalizedNamedEntityTag
p189
V5.0
p190
sVLemma
p191
g60
sVCharacterOffsetEnd
p192
V51
p193
sVPartOfSpeech
p194
VCD
p195
sVCharacterOffsetBegin
p196
V50
p197
sVNamedEntityTag
p198
VNUMBER
p199
saa(lp200
Vto
p201
a(dp202
VNamedEntityTag
p203
g91
sVCharacterOffsetEnd
p204
V54
p205
sVCharacterOffsetBegin
p206
V52
p207
sVPartOfSpeech
p208
VTO
p209
sVLemma
p210
Vto
p211
saa(lp212
Vhis
p213
a(dp214
VNamedEntityTag
p215
g91
sVCharacterOffsetEnd
p216
V58
p217
sVCharacterOffsetBegin
p218
V55
p219
sVPartOfSpeech
p220
VPRP$
p221
sVLemma
p222
Vhe
p223
saa(lp224
Vlittle
p225
a(dp226
VNamedEntityTag
p227
g91
sVCharacterOffsetEnd
p228
V65
p229
sVCharacterOffsetBegin
p230
V59
p231
sVPartOfSpeech
p232
VJJ
p233
sVLemma
p234
Vlittle
p235
saa(lp236
Vbrother
p237
a(dp238
VNamedEntityTag
p239
g91
sVCharacterOffsetEnd
p240
V73
p241
sVCharacterOffsetBegin
p242
V66
p243
sVPartOfSpeech
p244
VNN
p245
sVLemma
p246
Vbrother
p247
saa(lp248
V.
p249
a(dp250
VNamedEntityTag
p251
g91
sVCharacterOffsetEnd
p252
V75
p253
sVCharacterOffsetBegin
p254
V74
p255
sVPartOfSpeech
p256
g249
sVLemma
p257
g249
saasVindexeddependencies
p258
(lp259
(lp260
Vroot
p261
aVROOT-0
p262
aVbought-2
p263
aa(lp264
Vnsubj
p265
aVbought-2
p266
aVDave-1
p267
aa(lp268
Vnum
p269
aVboxes-4
p270
aV12-3
p271
aa(lp272
Vdobj
p273
aVbought-2
p274
aVboxes-4
p275
aa(lp276
Vnn
p277
aVcandy-7
p278
aVchocolate-6
p279
aa(lp280
Vprep_of
p281
aVboxes-4
p282
aVcandy-7
p283
aa(lp284
Vconj_and
p285
aVbought-2
p286
aVgave-9
p287
aa(lp288
Vdobj
p289
aVgave-9
p290
aV5-10
p291
aa(lp292
Vposs
p293
aVbrother-14
p294
aVhis-12
p295
aa(lp296
Vamod
p297
aVbrother-14
p298
aVlittle-13
p299
aa(lp300
Vprep_to
p301
aVgave-9
p302
aVbrother-14
p303
aasa(dp304
Vparsetree
p305
V(ROOT (SBARQ (SBAR (IN If) (S (NP (DT each) (NN box)) (VP (VBZ has) (NP (NP (CD 3) (NNS pieces)) (PP (IN inside) (NP (PRP it))))))) (, ,) (WHNP (WHADJP (WRB how) (JJ many)) (NNS pieces)) (SQ (VBD did) (NP (NNP Dave)) (ADVP (RB still)) (VP (VB have))) (. ?)))
p306
sVtext
p307
VIf each box has 3 pieces inside it , how many pieces did Dave still have ?
p308
sVdependencies
p309
(lp310
(lp311
Vroot
p312
aVROOT
p313
aVhave
p314
aa(lp315
Vmark
p316
aVhas
p317
aVIf
p318
aa(lp319
Vdet
p320
aVbox
p321
aVeach
p322
aa(lp323
Vnsubj
p324
aVhas
p325
aVbox
p326
aa(lp327
Vadvcl
p328
aVhave
p329
aVhas
p330
aa(lp331
Vnum
p332
aVpieces
p333
aV3
p334
aa(lp335
Vdobj
p336
aVhas
p337
aVpieces
p338
aa(lp339
Vprep_inside
p340
aVpieces
p341
aVit
p342
aa(lp343
Vadvmod
p344
aVmany
p345
aVhow
p346
aa(lp347
Vamod
p348
aVpieces
p349
aVmany
p350
aa(lp351
Vdobj
p352
aVhave
p353
aVpieces
p354
aa(lp355
Vaux
p356
aVhave
p357
aVdid
p358
aa(lp359
Vnsubj
p360
aVhave
p361
aVDave
p362
aa(lp363
Vadvmod
p364
aVhave
p365
aVstill
p366
aasVwords
p367
(lp368
(lp369
VIf
p370
a(dp371
VNamedEntityTag
p372
g91
sVCharacterOffsetEnd
p373
V78
p374
sVCharacterOffsetBegin
p375
V76
p376
sVPartOfSpeech
p377
VIN
p378
sVLemma
p379
Vif
p380
saa(lp381
Veach
p382
a(dp383
VNamedEntityTag
p384
g91
sVCharacterOffsetEnd
p385
V83
p386
sVCharacterOffsetBegin
p387
V79
p388
sVPartOfSpeech
p389
VDT
p390
sVLemma
p391
Veach
p392
saa(lp393
Vbox
p394
a(dp395
VNamedEntityTag
p396
g91
sVCharacterOffsetEnd
p397
V87
p398
sVCharacterOffsetBegin
p399
V84
p400
sVPartOfSpeech
p401
VNN
p402
sVLemma
p403
Vbox
p404
saa(lp405
Vhas
p406
a(dp407
VNamedEntityTag
p408
g91
sVCharacterOffsetEnd
p409
V91
p410
sVCharacterOffsetBegin
p411
V88
p412
sVPartOfSpeech
p413
VVBZ
p414
sVLemma
p415
Vhave
p416
saa(lp417
g334
a(dp418
VNormalizedNamedEntityTag
p419
V3.0
p420
sVLemma
p421
g334
sVCharacterOffsetEnd
p422
V93
p423
sVPartOfSpeech
p424
VCD
p425
sVCharacterOffsetBegin
p426
V92
p427
sVNamedEntityTag
p428
VNUMBER
p429
saa(lp430
Vpieces
p431
a(dp432
VNamedEntityTag
p433
g91
sVCharacterOffsetEnd
p434
V100
p435
sVCharacterOffsetBegin
p436
V94
p437
sVPartOfSpeech
p438
VNNS
p439
sVLemma
p440
Vpiece
p441
saa(lp442
Vinside
p443
a(dp444
VNamedEntityTag
p445
g91
sVCharacterOffsetEnd
p446
V107
p447
sVCharacterOffsetBegin
p448
V101
p449
sVPartOfSpeech
p450
VIN
p451
sVLemma
p452
Vinside
p453
saa(lp454
Vit
p455
a(dp456
VNamedEntityTag
p457
g91
sVCharacterOffsetEnd
p458
V110
p459
sVCharacterOffsetBegin
p460
V108
p461
sVPartOfSpeech
p462
VPRP
p463
sVLemma
p464
Vit
p465
saa(lp466
V,
p467
a(dp468
VNamedEntityTag
p469
g91
sVCharacterOffsetEnd
p470
V112
p471
sVCharacterOffsetBegin
p472
V111
p473
sVPartOfSpeech
p474
g467
sVLemma
p475
g467
saa(lp476
Vhow
p477
a(dp478
VNamedEntityTag
p479
g91
sVCharacterOffsetEnd
p480
V116
p481
sVCharacterOffsetBegin
p482
V113
p483
sVPartOfSpeech
p484
VWRB
p485
sVLemma
p486
Vhow
p487
saa(lp488
Vmany
p489
a(dp490
VNamedEntityTag
p491
g91
sVCharacterOffsetEnd
p492
V121
p493
sVCharacterOffsetBegin
p494
V117
p495
sVPartOfSpeech
p496
VJJ
p497
sVLemma
p498
Vmany
p499
saa(lp500
Vpieces
p501
a(dp502
VNamedEntityTag
p503
g91
sVCharacterOffsetEnd
p504
V128
p505
sVCharacterOffsetBegin
p506
V122
p507
sVPartOfSpeech
p508
VNNS
p509
sVLemma
p510
Vpiece
p511
saa(lp512
Vdid
p513
a(dp514
VNamedEntityTag
p515
g91
sVCharacterOffsetEnd
p516
V132
p517
sVCharacterOffsetBegin
p518
V129
p519
sVPartOfSpeech
p520
VVBD
p521
sVLemma
p522
Vdo
p523
saa(lp524
VDave
p525
a(dp526
VNamedEntityTag
p527
VPERSON
p528
sVCharacterOffsetEnd
p529
V137
p530
sVCharacterOffsetBegin
p531
V133
p532
sVPartOfSpeech
p533
VNNP
p534
sVLemma
p535
VDave
p536
saa(lp537
Vstill
p538
a(dp539
VNamedEntityTag
p540
g91
sVCharacterOffsetEnd
p541
V143
p542
sVCharacterOffsetBegin
p543
V138
p544
sVPartOfSpeech
p545
VRB
p546
sVLemma
p547
Vstill
p548
saa(lp549
Vhave
p550
a(dp551
VNamedEntityTag
p552
g91
sVCharacterOffsetEnd
p553
V148
p554
sVCharacterOffsetBegin
p555
V144
p556
sVPartOfSpeech
p557
VVB
p558
sVLemma
p559
Vhave
p560
saa(lp561
V?
p562
a(dp563
VNamedEntityTag
p564
g91
sVCharacterOffsetEnd
p565
V150
p566
sVCharacterOffsetBegin
p567
V149
p568
sVPartOfSpeech
p569
g249
sVLemma
p570
g562
saasVindexeddependencies
p571
(lp572
(lp573
Vroot
p574
aVROOT-0
p575
aVhave-16
p576
aa(lp577
Vmark
p578
aVhas-4
p579
aVIf-1
p580
aa(lp581
Vdet
p582
aVbox-3
p583
aVeach-2
p584
aa(lp585
Vnsubj
p586
aVhas-4
p587
aVbox-3
p588
aa(lp589
Vadvcl
p590
aVhave-16
p591
aVhas-4
p592
aa(lp593
Vnum
p594
aVpieces-6
p595
aV3-5
p596
aa(lp597
Vdobj
p598
aVhas-4
p599
aVpieces-6
p600
aa(lp601
Vprep_inside
p602
aVpieces-6
p603
aVit-8
p604
aa(lp605
Vadvmod
p606
aVmany-11
p607
aVhow-10
p608
aa(lp609
Vamod
p610
aVpieces-12
p611
aVmany-11
p612
aa(lp613
Vdobj
p614
aVhave-16
p615
aVpieces-12
p616
aa(lp617
Vaux
p618
aVhave-16
p619
aVdid-13
p620
aa(lp621
Vnsubj
p622
aVhave-16
p623
aVDave-14
p624
aa(lp625
Vadvmod
p626
aVhave-16
p627
aVstill-15
p628
aasas.