(dp0
Vcoref
p1
(lp2
(lp3
(lp4
(lp5
Vhe
p6
aI1
aI11
aI11
aI12
aa(lp7
VJohn
p8
aI0
aI0
aI0
aI1
aaa(lp9
(lp10
Vhis
p11
aI1
aI15
aI15
aI16
aa(lp12
VJohn
p13
aI0
aI0
aI0
aI1
aaaa(lp14
(lp15
(lp16
Vhis collection
p17
aI1
aI16
aI15
aI17
aa(lp18
Va complete collection
p19
aI0
aI13
aI11
aI14
aaaasVsentences
p20
(lp21
(dp22
Vparsetree
p23
V(ROOT (S (NP (NNP John)) (VP (VP (VBD had) (NP (CD 5) (NN action) (NNS figures))) (, ,) (CC but) (VP (VBD needed) (NP (NP (CD 7) (NN total)) (PP (IN for) (NP (DT a) (JJ complete) (NN collection)))))) (. .)))
p24
sVtext
p25
VJohn had 5 action figures , but needed 7 total for a complete collection .
p26
sVdependencies
p27
(lp28
(lp29
Vroot
p30
aVROOT
p31
aVhad
p32
aa(lp33
Vnsubj
p34
aVhad
p35
aVJohn
p36
aa(lp37
Vnum
p38
aVfigures
p39
aV5
p40
aa(lp41
Vnn
p42
aVfigures
p43
aVaction
p44
aa(lp45
Vdobj
p46
aVhad
p47
aVfigures
p48
aa(lp49
Vconj_but
p50
aVhad
p51
aVneeded
p52
aa(lp53
Vnum
p54
aVtotal
p55
aV7
p56
aa(lp57
Vdobj
p58
aVneeded
p59
aVtotal
p60
aa(lp61
Vdet
p62
aVcollection
p63
aVa
p64
aa(lp65
Vamod
p66
aVcollection
p67
aVcomplete
p68
aa(lp69
Vprep_for
p70
aVtotal
p71
aVcollection
p72
aasVwords
p73
(lp74
(lp75
VJohn
p76
a(dp77
VNamedEntityTag
p78
VPERSON
p79
sVCharacterOffsetEnd
p80
g40
sVCharacterOffsetBegin
p81
V1
p82
sVPartOfSpeech
p83
VNNP
p84
sVLemma
p85
VJohn
p86
saa(lp87
Vhad
p88
a(dp89
VNamedEntityTag
p90
VO
p91
sVCharacterOffsetEnd
p92
V9
p93
sVCharacterOffsetBegin
p94
V6
p95
sVPartOfSpeech
p96
VVBD
p97
sVLemma
p98
Vhave
p99
saa(lp100
g40
a(dp101
VNormalizedNamedEntityTag
p102
V5.0
p103
sVLemma
p104
g40
sVCharacterOffsetEnd
p105
V11
p106
sVPartOfSpeech
p107
VCD
p108
sVCharacterOffsetBegin
p109
V10
p110
sVNamedEntityTag
p111
VNUMBER
p112
saa(lp113
Vaction
p114
a(dp115
VNamedEntityTag
p116
g91
sVCharacterOffsetEnd
p117
V18
p118
sVCharacterOffsetBegin
p119
V12
p120
sVPartOfSpeech
p121
VNN
p122
sVLemma
p123
Vaction
p124
saa(lp125
Vfigures
p126
a(dp127
VNamedEntityTag
p128
g91
sVCharacterOffsetEnd
p129
V26
p130
sVCharacterOffsetBegin
p131
V19
p132
sVPartOfSpeech
p133
VNNS
p134
sVLemma
p135
Vfigure
p136
saa(lp137
V,
p138
a(dp139
VNamedEntityTag
p140
g91
sVCharacterOffsetEnd
p141
V28
p142
sVCharacterOffsetBegin
p143
V27
p144
sVPartOfSpeech
p145
g138
sVLemma
p146
g138
saa(lp147
Vbut
p148
a(dp149
VNamedEntityTag
p150
g91
sVCharacterOffsetEnd
p151
V32
p152
sVCharacterOffsetBegin
p153
V29
p154
sVPartOfSpeech
p155
VCC
p156
sVLemma
p157
Vbut
p158
saa(lp159
Vneeded
p160
a(dp161
VNamedEntityTag
p162
g91
sVCharacterOffsetEnd
p163
V39
p164
sVCharacterOffsetBegin
p165
V33
p166
sVPartOfSpeech
p167
VVBD
p168
sVLemma
p169
Vneed
p170
saa(lp171
g56
a(dp172
VNormalizedNamedEntityTag
p173
V7.0
p174
sVLemma
p175
g56
sVCharacterOffsetEnd
p176
V41
p177
sVPartOfSpeech
p178
VCD
p179
sVCharacterOffsetBegin
p180
V40
p181
sVNamedEntityTag
p182
VNUMBER
p183
saa(lp184
Vtotal
p185
a(dp186
VNamedEntityTag
p187
g91
sVCharacterOffsetEnd
p188
V47
p189
sVCharacterOffsetBegin
p190
V42
p191
sVPartOfSpeech
p192
VNN
p193
sVLemma
p194
Vtotal
p195
saa(lp196
Vfor
p197
a(dp198
VNamedEntityTag
p199
g91
sVCharacterOffsetEnd
p200
V51
p201
sVCharacterOffsetBegin
p202
V48
p203
sVPartOfSpeech
p204
VIN
p205
sVLemma
p206
Vfor
p207
saa(lp208
g64
a(dp209
VNamedEntityTag
p210
g91
sVCharacterOffsetEnd
p211
V53
p212
sVCharacterOffsetBegin
p213
V52
p214
sVPartOfSpeech
p215
VDT
p216
sVLemma
p217
g64
saa(lp218
Vcomplete
p219
a(dp220
VNamedEntityTag
p221
g91
sVCharacterOffsetEnd
p222
V62
p223
sVCharacterOffsetBegin
p224
V54
p225
sVPartOfSpeech
p226
VJJ
p227
sVLemma
p228
Vcomplete
p229
saa(lp230
Vcollection
p231
a(dp232
VNamedEntityTag
p233
g91
sVCharacterOffsetEnd
p234
V73
p235
sVCharacterOffsetBegin
p236
V63
p237
sVPartOfSpeech
p238
VNN
p239
sVLemma
p240
Vcollection
p241
saa(lp242
V.
p243
a(dp244
VNamedEntityTag
p245
g91
sVCharacterOffsetEnd
p246
V75
p247
sVCharacterOffsetBegin
p248
V74
p249
sVPartOfSpeech
p250
g243
sVLemma
p251
g243
saasVindexeddependencies
p252
(lp253
(lp254
Vroot
p255
aVROOT-0
p256
aVhad-2
p257
aa(lp258
Vnsubj
p259
aVhad-2
p260
aVJohn-1
p261
aa(lp262
Vnum
p263
aVfigures-5
p264
aV5-3
p265
aa(lp266
Vnn
p267
aVfigures-5
p268
aVaction-4
p269
aa(lp270
Vdobj
p271
aVhad-2
p272
aVfigures-5
p273
aa(lp274
Vconj_but
p275
aVhad-2
p276
aVneeded-8
p277
aa(lp278
Vnum
p279
aVtotal-10
p280
aV7-9
p281
aa(lp282
Vdobj
p283
aVneeded-8
p284
aVtotal-10
p285
aa(lp286
Vdet
p287
aVcollection-14
p288
aVa-12
p289
aa(lp290
Vamod
p291
aVcollection-14
p292
aVcomplete-13
p293
aa(lp294
Vprep_for
p295
aVtotal-10
p296
aVcollection-14
p297
aasa(dp298
Vparsetree
p299
V(ROOT (SBARQ (SBAR (IN If) (FRAG (NP (NP (DT each) (CD one) (NNS costs)) (ADJP ($ $) (CD 5))))) (, ,) (WHNP (WHADJP (WRB how) (JJ much)) (NN money)) (SQ (MD would) (NP (PRP he)) (VP (VB need) (S (VP (TO to) (VP (VB finish) (NP (PRP$ his) (NN collection)))))) (. ?))))
p300
sVtext
p301
VIf each one costs $5 , how much money would he need to finish his collection ?
p302
sVdependencies
p303
(lp304
(lp305
Vroot
p306
aVROOT
p307
aVneed
p308
aa(lp309
Vmark
p310
aVcosts
p311
aVIf
p312
aa(lp313
Vdet
p314
aVcosts
p315
aVeach
p316
aa(lp317
Vnum
p318
aVcosts
p319
aVone
p320
aa(lp321
Vadvcl
p322
aVneed
p323
aVcosts
p324
aa(lp325
Vamod
p326
aVcosts
p327
aV$
p328
aa(lp329
Vnumber
p330
ag328
ag40
aa(lp331
Vadvmod
p332
aVmuch
p333
aVhow
p334
aa(lp335
Vamod
p336
aVmoney
p337
aVmuch
p338
aa(lp339
Vdep
p340
aVneed
p341
aVmoney
p342
aa(lp343
Vaux
p344
aVneed
p345
aVwould
p346
aa(lp347
Vnsubj
p348
aVneed
p349
aVhe
p350
aa(lp351
Vaux
p352
aVfinish
p353
aVto
p354
aa(lp355
Vxcomp
p356
aVneed
p357
aVfinish
p358
aa(lp359
Vposs
p360
aVcollection
p361
aVhis
p362
aa(lp363
Vdobj
p364
aVfinish
p365
aVcollection
p366
aasVwords
p367
(lp368
(lp369
VIf
p370
a(dp371
VNamedEntityTag
p372
g91
sVCharacterOffsetEnd
p373
V78
p374
sVCharacterOffsetBegin
p375
V76
p376
sVPartOfSpeech
p377
VIN
p378
sVLemma
p379
Vif
p380
saa(lp381
Veach
p382
a(dp383
VNamedEntityTag
p384
g91
sVCharacterOffsetEnd
p385
V83
p386
sVCharacterOffsetBegin
p387
V79
p388
sVPartOfSpeech
p389
VDT
p390
sVLemma
p391
Veach
p392
saa(lp393
Vone
p394
a(dp395
VNormalizedNamedEntityTag
p396
V1.0
p397
sVLemma
p398
Vone
p399
sVCharacterOffsetEnd
p400
V87
p401
sVPartOfSpeech
p402
VCD
p403
sVCharacterOffsetBegin
p404
V84
p405
sVNamedEntityTag
p406
VNUMBER
p407
saa(lp408
Vcosts
p409
a(dp410
VNamedEntityTag
p411
g91
sVCharacterOffsetEnd
p412
V93
p413
sVCharacterOffsetBegin
p414
V88
p415
sVPartOfSpeech
p416
VNNS
p417
sVLemma
p418
Vcost
p419
saa(lp420
g328
a(dp421
VNormalizedNamedEntityTag
p422
V$5.0
p423
sVLemma
p424
g328
sVCharacterOffsetEnd
p425
V95
p426
sVPartOfSpeech
p427
g328
sVCharacterOffsetBegin
p428
V94
p429
sVNamedEntityTag
p430
VMONEY
p431
saa(lp432
g40
a(dp433
VNormalizedNamedEntityTag
p434
V$5.0
p435
sVLemma
p436
g40
sVCharacterOffsetEnd
p437
V96
p438
sVPartOfSpeech
p439
VCD
p440
sVCharacterOffsetBegin
p441
V95
p442
sVNamedEntityTag
p443
VMONEY
p444
saa(lp445
g138
a(dp446
VNamedEntityTag
p447
g91
sVCharacterOffsetEnd
p448
V98
p449
sVCharacterOffsetBegin
p450
V97
p451
sVPartOfSpeech
p452
g138
sVLemma
p453
g138
saa(lp454
Vhow
p455
a(dp456
VNamedEntityTag
p457
g91
sVCharacterOffsetEnd
p458
V102
p459
sVCharacterOffsetBegin
p460
V99
p461
sVPartOfSpeech
p462
VWRB
p463
sVLemma
p464
Vhow
p465
saa(lp466
Vmuch
p467
a(dp468
VNamedEntityTag
p469
g91
sVCharacterOffsetEnd
p470
V107
p471
sVCharacterOffsetBegin
p472
V103
p473
sVPartOfSpeech
p474
VJJ
p475
sVLemma
p476
Vmuch
p477
saa(lp478
Vmoney
p479
a(dp480
VNamedEntityTag
p481
g91
sVCharacterOffsetEnd
p482
V113
p483
sVCharacterOffsetBegin
p484
V108
p485
sVPartOfSpeech
p486
VNN
p487
sVLemma
p488
Vmoney
p489
saa(lp490
Vwould
p491
a(dp492
VNamedEntityTag
p493
g91
sVCharacterOffsetEnd
p494
V119
p495
sVCharacterOffsetBegin
p496
V114
p497
sVPartOfSpeech
p498
VMD
p499
sVLemma
p500
Vwould
p501
saa(lp502
Vhe
p503
a(dp504
VNamedEntityTag
p505
g91
sVCharacterOffsetEnd
p506
V122
p507
sVCharacterOffsetBegin
p508
V120
p509
sVPartOfSpeech
p510
VPRP
p511
sVLemma
p512
Vhe
p513
saa(lp514
Vneed
p515
a(dp516
VNamedEntityTag
p517
g91
sVCharacterOffsetEnd
p518
V127
p519
sVCharacterOffsetBegin
p520
V123
p521
sVPartOfSpeech
p522
VVB
p523
sVLemma
p524
Vneed
p525
saa(lp526
Vto
p527
a(dp528
VNamedEntityTag
p529
g91
sVCharacterOffsetEnd
p530
V130
p531
sVCharacterOffsetBegin
p532
V128
p533
sVPartOfSpeech
p534
VTO
p535
sVLemma
p536
Vto
p537
saa(lp538
Vfinish
p539
a(dp540
VNamedEntityTag
p541
g91
sVCharacterOffsetEnd
p542
V137
p543
sVCharacterOffsetBegin
p544
V131
p545
sVPartOfSpeech
p546
VVB
p547
sVLemma
p548
Vfinish
p549
saa(lp550
Vhis
p551
a(dp552
VNamedEntityTag
p553
g91
sVCharacterOffsetEnd
p554
V141
p555
sVCharacterOffsetBegin
p556
V138
p557
sVPartOfSpeech
p558
VPRP$
p559
sVLemma
p560
Vhe
p561
saa(lp562
Vcollection
p563
a(dp564
VNamedEntityTag
p565
g91
sVCharacterOffsetEnd
p566
V152
p567
sVCharacterOffsetBegin
p568
V142
p569
sVPartOfSpeech
p570
VNN
p571
sVLemma
p572
Vcollection
p573
saa(lp574
V?
p575
a(dp576
VNamedEntityTag
p577
g91
sVCharacterOffsetEnd
p578
V154
p579
sVCharacterOffsetBegin
p580
V153
p581
sVPartOfSpeech
p582
g243
sVLemma
p583
g575
saasVindexeddependencies
p584
(lp585
(lp586
Vroot
p587
aVROOT-0
p588
aVneed-13
p589
aa(lp590
Vmark
p591
aVcosts-4
p592
aVIf-1
p593
aa(lp594
Vdet
p595
aVcosts-4
p596
aVeach-2
p597
aa(lp598
Vnum
p599
aVcosts-4
p600
aVone-3
p601
aa(lp602
Vadvcl
p603
aVneed-13
p604
aVcosts-4
p605
aa(lp606
Vamod
p607
aVcosts-4
p608
aV$-5
p609
aa(lp610
Vnumber
p611
aV$-5
p612
aV5-6
p613
aa(lp614
Vadvmod
p615
aVmuch-9
p616
aVhow-8
p617
aa(lp618
Vamod
p619
aVmoney-10
p620
aVmuch-9
p621
aa(lp622
Vdep
p623
aVneed-13
p624
aVmoney-10
p625
aa(lp626
Vaux
p627
aVneed-13
p628
aVwould-11
p629
aa(lp630
Vnsubj
p631
aVneed-13
p632
aVhe-12
p633
aa(lp634
Vaux
p635
aVfinish-15
p636
aVto-14
p637
aa(lp638
Vxcomp
p639
aVneed-13
p640
aVfinish-15
p641
aa(lp642
Vposs
p643
aVcollection-17
p644
aVhis-16
p645
aa(lp646
Vdobj
p647
aVfinish-15
p648
aVcollection-17
p649
aasas.