(dp0
Vcoref
p1
(lp2
(lp3
(lp4
(lp5
Vhe
p6
aI2
aI1
aI1
aI2
aa(lp7
VA painter
p8
aI0
aI1
aI0
aI2
aaa(lp9
(lp10
Vhe
p11
aI2
aI11
aI11
aI12
aa(lp12
VA painter
p13
aI0
aI1
aI0
aI2
aaaasVsentences
p14
(lp15
(dp16
Vparsetree
p17
V(ROOT (S (NP (DT A) (NN painter)) (VP (VBN needed) (S (VP (TO to) (VP (VB paint) (NP (NP (CD 9) (NNS rooms)) (PP (IN in) (NP (DT a) (NN building)))))))) (. .)))
p18
sVtext
p19
VA painter needed to paint 9 rooms in a building .
p20
sVdependencies
p21
(lp22
(lp23
Vroot
p24
aVROOT
p25
aVneeded
p26
aa(lp27
Vdet
p28
aVpainter
p29
aVA
p30
aa(lp31
Vnsubj
p32
aVneeded
p33
aVpainter
p34
aa(lp35
Vaux
p36
aVpaint
p37
aVto
p38
aa(lp39
Vxcomp
p40
aVneeded
p41
aVpaint
p42
aa(lp43
Vnum
p44
aVrooms
p45
aV9
p46
aa(lp47
Vdobj
p48
aVpaint
p49
aVrooms
p50
aa(lp51
Vdet
p52
aVbuilding
p53
aVa
p54
aa(lp55
Vprep_in
p56
aVrooms
p57
aVbuilding
p58
aasVwords
p59
(lp60
(lp61
g30
a(dp62
VNamedEntityTag
p63
VO
p64
sVCharacterOffsetEnd
p65
V2
p66
sVCharacterOffsetBegin
p67
V1
p68
sVPartOfSpeech
p69
VDT
p70
sVLemma
p71
g54
saa(lp72
Vpainter
p73
a(dp74
VNamedEntityTag
p75
g64
sVCharacterOffsetEnd
p76
V10
p77
sVCharacterOffsetBegin
p78
V3
p79
sVPartOfSpeech
p80
VNN
p81
sVLemma
p82
Vpainter
p83
saa(lp84
Vneeded
p85
a(dp86
VNamedEntityTag
p87
g64
sVCharacterOffsetEnd
p88
V17
p89
sVCharacterOffsetBegin
p90
V11
p91
sVPartOfSpeech
p92
VVBN
p93
sVLemma
p94
Vneed
p95
saa(lp96
Vto
p97
a(dp98
VNamedEntityTag
p99
g64
sVCharacterOffsetEnd
p100
V20
p101
sVCharacterOffsetBegin
p102
V18
p103
sVPartOfSpeech
p104
VTO
p105
sVLemma
p106
Vto
p107
saa(lp108
Vpaint
p109
a(dp110
VNamedEntityTag
p111
g64
sVCharacterOffsetEnd
p112
V26
p113
sVCharacterOffsetBegin
p114
V21
p115
sVPartOfSpeech
p116
VVB
p117
sVLemma
p118
Vpaint
p119
saa(lp120
g46
a(dp121
VNormalizedNamedEntityTag
p122
V9.0
p123
sVLemma
p124
g46
sVCharacterOffsetEnd
p125
V28
p126
sVPartOfSpeech
p127
VCD
p128
sVCharacterOffsetBegin
p129
V27
p130
sVNamedEntityTag
p131
VNUMBER
p132
saa(lp133
Vrooms
p134
a(dp135
VNamedEntityTag
p136
g64
sVCharacterOffsetEnd
p137
V34
p138
sVCharacterOffsetBegin
p139
V29
p140
sVPartOfSpeech
p141
VNNS
p142
sVLemma
p143
Vroom
p144
saa(lp145
Vin
p146
a(dp147
VNamedEntityTag
p148
g64
sVCharacterOffsetEnd
p149
V37
p150
sVCharacterOffsetBegin
p151
V35
p152
sVPartOfSpeech
p153
VIN
p154
sVLemma
p155
Vin
p156
saa(lp157
g54
a(dp158
VNamedEntityTag
p159
g64
sVCharacterOffsetEnd
p160
V39
p161
sVCharacterOffsetBegin
p162
V38
p163
sVPartOfSpeech
p164
VDT
p165
sVLemma
p166
g54
saa(lp167
Vbuilding
p168
a(dp169
VNamedEntityTag
p170
g64
sVCharacterOffsetEnd
p171
V48
p172
sVCharacterOffsetBegin
p173
V40
p174
sVPartOfSpeech
p175
VNN
p176
sVLemma
p177
Vbuilding
p178
saa(lp179
V.
p180
a(dp181
VNamedEntityTag
p182
g64
sVCharacterOffsetEnd
p183
V50
p184
sVCharacterOffsetBegin
p185
V49
p186
sVPartOfSpeech
p187
g180
sVLemma
p188
g180
saasVindexeddependencies
p189
(lp190
(lp191
Vroot
p192
aVROOT-0
p193
aVneeded-3
p194
aa(lp195
Vdet
p196
aVpainter-2
p197
aVA-1
p198
aa(lp199
Vnsubj
p200
aVneeded-3
p201
aVpainter-2
p202
aa(lp203
Vaux
p204
aVpaint-5
p205
aVto-4
p206
aa(lp207
Vxcomp
p208
aVneeded-3
p209
aVpaint-5
p210
aa(lp211
Vnum
p212
aVrooms-7
p213
aV9-6
p214
aa(lp215
Vdobj
p216
aVpaint-5
p217
aVrooms-7
p218
aa(lp219
Vdet
p220
aVbuilding-10
p221
aVa-9
p222
aa(lp223
Vprep_in
p224
aVrooms-7
p225
aVbuilding-10
p226
aasa(dp227
Vparsetree
p228
V(ROOT (S (NP (DT Each) (NN room)) (VP (VBZ takes) (NP (CD 8) (NNS hours)) (S (VP (TO to) (VP (VB paint))))) (. .)))
p229
sVtext
p230
VEach room takes 8 hours to paint .
p231
sVdependencies
p232
(lp233
(lp234
Vroot
p235
aVROOT
p236
aVtakes
p237
aa(lp238
Vdet
p239
aVroom
p240
aVEach
p241
aa(lp242
Vnsubj
p243
aVtakes
p244
aVroom
p245
aa(lp246
Vnum
p247
aVhours
p248
aV8
p249
aa(lp250
Vdobj
p251
aVtakes
p252
aVhours
p253
aa(lp254
Vaux
p255
aVpaint
p256
aVto
p257
aa(lp258
Vvmod
p259
aVtakes
p260
aVpaint
p261
aasVwords
p262
(lp263
(lp264
VEach
p265
a(dp266
VNamedEntityTag
p267
g64
sVCharacterOffsetEnd
p268
V55
p269
sVCharacterOffsetBegin
p270
V51
p271
sVPartOfSpeech
p272
VDT
p273
sVLemma
p274
Veach
p275
saa(lp276
Vroom
p277
a(dp278
VNamedEntityTag
p279
g64
sVCharacterOffsetEnd
p280
V60
p281
sVCharacterOffsetBegin
p282
V56
p283
sVPartOfSpeech
p284
VNN
p285
sVLemma
p286
Vroom
p287
saa(lp288
Vtakes
p289
a(dp290
VNamedEntityTag
p291
g64
sVCharacterOffsetEnd
p292
V66
p293
sVCharacterOffsetBegin
p294
V61
p295
sVPartOfSpeech
p296
VVBZ
p297
sVLemma
p298
Vtake
p299
saa(lp300
g249
a(dp301
VNormalizedNamedEntityTag
p302
VPT8H
p303
sVTimex
p304
V<TIMEX3 tid="t1" type="DURATION" value="PT8H">8 hours</TIMEX3>
p305
sVLemma
p306
g249
sVCharacterOffsetEnd
p307
V68
p308
sVPartOfSpeech
p309
VCD
p310
sVCharacterOffsetBegin
p311
V67
p312
sVNamedEntityTag
p313
VDURATION
p314
saa(lp315
Vhours
p316
a(dp317
VNormalizedNamedEntityTag
p318
VPT8H
p319
sVTimex
p320
V<TIMEX3 tid="t1" type="DURATION" value="PT8H">8 hours</TIMEX3>
p321
sVLemma
p322
Vhour
p323
sVCharacterOffsetEnd
p324
V74
p325
sVPartOfSpeech
p326
VNNS
p327
sVCharacterOffsetBegin
p328
V69
p329
sVNamedEntityTag
p330
VDURATION
p331
saa(lp332
Vto
p333
a(dp334
VNamedEntityTag
p335
g64
sVCharacterOffsetEnd
p336
V77
p337
sVCharacterOffsetBegin
p338
V75
p339
sVPartOfSpeech
p340
VTO
p341
sVLemma
p342
Vto
p343
saa(lp344
Vpaint
p345
a(dp346
VNamedEntityTag
p347
g64
sVCharacterOffsetEnd
p348
V83
p349
sVCharacterOffsetBegin
p350
V78
p351
sVPartOfSpeech
p352
VVB
p353
sVLemma
p354
Vpaint
p355
saa(lp356
g180
a(dp357
VNamedEntityTag
p358
g64
sVCharacterOffsetEnd
p359
V85
p360
sVCharacterOffsetBegin
p361
V84
p362
sVPartOfSpeech
p363
g180
sVLemma
p364
g180
saasVindexeddependencies
p365
(lp366
(lp367
Vroot
p368
aVROOT-0
p369
aVtakes-3
p370
aa(lp371
Vdet
p372
aVroom-2
p373
aVEach-1
p374
aa(lp375
Vnsubj
p376
aVtakes-3
p377
aVroom-2
p378
aa(lp379
Vnum
p380
aVhours-5
p381
aV8-4
p382
aa(lp383
Vdobj
p384
aVtakes-3
p385
aVhours-5
p386
aa(lp387
Vaux
p388
aVpaint-7
p389
aVto-6
p390
aa(lp391
Vvmod
p392
aVtakes-3
p393
aVpaint-7
p394
aasa(dp395
Vparsetree
p396
V(ROOT (SBARQ (SBAR (IN If) (S (NP (PRP he)) (ADVP (RB already)) (VP (VBD painted) (NP (CD 5) (NNS rooms))))) (, ,) (WHNP (WHNP (WRB how) (RB much)) (ADJP (RBR longer))) (SQ (MD will) (NP (PRP he)) (VP (VB take) (S (VP (TO to) (VP (VB paint) (NP (DT the) (NN rest))))))) (. ?)))
p397
sVtext
p398
VIf he already painted 5 rooms , how much longer will he take to paint the rest ?
p399
sVdependencies
p400
(lp401
(lp402
Vroot
p403
aVROOT
p404
aVtake
p405
aa(lp406
Vmark
p407
aVpainted
p408
aVIf
p409
aa(lp410
Vnsubj
p411
aVpainted
p412
aVhe
p413
aa(lp414
Vadvmod
p415
aVpainted
p416
aValready
p417
aa(lp418
Vadvcl
p419
aVtake
p420
aVpainted
p421
aa(lp422
Vnum
p423
aVrooms
p424
aV5
p425
aa(lp426
Vdobj
p427
aVpainted
p428
aVrooms
p429
aa(lp430
Vadvmod
p431
aVmuch
p432
aVhow
p433
aa(lp434
Vdep
p435
aVtake
p436
aVmuch
p437
aa(lp438
Vamod
p439
aVmuch
p440
aVlonger
p441
aa(lp442
Vaux
p443
aVtake
p444
aVwill
p445
aa(lp446
Vnsubj
p447
aVtake
p448
aVhe
p449
aa(lp450
Vaux
p451
aVpaint
p452
aVto
p453
aa(lp454
Vxcomp
p455
aVtake
p456
aVpaint
p457
aa(lp458
Vdet
p459
aVrest
p460
aVthe
p461
aa(lp462
Vdobj
p463
aVpaint
p464
aVrest
p465
aasVwords
p466
(lp467
(lp468
VIf
p469
a(dp470
VNamedEntityTag
p471
g64
sVCharacterOffsetEnd
p472
V88
p473
sVCharacterOffsetBegin
p474
V86
p475
sVPartOfSpeech
p476
VIN
p477
sVLemma
p478
Vif
p479
saa(lp480
Vhe
p481
a(dp482
VNamedEntityTag
p483
g64
sVCharacterOffsetEnd
p484
V91
p485
sVCharacterOffsetBegin
p486
V89
p487
sVPartOfSpeech
p488
VPRP
p489
sVLemma
p490
Vhe
p491
saa(lp492
Valready
p493
a(dp494
VNamedEntityTag
p495
g64
sVCharacterOffsetEnd
p496
V99
p497
sVCharacterOffsetBegin
p498
V92
p499
sVPartOfSpeech
p500
VRB
p501
sVLemma
p502
Valready
p503
saa(lp504
Vpainted
p505
a(dp506
VNamedEntityTag
p507
g64
sVCharacterOffsetEnd
p508
V107
p509
sVCharacterOffsetBegin
p510
V100
p511
sVPartOfSpeech
p512
VVBD
p513
sVLemma
p514
Vpaint
p515
saa(lp516
g425
a(dp517
VNormalizedNamedEntityTag
p518
V5.0
p519
sVLemma
p520
g425
sVCharacterOffsetEnd
p521
V109
p522
sVPartOfSpeech
p523
VCD
p524
sVCharacterOffsetBegin
p525
V108
p526
sVNamedEntityTag
p527
VNUMBER
p528
saa(lp529
Vrooms
p530
a(dp531
VNamedEntityTag
p532
g64
sVCharacterOffsetEnd
p533
V115
p534
sVCharacterOffsetBegin
p535
V110
p536
sVPartOfSpeech
p537
VNNS
p538
sVLemma
p539
Vroom
p540
saa(lp541
V,
p542
a(dp543
VNamedEntityTag
p544
g64
sVCharacterOffsetEnd
p545
V117
p546
sVCharacterOffsetBegin
p547
V116
p548
sVPartOfSpeech
p549
g542
sVLemma
p550
g542
saa(lp551
Vhow
p552
a(dp553
VNamedEntityTag
p554
g64
sVCharacterOffsetEnd
p555
V121
p556
sVCharacterOffsetBegin
p557
V118
p558
sVPartOfSpeech
p559
VWRB
p560
sVLemma
p561
Vhow
p562
saa(lp563
Vmuch
p564
a(dp565
VNamedEntityTag
p566
g64
sVCharacterOffsetEnd
p567
V126
p568
sVCharacterOffsetBegin
p569
V122
p570
sVPartOfSpeech
p571
VRB
p572
sVLemma
p573
Vmuch
p574
saa(lp575
Vlonger
p576
a(dp577
VNamedEntityTag
p578
g64
sVCharacterOffsetEnd
p579
V133
p580
sVCharacterOffsetBegin
p581
V127
p582
sVPartOfSpeech
p583
VRBR
p584
sVLemma
p585
Vlonger
p586
saa(lp587
Vwill
p588
a(dp589
VNamedEntityTag
p590
g64
sVCharacterOffsetEnd
p591
V138
p592
sVCharacterOffsetBegin
p593
V134
p594
sVPartOfSpeech
p595
VMD
p596
sVLemma
p597
Vwill
p598
saa(lp599
Vhe
p600
a(dp601
VNamedEntityTag
p602
g64
sVCharacterOffsetEnd
p603
V141
p604
sVCharacterOffsetBegin
p605
V139
p606
sVPartOfSpeech
p607
VPRP
p608
sVLemma
p609
Vhe
p610
saa(lp611
Vtake
p612
a(dp613
VNamedEntityTag
p614
g64
sVCharacterOffsetEnd
p615
V146
p616
sVCharacterOffsetBegin
p617
V142
p618
sVPartOfSpeech
p619
VVB
p620
sVLemma
p621
Vtake
p622
saa(lp623
Vto
p624
a(dp625
VNamedEntityTag
p626
g64
sVCharacterOffsetEnd
p627
V149
p628
sVCharacterOffsetBegin
p629
V147
p630
sVPartOfSpeech
p631
VTO
p632
sVLemma
p633
Vto
p634
saa(lp635
Vpaint
p636
a(dp637
VNamedEntityTag
p638
g64
sVCharacterOffsetEnd
p639
V155
p640
sVCharacterOffsetBegin
p641
V150
p642
sVPartOfSpeech
p643
VVB
p644
sVLemma
p645
Vpaint
p646
saa(lp647
Vthe
p648
a(dp649
VNamedEntityTag
p650
g64
sVCharacterOffsetEnd
p651
V159
p652
sVCharacterOffsetBegin
p653
V156
p654
sVPartOfSpeech
p655
VDT
p656
sVLemma
p657
Vthe
p658
saa(lp659
Vrest
p660
a(dp661
VNamedEntityTag
p662
g64
sVCharacterOffsetEnd
p663
V164
p664
sVCharacterOffsetBegin
p665
V160
p666
sVPartOfSpeech
p667
VNN
p668
sVLemma
p669
Vrest
p670
saa(lp671
V?
p672
a(dp673
VNamedEntityTag
p674
g64
sVCharacterOffsetEnd
p675
V166
p676
sVCharacterOffsetBegin
p677
V165
p678
sVPartOfSpeech
p679
g180
sVLemma
p680
g672
saasVindexeddependencies
p681
(lp682
(lp683
Vroot
p684
aVROOT-0
p685
aVtake-13
p686
aa(lp687
Vmark
p688
aVpainted-4
p689
aVIf-1
p690
aa(lp691
Vnsubj
p692
aVpainted-4
p693
aVhe-2
p694
aa(lp695
Vadvmod
p696
aVpainted-4
p697
aValready-3
p698
aa(lp699
Vadvcl
p700
aVtake-13
p701
aVpainted-4
p702
aa(lp703
Vnum
p704
aVrooms-6
p705
aV5-5
p706
aa(lp707
Vdobj
p708
aVpainted-4
p709
aVrooms-6
p710
aa(lp711
Vadvmod
p712
aVmuch-9
p713
aVhow-8
p714
aa(lp715
Vdep
p716
aVtake-13
p717
aVmuch-9
p718
aa(lp719
Vamod
p720
aVmuch-9
p721
aVlonger-10
p722
aa(lp723
Vaux
p724
aVtake-13
p725
aVwill-11
p726
aa(lp727
Vnsubj
p728
aVtake-13
p729
aVhe-12
p730
aa(lp731
Vaux
p732
aVpaint-15
p733
aVto-14
p734
aa(lp735
Vxcomp
p736
aVtake-13
p737
aVpaint-15
p738
aa(lp739
Vdet
p740
aVrest-17
p741
aVthe-16
p742
aa(lp743
Vdobj
p744
aVpaint-15
p745
aVrest-17
p746
aasas.