(dp0
Vcoref
p1
(lp2
(lp3
(lp4
(lp5
Vhe
p6
aI1
aI1
aI1
aI2
aa(lp7
VA magician
p8
aI0
aI1
aI0
aI2
aaa(lp9
(lp10
Vhe
p11
aI1
aI13
aI13
aI14
aa(lp12
VA magician
p13
aI0
aI1
aI0
aI2
aaa(lp14
(lp15
Vhe
p16
aI1
aI22
aI22
aI23
aa(lp17
VA magician
p18
aI0
aI1
aI0
aI2
aaaasVsentences
p19
(lp20
(dp21
Vparsetree
p22
V(ROOT (S (NP (DT A) (NN magician)) (VP (VBD was) (VP (VBG selling) (NP (JJ magic) (NN card) (NNS decks)) (PP (IN for) (NP (NP (CD 5) (NNS dollars)) (NP (DT each)))))) (. .)))
p23
sVtext
p24
VA magician was selling magic card decks for 5 dollars each .
p25
sVdependencies
p26
(lp27
(lp28
Vroot
p29
aVROOT
p30
aVselling
p31
aa(lp32
Vdet
p33
aVmagician
p34
aVA
p35
aa(lp36
Vnsubj
p37
aVselling
p38
aVmagician
p39
aa(lp40
Vaux
p41
aVselling
p42
aVwas
p43
aa(lp44
Vamod
p45
aVdecks
p46
aVmagic
p47
aa(lp48
Vnn
p49
aVdecks
p50
aVcard
p51
aa(lp52
Vdobj
p53
aVselling
p54
aVdecks
p55
aa(lp56
Vnum
p57
aVdollars
p58
aV5
p59
aa(lp60
Vprep_for
p61
aVselling
p62
aVdollars
p63
aa(lp64
Vdep
p65
aVdollars
p66
aVeach
p67
aasVwords
p68
(lp69
(lp70
g35
a(dp71
VNamedEntityTag
p72
VO
p73
sVCharacterOffsetEnd
p74
V2
p75
sVCharacterOffsetBegin
p76
V1
p77
sVPartOfSpeech
p78
VDT
p79
sVLemma
p80
Va
p81
saa(lp82
Vmagician
p83
a(dp84
VNamedEntityTag
p85
g73
sVCharacterOffsetEnd
p86
V11
p87
sVCharacterOffsetBegin
p88
V3
p89
sVPartOfSpeech
p90
VNN
p91
sVLemma
p92
Vmagician
p93
saa(lp94
Vwas
p95
a(dp96
VNamedEntityTag
p97
g73
sVCharacterOffsetEnd
p98
V15
p99
sVCharacterOffsetBegin
p100
V12
p101
sVPartOfSpeech
p102
VVBD
p103
sVLemma
p104
Vbe
p105
saa(lp106
Vselling
p107
a(dp108
VNamedEntityTag
p109
g73
sVCharacterOffsetEnd
p110
V23
p111
sVCharacterOffsetBegin
p112
V16
p113
sVPartOfSpeech
p114
VVBG
p115
sVLemma
p116
Vsell
p117
saa(lp118
Vmagic
p119
a(dp120
VNamedEntityTag
p121
g73
sVCharacterOffsetEnd
p122
V29
p123
sVCharacterOffsetBegin
p124
V24
p125
sVPartOfSpeech
p126
VJJ
p127
sVLemma
p128
Vmagic
p129
saa(lp130
Vcard
p131
a(dp132
VNamedEntityTag
p133
g73
sVCharacterOffsetEnd
p134
V34
p135
sVCharacterOffsetBegin
p136
V30
p137
sVPartOfSpeech
p138
VNN
p139
sVLemma
p140
Vcard
p141
saa(lp142
Vdecks
p143
a(dp144
VNamedEntityTag
p145
g73
sVCharacterOffsetEnd
p146
V40
p147
sVCharacterOffsetBegin
p148
V35
p149
sVPartOfSpeech
p150
VNNS
p151
sVLemma
p152
Vdeck
p153
saa(lp154
Vfor
p155
a(dp156
VNamedEntityTag
p157
g73
sVCharacterOffsetEnd
p158
V44
p159
sVCharacterOffsetBegin
p160
V41
p161
sVPartOfSpeech
p162
VIN
p163
sVLemma
p164
Vfor
p165
saa(lp166
g59
a(dp167
VNormalizedNamedEntityTag
p168
V$5.0
p169
sVLemma
p170
g59
sVCharacterOffsetEnd
p171
V46
p172
sVPartOfSpeech
p173
VCD
p174
sVCharacterOffsetBegin
p175
V45
p176
sVNamedEntityTag
p177
VMONEY
p178
saa(lp179
Vdollars
p180
a(dp181
VNormalizedNamedEntityTag
p182
V$5.0
p183
sVLemma
p184
Vdollar
p185
sVCharacterOffsetEnd
p186
V54
p187
sVPartOfSpeech
p188
VNNS
p189
sVCharacterOffsetBegin
p190
V47
p191
sVNamedEntityTag
p192
VMONEY
p193
saa(lp194
Veach
p195
a(dp196
VNamedEntityTag
p197
g73
sVCharacterOffsetEnd
p198
V59
p199
sVCharacterOffsetBegin
p200
V55
p201
sVPartOfSpeech
p202
VDT
p203
sVLemma
p204
Veach
p205
saa(lp206
V.
p207
a(dp208
VNamedEntityTag
p209
g73
sVCharacterOffsetEnd
p210
V61
p211
sVCharacterOffsetBegin
p212
V60
p213
sVPartOfSpeech
p214
g207
sVLemma
p215
g207
saasVindexeddependencies
p216
(lp217
(lp218
Vroot
p219
aVROOT-0
p220
aVselling-4
p221
aa(lp222
Vdet
p223
aVmagician-2
p224
aVA-1
p225
aa(lp226
Vnsubj
p227
aVselling-4
p228
aVmagician-2
p229
aa(lp230
Vaux
p231
aVselling-4
p232
aVwas-3
p233
aa(lp234
Vamod
p235
aVdecks-7
p236
aVmagic-5
p237
aa(lp238
Vnn
p239
aVdecks-7
p240
aVcard-6
p241
aa(lp242
Vdobj
p243
aVselling-4
p244
aVdecks-7
p245
aa(lp246
Vnum
p247
aVdollars-10
p248
aV5-9
p249
aa(lp250
Vprep_for
p251
aVselling-4
p252
aVdollars-10
p253
aa(lp254
Vdep
p255
aVdollars-10
p256
aVeach-11
p257
aasa(dp258
Vparsetree
p259
V(ROOT (SBARQ (SBAR (IN If) (S (NP (PRP he)) (VP (VBD started) (PP (PP (IN with) (NP (CD 14) (NNS decks))) (CC and) (PP (IN by) (NP (NP (DT the) (NN end)) (PP (IN of) (NP (NP (DT the) (NN day)) (SBAR (S (NP (PRP he)) (VP (VBD had) (NP (NP (CD 5)) (SBAR (S (VP (VBD left)))))))))))))))) (, ,) (WHNP (WHADJP (WRB how) (JJ much)) (NN money)) (SQ (VBD did) (NP (PRP he)) (VP (VB earn))) (. ?)))
p260
sVtext
p261
VIf he started with 14 decks and by the end of the day he had 5 left , how much money did he earn ?
p262
sVdependencies
p263
(lp264
(lp265
Vroot
p266
aVROOT
p267
aVearn
p268
aa(lp269
Vmark
p270
aVstarted
p271
aVIf
p272
aa(lp273
Vnsubj
p274
aVstarted
p275
aVhe
p276
aa(lp277
Vadvcl
p278
aVearn
p279
aVstarted
p280
aa(lp281
Vconj_and
p282
aVstarted
p283
aVstarted
p284
aa(lp285
Vnum
p286
aVdecks
p287
aV14
p288
aa(lp289
Vprep_with
p290
aVstarted
p291
aVdecks
p292
aa(lp293
Vdet
p294
aVend
p295
aVthe
p296
aa(lp297
Vprep_by
p298
aVstarted
p299
aVend
p300
aa(lp301
Vdet
p302
aVday
p303
aVthe
p304
aa(lp305
Vprep_of
p306
aVend
p307
aVday
p308
aa(lp309
Vnsubj
p310
aVhad
p311
aVhe
p312
aa(lp313
Vrcmod
p314
aVday
p315
aVhad
p316
aa(lp317
Vdobj
p318
aVhad
p319
ag59
aa(lp320
Vrcmod
p321
ag59
aVleft
p322
aa(lp323
Vadvmod
p324
aVmuch
p325
aVhow
p326
aa(lp327
Vamod
p328
aVmoney
p329
aVmuch
p330
aa(lp331
Vdobj
p332
aVearn
p333
aVmoney
p334
aa(lp335
Vaux
p336
aVearn
p337
aVdid
p338
aa(lp339
Vnsubj
p340
aVearn
p341
aVhe
p342
aasVwords
p343
(lp344
(lp345
VIf
p346
a(dp347
VNamedEntityTag
p348
g73
sVCharacterOffsetEnd
p349
V64
p350
sVCharacterOffsetBegin
p351
V62
p352
sVPartOfSpeech
p353
VIN
p354
sVLemma
p355
Vif
p356
saa(lp357
Vhe
p358
a(dp359
VNamedEntityTag
p360
g73
sVCharacterOffsetEnd
p361
V67
p362
sVCharacterOffsetBegin
p363
V65
p364
sVPartOfSpeech
p365
VPRP
p366
sVLemma
p367
Vhe
p368
saa(lp369
Vstarted
p370
a(dp371
VNamedEntityTag
p372
g73
sVCharacterOffsetEnd
p373
V75
p374
sVCharacterOffsetBegin
p375
V68
p376
sVPartOfSpeech
p377
VVBD
p378
sVLemma
p379
Vstart
p380
saa(lp381
Vwith
p382
a(dp383
VNamedEntityTag
p384
g73
sVCharacterOffsetEnd
p385
V80
p386
sVCharacterOffsetBegin
p387
V76
p388
sVPartOfSpeech
p389
VIN
p390
sVLemma
p391
Vwith
p392
saa(lp393
V14
p394
a(dp395
VNormalizedNamedEntityTag
p396
V14.0
p397
sVLemma
p398
V14
p399
sVCharacterOffsetEnd
p400
V83
p401
sVPartOfSpeech
p402
VCD
p403
sVCharacterOffsetBegin
p404
V81
p405
sVNamedEntityTag
p406
VNUMBER
p407
saa(lp408
Vdecks
p409
a(dp410
VNamedEntityTag
p411
g73
sVCharacterOffsetEnd
p412
V89
p413
sVCharacterOffsetBegin
p414
V84
p415
sVPartOfSpeech
p416
VNNS
p417
sVLemma
p418
Vdeck
p419
saa(lp420
Vand
p421
a(dp422
VNamedEntityTag
p423
g73
sVCharacterOffsetEnd
p424
V93
p425
sVCharacterOffsetBegin
p426
V90
p427
sVPartOfSpeech
p428
VCC
p429
sVLemma
p430
Vand
p431
saa(lp432
Vby
p433
a(dp434
VNamedEntityTag
p435
g73
sVCharacterOffsetEnd
p436
V96
p437
sVCharacterOffsetBegin
p438
V94
p439
sVPartOfSpeech
p440
VIN
p441
sVLemma
p442
Vby
p443
saa(lp444
Vthe
p445
a(dp446
VNormalizedNamedEntityTag
p447
VTHIS
p448
sVTimex
p449
V<TIMEX3 alt_value="THIS P1D" anchorTimeID="t0" mod="LATE" temporalFunction="true" tid="t1" type="DATE" valueFromFunction="tf0">the end of the day</TIMEX3>
p450
sVLemma
p451
Vthe
p452
sVCharacterOffsetEnd
p453
V100
p454
sVPartOfSpeech
p455
VDT
p456
sVCharacterOffsetBegin
p457
V97
p458
sVNamedEntityTag
p459
VDATE
p460
saa(lp461
Vend
p462
a(dp463
VNormalizedNamedEntityTag
p464
VTHIS
p465
sVTimex
p466
V<TIMEX3 alt_value="THIS P1D" anchorTimeID="t0" mod="LATE" temporalFunction="true" tid="t1" type="DATE" valueFromFunction="tf0">the end of the day</TIMEX3>
p467
sVLemma
p468
Vend
p469
sVCharacterOffsetEnd
p470
V104
p471
sVPartOfSpeech
p472
VNN
p473
sVCharacterOffsetBegin
p474
V101
p475
sVNamedEntityTag
p476
VDATE
p477
saa(lp478
Vof
p479
a(dp480
VNormalizedNamedEntityTag
p481
VTHIS
p482
sVTimex
p483
V<TIMEX3 alt_value="THIS P1D" anchorTimeID="t0" mod="LATE" temporalFunction="true" tid="t1" type="DATE" valueFromFunction="tf0">the end of the day</TIMEX3>
p484
sVLemma
p485
Vof
p486
sVCharacterOffsetEnd
p487
V107
p488
sVPartOfSpeech
p489
VIN
p490
sVCharacterOffsetBegin
p491
V105
p492
sVNamedEntityTag
p493
VDATE
p494
saa(lp495
Vthe
p496
a(dp497
VNormalizedNamedEntityTag
p498
VTHIS
p499
sVTimex
p500
V<TIMEX3 alt_value="THIS P1D" anchorTimeID="t0" mod="LATE" temporalFunction="true" tid="t1" type="DATE" valueFromFunction="tf0">the end of the day</TIMEX3>
p501
sVLemma
p502
Vthe
p503
sVCharacterOffsetEnd
p504
V111
p505
sVPartOfSpeech
p506
VDT
p507
sVCharacterOffsetBegin
p508
V108
p509
sVNamedEntityTag
p510
VDATE
p511
saa(lp512
Vday
p513
a(dp514
VNormalizedNamedEntityTag
p515
VTHIS
p516
sVTimex
p517
V<TIMEX3 alt_value="THIS P1D" anchorTimeID="t0" mod="LATE" temporalFunction="true" tid="t1" type="DATE" valueFromFunction="tf0">the end of the day</TIMEX3>
p518
sVLemma
p519
Vday
p520
sVCharacterOffsetEnd
p521
V115
p522
sVPartOfSpeech
p523
VNN
p524
sVCharacterOffsetBegin
p525
V112
p526
sVNamedEntityTag
p527
VDATE
p528
saa(lp529
Vhe
p530
a(dp531
VNamedEntityTag
p532
g73
sVCharacterOffsetEnd
p533
V118
p534
sVCharacterOffsetBegin
p535
V116
p536
sVPartOfSpeech
p537
VPRP
p538
sVLemma
p539
Vhe
p540
saa(lp541
Vhad
p542
a(dp543
VNamedEntityTag
p544
g73
sVCharacterOffsetEnd
p545
V122
p546
sVCharacterOffsetBegin
p547
V119
p548
sVPartOfSpeech
p549
VVBD
p550
sVLemma
p551
Vhave
p552
saa(lp553
g59
a(dp554
VNormalizedNamedEntityTag
p555
V5.0
p556
sVLemma
p557
g59
sVCharacterOffsetEnd
p558
V124
p559
sVPartOfSpeech
p560
VCD
p561
sVCharacterOffsetBegin
p562
V123
p563
sVNamedEntityTag
p564
VNUMBER
p565
saa(lp566
Vleft
p567
a(dp568
VNamedEntityTag
p569
g73
sVCharacterOffsetEnd
p570
V129
p571
sVCharacterOffsetBegin
p572
V125
p573
sVPartOfSpeech
p574
VVBD
p575
sVLemma
p576
Vleave
p577
saa(lp578
V,
p579
a(dp580
VNamedEntityTag
p581
g73
sVCharacterOffsetEnd
p582
V131
p583
sVCharacterOffsetBegin
p584
V130
p585
sVPartOfSpeech
p586
g579
sVLemma
p587
g579
saa(lp588
Vhow
p589
a(dp590
VNamedEntityTag
p591
g73
sVCharacterOffsetEnd
p592
V135
p593
sVCharacterOffsetBegin
p594
V132
p595
sVPartOfSpeech
p596
VWRB
p597
sVLemma
p598
Vhow
p599
saa(lp600
Vmuch
p601
a(dp602
VNamedEntityTag
p603
g73
sVCharacterOffsetEnd
p604
V140
p605
sVCharacterOffsetBegin
p606
V136
p607
sVPartOfSpeech
p608
VJJ
p609
sVLemma
p610
Vmuch
p611
saa(lp612
Vmoney
p613
a(dp614
VNamedEntityTag
p615
g73
sVCharacterOffsetEnd
p616
V146
p617
sVCharacterOffsetBegin
p618
V141
p619
sVPartOfSpeech
p620
VNN
p621
sVLemma
p622
Vmoney
p623
saa(lp624
Vdid
p625
a(dp626
VNamedEntityTag
p627
g73
sVCharacterOffsetEnd
p628
V150
p629
sVCharacterOffsetBegin
p630
V147
p631
sVPartOfSpeech
p632
VVBD
p633
sVLemma
p634
Vdo
p635
saa(lp636
Vhe
p637
a(dp638
VNamedEntityTag
p639
g73
sVCharacterOffsetEnd
p640
V153
p641
sVCharacterOffsetBegin
p642
V151
p643
sVPartOfSpeech
p644
VPRP
p645
sVLemma
p646
Vhe
p647
saa(lp648
Vearn
p649
a(dp650
VNamedEntityTag
p651
g73
sVCharacterOffsetEnd
p652
V158
p653
sVCharacterOffsetBegin
p654
V154
p655
sVPartOfSpeech
p656
VVB
p657
sVLemma
p658
Vearn
p659
saa(lp660
V?
p661
a(dp662
VNamedEntityTag
p663
g73
sVCharacterOffsetEnd
p664
V160
p665
sVCharacterOffsetBegin
p666
V159
p667
sVPartOfSpeech
p668
g207
sVLemma
p669
g661
saasVindexeddependencies
p670
(lp671
(lp672
Vroot
p673
aVROOT-0
p674
aVearn-24
p675
aa(lp676
Vmark
p677
aVstarted-3
p678
aVIf-1
p679
aa(lp680
Vnsubj
p681
aVstarted-3
p682
aVhe-2
p683
aa(lp684
Vadvcl
p685
aVearn-24
p686
aVstarted-3
p687
aa(lp688
Vconj_and
p689
aVstarted-3
p690
aVstarted-3
p691
aa(lp692
Vnum
p693
aVdecks-6
p694
aV14-5
p695
aa(lp696
Vprep_with
p697
aVstarted-3
p698
aVdecks-6
p699
aa(lp700
Vdet
p701
aVend-10
p702
aVthe-9
p703
aa(lp704
Vprep_by
p705
aVstarted-3
p706
aVend-10
p707
aa(lp708
Vdet
p709
aVday-13
p710
aVthe-12
p711
aa(lp712
Vprep_of
p713
aVend-10
p714
aVday-13
p715
aa(lp716
Vnsubj
p717
aVhad-15
p718
aVhe-14
p719
aa(lp720
Vrcmod
p721
aVday-13
p722
aVhad-15
p723
aa(lp724
Vdobj
p725
aVhad-15
p726
aV5-16
p727
aa(lp728
Vrcmod
p729
aV5-16
p730
aVleft-17
p731
aa(lp732
Vadvmod
p733
aVmuch-20
p734
aVhow-19
p735
aa(lp736
Vamod
p737
aVmoney-21
p738
aVmuch-20
p739
aa(lp740
Vdobj
p741
aVearn-24
p742
aVmoney-21
p743
aa(lp744
Vaux
p745
aVearn-24
p746
aVdid-22
p747
aa(lp748
Vnsubj
p749
aVearn-24
p750
aVhe-23
p751
aasas.