(dp0
Vsentences
p1
(lp2
(dp3
Vparsetree
p4
V(ROOT (NP (NP (NP (DT Each) (NN chocolate) (NN bar)) (PP (IN in) (NP (DT a) (NN box) (NN cost)))) (ADJP ($ $) (CD 3)) (. .)))
p5
sVtext
p6
VEach chocolate bar in a box cost $3 .
p7
sVdependencies
p8
(lp9
(lp10
Vroot
p11
aVROOT
p12
aVbar
p13
aa(lp14
Vdet
p15
aVbar
p16
aVEach
p17
aa(lp18
Vnn
p19
aVbar
p20
aVchocolate
p21
aa(lp22
Vdet
p23
aVcost
p24
aVa
p25
aa(lp26
Vnn
p27
aVcost
p28
aVbox
p29
aa(lp30
Vprep_in
p31
aVbar
p32
aVcost
p33
aa(lp34
Vamod
p35
aVbar
p36
aV$
p37
aa(lp38
Vnumber
p39
ag37
aV3
p40
aasVwords
p41
(lp42
(lp43
VEach
p44
a(dp45
VNamedEntityTag
p46
VO
p47
sVCharacterOffsetEnd
p48
V5
p49
sVCharacterOffsetBegin
p50
V1
p51
sVPartOfSpeech
p52
VDT
p53
sVLemma
p54
Veach
p55
saa(lp56
Vchocolate
p57
a(dp58
VNamedEntityTag
p59
g47
sVCharacterOffsetEnd
p60
V15
p61
sVCharacterOffsetBegin
p62
V6
p63
sVPartOfSpeech
p64
VNN
p65
sVLemma
p66
Vchocolate
p67
saa(lp68
Vbar
p69
a(dp70
VNamedEntityTag
p71
g47
sVCharacterOffsetEnd
p72
V19
p73
sVCharacterOffsetBegin
p74
V16
p75
sVPartOfSpeech
p76
VNN
p77
sVLemma
p78
Vbar
p79
saa(lp80
Vin
p81
a(dp82
VNamedEntityTag
p83
g47
sVCharacterOffsetEnd
p84
V22
p85
sVCharacterOffsetBegin
p86
V20
p87
sVPartOfSpeech
p88
VIN
p89
sVLemma
p90
Vin
p91
saa(lp92
g25
a(dp93
VNamedEntityTag
p94
g47
sVCharacterOffsetEnd
p95
V24
p96
sVCharacterOffsetBegin
p97
V23
p98
sVPartOfSpeech
p99
VDT
p100
sVLemma
p101
g25
saa(lp102
Vbox
p103
a(dp104
VNamedEntityTag
p105
g47
sVCharacterOffsetEnd
p106
V28
p107
sVCharacterOffsetBegin
p108
V25
p109
sVPartOfSpeech
p110
VNN
p111
sVLemma
p112
Vbox
p113
saa(lp114
Vcost
p115
a(dp116
VNamedEntityTag
p117
g47
sVCharacterOffsetEnd
p118
V33
p119
sVCharacterOffsetBegin
p120
V29
p121
sVPartOfSpeech
p122
VNN
p123
sVLemma
p124
Vcost
p125
saa(lp126
g37
a(dp127
VNormalizedNamedEntityTag
p128
V$3.0
p129
sVLemma
p130
g37
sVCharacterOffsetEnd
p131
V35
p132
sVPartOfSpeech
p133
g37
sVCharacterOffsetBegin
p134
V34
p135
sVNamedEntityTag
p136
VMONEY
p137
saa(lp138
g40
a(dp139
VNormalizedNamedEntityTag
p140
V$3.0
p141
sVLemma
p142
g40
sVCharacterOffsetEnd
p143
V36
p144
sVPartOfSpeech
p145
VCD
p146
sVCharacterOffsetBegin
p147
V35
p148
sVNamedEntityTag
p149
VMONEY
p150
saa(lp151
V.
p152
a(dp153
VNamedEntityTag
p154
g47
sVCharacterOffsetEnd
p155
V38
p156
sVCharacterOffsetBegin
p157
V37
p158
sVPartOfSpeech
p159
g152
sVLemma
p160
g152
saasVindexeddependencies
p161
(lp162
(lp163
Vroot
p164
aVROOT-0
p165
aVbar-3
p166
aa(lp167
Vdet
p168
aVbar-3
p169
aVEach-1
p170
aa(lp171
Vnn
p172
aVbar-3
p173
aVchocolate-2
p174
aa(lp175
Vdet
p176
aVcost-7
p177
aVa-5
p178
aa(lp179
Vnn
p180
aVcost-7
p181
aVbox-6
p182
aa(lp183
Vprep_in
p184
aVbar-3
p185
aVcost-7
p186
aa(lp187
Vamod
p188
aVbar-3
p189
aV$-8
p190
aa(lp191
Vnumber
p192
aV$-8
p193
aV3-9
p194
aasa(dp195
Vparsetree
p196
V(ROOT (SBARQ (SBAR (IN If) (S (NP (DT a) (NN box)) (VP (VBD had) (NP (NP (CD 9) (NNS bars)) (SBAR (S (NP (JJ total) (CC and) (NN Wendy)) (VP (VBD sold) (NP (QP (DT all) (CC but) (CD 3)) (NNS bars))))))))) (, ,) (WHNP (WHADJP (WRB how) (JJ much)) (NN money)) (SQ (MD would) (NP (PRP she)) (VP (VB have) (VP (VBN made)))) (. ?)))
p197
sVtext
p198
VIf a box had 9 bars total and Wendy sold all but 3 bars , how much money would she have made ?
p199
sVdependencies
p200
(lp201
(lp202
Vroot
p203
aVROOT
p204
aVmade
p205
aa(lp206
Vmark
p207
aVhad
p208
aVIf
p209
aa(lp210
Vdet
p211
aVbox
p212
ag25
aa(lp213
Vnsubj
p214
aVhad
p215
aVbox
p216
aa(lp217
Vadvcl
p218
aVmade
p219
aVhad
p220
aa(lp221
Vnum
p222
aVbars
p223
aV9
p224
aa(lp225
Vdobj
p226
aVhad
p227
aVbars
p228
aa(lp229
Vnsubj
p230
aVsold
p231
aVtotal
p232
aa(lp233
Vconj_and
p234
aVtotal
p235
aVWendy
p236
aa(lp237
Vrcmod
p238
aVbars
p239
aVsold
p240
aa(lp241
Vnum
p242
aVbars
p243
aVall
p244
aa(lp245
Vconj_but
p246
aVall
p247
ag40
aa(lp248
Vdobj
p249
aVsold
p250
aVbars
p251
aa(lp252
Vadvmod
p253
aVmuch
p254
aVhow
p255
aa(lp256
Vamod
p257
aVmoney
p258
aVmuch
p259
aa(lp260
Vdobj
p261
aVmade
p262
aVmoney
p263
aa(lp264
Vaux
p265
aVmade
p266
aVwould
p267
aa(lp268
Vnsubj
p269
aVmade
p270
aVshe
p271
aa(lp272
Vaux
p273
aVmade
p274
aVhave
p275
aasVwords
p276
(lp277
(lp278
VIf
p279
a(dp280
VNamedEntityTag
p281
g47
sVCharacterOffsetEnd
p282
V41
p283
sVCharacterOffsetBegin
p284
V39
p285
sVPartOfSpeech
p286
VIN
p287
sVLemma
p288
Vif
p289
saa(lp290
g25
a(dp291
VNamedEntityTag
p292
g47
sVCharacterOffsetEnd
p293
V43
p294
sVCharacterOffsetBegin
p295
V42
p296
sVPartOfSpeech
p297
VDT
p298
sVLemma
p299
g25
saa(lp300
Vbox
p301
a(dp302
VNamedEntityTag
p303
g47
sVCharacterOffsetEnd
p304
V47
p305
sVCharacterOffsetBegin
p306
V44
p307
sVPartOfSpeech
p308
VNN
p309
sVLemma
p310
Vbox
p311
saa(lp312
Vhad
p313
a(dp314
VNamedEntityTag
p315
g47
sVCharacterOffsetEnd
p316
V51
p317
sVCharacterOffsetBegin
p318
V48
p319
sVPartOfSpeech
p320
VVBD
p321
sVLemma
p322
Vhave
p323
saa(lp324
g224
a(dp325
VNormalizedNamedEntityTag
p326
V9.0
p327
sVLemma
p328
g224
sVCharacterOffsetEnd
p329
V53
p330
sVPartOfSpeech
p331
VCD
p332
sVCharacterOffsetBegin
p333
V52
p334
sVNamedEntityTag
p335
VNUMBER
p336
saa(lp337
Vbars
p338
a(dp339
VNamedEntityTag
p340
g47
sVCharacterOffsetEnd
p341
V58
p342
sVCharacterOffsetBegin
p343
V54
p344
sVPartOfSpeech
p345
VNNS
p346
sVLemma
p347
Vbar
p348
saa(lp349
Vtotal
p350
a(dp351
VNamedEntityTag
p352
g47
sVCharacterOffsetEnd
p353
V64
p354
sVCharacterOffsetBegin
p355
V59
p356
sVPartOfSpeech
p357
VJJ
p358
sVLemma
p359
Vtotal
p360
saa(lp361
Vand
p362
a(dp363
VNamedEntityTag
p364
g47
sVCharacterOffsetEnd
p365
V68
p366
sVCharacterOffsetBegin
p367
V65
p368
sVPartOfSpeech
p369
VCC
p370
sVLemma
p371
Vand
p372
saa(lp373
VWendy
p374
a(dp375
VNamedEntityTag
p376
VPERSON
p377
sVCharacterOffsetEnd
p378
V74
p379
sVCharacterOffsetBegin
p380
V69
p381
sVPartOfSpeech
p382
VNN
p383
sVLemma
p384
Vwendy
p385
saa(lp386
Vsold
p387
a(dp388
VNamedEntityTag
p389
g47
sVCharacterOffsetEnd
p390
V79
p391
sVCharacterOffsetBegin
p392
V75
p393
sVPartOfSpeech
p394
VVBD
p395
sVLemma
p396
Vsell
p397
saa(lp398
Vall
p399
a(dp400
VNamedEntityTag
p401
g47
sVCharacterOffsetEnd
p402
V83
p403
sVCharacterOffsetBegin
p404
V80
p405
sVPartOfSpeech
p406
VDT
p407
sVLemma
p408
Vall
p409
saa(lp410
Vbut
p411
a(dp412
VNamedEntityTag
p413
g47
sVCharacterOffsetEnd
p414
V87
p415
sVCharacterOffsetBegin
p416
V84
p417
sVPartOfSpeech
p418
VCC
p419
sVLemma
p420
Vbut
p421
saa(lp422
g40
a(dp423
VNormalizedNamedEntityTag
p424
V3.0
p425
sVLemma
p426
g40
sVCharacterOffsetEnd
p427
V89
p428
sVPartOfSpeech
p429
VCD
p430
sVCharacterOffsetBegin
p431
V88
p432
sVNamedEntityTag
p433
VNUMBER
p434
saa(lp435
Vbars
p436
a(dp437
VNamedEntityTag
p438
g47
sVCharacterOffsetEnd
p439
V94
p440
sVCharacterOffsetBegin
p441
V90
p442
sVPartOfSpeech
p443
VNNS
p444
sVLemma
p445
Vbar
p446
saa(lp447
V,
p448
a(dp449
VNamedEntityTag
p450
g47
sVCharacterOffsetEnd
p451
V96
p452
sVCharacterOffsetBegin
p453
V95
p454
sVPartOfSpeech
p455
g448
sVLemma
p456
g448
saa(lp457
Vhow
p458
a(dp459
VNamedEntityTag
p460
g47
sVCharacterOffsetEnd
p461
V100
p462
sVCharacterOffsetBegin
p463
V97
p464
sVPartOfSpeech
p465
VWRB
p466
sVLemma
p467
Vhow
p468
saa(lp469
Vmuch
p470
a(dp471
VNamedEntityTag
p472
g47
sVCharacterOffsetEnd
p473
V105
p474
sVCharacterOffsetBegin
p475
V101
p476
sVPartOfSpeech
p477
VJJ
p478
sVLemma
p479
Vmuch
p480
saa(lp481
Vmoney
p482
a(dp483
VNamedEntityTag
p484
g47
sVCharacterOffsetEnd
p485
V111
p486
sVCharacterOffsetBegin
p487
V106
p488
sVPartOfSpeech
p489
VNN
p490
sVLemma
p491
Vmoney
p492
saa(lp493
Vwould
p494
a(dp495
VNamedEntityTag
p496
g47
sVCharacterOffsetEnd
p497
V117
p498
sVCharacterOffsetBegin
p499
V112
p500
sVPartOfSpeech
p501
VMD
p502
sVLemma
p503
Vwould
p504
saa(lp505
Vshe
p506
a(dp507
VNamedEntityTag
p508
g47
sVCharacterOffsetEnd
p509
V121
p510
sVCharacterOffsetBegin
p511
V118
p512
sVPartOfSpeech
p513
VPRP
p514
sVLemma
p515
Vshe
p516
saa(lp517
Vhave
p518
a(dp519
VNamedEntityTag
p520
g47
sVCharacterOffsetEnd
p521
V126
p522
sVCharacterOffsetBegin
p523
V122
p524
sVPartOfSpeech
p525
VVB
p526
sVLemma
p527
Vhave
p528
saa(lp529
Vmade
p530
a(dp531
VNamedEntityTag
p532
g47
sVCharacterOffsetEnd
p533
V131
p534
sVCharacterOffsetBegin
p535
V127
p536
sVPartOfSpeech
p537
VVBN
p538
sVLemma
p539
Vmake
p540
saa(lp541
V?
p542
a(dp543
VNamedEntityTag
p544
g47
sVCharacterOffsetEnd
p545
V133
p546
sVCharacterOffsetBegin
p547
V132
p548
sVPartOfSpeech
p549
g152
sVLemma
p550
g542
saasVindexeddependencies
p551
(lp552
(lp553
Vroot
p554
aVROOT-0
p555
aVmade-22
p556
aa(lp557
Vmark
p558
aVhad-4
p559
aVIf-1
p560
aa(lp561
Vdet
p562
aVbox-3
p563
aVa-2
p564
aa(lp565
Vnsubj
p566
aVhad-4
p567
aVbox-3
p568
aa(lp569
Vadvcl
p570
aVmade-22
p571
aVhad-4
p572
aa(lp573
Vnum
p574
aVbars-6
p575
aV9-5
p576
aa(lp577
Vdobj
p578
aVhad-4
p579
aVbars-6
p580
aa(lp581
Vnsubj
p582
aVsold-10
p583
aVtotal-7
p584
aa(lp585
Vconj_and
p586
aVtotal-7
p587
aVWendy-9
p588
aa(lp589
Vrcmod
p590
aVbars-6
p591
aVsold-10
p592
aa(lp593
Vnum
p594
aVbars-14
p595
aVall-11
p596
aa(lp597
Vconj_but
p598
aVall-11
p599
aV3-13
p600
aa(lp601
Vdobj
p602
aVsold-10
p603
aVbars-14
p604
aa(lp605
Vadvmod
p606
aVmuch-17
p607
aVhow-16
p608
aa(lp609
Vamod
p610
aVmoney-18
p611
aVmuch-17
p612
aa(lp613
Vdobj
p614
aVmade-22
p615
aVmoney-18
p616
aa(lp617
Vaux
p618
aVmade-22
p619
aVwould-19
p620
aa(lp621
Vnsubj
p622
aVmade-22
p623
aVshe-20
p624
aa(lp625
Vaux
p626
aVmade-22
p627
aVhave-21
p628
aasas.