(dp0
Vcoref
p1
(lp2
(lp3
(lp4
(lp5
Vhe
p6
aI1
aI1
aI1
aI2
aa(lp7
Va waiter
p8
aI0
aI3
aI2
aI4
aaa(lp9
(lp10
Vhe
p11
aI1
aI17
aI17
aI18
aa(lp12
Va waiter
p13
aI0
aI3
aI2
aI4
aaaa(lp14
(lp15
(lp16
Vthem
p17
aI0
aI10
aI10
aI11
aa(lp18
V9 customers
p19
aI0
aI6
aI5
aI7
aaaasVsentences
p20
(lp21
(dp22
Vparsetree
p23
V(ROOT (S (S (PP (IN At) (NP (NN lunch))) (NP (DT a) (NN waiter)) (VP (VBD had) (NP (CD 9) (NNS customers)))) (CC and) (S (NP (NP (CD 5)) (PP (IN of) (NP (PRP them)))) (VP (VBD did) (RB n't) (VP (VB leave) (NP (DT a) (NN tip))))) (. .)))
p24
sVtext
p25
VAt lunch a waiter had 9 customers and 5 of them didn't leave a tip .
p26
sVdependencies
p27
(lp28
(lp29
Vroot
p30
aVROOT
p31
aVhad
p32
aa(lp33
Vprep_at
p34
aVhad
p35
aVlunch
p36
aa(lp37
Vdet
p38
aVwaiter
p39
aVa
p40
aa(lp41
Vnsubj
p42
aVhad
p43
aVwaiter
p44
aa(lp45
Vnum
p46
aVcustomers
p47
aV9
p48
aa(lp49
Vdobj
p50
aVhad
p51
aVcustomers
p52
aa(lp53
Vnsubj
p54
aVleave
p55
aV5
p56
aa(lp57
Vprep_of
p58
ag56
aVthem
p59
aa(lp60
Vaux
p61
aVleave
p62
aVdid
p63
aa(lp64
Vneg
p65
aVleave
p66
aVn't
p67
aa(lp68
Vconj_and
p69
aVhad
p70
aVleave
p71
aa(lp72
Vdet
p73
aVtip
p74
ag40
aa(lp75
Vdobj
p76
aVleave
p77
aVtip
p78
aasVwords
p79
(lp80
(lp81
VAt
p82
a(dp83
VNamedEntityTag
p84
VO
p85
sVCharacterOffsetEnd
p86
V3
p87
sVCharacterOffsetBegin
p88
V1
p89
sVPartOfSpeech
p90
VIN
p91
sVLemma
p92
Vat
p93
saa(lp94
Vlunch
p95
a(dp96
VNamedEntityTag
p97
g85
sVCharacterOffsetEnd
p98
g48
sVCharacterOffsetBegin
p99
V4
p100
sVPartOfSpeech
p101
VNN
p102
sVLemma
p103
Vlunch
p104
saa(lp105
g40
a(dp106
VNamedEntityTag
p107
g85
sVCharacterOffsetEnd
p108
V11
p109
sVCharacterOffsetBegin
p110
V10
p111
sVPartOfSpeech
p112
VDT
p113
sVLemma
p114
g40
saa(lp115
Vwaiter
p116
a(dp117
VNamedEntityTag
p118
g85
sVCharacterOffsetEnd
p119
V18
p120
sVCharacterOffsetBegin
p121
V12
p122
sVPartOfSpeech
p123
VNN
p124
sVLemma
p125
Vwaiter
p126
saa(lp127
Vhad
p128
a(dp129
VNamedEntityTag
p130
g85
sVCharacterOffsetEnd
p131
V22
p132
sVCharacterOffsetBegin
p133
V19
p134
sVPartOfSpeech
p135
VVBD
p136
sVLemma
p137
Vhave
p138
saa(lp139
g48
a(dp140
VNormalizedNamedEntityTag
p141
V9.0
p142
sVLemma
p143
g48
sVCharacterOffsetEnd
p144
V24
p145
sVPartOfSpeech
p146
VCD
p147
sVCharacterOffsetBegin
p148
V23
p149
sVNamedEntityTag
p150
VNUMBER
p151
saa(lp152
Vcustomers
p153
a(dp154
VNamedEntityTag
p155
g85
sVCharacterOffsetEnd
p156
V34
p157
sVCharacterOffsetBegin
p158
V25
p159
sVPartOfSpeech
p160
VNNS
p161
sVLemma
p162
Vcustomer
p163
saa(lp164
Vand
p165
a(dp166
VNamedEntityTag
p167
g85
sVCharacterOffsetEnd
p168
V38
p169
sVCharacterOffsetBegin
p170
V35
p171
sVPartOfSpeech
p172
VCC
p173
sVLemma
p174
Vand
p175
saa(lp176
g56
a(dp177
VNormalizedNamedEntityTag
p178
V5.0
p179
sVLemma
p180
g56
sVCharacterOffsetEnd
p181
V40
p182
sVPartOfSpeech
p183
VCD
p184
sVCharacterOffsetBegin
p185
V39
p186
sVNamedEntityTag
p187
VNUMBER
p188
saa(lp189
Vof
p190
a(dp191
VNamedEntityTag
p192
g85
sVCharacterOffsetEnd
p193
V43
p194
sVCharacterOffsetBegin
p195
V41
p196
sVPartOfSpeech
p197
VIN
p198
sVLemma
p199
Vof
p200
saa(lp201
Vthem
p202
a(dp203
VNamedEntityTag
p204
g85
sVCharacterOffsetEnd
p205
V48
p206
sVCharacterOffsetBegin
p207
V44
p208
sVPartOfSpeech
p209
VPRP
p210
sVLemma
p211
Vthey
p212
saa(lp213
Vdid
p214
a(dp215
VNamedEntityTag
p216
g85
sVCharacterOffsetEnd
p217
V52
p218
sVCharacterOffsetBegin
p219
V49
p220
sVPartOfSpeech
p221
VVBD
p222
sVLemma
p223
Vdo
p224
saa(lp225
Vn't
p226
a(dp227
VNamedEntityTag
p228
g85
sVCharacterOffsetEnd
p229
V55
p230
sVCharacterOffsetBegin
p231
V52
p232
sVPartOfSpeech
p233
VRB
p234
sVLemma
p235
Vnot
p236
saa(lp237
Vleave
p238
a(dp239
VNamedEntityTag
p240
g85
sVCharacterOffsetEnd
p241
V61
p242
sVCharacterOffsetBegin
p243
V56
p244
sVPartOfSpeech
p245
VVB
p246
sVLemma
p247
Vleave
p248
saa(lp249
g40
a(dp250
VNamedEntityTag
p251
g85
sVCharacterOffsetEnd
p252
V63
p253
sVCharacterOffsetBegin
p254
V62
p255
sVPartOfSpeech
p256
VDT
p257
sVLemma
p258
g40
saa(lp259
Vtip
p260
a(dp261
VNamedEntityTag
p262
g85
sVCharacterOffsetEnd
p263
V67
p264
sVCharacterOffsetBegin
p265
V64
p266
sVPartOfSpeech
p267
VNN
p268
sVLemma
p269
Vtip
p270
saa(lp271
V.
p272
a(dp273
VNamedEntityTag
p274
g85
sVCharacterOffsetEnd
p275
V69
p276
sVCharacterOffsetBegin
p277
V68
p278
sVPartOfSpeech
p279
g272
sVLemma
p280
g272
saasVindexeddependencies
p281
(lp282
(lp283
Vroot
p284
aVROOT-0
p285
aVhad-5
p286
aa(lp287
Vprep_at
p288
aVhad-5
p289
aVlunch-2
p290
aa(lp291
Vdet
p292
aVwaiter-4
p293
aVa-3
p294
aa(lp295
Vnsubj
p296
aVhad-5
p297
aVwaiter-4
p298
aa(lp299
Vnum
p300
aVcustomers-7
p301
aV9-6
p302
aa(lp303
Vdobj
p304
aVhad-5
p305
aVcustomers-7
p306
aa(lp307
Vnsubj
p308
aVleave-14
p309
aV5-9
p310
aa(lp311
Vprep_of
p312
aV5-9
p313
aVthem-11
p314
aa(lp315
Vaux
p316
aVleave-14
p317
aVdid-12
p318
aa(lp319
Vneg
p320
aVleave-14
p321
aVn't-13
p322
aa(lp323
Vconj_and
p324
aVhad-5
p325
aVleave-14
p326
aa(lp327
Vdet
p328
aVtip-16
p329
aVa-15
p330
aa(lp331
Vdobj
p332
aVleave-14
p333
aVtip-16
p334
aasa(dp335
Vparsetree
p336
V(ROOT (SBARQ (SBAR (IN If) (S (NP (PRP he)) (VP (VBD got) (NP (NP ($ $) (CD 8)) (NP (DT each))) (PP (IN from) (NP (NP (DT the) (NNS ones)) (SBAR (WHNP (WP who)) (S (VP (VBD did) (NP (NN tip)))))))))) (, ,) (WHNP (WHADJP (WRB how) (JJ much)) (NN money)) (SQ (VBD did) (NP (PRP he)) (VP (VB earn))) (. ?)))
p337
sVtext
p338
VIf he got $8 each from the ones who did tip , how much money did he earn ?
p339
sVdependencies
p340
(lp341
(lp342
Vroot
p343
aVROOT
p344
aVearn
p345
aa(lp346
Vmark
p347
aVgot
p348
aVIf
p349
aa(lp350
Vnsubj
p351
aVgot
p352
aVhe
p353
aa(lp354
Vadvcl
p355
aVearn
p356
aVgot
p357
aa(lp358
Vdobj
p359
aVgot
p360
aV$
p361
aa(lp362
Vnum
p363
ag361
aV8
p364
aa(lp365
Vdep
p366
ag361
aVeach
p367
aa(lp368
Vdet
p369
aVones
p370
aVthe
p371
aa(lp372
Vprep_from
p373
aVgot
p374
aVones
p375
aa(lp376
Vnsubj
p377
aVdid
p378
aVwho
p379
aa(lp380
Vrcmod
p381
aVones
p382
aVdid
p383
aa(lp384
Vdobj
p385
aVdid
p386
aVtip
p387
aa(lp388
Vadvmod
p389
aVmuch
p390
aVhow
p391
aa(lp392
Vamod
p393
aVmoney
p394
aVmuch
p395
aa(lp396
Vdobj
p397
aVearn
p398
aVmoney
p399
aa(lp400
Vaux
p401
aVearn
p402
aVdid
p403
aa(lp404
Vnsubj
p405
aVearn
p406
aVhe
p407
aasVwords
p408
(lp409
(lp410
VIf
p411
a(dp412
VNamedEntityTag
p413
g85
sVCharacterOffsetEnd
p414
V72
p415
sVCharacterOffsetBegin
p416
V70
p417
sVPartOfSpeech
p418
VIN
p419
sVLemma
p420
Vif
p421
saa(lp422
Vhe
p423
a(dp424
VNamedEntityTag
p425
g85
sVCharacterOffsetEnd
p426
V75
p427
sVCharacterOffsetBegin
p428
V73
p429
sVPartOfSpeech
p430
VPRP
p431
sVLemma
p432
Vhe
p433
saa(lp434
Vgot
p435
a(dp436
VNamedEntityTag
p437
g85
sVCharacterOffsetEnd
p438
V79
p439
sVCharacterOffsetBegin
p440
V76
p441
sVPartOfSpeech
p442
VVBD
p443
sVLemma
p444
Vget
p445
saa(lp446
g361
a(dp447
VNormalizedNamedEntityTag
p448
V$8.0
p449
sVLemma
p450
g361
sVCharacterOffsetEnd
p451
V81
p452
sVPartOfSpeech
p453
g361
sVCharacterOffsetBegin
p454
V80
p455
sVNamedEntityTag
p456
VMONEY
p457
saa(lp458
g364
a(dp459
VNormalizedNamedEntityTag
p460
V$8.0
p461
sVLemma
p462
g364
sVCharacterOffsetEnd
p463
V82
p464
sVPartOfSpeech
p465
VCD
p466
sVCharacterOffsetBegin
p467
V81
p468
sVNamedEntityTag
p469
VMONEY
p470
saa(lp471
Veach
p472
a(dp473
VNamedEntityTag
p474
g85
sVCharacterOffsetEnd
p475
V87
p476
sVCharacterOffsetBegin
p477
V83
p478
sVPartOfSpeech
p479
VDT
p480
sVLemma
p481
Veach
p482
saa(lp483
Vfrom
p484
a(dp485
VNamedEntityTag
p486
g85
sVCharacterOffsetEnd
p487
V92
p488
sVCharacterOffsetBegin
p489
V88
p490
sVPartOfSpeech
p491
VIN
p492
sVLemma
p493
Vfrom
p494
saa(lp495
Vthe
p496
a(dp497
VNamedEntityTag
p498
g85
sVCharacterOffsetEnd
p499
V96
p500
sVCharacterOffsetBegin
p501
V93
p502
sVPartOfSpeech
p503
VDT
p504
sVLemma
p505
Vthe
p506
saa(lp507
Vones
p508
a(dp509
VNamedEntityTag
p510
g85
sVCharacterOffsetEnd
p511
V101
p512
sVCharacterOffsetBegin
p513
V97
p514
sVPartOfSpeech
p515
VNNS
p516
sVLemma
p517
Vone
p518
saa(lp519
Vwho
p520
a(dp521
VNamedEntityTag
p522
g85
sVCharacterOffsetEnd
p523
V105
p524
sVCharacterOffsetBegin
p525
V102
p526
sVPartOfSpeech
p527
VWP
p528
sVLemma
p529
Vwho
p530
saa(lp531
Vdid
p532
a(dp533
VNamedEntityTag
p534
g85
sVCharacterOffsetEnd
p535
V109
p536
sVCharacterOffsetBegin
p537
V106
p538
sVPartOfSpeech
p539
VVBD
p540
sVLemma
p541
Vdo
p542
saa(lp543
Vtip
p544
a(dp545
VNamedEntityTag
p546
g85
sVCharacterOffsetEnd
p547
V113
p548
sVCharacterOffsetBegin
p549
V110
p550
sVPartOfSpeech
p551
VNN
p552
sVLemma
p553
Vtip
p554
saa(lp555
V,
p556
a(dp557
VNamedEntityTag
p558
g85
sVCharacterOffsetEnd
p559
V115
p560
sVCharacterOffsetBegin
p561
V114
p562
sVPartOfSpeech
p563
g556
sVLemma
p564
g556
saa(lp565
Vhow
p566
a(dp567
VNamedEntityTag
p568
g85
sVCharacterOffsetEnd
p569
V119
p570
sVCharacterOffsetBegin
p571
V116
p572
sVPartOfSpeech
p573
VWRB
p574
sVLemma
p575
Vhow
p576
saa(lp577
Vmuch
p578
a(dp579
VNamedEntityTag
p580
g85
sVCharacterOffsetEnd
p581
V124
p582
sVCharacterOffsetBegin
p583
V120
p584
sVPartOfSpeech
p585
VJJ
p586
sVLemma
p587
Vmuch
p588
saa(lp589
Vmoney
p590
a(dp591
VNamedEntityTag
p592
g85
sVCharacterOffsetEnd
p593
V130
p594
sVCharacterOffsetBegin
p595
V125
p596
sVPartOfSpeech
p597
VNN
p598
sVLemma
p599
Vmoney
p600
saa(lp601
Vdid
p602
a(dp603
VNamedEntityTag
p604
g85
sVCharacterOffsetEnd
p605
V134
p606
sVCharacterOffsetBegin
p607
V131
p608
sVPartOfSpeech
p609
VVBD
p610
sVLemma
p611
Vdo
p612
saa(lp613
Vhe
p614
a(dp615
VNamedEntityTag
p616
g85
sVCharacterOffsetEnd
p617
V137
p618
sVCharacterOffsetBegin
p619
V135
p620
sVPartOfSpeech
p621
VPRP
p622
sVLemma
p623
Vhe
p624
saa(lp625
Vearn
p626
a(dp627
VNamedEntityTag
p628
g85
sVCharacterOffsetEnd
p629
V142
p630
sVCharacterOffsetBegin
p631
V138
p632
sVPartOfSpeech
p633
VVB
p634
sVLemma
p635
Vearn
p636
saa(lp637
V?
p638
a(dp639
VNamedEntityTag
p640
g85
sVCharacterOffsetEnd
p641
V144
p642
sVCharacterOffsetBegin
p643
V143
p644
sVPartOfSpeech
p645
g272
sVLemma
p646
g638
saasVindexeddependencies
p647
(lp648
(lp649
Vroot
p650
aVROOT-0
p651
aVearn-19
p652
aa(lp653
Vmark
p654
aVgot-3
p655
aVIf-1
p656
aa(lp657
Vnsubj
p658
aVgot-3
p659
aVhe-2
p660
aa(lp661
Vadvcl
p662
aVearn-19
p663
aVgot-3
p664
aa(lp665
Vdobj
p666
aVgot-3
p667
aV$-4
p668
aa(lp669
Vnum
p670
aV$-4
p671
aV8-5
p672
aa(lp673
Vdep
p674
aV$-4
p675
aVeach-6
p676
aa(lp677
Vdet
p678
aVones-9
p679
aVthe-8
p680
aa(lp681
Vprep_from
p682
aVgot-3
p683
aVones-9
p684
aa(lp685
Vnsubj
p686
aVdid-11
p687
aVwho-10
p688
aa(lp689
Vrcmod
p690
aVones-9
p691
aVdid-11
p692
aa(lp693
Vdobj
p694
aVdid-11
p695
aVtip-12
p696
aa(lp697
Vadvmod
p698
aVmuch-15
p699
aVhow-14
p700
aa(lp701
Vamod
p702
aVmoney-16
p703
aVmuch-15
p704
aa(lp705
Vdobj
p706
aVearn-19
p707
aVmoney-16
p708
aa(lp709
Vaux
p710
aVearn-19
p711
aVdid-17
p712
aa(lp713
Vnsubj
p714
aVearn-19
p715
aVhe-18
p716
aasas.