(dp0
Vcoref
p1
(lp2
(lp3
(lp4
(lp5
Vshe
p6
aI0
aI9
aI9
aI10
aa(lp7
VBianca
p8
aI0
aI0
aI0
aI1
aaa(lp9
(lp10
Vshe
p11
aI1
aI1
aI1
aI2
aa(lp12
VBianca
p13
aI0
aI0
aI0
aI1
aaa(lp14
(lp15
Vshe
p16
aI1
aI18
aI18
aI19
aa(lp17
VBianca
p18
aI0
aI0
aI0
aI1
aaaasVsentences
p19
(lp20
(dp21
Vparsetree
p22
V(ROOT (S (S (NP (NNP Bianca)) (VP (VBD earned) (NP (CD 5) (NNS points)) (PP (IN for) (NP (NP (DT each) (NN bag)) (PP (IN of) (NP (NNS cans))))))) (NP (PRP she)) (VP (VBD recycled)) (. .)))
p23
sVtext
p24
VBianca earned 5 points for each bag of cans she recycled .
p25
sVdependencies
p26
(lp27
(lp28
Vroot
p29
aVROOT
p30
aVrecycled
p31
aa(lp32
Vnsubj
p33
aVearned
p34
aVBianca
p35
aa(lp36
Vdep
p37
aVrecycled
p38
aVearned
p39
aa(lp40
Vnum
p41
aVpoints
p42
aV5
p43
aa(lp44
Vdobj
p45
aVearned
p46
aVpoints
p47
aa(lp48
Vdet
p49
aVbag
p50
aVeach
p51
aa(lp52
Vprep_for
p53
aVearned
p54
aVbag
p55
aa(lp56
Vprep_of
p57
aVbag
p58
aVcans
p59
aa(lp60
Vnsubj
p61
aVrecycled
p62
aVshe
p63
aasVwords
p64
(lp65
(lp66
VBianca
p67
a(dp68
VNamedEntityTag
p69
VPERSON
p70
sVCharacterOffsetEnd
p71
V7
p72
sVCharacterOffsetBegin
p73
V1
p74
sVPartOfSpeech
p75
VNNP
p76
sVLemma
p77
VBianca
p78
saa(lp79
Vearned
p80
a(dp81
VNamedEntityTag
p82
VO
p83
sVCharacterOffsetEnd
p84
V14
p85
sVCharacterOffsetBegin
p86
V8
p87
sVPartOfSpeech
p88
VVBD
p89
sVLemma
p90
Vearn
p91
saa(lp92
g43
a(dp93
VNormalizedNamedEntityTag
p94
V5.0
p95
sVLemma
p96
g43
sVCharacterOffsetEnd
p97
V16
p98
sVPartOfSpeech
p99
VCD
p100
sVCharacterOffsetBegin
p101
V15
p102
sVNamedEntityTag
p103
VNUMBER
p104
saa(lp105
Vpoints
p106
a(dp107
VNamedEntityTag
p108
g83
sVCharacterOffsetEnd
p109
V23
p110
sVCharacterOffsetBegin
p111
V17
p112
sVPartOfSpeech
p113
VNNS
p114
sVLemma
p115
Vpoint
p116
saa(lp117
Vfor
p118
a(dp119
VNamedEntityTag
p120
g83
sVCharacterOffsetEnd
p121
V27
p122
sVCharacterOffsetBegin
p123
V24
p124
sVPartOfSpeech
p125
VIN
p126
sVLemma
p127
Vfor
p128
saa(lp129
Veach
p130
a(dp131
VNamedEntityTag
p132
g83
sVCharacterOffsetEnd
p133
V32
p134
sVCharacterOffsetBegin
p135
V28
p136
sVPartOfSpeech
p137
VDT
p138
sVLemma
p139
Veach
p140
saa(lp141
Vbag
p142
a(dp143
VNamedEntityTag
p144
g83
sVCharacterOffsetEnd
p145
V36
p146
sVCharacterOffsetBegin
p147
V33
p148
sVPartOfSpeech
p149
VNN
p150
sVLemma
p151
Vbag
p152
saa(lp153
Vof
p154
a(dp155
VNamedEntityTag
p156
g83
sVCharacterOffsetEnd
p157
V39
p158
sVCharacterOffsetBegin
p159
V37
p160
sVPartOfSpeech
p161
VIN
p162
sVLemma
p163
Vof
p164
saa(lp165
Vcans
p166
a(dp167
VNamedEntityTag
p168
g83
sVCharacterOffsetEnd
p169
V44
p170
sVCharacterOffsetBegin
p171
V40
p172
sVPartOfSpeech
p173
VNNS
p174
sVLemma
p175
Vcan
p176
saa(lp177
Vshe
p178
a(dp179
VNamedEntityTag
p180
g83
sVCharacterOffsetEnd
p181
V48
p182
sVCharacterOffsetBegin
p183
V45
p184
sVPartOfSpeech
p185
VPRP
p186
sVLemma
p187
Vshe
p188
saa(lp189
Vrecycled
p190
a(dp191
VNamedEntityTag
p192
g83
sVCharacterOffsetEnd
p193
V57
p194
sVCharacterOffsetBegin
p195
V49
p196
sVPartOfSpeech
p197
VVBD
p198
sVLemma
p199
Vrecycle
p200
saa(lp201
V.
p202
a(dp203
VNamedEntityTag
p204
g83
sVCharacterOffsetEnd
p205
V59
p206
sVCharacterOffsetBegin
p207
V58
p208
sVPartOfSpeech
p209
g202
sVLemma
p210
g202
saasVindexeddependencies
p211
(lp212
(lp213
Vroot
p214
aVROOT-0
p215
aVrecycled-11
p216
aa(lp217
Vnsubj
p218
aVearned-2
p219
aVBianca-1
p220
aa(lp221
Vdep
p222
aVrecycled-11
p223
aVearned-2
p224
aa(lp225
Vnum
p226
aVpoints-4
p227
aV5-3
p228
aa(lp229
Vdobj
p230
aVearned-2
p231
aVpoints-4
p232
aa(lp233
Vdet
p234
aVbag-7
p235
aVeach-6
p236
aa(lp237
Vprep_for
p238
aVearned-2
p239
aVbag-7
p240
aa(lp241
Vprep_of
p242
aVbag-7
p243
aVcans-9
p244
aa(lp245
Vnsubj
p246
aVrecycled-11
p247
aVshe-10
p248
aasa(dp249
Vparsetree
p250
V(ROOT (SBARQ (SBAR (IN If) (S (NP (PRP she)) (VP (VP (VBD had) (NP (CD 17) (NNS bags))) (, ,) (CC but) (VP (VBD did) (RB n't) (VP (VB recycle) (NP (NP (CD 8)) (PP (IN of) (NP (PRP them))))))))) (, ,) (WHNP (WHADJP (WRB how) (JJ many)) (NNS points)) (SQ (MD would) (NP (PRP she)) (VP (VB have) (VP (VBN earned)))) (. ?)))
p251
sVtext
p252
VIf she had 17 bags , but didn't recycle 8 of them , how many points would she have earned ?
p253
sVdependencies
p254
(lp255
(lp256
Vroot
p257
aVROOT
p258
aVearned
p259
aa(lp260
Vmark
p261
aVhad
p262
aVIf
p263
aa(lp264
Vnsubj
p265
aVhad
p266
aVshe
p267
aa(lp268
Vadvcl
p269
aVearned
p270
aVhad
p271
aa(lp272
Vnum
p273
aVbags
p274
aV17
p275
aa(lp276
Vdobj
p277
aVhad
p278
aVbags
p279
aa(lp280
Vaux
p281
aVrecycle
p282
aVdid
p283
aa(lp284
Vneg
p285
aVrecycle
p286
aVn't
p287
aa(lp288
Vconj_but
p289
aVhad
p290
aVrecycle
p291
aa(lp292
Vdobj
p293
aVrecycle
p294
ag87
aa(lp295
Vprep_of
p296
ag87
aVthem
p297
aa(lp298
Vadvmod
p299
aVmany
p300
aVhow
p301
aa(lp302
Vamod
p303
aVpoints
p304
aVmany
p305
aa(lp306
Vdobj
p307
aVearned
p308
aVpoints
p309
aa(lp310
Vaux
p311
aVearned
p312
aVwould
p313
aa(lp314
Vnsubj
p315
aVearned
p316
aVshe
p317
aa(lp318
Vaux
p319
aVearned
p320
aVhave
p321
aasVwords
p322
(lp323
(lp324
VIf
p325
a(dp326
VNamedEntityTag
p327
g83
sVCharacterOffsetEnd
p328
V62
p329
sVCharacterOffsetBegin
p330
V60
p331
sVPartOfSpeech
p332
VIN
p333
sVLemma
p334
Vif
p335
saa(lp336
Vshe
p337
a(dp338
VNamedEntityTag
p339
g83
sVCharacterOffsetEnd
p340
V66
p341
sVCharacterOffsetBegin
p342
V63
p343
sVPartOfSpeech
p344
VPRP
p345
sVLemma
p346
Vshe
p347
saa(lp348
Vhad
p349
a(dp350
VNamedEntityTag
p351
g83
sVCharacterOffsetEnd
p352
V70
p353
sVCharacterOffsetBegin
p354
V67
p355
sVPartOfSpeech
p356
VVBD
p357
sVLemma
p358
Vhave
p359
saa(lp360
V17
p361
a(dp362
VNormalizedNamedEntityTag
p363
V17.0
p364
sVLemma
p365
V17
p366
sVCharacterOffsetEnd
p367
V73
p368
sVPartOfSpeech
p369
VCD
p370
sVCharacterOffsetBegin
p371
V71
p372
sVNamedEntityTag
p373
VNUMBER
p374
saa(lp375
Vbags
p376
a(dp377
VNamedEntityTag
p378
g83
sVCharacterOffsetEnd
p379
V78
p380
sVCharacterOffsetBegin
p381
V74
p382
sVPartOfSpeech
p383
VNNS
p384
sVLemma
p385
Vbag
p386
saa(lp387
V,
p388
a(dp389
VNamedEntityTag
p390
g83
sVCharacterOffsetEnd
p391
V80
p392
sVCharacterOffsetBegin
p393
V79
p394
sVPartOfSpeech
p395
g388
sVLemma
p396
g388
saa(lp397
Vbut
p398
a(dp399
VNamedEntityTag
p400
g83
sVCharacterOffsetEnd
p401
V84
p402
sVCharacterOffsetBegin
p403
V81
p404
sVPartOfSpeech
p405
VCC
p406
sVLemma
p407
Vbut
p408
saa(lp409
Vdid
p410
a(dp411
VNamedEntityTag
p412
g83
sVCharacterOffsetEnd
p413
V88
p414
sVCharacterOffsetBegin
p415
V85
p416
sVPartOfSpeech
p417
VVBD
p418
sVLemma
p419
Vdo
p420
saa(lp421
Vn't
p422
a(dp423
VNamedEntityTag
p424
g83
sVCharacterOffsetEnd
p425
V91
p426
sVCharacterOffsetBegin
p427
V88
p428
sVPartOfSpeech
p429
VRB
p430
sVLemma
p431
Vnot
p432
saa(lp433
Vrecycle
p434
a(dp435
VNamedEntityTag
p436
g83
sVCharacterOffsetEnd
p437
V99
p438
sVCharacterOffsetBegin
p439
V92
p440
sVPartOfSpeech
p441
VVB
p442
sVLemma
p443
Vrecycle
p444
saa(lp445
g87
a(dp446
VNormalizedNamedEntityTag
p447
V8.0
p448
sVLemma
p449
g87
sVCharacterOffsetEnd
p450
V101
p451
sVPartOfSpeech
p452
VCD
p453
sVCharacterOffsetBegin
p454
V100
p455
sVNamedEntityTag
p456
VNUMBER
p457
saa(lp458
Vof
p459
a(dp460
VNamedEntityTag
p461
g83
sVCharacterOffsetEnd
p462
V104
p463
sVCharacterOffsetBegin
p464
V102
p465
sVPartOfSpeech
p466
VIN
p467
sVLemma
p468
Vof
p469
saa(lp470
Vthem
p471
a(dp472
VNamedEntityTag
p473
g83
sVCharacterOffsetEnd
p474
V109
p475
sVCharacterOffsetBegin
p476
V105
p477
sVPartOfSpeech
p478
VPRP
p479
sVLemma
p480
Vthey
p481
saa(lp482
g388
a(dp483
VNamedEntityTag
p484
g83
sVCharacterOffsetEnd
p485
V111
p486
sVCharacterOffsetBegin
p487
V110
p488
sVPartOfSpeech
p489
g388
sVLemma
p490
g388
saa(lp491
Vhow
p492
a(dp493
VNamedEntityTag
p494
g83
sVCharacterOffsetEnd
p495
V115
p496
sVCharacterOffsetBegin
p497
V112
p498
sVPartOfSpeech
p499
VWRB
p500
sVLemma
p501
Vhow
p502
saa(lp503
Vmany
p504
a(dp505
VNamedEntityTag
p506
g83
sVCharacterOffsetEnd
p507
V120
p508
sVCharacterOffsetBegin
p509
V116
p510
sVPartOfSpeech
p511
VJJ
p512
sVLemma
p513
Vmany
p514
saa(lp515
Vpoints
p516
a(dp517
VNamedEntityTag
p518
g83
sVCharacterOffsetEnd
p519
V127
p520
sVCharacterOffsetBegin
p521
V121
p522
sVPartOfSpeech
p523
VNNS
p524
sVLemma
p525
Vpoint
p526
saa(lp527
Vwould
p528
a(dp529
VNamedEntityTag
p530
g83
sVCharacterOffsetEnd
p531
V133
p532
sVCharacterOffsetBegin
p533
V128
p534
sVPartOfSpeech
p535
VMD
p536
sVLemma
p537
Vwould
p538
saa(lp539
Vshe
p540
a(dp541
VNamedEntityTag
p542
g83
sVCharacterOffsetEnd
p543
V137
p544
sVCharacterOffsetBegin
p545
V134
p546
sVPartOfSpeech
p547
VPRP
p548
sVLemma
p549
Vshe
p550
saa(lp551
Vhave
p552
a(dp553
VNamedEntityTag
p554
g83
sVCharacterOffsetEnd
p555
V142
p556
sVCharacterOffsetBegin
p557
V138
p558
sVPartOfSpeech
p559
VVB
p560
sVLemma
p561
Vhave
p562
saa(lp563
Vearned
p564
a(dp565
VNamedEntityTag
p566
g83
sVCharacterOffsetEnd
p567
V149
p568
sVCharacterOffsetBegin
p569
V143
p570
sVPartOfSpeech
p571
VVBN
p572
sVLemma
p573
Vearn
p574
saa(lp575
V?
p576
a(dp577
VNamedEntityTag
p578
g83
sVCharacterOffsetEnd
p579
V151
p580
sVCharacterOffsetBegin
p581
V150
p582
sVPartOfSpeech
p583
g202
sVLemma
p584
g576
saasVindexeddependencies
p585
(lp586
(lp587
Vroot
p588
aVROOT-0
p589
aVearned-21
p590
aa(lp591
Vmark
p592
aVhad-3
p593
aVIf-1
p594
aa(lp595
Vnsubj
p596
aVhad-3
p597
aVshe-2
p598
aa(lp599
Vadvcl
p600
aVearned-21
p601
aVhad-3
p602
aa(lp603
Vnum
p604
aVbags-5
p605
aV17-4
p606
aa(lp607
Vdobj
p608
aVhad-3
p609
aVbags-5
p610
aa(lp611
Vaux
p612
aVrecycle-10
p613
aVdid-8
p614
aa(lp615
Vneg
p616
aVrecycle-10
p617
aVn't-9
p618
aa(lp619
Vconj_but
p620
aVhad-3
p621
aVrecycle-10
p622
aa(lp623
Vdobj
p624
aVrecycle-10
p625
aV8-11
p626
aa(lp627
Vprep_of
p628
aV8-11
p629
aVthem-13
p630
aa(lp631
Vadvmod
p632
aVmany-16
p633
aVhow-15
p634
aa(lp635
Vamod
p636
aVpoints-17
p637
aVmany-16
p638
aa(lp639
Vdobj
p640
aVearned-21
p641
aVpoints-17
p642
aa(lp643
Vaux
p644
aVearned-21
p645
aVwould-18
p646
aa(lp647
Vnsubj
p648
aVearned-21
p649
aVshe-19
p650
aa(lp651
Vaux
p652
aVearned-21
p653
aVhave-20
p654
aasas.