(dp0
Vcoref
p1
(lp2
(lp3
(lp4
(lp5
VHe
p6
aI1
aI0
aI0
aI1
aa(lp7
VA chef
p8
aI0
aI1
aI0
aI2
aaa(lp9
(lp10
Vhim
p11
aI2
aI14
aI14
aI15
aa(lp12
VA chef
p13
aI0
aI1
aI0
aI2
aaaa(lp14
(lp15
(lp16
Vit
p17
aI2
aI12
aI12
aI13
aa(lp18
Veach potato
p19
aI2
aI2
aI1
aI3
aaaasVsentences
p20
(lp21
(dp22
Vparsetree
p23
V(ROOT (S (NP (DT A) (NN chef)) (VP (VBZ needs) (S (VP (TO to) (VP (VB cook) (NP (CD 15) (NNS potatoes)))))) (. .)))
p24
sVtext
p25
VA chef needs to cook 15 potatoes .
p26
sVdependencies
p27
(lp28
(lp29
Vroot
p30
aVROOT
p31
aVneeds
p32
aa(lp33
Vdet
p34
aVchef
p35
aVA
p36
aa(lp37
Vnsubj
p38
aVneeds
p39
aVchef
p40
aa(lp41
Vaux
p42
aVcook
p43
aVto
p44
aa(lp45
Vxcomp
p46
aVneeds
p47
aVcook
p48
aa(lp49
Vnum
p50
aVpotatoes
p51
aV15
p52
aa(lp53
Vdobj
p54
aVcook
p55
aVpotatoes
p56
aasVwords
p57
(lp58
(lp59
g36
a(dp60
VNamedEntityTag
p61
VO
p62
sVCharacterOffsetEnd
p63
V2
p64
sVCharacterOffsetBegin
p65
V1
p66
sVPartOfSpeech
p67
VDT
p68
sVLemma
p69
Va
p70
saa(lp71
Vchef
p72
a(dp73
VNamedEntityTag
p74
g62
sVCharacterOffsetEnd
p75
V7
p76
sVCharacterOffsetBegin
p77
V3
p78
sVPartOfSpeech
p79
VNN
p80
sVLemma
p81
Vchef
p82
saa(lp83
Vneeds
p84
a(dp85
VNamedEntityTag
p86
g62
sVCharacterOffsetEnd
p87
V13
p88
sVCharacterOffsetBegin
p89
V8
p90
sVPartOfSpeech
p91
VVBZ
p92
sVLemma
p93
Vneed
p94
saa(lp95
Vto
p96
a(dp97
VNamedEntityTag
p98
g62
sVCharacterOffsetEnd
p99
V16
p100
sVCharacterOffsetBegin
p101
V14
p102
sVPartOfSpeech
p103
VTO
p104
sVLemma
p105
Vto
p106
saa(lp107
Vcook
p108
a(dp109
VNamedEntityTag
p110
g62
sVCharacterOffsetEnd
p111
V21
p112
sVCharacterOffsetBegin
p113
V17
p114
sVPartOfSpeech
p115
VVB
p116
sVLemma
p117
Vcook
p118
saa(lp119
V15
p120
a(dp121
VNormalizedNamedEntityTag
p122
V15.0
p123
sVLemma
p124
V15
p125
sVCharacterOffsetEnd
p126
V24
p127
sVPartOfSpeech
p128
VCD
p129
sVCharacterOffsetBegin
p130
V22
p131
sVNamedEntityTag
p132
VNUMBER
p133
saa(lp134
Vpotatoes
p135
a(dp136
VNamedEntityTag
p137
g62
sVCharacterOffsetEnd
p138
V33
p139
sVCharacterOffsetBegin
p140
V25
p141
sVPartOfSpeech
p142
VNNS
p143
sVLemma
p144
Vpotato
p145
saa(lp146
V.
p147
a(dp148
VNamedEntityTag
p149
g62
sVCharacterOffsetEnd
p150
V35
p151
sVCharacterOffsetBegin
p152
V34
p153
sVPartOfSpeech
p154
g147
sVLemma
p155
g147
saasVindexeddependencies
p156
(lp157
(lp158
Vroot
p159
aVROOT-0
p160
aVneeds-3
p161
aa(lp162
Vdet
p163
aVchef-2
p164
aVA-1
p165
aa(lp166
Vnsubj
p167
aVneeds-3
p168
aVchef-2
p169
aa(lp170
Vaux
p171
aVcook-5
p172
aVto-4
p173
aa(lp174
Vxcomp
p175
aVneeds-3
p176
aVcook-5
p177
aa(lp178
Vnum
p179
aVpotatoes-7
p180
aV15-6
p181
aa(lp182
Vdobj
p183
aVcook-5
p184
aVpotatoes-7
p185
aasa(dp186
Vparsetree
p187
V(ROOT (S (NP (PRP He)) (VP (VBZ has) (ADVP (RB already)) (VP (VBN cooked) (NP (CD 6)))) (. .)))
p188
sVtext
p189
VHe has already cooked 6 .
p190
sVdependencies
p191
(lp192
(lp193
Vroot
p194
aVROOT
p195
aVcooked
p196
aa(lp197
Vnsubj
p198
aVcooked
p199
aVHe
p200
aa(lp201
Vaux
p202
aVcooked
p203
aVhas
p204
aa(lp205
Vadvmod
p206
aVcooked
p207
aValready
p208
aa(lp209
Vdobj
p210
aVcooked
p211
aV6
p212
aasVwords
p213
(lp214
(lp215
VHe
p216
a(dp217
VNamedEntityTag
p218
g62
sVCharacterOffsetEnd
p219
V38
p220
sVCharacterOffsetBegin
p221
V36
p222
sVPartOfSpeech
p223
VPRP
p224
sVLemma
p225
Vhe
p226
saa(lp227
Vhas
p228
a(dp229
VNamedEntityTag
p230
g62
sVCharacterOffsetEnd
p231
V42
p232
sVCharacterOffsetBegin
p233
V39
p234
sVPartOfSpeech
p235
VVBZ
p236
sVLemma
p237
Vhave
p238
saa(lp239
Valready
p240
a(dp241
VNamedEntityTag
p242
g62
sVCharacterOffsetEnd
p243
V50
p244
sVCharacterOffsetBegin
p245
V43
p246
sVPartOfSpeech
p247
VRB
p248
sVLemma
p249
Valready
p250
saa(lp251
Vcooked
p252
a(dp253
VNamedEntityTag
p254
g62
sVCharacterOffsetEnd
p255
V57
p256
sVCharacterOffsetBegin
p257
V51
p258
sVPartOfSpeech
p259
VVBN
p260
sVLemma
p261
Vcook
p262
saa(lp263
g212
a(dp264
VNormalizedNamedEntityTag
p265
V6.0
p266
sVLemma
p267
g212
sVCharacterOffsetEnd
p268
V59
p269
sVPartOfSpeech
p270
VCD
p271
sVCharacterOffsetBegin
p272
V58
p273
sVNamedEntityTag
p274
VNUMBER
p275
saa(lp276
g147
a(dp277
VNamedEntityTag
p278
g62
sVCharacterOffsetEnd
p279
V61
p280
sVCharacterOffsetBegin
p281
V60
p282
sVPartOfSpeech
p283
g147
sVLemma
p284
g147
saasVindexeddependencies
p285
(lp286
(lp287
Vroot
p288
aVROOT-0
p289
aVcooked-4
p290
aa(lp291
Vnsubj
p292
aVcooked-4
p293
aVHe-1
p294
aa(lp295
Vaux
p296
aVcooked-4
p297
aVhas-2
p298
aa(lp299
Vadvmod
p300
aVcooked-4
p301
aValready-3
p302
aa(lp303
Vdobj
p304
aVcooked-4
p305
aV6-5
p306
aasa(dp307
Vparsetree
p308
V(ROOT (SBARQ (SBAR (IN If) (S (NP (DT each) (NN potato)) (VP (VBZ takes) (NP (CD 8) (NNS minutes)) (S (VP (TO to) (VP (VB cook))))))) (, ,) (WHNP (WRB how) (RB long)) (SQ (MD will) (NP (PRP it)) (VP (VB take) (S (NP (PRP him)) (VP (TO to) (VP (VB cook) (NP (DT the) (NN rest))))))) (. ?)))
p309
sVtext
p310
VIf each potato takes 8 minutes to cook , how long will it take him to cook the rest ?
p311
sVdependencies
p312
(lp313
(lp314
Vroot
p315
aVROOT
p316
aVtake
p317
aa(lp318
Vmark
p319
aVtakes
p320
aVIf
p321
aa(lp322
Vdet
p323
aVpotato
p324
aVeach
p325
aa(lp326
Vnsubj
p327
aVtakes
p328
aVpotato
p329
aa(lp330
Vadvcl
p331
aVtake
p332
aVtakes
p333
aa(lp334
Vnum
p335
aVminutes
p336
ag90
aa(lp337
Vdobj
p338
aVtakes
p339
aVminutes
p340
aa(lp341
Vaux
p342
aVcook
p343
aVto
p344
aa(lp345
Vvmod
p346
aVtakes
p347
aVcook
p348
aa(lp349
Vadvmod
p350
aVlong
p351
aVhow
p352
aa(lp353
Vdep
p354
aVtake
p355
aVlong
p356
aa(lp357
Vaux
p358
aVtake
p359
aVwill
p360
aa(lp361
Vnsubj
p362
aVtake
p363
aVit
p364
aa(lp365
Vdobj
p366
aVtake
p367
aVhim
p368
aa(lp369
Vaux
p370
aVcook
p371
aVto
p372
aa(lp373
Vxcomp
p374
aVtake
p375
aVcook
p376
aa(lp377
Vdet
p378
aVrest
p379
aVthe
p380
aa(lp381
Vdobj
p382
aVcook
p383
aVrest
p384
aasVwords
p385
(lp386
(lp387
VIf
p388
a(dp389
VNamedEntityTag
p390
g62
sVCharacterOffsetEnd
p391
V64
p392
sVCharacterOffsetBegin
p393
V62
p394
sVPartOfSpeech
p395
VIN
p396
sVLemma
p397
Vif
p398
saa(lp399
Veach
p400
a(dp401
VNamedEntityTag
p402
g62
sVCharacterOffsetEnd
p403
V69
p404
sVCharacterOffsetBegin
p405
V65
p406
sVPartOfSpeech
p407
VDT
p408
sVLemma
p409
Veach
p410
saa(lp411
Vpotato
p412
a(dp413
VNamedEntityTag
p414
g62
sVCharacterOffsetEnd
p415
V76
p416
sVCharacterOffsetBegin
p417
V70
p418
sVPartOfSpeech
p419
VNN
p420
sVLemma
p421
Vpotato
p422
saa(lp423
Vtakes
p424
a(dp425
VNamedEntityTag
p426
g62
sVCharacterOffsetEnd
p427
V82
p428
sVCharacterOffsetBegin
p429
V77
p430
sVPartOfSpeech
p431
VVBZ
p432
sVLemma
p433
Vtake
p434
saa(lp435
g90
a(dp436
VNormalizedNamedEntityTag
p437
VPT8M
p438
sVTimex
p439
V<TIMEX3 tid="t1" type="DURATION" value="PT8M">8 minutes</TIMEX3>
p440
sVLemma
p441
g90
sVCharacterOffsetEnd
p442
V84
p443
sVPartOfSpeech
p444
VCD
p445
sVCharacterOffsetBegin
p446
V83
p447
sVNamedEntityTag
p448
VDURATION
p449
saa(lp450
Vminutes
p451
a(dp452
VNormalizedNamedEntityTag
p453
VPT8M
p454
sVTimex
p455
V<TIMEX3 tid="t1" type="DURATION" value="PT8M">8 minutes</TIMEX3>
p456
sVLemma
p457
Vminute
p458
sVCharacterOffsetEnd
p459
V92
p460
sVPartOfSpeech
p461
VNNS
p462
sVCharacterOffsetBegin
p463
V85
p464
sVNamedEntityTag
p465
VDURATION
p466
saa(lp467
Vto
p468
a(dp469
VNamedEntityTag
p470
g62
sVCharacterOffsetEnd
p471
V95
p472
sVCharacterOffsetBegin
p473
V93
p474
sVPartOfSpeech
p475
VTO
p476
sVLemma
p477
Vto
p478
saa(lp479
Vcook
p480
a(dp481
VNamedEntityTag
p482
g62
sVCharacterOffsetEnd
p483
V100
p484
sVCharacterOffsetBegin
p485
V96
p486
sVPartOfSpeech
p487
VVB
p488
sVLemma
p489
Vcook
p490
saa(lp491
V,
p492
a(dp493
VNamedEntityTag
p494
g62
sVCharacterOffsetEnd
p495
V102
p496
sVCharacterOffsetBegin
p497
V101
p498
sVPartOfSpeech
p499
g492
sVLemma
p500
g492
saa(lp501
Vhow
p502
a(dp503
VNamedEntityTag
p504
g62
sVCharacterOffsetEnd
p505
V106
p506
sVCharacterOffsetBegin
p507
V103
p508
sVPartOfSpeech
p509
VWRB
p510
sVLemma
p511
Vhow
p512
saa(lp513
Vlong
p514
a(dp515
VNamedEntityTag
p516
g62
sVCharacterOffsetEnd
p517
V111
p518
sVCharacterOffsetBegin
p519
V107
p520
sVPartOfSpeech
p521
VRB
p522
sVLemma
p523
Vlong
p524
saa(lp525
Vwill
p526
a(dp527
VNamedEntityTag
p528
g62
sVCharacterOffsetEnd
p529
V116
p530
sVCharacterOffsetBegin
p531
V112
p532
sVPartOfSpeech
p533
VMD
p534
sVLemma
p535
Vwill
p536
saa(lp537
Vit
p538
a(dp539
VNamedEntityTag
p540
g62
sVCharacterOffsetEnd
p541
V119
p542
sVCharacterOffsetBegin
p543
V117
p544
sVPartOfSpeech
p545
VPRP
p546
sVLemma
p547
Vit
p548
saa(lp549
Vtake
p550
a(dp551
VNamedEntityTag
p552
g62
sVCharacterOffsetEnd
p553
V124
p554
sVCharacterOffsetBegin
p555
V120
p556
sVPartOfSpeech
p557
VVB
p558
sVLemma
p559
Vtake
p560
saa(lp561
Vhim
p562
a(dp563
VNamedEntityTag
p564
g62
sVCharacterOffsetEnd
p565
V128
p566
sVCharacterOffsetBegin
p567
V125
p568
sVPartOfSpeech
p569
VPRP
p570
sVLemma
p571
Vhe
p572
saa(lp573
Vto
p574
a(dp575
VNamedEntityTag
p576
g62
sVCharacterOffsetEnd
p577
V131
p578
sVCharacterOffsetBegin
p579
V129
p580
sVPartOfSpeech
p581
VTO
p582
sVLemma
p583
Vto
p584
saa(lp585
Vcook
p586
a(dp587
VNamedEntityTag
p588
g62
sVCharacterOffsetEnd
p589
V136
p590
sVCharacterOffsetBegin
p591
V132
p592
sVPartOfSpeech
p593
VVB
p594
sVLemma
p595
Vcook
p596
saa(lp597
Vthe
p598
a(dp599
VNamedEntityTag
p600
g62
sVCharacterOffsetEnd
p601
V140
p602
sVCharacterOffsetBegin
p603
V137
p604
sVPartOfSpeech
p605
VDT
p606
sVLemma
p607
Vthe
p608
saa(lp609
Vrest
p610
a(dp611
VNamedEntityTag
p612
g62
sVCharacterOffsetEnd
p613
V145
p614
sVCharacterOffsetBegin
p615
V141
p616
sVPartOfSpeech
p617
VNN
p618
sVLemma
p619
Vrest
p620
saa(lp621
V?
p622
a(dp623
VNamedEntityTag
p624
g62
sVCharacterOffsetEnd
p625
V147
p626
sVCharacterOffsetBegin
p627
V146
p628
sVPartOfSpeech
p629
g147
sVLemma
p630
g622
saasVindexeddependencies
p631
(lp632
(lp633
Vroot
p634
aVROOT-0
p635
aVtake-14
p636
aa(lp637
Vmark
p638
aVtakes-4
p639
aVIf-1
p640
aa(lp641
Vdet
p642
aVpotato-3
p643
aVeach-2
p644
aa(lp645
Vnsubj
p646
aVtakes-4
p647
aVpotato-3
p648
aa(lp649
Vadvcl
p650
aVtake-14
p651
aVtakes-4
p652
aa(lp653
Vnum
p654
aVminutes-6
p655
aV8-5
p656
aa(lp657
Vdobj
p658
aVtakes-4
p659
aVminutes-6
p660
aa(lp661
Vaux
p662
aVcook-8
p663
aVto-7
p664
aa(lp665
Vvmod
p666
aVtakes-4
p667
aVcook-8
p668
aa(lp669
Vadvmod
p670
aVlong-11
p671
aVhow-10
p672
aa(lp673
Vdep
p674
aVtake-14
p675
aVlong-11
p676
aa(lp677
Vaux
p678
aVtake-14
p679
aVwill-12
p680
aa(lp681
Vnsubj
p682
aVtake-14
p683
aVit-13
p684
aa(lp685
Vdobj
p686
aVtake-14
p687
aVhim-15
p688
aa(lp689
Vaux
p690
aVcook-17
p691
aVto-16
p692
aa(lp693
Vxcomp
p694
aVtake-14
p695
aVcook-17
p696
aa(lp697
Vdet
p698
aVrest-19
p699
aVthe-18
p700
aa(lp701
Vdobj
p702
aVcook-17
p703
aVrest-19
p704
aasas.