(dp0
Vcoref
p1
(lp2
(lp3
(lp4
(lp5
Vthem
p6
aI1
aI14
aI14
aI15
aa(lp7
V7 enemies total
p8
aI1
aI5
aI4
aI7
aaaasVsentences
p9
(lp10
(dp11
Vparsetree
p12
V(ROOT (S (PP (IN In) (NP (DT a) (NN video) (NN game))) (, ,) (NP (DT each) (NN enemy)) (VP (VBD defeated) (SBAR (S (VP (VBZ gives) (NP (PRP you)) (NP (CD 8) (NNS points)))))) (. .)))
p13
sVtext
p14
VIn a video game , each enemy defeated gives you 8 points .
p15
sVdependencies
p16
(lp17
(lp18
Vroot
p19
aVROOT
p20
aVdefeated
p21
aa(lp22
Vdet
p23
aVgame
p24
aVa
p25
aa(lp26
Vnn
p27
aVgame
p28
aVvideo
p29
aa(lp30
Vprep_in
p31
aVdefeated
p32
aVgame
p33
aa(lp34
Vdet
p35
aVenemy
p36
aVeach
p37
aa(lp38
Vnsubj
p39
aVdefeated
p40
aVenemy
p41
aa(lp42
Vccomp
p43
aVdefeated
p44
aVgives
p45
aa(lp46
Viobj
p47
aVgives
p48
aVyou
p49
aa(lp50
Vnum
p51
aVpoints
p52
aV8
p53
aa(lp54
Vdobj
p55
aVgives
p56
aVpoints
p57
aasVwords
p58
(lp59
(lp60
VIn
p61
a(dp62
VNamedEntityTag
p63
VO
p64
sVCharacterOffsetEnd
p65
V3
p66
sVCharacterOffsetBegin
p67
V1
p68
sVPartOfSpeech
p69
VIN
p70
sVLemma
p71
Vin
p72
saa(lp73
g25
a(dp74
VNamedEntityTag
p75
g64
sVCharacterOffsetEnd
p76
V5
p77
sVCharacterOffsetBegin
p78
V4
p79
sVPartOfSpeech
p80
VDT
p81
sVLemma
p82
g25
saa(lp83
Vvideo
p84
a(dp85
VNamedEntityTag
p86
g64
sVCharacterOffsetEnd
p87
V11
p88
sVCharacterOffsetBegin
p89
V6
p90
sVPartOfSpeech
p91
VNN
p92
sVLemma
p93
Vvideo
p94
saa(lp95
Vgame
p96
a(dp97
VNamedEntityTag
p98
g64
sVCharacterOffsetEnd
p99
V16
p100
sVCharacterOffsetBegin
p101
V12
p102
sVPartOfSpeech
p103
VNN
p104
sVLemma
p105
Vgame
p106
saa(lp107
V,
p108
a(dp109
VNamedEntityTag
p110
g64
sVCharacterOffsetEnd
p111
V18
p112
sVCharacterOffsetBegin
p113
V17
p114
sVPartOfSpeech
p115
g108
sVLemma
p116
g108
saa(lp117
Veach
p118
a(dp119
VNamedEntityTag
p120
g64
sVCharacterOffsetEnd
p121
V23
p122
sVCharacterOffsetBegin
p123
V19
p124
sVPartOfSpeech
p125
VDT
p126
sVLemma
p127
Veach
p128
saa(lp129
Venemy
p130
a(dp131
VNamedEntityTag
p132
g64
sVCharacterOffsetEnd
p133
V29
p134
sVCharacterOffsetBegin
p135
V24
p136
sVPartOfSpeech
p137
VNN
p138
sVLemma
p139
Venemy
p140
saa(lp141
Vdefeated
p142
a(dp143
VNamedEntityTag
p144
g64
sVCharacterOffsetEnd
p145
V38
p146
sVCharacterOffsetBegin
p147
V30
p148
sVPartOfSpeech
p149
VVBD
p150
sVLemma
p151
Vdefeat
p152
saa(lp153
Vgives
p154
a(dp155
VNamedEntityTag
p156
g64
sVCharacterOffsetEnd
p157
V44
p158
sVCharacterOffsetBegin
p159
V39
p160
sVPartOfSpeech
p161
VVBZ
p162
sVLemma
p163
Vgive
p164
saa(lp165
Vyou
p166
a(dp167
VNamedEntityTag
p168
g64
sVCharacterOffsetEnd
p169
V48
p170
sVCharacterOffsetBegin
p171
V45
p172
sVPartOfSpeech
p173
VPRP
p174
sVLemma
p175
Vyou
p176
saa(lp177
g53
a(dp178
VNormalizedNamedEntityTag
p179
V8.0
p180
sVLemma
p181
g53
sVCharacterOffsetEnd
p182
V50
p183
sVPartOfSpeech
p184
VCD
p185
sVCharacterOffsetBegin
p186
V49
p187
sVNamedEntityTag
p188
VNUMBER
p189
saa(lp190
Vpoints
p191
a(dp192
VNamedEntityTag
p193
g64
sVCharacterOffsetEnd
p194
V57
p195
sVCharacterOffsetBegin
p196
V51
p197
sVPartOfSpeech
p198
VNNS
p199
sVLemma
p200
Vpoint
p201
saa(lp202
V.
p203
a(dp204
VNamedEntityTag
p205
g64
sVCharacterOffsetEnd
p206
V59
p207
sVCharacterOffsetBegin
p208
V58
p209
sVPartOfSpeech
p210
g203
sVLemma
p211
g203
saasVindexeddependencies
p212
(lp213
(lp214
Vroot
p215
aVROOT-0
p216
aVdefeated-8
p217
aa(lp218
Vdet
p219
aVgame-4
p220
aVa-2
p221
aa(lp222
Vnn
p223
aVgame-4
p224
aVvideo-3
p225
aa(lp226
Vprep_in
p227
aVdefeated-8
p228
aVgame-4
p229
aa(lp230
Vdet
p231
aVenemy-7
p232
aVeach-6
p233
aa(lp234
Vnsubj
p235
aVdefeated-8
p236
aVenemy-7
p237
aa(lp238
Vccomp
p239
aVdefeated-8
p240
aVgives-9
p241
aa(lp242
Viobj
p243
aVgives-9
p244
aVyou-10
p245
aa(lp246
Vnum
p247
aVpoints-12
p248
aV8-11
p249
aa(lp250
Vdobj
p251
aVgives-9
p252
aVpoints-12
p253
aasa(dp254
Vparsetree
p255
V(ROOT (SBARQ (SBAR (IN If) (S (S (NP (DT a) (NN level)) (VP (VBZ has) (NP (NP (CD 7) (NNS enemies)) (JJ total)))) (CC and) (S (NP (PRP you)) (VP (VBP destroy) (NP (NP (QP (DT all) (CC but) (CD 2))) (PP (IN of) (NP (PRP them)))))))) (, ,) (WHNP (WHADJP (WRB how) (JJ many)) (NNS points)) (SQ (MD would) (NP (PRP you)) (VP (VB earn))) (. ?)))
p256
sVtext
p257
VIf a level has 7 enemies total and you destroy all but 2 of them , how many points would you earn ?
p258
sVdependencies
p259
(lp260
(lp261
Vroot
p262
aVROOT
p263
aVearn
p264
aa(lp265
Vmark
p266
aVhas
p267
aVIf
p268
aa(lp269
Vdet
p270
aVlevel
p271
ag25
aa(lp272
Vnsubj
p273
aVhas
p274
aVlevel
p275
aa(lp276
Vadvcl
p277
aVearn
p278
aVhas
p279
aa(lp280
Vnum
p281
aVenemies
p282
aV7
p283
aa(lp284
Vdobj
p285
aVhas
p286
aVenemies
p287
aa(lp288
Vamod
p289
aVenemies
p290
aVtotal
p291
aa(lp292
Vnsubj
p293
aVdestroy
p294
aVyou
p295
aa(lp296
Vconj_and
p297
aVhas
p298
aVdestroy
p299
aa(lp300
Vdobj
p301
aVdestroy
p302
aVall
p303
aa(lp304
Vconj_but
p305
aVall
p306
aV2
p307
aa(lp308
Vprep_of
p309
aVall
p310
aVthem
p311
aa(lp312
Vadvmod
p313
aVmany
p314
aVhow
p315
aa(lp316
Vamod
p317
aVpoints
p318
aVmany
p319
aa(lp320
Vdobj
p321
aVearn
p322
aVpoints
p323
aa(lp324
Vaux
p325
aVearn
p326
aVwould
p327
aa(lp328
Vnsubj
p329
aVearn
p330
aVyou
p331
aasVwords
p332
(lp333
(lp334
VIf
p335
a(dp336
VNamedEntityTag
p337
g64
sVCharacterOffsetEnd
p338
V62
p339
sVCharacterOffsetBegin
p340
V60
p341
sVPartOfSpeech
p342
VIN
p343
sVLemma
p344
Vif
p345
saa(lp346
g25
a(dp347
VNamedEntityTag
p348
g64
sVCharacterOffsetEnd
p349
V64
p350
sVCharacterOffsetBegin
p351
V63
p352
sVPartOfSpeech
p353
VDT
p354
sVLemma
p355
g25
saa(lp356
Vlevel
p357
a(dp358
VNamedEntityTag
p359
g64
sVCharacterOffsetEnd
p360
V70
p361
sVCharacterOffsetBegin
p362
V65
p363
sVPartOfSpeech
p364
VNN
p365
sVLemma
p366
Vlevel
p367
saa(lp368
Vhas
p369
a(dp370
VNamedEntityTag
p371
g64
sVCharacterOffsetEnd
p372
V74
p373
sVCharacterOffsetBegin
p374
V71
p375
sVPartOfSpeech
p376
VVBZ
p377
sVLemma
p378
Vhave
p379
saa(lp380
g283
a(dp381
VNormalizedNamedEntityTag
p382
V7.0
p383
sVLemma
p384
g283
sVCharacterOffsetEnd
p385
V76
p386
sVPartOfSpeech
p387
VCD
p388
sVCharacterOffsetBegin
p389
V75
p390
sVNamedEntityTag
p391
VNUMBER
p392
saa(lp393
Venemies
p394
a(dp395
VNamedEntityTag
p396
g64
sVCharacterOffsetEnd
p397
V84
p398
sVCharacterOffsetBegin
p399
V77
p400
sVPartOfSpeech
p401
VNNS
p402
sVLemma
p403
Venemy
p404
saa(lp405
Vtotal
p406
a(dp407
VNamedEntityTag
p408
g64
sVCharacterOffsetEnd
p409
V90
p410
sVCharacterOffsetBegin
p411
V85
p412
sVPartOfSpeech
p413
VJJ
p414
sVLemma
p415
Vtotal
p416
saa(lp417
Vand
p418
a(dp419
VNamedEntityTag
p420
g64
sVCharacterOffsetEnd
p421
V94
p422
sVCharacterOffsetBegin
p423
V91
p424
sVPartOfSpeech
p425
VCC
p426
sVLemma
p427
Vand
p428
saa(lp429
Vyou
p430
a(dp431
VNamedEntityTag
p432
g64
sVCharacterOffsetEnd
p433
V98
p434
sVCharacterOffsetBegin
p435
V95
p436
sVPartOfSpeech
p437
VPRP
p438
sVLemma
p439
Vyou
p440
saa(lp441
Vdestroy
p442
a(dp443
VNamedEntityTag
p444
g64
sVCharacterOffsetEnd
p445
V106
p446
sVCharacterOffsetBegin
p447
V99
p448
sVPartOfSpeech
p449
VVBP
p450
sVLemma
p451
Vdestroy
p452
saa(lp453
Vall
p454
a(dp455
VNamedEntityTag
p456
g64
sVCharacterOffsetEnd
p457
V110
p458
sVCharacterOffsetBegin
p459
V107
p460
sVPartOfSpeech
p461
VDT
p462
sVLemma
p463
Vall
p464
saa(lp465
Vbut
p466
a(dp467
VNamedEntityTag
p468
g64
sVCharacterOffsetEnd
p469
V114
p470
sVCharacterOffsetBegin
p471
V111
p472
sVPartOfSpeech
p473
VCC
p474
sVLemma
p475
Vbut
p476
saa(lp477
g307
a(dp478
VNormalizedNamedEntityTag
p479
V2.0
p480
sVLemma
p481
g307
sVCharacterOffsetEnd
p482
V116
p483
sVPartOfSpeech
p484
VCD
p485
sVCharacterOffsetBegin
p486
V115
p487
sVNamedEntityTag
p488
VNUMBER
p489
saa(lp490
Vof
p491
a(dp492
VNamedEntityTag
p493
g64
sVCharacterOffsetEnd
p494
V119
p495
sVCharacterOffsetBegin
p496
V117
p497
sVPartOfSpeech
p498
VIN
p499
sVLemma
p500
Vof
p501
saa(lp502
Vthem
p503
a(dp504
VNamedEntityTag
p505
g64
sVCharacterOffsetEnd
p506
V124
p507
sVCharacterOffsetBegin
p508
V120
p509
sVPartOfSpeech
p510
VPRP
p511
sVLemma
p512
Vthey
p513
saa(lp514
g108
a(dp515
VNamedEntityTag
p516
g64
sVCharacterOffsetEnd
p517
V126
p518
sVCharacterOffsetBegin
p519
V125
p520
sVPartOfSpeech
p521
g108
sVLemma
p522
g108
saa(lp523
Vhow
p524
a(dp525
VNamedEntityTag
p526
g64
sVCharacterOffsetEnd
p527
V130
p528
sVCharacterOffsetBegin
p529
V127
p530
sVPartOfSpeech
p531
VWRB
p532
sVLemma
p533
Vhow
p534
saa(lp535
Vmany
p536
a(dp537
VNamedEntityTag
p538
g64
sVCharacterOffsetEnd
p539
V135
p540
sVCharacterOffsetBegin
p541
V131
p542
sVPartOfSpeech
p543
VJJ
p544
sVLemma
p545
Vmany
p546
saa(lp547
Vpoints
p548
a(dp549
VNamedEntityTag
p550
g64
sVCharacterOffsetEnd
p551
V142
p552
sVCharacterOffsetBegin
p553
V136
p554
sVPartOfSpeech
p555
VNNS
p556
sVLemma
p557
Vpoint
p558
saa(lp559
Vwould
p560
a(dp561
VNamedEntityTag
p562
g64
sVCharacterOffsetEnd
p563
V148
p564
sVCharacterOffsetBegin
p565
V143
p566
sVPartOfSpeech
p567
VMD
p568
sVLemma
p569
Vwould
p570
saa(lp571
Vyou
p572
a(dp573
VNamedEntityTag
p574
g64
sVCharacterOffsetEnd
p575
V152
p576
sVCharacterOffsetBegin
p577
V149
p578
sVPartOfSpeech
p579
VPRP
p580
sVLemma
p581
Vyou
p582
saa(lp583
Vearn
p584
a(dp585
VNamedEntityTag
p586
g64
sVCharacterOffsetEnd
p587
V157
p588
sVCharacterOffsetBegin
p589
V153
p590
sVPartOfSpeech
p591
VVB
p592
sVLemma
p593
Vearn
p594
saa(lp595
V?
p596
a(dp597
VNamedEntityTag
p598
g64
sVCharacterOffsetEnd
p599
V159
p600
sVCharacterOffsetBegin
p601
V158
p602
sVPartOfSpeech
p603
g203
sVLemma
p604
g596
saasVindexeddependencies
p605
(lp606
(lp607
Vroot
p608
aVROOT-0
p609
aVearn-22
p610
aa(lp611
Vmark
p612
aVhas-4
p613
aVIf-1
p614
aa(lp615
Vdet
p616
aVlevel-3
p617
aVa-2
p618
aa(lp619
Vnsubj
p620
aVhas-4
p621
aVlevel-3
p622
aa(lp623
Vadvcl
p624
aVearn-22
p625
aVhas-4
p626
aa(lp627
Vnum
p628
aVenemies-6
p629
aV7-5
p630
aa(lp631
Vdobj
p632
aVhas-4
p633
aVenemies-6
p634
aa(lp635
Vamod
p636
aVenemies-6
p637
aVtotal-7
p638
aa(lp639
Vnsubj
p640
aVdestroy-10
p641
aVyou-9
p642
aa(lp643
Vconj_and
p644
aVhas-4
p645
aVdestroy-10
p646
aa(lp647
Vdobj
p648
aVdestroy-10
p649
aVall-11
p650
aa(lp651
Vconj_but
p652
aVall-11
p653
aV2-13
p654
aa(lp655
Vprep_of
p656
aVall-11
p657
aVthem-15
p658
aa(lp659
Vadvmod
p660
aVmany-18
p661
aVhow-17
p662
aa(lp663
Vamod
p664
aVpoints-19
p665
aVmany-18
p666
aa(lp667
Vdobj
p668
aVearn-22
p669
aVpoints-19
p670
aa(lp671
Vaux
p672
aVearn-22
p673
aVwould-20
p674
aa(lp675
Vnsubj
p676
aVearn-22
p677
aVyou-21
p678
aasas.