(dp0
Vcoref
p1
(lp2
(lp3
(lp4
(lp5
Vthe restaurant
p6
aI2
aI6
aI5
aI7
aa(lp7
VThe restaurant
p8
aI1
aI1
aI0
aI2
aaaasVsentences
p9
(lp10
(dp11
Vparsetree
p12
V(ROOT (NP (NP (NP (NNP Tommy) (POS 's)) (NNPS Burgers)) (NP (NP (NNS cooks)) (UCP (VP (ADVP (NP (NP (PRP$ its) (NNS burgers)) (ADVP (RB either))) (RB well)) (VBN done)) (CC or) (ADJP (NN medium)))) (. .)))
p13
sVtext
p14
VTommy's Burgers cooks its burgers either well done or medium .
p15
sVdependencies
p16
(lp17
(lp18
Vroot
p19
aVROOT
p20
aVBurgers
p21
aa(lp22
Vposs
p23
aVBurgers
p24
aVTommy
p25
aa(lp26
Vdep
p27
aVBurgers
p28
aVcooks
p29
aa(lp30
Vposs
p31
aVburgers
p32
aVits
p33
aa(lp34
Vnpadvmod
p35
aVwell
p36
aVburgers
p37
aa(lp38
Vadvmod
p39
aVburgers
p40
aVeither
p41
aa(lp42
Vadvmod
p43
aVdone
p44
aVwell
p45
aa(lp46
Vdep
p47
aVcooks
p48
aVdone
p49
aa(lp50
Vconj_or
p51
aVdone
p52
aVmedium
p53
aasVwords
p54
(lp55
(lp56
VTommy
p57
a(dp58
VNamedEntityTag
p59
VPERSON
p60
sVCharacterOffsetEnd
p61
V6
p62
sVCharacterOffsetBegin
p63
V1
p64
sVPartOfSpeech
p65
VNNP
p66
sVLemma
p67
VTommy
p68
saa(lp69
V's
p70
a(dp71
VNamedEntityTag
p72
VO
p73
sVCharacterOffsetEnd
p74
V8
p75
sVCharacterOffsetBegin
p76
g62
sVPartOfSpeech
p77
VPOS
p78
sVLemma
p79
V's
p80
saa(lp81
VBurgers
p82
a(dp83
VNamedEntityTag
p84
g73
sVCharacterOffsetEnd
p85
V16
p86
sVCharacterOffsetBegin
p87
V9
p88
sVPartOfSpeech
p89
VNNPS
p90
sVLemma
p91
VBurgers
p92
saa(lp93
Vcooks
p94
a(dp95
VNamedEntityTag
p96
g73
sVCharacterOffsetEnd
p97
V22
p98
sVCharacterOffsetBegin
p99
V17
p100
sVPartOfSpeech
p101
VNNS
p102
sVLemma
p103
Vcook
p104
saa(lp105
Vits
p106
a(dp107
VNamedEntityTag
p108
g73
sVCharacterOffsetEnd
p109
V26
p110
sVCharacterOffsetBegin
p111
V23
p112
sVPartOfSpeech
p113
VPRP$
p114
sVLemma
p115
Vits
p116
saa(lp117
Vburgers
p118
a(dp119
VNamedEntityTag
p120
g73
sVCharacterOffsetEnd
p121
V34
p122
sVCharacterOffsetBegin
p123
V27
p124
sVPartOfSpeech
p125
VNNS
p126
sVLemma
p127
Vburger
p128
saa(lp129
Veither
p130
a(dp131
VNamedEntityTag
p132
g73
sVCharacterOffsetEnd
p133
V41
p134
sVCharacterOffsetBegin
p135
V35
p136
sVPartOfSpeech
p137
VRB
p138
sVLemma
p139
Veither
p140
saa(lp141
Vwell
p142
a(dp143
VNamedEntityTag
p144
g73
sVCharacterOffsetEnd
p145
V46
p146
sVCharacterOffsetBegin
p147
V42
p148
sVPartOfSpeech
p149
VRB
p150
sVLemma
p151
Vwell
p152
saa(lp153
Vdone
p154
a(dp155
VNamedEntityTag
p156
g73
sVCharacterOffsetEnd
p157
V51
p158
sVCharacterOffsetBegin
p159
V47
p160
sVPartOfSpeech
p161
VVBN
p162
sVLemma
p163
Vdo
p164
saa(lp165
Vor
p166
a(dp167
VNamedEntityTag
p168
g73
sVCharacterOffsetEnd
p169
V54
p170
sVCharacterOffsetBegin
p171
V52
p172
sVPartOfSpeech
p173
VCC
p174
sVLemma
p175
Vor
p176
saa(lp177
Vmedium
p178
a(dp179
VNamedEntityTag
p180
g73
sVCharacterOffsetEnd
p181
V61
p182
sVCharacterOffsetBegin
p183
V55
p184
sVPartOfSpeech
p185
VNN
p186
sVLemma
p187
Vmedium
p188
saa(lp189
V.
p190
a(dp191
VNamedEntityTag
p192
g73
sVCharacterOffsetEnd
p193
V63
p194
sVCharacterOffsetBegin
p195
V62
p196
sVPartOfSpeech
p197
g190
sVLemma
p198
g190
saasVindexeddependencies
p199
(lp200
(lp201
Vroot
p202
aVROOT-0
p203
aVBurgers-3
p204
aa(lp205
Vposs
p206
aVBurgers-3
p207
aVTommy-1
p208
aa(lp209
Vdep
p210
aVBurgers-3
p211
aVcooks-4
p212
aa(lp213
Vposs
p214
aVburgers-6
p215
aVits-5
p216
aa(lp217
Vnpadvmod
p218
aVwell-8
p219
aVburgers-6
p220
aa(lp221
Vadvmod
p222
aVburgers-6
p223
aVeither-7
p224
aa(lp225
Vadvmod
p226
aVdone-9
p227
aVwell-8
p228
aa(lp229
Vdep
p230
aVcooks-4
p231
aVdone-9
p232
aa(lp233
Vconj_or
p234
aVdone-9
p235
aVmedium-11
p236
aasa(dp237
Vparsetree
p238
V(ROOT (S (NP (DT The) (NN restaurant)) (VP (VBD served) (NP (CD 28) (NNS burgers)) (NP-TMP (JJ last) (NN night)) (, ,) (PP (NP (CD 0.75) (NNS times)) (IN of) (SBAR (WHNP (WDT which)) (S (VP (VBD were) (VP (ADVP (RB well)) (VBN done))))))) (. .)))
p239
sVtext
p240
VThe restaurant served 28 burgers last night , 0.75 times of which were well done .
p241
sVdependencies
p242
(lp243
(lp244
Vroot
p245
aVROOT
p246
aVserved
p247
aa(lp248
Vdet
p249
aVrestaurant
p250
aVThe
p251
aa(lp252
Vnsubj
p253
aVserved
p254
aVrestaurant
p255
aa(lp256
Vnum
p257
aVburgers
p258
aV28
p259
aa(lp260
Vdobj
p261
aVserved
p262
aVburgers
p263
aa(lp264
Vamod
p265
aVnight
p266
aVlast
p267
aa(lp268
Vtmod
p269
aVserved
p270
aVnight
p271
aa(lp272
Vnum
p273
aVtimes
p274
aV0.75
p275
aa(lp276
Vnpadvmod
p277
aVserved
p278
aVtimes
p279
aa(lp280
Vnsubjpass
p281
aVdone
p282
aVwhich
p283
aa(lp284
Vauxpass
p285
aVdone
p286
aVwere
p287
aa(lp288
Vadvmod
p289
aVdone
p290
aVwell
p291
aa(lp292
Vprepc_of
p293
aVserved
p294
aVdone
p295
aasVwords
p296
(lp297
(lp298
VThe
p299
a(dp300
VNamedEntityTag
p301
g73
sVCharacterOffsetEnd
p302
V67
p303
sVCharacterOffsetBegin
p304
V64
p305
sVPartOfSpeech
p306
VDT
p307
sVLemma
p308
Vthe
p309
saa(lp310
Vrestaurant
p311
a(dp312
VNamedEntityTag
p313
g73
sVCharacterOffsetEnd
p314
V78
p315
sVCharacterOffsetBegin
p316
V68
p317
sVPartOfSpeech
p318
VNN
p319
sVLemma
p320
Vrestaurant
p321
saa(lp322
Vserved
p323
a(dp324
VNamedEntityTag
p325
g73
sVCharacterOffsetEnd
p326
V85
p327
sVCharacterOffsetBegin
p328
V79
p329
sVPartOfSpeech
p330
VVBD
p331
sVLemma
p332
Vserve
p333
saa(lp334
V28
p335
a(dp336
VNormalizedNamedEntityTag
p337
V28.0
p338
sVLemma
p339
V28
p340
sVCharacterOffsetEnd
p341
V88
p342
sVPartOfSpeech
p343
VCD
p344
sVCharacterOffsetBegin
p345
V86
p346
sVNamedEntityTag
p347
VNUMBER
p348
saa(lp349
Vburgers
p350
a(dp351
VNamedEntityTag
p352
g73
sVCharacterOffsetEnd
p353
V96
p354
sVCharacterOffsetBegin
p355
V89
p356
sVPartOfSpeech
p357
VNNS
p358
sVLemma
p359
Vburger
p360
saa(lp361
Vlast
p362
a(dp363
VNormalizedNamedEntityTag
p364
VTNI
p365
sVTimex
p366
V<TIMEX3 alt_value="TNI OFFSET P-1D" anchorTimeID="t2" temporalFunction="true" tid="t1" type="DATE" valueFromFunction="tf0">last night</TIMEX3>
p367
sVLemma
p368
Vlast
p369
sVCharacterOffsetEnd
p370
V101
p371
sVPartOfSpeech
p372
VJJ
p373
sVCharacterOffsetBegin
p374
V97
p375
sVNamedEntityTag
p376
VTIME
p377
saa(lp378
Vnight
p379
a(dp380
VNormalizedNamedEntityTag
p381
VTNI
p382
sVTimex
p383
V<TIMEX3 alt_value="TNI OFFSET P-1D" anchorTimeID="t2" temporalFunction="true" tid="t1" type="DATE" valueFromFunction="tf0">last night</TIMEX3>
p384
sVLemma
p385
Vnight
p386
sVCharacterOffsetEnd
p387
V107
p388
sVPartOfSpeech
p389
VNN
p390
sVCharacterOffsetBegin
p391
V102
p392
sVNamedEntityTag
p393
VTIME
p394
saa(lp395
V,
p396
a(dp397
VNamedEntityTag
p398
g73
sVCharacterOffsetEnd
p399
V109
p400
sVCharacterOffsetBegin
p401
V108
p402
sVPartOfSpeech
p403
g396
sVLemma
p404
g396
saa(lp405
V0.75
p406
a(dp407
VNormalizedNamedEntityTag
p408
V0.75
p409
sVLemma
p410
V0.75
p411
sVCharacterOffsetEnd
p412
V114
p413
sVPartOfSpeech
p414
VCD
p415
sVCharacterOffsetBegin
p416
V110
p417
sVNamedEntityTag
p418
VNUMBER
p419
saa(lp420
Vtimes
p421
a(dp422
VNamedEntityTag
p423
g73
sVCharacterOffsetEnd
p424
V120
p425
sVCharacterOffsetBegin
p426
V115
p427
sVPartOfSpeech
p428
VNNS
p429
sVLemma
p430
Vtime
p431
saa(lp432
Vof
p433
a(dp434
VNamedEntityTag
p435
g73
sVCharacterOffsetEnd
p436
V123
p437
sVCharacterOffsetBegin
p438
V121
p439
sVPartOfSpeech
p440
VIN
p441
sVLemma
p442
Vof
p443
saa(lp444
Vwhich
p445
a(dp446
VNamedEntityTag
p447
g73
sVCharacterOffsetEnd
p448
V129
p449
sVCharacterOffsetBegin
p450
V124
p451
sVPartOfSpeech
p452
VWDT
p453
sVLemma
p454
Vwhich
p455
saa(lp456
Vwere
p457
a(dp458
VNamedEntityTag
p459
g73
sVCharacterOffsetEnd
p460
V134
p461
sVCharacterOffsetBegin
p462
V130
p463
sVPartOfSpeech
p464
VVBD
p465
sVLemma
p466
Vbe
p467
saa(lp468
Vwell
p469
a(dp470
VNamedEntityTag
p471
g73
sVCharacterOffsetEnd
p472
V139
p473
sVCharacterOffsetBegin
p474
V135
p475
sVPartOfSpeech
p476
VRB
p477
sVLemma
p478
Vwell
p479
saa(lp480
Vdone
p481
a(dp482
VNamedEntityTag
p483
g73
sVCharacterOffsetEnd
p484
V144
p485
sVCharacterOffsetBegin
p486
V140
p487
sVPartOfSpeech
p488
VVBN
p489
sVLemma
p490
Vdo
p491
saa(lp492
g190
a(dp493
VNamedEntityTag
p494
g73
sVCharacterOffsetEnd
p495
V146
p496
sVCharacterOffsetBegin
p497
V145
p498
sVPartOfSpeech
p499
g190
sVLemma
p500
g190
saasVindexeddependencies
p501
(lp502
(lp503
Vroot
p504
aVROOT-0
p505
aVserved-3
p506
aa(lp507
Vdet
p508
aVrestaurant-2
p509
aVThe-1
p510
aa(lp511
Vnsubj
p512
aVserved-3
p513
aVrestaurant-2
p514
aa(lp515
Vnum
p516
aVburgers-5
p517
aV28-4
p518
aa(lp519
Vdobj
p520
aVserved-3
p521
aVburgers-5
p522
aa(lp523
Vamod
p524
aVnight-7
p525
aVlast-6
p526
aa(lp527
Vtmod
p528
aVserved-3
p529
aVnight-7
p530
aa(lp531
Vnum
p532
aVtimes-10
p533
aV0.75-9
p534
aa(lp535
Vnpadvmod
p536
aVserved-3
p537
aVtimes-10
p538
aa(lp539
Vnsubjpass
p540
aVdone-15
p541
aVwhich-12
p542
aa(lp543
Vauxpass
p544
aVdone-15
p545
aVwere-13
p546
aa(lp547
Vadvmod
p548
aVdone-15
p549
aVwell-14
p550
aa(lp551
Vprepc_of
p552
aVserved-3
p553
aVdone-15
p554
aasa(dp555
Vparsetree
p556
V(ROOT (SBARQ (WHNP (WHADJP (WRB How) (JJ many)) (ADJP (JJ well-done)) (NNS burgers)) (SQ (VBD did) (NP (DT the) (NN restaurant)) (VP (VB serve))) (. ?)))
p557
sVtext
p558
VHow many well-done burgers did the restaurant serve ?
p559
sVdependencies
p560
(lp561
(lp562
Vroot
p563
aVROOT
p564
aVserve
p565
aa(lp566
Vadvmod
p567
aVmany
p568
aVHow
p569
aa(lp570
Vamod
p571
aVburgers
p572
aVmany
p573
aa(lp574
Vamod
p575
aVburgers
p576
aVwell-done
p577
aa(lp578
Vdobj
p579
aVserve
p580
aVburgers
p581
aa(lp582
Vaux
p583
aVserve
p584
aVdid
p585
aa(lp586
Vdet
p587
aVrestaurant
p588
aVthe
p589
aa(lp590
Vnsubj
p591
aVserve
p592
aVrestaurant
p593
aasVwords
p594
(lp595
(lp596
VHow
p597
a(dp598
VNamedEntityTag
p599
g73
sVCharacterOffsetEnd
p600
V150
p601
sVCharacterOffsetBegin
p602
V147
p603
sVPartOfSpeech
p604
VWRB
p605
sVLemma
p606
Vhow
p607
saa(lp608
Vmany
p609
a(dp610
VNamedEntityTag
p611
g73
sVCharacterOffsetEnd
p612
V155
p613
sVCharacterOffsetBegin
p614
V151
p615
sVPartOfSpeech
p616
VJJ
p617
sVLemma
p618
Vmany
p619
saa(lp620
Vwell-done
p621
a(dp622
VNamedEntityTag
p623
g73
sVCharacterOffsetEnd
p624
V165
p625
sVCharacterOffsetBegin
p626
V156
p627
sVPartOfSpeech
p628
VJJ
p629
sVLemma
p630
Vwell-done
p631
saa(lp632
Vburgers
p633
a(dp634
VNamedEntityTag
p635
g73
sVCharacterOffsetEnd
p636
V173
p637
sVCharacterOffsetBegin
p638
V166
p639
sVPartOfSpeech
p640
VNNS
p641
sVLemma
p642
Vburger
p643
saa(lp644
Vdid
p645
a(dp646
VNamedEntityTag
p647
g73
sVCharacterOffsetEnd
p648
V177
p649
sVCharacterOffsetBegin
p650
V174
p651
sVPartOfSpeech
p652
VVBD
p653
sVLemma
p654
Vdo
p655
saa(lp656
Vthe
p657
a(dp658
VNamedEntityTag
p659
g73
sVCharacterOffsetEnd
p660
V181
p661
sVCharacterOffsetBegin
p662
V178
p663
sVPartOfSpeech
p664
VDT
p665
sVLemma
p666
Vthe
p667
saa(lp668
Vrestaurant
p669
a(dp670
VNamedEntityTag
p671
g73
sVCharacterOffsetEnd
p672
V192
p673
sVCharacterOffsetBegin
p674
V182
p675
sVPartOfSpeech
p676
VNN
p677
sVLemma
p678
Vrestaurant
p679
saa(lp680
Vserve
p681
a(dp682
VNamedEntityTag
p683
g73
sVCharacterOffsetEnd
p684
V198
p685
sVCharacterOffsetBegin
p686
V193
p687
sVPartOfSpeech
p688
VVB
p689
sVLemma
p690
Vserve
p691
saa(lp692
V?
p693
a(dp694
VNamedEntityTag
p695
g73
sVCharacterOffsetEnd
p696
V200
p697
sVCharacterOffsetBegin
p698
V199
p699
sVPartOfSpeech
p700
g190
sVLemma
p701
g693
saasVindexeddependencies
p702
(lp703
(lp704
Vroot
p705
aVROOT-0
p706
aVserve-8
p707
aa(lp708
Vadvmod
p709
aVmany-2
p710
aVHow-1
p711
aa(lp712
Vamod
p713
aVburgers-4
p714
aVmany-2
p715
aa(lp716
Vamod
p717
aVburgers-4
p718
aVwell-done-3
p719
aa(lp720
Vdobj
p721
aVserve-8
p722
aVburgers-4
p723
aa(lp724
Vaux
p725
aVserve-8
p726
aVdid-5
p727
aa(lp728
Vdet
p729
aVrestaurant-7
p730
aVthe-6
p731
aa(lp732
Vnsubj
p733
aVserve-8
p734
aVrestaurant-7
p735
aasas.