(dp0
Vcoref
p1
(lp2
(lp3
(lp4
(lp5
Vit
p6
aI0
aI6
aI6
aI7
aa(lp7
VA worksheet
p8
aI0
aI1
aI0
aI2
aaaa(lp9
(lp10
(lp11
Vproblems
p12
aI1
aI19
aI19
aI20
aa(lp13
V2 problems on it
p14
aI0
aI4
aI3
aI7
aaaa(lp15
(lp16
(lp17
Vshe
p18
aI1
aI21
aI21
aI22
aa(lp19
Va teacher
p20
aI1
aI2
aI1
aI3
aaaasVsentences
p21
(lp22
(dp23
Vparsetree
p24
V(ROOT (S (NP (DT A) (NN worksheet)) (VP (VBD had) (NP (NP (CD 2) (NNS problems)) (PP (IN on) (NP (PRP it))))) (. .)))
p25
sVtext
p26
VA worksheet had 2 problems on it .
p27
sVdependencies
p28
(lp29
(lp30
Vroot
p31
aVROOT
p32
aVhad
p33
aa(lp34
Vdet
p35
aVworksheet
p36
aVA
p37
aa(lp38
Vnsubj
p39
aVhad
p40
aVworksheet
p41
aa(lp42
Vnum
p43
aVproblems
p44
aV2
p45
aa(lp46
Vdobj
p47
aVhad
p48
aVproblems
p49
aa(lp50
Vprep_on
p51
aVproblems
p52
aVit
p53
aasVwords
p54
(lp55
(lp56
g37
a(dp57
VNamedEntityTag
p58
VO
p59
sVCharacterOffsetEnd
p60
g45
sVCharacterOffsetBegin
p61
V1
p62
sVPartOfSpeech
p63
VDT
p64
sVLemma
p65
Va
p66
saa(lp67
Vworksheet
p68
a(dp69
VNamedEntityTag
p70
g59
sVCharacterOffsetEnd
p71
V12
p72
sVCharacterOffsetBegin
p73
V3
p74
sVPartOfSpeech
p75
VNN
p76
sVLemma
p77
Vworksheet
p78
saa(lp79
Vhad
p80
a(dp81
VNamedEntityTag
p82
g59
sVCharacterOffsetEnd
p83
V16
p84
sVCharacterOffsetBegin
p85
V13
p86
sVPartOfSpeech
p87
VVBD
p88
sVLemma
p89
Vhave
p90
saa(lp91
g45
a(dp92
VNormalizedNamedEntityTag
p93
V2.0
p94
sVLemma
p95
g45
sVCharacterOffsetEnd
p96
V18
p97
sVPartOfSpeech
p98
VCD
p99
sVCharacterOffsetBegin
p100
V17
p101
sVNamedEntityTag
p102
VNUMBER
p103
saa(lp104
Vproblems
p105
a(dp106
VNamedEntityTag
p107
g59
sVCharacterOffsetEnd
p108
V27
p109
sVCharacterOffsetBegin
p110
V19
p111
sVPartOfSpeech
p112
VNNS
p113
sVLemma
p114
Vproblem
p115
saa(lp116
Von
p117
a(dp118
VNamedEntityTag
p119
g59
sVCharacterOffsetEnd
p120
V30
p121
sVCharacterOffsetBegin
p122
V28
p123
sVPartOfSpeech
p124
VIN
p125
sVLemma
p126
Von
p127
saa(lp128
Vit
p129
a(dp130
VNamedEntityTag
p131
g59
sVCharacterOffsetEnd
p132
V33
p133
sVCharacterOffsetBegin
p134
V31
p135
sVPartOfSpeech
p136
VPRP
p137
sVLemma
p138
Vit
p139
saa(lp140
V.
p141
a(dp142
VNamedEntityTag
p143
g59
sVCharacterOffsetEnd
p144
V35
p145
sVCharacterOffsetBegin
p146
V34
p147
sVPartOfSpeech
p148
g141
sVLemma
p149
g141
saasVindexeddependencies
p150
(lp151
(lp152
Vroot
p153
aVROOT-0
p154
aVhad-3
p155
aa(lp156
Vdet
p157
aVworksheet-2
p158
aVA-1
p159
aa(lp160
Vnsubj
p161
aVhad-3
p162
aVworksheet-2
p163
aa(lp164
Vnum
p165
aVproblems-5
p166
aV2-4
p167
aa(lp168
Vdobj
p169
aVhad-3
p170
aVproblems-5
p171
aa(lp172
Vprep_on
p173
aVproblems-5
p174
aVit-7
p175
aasa(dp176
Vparsetree
p177
V(ROOT (SBARQ (SBAR (IN If) (S (NP (DT a) (NN teacher)) (VP (VP (VBD had) (NP (NP (CD 14) (NNS worksheets)) (PP (TO to) (NP (NN grade))))) (CC and) (VP (VBD had) (ADVP (RB already)) (VP (VBN graded) (NP (NP (CD 7)) (PP (IN of) (NP (PRP them))))))))) (, ,) (WHNP (WHADJP (WRB how) (JJ many)) (NP (NP (JJR more)) (NP (NNS problems)))) (SQ (VBZ does) (NP (PRP she)) (VP (VB have) (PP (TO to) (NP (NN grade))))) (. ?)))
p178
sVtext
p179
VIf a teacher had 14 worksheets to grade and had already graded 7 of them , how many more problems does she have to grade ?
p180
sVdependencies
p181
(lp182
(lp183
Vroot
p184
aVROOT
p185
aVhave
p186
aa(lp187
Vmark
p188
aVhad
p189
aVIf
p190
aa(lp191
Vdet
p192
aVteacher
p193
ag66
aa(lp194
Vnsubj
p195
aVhad
p196
aVteacher
p197
aa(lp198
Vadvcl
p199
aVhave
p200
aVhad
p201
aa(lp202
Vnum
p203
aVworksheets
p204
aV14
p205
aa(lp206
Vdobj
p207
aVhad
p208
aVworksheets
p209
aa(lp210
Vprep_to
p211
aVworksheets
p212
aVgrade
p213
aa(lp214
Vaux
p215
aVgraded
p216
aVhad
p217
aa(lp218
Vadvmod
p219
aVgraded
p220
aValready
p221
aa(lp222
Vconj_and
p223
aVhad
p224
aVgraded
p225
aa(lp226
Vdobj
p227
aVgraded
p228
aV7
p229
aa(lp230
Vprep_of
p231
ag229
aVthem
p232
aa(lp233
Vadvmod
p234
aVmany
p235
aVhow
p236
aa(lp237
Vamod
p238
aVmore
p239
aVmany
p240
aa(lp241
Vdobj
p242
aVhave
p243
aVmore
p244
aa(lp245
Vdep
p246
aVmore
p247
aVproblems
p248
aa(lp249
Vaux
p250
aVhave
p251
aVdoes
p252
aa(lp253
Vnsubj
p254
aVhave
p255
aVshe
p256
aa(lp257
Vprep_to
p258
aVhave
p259
aVgrade
p260
aasVwords
p261
(lp262
(lp263
VIf
p264
a(dp265
VNamedEntityTag
p266
g59
sVCharacterOffsetEnd
p267
V38
p268
sVCharacterOffsetBegin
p269
V36
p270
sVPartOfSpeech
p271
VIN
p272
sVLemma
p273
Vif
p274
saa(lp275
g66
a(dp276
VNamedEntityTag
p277
g59
sVCharacterOffsetEnd
p278
V40
p279
sVCharacterOffsetBegin
p280
V39
p281
sVPartOfSpeech
p282
VDT
p283
sVLemma
p284
g66
saa(lp285
Vteacher
p286
a(dp287
VNamedEntityTag
p288
g59
sVCharacterOffsetEnd
p289
V48
p290
sVCharacterOffsetBegin
p291
V41
p292
sVPartOfSpeech
p293
VNN
p294
sVLemma
p295
Vteacher
p296
saa(lp297
Vhad
p298
a(dp299
VNamedEntityTag
p300
g59
sVCharacterOffsetEnd
p301
V52
p302
sVCharacterOffsetBegin
p303
V49
p304
sVPartOfSpeech
p305
VVBD
p306
sVLemma
p307
Vhave
p308
saa(lp309
V14
p310
a(dp311
VNormalizedNamedEntityTag
p312
V14.0
p313
sVLemma
p314
V14
p315
sVCharacterOffsetEnd
p316
V55
p317
sVPartOfSpeech
p318
VCD
p319
sVCharacterOffsetBegin
p320
V53
p321
sVNamedEntityTag
p322
VNUMBER
p323
saa(lp324
Vworksheets
p325
a(dp326
VNamedEntityTag
p327
g59
sVCharacterOffsetEnd
p328
V66
p329
sVCharacterOffsetBegin
p330
V56
p331
sVPartOfSpeech
p332
VNNS
p333
sVLemma
p334
Vworksheet
p335
saa(lp336
Vto
p337
a(dp338
VNamedEntityTag
p339
g59
sVCharacterOffsetEnd
p340
V69
p341
sVCharacterOffsetBegin
p342
V67
p343
sVPartOfSpeech
p344
VTO
p345
sVLemma
p346
Vto
p347
saa(lp348
Vgrade
p349
a(dp350
VNamedEntityTag
p351
g59
sVCharacterOffsetEnd
p352
V75
p353
sVCharacterOffsetBegin
p354
V70
p355
sVPartOfSpeech
p356
VNN
p357
sVLemma
p358
Vgrade
p359
saa(lp360
Vand
p361
a(dp362
VNamedEntityTag
p363
g59
sVCharacterOffsetEnd
p364
V79
p365
sVCharacterOffsetBegin
p366
V76
p367
sVPartOfSpeech
p368
VCC
p369
sVLemma
p370
Vand
p371
saa(lp372
Vhad
p373
a(dp374
VNamedEntityTag
p375
g59
sVCharacterOffsetEnd
p376
V83
p377
sVCharacterOffsetBegin
p378
V80
p379
sVPartOfSpeech
p380
VVBD
p381
sVLemma
p382
Vhave
p383
saa(lp384
Valready
p385
a(dp386
VNamedEntityTag
p387
g59
sVCharacterOffsetEnd
p388
V91
p389
sVCharacterOffsetBegin
p390
V84
p391
sVPartOfSpeech
p392
VRB
p393
sVLemma
p394
Valready
p395
saa(lp396
Vgraded
p397
a(dp398
VNamedEntityTag
p399
g59
sVCharacterOffsetEnd
p400
V98
p401
sVCharacterOffsetBegin
p402
V92
p403
sVPartOfSpeech
p404
VVBN
p405
sVLemma
p406
Vgrade
p407
saa(lp408
g229
a(dp409
VNormalizedNamedEntityTag
p410
V7.0
p411
sVLemma
p412
g229
sVCharacterOffsetEnd
p413
V100
p414
sVPartOfSpeech
p415
VCD
p416
sVCharacterOffsetBegin
p417
V99
p418
sVNamedEntityTag
p419
VNUMBER
p420
saa(lp421
Vof
p422
a(dp423
VNamedEntityTag
p424
g59
sVCharacterOffsetEnd
p425
V103
p426
sVCharacterOffsetBegin
p427
V101
p428
sVPartOfSpeech
p429
VIN
p430
sVLemma
p431
Vof
p432
saa(lp433
Vthem
p434
a(dp435
VNamedEntityTag
p436
g59
sVCharacterOffsetEnd
p437
V108
p438
sVCharacterOffsetBegin
p439
V104
p440
sVPartOfSpeech
p441
VPRP
p442
sVLemma
p443
Vthey
p444
saa(lp445
V,
p446
a(dp447
VNamedEntityTag
p448
g59
sVCharacterOffsetEnd
p449
V110
p450
sVCharacterOffsetBegin
p451
V109
p452
sVPartOfSpeech
p453
g446
sVLemma
p454
g446
saa(lp455
Vhow
p456
a(dp457
VNamedEntityTag
p458
g59
sVCharacterOffsetEnd
p459
V114
p460
sVCharacterOffsetBegin
p461
V111
p462
sVPartOfSpeech
p463
VWRB
p464
sVLemma
p465
Vhow
p466
saa(lp467
Vmany
p468
a(dp469
VNamedEntityTag
p470
g59
sVCharacterOffsetEnd
p471
V119
p472
sVCharacterOffsetBegin
p473
V115
p474
sVPartOfSpeech
p475
VJJ
p476
sVLemma
p477
Vmany
p478
saa(lp479
Vmore
p480
a(dp481
VNamedEntityTag
p482
g59
sVCharacterOffsetEnd
p483
V124
p484
sVCharacterOffsetBegin
p485
V120
p486
sVPartOfSpeech
p487
VJJR
p488
sVLemma
p489
Vmore
p490
saa(lp491
Vproblems
p492
a(dp493
VNamedEntityTag
p494
g59
sVCharacterOffsetEnd
p495
V133
p496
sVCharacterOffsetBegin
p497
V125
p498
sVPartOfSpeech
p499
VNNS
p500
sVLemma
p501
Vproblem
p502
saa(lp503
Vdoes
p504
a(dp505
VNamedEntityTag
p506
g59
sVCharacterOffsetEnd
p507
V138
p508
sVCharacterOffsetBegin
p509
V134
p510
sVPartOfSpeech
p511
VVBZ
p512
sVLemma
p513
Vdo
p514
saa(lp515
Vshe
p516
a(dp517
VNamedEntityTag
p518
g59
sVCharacterOffsetEnd
p519
V142
p520
sVCharacterOffsetBegin
p521
V139
p522
sVPartOfSpeech
p523
VPRP
p524
sVLemma
p525
Vshe
p526
saa(lp527
Vhave
p528
a(dp529
VNamedEntityTag
p530
g59
sVCharacterOffsetEnd
p531
V147
p532
sVCharacterOffsetBegin
p533
V143
p534
sVPartOfSpeech
p535
VVB
p536
sVLemma
p537
Vhave
p538
saa(lp539
Vto
p540
a(dp541
VNamedEntityTag
p542
g59
sVCharacterOffsetEnd
p543
V150
p544
sVCharacterOffsetBegin
p545
V148
p546
sVPartOfSpeech
p547
VTO
p548
sVLemma
p549
Vto
p550
saa(lp551
Vgrade
p552
a(dp553
VNamedEntityTag
p554
g59
sVCharacterOffsetEnd
p555
V156
p556
sVCharacterOffsetBegin
p557
V151
p558
sVPartOfSpeech
p559
VNN
p560
sVLemma
p561
Vgrade
p562
saa(lp563
V?
p564
a(dp565
VNamedEntityTag
p566
g59
sVCharacterOffsetEnd
p567
V158
p568
sVCharacterOffsetBegin
p569
V157
p570
sVPartOfSpeech
p571
g141
sVLemma
p572
g564
saasVindexeddependencies
p573
(lp574
(lp575
Vroot
p576
aVROOT-0
p577
aVhave-23
p578
aa(lp579
Vmark
p580
aVhad-4
p581
aVIf-1
p582
aa(lp583
Vdet
p584
aVteacher-3
p585
aVa-2
p586
aa(lp587
Vnsubj
p588
aVhad-4
p589
aVteacher-3
p590
aa(lp591
Vadvcl
p592
aVhave-23
p593
aVhad-4
p594
aa(lp595
Vnum
p596
aVworksheets-6
p597
aV14-5
p598
aa(lp599
Vdobj
p600
aVhad-4
p601
aVworksheets-6
p602
aa(lp603
Vprep_to
p604
aVworksheets-6
p605
aVgrade-8
p606
aa(lp607
Vaux
p608
aVgraded-12
p609
aVhad-10
p610
aa(lp611
Vadvmod
p612
aVgraded-12
p613
aValready-11
p614
aa(lp615
Vconj_and
p616
aVhad-4
p617
aVgraded-12
p618
aa(lp619
Vdobj
p620
aVgraded-12
p621
aV7-13
p622
aa(lp623
Vprep_of
p624
aV7-13
p625
aVthem-15
p626
aa(lp627
Vadvmod
p628
aVmany-18
p629
aVhow-17
p630
aa(lp631
Vamod
p632
aVmore-19
p633
aVmany-18
p634
aa(lp635
Vdobj
p636
aVhave-23
p637
aVmore-19
p638
aa(lp639
Vdep
p640
aVmore-19
p641
aVproblems-20
p642
aa(lp643
Vaux
p644
aVhave-23
p645
aVdoes-21
p646
aa(lp647
Vnsubj
p648
aVhave-23
p649
aVshe-22
p650
aa(lp651
Vprep_to
p652
aVhave-23
p653
aVgrade-25
p654
aasas.