(dp0
Vcoref
p1
(lp2
(lp3
(lp4
(lp5
Vkids
p6
aI1
aI11
aI11
aI12
aa(lp7
Vkids
p8
aI0
aI10
aI10
aI11
aaaa(lp9
(lp10
(lp11
Vit
p12
aI1
aI16
aI16
aI17
aa(lp13
Va group of 15 people
p14
aI1
aI2
aI1
aI6
aaaasVsentences
p15
(lp16
(dp17
Vparsetree
p18
V(ROOT (S (PP (IN At) (NP (NP (DT a) (NN restaurant)) (NP (DT each) (JJ adult) (NN meal) (NNS costs)))) (NP (NP ($ $) (CD 5)) (CC and) (NP (NNS kids))) (VP (VBP eat) (ADJP (JJ free))) (. .)))
p19
sVtext
p20
VAt a restaurant each adult meal costs $5 and kids eat free .
p21
sVdependencies
p22
(lp23
(lp24
Vroot
p25
aVROOT
p26
aVeat
p27
aa(lp28
Vdet
p29
aVrestaurant
p30
aVa
p31
aa(lp32
Vprep_at
p33
aVeat
p34
aVrestaurant
p35
aa(lp36
Vdet
p37
aVcosts
p38
aVeach
p39
aa(lp40
Vamod
p41
aVcosts
p42
aVadult
p43
aa(lp44
Vnn
p45
aVcosts
p46
aVmeal
p47
aa(lp48
Vdep
p49
aVrestaurant
p50
aVcosts
p51
aa(lp52
Vnsubj
p53
aVeat
p54
aV$
p55
aa(lp56
Vnum
p57
ag55
aV5
p58
aa(lp59
Vconj_and
p60
ag55
aVkids
p61
aa(lp62
Vacomp
p63
aVeat
p64
aVfree
p65
aasVwords
p66
(lp67
(lp68
VAt
p69
a(dp70
VNamedEntityTag
p71
VO
p72
sVCharacterOffsetEnd
p73
V3
p74
sVCharacterOffsetBegin
p75
V1
p76
sVPartOfSpeech
p77
VIN
p78
sVLemma
p79
Vat
p80
saa(lp81
g31
a(dp82
VNamedEntityTag
p83
g72
sVCharacterOffsetEnd
p84
g58
sVCharacterOffsetBegin
p85
V4
p86
sVPartOfSpeech
p87
VDT
p88
sVLemma
p89
g31
saa(lp90
Vrestaurant
p91
a(dp92
VNamedEntityTag
p93
g72
sVCharacterOffsetEnd
p94
V16
p95
sVCharacterOffsetBegin
p96
V6
p97
sVPartOfSpeech
p98
VNN
p99
sVLemma
p100
Vrestaurant
p101
saa(lp102
Veach
p103
a(dp104
VNamedEntityTag
p105
g72
sVCharacterOffsetEnd
p106
V21
p107
sVCharacterOffsetBegin
p108
V17
p109
sVPartOfSpeech
p110
VDT
p111
sVLemma
p112
Veach
p113
saa(lp114
Vadult
p115
a(dp116
VNamedEntityTag
p117
g72
sVCharacterOffsetEnd
p118
V27
p119
sVCharacterOffsetBegin
p120
V22
p121
sVPartOfSpeech
p122
VJJ
p123
sVLemma
p124
Vadult
p125
saa(lp126
Vmeal
p127
a(dp128
VNamedEntityTag
p129
g72
sVCharacterOffsetEnd
p130
V32
p131
sVCharacterOffsetBegin
p132
V28
p133
sVPartOfSpeech
p134
VNN
p135
sVLemma
p136
Vmeal
p137
saa(lp138
Vcosts
p139
a(dp140
VNamedEntityTag
p141
g72
sVCharacterOffsetEnd
p142
V38
p143
sVCharacterOffsetBegin
p144
V33
p145
sVPartOfSpeech
p146
VNNS
p147
sVLemma
p148
Vcost
p149
saa(lp150
g55
a(dp151
VNormalizedNamedEntityTag
p152
V$5.0
p153
sVLemma
p154
g55
sVCharacterOffsetEnd
p155
V40
p156
sVPartOfSpeech
p157
g55
sVCharacterOffsetBegin
p158
V39
p159
sVNamedEntityTag
p160
VMONEY
p161
saa(lp162
g58
a(dp163
VNormalizedNamedEntityTag
p164
V$5.0
p165
sVLemma
p166
g58
sVCharacterOffsetEnd
p167
V41
p168
sVPartOfSpeech
p169
VCD
p170
sVCharacterOffsetBegin
p171
V40
p172
sVNamedEntityTag
p173
VMONEY
p174
saa(lp175
Vand
p176
a(dp177
VNamedEntityTag
p178
g72
sVCharacterOffsetEnd
p179
V45
p180
sVCharacterOffsetBegin
p181
V42
p182
sVPartOfSpeech
p183
VCC
p184
sVLemma
p185
Vand
p186
saa(lp187
Vkids
p188
a(dp189
VNamedEntityTag
p190
g72
sVCharacterOffsetEnd
p191
V50
p192
sVCharacterOffsetBegin
p193
V46
p194
sVPartOfSpeech
p195
VNNS
p196
sVLemma
p197
Vkid
p198
saa(lp199
Veat
p200
a(dp201
VNamedEntityTag
p202
g72
sVCharacterOffsetEnd
p203
V54
p204
sVCharacterOffsetBegin
p205
V51
p206
sVPartOfSpeech
p207
VVBP
p208
sVLemma
p209
Veat
p210
saa(lp211
Vfree
p212
a(dp213
VNamedEntityTag
p214
g72
sVCharacterOffsetEnd
p215
V59
p216
sVCharacterOffsetBegin
p217
V55
p218
sVPartOfSpeech
p219
VJJ
p220
sVLemma
p221
Vfree
p222
saa(lp223
V.
p224
a(dp225
VNamedEntityTag
p226
g72
sVCharacterOffsetEnd
p227
V61
p228
sVCharacterOffsetBegin
p229
V60
p230
sVPartOfSpeech
p231
g224
sVLemma
p232
g224
saasVindexeddependencies
p233
(lp234
(lp235
Vroot
p236
aVROOT-0
p237
aVeat-12
p238
aa(lp239
Vdet
p240
aVrestaurant-3
p241
aVa-2
p242
aa(lp243
Vprep_at
p244
aVeat-12
p245
aVrestaurant-3
p246
aa(lp247
Vdet
p248
aVcosts-7
p249
aVeach-4
p250
aa(lp251
Vamod
p252
aVcosts-7
p253
aVadult-5
p254
aa(lp255
Vnn
p256
aVcosts-7
p257
aVmeal-6
p258
aa(lp259
Vdep
p260
aVrestaurant-3
p261
aVcosts-7
p262
aa(lp263
Vnsubj
p264
aVeat-12
p265
aV$-8
p266
aa(lp267
Vnum
p268
aV$-8
p269
aV5-9
p270
aa(lp271
Vconj_and
p272
aV$-8
p273
aVkids-11
p274
aa(lp275
Vacomp
p276
aVeat-12
p277
aVfree-13
p278
aasa(dp279
Vparsetree
p280
V(ROOT (SBARQ (SBAR (IN If) (S (NP (NP (DT a) (NN group)) (PP (IN of) (NP (CD 15) (NNS people)))) (VP (VBD came) (PP (IN in) (NP (NP (QP (CC and) (CD 8))) (SBAR (S (VP (VBD were) (NP (NNS kids)))))))))) (, ,) (WHNP (WRB how) (RB much)) (SQ (MD would) (NP (PRP it)) (VP (VB cost) (PP (IN for) (NP (DT the) (NN group) (S (VP (TO to) (VP (VB eat)))))))) (. ?)))
p281
sVtext
p282
VIf a group of 15 people came in and 8 were kids , how much would it cost for the group to eat ?
p283
sVdependencies
p284
(lp285
(lp286
Vroot
p287
aVROOT
p288
aVcost
p289
aa(lp290
Vmark
p291
aVcame
p292
aVIf
p293
aa(lp294
Vdet
p295
aVgroup
p296
ag31
aa(lp297
Vnsubj
p298
aVcame
p299
aVgroup
p300
aa(lp301
Vnum
p302
aVpeople
p303
aV15
p304
aa(lp305
Vprep_of
p306
aVgroup
p307
aVpeople
p308
aa(lp309
Vadvcl
p310
aVcost
p311
aVcame
p312
aa(lp313
Vcc
p314
aV8
p315
aVand
p316
aa(lp317
Vprep_in
p318
aVcame
p319
ag315
aa(lp320
Vcop
p321
aVkids
p322
aVwere
p323
aa(lp324
Vrcmod
p325
ag315
aVkids
p326
aa(lp327
Vadvmod
p328
aVmuch
p329
aVhow
p330
aa(lp331
Vdep
p332
aVcost
p333
aVmuch
p334
aa(lp335
Vaux
p336
aVcost
p337
aVwould
p338
aa(lp339
Vnsubj
p340
aVcost
p341
aVit
p342
aa(lp343
Vdet
p344
aVgroup
p345
aVthe
p346
aa(lp347
Vprep_for
p348
aVcost
p349
aVgroup
p350
aa(lp351
Vaux
p352
aVeat
p353
aVto
p354
aa(lp355
Vvmod
p356
aVgroup
p357
aVeat
p358
aasVwords
p359
(lp360
(lp361
VIf
p362
a(dp363
VNamedEntityTag
p364
g72
sVCharacterOffsetEnd
p365
V64
p366
sVCharacterOffsetBegin
p367
V62
p368
sVPartOfSpeech
p369
VIN
p370
sVLemma
p371
Vif
p372
saa(lp373
g31
a(dp374
VNamedEntityTag
p375
g72
sVCharacterOffsetEnd
p376
V66
p377
sVCharacterOffsetBegin
p378
V65
p379
sVPartOfSpeech
p380
VDT
p381
sVLemma
p382
g31
saa(lp383
Vgroup
p384
a(dp385
VNamedEntityTag
p386
g72
sVCharacterOffsetEnd
p387
V72
p388
sVCharacterOffsetBegin
p389
V67
p390
sVPartOfSpeech
p391
VNN
p392
sVLemma
p393
Vgroup
p394
saa(lp395
Vof
p396
a(dp397
VNamedEntityTag
p398
g72
sVCharacterOffsetEnd
p399
V75
p400
sVCharacterOffsetBegin
p401
V73
p402
sVPartOfSpeech
p403
VIN
p404
sVLemma
p405
Vof
p406
saa(lp407
V15
p408
a(dp409
VNormalizedNamedEntityTag
p410
V15.0
p411
sVLemma
p412
V15
p413
sVCharacterOffsetEnd
p414
V78
p415
sVPartOfSpeech
p416
VCD
p417
sVCharacterOffsetBegin
p418
V76
p419
sVNamedEntityTag
p420
VNUMBER
p421
saa(lp422
Vpeople
p423
a(dp424
VNamedEntityTag
p425
g72
sVCharacterOffsetEnd
p426
V85
p427
sVCharacterOffsetBegin
p428
V79
p429
sVPartOfSpeech
p430
VNNS
p431
sVLemma
p432
Vpeople
p433
saa(lp434
Vcame
p435
a(dp436
VNamedEntityTag
p437
g72
sVCharacterOffsetEnd
p438
V90
p439
sVCharacterOffsetBegin
p440
V86
p441
sVPartOfSpeech
p442
VVBD
p443
sVLemma
p444
Vcome
p445
saa(lp446
Vin
p447
a(dp448
VNamedEntityTag
p449
g72
sVCharacterOffsetEnd
p450
V93
p451
sVCharacterOffsetBegin
p452
V91
p453
sVPartOfSpeech
p454
VIN
p455
sVLemma
p456
Vin
p457
saa(lp458
Vand
p459
a(dp460
VNamedEntityTag
p461
g72
sVCharacterOffsetEnd
p462
V97
p463
sVCharacterOffsetBegin
p464
V94
p465
sVPartOfSpeech
p466
VCC
p467
sVLemma
p468
Vand
p469
saa(lp470
g315
a(dp471
VNormalizedNamedEntityTag
p472
V8.0
p473
sVLemma
p474
g315
sVCharacterOffsetEnd
p475
V99
p476
sVPartOfSpeech
p477
VCD
p478
sVCharacterOffsetBegin
p479
V98
p480
sVNamedEntityTag
p481
VNUMBER
p482
saa(lp483
Vwere
p484
a(dp485
VNamedEntityTag
p486
g72
sVCharacterOffsetEnd
p487
V104
p488
sVCharacterOffsetBegin
p489
V100
p490
sVPartOfSpeech
p491
VVBD
p492
sVLemma
p493
Vbe
p494
saa(lp495
Vkids
p496
a(dp497
VNamedEntityTag
p498
g72
sVCharacterOffsetEnd
p499
V109
p500
sVCharacterOffsetBegin
p501
V105
p502
sVPartOfSpeech
p503
VNNS
p504
sVLemma
p505
Vkid
p506
saa(lp507
V,
p508
a(dp509
VNamedEntityTag
p510
g72
sVCharacterOffsetEnd
p511
V111
p512
sVCharacterOffsetBegin
p513
V110
p514
sVPartOfSpeech
p515
g508
sVLemma
p516
g508
saa(lp517
Vhow
p518
a(dp519
VNamedEntityTag
p520
g72
sVCharacterOffsetEnd
p521
V115
p522
sVCharacterOffsetBegin
p523
V112
p524
sVPartOfSpeech
p525
VWRB
p526
sVLemma
p527
Vhow
p528
saa(lp529
Vmuch
p530
a(dp531
VNamedEntityTag
p532
g72
sVCharacterOffsetEnd
p533
V120
p534
sVCharacterOffsetBegin
p535
V116
p536
sVPartOfSpeech
p537
VRB
p538
sVLemma
p539
Vmuch
p540
saa(lp541
Vwould
p542
a(dp543
VNamedEntityTag
p544
g72
sVCharacterOffsetEnd
p545
V126
p546
sVCharacterOffsetBegin
p547
V121
p548
sVPartOfSpeech
p549
VMD
p550
sVLemma
p551
Vwould
p552
saa(lp553
Vit
p554
a(dp555
VNamedEntityTag
p556
g72
sVCharacterOffsetEnd
p557
V129
p558
sVCharacterOffsetBegin
p559
V127
p560
sVPartOfSpeech
p561
VPRP
p562
sVLemma
p563
Vit
p564
saa(lp565
Vcost
p566
a(dp567
VNamedEntityTag
p568
g72
sVCharacterOffsetEnd
p569
V134
p570
sVCharacterOffsetBegin
p571
V130
p572
sVPartOfSpeech
p573
VVB
p574
sVLemma
p575
Vcost
p576
saa(lp577
Vfor
p578
a(dp579
VNamedEntityTag
p580
g72
sVCharacterOffsetEnd
p581
V138
p582
sVCharacterOffsetBegin
p583
V135
p584
sVPartOfSpeech
p585
VIN
p586
sVLemma
p587
Vfor
p588
saa(lp589
Vthe
p590
a(dp591
VNamedEntityTag
p592
g72
sVCharacterOffsetEnd
p593
V142
p594
sVCharacterOffsetBegin
p595
V139
p596
sVPartOfSpeech
p597
VDT
p598
sVLemma
p599
Vthe
p600
saa(lp601
Vgroup
p602
a(dp603
VNamedEntityTag
p604
g72
sVCharacterOffsetEnd
p605
V148
p606
sVCharacterOffsetBegin
p607
V143
p608
sVPartOfSpeech
p609
VNN
p610
sVLemma
p611
Vgroup
p612
saa(lp613
Vto
p614
a(dp615
VNamedEntityTag
p616
g72
sVCharacterOffsetEnd
p617
V151
p618
sVCharacterOffsetBegin
p619
V149
p620
sVPartOfSpeech
p621
VTO
p622
sVLemma
p623
Vto
p624
saa(lp625
Veat
p626
a(dp627
VNamedEntityTag
p628
g72
sVCharacterOffsetEnd
p629
V155
p630
sVCharacterOffsetBegin
p631
V152
p632
sVPartOfSpeech
p633
VVB
p634
sVLemma
p635
Veat
p636
saa(lp637
V?
p638
a(dp639
VNamedEntityTag
p640
g72
sVCharacterOffsetEnd
p641
V157
p642
sVCharacterOffsetBegin
p643
V156
p644
sVPartOfSpeech
p645
g224
sVLemma
p646
g638
saasVindexeddependencies
p647
(lp648
(lp649
Vroot
p650
aVROOT-0
p651
aVcost-18
p652
aa(lp653
Vmark
p654
aVcame-7
p655
aVIf-1
p656
aa(lp657
Vdet
p658
aVgroup-3
p659
aVa-2
p660
aa(lp661
Vnsubj
p662
aVcame-7
p663
aVgroup-3
p664
aa(lp665
Vnum
p666
aVpeople-6
p667
aV15-5
p668
aa(lp669
Vprep_of
p670
aVgroup-3
p671
aVpeople-6
p672
aa(lp673
Vadvcl
p674
aVcost-18
p675
aVcame-7
p676
aa(lp677
Vcc
p678
aV8-10
p679
aVand-9
p680
aa(lp681
Vprep_in
p682
aVcame-7
p683
aV8-10
p684
aa(lp685
Vcop
p686
aVkids-12
p687
aVwere-11
p688
aa(lp689
Vrcmod
p690
aV8-10
p691
aVkids-12
p692
aa(lp693
Vadvmod
p694
aVmuch-15
p695
aVhow-14
p696
aa(lp697
Vdep
p698
aVcost-18
p699
aVmuch-15
p700
aa(lp701
Vaux
p702
aVcost-18
p703
aVwould-16
p704
aa(lp705
Vnsubj
p706
aVcost-18
p707
aVit-17
p708
aa(lp709
Vdet
p710
aVgroup-21
p711
aVthe-20
p712
aa(lp713
Vprep_for
p714
aVcost-18
p715
aVgroup-21
p716
aa(lp717
Vaux
p718
aVeat-23
p719
aVto-22
p720
aa(lp721
Vvmod
p722
aVgroup-21
p723
aVeat-23
p724
aasas.