(dp0
Vcoref
p1
(lp2
(lp3
(lp4
(lp5
Vhe
p6
aI2
aI1
aI1
aI2
aa(lp7
VA painter
p8
aI0
aI1
aI0
aI2
aaa(lp9
(lp10
Vhe
p11
aI2
aI11
aI11
aI12
aa(lp12
VA painter
p13
aI0
aI1
aI0
aI2
aaaasVsentences
p14
(lp15
(dp16
Vparsetree
p17
V(ROOT (S (NP (DT A) (NN painter)) (VP (VBN needed) (S (VP (TO to) (VP (VB paint) (NP (NP (CD 6) (NNS rooms)) (PP (IN in) (NP (DT a) (NN building)))))))) (. .)))
p18
sVtext
p19
VA painter needed to paint 6 rooms in a building .
p20
sVdependencies
p21
(lp22
(lp23
Vroot
p24
aVROOT
p25
aVneeded
p26
aa(lp27
Vdet
p28
aVpainter
p29
aVA
p30
aa(lp31
Vnsubj
p32
aVneeded
p33
aVpainter
p34
aa(lp35
Vaux
p36
aVpaint
p37
aVto
p38
aa(lp39
Vxcomp
p40
aVneeded
p41
aVpaint
p42
aa(lp43
Vnum
p44
aVrooms
p45
aV6
p46
aa(lp47
Vdobj
p48
aVpaint
p49
aVrooms
p50
aa(lp51
Vdet
p52
aVbuilding
p53
aVa
p54
aa(lp55
Vprep_in
p56
aVrooms
p57
aVbuilding
p58
aasVwords
p59
(lp60
(lp61
g30
a(dp62
VNamedEntityTag
p63
VO
p64
sVCharacterOffsetEnd
p65
V2
p66
sVCharacterOffsetBegin
p67
V1
p68
sVPartOfSpeech
p69
VDT
p70
sVLemma
p71
g54
saa(lp72
Vpainter
p73
a(dp74
VNamedEntityTag
p75
g64
sVCharacterOffsetEnd
p76
V10
p77
sVCharacterOffsetBegin
p78
V3
p79
sVPartOfSpeech
p80
VNN
p81
sVLemma
p82
Vpainter
p83
saa(lp84
Vneeded
p85
a(dp86
VNamedEntityTag
p87
g64
sVCharacterOffsetEnd
p88
V17
p89
sVCharacterOffsetBegin
p90
V11
p91
sVPartOfSpeech
p92
VVBN
p93
sVLemma
p94
Vneed
p95
saa(lp96
Vto
p97
a(dp98
VNamedEntityTag
p99
g64
sVCharacterOffsetEnd
p100
V20
p101
sVCharacterOffsetBegin
p102
V18
p103
sVPartOfSpeech
p104
VTO
p105
sVLemma
p106
Vto
p107
saa(lp108
Vpaint
p109
a(dp110
VNamedEntityTag
p111
g64
sVCharacterOffsetEnd
p112
V26
p113
sVCharacterOffsetBegin
p114
V21
p115
sVPartOfSpeech
p116
VVB
p117
sVLemma
p118
Vpaint
p119
saa(lp120
g46
a(dp121
VNormalizedNamedEntityTag
p122
V6.0
p123
sVLemma
p124
g46
sVCharacterOffsetEnd
p125
V28
p126
sVPartOfSpeech
p127
VCD
p128
sVCharacterOffsetBegin
p129
V27
p130
sVNamedEntityTag
p131
VNUMBER
p132
saa(lp133
Vrooms
p134
a(dp135
VNamedEntityTag
p136
g64
sVCharacterOffsetEnd
p137
V34
p138
sVCharacterOffsetBegin
p139
V29
p140
sVPartOfSpeech
p141
VNNS
p142
sVLemma
p143
Vroom
p144
saa(lp145
Vin
p146
a(dp147
VNamedEntityTag
p148
g64
sVCharacterOffsetEnd
p149
V37
p150
sVCharacterOffsetBegin
p151
V35
p152
sVPartOfSpeech
p153
VIN
p154
sVLemma
p155
Vin
p156
saa(lp157
g54
a(dp158
VNamedEntityTag
p159
g64
sVCharacterOffsetEnd
p160
V39
p161
sVCharacterOffsetBegin
p162
V38
p163
sVPartOfSpeech
p164
VDT
p165
sVLemma
p166
g54
saa(lp167
Vbuilding
p168
a(dp169
VNamedEntityTag
p170
g64
sVCharacterOffsetEnd
p171
V48
p172
sVCharacterOffsetBegin
p173
V40
p174
sVPartOfSpeech
p175
VNN
p176
sVLemma
p177
Vbuilding
p178
saa(lp179
V.
p180
a(dp181
VNamedEntityTag
p182
g64
sVCharacterOffsetEnd
p183
V50
p184
sVCharacterOffsetBegin
p185
V49
p186
sVPartOfSpeech
p187
g180
sVLemma
p188
g180
saasVindexeddependencies
p189
(lp190
(lp191
Vroot
p192
aVROOT-0
p193
aVneeded-3
p194
aa(lp195
Vdet
p196
aVpainter-2
p197
aVA-1
p198
aa(lp199
Vnsubj
p200
aVneeded-3
p201
aVpainter-2
p202
aa(lp203
Vaux
p204
aVpaint-5
p205
aVto-4
p206
aa(lp207
Vxcomp
p208
aVneeded-3
p209
aVpaint-5
p210
aa(lp211
Vnum
p212
aVrooms-7
p213
aV6-6
p214
aa(lp215
Vdobj
p216
aVpaint-5
p217
aVrooms-7
p218
aa(lp219
Vdet
p220
aVbuilding-10
p221
aVa-9
p222
aa(lp223
Vprep_in
p224
aVrooms-7
p225
aVbuilding-10
p226
aasa(dp227
Vparsetree
p228
V(ROOT (S (NP (DT Each) (NN room)) (VP (VBZ takes) (NP (CD 5) (NNS hours)) (S (VP (TO to) (VP (VB paint))))) (. .)))
p229
sVtext
p230
VEach room takes 5 hours to paint .
p231
sVdependencies
p232
(lp233
(lp234
Vroot
p235
aVROOT
p236
aVtakes
p237
aa(lp238
Vdet
p239
aVroom
p240
aVEach
p241
aa(lp242
Vnsubj
p243
aVtakes
p244
aVroom
p245
aa(lp246
Vnum
p247
aVhours
p248
aV5
p249
aa(lp250
Vdobj
p251
aVtakes
p252
aVhours
p253
aa(lp254
Vaux
p255
aVpaint
p256
aVto
p257
aa(lp258
Vvmod
p259
aVtakes
p260
aVpaint
p261
aasVwords
p262
(lp263
(lp264
VEach
p265
a(dp266
VNamedEntityTag
p267
g64
sVCharacterOffsetEnd
p268
V55
p269
sVCharacterOffsetBegin
p270
V51
p271
sVPartOfSpeech
p272
VDT
p273
sVLemma
p274
Veach
p275
saa(lp276
Vroom
p277
a(dp278
VNamedEntityTag
p279
g64
sVCharacterOffsetEnd
p280
V60
p281
sVCharacterOffsetBegin
p282
V56
p283
sVPartOfSpeech
p284
VNN
p285
sVLemma
p286
Vroom
p287
saa(lp288
Vtakes
p289
a(dp290
VNamedEntityTag
p291
g64
sVCharacterOffsetEnd
p292
V66
p293
sVCharacterOffsetBegin
p294
V61
p295
sVPartOfSpeech
p296
VVBZ
p297
sVLemma
p298
Vtake
p299
saa(lp300
g249
a(dp301
VNormalizedNamedEntityTag
p302
VPT5H
p303
sVTimex
p304
V<TIMEX3 tid="t1" type="DURATION" value="PT5H">5 hours</TIMEX3>
p305
sVLemma
p306
g249
sVCharacterOffsetEnd
p307
V68
p308
sVPartOfSpeech
p309
VCD
p310
sVCharacterOffsetBegin
p311
V67
p312
sVNamedEntityTag
p313
VDURATION
p314
saa(lp315
Vhours
p316
a(dp317
VNormalizedNamedEntityTag
p318
VPT5H
p319
sVTimex
p320
V<TIMEX3 tid="t1" type="DURATION" value="PT5H">5 hours</TIMEX3>
p321
sVLemma
p322
Vhour
p323
sVCharacterOffsetEnd
p324
V74
p325
sVPartOfSpeech
p326
VNNS
p327
sVCharacterOffsetBegin
p328
V69
p329
sVNamedEntityTag
p330
VDURATION
p331
saa(lp332
Vto
p333
a(dp334
VNamedEntityTag
p335
g64
sVCharacterOffsetEnd
p336
V77
p337
sVCharacterOffsetBegin
p338
V75
p339
sVPartOfSpeech
p340
VTO
p341
sVLemma
p342
Vto
p343
saa(lp344
Vpaint
p345
a(dp346
VNamedEntityTag
p347
g64
sVCharacterOffsetEnd
p348
V83
p349
sVCharacterOffsetBegin
p350
V78
p351
sVPartOfSpeech
p352
VVB
p353
sVLemma
p354
Vpaint
p355
saa(lp356
g180
a(dp357
VNamedEntityTag
p358
g64
sVCharacterOffsetEnd
p359
V85
p360
sVCharacterOffsetBegin
p361
V84
p362
sVPartOfSpeech
p363
g180
sVLemma
p364
g180
saasVindexeddependencies
p365
(lp366
(lp367
Vroot
p368
aVROOT-0
p369
aVtakes-3
p370
aa(lp371
Vdet
p372
aVroom-2
p373
aVEach-1
p374
aa(lp375
Vnsubj
p376
aVtakes-3
p377
aVroom-2
p378
aa(lp379
Vnum
p380
aVhours-5
p381
aV5-4
p382
aa(lp383
Vdobj
p384
aVtakes-3
p385
aVhours-5
p386
aa(lp387
Vaux
p388
aVpaint-7
p389
aVto-6
p390
aa(lp391
Vvmod
p392
aVtakes-3
p393
aVpaint-7
p394
aasa(dp395
Vparsetree
p396
V(ROOT (SBARQ (SBAR (IN If) (S (NP (PRP he)) (ADVP (RB already)) (VP (VBD painted) (NP (CD 2) (NNS rooms))))) (, ,) (WHNP (WHNP (WRB how) (RB much)) (ADJP (RBR longer))) (SQ (MD will) (NP (PRP he)) (VP (VB take) (S (VP (TO to) (VP (VB paint) (NP (DT the) (NN rest))))))) (. ?)))
p397
sVtext
p398
VIf he already painted 2 rooms , how much longer will he take to paint the rest ?
p399
sVdependencies
p400
(lp401
(lp402
Vroot
p403
aVROOT
p404
aVtake
p405
aa(lp406
Vmark
p407
aVpainted
p408
aVIf
p409
aa(lp410
Vnsubj
p411
aVpainted
p412
aVhe
p413
aa(lp414
Vadvmod
p415
aVpainted
p416
aValready
p417
aa(lp418
Vadvcl
p419
aVtake
p420
aVpainted
p421
aa(lp422
Vnum
p423
aVrooms
p424
ag66
aa(lp425
Vdobj
p426
aVpainted
p427
aVrooms
p428
aa(lp429
Vadvmod
p430
aVmuch
p431
aVhow
p432
aa(lp433
Vdep
p434
aVtake
p435
aVmuch
p436
aa(lp437
Vamod
p438
aVmuch
p439
aVlonger
p440
aa(lp441
Vaux
p442
aVtake
p443
aVwill
p444
aa(lp445
Vnsubj
p446
aVtake
p447
aVhe
p448
aa(lp449
Vaux
p450
aVpaint
p451
aVto
p452
aa(lp453
Vxcomp
p454
aVtake
p455
aVpaint
p456
aa(lp457
Vdet
p458
aVrest
p459
aVthe
p460
aa(lp461
Vdobj
p462
aVpaint
p463
aVrest
p464
aasVwords
p465
(lp466
(lp467
VIf
p468
a(dp469
VNamedEntityTag
p470
g64
sVCharacterOffsetEnd
p471
V88
p472
sVCharacterOffsetBegin
p473
V86
p474
sVPartOfSpeech
p475
VIN
p476
sVLemma
p477
Vif
p478
saa(lp479
Vhe
p480
a(dp481
VNamedEntityTag
p482
g64
sVCharacterOffsetEnd
p483
V91
p484
sVCharacterOffsetBegin
p485
V89
p486
sVPartOfSpeech
p487
VPRP
p488
sVLemma
p489
Vhe
p490
saa(lp491
Valready
p492
a(dp493
VNamedEntityTag
p494
g64
sVCharacterOffsetEnd
p495
V99
p496
sVCharacterOffsetBegin
p497
V92
p498
sVPartOfSpeech
p499
VRB
p500
sVLemma
p501
Valready
p502
saa(lp503
Vpainted
p504
a(dp505
VNamedEntityTag
p506
g64
sVCharacterOffsetEnd
p507
V107
p508
sVCharacterOffsetBegin
p509
V100
p510
sVPartOfSpeech
p511
VVBD
p512
sVLemma
p513
Vpaint
p514
saa(lp515
g66
a(dp516
VNormalizedNamedEntityTag
p517
V2.0
p518
sVLemma
p519
g66
sVCharacterOffsetEnd
p520
V109
p521
sVPartOfSpeech
p522
VCD
p523
sVCharacterOffsetBegin
p524
V108
p525
sVNamedEntityTag
p526
VNUMBER
p527
saa(lp528
Vrooms
p529
a(dp530
VNamedEntityTag
p531
g64
sVCharacterOffsetEnd
p532
V115
p533
sVCharacterOffsetBegin
p534
V110
p535
sVPartOfSpeech
p536
VNNS
p537
sVLemma
p538
Vroom
p539
saa(lp540
V,
p541
a(dp542
VNamedEntityTag
p543
g64
sVCharacterOffsetEnd
p544
V117
p545
sVCharacterOffsetBegin
p546
V116
p547
sVPartOfSpeech
p548
g541
sVLemma
p549
g541
saa(lp550
Vhow
p551
a(dp552
VNamedEntityTag
p553
g64
sVCharacterOffsetEnd
p554
V121
p555
sVCharacterOffsetBegin
p556
V118
p557
sVPartOfSpeech
p558
VWRB
p559
sVLemma
p560
Vhow
p561
saa(lp562
Vmuch
p563
a(dp564
VNamedEntityTag
p565
g64
sVCharacterOffsetEnd
p566
V126
p567
sVCharacterOffsetBegin
p568
V122
p569
sVPartOfSpeech
p570
VRB
p571
sVLemma
p572
Vmuch
p573
saa(lp574
Vlonger
p575
a(dp576
VNamedEntityTag
p577
g64
sVCharacterOffsetEnd
p578
V133
p579
sVCharacterOffsetBegin
p580
V127
p581
sVPartOfSpeech
p582
VRBR
p583
sVLemma
p584
Vlonger
p585
saa(lp586
Vwill
p587
a(dp588
VNamedEntityTag
p589
g64
sVCharacterOffsetEnd
p590
V138
p591
sVCharacterOffsetBegin
p592
V134
p593
sVPartOfSpeech
p594
VMD
p595
sVLemma
p596
Vwill
p597
saa(lp598
Vhe
p599
a(dp600
VNamedEntityTag
p601
g64
sVCharacterOffsetEnd
p602
V141
p603
sVCharacterOffsetBegin
p604
V139
p605
sVPartOfSpeech
p606
VPRP
p607
sVLemma
p608
Vhe
p609
saa(lp610
Vtake
p611
a(dp612
VNamedEntityTag
p613
g64
sVCharacterOffsetEnd
p614
V146
p615
sVCharacterOffsetBegin
p616
V142
p617
sVPartOfSpeech
p618
VVB
p619
sVLemma
p620
Vtake
p621
saa(lp622
Vto
p623
a(dp624
VNamedEntityTag
p625
g64
sVCharacterOffsetEnd
p626
V149
p627
sVCharacterOffsetBegin
p628
V147
p629
sVPartOfSpeech
p630
VTO
p631
sVLemma
p632
Vto
p633
saa(lp634
Vpaint
p635
a(dp636
VNamedEntityTag
p637
g64
sVCharacterOffsetEnd
p638
V155
p639
sVCharacterOffsetBegin
p640
V150
p641
sVPartOfSpeech
p642
VVB
p643
sVLemma
p644
Vpaint
p645
saa(lp646
Vthe
p647
a(dp648
VNamedEntityTag
p649
g64
sVCharacterOffsetEnd
p650
V159
p651
sVCharacterOffsetBegin
p652
V156
p653
sVPartOfSpeech
p654
VDT
p655
sVLemma
p656
Vthe
p657
saa(lp658
Vrest
p659
a(dp660
VNamedEntityTag
p661
g64
sVCharacterOffsetEnd
p662
V164
p663
sVCharacterOffsetBegin
p664
V160
p665
sVPartOfSpeech
p666
VNN
p667
sVLemma
p668
Vrest
p669
saa(lp670
V?
p671
a(dp672
VNamedEntityTag
p673
g64
sVCharacterOffsetEnd
p674
V166
p675
sVCharacterOffsetBegin
p676
V165
p677
sVPartOfSpeech
p678
g180
sVLemma
p679
g671
saasVindexeddependencies
p680
(lp681
(lp682
Vroot
p683
aVROOT-0
p684
aVtake-13
p685
aa(lp686
Vmark
p687
aVpainted-4
p688
aVIf-1
p689
aa(lp690
Vnsubj
p691
aVpainted-4
p692
aVhe-2
p693
aa(lp694
Vadvmod
p695
aVpainted-4
p696
aValready-3
p697
aa(lp698
Vadvcl
p699
aVtake-13
p700
aVpainted-4
p701
aa(lp702
Vnum
p703
aVrooms-6
p704
aV2-5
p705
aa(lp706
Vdobj
p707
aVpainted-4
p708
aVrooms-6
p709
aa(lp710
Vadvmod
p711
aVmuch-9
p712
aVhow-8
p713
aa(lp714
Vdep
p715
aVtake-13
p716
aVmuch-9
p717
aa(lp718
Vamod
p719
aVmuch-9
p720
aVlonger-10
p721
aa(lp722
Vaux
p723
aVtake-13
p724
aVwill-11
p725
aa(lp726
Vnsubj
p727
aVtake-13
p728
aVhe-12
p729
aa(lp730
Vaux
p731
aVpaint-15
p732
aVto-14
p733
aa(lp734
Vxcomp
p735
aVtake-13
p736
aVpaint-15
p737
aa(lp738
Vdet
p739
aVrest-17
p740
aVthe-16
p741
aa(lp742
Vdobj
p743
aVpaint-15
p744
aVrest-17
p745
aasas.