(dp0
Vcoref
p1
(lp2
(lp3
(lp4
(lp5
VHe
p6
aI1
aI0
aI0
aI1
aa(lp7
VA chef
p8
aI0
aI1
aI0
aI2
aaa(lp9
(lp10
Vhim
p11
aI2
aI14
aI14
aI15
aa(lp12
VA chef
p13
aI0
aI1
aI0
aI2
aaaa(lp14
(lp15
(lp16
Vit
p17
aI2
aI12
aI12
aI13
aa(lp18
Veach potato
p19
aI2
aI2
aI1
aI3
aaaasVsentences
p20
(lp21
(dp22
Vparsetree
p23
V(ROOT (S (NP (DT A) (NN chef)) (VP (VBZ needs) (S (VP (TO to) (VP (VB cook) (NP (CD 13) (NNS potatoes)))))) (. .)))
p24
sVtext
p25
VA chef needs to cook 13 potatoes .
p26
sVdependencies
p27
(lp28
(lp29
Vroot
p30
aVROOT
p31
aVneeds
p32
aa(lp33
Vdet
p34
aVchef
p35
aVA
p36
aa(lp37
Vnsubj
p38
aVneeds
p39
aVchef
p40
aa(lp41
Vaux
p42
aVcook
p43
aVto
p44
aa(lp45
Vxcomp
p46
aVneeds
p47
aVcook
p48
aa(lp49
Vnum
p50
aVpotatoes
p51
aV13
p52
aa(lp53
Vdobj
p54
aVcook
p55
aVpotatoes
p56
aasVwords
p57
(lp58
(lp59
g36
a(dp60
VNamedEntityTag
p61
VO
p62
sVCharacterOffsetEnd
p63
V2
p64
sVCharacterOffsetBegin
p65
V1
p66
sVPartOfSpeech
p67
VDT
p68
sVLemma
p69
Va
p70
saa(lp71
Vchef
p72
a(dp73
VNamedEntityTag
p74
g62
sVCharacterOffsetEnd
p75
V7
p76
sVCharacterOffsetBegin
p77
V3
p78
sVPartOfSpeech
p79
VNN
p80
sVLemma
p81
Vchef
p82
saa(lp83
Vneeds
p84
a(dp85
VNamedEntityTag
p86
g62
sVCharacterOffsetEnd
p87
V13
p88
sVCharacterOffsetBegin
p89
V8
p90
sVPartOfSpeech
p91
VVBZ
p92
sVLemma
p93
Vneed
p94
saa(lp95
Vto
p96
a(dp97
VNamedEntityTag
p98
g62
sVCharacterOffsetEnd
p99
V16
p100
sVCharacterOffsetBegin
p101
V14
p102
sVPartOfSpeech
p103
VTO
p104
sVLemma
p105
Vto
p106
saa(lp107
Vcook
p108
a(dp109
VNamedEntityTag
p110
g62
sVCharacterOffsetEnd
p111
V21
p112
sVCharacterOffsetBegin
p113
V17
p114
sVPartOfSpeech
p115
VVB
p116
sVLemma
p117
Vcook
p118
saa(lp119
V13
p120
a(dp121
VNormalizedNamedEntityTag
p122
V13.0
p123
sVLemma
p124
V13
p125
sVCharacterOffsetEnd
p126
V24
p127
sVPartOfSpeech
p128
VCD
p129
sVCharacterOffsetBegin
p130
V22
p131
sVNamedEntityTag
p132
VNUMBER
p133
saa(lp134
Vpotatoes
p135
a(dp136
VNamedEntityTag
p137
g62
sVCharacterOffsetEnd
p138
V33
p139
sVCharacterOffsetBegin
p140
V25
p141
sVPartOfSpeech
p142
VNNS
p143
sVLemma
p144
Vpotato
p145
saa(lp146
V.
p147
a(dp148
VNamedEntityTag
p149
g62
sVCharacterOffsetEnd
p150
V35
p151
sVCharacterOffsetBegin
p152
V34
p153
sVPartOfSpeech
p154
g147
sVLemma
p155
g147
saasVindexeddependencies
p156
(lp157
(lp158
Vroot
p159
aVROOT-0
p160
aVneeds-3
p161
aa(lp162
Vdet
p163
aVchef-2
p164
aVA-1
p165
aa(lp166
Vnsubj
p167
aVneeds-3
p168
aVchef-2
p169
aa(lp170
Vaux
p171
aVcook-5
p172
aVto-4
p173
aa(lp174
Vxcomp
p175
aVneeds-3
p176
aVcook-5
p177
aa(lp178
Vnum
p179
aVpotatoes-7
p180
aV13-6
p181
aa(lp182
Vdobj
p183
aVcook-5
p184
aVpotatoes-7
p185
aasa(dp186
Vparsetree
p187
V(ROOT (S (NP (PRP He)) (VP (VBZ has) (ADVP (RB already)) (VP (VBN cooked) (NP (CD 5)))) (. .)))
p188
sVtext
p189
VHe has already cooked 5 .
p190
sVdependencies
p191
(lp192
(lp193
Vroot
p194
aVROOT
p195
aVcooked
p196
aa(lp197
Vnsubj
p198
aVcooked
p199
aVHe
p200
aa(lp201
Vaux
p202
aVcooked
p203
aVhas
p204
aa(lp205
Vadvmod
p206
aVcooked
p207
aValready
p208
aa(lp209
Vdobj
p210
aVcooked
p211
aV5
p212
aasVwords
p213
(lp214
(lp215
VHe
p216
a(dp217
VNamedEntityTag
p218
g62
sVCharacterOffsetEnd
p219
V38
p220
sVCharacterOffsetBegin
p221
V36
p222
sVPartOfSpeech
p223
VPRP
p224
sVLemma
p225
Vhe
p226
saa(lp227
Vhas
p228
a(dp229
VNamedEntityTag
p230
g62
sVCharacterOffsetEnd
p231
V42
p232
sVCharacterOffsetBegin
p233
V39
p234
sVPartOfSpeech
p235
VVBZ
p236
sVLemma
p237
Vhave
p238
saa(lp239
Valready
p240
a(dp241
VNamedEntityTag
p242
g62
sVCharacterOffsetEnd
p243
V50
p244
sVCharacterOffsetBegin
p245
V43
p246
sVPartOfSpeech
p247
VRB
p248
sVLemma
p249
Valready
p250
saa(lp251
Vcooked
p252
a(dp253
VNamedEntityTag
p254
g62
sVCharacterOffsetEnd
p255
V57
p256
sVCharacterOffsetBegin
p257
V51
p258
sVPartOfSpeech
p259
VVBN
p260
sVLemma
p261
Vcook
p262
saa(lp263
g212
a(dp264
VNormalizedNamedEntityTag
p265
V5.0
p266
sVLemma
p267
g212
sVCharacterOffsetEnd
p268
V59
p269
sVPartOfSpeech
p270
VCD
p271
sVCharacterOffsetBegin
p272
V58
p273
sVNamedEntityTag
p274
VNUMBER
p275
saa(lp276
g147
a(dp277
VNamedEntityTag
p278
g62
sVCharacterOffsetEnd
p279
V61
p280
sVCharacterOffsetBegin
p281
V60
p282
sVPartOfSpeech
p283
g147
sVLemma
p284
g147
saasVindexeddependencies
p285
(lp286
(lp287
Vroot
p288
aVROOT-0
p289
aVcooked-4
p290
aa(lp291
Vnsubj
p292
aVcooked-4
p293
aVHe-1
p294
aa(lp295
Vaux
p296
aVcooked-4
p297
aVhas-2
p298
aa(lp299
Vadvmod
p300
aVcooked-4
p301
aValready-3
p302
aa(lp303
Vdobj
p304
aVcooked-4
p305
aV5-5
p306
aasa(dp307
Vparsetree
p308
V(ROOT (SBARQ (SBAR (IN If) (S (NP (DT each) (NN potato)) (VP (VBZ takes) (NP (CD 6) (NNS minutes)) (S (VP (TO to) (VP (VB cook))))))) (, ,) (WHNP (WRB how) (RB long)) (SQ (MD will) (NP (PRP it)) (VP (VB take) (S (NP (PRP him)) (VP (TO to) (VP (VB cook) (NP (DT the) (NN rest))))))) (. ?)))
p309
sVtext
p310
VIf each potato takes 6 minutes to cook , how long will it take him to cook the rest ?
p311
sVdependencies
p312
(lp313
(lp314
Vroot
p315
aVROOT
p316
aVtake
p317
aa(lp318
Vmark
p319
aVtakes
p320
aVIf
p321
aa(lp322
Vdet
p323
aVpotato
p324
aVeach
p325
aa(lp326
Vnsubj
p327
aVtakes
p328
aVpotato
p329
aa(lp330
Vadvcl
p331
aVtake
p332
aVtakes
p333
aa(lp334
Vnum
p335
aVminutes
p336
aV6
p337
aa(lp338
Vdobj
p339
aVtakes
p340
aVminutes
p341
aa(lp342
Vaux
p343
aVcook
p344
aVto
p345
aa(lp346
Vvmod
p347
aVtakes
p348
aVcook
p349
aa(lp350
Vadvmod
p351
aVlong
p352
aVhow
p353
aa(lp354
Vdep
p355
aVtake
p356
aVlong
p357
aa(lp358
Vaux
p359
aVtake
p360
aVwill
p361
aa(lp362
Vnsubj
p363
aVtake
p364
aVit
p365
aa(lp366
Vdobj
p367
aVtake
p368
aVhim
p369
aa(lp370
Vaux
p371
aVcook
p372
aVto
p373
aa(lp374
Vxcomp
p375
aVtake
p376
aVcook
p377
aa(lp378
Vdet
p379
aVrest
p380
aVthe
p381
aa(lp382
Vdobj
p383
aVcook
p384
aVrest
p385
aasVwords
p386
(lp387
(lp388
VIf
p389
a(dp390
VNamedEntityTag
p391
g62
sVCharacterOffsetEnd
p392
V64
p393
sVCharacterOffsetBegin
p394
V62
p395
sVPartOfSpeech
p396
VIN
p397
sVLemma
p398
Vif
p399
saa(lp400
Veach
p401
a(dp402
VNamedEntityTag
p403
g62
sVCharacterOffsetEnd
p404
V69
p405
sVCharacterOffsetBegin
p406
V65
p407
sVPartOfSpeech
p408
VDT
p409
sVLemma
p410
Veach
p411
saa(lp412
Vpotato
p413
a(dp414
VNamedEntityTag
p415
g62
sVCharacterOffsetEnd
p416
V76
p417
sVCharacterOffsetBegin
p418
V70
p419
sVPartOfSpeech
p420
VNN
p421
sVLemma
p422
Vpotato
p423
saa(lp424
Vtakes
p425
a(dp426
VNamedEntityTag
p427
g62
sVCharacterOffsetEnd
p428
V82
p429
sVCharacterOffsetBegin
p430
V77
p431
sVPartOfSpeech
p432
VVBZ
p433
sVLemma
p434
Vtake
p435
saa(lp436
g337
a(dp437
VNormalizedNamedEntityTag
p438
VPT6M
p439
sVTimex
p440
V<TIMEX3 tid="t1" type="DURATION" value="PT6M">6 minutes</TIMEX3>
p441
sVLemma
p442
g337
sVCharacterOffsetEnd
p443
V84
p444
sVPartOfSpeech
p445
VCD
p446
sVCharacterOffsetBegin
p447
V83
p448
sVNamedEntityTag
p449
VDURATION
p450
saa(lp451
Vminutes
p452
a(dp453
VNormalizedNamedEntityTag
p454
VPT6M
p455
sVTimex
p456
V<TIMEX3 tid="t1" type="DURATION" value="PT6M">6 minutes</TIMEX3>
p457
sVLemma
p458
Vminute
p459
sVCharacterOffsetEnd
p460
V92
p461
sVPartOfSpeech
p462
VNNS
p463
sVCharacterOffsetBegin
p464
V85
p465
sVNamedEntityTag
p466
VDURATION
p467
saa(lp468
Vto
p469
a(dp470
VNamedEntityTag
p471
g62
sVCharacterOffsetEnd
p472
V95
p473
sVCharacterOffsetBegin
p474
V93
p475
sVPartOfSpeech
p476
VTO
p477
sVLemma
p478
Vto
p479
saa(lp480
Vcook
p481
a(dp482
VNamedEntityTag
p483
g62
sVCharacterOffsetEnd
p484
V100
p485
sVCharacterOffsetBegin
p486
V96
p487
sVPartOfSpeech
p488
VVB
p489
sVLemma
p490
Vcook
p491
saa(lp492
V,
p493
a(dp494
VNamedEntityTag
p495
g62
sVCharacterOffsetEnd
p496
V102
p497
sVCharacterOffsetBegin
p498
V101
p499
sVPartOfSpeech
p500
g493
sVLemma
p501
g493
saa(lp502
Vhow
p503
a(dp504
VNamedEntityTag
p505
g62
sVCharacterOffsetEnd
p506
V106
p507
sVCharacterOffsetBegin
p508
V103
p509
sVPartOfSpeech
p510
VWRB
p511
sVLemma
p512
Vhow
p513
saa(lp514
Vlong
p515
a(dp516
VNamedEntityTag
p517
g62
sVCharacterOffsetEnd
p518
V111
p519
sVCharacterOffsetBegin
p520
V107
p521
sVPartOfSpeech
p522
VRB
p523
sVLemma
p524
Vlong
p525
saa(lp526
Vwill
p527
a(dp528
VNamedEntityTag
p529
g62
sVCharacterOffsetEnd
p530
V116
p531
sVCharacterOffsetBegin
p532
V112
p533
sVPartOfSpeech
p534
VMD
p535
sVLemma
p536
Vwill
p537
saa(lp538
Vit
p539
a(dp540
VNamedEntityTag
p541
g62
sVCharacterOffsetEnd
p542
V119
p543
sVCharacterOffsetBegin
p544
V117
p545
sVPartOfSpeech
p546
VPRP
p547
sVLemma
p548
Vit
p549
saa(lp550
Vtake
p551
a(dp552
VNamedEntityTag
p553
g62
sVCharacterOffsetEnd
p554
V124
p555
sVCharacterOffsetBegin
p556
V120
p557
sVPartOfSpeech
p558
VVB
p559
sVLemma
p560
Vtake
p561
saa(lp562
Vhim
p563
a(dp564
VNamedEntityTag
p565
g62
sVCharacterOffsetEnd
p566
V128
p567
sVCharacterOffsetBegin
p568
V125
p569
sVPartOfSpeech
p570
VPRP
p571
sVLemma
p572
Vhe
p573
saa(lp574
Vto
p575
a(dp576
VNamedEntityTag
p577
g62
sVCharacterOffsetEnd
p578
V131
p579
sVCharacterOffsetBegin
p580
V129
p581
sVPartOfSpeech
p582
VTO
p583
sVLemma
p584
Vto
p585
saa(lp586
Vcook
p587
a(dp588
VNamedEntityTag
p589
g62
sVCharacterOffsetEnd
p590
V136
p591
sVCharacterOffsetBegin
p592
V132
p593
sVPartOfSpeech
p594
VVB
p595
sVLemma
p596
Vcook
p597
saa(lp598
Vthe
p599
a(dp600
VNamedEntityTag
p601
g62
sVCharacterOffsetEnd
p602
V140
p603
sVCharacterOffsetBegin
p604
V137
p605
sVPartOfSpeech
p606
VDT
p607
sVLemma
p608
Vthe
p609
saa(lp610
Vrest
p611
a(dp612
VNamedEntityTag
p613
g62
sVCharacterOffsetEnd
p614
V145
p615
sVCharacterOffsetBegin
p616
V141
p617
sVPartOfSpeech
p618
VNN
p619
sVLemma
p620
Vrest
p621
saa(lp622
V?
p623
a(dp624
VNamedEntityTag
p625
g62
sVCharacterOffsetEnd
p626
V147
p627
sVCharacterOffsetBegin
p628
V146
p629
sVPartOfSpeech
p630
g147
sVLemma
p631
g623
saasVindexeddependencies
p632
(lp633
(lp634
Vroot
p635
aVROOT-0
p636
aVtake-14
p637
aa(lp638
Vmark
p639
aVtakes-4
p640
aVIf-1
p641
aa(lp642
Vdet
p643
aVpotato-3
p644
aVeach-2
p645
aa(lp646
Vnsubj
p647
aVtakes-4
p648
aVpotato-3
p649
aa(lp650
Vadvcl
p651
aVtake-14
p652
aVtakes-4
p653
aa(lp654
Vnum
p655
aVminutes-6
p656
aV6-5
p657
aa(lp658
Vdobj
p659
aVtakes-4
p660
aVminutes-6
p661
aa(lp662
Vaux
p663
aVcook-8
p664
aVto-7
p665
aa(lp666
Vvmod
p667
aVtakes-4
p668
aVcook-8
p669
aa(lp670
Vadvmod
p671
aVlong-11
p672
aVhow-10
p673
aa(lp674
Vdep
p675
aVtake-14
p676
aVlong-11
p677
aa(lp678
Vaux
p679
aVtake-14
p680
aVwill-12
p681
aa(lp682
Vnsubj
p683
aVtake-14
p684
aVit-13
p685
aa(lp686
Vdobj
p687
aVtake-14
p688
aVhim-15
p689
aa(lp690
Vaux
p691
aVcook-17
p692
aVto-16
p693
aa(lp694
Vxcomp
p695
aVtake-14
p696
aVcook-17
p697
aa(lp698
Vdet
p699
aVrest-19
p700
aVthe-18
p701
aa(lp702
Vdobj
p703
aVcook-17
p704
aVrest-19
p705
aasas.