(dp0
Vcoref
p1
(lp2
(lp3
(lp4
(lp5
Vhis
p6
aI0
aI11
aI11
aI12
aa(lp7
VTom
p8
aI0
aI0
aI0
aI1
aaa(lp9
(lp10
VTom
p11
aI1
aI13
aI13
aI14
aa(lp12
VTom
p13
aI0
aI0
aI0
aI1
aaaa(lp14
(lp15
(lp16
Vit
p17
aI1
aI7
aI7
aI8
aa(lp18
Veach box
p19
aI1
aI2
aI1
aI3
aaaasVsentences
p20
(lp21
(dp22
Vparsetree
p23
V(ROOT (S (NP (NNP Tom)) (VP (VP (VBD bought) (NP (NP (CD 14) (NNS boxes)) (PP (IN of) (NP (NN chocolate) (NN candy))))) (CC and) (VP (VBD gave) (NP (CD 8)) (PP (TO to) (NP (PRP$ his) (JJ little) (NN brother))))) (. .)))
p24
sVtext
p25
VTom bought 14 boxes of chocolate candy and gave 8 to his little brother .
p26
sVdependencies
p27
(lp28
(lp29
Vroot
p30
aVROOT
p31
aVbought
p32
aa(lp33
Vnsubj
p34
aVbought
p35
aVTom
p36
aa(lp37
Vnum
p38
aVboxes
p39
aV14
p40
aa(lp41
Vdobj
p42
aVbought
p43
aVboxes
p44
aa(lp45
Vnn
p46
aVcandy
p47
aVchocolate
p48
aa(lp49
Vprep_of
p50
aVboxes
p51
aVcandy
p52
aa(lp53
Vconj_and
p54
aVbought
p55
aVgave
p56
aa(lp57
Vdobj
p58
aVgave
p59
aV8
p60
aa(lp61
Vposs
p62
aVbrother
p63
aVhis
p64
aa(lp65
Vamod
p66
aVbrother
p67
aVlittle
p68
aa(lp69
Vprep_to
p70
aVgave
p71
aVbrother
p72
aasVwords
p73
(lp74
(lp75
VTom
p76
a(dp77
VNamedEntityTag
p78
VPERSON
p79
sVCharacterOffsetEnd
p80
V4
p81
sVCharacterOffsetBegin
p82
V1
p83
sVPartOfSpeech
p84
VNNP
p85
sVLemma
p86
VTom
p87
saa(lp88
Vbought
p89
a(dp90
VNamedEntityTag
p91
VO
p92
sVCharacterOffsetEnd
p93
V11
p94
sVCharacterOffsetBegin
p95
V5
p96
sVPartOfSpeech
p97
VVBD
p98
sVLemma
p99
Vbuy
p100
saa(lp101
V14
p102
a(dp103
VNormalizedNamedEntityTag
p104
V14.0
p105
sVLemma
p106
V14
p107
sVCharacterOffsetEnd
p108
V14
p109
sVPartOfSpeech
p110
VCD
p111
sVCharacterOffsetBegin
p112
V12
p113
sVNamedEntityTag
p114
VNUMBER
p115
saa(lp116
Vboxes
p117
a(dp118
VNamedEntityTag
p119
g92
sVCharacterOffsetEnd
p120
V20
p121
sVCharacterOffsetBegin
p122
V15
p123
sVPartOfSpeech
p124
VNNS
p125
sVLemma
p126
Vbox
p127
saa(lp128
Vof
p129
a(dp130
VNamedEntityTag
p131
g92
sVCharacterOffsetEnd
p132
V23
p133
sVCharacterOffsetBegin
p134
V21
p135
sVPartOfSpeech
p136
VIN
p137
sVLemma
p138
Vof
p139
saa(lp140
Vchocolate
p141
a(dp142
VNamedEntityTag
p143
g92
sVCharacterOffsetEnd
p144
V33
p145
sVCharacterOffsetBegin
p146
V24
p147
sVPartOfSpeech
p148
VNN
p149
sVLemma
p150
Vchocolate
p151
saa(lp152
Vcandy
p153
a(dp154
VNamedEntityTag
p155
g92
sVCharacterOffsetEnd
p156
V39
p157
sVCharacterOffsetBegin
p158
V34
p159
sVPartOfSpeech
p160
VNN
p161
sVLemma
p162
Vcandy
p163
saa(lp164
Vand
p165
a(dp166
VNamedEntityTag
p167
g92
sVCharacterOffsetEnd
p168
V43
p169
sVCharacterOffsetBegin
p170
V40
p171
sVPartOfSpeech
p172
VCC
p173
sVLemma
p174
Vand
p175
saa(lp176
Vgave
p177
a(dp178
VNamedEntityTag
p179
g92
sVCharacterOffsetEnd
p180
V48
p181
sVCharacterOffsetBegin
p182
V44
p183
sVPartOfSpeech
p184
VVBD
p185
sVLemma
p186
Vgive
p187
saa(lp188
g60
a(dp189
VNormalizedNamedEntityTag
p190
V8.0
p191
sVLemma
p192
g60
sVCharacterOffsetEnd
p193
V50
p194
sVPartOfSpeech
p195
VCD
p196
sVCharacterOffsetBegin
p197
V49
p198
sVNamedEntityTag
p199
VNUMBER
p200
saa(lp201
Vto
p202
a(dp203
VNamedEntityTag
p204
g92
sVCharacterOffsetEnd
p205
V53
p206
sVCharacterOffsetBegin
p207
V51
p208
sVPartOfSpeech
p209
VTO
p210
sVLemma
p211
Vto
p212
saa(lp213
Vhis
p214
a(dp215
VNamedEntityTag
p216
g92
sVCharacterOffsetEnd
p217
V57
p218
sVCharacterOffsetBegin
p219
V54
p220
sVPartOfSpeech
p221
VPRP$
p222
sVLemma
p223
Vhe
p224
saa(lp225
Vlittle
p226
a(dp227
VNamedEntityTag
p228
g92
sVCharacterOffsetEnd
p229
V64
p230
sVCharacterOffsetBegin
p231
V58
p232
sVPartOfSpeech
p233
VJJ
p234
sVLemma
p235
Vlittle
p236
saa(lp237
Vbrother
p238
a(dp239
VNamedEntityTag
p240
g92
sVCharacterOffsetEnd
p241
V72
p242
sVCharacterOffsetBegin
p243
V65
p244
sVPartOfSpeech
p245
VNN
p246
sVLemma
p247
Vbrother
p248
saa(lp249
V.
p250
a(dp251
VNamedEntityTag
p252
g92
sVCharacterOffsetEnd
p253
V74
p254
sVCharacterOffsetBegin
p255
V73
p256
sVPartOfSpeech
p257
g250
sVLemma
p258
g250
saasVindexeddependencies
p259
(lp260
(lp261
Vroot
p262
aVROOT-0
p263
aVbought-2
p264
aa(lp265
Vnsubj
p266
aVbought-2
p267
aVTom-1
p268
aa(lp269
Vnum
p270
aVboxes-4
p271
aV14-3
p272
aa(lp273
Vdobj
p274
aVbought-2
p275
aVboxes-4
p276
aa(lp277
Vnn
p278
aVcandy-7
p279
aVchocolate-6
p280
aa(lp281
Vprep_of
p282
aVboxes-4
p283
aVcandy-7
p284
aa(lp285
Vconj_and
p286
aVbought-2
p287
aVgave-9
p288
aa(lp289
Vdobj
p290
aVgave-9
p291
aV8-10
p292
aa(lp293
Vposs
p294
aVbrother-14
p295
aVhis-12
p296
aa(lp297
Vamod
p298
aVbrother-14
p299
aVlittle-13
p300
aa(lp301
Vprep_to
p302
aVgave-9
p303
aVbrother-14
p304
aasa(dp305
Vparsetree
p306
V(ROOT (SBARQ (SBAR (IN If) (S (NP (DT each) (NN box)) (VP (VBZ has) (NP (NP (CD 3) (NNS pieces)) (PP (IN inside) (NP (PRP it))))))) (, ,) (WHNP (WHADJP (WRB how) (JJ many)) (NNS pieces)) (SQ (VBD did) (NP (NNP Tom)) (ADVP (RB still)) (VP (VB have))) (. ?)))
p307
sVtext
p308
VIf each box has 3 pieces inside it , how many pieces did Tom still have ?
p309
sVdependencies
p310
(lp311
(lp312
Vroot
p313
aVROOT
p314
aVhave
p315
aa(lp316
Vmark
p317
aVhas
p318
aVIf
p319
aa(lp320
Vdet
p321
aVbox
p322
aVeach
p323
aa(lp324
Vnsubj
p325
aVhas
p326
aVbox
p327
aa(lp328
Vadvcl
p329
aVhave
p330
aVhas
p331
aa(lp332
Vnum
p333
aVpieces
p334
aV3
p335
aa(lp336
Vdobj
p337
aVhas
p338
aVpieces
p339
aa(lp340
Vprep_inside
p341
aVpieces
p342
aVit
p343
aa(lp344
Vadvmod
p345
aVmany
p346
aVhow
p347
aa(lp348
Vamod
p349
aVpieces
p350
aVmany
p351
aa(lp352
Vdobj
p353
aVhave
p354
aVpieces
p355
aa(lp356
Vaux
p357
aVhave
p358
aVdid
p359
aa(lp360
Vnsubj
p361
aVhave
p362
aVTom
p363
aa(lp364
Vadvmod
p365
aVhave
p366
aVstill
p367
aasVwords
p368
(lp369
(lp370
VIf
p371
a(dp372
VNamedEntityTag
p373
g92
sVCharacterOffsetEnd
p374
V77
p375
sVCharacterOffsetBegin
p376
V75
p377
sVPartOfSpeech
p378
VIN
p379
sVLemma
p380
Vif
p381
saa(lp382
Veach
p383
a(dp384
VNamedEntityTag
p385
g92
sVCharacterOffsetEnd
p386
V82
p387
sVCharacterOffsetBegin
p388
V78
p389
sVPartOfSpeech
p390
VDT
p391
sVLemma
p392
Veach
p393
saa(lp394
Vbox
p395
a(dp396
VNamedEntityTag
p397
g92
sVCharacterOffsetEnd
p398
V86
p399
sVCharacterOffsetBegin
p400
V83
p401
sVPartOfSpeech
p402
VNN
p403
sVLemma
p404
Vbox
p405
saa(lp406
Vhas
p407
a(dp408
VNamedEntityTag
p409
g92
sVCharacterOffsetEnd
p410
V90
p411
sVCharacterOffsetBegin
p412
V87
p413
sVPartOfSpeech
p414
VVBZ
p415
sVLemma
p416
Vhave
p417
saa(lp418
g335
a(dp419
VNormalizedNamedEntityTag
p420
V3.0
p421
sVLemma
p422
g335
sVCharacterOffsetEnd
p423
V92
p424
sVPartOfSpeech
p425
VCD
p426
sVCharacterOffsetBegin
p427
V91
p428
sVNamedEntityTag
p429
VNUMBER
p430
saa(lp431
Vpieces
p432
a(dp433
VNamedEntityTag
p434
g92
sVCharacterOffsetEnd
p435
V99
p436
sVCharacterOffsetBegin
p437
V93
p438
sVPartOfSpeech
p439
VNNS
p440
sVLemma
p441
Vpiece
p442
saa(lp443
Vinside
p444
a(dp445
VNamedEntityTag
p446
g92
sVCharacterOffsetEnd
p447
V106
p448
sVCharacterOffsetBegin
p449
V100
p450
sVPartOfSpeech
p451
VIN
p452
sVLemma
p453
Vinside
p454
saa(lp455
Vit
p456
a(dp457
VNamedEntityTag
p458
g92
sVCharacterOffsetEnd
p459
V109
p460
sVCharacterOffsetBegin
p461
V107
p462
sVPartOfSpeech
p463
VPRP
p464
sVLemma
p465
Vit
p466
saa(lp467
V,
p468
a(dp469
VNamedEntityTag
p470
g92
sVCharacterOffsetEnd
p471
V111
p472
sVCharacterOffsetBegin
p473
V110
p474
sVPartOfSpeech
p475
g468
sVLemma
p476
g468
saa(lp477
Vhow
p478
a(dp479
VNamedEntityTag
p480
g92
sVCharacterOffsetEnd
p481
V115
p482
sVCharacterOffsetBegin
p483
V112
p484
sVPartOfSpeech
p485
VWRB
p486
sVLemma
p487
Vhow
p488
saa(lp489
Vmany
p490
a(dp491
VNamedEntityTag
p492
g92
sVCharacterOffsetEnd
p493
V120
p494
sVCharacterOffsetBegin
p495
V116
p496
sVPartOfSpeech
p497
VJJ
p498
sVLemma
p499
Vmany
p500
saa(lp501
Vpieces
p502
a(dp503
VNamedEntityTag
p504
g92
sVCharacterOffsetEnd
p505
V127
p506
sVCharacterOffsetBegin
p507
V121
p508
sVPartOfSpeech
p509
VNNS
p510
sVLemma
p511
Vpiece
p512
saa(lp513
Vdid
p514
a(dp515
VNamedEntityTag
p516
g92
sVCharacterOffsetEnd
p517
V131
p518
sVCharacterOffsetBegin
p519
V128
p520
sVPartOfSpeech
p521
VVBD
p522
sVLemma
p523
Vdo
p524
saa(lp525
VTom
p526
a(dp527
VNamedEntityTag
p528
VPERSON
p529
sVCharacterOffsetEnd
p530
V135
p531
sVCharacterOffsetBegin
p532
V132
p533
sVPartOfSpeech
p534
VNNP
p535
sVLemma
p536
VTom
p537
saa(lp538
Vstill
p539
a(dp540
VNamedEntityTag
p541
g92
sVCharacterOffsetEnd
p542
V141
p543
sVCharacterOffsetBegin
p544
V136
p545
sVPartOfSpeech
p546
VRB
p547
sVLemma
p548
Vstill
p549
saa(lp550
Vhave
p551
a(dp552
VNamedEntityTag
p553
g92
sVCharacterOffsetEnd
p554
V146
p555
sVCharacterOffsetBegin
p556
V142
p557
sVPartOfSpeech
p558
VVB
p559
sVLemma
p560
Vhave
p561
saa(lp562
V?
p563
a(dp564
VNamedEntityTag
p565
g92
sVCharacterOffsetEnd
p566
V148
p567
sVCharacterOffsetBegin
p568
V147
p569
sVPartOfSpeech
p570
g250
sVLemma
p571
g563
saasVindexeddependencies
p572
(lp573
(lp574
Vroot
p575
aVROOT-0
p576
aVhave-16
p577
aa(lp578
Vmark
p579
aVhas-4
p580
aVIf-1
p581
aa(lp582
Vdet
p583
aVbox-3
p584
aVeach-2
p585
aa(lp586
Vnsubj
p587
aVhas-4
p588
aVbox-3
p589
aa(lp590
Vadvcl
p591
aVhave-16
p592
aVhas-4
p593
aa(lp594
Vnum
p595
aVpieces-6
p596
aV3-5
p597
aa(lp598
Vdobj
p599
aVhas-4
p600
aVpieces-6
p601
aa(lp602
Vprep_inside
p603
aVpieces-6
p604
aVit-8
p605
aa(lp606
Vadvmod
p607
aVmany-11
p608
aVhow-10
p609
aa(lp610
Vamod
p611
aVpieces-12
p612
aVmany-11
p613
aa(lp614
Vdobj
p615
aVhave-16
p616
aVpieces-12
p617
aa(lp618
Vaux
p619
aVhave-16
p620
aVdid-13
p621
aa(lp622
Vnsubj
p623
aVhave-16
p624
aVTom-14
p625
aa(lp626
Vadvmod
p627
aVhave-16
p628
aVstill-15
p629
aasas.