(dp0
Vcoref
p1
(lp2
(lp3
(lp4
(lp5
Vhe
p6
aI0
aI7
aI7
aI8
aa(lp7
VEdward
p8
aI0
aI0
aI0
aI1
aaa(lp9
(lp10
Vhe
p11
aI1
aI1
aI1
aI2
aa(lp12
VEdward
p13
aI0
aI0
aI0
aI1
aaa(lp14
(lp15
Vhe
p16
aI1
aI20
aI20
aI21
aa(lp17
VEdward
p18
aI0
aI0
aI0
aI1
aaaasVsentences
p19
(lp20
(dp21
Vparsetree
p22
V(ROOT (S (NP (NNP Edward)) (VP (VBD earned) (NP (NP (CD 4) (NNS dollars)) (PP (IN for) (NP (NP (DT each) (NN lawn)) (SBAR (S (NP (PRP he)) (VP (VBD mowed)))))))) (. .)))
p23
sVtext
p24
VEdward earned 4 dollars for each lawn he mowed .
p25
sVdependencies
p26
(lp27
(lp28
Vroot
p29
aVROOT
p30
aVearned
p31
aa(lp32
Vnsubj
p33
aVearned
p34
aVEdward
p35
aa(lp36
Vnum
p37
aVdollars
p38
aV4
p39
aa(lp40
Vdobj
p41
aVearned
p42
aVdollars
p43
aa(lp44
Vdet
p45
aVlawn
p46
aVeach
p47
aa(lp48
Vprep_for
p49
aVdollars
p50
aVlawn
p51
aa(lp52
Vnsubj
p53
aVmowed
p54
aVhe
p55
aa(lp56
Vrcmod
p57
aVlawn
p58
aVmowed
p59
aasVwords
p60
(lp61
(lp62
VEdward
p63
a(dp64
VNamedEntityTag
p65
VPERSON
p66
sVCharacterOffsetEnd
p67
V7
p68
sVCharacterOffsetBegin
p69
V1
p70
sVPartOfSpeech
p71
VNNP
p72
sVLemma
p73
VEdward
p74
saa(lp75
Vearned
p76
a(dp77
VNamedEntityTag
p78
VO
p79
sVCharacterOffsetEnd
p80
V14
p81
sVCharacterOffsetBegin
p82
V8
p83
sVPartOfSpeech
p84
VVBD
p85
sVLemma
p86
Vearn
p87
saa(lp88
g39
a(dp89
VNormalizedNamedEntityTag
p90
V$4.0
p91
sVLemma
p92
g39
sVCharacterOffsetEnd
p93
V16
p94
sVPartOfSpeech
p95
VCD
p96
sVCharacterOffsetBegin
p97
V15
p98
sVNamedEntityTag
p99
VMONEY
p100
saa(lp101
Vdollars
p102
a(dp103
VNormalizedNamedEntityTag
p104
V$4.0
p105
sVLemma
p106
Vdollar
p107
sVCharacterOffsetEnd
p108
V24
p109
sVPartOfSpeech
p110
VNNS
p111
sVCharacterOffsetBegin
p112
V17
p113
sVNamedEntityTag
p114
VMONEY
p115
saa(lp116
Vfor
p117
a(dp118
VNamedEntityTag
p119
g79
sVCharacterOffsetEnd
p120
V28
p121
sVCharacterOffsetBegin
p122
V25
p123
sVPartOfSpeech
p124
VIN
p125
sVLemma
p126
Vfor
p127
saa(lp128
Veach
p129
a(dp130
VNamedEntityTag
p131
g79
sVCharacterOffsetEnd
p132
V33
p133
sVCharacterOffsetBegin
p134
V29
p135
sVPartOfSpeech
p136
VDT
p137
sVLemma
p138
Veach
p139
saa(lp140
Vlawn
p141
a(dp142
VNamedEntityTag
p143
g79
sVCharacterOffsetEnd
p144
V38
p145
sVCharacterOffsetBegin
p146
V34
p147
sVPartOfSpeech
p148
VNN
p149
sVLemma
p150
Vlawn
p151
saa(lp152
Vhe
p153
a(dp154
VNamedEntityTag
p155
g79
sVCharacterOffsetEnd
p156
V41
p157
sVCharacterOffsetBegin
p158
V39
p159
sVPartOfSpeech
p160
VPRP
p161
sVLemma
p162
Vhe
p163
saa(lp164
Vmowed
p165
a(dp166
VNamedEntityTag
p167
g79
sVCharacterOffsetEnd
p168
V47
p169
sVCharacterOffsetBegin
p170
V42
p171
sVPartOfSpeech
p172
VVBD
p173
sVLemma
p174
Vmow
p175
saa(lp176
V.
p177
a(dp178
VNamedEntityTag
p179
g79
sVCharacterOffsetEnd
p180
V49
p181
sVCharacterOffsetBegin
p182
V48
p183
sVPartOfSpeech
p184
g177
sVLemma
p185
g177
saasVindexeddependencies
p186
(lp187
(lp188
Vroot
p189
aVROOT-0
p190
aVearned-2
p191
aa(lp192
Vnsubj
p193
aVearned-2
p194
aVEdward-1
p195
aa(lp196
Vnum
p197
aVdollars-4
p198
aV4-3
p199
aa(lp200
Vdobj
p201
aVearned-2
p202
aVdollars-4
p203
aa(lp204
Vdet
p205
aVlawn-7
p206
aVeach-6
p207
aa(lp208
Vprep_for
p209
aVdollars-4
p210
aVlawn-7
p211
aa(lp212
Vnsubj
p213
aVmowed-9
p214
aVhe-8
p215
aa(lp216
Vrcmod
p217
aVlawn-7
p218
aVmowed-9
p219
aasa(dp220
Vparsetree
p221
V(ROOT (SBARQ (SBAR (IN If) (S (NP (PRP he)) (VP (VP (VBD had) (NP (NP (CD 17) (NNS lawns)) (SBAR (S (VP (TO to) (VP (VB mow))))))) (, ,) (CC but) (VP (VBD forgot) (S (VP (TO to) (VP (VB mow) (NP (NP (CD 9)) (PP (IN of) (NP (PRP them))))))))))) (, ,) (WHNP (WHADJP (WRB how) (JJ much)) (NN money)) (SQ (VBD did) (NP (PRP he)) (ADVP (RB actually)) (VP (VB earn))) (. ?)))
p222
sVtext
p223
VIf he had 17 lawns to mow , but forgot to mow 9 of them , how much money did he actually earn ?
p224
sVdependencies
p225
(lp226
(lp227
Vroot
p228
aVROOT
p229
aVearn
p230
aa(lp231
Vmark
p232
aVhad
p233
aVIf
p234
aa(lp235
Vnsubj
p236
aVhad
p237
aVhe
p238
aa(lp239
Vadvcl
p240
aVearn
p241
aVhad
p242
aa(lp243
Vnum
p244
aVlawns
p245
aV17
p246
aa(lp247
Vdobj
p248
aVhad
p249
aVlawns
p250
aa(lp251
Vaux
p252
aVmow
p253
aVto
p254
aa(lp255
Vvmod
p256
aVlawns
p257
aVmow
p258
aa(lp259
Vconj_but
p260
aVhad
p261
aVforgot
p262
aa(lp263
Vaux
p264
aVmow
p265
aVto
p266
aa(lp267
Vxcomp
p268
aVforgot
p269
aVmow
p270
aa(lp271
Vdobj
p272
aVmow
p273
aV9
p274
aa(lp275
Vprep_of
p276
ag274
aVthem
p277
aa(lp278
Vadvmod
p279
aVmuch
p280
aVhow
p281
aa(lp282
Vamod
p283
aVmoney
p284
aVmuch
p285
aa(lp286
Vdobj
p287
aVearn
p288
aVmoney
p289
aa(lp290
Vaux
p291
aVearn
p292
aVdid
p293
aa(lp294
Vnsubj
p295
aVearn
p296
aVhe
p297
aa(lp298
Vadvmod
p299
aVearn
p300
aVactually
p301
aasVwords
p302
(lp303
(lp304
VIf
p305
a(dp306
VNamedEntityTag
p307
g79
sVCharacterOffsetEnd
p308
V52
p309
sVCharacterOffsetBegin
p310
V50
p311
sVPartOfSpeech
p312
VIN
p313
sVLemma
p314
Vif
p315
saa(lp316
Vhe
p317
a(dp318
VNamedEntityTag
p319
g79
sVCharacterOffsetEnd
p320
V55
p321
sVCharacterOffsetBegin
p322
V53
p323
sVPartOfSpeech
p324
VPRP
p325
sVLemma
p326
Vhe
p327
saa(lp328
Vhad
p329
a(dp330
VNamedEntityTag
p331
g79
sVCharacterOffsetEnd
p332
V59
p333
sVCharacterOffsetBegin
p334
V56
p335
sVPartOfSpeech
p336
VVBD
p337
sVLemma
p338
Vhave
p339
saa(lp340
V17
p341
a(dp342
VNormalizedNamedEntityTag
p343
V17.0
p344
sVLemma
p345
V17
p346
sVCharacterOffsetEnd
p347
V62
p348
sVPartOfSpeech
p349
VCD
p350
sVCharacterOffsetBegin
p351
V60
p352
sVNamedEntityTag
p353
VNUMBER
p354
saa(lp355
Vlawns
p356
a(dp357
VNamedEntityTag
p358
g79
sVCharacterOffsetEnd
p359
V68
p360
sVCharacterOffsetBegin
p361
V63
p362
sVPartOfSpeech
p363
VNNS
p364
sVLemma
p365
Vlawn
p366
saa(lp367
Vto
p368
a(dp369
VNamedEntityTag
p370
g79
sVCharacterOffsetEnd
p371
V71
p372
sVCharacterOffsetBegin
p373
V69
p374
sVPartOfSpeech
p375
VTO
p376
sVLemma
p377
Vto
p378
saa(lp379
Vmow
p380
a(dp381
VNamedEntityTag
p382
g79
sVCharacterOffsetEnd
p383
V75
p384
sVCharacterOffsetBegin
p385
V72
p386
sVPartOfSpeech
p387
VVB
p388
sVLemma
p389
Vmow
p390
saa(lp391
V,
p392
a(dp393
VNamedEntityTag
p394
g79
sVCharacterOffsetEnd
p395
V77
p396
sVCharacterOffsetBegin
p397
V76
p398
sVPartOfSpeech
p399
g392
sVLemma
p400
g392
saa(lp401
Vbut
p402
a(dp403
VNamedEntityTag
p404
g79
sVCharacterOffsetEnd
p405
V81
p406
sVCharacterOffsetBegin
p407
V78
p408
sVPartOfSpeech
p409
VCC
p410
sVLemma
p411
Vbut
p412
saa(lp413
Vforgot
p414
a(dp415
VNamedEntityTag
p416
g79
sVCharacterOffsetEnd
p417
V88
p418
sVCharacterOffsetBegin
p419
V82
p420
sVPartOfSpeech
p421
VVBD
p422
sVLemma
p423
Vforget
p424
saa(lp425
Vto
p426
a(dp427
VNamedEntityTag
p428
g79
sVCharacterOffsetEnd
p429
V91
p430
sVCharacterOffsetBegin
p431
V89
p432
sVPartOfSpeech
p433
VTO
p434
sVLemma
p435
Vto
p436
saa(lp437
Vmow
p438
a(dp439
VNamedEntityTag
p440
g79
sVCharacterOffsetEnd
p441
V95
p442
sVCharacterOffsetBegin
p443
V92
p444
sVPartOfSpeech
p445
VVB
p446
sVLemma
p447
Vmow
p448
saa(lp449
g274
a(dp450
VNormalizedNamedEntityTag
p451
V9.0
p452
sVLemma
p453
g274
sVCharacterOffsetEnd
p454
V97
p455
sVPartOfSpeech
p456
VCD
p457
sVCharacterOffsetBegin
p458
V96
p459
sVNamedEntityTag
p460
VNUMBER
p461
saa(lp462
Vof
p463
a(dp464
VNamedEntityTag
p465
g79
sVCharacterOffsetEnd
p466
V100
p467
sVCharacterOffsetBegin
p468
V98
p469
sVPartOfSpeech
p470
VIN
p471
sVLemma
p472
Vof
p473
saa(lp474
Vthem
p475
a(dp476
VNamedEntityTag
p477
g79
sVCharacterOffsetEnd
p478
V105
p479
sVCharacterOffsetBegin
p480
V101
p481
sVPartOfSpeech
p482
VPRP
p483
sVLemma
p484
Vthey
p485
saa(lp486
g392
a(dp487
VNamedEntityTag
p488
g79
sVCharacterOffsetEnd
p489
V107
p490
sVCharacterOffsetBegin
p491
V106
p492
sVPartOfSpeech
p493
g392
sVLemma
p494
g392
saa(lp495
Vhow
p496
a(dp497
VNamedEntityTag
p498
g79
sVCharacterOffsetEnd
p499
V111
p500
sVCharacterOffsetBegin
p501
V108
p502
sVPartOfSpeech
p503
VWRB
p504
sVLemma
p505
Vhow
p506
saa(lp507
Vmuch
p508
a(dp509
VNamedEntityTag
p510
g79
sVCharacterOffsetEnd
p511
V116
p512
sVCharacterOffsetBegin
p513
V112
p514
sVPartOfSpeech
p515
VJJ
p516
sVLemma
p517
Vmuch
p518
saa(lp519
Vmoney
p520
a(dp521
VNamedEntityTag
p522
g79
sVCharacterOffsetEnd
p523
V122
p524
sVCharacterOffsetBegin
p525
V117
p526
sVPartOfSpeech
p527
VNN
p528
sVLemma
p529
Vmoney
p530
saa(lp531
Vdid
p532
a(dp533
VNamedEntityTag
p534
g79
sVCharacterOffsetEnd
p535
V126
p536
sVCharacterOffsetBegin
p537
V123
p538
sVPartOfSpeech
p539
VVBD
p540
sVLemma
p541
Vdo
p542
saa(lp543
Vhe
p544
a(dp545
VNamedEntityTag
p546
g79
sVCharacterOffsetEnd
p547
V129
p548
sVCharacterOffsetBegin
p549
V127
p550
sVPartOfSpeech
p551
VPRP
p552
sVLemma
p553
Vhe
p554
saa(lp555
Vactually
p556
a(dp557
VNamedEntityTag
p558
g79
sVCharacterOffsetEnd
p559
V138
p560
sVCharacterOffsetBegin
p561
V130
p562
sVPartOfSpeech
p563
VRB
p564
sVLemma
p565
Vactually
p566
saa(lp567
Vearn
p568
a(dp569
VNamedEntityTag
p570
g79
sVCharacterOffsetEnd
p571
V143
p572
sVCharacterOffsetBegin
p573
V139
p574
sVPartOfSpeech
p575
VVB
p576
sVLemma
p577
Vearn
p578
saa(lp579
V?
p580
a(dp581
VNamedEntityTag
p582
g79
sVCharacterOffsetEnd
p583
V145
p584
sVCharacterOffsetBegin
p585
V144
p586
sVPartOfSpeech
p587
g177
sVLemma
p588
g580
saasVindexeddependencies
p589
(lp590
(lp591
Vroot
p592
aVROOT-0
p593
aVearn-23
p594
aa(lp595
Vmark
p596
aVhad-3
p597
aVIf-1
p598
aa(lp599
Vnsubj
p600
aVhad-3
p601
aVhe-2
p602
aa(lp603
Vadvcl
p604
aVearn-23
p605
aVhad-3
p606
aa(lp607
Vnum
p608
aVlawns-5
p609
aV17-4
p610
aa(lp611
Vdobj
p612
aVhad-3
p613
aVlawns-5
p614
aa(lp615
Vaux
p616
aVmow-7
p617
aVto-6
p618
aa(lp619
Vvmod
p620
aVlawns-5
p621
aVmow-7
p622
aa(lp623
Vconj_but
p624
aVhad-3
p625
aVforgot-10
p626
aa(lp627
Vaux
p628
aVmow-12
p629
aVto-11
p630
aa(lp631
Vxcomp
p632
aVforgot-10
p633
aVmow-12
p634
aa(lp635
Vdobj
p636
aVmow-12
p637
aV9-13
p638
aa(lp639
Vprep_of
p640
aV9-13
p641
aVthem-15
p642
aa(lp643
Vadvmod
p644
aVmuch-18
p645
aVhow-17
p646
aa(lp647
Vamod
p648
aVmoney-19
p649
aVmuch-18
p650
aa(lp651
Vdobj
p652
aVearn-23
p653
aVmoney-19
p654
aa(lp655
Vaux
p656
aVearn-23
p657
aVdid-20
p658
aa(lp659
Vnsubj
p660
aVearn-23
p661
aVhe-21
p662
aa(lp663
Vadvmod
p664
aVearn-23
p665
aVactually-22
p666
aasas.