(dp0
Vcoref
p1
(lp2
(lp3
(lp4
(lp5
Vhe
p6
aI1
aI11
aI11
aI12
aa(lp7
VJohn
p8
aI0
aI0
aI0
aI1
aaa(lp9
(lp10
Vhis
p11
aI1
aI15
aI15
aI16
aa(lp12
VJohn
p13
aI0
aI0
aI0
aI1
aaaa(lp14
(lp15
(lp16
Vhis collection
p17
aI1
aI16
aI15
aI17
aa(lp18
Va complete collection
p19
aI0
aI13
aI11
aI14
aaaasVsentences
p20
(lp21
(dp22
Vparsetree
p23
V(ROOT (S (NP (NNP John)) (VP (VP (VBD had) (NP (CD 6) (NN action) (NNS figures))) (, ,) (CC but) (VP (VBD needed) (NP (NP (CD 11) (NN total)) (PP (IN for) (NP (DT a) (JJ complete) (NN collection)))))) (. .)))
p24
sVtext
p25
VJohn had 6 action figures , but needed 11 total for a complete collection .
p26
sVdependencies
p27
(lp28
(lp29
Vroot
p30
aVROOT
p31
aVhad
p32
aa(lp33
Vnsubj
p34
aVhad
p35
aVJohn
p36
aa(lp37
Vnum
p38
aVfigures
p39
aV6
p40
aa(lp41
Vnn
p42
aVfigures
p43
aVaction
p44
aa(lp45
Vdobj
p46
aVhad
p47
aVfigures
p48
aa(lp49
Vconj_but
p50
aVhad
p51
aVneeded
p52
aa(lp53
Vnum
p54
aVtotal
p55
aV11
p56
aa(lp57
Vdobj
p58
aVneeded
p59
aVtotal
p60
aa(lp61
Vdet
p62
aVcollection
p63
aVa
p64
aa(lp65
Vamod
p66
aVcollection
p67
aVcomplete
p68
aa(lp69
Vprep_for
p70
aVtotal
p71
aVcollection
p72
aasVwords
p73
(lp74
(lp75
VJohn
p76
a(dp77
VNamedEntityTag
p78
VPERSON
p79
sVCharacterOffsetEnd
p80
V5
p81
sVCharacterOffsetBegin
p82
V1
p83
sVPartOfSpeech
p84
VNNP
p85
sVLemma
p86
VJohn
p87
saa(lp88
Vhad
p89
a(dp90
VNamedEntityTag
p91
VO
p92
sVCharacterOffsetEnd
p93
V9
p94
sVCharacterOffsetBegin
p95
g40
sVPartOfSpeech
p96
VVBD
p97
sVLemma
p98
Vhave
p99
saa(lp100
g40
a(dp101
VNormalizedNamedEntityTag
p102
V6.0
p103
sVLemma
p104
g40
sVCharacterOffsetEnd
p105
V11
p106
sVPartOfSpeech
p107
VCD
p108
sVCharacterOffsetBegin
p109
V10
p110
sVNamedEntityTag
p111
VNUMBER
p112
saa(lp113
Vaction
p114
a(dp115
VNamedEntityTag
p116
g92
sVCharacterOffsetEnd
p117
V18
p118
sVCharacterOffsetBegin
p119
V12
p120
sVPartOfSpeech
p121
VNN
p122
sVLemma
p123
Vaction
p124
saa(lp125
Vfigures
p126
a(dp127
VNamedEntityTag
p128
g92
sVCharacterOffsetEnd
p129
V26
p130
sVCharacterOffsetBegin
p131
V19
p132
sVPartOfSpeech
p133
VNNS
p134
sVLemma
p135
Vfigure
p136
saa(lp137
V,
p138
a(dp139
VNamedEntityTag
p140
g92
sVCharacterOffsetEnd
p141
V28
p142
sVCharacterOffsetBegin
p143
V27
p144
sVPartOfSpeech
p145
g138
sVLemma
p146
g138
saa(lp147
Vbut
p148
a(dp149
VNamedEntityTag
p150
g92
sVCharacterOffsetEnd
p151
V32
p152
sVCharacterOffsetBegin
p153
V29
p154
sVPartOfSpeech
p155
VCC
p156
sVLemma
p157
Vbut
p158
saa(lp159
Vneeded
p160
a(dp161
VNamedEntityTag
p162
g92
sVCharacterOffsetEnd
p163
V39
p164
sVCharacterOffsetBegin
p165
V33
p166
sVPartOfSpeech
p167
VVBD
p168
sVLemma
p169
Vneed
p170
saa(lp171
V11
p172
a(dp173
VNormalizedNamedEntityTag
p174
V11.0
p175
sVLemma
p176
V11
p177
sVCharacterOffsetEnd
p178
V42
p179
sVPartOfSpeech
p180
VCD
p181
sVCharacterOffsetBegin
p182
V40
p183
sVNamedEntityTag
p184
VNUMBER
p185
saa(lp186
Vtotal
p187
a(dp188
VNamedEntityTag
p189
g92
sVCharacterOffsetEnd
p190
V48
p191
sVCharacterOffsetBegin
p192
V43
p193
sVPartOfSpeech
p194
VNN
p195
sVLemma
p196
Vtotal
p197
saa(lp198
Vfor
p199
a(dp200
VNamedEntityTag
p201
g92
sVCharacterOffsetEnd
p202
V52
p203
sVCharacterOffsetBegin
p204
V49
p205
sVPartOfSpeech
p206
VIN
p207
sVLemma
p208
Vfor
p209
saa(lp210
g64
a(dp211
VNamedEntityTag
p212
g92
sVCharacterOffsetEnd
p213
V54
p214
sVCharacterOffsetBegin
p215
V53
p216
sVPartOfSpeech
p217
VDT
p218
sVLemma
p219
g64
saa(lp220
Vcomplete
p221
a(dp222
VNamedEntityTag
p223
g92
sVCharacterOffsetEnd
p224
V63
p225
sVCharacterOffsetBegin
p226
V55
p227
sVPartOfSpeech
p228
VJJ
p229
sVLemma
p230
Vcomplete
p231
saa(lp232
Vcollection
p233
a(dp234
VNamedEntityTag
p235
g92
sVCharacterOffsetEnd
p236
V74
p237
sVCharacterOffsetBegin
p238
V64
p239
sVPartOfSpeech
p240
VNN
p241
sVLemma
p242
Vcollection
p243
saa(lp244
V.
p245
a(dp246
VNamedEntityTag
p247
g92
sVCharacterOffsetEnd
p248
V76
p249
sVCharacterOffsetBegin
p250
V75
p251
sVPartOfSpeech
p252
g245
sVLemma
p253
g245
saasVindexeddependencies
p254
(lp255
(lp256
Vroot
p257
aVROOT-0
p258
aVhad-2
p259
aa(lp260
Vnsubj
p261
aVhad-2
p262
aVJohn-1
p263
aa(lp264
Vnum
p265
aVfigures-5
p266
aV6-3
p267
aa(lp268
Vnn
p269
aVfigures-5
p270
aVaction-4
p271
aa(lp272
Vdobj
p273
aVhad-2
p274
aVfigures-5
p275
aa(lp276
Vconj_but
p277
aVhad-2
p278
aVneeded-8
p279
aa(lp280
Vnum
p281
aVtotal-10
p282
aV11-9
p283
aa(lp284
Vdobj
p285
aVneeded-8
p286
aVtotal-10
p287
aa(lp288
Vdet
p289
aVcollection-14
p290
aVa-12
p291
aa(lp292
Vamod
p293
aVcollection-14
p294
aVcomplete-13
p295
aa(lp296
Vprep_for
p297
aVtotal-10
p298
aVcollection-14
p299
aasa(dp300
Vparsetree
p301
V(ROOT (SBARQ (SBAR (IN If) (FRAG (NP (NP (DT each) (CD one) (NNS costs)) (ADJP ($ $) (CD 6))))) (, ,) (WHNP (WHADJP (WRB how) (JJ much)) (NN money)) (SQ (MD would) (NP (PRP he)) (VP (VB need) (S (VP (TO to) (VP (VB finish) (NP (PRP$ his) (NN collection)))))) (. ?))))
p302
sVtext
p303
VIf each one costs $6 , how much money would he need to finish his collection ?
p304
sVdependencies
p305
(lp306
(lp307
Vroot
p308
aVROOT
p309
aVneed
p310
aa(lp311
Vmark
p312
aVcosts
p313
aVIf
p314
aa(lp315
Vdet
p316
aVcosts
p317
aVeach
p318
aa(lp319
Vnum
p320
aVcosts
p321
aVone
p322
aa(lp323
Vadvcl
p324
aVneed
p325
aVcosts
p326
aa(lp327
Vamod
p328
aVcosts
p329
aV$
p330
aa(lp331
Vnumber
p332
ag330
ag40
aa(lp333
Vadvmod
p334
aVmuch
p335
aVhow
p336
aa(lp337
Vamod
p338
aVmoney
p339
aVmuch
p340
aa(lp341
Vdep
p342
aVneed
p343
aVmoney
p344
aa(lp345
Vaux
p346
aVneed
p347
aVwould
p348
aa(lp349
Vnsubj
p350
aVneed
p351
aVhe
p352
aa(lp353
Vaux
p354
aVfinish
p355
aVto
p356
aa(lp357
Vxcomp
p358
aVneed
p359
aVfinish
p360
aa(lp361
Vposs
p362
aVcollection
p363
aVhis
p364
aa(lp365
Vdobj
p366
aVfinish
p367
aVcollection
p368
aasVwords
p369
(lp370
(lp371
VIf
p372
a(dp373
VNamedEntityTag
p374
g92
sVCharacterOffsetEnd
p375
V79
p376
sVCharacterOffsetBegin
p377
V77
p378
sVPartOfSpeech
p379
VIN
p380
sVLemma
p381
Vif
p382
saa(lp383
Veach
p384
a(dp385
VNamedEntityTag
p386
g92
sVCharacterOffsetEnd
p387
V84
p388
sVCharacterOffsetBegin
p389
V80
p390
sVPartOfSpeech
p391
VDT
p392
sVLemma
p393
Veach
p394
saa(lp395
Vone
p396
a(dp397
VNormalizedNamedEntityTag
p398
V1.0
p399
sVLemma
p400
Vone
p401
sVCharacterOffsetEnd
p402
V88
p403
sVPartOfSpeech
p404
VCD
p405
sVCharacterOffsetBegin
p406
V85
p407
sVNamedEntityTag
p408
VNUMBER
p409
saa(lp410
Vcosts
p411
a(dp412
VNamedEntityTag
p413
g92
sVCharacterOffsetEnd
p414
V94
p415
sVCharacterOffsetBegin
p416
V89
p417
sVPartOfSpeech
p418
VNNS
p419
sVLemma
p420
Vcost
p421
saa(lp422
g330
a(dp423
VNormalizedNamedEntityTag
p424
V$6.0
p425
sVLemma
p426
g330
sVCharacterOffsetEnd
p427
V96
p428
sVPartOfSpeech
p429
g330
sVCharacterOffsetBegin
p430
V95
p431
sVNamedEntityTag
p432
VMONEY
p433
saa(lp434
g40
a(dp435
VNormalizedNamedEntityTag
p436
V$6.0
p437
sVLemma
p438
g40
sVCharacterOffsetEnd
p439
V97
p440
sVPartOfSpeech
p441
VCD
p442
sVCharacterOffsetBegin
p443
V96
p444
sVNamedEntityTag
p445
VMONEY
p446
saa(lp447
g138
a(dp448
VNamedEntityTag
p449
g92
sVCharacterOffsetEnd
p450
V99
p451
sVCharacterOffsetBegin
p452
V98
p453
sVPartOfSpeech
p454
g138
sVLemma
p455
g138
saa(lp456
Vhow
p457
a(dp458
VNamedEntityTag
p459
g92
sVCharacterOffsetEnd
p460
V103
p461
sVCharacterOffsetBegin
p462
V100
p463
sVPartOfSpeech
p464
VWRB
p465
sVLemma
p466
Vhow
p467
saa(lp468
Vmuch
p469
a(dp470
VNamedEntityTag
p471
g92
sVCharacterOffsetEnd
p472
V108
p473
sVCharacterOffsetBegin
p474
V104
p475
sVPartOfSpeech
p476
VJJ
p477
sVLemma
p478
Vmuch
p479
saa(lp480
Vmoney
p481
a(dp482
VNamedEntityTag
p483
g92
sVCharacterOffsetEnd
p484
V114
p485
sVCharacterOffsetBegin
p486
V109
p487
sVPartOfSpeech
p488
VNN
p489
sVLemma
p490
Vmoney
p491
saa(lp492
Vwould
p493
a(dp494
VNamedEntityTag
p495
g92
sVCharacterOffsetEnd
p496
V120
p497
sVCharacterOffsetBegin
p498
V115
p499
sVPartOfSpeech
p500
VMD
p501
sVLemma
p502
Vwould
p503
saa(lp504
Vhe
p505
a(dp506
VNamedEntityTag
p507
g92
sVCharacterOffsetEnd
p508
V123
p509
sVCharacterOffsetBegin
p510
V121
p511
sVPartOfSpeech
p512
VPRP
p513
sVLemma
p514
Vhe
p515
saa(lp516
Vneed
p517
a(dp518
VNamedEntityTag
p519
g92
sVCharacterOffsetEnd
p520
V128
p521
sVCharacterOffsetBegin
p522
V124
p523
sVPartOfSpeech
p524
VVB
p525
sVLemma
p526
Vneed
p527
saa(lp528
Vto
p529
a(dp530
VNamedEntityTag
p531
g92
sVCharacterOffsetEnd
p532
V131
p533
sVCharacterOffsetBegin
p534
V129
p535
sVPartOfSpeech
p536
VTO
p537
sVLemma
p538
Vto
p539
saa(lp540
Vfinish
p541
a(dp542
VNamedEntityTag
p543
g92
sVCharacterOffsetEnd
p544
V138
p545
sVCharacterOffsetBegin
p546
V132
p547
sVPartOfSpeech
p548
VVB
p549
sVLemma
p550
Vfinish
p551
saa(lp552
Vhis
p553
a(dp554
VNamedEntityTag
p555
g92
sVCharacterOffsetEnd
p556
V142
p557
sVCharacterOffsetBegin
p558
V139
p559
sVPartOfSpeech
p560
VPRP$
p561
sVLemma
p562
Vhe
p563
saa(lp564
Vcollection
p565
a(dp566
VNamedEntityTag
p567
g92
sVCharacterOffsetEnd
p568
V153
p569
sVCharacterOffsetBegin
p570
V143
p571
sVPartOfSpeech
p572
VNN
p573
sVLemma
p574
Vcollection
p575
saa(lp576
V?
p577
a(dp578
VNamedEntityTag
p579
g92
sVCharacterOffsetEnd
p580
V155
p581
sVCharacterOffsetBegin
p582
V154
p583
sVPartOfSpeech
p584
g245
sVLemma
p585
g577
saasVindexeddependencies
p586
(lp587
(lp588
Vroot
p589
aVROOT-0
p590
aVneed-13
p591
aa(lp592
Vmark
p593
aVcosts-4
p594
aVIf-1
p595
aa(lp596
Vdet
p597
aVcosts-4
p598
aVeach-2
p599
aa(lp600
Vnum
p601
aVcosts-4
p602
aVone-3
p603
aa(lp604
Vadvcl
p605
aVneed-13
p606
aVcosts-4
p607
aa(lp608
Vamod
p609
aVcosts-4
p610
aV$-5
p611
aa(lp612
Vnumber
p613
aV$-5
p614
aV6-6
p615
aa(lp616
Vadvmod
p617
aVmuch-9
p618
aVhow-8
p619
aa(lp620
Vamod
p621
aVmoney-10
p622
aVmuch-9
p623
aa(lp624
Vdep
p625
aVneed-13
p626
aVmoney-10
p627
aa(lp628
Vaux
p629
aVneed-13
p630
aVwould-11
p631
aa(lp632
Vnsubj
p633
aVneed-13
p634
aVhe-12
p635
aa(lp636
Vaux
p637
aVfinish-15
p638
aVto-14
p639
aa(lp640
Vxcomp
p641
aVneed-13
p642
aVfinish-15
p643
aa(lp644
Vposs
p645
aVcollection-17
p646
aVhis-16
p647
aa(lp648
Vdobj
p649
aVfinish-15
p650
aVcollection-17
p651
aasas.