(dp0
Vcoref
p1
(lp2
(lp3
(lp4
(lp5
Vhe
p6
aI1
aI5
aI5
aI6
aa(lp7
VKaleb
p8
aI0
aI3
aI3
aI4
aaa(lp9
(lp10
VKaleb
p11
aI2
aI11
aI11
aI12
aa(lp12
VKaleb
p13
aI0
aI3
aI3
aI4
aaaa(lp14
(lp15
(lp16
Vthe ferris wheel
p17
aI2
aI16
aI14
aI17
aa(lp18
Vthe ferris wheel
p19
aI1
aI4
aI2
aI5
aaaasVsentences
p20
(lp21
(dp22
Vparsetree
p23
V(ROOT (S (PP (IN At) (NP (DT the) (JJ fair))) (NP (NNP Kaleb)) (VP (VBD bought) (NP (CD 6) (NNS tickets))) (. .)))
p24
sVtext
p25
VAt the fair Kaleb bought 6 tickets .
p26
sVdependencies
p27
(lp28
(lp29
Vroot
p30
aVROOT
p31
aVbought
p32
aa(lp33
Vdet
p34
aVfair
p35
aVthe
p36
aa(lp37
Vprep_at
p38
aVbought
p39
aVfair
p40
aa(lp41
Vnsubj
p42
aVbought
p43
aVKaleb
p44
aa(lp45
Vnum
p46
aVtickets
p47
aV6
p48
aa(lp49
Vdobj
p50
aVbought
p51
aVtickets
p52
aasVwords
p53
(lp54
(lp55
VAt
p56
a(dp57
VNamedEntityTag
p58
VO
p59
sVCharacterOffsetEnd
p60
V3
p61
sVCharacterOffsetBegin
p62
V1
p63
sVPartOfSpeech
p64
VIN
p65
sVLemma
p66
Vat
p67
saa(lp68
Vthe
p69
a(dp70
VNamedEntityTag
p71
g59
sVCharacterOffsetEnd
p72
V7
p73
sVCharacterOffsetBegin
p74
V4
p75
sVPartOfSpeech
p76
VDT
p77
sVLemma
p78
Vthe
p79
saa(lp80
Vfair
p81
a(dp82
VNamedEntityTag
p83
g59
sVCharacterOffsetEnd
p84
V12
p85
sVCharacterOffsetBegin
p86
V8
p87
sVPartOfSpeech
p88
VJJ
p89
sVLemma
p90
Vfair
p91
saa(lp92
VKaleb
p93
a(dp94
VNamedEntityTag
p95
VPERSON
p96
sVCharacterOffsetEnd
p97
V18
p98
sVCharacterOffsetBegin
p99
V13
p100
sVPartOfSpeech
p101
VNNP
p102
sVLemma
p103
VKaleb
p104
saa(lp105
Vbought
p106
a(dp107
VNamedEntityTag
p108
g59
sVCharacterOffsetEnd
p109
V25
p110
sVCharacterOffsetBegin
p111
V19
p112
sVPartOfSpeech
p113
VVBD
p114
sVLemma
p115
Vbuy
p116
saa(lp117
g48
a(dp118
VNormalizedNamedEntityTag
p119
V6.0
p120
sVLemma
p121
g48
sVCharacterOffsetEnd
p122
V27
p123
sVPartOfSpeech
p124
VCD
p125
sVCharacterOffsetBegin
p126
V26
p127
sVNamedEntityTag
p128
VNUMBER
p129
saa(lp130
Vtickets
p131
a(dp132
VNamedEntityTag
p133
g59
sVCharacterOffsetEnd
p134
V35
p135
sVCharacterOffsetBegin
p136
V28
p137
sVPartOfSpeech
p138
VNNS
p139
sVLemma
p140
Vticket
p141
saa(lp142
V.
p143
a(dp144
VNamedEntityTag
p145
g59
sVCharacterOffsetEnd
p146
V37
p147
sVCharacterOffsetBegin
p148
V36
p149
sVPartOfSpeech
p150
g143
sVLemma
p151
g143
saasVindexeddependencies
p152
(lp153
(lp154
Vroot
p155
aVROOT-0
p156
aVbought-5
p157
aa(lp158
Vdet
p159
aVfair-3
p160
aVthe-2
p161
aa(lp162
Vprep_at
p163
aVbought-5
p164
aVfair-3
p165
aa(lp166
Vnsubj
p167
aVbought-5
p168
aVKaleb-4
p169
aa(lp170
Vnum
p171
aVtickets-7
p172
aV6-6
p173
aa(lp174
Vdobj
p175
aVbought-5
p176
aVtickets-7
p177
aasa(dp178
Vparsetree
p179
V(ROOT (S (PP (IN After) (S (VP (VBG riding) (NP (DT the) (ADJP (JJ ferris)) (NN wheel))))) (NP (PRP he)) (VP (VBD had) (NP (NP (CD 3) (NNS tickets)) (SBAR (S (VP (VBD left)))))) (. .)))
p180
sVtext
p181
VAfter riding the ferris wheel he had 3 tickets left .
p182
sVdependencies
p183
(lp184
(lp185
Vroot
p186
aVROOT
p187
aVhad
p188
aa(lp189
Vprepc_after
p190
aVhad
p191
aVriding
p192
aa(lp193
Vdet
p194
aVwheel
p195
aVthe
p196
aa(lp197
Vamod
p198
aVwheel
p199
aVferris
p200
aa(lp201
Vdobj
p202
aVriding
p203
aVwheel
p204
aa(lp205
Vnsubj
p206
aVhad
p207
aVhe
p208
aa(lp209
Vnum
p210
aVtickets
p211
ag61
aa(lp212
Vdobj
p213
aVhad
p214
aVtickets
p215
aa(lp216
Vrcmod
p217
aVtickets
p218
aVleft
p219
aasVwords
p220
(lp221
(lp222
VAfter
p223
a(dp224
VNamedEntityTag
p225
g59
sVCharacterOffsetEnd
p226
V43
p227
sVCharacterOffsetBegin
p228
V38
p229
sVPartOfSpeech
p230
VIN
p231
sVLemma
p232
Vafter
p233
saa(lp234
Vriding
p235
a(dp236
VNamedEntityTag
p237
g59
sVCharacterOffsetEnd
p238
V50
p239
sVCharacterOffsetBegin
p240
V44
p241
sVPartOfSpeech
p242
VVBG
p243
sVLemma
p244
Vride
p245
saa(lp246
Vthe
p247
a(dp248
VNamedEntityTag
p249
g59
sVCharacterOffsetEnd
p250
V54
p251
sVCharacterOffsetBegin
p252
V51
p253
sVPartOfSpeech
p254
VDT
p255
sVLemma
p256
Vthe
p257
saa(lp258
Vferris
p259
a(dp260
VNamedEntityTag
p261
g59
sVCharacterOffsetEnd
p262
V61
p263
sVCharacterOffsetBegin
p264
V55
p265
sVPartOfSpeech
p266
VJJ
p267
sVLemma
p268
Vferris
p269
saa(lp270
Vwheel
p271
a(dp272
VNamedEntityTag
p273
g59
sVCharacterOffsetEnd
p274
V67
p275
sVCharacterOffsetBegin
p276
V62
p277
sVPartOfSpeech
p278
VNN
p279
sVLemma
p280
Vwheel
p281
saa(lp282
Vhe
p283
a(dp284
VNamedEntityTag
p285
g59
sVCharacterOffsetEnd
p286
V70
p287
sVCharacterOffsetBegin
p288
V68
p289
sVPartOfSpeech
p290
VPRP
p291
sVLemma
p292
Vhe
p293
saa(lp294
Vhad
p295
a(dp296
VNamedEntityTag
p297
g59
sVCharacterOffsetEnd
p298
V74
p299
sVCharacterOffsetBegin
p300
V71
p301
sVPartOfSpeech
p302
VVBD
p303
sVLemma
p304
Vhave
p305
saa(lp306
g61
a(dp307
VNormalizedNamedEntityTag
p308
V3.0
p309
sVLemma
p310
g61
sVCharacterOffsetEnd
p311
V76
p312
sVPartOfSpeech
p313
VCD
p314
sVCharacterOffsetBegin
p315
V75
p316
sVNamedEntityTag
p317
VNUMBER
p318
saa(lp319
Vtickets
p320
a(dp321
VNamedEntityTag
p322
g59
sVCharacterOffsetEnd
p323
V84
p324
sVCharacterOffsetBegin
p325
V77
p326
sVPartOfSpeech
p327
VNNS
p328
sVLemma
p329
Vticket
p330
saa(lp331
Vleft
p332
a(dp333
VNamedEntityTag
p334
g59
sVCharacterOffsetEnd
p335
V89
p336
sVCharacterOffsetBegin
p337
V85
p338
sVPartOfSpeech
p339
VVBD
p340
sVLemma
p341
Vleave
p342
saa(lp343
g143
a(dp344
VNamedEntityTag
p345
g59
sVCharacterOffsetEnd
p346
V91
p347
sVCharacterOffsetBegin
p348
V90
p349
sVPartOfSpeech
p350
g143
sVLemma
p351
g143
saasVindexeddependencies
p352
(lp353
(lp354
Vroot
p355
aVROOT-0
p356
aVhad-7
p357
aa(lp358
Vprepc_after
p359
aVhad-7
p360
aVriding-2
p361
aa(lp362
Vdet
p363
aVwheel-5
p364
aVthe-3
p365
aa(lp366
Vamod
p367
aVwheel-5
p368
aVferris-4
p369
aa(lp370
Vdobj
p371
aVriding-2
p372
aVwheel-5
p373
aa(lp374
Vnsubj
p375
aVhad-7
p376
aVhe-6
p377
aa(lp378
Vnum
p379
aVtickets-9
p380
aV3-8
p381
aa(lp382
Vdobj
p383
aVhad-7
p384
aVtickets-9
p385
aa(lp386
Vrcmod
p387
aVtickets-9
p388
aVleft-10
p389
aasa(dp390
Vparsetree
p391
V(ROOT (SBARQ (PP (IN If) (NP (NP (DT each) (NN ticket) (NN cost)) (NP (CD 9) (NNS dollars)))) (, ,) (WHNP (WHADJP (WRB how) (JJ much)) (NN money)) (SQ (VBD did) (NP (NNP Kaleb)) (VP (VB spend) (S (VP (VBG riding) (NP (DT the) (ADJP (JJ ferris)) (NN wheel)))))) (. ?)))
p392
sVtext
p393
VIf each ticket cost 9 dollars , how much money did Kaleb spend riding the ferris wheel ?
p394
sVdependencies
p395
(lp396
(lp397
Vroot
p398
aVROOT
p399
aVspend
p400
aa(lp401
Vdet
p402
aVcost
p403
aVeach
p404
aa(lp405
Vnn
p406
aVcost
p407
aVticket
p408
aa(lp409
Vprep_if
p410
aVspend
p411
aVcost
p412
aa(lp413
Vnum
p414
aVdollars
p415
aV9
p416
aa(lp417
Vdep
p418
aVcost
p419
aVdollars
p420
aa(lp421
Vadvmod
p422
aVmuch
p423
aVhow
p424
aa(lp425
Vamod
p426
aVmoney
p427
aVmuch
p428
aa(lp429
Vdobj
p430
aVspend
p431
aVmoney
p432
aa(lp433
Vaux
p434
aVspend
p435
aVdid
p436
aa(lp437
Vnsubj
p438
aVspend
p439
aVKaleb
p440
aa(lp441
Vxcomp
p442
aVspend
p443
aVriding
p444
aa(lp445
Vdet
p446
aVwheel
p447
aVthe
p448
aa(lp449
Vamod
p450
aVwheel
p451
aVferris
p452
aa(lp453
Vdobj
p454
aVriding
p455
aVwheel
p456
aasVwords
p457
(lp458
(lp459
VIf
p460
a(dp461
VNamedEntityTag
p462
g59
sVCharacterOffsetEnd
p463
V94
p464
sVCharacterOffsetBegin
p465
V92
p466
sVPartOfSpeech
p467
VIN
p468
sVLemma
p469
Vif
p470
saa(lp471
Veach
p472
a(dp473
VNamedEntityTag
p474
g59
sVCharacterOffsetEnd
p475
V99
p476
sVCharacterOffsetBegin
p477
V95
p478
sVPartOfSpeech
p479
VDT
p480
sVLemma
p481
Veach
p482
saa(lp483
Vticket
p484
a(dp485
VNamedEntityTag
p486
g59
sVCharacterOffsetEnd
p487
V106
p488
sVCharacterOffsetBegin
p489
V100
p490
sVPartOfSpeech
p491
VNN
p492
sVLemma
p493
Vticket
p494
saa(lp495
Vcost
p496
a(dp497
VNamedEntityTag
p498
g59
sVCharacterOffsetEnd
p499
V111
p500
sVCharacterOffsetBegin
p501
V107
p502
sVPartOfSpeech
p503
VNN
p504
sVLemma
p505
Vcost
p506
saa(lp507
g416
a(dp508
VNormalizedNamedEntityTag
p509
V$9.0
p510
sVLemma
p511
g416
sVCharacterOffsetEnd
p512
V113
p513
sVPartOfSpeech
p514
VCD
p515
sVCharacterOffsetBegin
p516
V112
p517
sVNamedEntityTag
p518
VMONEY
p519
saa(lp520
Vdollars
p521
a(dp522
VNormalizedNamedEntityTag
p523
V$9.0
p524
sVLemma
p525
Vdollar
p526
sVCharacterOffsetEnd
p527
V121
p528
sVPartOfSpeech
p529
VNNS
p530
sVCharacterOffsetBegin
p531
V114
p532
sVNamedEntityTag
p533
VMONEY
p534
saa(lp535
V,
p536
a(dp537
VNamedEntityTag
p538
g59
sVCharacterOffsetEnd
p539
V123
p540
sVCharacterOffsetBegin
p541
V122
p542
sVPartOfSpeech
p543
g536
sVLemma
p544
g536
saa(lp545
Vhow
p546
a(dp547
VNamedEntityTag
p548
g59
sVCharacterOffsetEnd
p549
V127
p550
sVCharacterOffsetBegin
p551
V124
p552
sVPartOfSpeech
p553
VWRB
p554
sVLemma
p555
Vhow
p556
saa(lp557
Vmuch
p558
a(dp559
VNamedEntityTag
p560
g59
sVCharacterOffsetEnd
p561
V132
p562
sVCharacterOffsetBegin
p563
V128
p564
sVPartOfSpeech
p565
VJJ
p566
sVLemma
p567
Vmuch
p568
saa(lp569
Vmoney
p570
a(dp571
VNamedEntityTag
p572
g59
sVCharacterOffsetEnd
p573
V138
p574
sVCharacterOffsetBegin
p575
V133
p576
sVPartOfSpeech
p577
VNN
p578
sVLemma
p579
Vmoney
p580
saa(lp581
Vdid
p582
a(dp583
VNamedEntityTag
p584
g59
sVCharacterOffsetEnd
p585
V142
p586
sVCharacterOffsetBegin
p587
V139
p588
sVPartOfSpeech
p589
VVBD
p590
sVLemma
p591
Vdo
p592
saa(lp593
VKaleb
p594
a(dp595
VNamedEntityTag
p596
VPERSON
p597
sVCharacterOffsetEnd
p598
V148
p599
sVCharacterOffsetBegin
p600
V143
p601
sVPartOfSpeech
p602
VNNP
p603
sVLemma
p604
VKaleb
p605
saa(lp606
Vspend
p607
a(dp608
VNamedEntityTag
p609
g59
sVCharacterOffsetEnd
p610
V154
p611
sVCharacterOffsetBegin
p612
V149
p613
sVPartOfSpeech
p614
VVB
p615
sVLemma
p616
Vspend
p617
saa(lp618
Vriding
p619
a(dp620
VNamedEntityTag
p621
g59
sVCharacterOffsetEnd
p622
V161
p623
sVCharacterOffsetBegin
p624
V155
p625
sVPartOfSpeech
p626
VVBG
p627
sVLemma
p628
Vride
p629
saa(lp630
Vthe
p631
a(dp632
VNamedEntityTag
p633
g59
sVCharacterOffsetEnd
p634
V165
p635
sVCharacterOffsetBegin
p636
V162
p637
sVPartOfSpeech
p638
VDT
p639
sVLemma
p640
Vthe
p641
saa(lp642
Vferris
p643
a(dp644
VNamedEntityTag
p645
g59
sVCharacterOffsetEnd
p646
V172
p647
sVCharacterOffsetBegin
p648
V166
p649
sVPartOfSpeech
p650
VJJ
p651
sVLemma
p652
Vferris
p653
saa(lp654
Vwheel
p655
a(dp656
VNamedEntityTag
p657
g59
sVCharacterOffsetEnd
p658
V178
p659
sVCharacterOffsetBegin
p660
V173
p661
sVPartOfSpeech
p662
VNN
p663
sVLemma
p664
Vwheel
p665
saa(lp666
V?
p667
a(dp668
VNamedEntityTag
p669
g59
sVCharacterOffsetEnd
p670
V180
p671
sVCharacterOffsetBegin
p672
V179
p673
sVPartOfSpeech
p674
g143
sVLemma
p675
g667
saasVindexeddependencies
p676
(lp677
(lp678
Vroot
p679
aVROOT-0
p680
aVspend-13
p681
aa(lp682
Vdet
p683
aVcost-4
p684
aVeach-2
p685
aa(lp686
Vnn
p687
aVcost-4
p688
aVticket-3
p689
aa(lp690
Vprep_if
p691
aVspend-13
p692
aVcost-4
p693
aa(lp694
Vnum
p695
aVdollars-6
p696
aV9-5
p697
aa(lp698
Vdep
p699
aVcost-4
p700
aVdollars-6
p701
aa(lp702
Vadvmod
p703
aVmuch-9
p704
aVhow-8
p705
aa(lp706
Vamod
p707
aVmoney-10
p708
aVmuch-9
p709
aa(lp710
Vdobj
p711
aVspend-13
p712
aVmoney-10
p713
aa(lp714
Vaux
p715
aVspend-13
p716
aVdid-11
p717
aa(lp718
Vnsubj
p719
aVspend-13
p720
aVKaleb-12
p721
aa(lp722
Vxcomp
p723
aVspend-13
p724
aVriding-14
p725
aa(lp726
Vdet
p727
aVwheel-17
p728
aVthe-15
p729
aa(lp730
Vamod
p731
aVwheel-17
p732
aVferris-16
p733
aa(lp734
Vdobj
p735
aVriding-14
p736
aVwheel-17
p737
aasas.