(dp0
Vcoref
p1
(lp2
(lp3
(lp4
(lp5
Vthem
p6
aI1
aI14
aI14
aI15
aa(lp7
V11 enemies total
p8
aI1
aI5
aI4
aI7
aaaasVsentences
p9
(lp10
(dp11
Vparsetree
p12
V(ROOT (S (PP (IN In) (NP (DT a) (NN video) (NN game))) (, ,) (NP (DT each) (NN enemy)) (VP (VBD defeated) (SBAR (S (VP (VBZ gives) (NP (PRP you)) (NP (CD 7) (NNS points)))))) (. .)))
p13
sVtext
p14
VIn a video game , each enemy defeated gives you 7 points .
p15
sVdependencies
p16
(lp17
(lp18
Vroot
p19
aVROOT
p20
aVdefeated
p21
aa(lp22
Vdet
p23
aVgame
p24
aVa
p25
aa(lp26
Vnn
p27
aVgame
p28
aVvideo
p29
aa(lp30
Vprep_in
p31
aVdefeated
p32
aVgame
p33
aa(lp34
Vdet
p35
aVenemy
p36
aVeach
p37
aa(lp38
Vnsubj
p39
aVdefeated
p40
aVenemy
p41
aa(lp42
Vccomp
p43
aVdefeated
p44
aVgives
p45
aa(lp46
Viobj
p47
aVgives
p48
aVyou
p49
aa(lp50
Vnum
p51
aVpoints
p52
aV7
p53
aa(lp54
Vdobj
p55
aVgives
p56
aVpoints
p57
aasVwords
p58
(lp59
(lp60
VIn
p61
a(dp62
VNamedEntityTag
p63
VO
p64
sVCharacterOffsetEnd
p65
V3
p66
sVCharacterOffsetBegin
p67
V1
p68
sVPartOfSpeech
p69
VIN
p70
sVLemma
p71
Vin
p72
saa(lp73
g25
a(dp74
VNamedEntityTag
p75
g64
sVCharacterOffsetEnd
p76
V5
p77
sVCharacterOffsetBegin
p78
V4
p79
sVPartOfSpeech
p80
VDT
p81
sVLemma
p82
g25
saa(lp83
Vvideo
p84
a(dp85
VNamedEntityTag
p86
g64
sVCharacterOffsetEnd
p87
V11
p88
sVCharacterOffsetBegin
p89
V6
p90
sVPartOfSpeech
p91
VNN
p92
sVLemma
p93
Vvideo
p94
saa(lp95
Vgame
p96
a(dp97
VNamedEntityTag
p98
g64
sVCharacterOffsetEnd
p99
V16
p100
sVCharacterOffsetBegin
p101
V12
p102
sVPartOfSpeech
p103
VNN
p104
sVLemma
p105
Vgame
p106
saa(lp107
V,
p108
a(dp109
VNamedEntityTag
p110
g64
sVCharacterOffsetEnd
p111
V18
p112
sVCharacterOffsetBegin
p113
V17
p114
sVPartOfSpeech
p115
g108
sVLemma
p116
g108
saa(lp117
Veach
p118
a(dp119
VNamedEntityTag
p120
g64
sVCharacterOffsetEnd
p121
V23
p122
sVCharacterOffsetBegin
p123
V19
p124
sVPartOfSpeech
p125
VDT
p126
sVLemma
p127
Veach
p128
saa(lp129
Venemy
p130
a(dp131
VNamedEntityTag
p132
g64
sVCharacterOffsetEnd
p133
V29
p134
sVCharacterOffsetBegin
p135
V24
p136
sVPartOfSpeech
p137
VNN
p138
sVLemma
p139
Venemy
p140
saa(lp141
Vdefeated
p142
a(dp143
VNamedEntityTag
p144
g64
sVCharacterOffsetEnd
p145
V38
p146
sVCharacterOffsetBegin
p147
V30
p148
sVPartOfSpeech
p149
VVBD
p150
sVLemma
p151
Vdefeat
p152
saa(lp153
Vgives
p154
a(dp155
VNamedEntityTag
p156
g64
sVCharacterOffsetEnd
p157
V44
p158
sVCharacterOffsetBegin
p159
V39
p160
sVPartOfSpeech
p161
VVBZ
p162
sVLemma
p163
Vgive
p164
saa(lp165
Vyou
p166
a(dp167
VNamedEntityTag
p168
g64
sVCharacterOffsetEnd
p169
V48
p170
sVCharacterOffsetBegin
p171
V45
p172
sVPartOfSpeech
p173
VPRP
p174
sVLemma
p175
Vyou
p176
saa(lp177
g53
a(dp178
VNormalizedNamedEntityTag
p179
V7.0
p180
sVLemma
p181
g53
sVCharacterOffsetEnd
p182
V50
p183
sVPartOfSpeech
p184
VCD
p185
sVCharacterOffsetBegin
p186
V49
p187
sVNamedEntityTag
p188
VNUMBER
p189
saa(lp190
Vpoints
p191
a(dp192
VNamedEntityTag
p193
g64
sVCharacterOffsetEnd
p194
V57
p195
sVCharacterOffsetBegin
p196
V51
p197
sVPartOfSpeech
p198
VNNS
p199
sVLemma
p200
Vpoint
p201
saa(lp202
V.
p203
a(dp204
VNamedEntityTag
p205
g64
sVCharacterOffsetEnd
p206
V59
p207
sVCharacterOffsetBegin
p208
V58
p209
sVPartOfSpeech
p210
g203
sVLemma
p211
g203
saasVindexeddependencies
p212
(lp213
(lp214
Vroot
p215
aVROOT-0
p216
aVdefeated-8
p217
aa(lp218
Vdet
p219
aVgame-4
p220
aVa-2
p221
aa(lp222
Vnn
p223
aVgame-4
p224
aVvideo-3
p225
aa(lp226
Vprep_in
p227
aVdefeated-8
p228
aVgame-4
p229
aa(lp230
Vdet
p231
aVenemy-7
p232
aVeach-6
p233
aa(lp234
Vnsubj
p235
aVdefeated-8
p236
aVenemy-7
p237
aa(lp238
Vccomp
p239
aVdefeated-8
p240
aVgives-9
p241
aa(lp242
Viobj
p243
aVgives-9
p244
aVyou-10
p245
aa(lp246
Vnum
p247
aVpoints-12
p248
aV7-11
p249
aa(lp250
Vdobj
p251
aVgives-9
p252
aVpoints-12
p253
aasa(dp254
Vparsetree
p255
V(ROOT (SBARQ (SBAR (IN If) (S (S (NP (DT a) (NN level)) (VP (VBZ has) (NP (NP (CD 11) (NNS enemies)) (JJ total)))) (CC and) (S (NP (PRP you)) (VP (VBP destroy) (NP (NP (QP (DT all) (CC but) (CD 8))) (PP (IN of) (NP (PRP them)))))))) (, ,) (WHNP (WHADJP (WRB how) (JJ many)) (NNS points)) (SQ (MD would) (NP (PRP you)) (VP (VB earn))) (. ?)))
p256
sVtext
p257
VIf a level has 11 enemies total and you destroy all but 8 of them , how many points would you earn ?
p258
sVdependencies
p259
(lp260
(lp261
Vroot
p262
aVROOT
p263
aVearn
p264
aa(lp265
Vmark
p266
aVhas
p267
aVIf
p268
aa(lp269
Vdet
p270
aVlevel
p271
ag25
aa(lp272
Vnsubj
p273
aVhas
p274
aVlevel
p275
aa(lp276
Vadvcl
p277
aVearn
p278
aVhas
p279
aa(lp280
Vnum
p281
aVenemies
p282
aV11
p283
aa(lp284
Vdobj
p285
aVhas
p286
aVenemies
p287
aa(lp288
Vamod
p289
aVenemies
p290
aVtotal
p291
aa(lp292
Vnsubj
p293
aVdestroy
p294
aVyou
p295
aa(lp296
Vconj_and
p297
aVhas
p298
aVdestroy
p299
aa(lp300
Vdobj
p301
aVdestroy
p302
aVall
p303
aa(lp304
Vconj_but
p305
aVall
p306
aV8
p307
aa(lp308
Vprep_of
p309
aVall
p310
aVthem
p311
aa(lp312
Vadvmod
p313
aVmany
p314
aVhow
p315
aa(lp316
Vamod
p317
aVpoints
p318
aVmany
p319
aa(lp320
Vdobj
p321
aVearn
p322
aVpoints
p323
aa(lp324
Vaux
p325
aVearn
p326
aVwould
p327
aa(lp328
Vnsubj
p329
aVearn
p330
aVyou
p331
aasVwords
p332
(lp333
(lp334
VIf
p335
a(dp336
VNamedEntityTag
p337
g64
sVCharacterOffsetEnd
p338
V62
p339
sVCharacterOffsetBegin
p340
V60
p341
sVPartOfSpeech
p342
VIN
p343
sVLemma
p344
Vif
p345
saa(lp346
g25
a(dp347
VNamedEntityTag
p348
g64
sVCharacterOffsetEnd
p349
V64
p350
sVCharacterOffsetBegin
p351
V63
p352
sVPartOfSpeech
p353
VDT
p354
sVLemma
p355
g25
saa(lp356
Vlevel
p357
a(dp358
VNamedEntityTag
p359
g64
sVCharacterOffsetEnd
p360
V70
p361
sVCharacterOffsetBegin
p362
V65
p363
sVPartOfSpeech
p364
VNN
p365
sVLemma
p366
Vlevel
p367
saa(lp368
Vhas
p369
a(dp370
VNamedEntityTag
p371
g64
sVCharacterOffsetEnd
p372
V74
p373
sVCharacterOffsetBegin
p374
V71
p375
sVPartOfSpeech
p376
VVBZ
p377
sVLemma
p378
Vhave
p379
saa(lp380
V11
p381
a(dp382
VNormalizedNamedEntityTag
p383
V11.0
p384
sVLemma
p385
V11
p386
sVCharacterOffsetEnd
p387
V77
p388
sVPartOfSpeech
p389
VCD
p390
sVCharacterOffsetBegin
p391
V75
p392
sVNamedEntityTag
p393
VNUMBER
p394
saa(lp395
Venemies
p396
a(dp397
VNamedEntityTag
p398
g64
sVCharacterOffsetEnd
p399
V85
p400
sVCharacterOffsetBegin
p401
V78
p402
sVPartOfSpeech
p403
VNNS
p404
sVLemma
p405
Venemy
p406
saa(lp407
Vtotal
p408
a(dp409
VNamedEntityTag
p410
g64
sVCharacterOffsetEnd
p411
V91
p412
sVCharacterOffsetBegin
p413
V86
p414
sVPartOfSpeech
p415
VJJ
p416
sVLemma
p417
Vtotal
p418
saa(lp419
Vand
p420
a(dp421
VNamedEntityTag
p422
g64
sVCharacterOffsetEnd
p423
V95
p424
sVCharacterOffsetBegin
p425
V92
p426
sVPartOfSpeech
p427
VCC
p428
sVLemma
p429
Vand
p430
saa(lp431
Vyou
p432
a(dp433
VNamedEntityTag
p434
g64
sVCharacterOffsetEnd
p435
V99
p436
sVCharacterOffsetBegin
p437
V96
p438
sVPartOfSpeech
p439
VPRP
p440
sVLemma
p441
Vyou
p442
saa(lp443
Vdestroy
p444
a(dp445
VNamedEntityTag
p446
g64
sVCharacterOffsetEnd
p447
V107
p448
sVCharacterOffsetBegin
p449
V100
p450
sVPartOfSpeech
p451
VVBP
p452
sVLemma
p453
Vdestroy
p454
saa(lp455
Vall
p456
a(dp457
VNamedEntityTag
p458
g64
sVCharacterOffsetEnd
p459
V111
p460
sVCharacterOffsetBegin
p461
V108
p462
sVPartOfSpeech
p463
VDT
p464
sVLemma
p465
Vall
p466
saa(lp467
Vbut
p468
a(dp469
VNamedEntityTag
p470
g64
sVCharacterOffsetEnd
p471
V115
p472
sVCharacterOffsetBegin
p473
V112
p474
sVPartOfSpeech
p475
VCC
p476
sVLemma
p477
Vbut
p478
saa(lp479
g307
a(dp480
VNormalizedNamedEntityTag
p481
V8.0
p482
sVLemma
p483
g307
sVCharacterOffsetEnd
p484
V117
p485
sVPartOfSpeech
p486
VCD
p487
sVCharacterOffsetBegin
p488
V116
p489
sVNamedEntityTag
p490
VNUMBER
p491
saa(lp492
Vof
p493
a(dp494
VNamedEntityTag
p495
g64
sVCharacterOffsetEnd
p496
V120
p497
sVCharacterOffsetBegin
p498
V118
p499
sVPartOfSpeech
p500
VIN
p501
sVLemma
p502
Vof
p503
saa(lp504
Vthem
p505
a(dp506
VNamedEntityTag
p507
g64
sVCharacterOffsetEnd
p508
V125
p509
sVCharacterOffsetBegin
p510
V121
p511
sVPartOfSpeech
p512
VPRP
p513
sVLemma
p514
Vthey
p515
saa(lp516
g108
a(dp517
VNamedEntityTag
p518
g64
sVCharacterOffsetEnd
p519
V127
p520
sVCharacterOffsetBegin
p521
V126
p522
sVPartOfSpeech
p523
g108
sVLemma
p524
g108
saa(lp525
Vhow
p526
a(dp527
VNamedEntityTag
p528
g64
sVCharacterOffsetEnd
p529
V131
p530
sVCharacterOffsetBegin
p531
V128
p532
sVPartOfSpeech
p533
VWRB
p534
sVLemma
p535
Vhow
p536
saa(lp537
Vmany
p538
a(dp539
VNamedEntityTag
p540
g64
sVCharacterOffsetEnd
p541
V136
p542
sVCharacterOffsetBegin
p543
V132
p544
sVPartOfSpeech
p545
VJJ
p546
sVLemma
p547
Vmany
p548
saa(lp549
Vpoints
p550
a(dp551
VNamedEntityTag
p552
g64
sVCharacterOffsetEnd
p553
V143
p554
sVCharacterOffsetBegin
p555
V137
p556
sVPartOfSpeech
p557
VNNS
p558
sVLemma
p559
Vpoint
p560
saa(lp561
Vwould
p562
a(dp563
VNamedEntityTag
p564
g64
sVCharacterOffsetEnd
p565
V149
p566
sVCharacterOffsetBegin
p567
V144
p568
sVPartOfSpeech
p569
VMD
p570
sVLemma
p571
Vwould
p572
saa(lp573
Vyou
p574
a(dp575
VNamedEntityTag
p576
g64
sVCharacterOffsetEnd
p577
V153
p578
sVCharacterOffsetBegin
p579
V150
p580
sVPartOfSpeech
p581
VPRP
p582
sVLemma
p583
Vyou
p584
saa(lp585
Vearn
p586
a(dp587
VNamedEntityTag
p588
g64
sVCharacterOffsetEnd
p589
V158
p590
sVCharacterOffsetBegin
p591
V154
p592
sVPartOfSpeech
p593
VVB
p594
sVLemma
p595
Vearn
p596
saa(lp597
V?
p598
a(dp599
VNamedEntityTag
p600
g64
sVCharacterOffsetEnd
p601
V160
p602
sVCharacterOffsetBegin
p603
V159
p604
sVPartOfSpeech
p605
g203
sVLemma
p606
g598
saasVindexeddependencies
p607
(lp608
(lp609
Vroot
p610
aVROOT-0
p611
aVearn-22
p612
aa(lp613
Vmark
p614
aVhas-4
p615
aVIf-1
p616
aa(lp617
Vdet
p618
aVlevel-3
p619
aVa-2
p620
aa(lp621
Vnsubj
p622
aVhas-4
p623
aVlevel-3
p624
aa(lp625
Vadvcl
p626
aVearn-22
p627
aVhas-4
p628
aa(lp629
Vnum
p630
aVenemies-6
p631
aV11-5
p632
aa(lp633
Vdobj
p634
aVhas-4
p635
aVenemies-6
p636
aa(lp637
Vamod
p638
aVenemies-6
p639
aVtotal-7
p640
aa(lp641
Vnsubj
p642
aVdestroy-10
p643
aVyou-9
p644
aa(lp645
Vconj_and
p646
aVhas-4
p647
aVdestroy-10
p648
aa(lp649
Vdobj
p650
aVdestroy-10
p651
aVall-11
p652
aa(lp653
Vconj_but
p654
aVall-11
p655
aV8-13
p656
aa(lp657
Vprep_of
p658
aVall-11
p659
aVthem-15
p660
aa(lp661
Vadvmod
p662
aVmany-18
p663
aVhow-17
p664
aa(lp665
Vamod
p666
aVpoints-19
p667
aVmany-18
p668
aa(lp669
Vdobj
p670
aVearn-22
p671
aVpoints-19
p672
aa(lp673
Vaux
p674
aVearn-22
p675
aVwould-20
p676
aa(lp677
Vnsubj
p678
aVearn-22
p679
aVyou-21
p680
aasas.