(dp0
Vcoref
p1
(lp2
(lp3
(lp4
(lp5
Vhe
p6
aI1
aI1
aI1
aI2
aa(lp7
VA magician
p8
aI0
aI1
aI0
aI2
aaa(lp9
(lp10
Vhe
p11
aI1
aI13
aI13
aI14
aa(lp12
VA magician
p13
aI0
aI1
aI0
aI2
aaa(lp14
(lp15
Vhe
p16
aI1
aI22
aI22
aI23
aa(lp17
VA magician
p18
aI0
aI1
aI0
aI2
aaaasVsentences
p19
(lp20
(dp21
Vparsetree
p22
V(ROOT (S (NP (DT A) (NN magician)) (VP (VBD was) (VP (VBG selling) (NP (JJ magic) (NN card) (NNS decks)) (PP (IN for) (NP (NP (CD 7) (NNS dollars)) (NP (DT each)))))) (. .)))
p23
sVtext
p24
VA magician was selling magic card decks for 7 dollars each .
p25
sVdependencies
p26
(lp27
(lp28
Vroot
p29
aVROOT
p30
aVselling
p31
aa(lp32
Vdet
p33
aVmagician
p34
aVA
p35
aa(lp36
Vnsubj
p37
aVselling
p38
aVmagician
p39
aa(lp40
Vaux
p41
aVselling
p42
aVwas
p43
aa(lp44
Vamod
p45
aVdecks
p46
aVmagic
p47
aa(lp48
Vnn
p49
aVdecks
p50
aVcard
p51
aa(lp52
Vdobj
p53
aVselling
p54
aVdecks
p55
aa(lp56
Vnum
p57
aVdollars
p58
aV7
p59
aa(lp60
Vprep_for
p61
aVselling
p62
aVdollars
p63
aa(lp64
Vdep
p65
aVdollars
p66
aVeach
p67
aasVwords
p68
(lp69
(lp70
g35
a(dp71
VNamedEntityTag
p72
VO
p73
sVCharacterOffsetEnd
p74
V2
p75
sVCharacterOffsetBegin
p76
V1
p77
sVPartOfSpeech
p78
VDT
p79
sVLemma
p80
Va
p81
saa(lp82
Vmagician
p83
a(dp84
VNamedEntityTag
p85
g73
sVCharacterOffsetEnd
p86
V11
p87
sVCharacterOffsetBegin
p88
V3
p89
sVPartOfSpeech
p90
VNN
p91
sVLemma
p92
Vmagician
p93
saa(lp94
Vwas
p95
a(dp96
VNamedEntityTag
p97
g73
sVCharacterOffsetEnd
p98
V15
p99
sVCharacterOffsetBegin
p100
V12
p101
sVPartOfSpeech
p102
VVBD
p103
sVLemma
p104
Vbe
p105
saa(lp106
Vselling
p107
a(dp108
VNamedEntityTag
p109
g73
sVCharacterOffsetEnd
p110
V23
p111
sVCharacterOffsetBegin
p112
V16
p113
sVPartOfSpeech
p114
VVBG
p115
sVLemma
p116
Vsell
p117
saa(lp118
Vmagic
p119
a(dp120
VNamedEntityTag
p121
g73
sVCharacterOffsetEnd
p122
V29
p123
sVCharacterOffsetBegin
p124
V24
p125
sVPartOfSpeech
p126
VJJ
p127
sVLemma
p128
Vmagic
p129
saa(lp130
Vcard
p131
a(dp132
VNamedEntityTag
p133
g73
sVCharacterOffsetEnd
p134
V34
p135
sVCharacterOffsetBegin
p136
V30
p137
sVPartOfSpeech
p138
VNN
p139
sVLemma
p140
Vcard
p141
saa(lp142
Vdecks
p143
a(dp144
VNamedEntityTag
p145
g73
sVCharacterOffsetEnd
p146
V40
p147
sVCharacterOffsetBegin
p148
V35
p149
sVPartOfSpeech
p150
VNNS
p151
sVLemma
p152
Vdeck
p153
saa(lp154
Vfor
p155
a(dp156
VNamedEntityTag
p157
g73
sVCharacterOffsetEnd
p158
V44
p159
sVCharacterOffsetBegin
p160
V41
p161
sVPartOfSpeech
p162
VIN
p163
sVLemma
p164
Vfor
p165
saa(lp166
g59
a(dp167
VNormalizedNamedEntityTag
p168
V$7.0
p169
sVLemma
p170
g59
sVCharacterOffsetEnd
p171
V46
p172
sVPartOfSpeech
p173
VCD
p174
sVCharacterOffsetBegin
p175
V45
p176
sVNamedEntityTag
p177
VMONEY
p178
saa(lp179
Vdollars
p180
a(dp181
VNormalizedNamedEntityTag
p182
V$7.0
p183
sVLemma
p184
Vdollar
p185
sVCharacterOffsetEnd
p186
V54
p187
sVPartOfSpeech
p188
VNNS
p189
sVCharacterOffsetBegin
p190
V47
p191
sVNamedEntityTag
p192
VMONEY
p193
saa(lp194
Veach
p195
a(dp196
VNamedEntityTag
p197
g73
sVCharacterOffsetEnd
p198
V59
p199
sVCharacterOffsetBegin
p200
V55
p201
sVPartOfSpeech
p202
VDT
p203
sVLemma
p204
Veach
p205
saa(lp206
V.
p207
a(dp208
VNamedEntityTag
p209
g73
sVCharacterOffsetEnd
p210
V61
p211
sVCharacterOffsetBegin
p212
V60
p213
sVPartOfSpeech
p214
g207
sVLemma
p215
g207
saasVindexeddependencies
p216
(lp217
(lp218
Vroot
p219
aVROOT-0
p220
aVselling-4
p221
aa(lp222
Vdet
p223
aVmagician-2
p224
aVA-1
p225
aa(lp226
Vnsubj
p227
aVselling-4
p228
aVmagician-2
p229
aa(lp230
Vaux
p231
aVselling-4
p232
aVwas-3
p233
aa(lp234
Vamod
p235
aVdecks-7
p236
aVmagic-5
p237
aa(lp238
Vnn
p239
aVdecks-7
p240
aVcard-6
p241
aa(lp242
Vdobj
p243
aVselling-4
p244
aVdecks-7
p245
aa(lp246
Vnum
p247
aVdollars-10
p248
aV7-9
p249
aa(lp250
Vprep_for
p251
aVselling-4
p252
aVdollars-10
p253
aa(lp254
Vdep
p255
aVdollars-10
p256
aVeach-11
p257
aasa(dp258
Vparsetree
p259
V(ROOT (SBARQ (SBAR (IN If) (S (NP (PRP he)) (VP (VBD started) (PP (PP (IN with) (NP (CD 16) (NNS decks))) (CC and) (PP (IN by) (NP (NP (DT the) (NN end)) (PP (IN of) (NP (NP (DT the) (NN day)) (SBAR (S (NP (PRP he)) (VP (VBD had) (NP (CD 8) (NN left))))))))))))) (, ,) (WHNP (WHADJP (WRB how) (JJ much)) (NN money)) (SQ (VBD did) (NP (PRP he)) (VP (VB earn))) (. ?)))
p260
sVtext
p261
VIf he started with 16 decks and by the end of the day he had 8 left , how much money did he earn ?
p262
sVdependencies
p263
(lp264
(lp265
Vroot
p266
aVROOT
p267
aVearn
p268
aa(lp269
Vmark
p270
aVstarted
p271
aVIf
p272
aa(lp273
Vnsubj
p274
aVstarted
p275
aVhe
p276
aa(lp277
Vadvcl
p278
aVearn
p279
aVstarted
p280
aa(lp281
Vconj_and
p282
aVstarted
p283
aVstarted
p284
aa(lp285
Vnum
p286
aVdecks
p287
aV16
p288
aa(lp289
Vprep_with
p290
aVstarted
p291
aVdecks
p292
aa(lp293
Vdet
p294
aVend
p295
aVthe
p296
aa(lp297
Vprep_by
p298
aVstarted
p299
aVend
p300
aa(lp301
Vdet
p302
aVday
p303
aVthe
p304
aa(lp305
Vprep_of
p306
aVend
p307
aVday
p308
aa(lp309
Vnsubj
p310
aVhad
p311
aVhe
p312
aa(lp313
Vrcmod
p314
aVday
p315
aVhad
p316
aa(lp317
Vnum
p318
aVleft
p319
aV8
p320
aa(lp321
Vdobj
p322
aVhad
p323
aVleft
p324
aa(lp325
Vadvmod
p326
aVmuch
p327
aVhow
p328
aa(lp329
Vamod
p330
aVmoney
p331
aVmuch
p332
aa(lp333
Vdobj
p334
aVearn
p335
aVmoney
p336
aa(lp337
Vaux
p338
aVearn
p339
aVdid
p340
aa(lp341
Vnsubj
p342
aVearn
p343
aVhe
p344
aasVwords
p345
(lp346
(lp347
VIf
p348
a(dp349
VNamedEntityTag
p350
g73
sVCharacterOffsetEnd
p351
V64
p352
sVCharacterOffsetBegin
p353
V62
p354
sVPartOfSpeech
p355
VIN
p356
sVLemma
p357
Vif
p358
saa(lp359
Vhe
p360
a(dp361
VNamedEntityTag
p362
g73
sVCharacterOffsetEnd
p363
V67
p364
sVCharacterOffsetBegin
p365
V65
p366
sVPartOfSpeech
p367
VPRP
p368
sVLemma
p369
Vhe
p370
saa(lp371
Vstarted
p372
a(dp373
VNamedEntityTag
p374
g73
sVCharacterOffsetEnd
p375
V75
p376
sVCharacterOffsetBegin
p377
V68
p378
sVPartOfSpeech
p379
VVBD
p380
sVLemma
p381
Vstart
p382
saa(lp383
Vwith
p384
a(dp385
VNamedEntityTag
p386
g73
sVCharacterOffsetEnd
p387
V80
p388
sVCharacterOffsetBegin
p389
V76
p390
sVPartOfSpeech
p391
VIN
p392
sVLemma
p393
Vwith
p394
saa(lp395
V16
p396
a(dp397
VNormalizedNamedEntityTag
p398
V16.0
p399
sVLemma
p400
V16
p401
sVCharacterOffsetEnd
p402
V83
p403
sVPartOfSpeech
p404
VCD
p405
sVCharacterOffsetBegin
p406
V81
p407
sVNamedEntityTag
p408
VNUMBER
p409
saa(lp410
Vdecks
p411
a(dp412
VNamedEntityTag
p413
g73
sVCharacterOffsetEnd
p414
V89
p415
sVCharacterOffsetBegin
p416
V84
p417
sVPartOfSpeech
p418
VNNS
p419
sVLemma
p420
Vdeck
p421
saa(lp422
Vand
p423
a(dp424
VNamedEntityTag
p425
g73
sVCharacterOffsetEnd
p426
V93
p427
sVCharacterOffsetBegin
p428
V90
p429
sVPartOfSpeech
p430
VCC
p431
sVLemma
p432
Vand
p433
saa(lp434
Vby
p435
a(dp436
VNamedEntityTag
p437
g73
sVCharacterOffsetEnd
p438
V96
p439
sVCharacterOffsetBegin
p440
V94
p441
sVPartOfSpeech
p442
VIN
p443
sVLemma
p444
Vby
p445
saa(lp446
Vthe
p447
a(dp448
VNormalizedNamedEntityTag
p449
VTHIS
p450
sVTimex
p451
V<TIMEX3 alt_value="THIS P1D" anchorTimeID="t0" mod="LATE" temporalFunction="true" tid="t1" type="DATE" valueFromFunction="tf0">the end of the day</TIMEX3>
p452
sVLemma
p453
Vthe
p454
sVCharacterOffsetEnd
p455
V100
p456
sVPartOfSpeech
p457
VDT
p458
sVCharacterOffsetBegin
p459
V97
p460
sVNamedEntityTag
p461
VDATE
p462
saa(lp463
Vend
p464
a(dp465
VNormalizedNamedEntityTag
p466
VTHIS
p467
sVTimex
p468
V<TIMEX3 alt_value="THIS P1D" anchorTimeID="t0" mod="LATE" temporalFunction="true" tid="t1" type="DATE" valueFromFunction="tf0">the end of the day</TIMEX3>
p469
sVLemma
p470
Vend
p471
sVCharacterOffsetEnd
p472
V104
p473
sVPartOfSpeech
p474
VNN
p475
sVCharacterOffsetBegin
p476
V101
p477
sVNamedEntityTag
p478
VDATE
p479
saa(lp480
Vof
p481
a(dp482
VNormalizedNamedEntityTag
p483
VTHIS
p484
sVTimex
p485
V<TIMEX3 alt_value="THIS P1D" anchorTimeID="t0" mod="LATE" temporalFunction="true" tid="t1" type="DATE" valueFromFunction="tf0">the end of the day</TIMEX3>
p486
sVLemma
p487
Vof
p488
sVCharacterOffsetEnd
p489
V107
p490
sVPartOfSpeech
p491
VIN
p492
sVCharacterOffsetBegin
p493
V105
p494
sVNamedEntityTag
p495
VDATE
p496
saa(lp497
Vthe
p498
a(dp499
VNormalizedNamedEntityTag
p500
VTHIS
p501
sVTimex
p502
V<TIMEX3 alt_value="THIS P1D" anchorTimeID="t0" mod="LATE" temporalFunction="true" tid="t1" type="DATE" valueFromFunction="tf0">the end of the day</TIMEX3>
p503
sVLemma
p504
Vthe
p505
sVCharacterOffsetEnd
p506
V111
p507
sVPartOfSpeech
p508
VDT
p509
sVCharacterOffsetBegin
p510
V108
p511
sVNamedEntityTag
p512
VDATE
p513
saa(lp514
Vday
p515
a(dp516
VNormalizedNamedEntityTag
p517
VTHIS
p518
sVTimex
p519
V<TIMEX3 alt_value="THIS P1D" anchorTimeID="t0" mod="LATE" temporalFunction="true" tid="t1" type="DATE" valueFromFunction="tf0">the end of the day</TIMEX3>
p520
sVLemma
p521
Vday
p522
sVCharacterOffsetEnd
p523
V115
p524
sVPartOfSpeech
p525
VNN
p526
sVCharacterOffsetBegin
p527
V112
p528
sVNamedEntityTag
p529
VDATE
p530
saa(lp531
Vhe
p532
a(dp533
VNamedEntityTag
p534
g73
sVCharacterOffsetEnd
p535
V118
p536
sVCharacterOffsetBegin
p537
V116
p538
sVPartOfSpeech
p539
VPRP
p540
sVLemma
p541
Vhe
p542
saa(lp543
Vhad
p544
a(dp545
VNamedEntityTag
p546
g73
sVCharacterOffsetEnd
p547
V122
p548
sVCharacterOffsetBegin
p549
V119
p550
sVPartOfSpeech
p551
VVBD
p552
sVLemma
p553
Vhave
p554
saa(lp555
g320
a(dp556
VNormalizedNamedEntityTag
p557
V8.0
p558
sVLemma
p559
g320
sVCharacterOffsetEnd
p560
V124
p561
sVPartOfSpeech
p562
VCD
p563
sVCharacterOffsetBegin
p564
V123
p565
sVNamedEntityTag
p566
VNUMBER
p567
saa(lp568
Vleft
p569
a(dp570
VNamedEntityTag
p571
g73
sVCharacterOffsetEnd
p572
V129
p573
sVCharacterOffsetBegin
p574
V125
p575
sVPartOfSpeech
p576
VNN
p577
sVLemma
p578
Vleft
p579
saa(lp580
V,
p581
a(dp582
VNamedEntityTag
p583
g73
sVCharacterOffsetEnd
p584
V131
p585
sVCharacterOffsetBegin
p586
V130
p587
sVPartOfSpeech
p588
g581
sVLemma
p589
g581
saa(lp590
Vhow
p591
a(dp592
VNamedEntityTag
p593
g73
sVCharacterOffsetEnd
p594
V135
p595
sVCharacterOffsetBegin
p596
V132
p597
sVPartOfSpeech
p598
VWRB
p599
sVLemma
p600
Vhow
p601
saa(lp602
Vmuch
p603
a(dp604
VNamedEntityTag
p605
g73
sVCharacterOffsetEnd
p606
V140
p607
sVCharacterOffsetBegin
p608
V136
p609
sVPartOfSpeech
p610
VJJ
p611
sVLemma
p612
Vmuch
p613
saa(lp614
Vmoney
p615
a(dp616
VNamedEntityTag
p617
g73
sVCharacterOffsetEnd
p618
V146
p619
sVCharacterOffsetBegin
p620
V141
p621
sVPartOfSpeech
p622
VNN
p623
sVLemma
p624
Vmoney
p625
saa(lp626
Vdid
p627
a(dp628
VNamedEntityTag
p629
g73
sVCharacterOffsetEnd
p630
V150
p631
sVCharacterOffsetBegin
p632
V147
p633
sVPartOfSpeech
p634
VVBD
p635
sVLemma
p636
Vdo
p637
saa(lp638
Vhe
p639
a(dp640
VNamedEntityTag
p641
g73
sVCharacterOffsetEnd
p642
V153
p643
sVCharacterOffsetBegin
p644
V151
p645
sVPartOfSpeech
p646
VPRP
p647
sVLemma
p648
Vhe
p649
saa(lp650
Vearn
p651
a(dp652
VNamedEntityTag
p653
g73
sVCharacterOffsetEnd
p654
V158
p655
sVCharacterOffsetBegin
p656
V154
p657
sVPartOfSpeech
p658
VVB
p659
sVLemma
p660
Vearn
p661
saa(lp662
V?
p663
a(dp664
VNamedEntityTag
p665
g73
sVCharacterOffsetEnd
p666
V160
p667
sVCharacterOffsetBegin
p668
V159
p669
sVPartOfSpeech
p670
g207
sVLemma
p671
g663
saasVindexeddependencies
p672
(lp673
(lp674
Vroot
p675
aVROOT-0
p676
aVearn-24
p677
aa(lp678
Vmark
p679
aVstarted-3
p680
aVIf-1
p681
aa(lp682
Vnsubj
p683
aVstarted-3
p684
aVhe-2
p685
aa(lp686
Vadvcl
p687
aVearn-24
p688
aVstarted-3
p689
aa(lp690
Vconj_and
p691
aVstarted-3
p692
aVstarted-3
p693
aa(lp694
Vnum
p695
aVdecks-6
p696
aV16-5
p697
aa(lp698
Vprep_with
p699
aVstarted-3
p700
aVdecks-6
p701
aa(lp702
Vdet
p703
aVend-10
p704
aVthe-9
p705
aa(lp706
Vprep_by
p707
aVstarted-3
p708
aVend-10
p709
aa(lp710
Vdet
p711
aVday-13
p712
aVthe-12
p713
aa(lp714
Vprep_of
p715
aVend-10
p716
aVday-13
p717
aa(lp718
Vnsubj
p719
aVhad-15
p720
aVhe-14
p721
aa(lp722
Vrcmod
p723
aVday-13
p724
aVhad-15
p725
aa(lp726
Vnum
p727
aVleft-17
p728
aV8-16
p729
aa(lp730
Vdobj
p731
aVhad-15
p732
aVleft-17
p733
aa(lp734
Vadvmod
p735
aVmuch-20
p736
aVhow-19
p737
aa(lp738
Vamod
p739
aVmoney-21
p740
aVmuch-20
p741
aa(lp742
Vdobj
p743
aVearn-24
p744
aVmoney-21
p745
aa(lp746
Vaux
p747
aVearn-24
p748
aVdid-22
p749
aa(lp750
Vnsubj
p751
aVearn-24
p752
aVhe-23
p753
aasas.