(dp0
Vcoref
p1
(lp2
(lp3
(lp4
(lp5
Vthey
p6
aI1
aI12
aI12
aI13
aa(lp7
V13 friends playing a video game online when 8 players quit
p8
aI0
aI3
aI2
aI13
aaaasVsentences
p9
(lp10
(dp11
Vparsetree
p12
V(ROOT (S (NP (EX There)) (VP (VBD were) (NP (NP (CD 13) (NNS friends)) (VP (VBG playing) (NP (DT a) (NN video) (NN game)) (PP (NN online)) (SBAR (WHADVP (WRB when)) (S (NP (CD 8) (NNS players)) (VP (VBD quit))))))) (. .)))
p13
sVtext
p14
VThere were 13 friends playing a video game online when 8 players quit .
p15
sVdependencies
p16
(lp17
(lp18
Vroot
p19
aVROOT
p20
aVwere
p21
aa(lp22
Vexpl
p23
aVwere
p24
aVThere
p25
aa(lp26
Vnum
p27
aVfriends
p28
aV13
p29
aa(lp30
Vnsubj
p31
aVwere
p32
aVfriends
p33
aa(lp34
Vvmod
p35
aVfriends
p36
aVplaying
p37
aa(lp38
Vdet
p39
aVgame
p40
aVa
p41
aa(lp42
Vnn
p43
aVgame
p44
aVvideo
p45
aa(lp46
Vdobj
p47
aVplaying
p48
aVgame
p49
aa(lp50
Vprep
p51
aVplaying
p52
aVonline
p53
aa(lp54
Vadvmod
p55
aVquit
p56
aVwhen
p57
aa(lp58
Vnum
p59
aVplayers
p60
aV8
p61
aa(lp62
Vnsubj
p63
aVquit
p64
aVplayers
p65
aa(lp66
Vadvcl
p67
aVplaying
p68
aVquit
p69
aasVwords
p70
(lp71
(lp72
VThere
p73
a(dp74
VNamedEntityTag
p75
VO
p76
sVCharacterOffsetEnd
p77
V6
p78
sVCharacterOffsetBegin
p79
V1
p80
sVPartOfSpeech
p81
VEX
p82
sVLemma
p83
Vthere
p84
saa(lp85
Vwere
p86
a(dp87
VNamedEntityTag
p88
g76
sVCharacterOffsetEnd
p89
V11
p90
sVCharacterOffsetBegin
p91
V7
p92
sVPartOfSpeech
p93
VVBD
p94
sVLemma
p95
Vbe
p96
saa(lp97
V13
p98
a(dp99
VNormalizedNamedEntityTag
p100
V13.0
p101
sVLemma
p102
V13
p103
sVCharacterOffsetEnd
p104
V14
p105
sVPartOfSpeech
p106
VCD
p107
sVCharacterOffsetBegin
p108
V12
p109
sVNamedEntityTag
p110
VNUMBER
p111
saa(lp112
Vfriends
p113
a(dp114
VNamedEntityTag
p115
g76
sVCharacterOffsetEnd
p116
V22
p117
sVCharacterOffsetBegin
p118
V15
p119
sVPartOfSpeech
p120
VNNS
p121
sVLemma
p122
Vfriend
p123
saa(lp124
Vplaying
p125
a(dp126
VNamedEntityTag
p127
g76
sVCharacterOffsetEnd
p128
V30
p129
sVCharacterOffsetBegin
p130
V23
p131
sVPartOfSpeech
p132
VVBG
p133
sVLemma
p134
Vplay
p135
saa(lp136
g41
a(dp137
VNamedEntityTag
p138
g76
sVCharacterOffsetEnd
p139
V32
p140
sVCharacterOffsetBegin
p141
V31
p142
sVPartOfSpeech
p143
VDT
p144
sVLemma
p145
g41
saa(lp146
Vvideo
p147
a(dp148
VNamedEntityTag
p149
g76
sVCharacterOffsetEnd
p150
V38
p151
sVCharacterOffsetBegin
p152
V33
p153
sVPartOfSpeech
p154
VNN
p155
sVLemma
p156
Vvideo
p157
saa(lp158
Vgame
p159
a(dp160
VNamedEntityTag
p161
g76
sVCharacterOffsetEnd
p162
V43
p163
sVCharacterOffsetBegin
p164
V39
p165
sVPartOfSpeech
p166
VNN
p167
sVLemma
p168
Vgame
p169
saa(lp170
Vonline
p171
a(dp172
VNamedEntityTag
p173
g76
sVCharacterOffsetEnd
p174
V50
p175
sVCharacterOffsetBegin
p176
V44
p177
sVPartOfSpeech
p178
VNN
p179
sVLemma
p180
Vonline
p181
saa(lp182
Vwhen
p183
a(dp184
VNamedEntityTag
p185
g76
sVCharacterOffsetEnd
p186
V55
p187
sVCharacterOffsetBegin
p188
V51
p189
sVPartOfSpeech
p190
VWRB
p191
sVLemma
p192
Vwhen
p193
saa(lp194
g61
a(dp195
VNormalizedNamedEntityTag
p196
V8.0
p197
sVLemma
p198
g61
sVCharacterOffsetEnd
p199
V57
p200
sVPartOfSpeech
p201
VCD
p202
sVCharacterOffsetBegin
p203
V56
p204
sVNamedEntityTag
p205
VNUMBER
p206
saa(lp207
Vplayers
p208
a(dp209
VNamedEntityTag
p210
g76
sVCharacterOffsetEnd
p211
V65
p212
sVCharacterOffsetBegin
p213
V58
p214
sVPartOfSpeech
p215
VNNS
p216
sVLemma
p217
Vplayer
p218
saa(lp219
Vquit
p220
a(dp221
VNamedEntityTag
p222
g76
sVCharacterOffsetEnd
p223
V70
p224
sVCharacterOffsetBegin
p225
V66
p226
sVPartOfSpeech
p227
VVBD
p228
sVLemma
p229
Vquit
p230
saa(lp231
V.
p232
a(dp233
VNamedEntityTag
p234
g76
sVCharacterOffsetEnd
p235
V72
p236
sVCharacterOffsetBegin
p237
V71
p238
sVPartOfSpeech
p239
g232
sVLemma
p240
g232
saasVindexeddependencies
p241
(lp242
(lp243
Vroot
p244
aVROOT-0
p245
aVwere-2
p246
aa(lp247
Vexpl
p248
aVwere-2
p249
aVThere-1
p250
aa(lp251
Vnum
p252
aVfriends-4
p253
aV13-3
p254
aa(lp255
Vnsubj
p256
aVwere-2
p257
aVfriends-4
p258
aa(lp259
Vvmod
p260
aVfriends-4
p261
aVplaying-5
p262
aa(lp263
Vdet
p264
aVgame-8
p265
aVa-6
p266
aa(lp267
Vnn
p268
aVgame-8
p269
aVvideo-7
p270
aa(lp271
Vdobj
p272
aVplaying-5
p273
aVgame-8
p274
aa(lp275
Vprep
p276
aVplaying-5
p277
aVonline-9
p278
aa(lp279
Vadvmod
p280
aVquit-13
p281
aVwhen-10
p282
aa(lp283
Vnum
p284
aVplayers-12
p285
aV8-11
p286
aa(lp287
Vnsubj
p288
aVquit-13
p289
aVplayers-12
p290
aa(lp291
Vadvcl
p292
aVplaying-5
p293
aVquit-13
p294
aasa(dp295
Vparsetree
p296
V(ROOT (SBARQ (SBAR (IN If) (S (NP (DT each) (NN player)) (VP (VBD left) (SBAR (S (VP (VBD had) (NP (CD 6) (NNS lives)))))))) (, ,) (WHNP (WHADJP (WRB how) (JJ many)) (NNS lives)) (SQ (VBD did) (NP (PRP they)) (VP (VBP have) (NP (JJ total)))) (. ?)))
p297
sVtext
p298
VIf each player left had 6 lives , how many lives did they have total ?
p299
sVdependencies
p300
(lp301
(lp302
Vroot
p303
aVROOT
p304
aVhave
p305
aa(lp306
Vmark
p307
aVleft
p308
aVIf
p309
aa(lp310
Vdet
p311
aVplayer
p312
aVeach
p313
aa(lp314
Vnsubj
p315
aVleft
p316
aVplayer
p317
aa(lp318
Vadvcl
p319
aVhave
p320
aVleft
p321
aa(lp322
Vccomp
p323
aVleft
p324
aVhad
p325
aa(lp326
Vnum
p327
aVlives
p328
ag78
aa(lp329
Vdobj
p330
aVhad
p331
aVlives
p332
aa(lp333
Vadvmod
p334
aVmany
p335
aVhow
p336
aa(lp337
Vamod
p338
aVlives
p339
aVmany
p340
aa(lp341
Vdep
p342
aVhave
p343
aVlives
p344
aa(lp345
Vaux
p346
aVhave
p347
aVdid
p348
aa(lp349
Vnsubj
p350
aVhave
p351
aVthey
p352
aa(lp353
Vdobj
p354
aVhave
p355
aVtotal
p356
aasVwords
p357
(lp358
(lp359
VIf
p360
a(dp361
VNamedEntityTag
p362
g76
sVCharacterOffsetEnd
p363
V75
p364
sVCharacterOffsetBegin
p365
V73
p366
sVPartOfSpeech
p367
VIN
p368
sVLemma
p369
Vif
p370
saa(lp371
Veach
p372
a(dp373
VNamedEntityTag
p374
g76
sVCharacterOffsetEnd
p375
V80
p376
sVCharacterOffsetBegin
p377
V76
p378
sVPartOfSpeech
p379
VDT
p380
sVLemma
p381
Veach
p382
saa(lp383
Vplayer
p384
a(dp385
VNamedEntityTag
p386
g76
sVCharacterOffsetEnd
p387
V87
p388
sVCharacterOffsetBegin
p389
V81
p390
sVPartOfSpeech
p391
VNN
p392
sVLemma
p393
Vplayer
p394
saa(lp395
Vleft
p396
a(dp397
VNamedEntityTag
p398
g76
sVCharacterOffsetEnd
p399
V92
p400
sVCharacterOffsetBegin
p401
V88
p402
sVPartOfSpeech
p403
VVBD
p404
sVLemma
p405
Vleave
p406
saa(lp407
Vhad
p408
a(dp409
VNamedEntityTag
p410
g76
sVCharacterOffsetEnd
p411
V96
p412
sVCharacterOffsetBegin
p413
V93
p414
sVPartOfSpeech
p415
VVBD
p416
sVLemma
p417
Vhave
p418
saa(lp419
g78
a(dp420
VNormalizedNamedEntityTag
p421
V6.0
p422
sVLemma
p423
g78
sVCharacterOffsetEnd
p424
V98
p425
sVPartOfSpeech
p426
VCD
p427
sVCharacterOffsetBegin
p428
V97
p429
sVNamedEntityTag
p430
VNUMBER
p431
saa(lp432
Vlives
p433
a(dp434
VNamedEntityTag
p435
g76
sVCharacterOffsetEnd
p436
V104
p437
sVCharacterOffsetBegin
p438
V99
p439
sVPartOfSpeech
p440
VNNS
p441
sVLemma
p442
Vlife
p443
saa(lp444
V,
p445
a(dp446
VNamedEntityTag
p447
g76
sVCharacterOffsetEnd
p448
V106
p449
sVCharacterOffsetBegin
p450
V105
p451
sVPartOfSpeech
p452
g445
sVLemma
p453
g445
saa(lp454
Vhow
p455
a(dp456
VNamedEntityTag
p457
g76
sVCharacterOffsetEnd
p458
V110
p459
sVCharacterOffsetBegin
p460
V107
p461
sVPartOfSpeech
p462
VWRB
p463
sVLemma
p464
Vhow
p465
saa(lp466
Vmany
p467
a(dp468
VNamedEntityTag
p469
g76
sVCharacterOffsetEnd
p470
V115
p471
sVCharacterOffsetBegin
p472
V111
p473
sVPartOfSpeech
p474
VJJ
p475
sVLemma
p476
Vmany
p477
saa(lp478
Vlives
p479
a(dp480
VNamedEntityTag
p481
g76
sVCharacterOffsetEnd
p482
V121
p483
sVCharacterOffsetBegin
p484
V116
p485
sVPartOfSpeech
p486
VNNS
p487
sVLemma
p488
Vlife
p489
saa(lp490
Vdid
p491
a(dp492
VNamedEntityTag
p493
g76
sVCharacterOffsetEnd
p494
V125
p495
sVCharacterOffsetBegin
p496
V122
p497
sVPartOfSpeech
p498
VVBD
p499
sVLemma
p500
Vdo
p501
saa(lp502
Vthey
p503
a(dp504
VNamedEntityTag
p505
g76
sVCharacterOffsetEnd
p506
V130
p507
sVCharacterOffsetBegin
p508
V126
p509
sVPartOfSpeech
p510
VPRP
p511
sVLemma
p512
Vthey
p513
saa(lp514
Vhave
p515
a(dp516
VNamedEntityTag
p517
g76
sVCharacterOffsetEnd
p518
V135
p519
sVCharacterOffsetBegin
p520
V131
p521
sVPartOfSpeech
p522
VVBP
p523
sVLemma
p524
Vhave
p525
saa(lp526
Vtotal
p527
a(dp528
VNamedEntityTag
p529
g76
sVCharacterOffsetEnd
p530
V141
p531
sVCharacterOffsetBegin
p532
V136
p533
sVPartOfSpeech
p534
VJJ
p535
sVLemma
p536
Vtotal
p537
saa(lp538
V?
p539
a(dp540
VNamedEntityTag
p541
g76
sVCharacterOffsetEnd
p542
V143
p543
sVCharacterOffsetBegin
p544
V142
p545
sVPartOfSpeech
p546
g232
sVLemma
p547
g539
saasVindexeddependencies
p548
(lp549
(lp550
Vroot
p551
aVROOT-0
p552
aVhave-14
p553
aa(lp554
Vmark
p555
aVleft-4
p556
aVIf-1
p557
aa(lp558
Vdet
p559
aVplayer-3
p560
aVeach-2
p561
aa(lp562
Vnsubj
p563
aVleft-4
p564
aVplayer-3
p565
aa(lp566
Vadvcl
p567
aVhave-14
p568
aVleft-4
p569
aa(lp570
Vccomp
p571
aVleft-4
p572
aVhad-5
p573
aa(lp574
Vnum
p575
aVlives-7
p576
aV6-6
p577
aa(lp578
Vdobj
p579
aVhad-5
p580
aVlives-7
p581
aa(lp582
Vadvmod
p583
aVmany-10
p584
aVhow-9
p585
aa(lp586
Vamod
p587
aVlives-11
p588
aVmany-10
p589
aa(lp590
Vdep
p591
aVhave-14
p592
aVlives-11
p593
aa(lp594
Vaux
p595
aVhave-14
p596
aVdid-12
p597
aa(lp598
Vnsubj
p599
aVhave-14
p600
aVthey-13
p601
aa(lp602
Vdobj
p603
aVhave-14
p604
aVtotal-15
p605
aasas.