(dp0
Vcoref
p1
(lp2
(lp3
(lp4
(lp5
Vbeads
p6
aI1
aI3
aI3
aI4
aa(lp7
Vthe 20 beads on clearance
p8
aI0
aI11
aI9
aI14
aaaasVsentences
p9
(lp10
(dp11
Vparsetree
p12
V(ROOT (S (PP (IN At) (NP (NP (NNP Vera) (POS 's)) (NNP Beading) (NNP Boutique))) (, ,) (NP (NP (CD 0.8) (NNS times)) (PP (IN of) (NP (NP (DT the) (CD 20) (NNS beads)) (PP (IN on) (NP (NN clearance)))))) (VP (VBP are) (ADJP (JJ plastic))) (. .)))
p13
sVtext
p14
VAt Vera's Beading Boutique , 0.8 times of the 20 beads on clearance are plastic .
p15
sVdependencies
p16
(lp17
(lp18
Vroot
p19
aVROOT
p20
aVplastic
p21
aa(lp22
Vposs
p23
aVBoutique
p24
aVVera
p25
aa(lp26
Vnn
p27
aVBoutique
p28
aVBeading
p29
aa(lp30
Vprep_at
p31
aVplastic
p32
aVBoutique
p33
aa(lp34
Vnum
p35
aVtimes
p36
aV0.8
p37
aa(lp38
Vnsubj
p39
aVplastic
p40
aVtimes
p41
aa(lp42
Vdet
p43
aVbeads
p44
aVthe
p45
aa(lp46
Vnum
p47
aVbeads
p48
aV20
p49
aa(lp50
Vprep_of
p51
aVtimes
p52
aVbeads
p53
aa(lp54
Vprep_on
p55
aVbeads
p56
aVclearance
p57
aa(lp58
Vcop
p59
aVplastic
p60
aVare
p61
aasVwords
p62
(lp63
(lp64
VAt
p65
a(dp66
VNamedEntityTag
p67
VO
p68
sVCharacterOffsetEnd
p69
V3
p70
sVCharacterOffsetBegin
p71
V1
p72
sVPartOfSpeech
p73
VIN
p74
sVLemma
p75
Vat
p76
saa(lp77
VVera
p78
a(dp79
VNamedEntityTag
p80
g68
sVCharacterOffsetEnd
p81
V8
p82
sVCharacterOffsetBegin
p83
V4
p84
sVPartOfSpeech
p85
VNNP
p86
sVLemma
p87
VVera
p88
saa(lp89
V's
p90
a(dp91
VNamedEntityTag
p92
g68
sVCharacterOffsetEnd
p93
V10
p94
sVCharacterOffsetBegin
p95
g82
sVPartOfSpeech
p96
VPOS
p97
sVLemma
p98
V's
p99
saa(lp100
VBeading
p101
a(dp102
VNamedEntityTag
p103
g68
sVCharacterOffsetEnd
p104
V18
p105
sVCharacterOffsetBegin
p106
V11
p107
sVPartOfSpeech
p108
VNNP
p109
sVLemma
p110
VBeading
p111
saa(lp112
VBoutique
p113
a(dp114
VNamedEntityTag
p115
g68
sVCharacterOffsetEnd
p116
V27
p117
sVCharacterOffsetBegin
p118
V19
p119
sVPartOfSpeech
p120
VNNP
p121
sVLemma
p122
VBoutique
p123
saa(lp124
V,
p125
a(dp126
VNamedEntityTag
p127
g68
sVCharacterOffsetEnd
p128
V29
p129
sVCharacterOffsetBegin
p130
V28
p131
sVPartOfSpeech
p132
g125
sVLemma
p133
g125
saa(lp134
V0.8
p135
a(dp136
VNormalizedNamedEntityTag
p137
V0.8
p138
sVLemma
p139
V0.8
p140
sVCharacterOffsetEnd
p141
V33
p142
sVPartOfSpeech
p143
VCD
p144
sVCharacterOffsetBegin
p145
V30
p146
sVNamedEntityTag
p147
VNUMBER
p148
saa(lp149
Vtimes
p150
a(dp151
VNamedEntityTag
p152
g68
sVCharacterOffsetEnd
p153
V39
p154
sVCharacterOffsetBegin
p155
V34
p156
sVPartOfSpeech
p157
VNNS
p158
sVLemma
p159
Vtime
p160
saa(lp161
Vof
p162
a(dp163
VNamedEntityTag
p164
g68
sVCharacterOffsetEnd
p165
V42
p166
sVCharacterOffsetBegin
p167
V40
p168
sVPartOfSpeech
p169
VIN
p170
sVLemma
p171
Vof
p172
saa(lp173
Vthe
p174
a(dp175
VNamedEntityTag
p176
g68
sVCharacterOffsetEnd
p177
V46
p178
sVCharacterOffsetBegin
p179
V43
p180
sVPartOfSpeech
p181
VDT
p182
sVLemma
p183
Vthe
p184
saa(lp185
V20
p186
a(dp187
VNormalizedNamedEntityTag
p188
V20.0
p189
sVLemma
p190
V20
p191
sVCharacterOffsetEnd
p192
V49
p193
sVPartOfSpeech
p194
VCD
p195
sVCharacterOffsetBegin
p196
V47
p197
sVNamedEntityTag
p198
VNUMBER
p199
saa(lp200
Vbeads
p201
a(dp202
VNamedEntityTag
p203
g68
sVCharacterOffsetEnd
p204
V55
p205
sVCharacterOffsetBegin
p206
V50
p207
sVPartOfSpeech
p208
VNNS
p209
sVLemma
p210
Vbead
p211
saa(lp212
Von
p213
a(dp214
VNamedEntityTag
p215
g68
sVCharacterOffsetEnd
p216
V58
p217
sVCharacterOffsetBegin
p218
V56
p219
sVPartOfSpeech
p220
VIN
p221
sVLemma
p222
Von
p223
saa(lp224
Vclearance
p225
a(dp226
VNamedEntityTag
p227
g68
sVCharacterOffsetEnd
p228
V68
p229
sVCharacterOffsetBegin
p230
V59
p231
sVPartOfSpeech
p232
VNN
p233
sVLemma
p234
Vclearance
p235
saa(lp236
Vare
p237
a(dp238
VNamedEntityTag
p239
g68
sVCharacterOffsetEnd
p240
V72
p241
sVCharacterOffsetBegin
p242
V69
p243
sVPartOfSpeech
p244
VVBP
p245
sVLemma
p246
Vbe
p247
saa(lp248
Vplastic
p249
a(dp250
VNamedEntityTag
p251
g68
sVCharacterOffsetEnd
p252
V80
p253
sVCharacterOffsetBegin
p254
V73
p255
sVPartOfSpeech
p256
VJJ
p257
sVLemma
p258
Vplastic
p259
saa(lp260
V.
p261
a(dp262
VNamedEntityTag
p263
g68
sVCharacterOffsetEnd
p264
V82
p265
sVCharacterOffsetBegin
p266
V81
p267
sVPartOfSpeech
p268
g261
sVLemma
p269
g261
saasVindexeddependencies
p270
(lp271
(lp272
Vroot
p273
aVROOT-0
p274
aVplastic-16
p275
aa(lp276
Vposs
p277
aVBoutique-5
p278
aVVera-2
p279
aa(lp280
Vnn
p281
aVBoutique-5
p282
aVBeading-4
p283
aa(lp284
Vprep_at
p285
aVplastic-16
p286
aVBoutique-5
p287
aa(lp288
Vnum
p289
aVtimes-8
p290
aV0.8-7
p291
aa(lp292
Vnsubj
p293
aVplastic-16
p294
aVtimes-8
p295
aa(lp296
Vdet
p297
aVbeads-12
p298
aVthe-10
p299
aa(lp300
Vnum
p301
aVbeads-12
p302
aV20-11
p303
aa(lp304
Vprep_of
p305
aVtimes-8
p306
aVbeads-12
p307
aa(lp308
Vprep_on
p309
aVbeads-12
p310
aVclearance-14
p311
aa(lp312
Vcop
p313
aVplastic-16
p314
aVare-15
p315
aasa(dp316
Vparsetree
p317
V(ROOT (SBARQ (WHNP (WHADJP (WRB How) (JJ many)) (NP (NP (JJ plastic)) (NP (NNS beads)))) (SQ (VBP are) (NP (EX there)) (PP (IN on) (NP (NN clearance)))) (. ?)))
p318
sVtext
p319
VHow many plastic beads are there on clearance ?
p320
sVdependencies
p321
(lp322
(lp323
Vroot
p324
aVROOT
p325
aVare
p326
aa(lp327
Vadvmod
p328
aVmany
p329
aVHow
p330
aa(lp331
Vamod
p332
aVplastic
p333
aVmany
p334
aa(lp335
Vnsubj
p336
aVare
p337
aVplastic
p338
aa(lp339
Vdep
p340
aVplastic
p341
aVbeads
p342
aa(lp343
Vexpl
p344
aVare
p345
aVthere
p346
aa(lp347
Vprep_on
p348
aVare
p349
aVclearance
p350
aasVwords
p351
(lp352
(lp353
VHow
p354
a(dp355
VNamedEntityTag
p356
g68
sVCharacterOffsetEnd
p357
V86
p358
sVCharacterOffsetBegin
p359
V83
p360
sVPartOfSpeech
p361
VWRB
p362
sVLemma
p363
Vhow
p364
saa(lp365
Vmany
p366
a(dp367
VNamedEntityTag
p368
g68
sVCharacterOffsetEnd
p369
V91
p370
sVCharacterOffsetBegin
p371
V87
p372
sVPartOfSpeech
p373
VJJ
p374
sVLemma
p375
Vmany
p376
saa(lp377
Vplastic
p378
a(dp379
VNamedEntityTag
p380
g68
sVCharacterOffsetEnd
p381
V99
p382
sVCharacterOffsetBegin
p383
V92
p384
sVPartOfSpeech
p385
VJJ
p386
sVLemma
p387
Vplastic
p388
saa(lp389
Vbeads
p390
a(dp391
VNamedEntityTag
p392
g68
sVCharacterOffsetEnd
p393
V105
p394
sVCharacterOffsetBegin
p395
V100
p396
sVPartOfSpeech
p397
VNNS
p398
sVLemma
p399
Vbead
p400
saa(lp401
Vare
p402
a(dp403
VNamedEntityTag
p404
g68
sVCharacterOffsetEnd
p405
V109
p406
sVCharacterOffsetBegin
p407
V106
p408
sVPartOfSpeech
p409
VVBP
p410
sVLemma
p411
Vbe
p412
saa(lp413
Vthere
p414
a(dp415
VNamedEntityTag
p416
g68
sVCharacterOffsetEnd
p417
V115
p418
sVCharacterOffsetBegin
p419
V110
p420
sVPartOfSpeech
p421
VEX
p422
sVLemma
p423
Vthere
p424
saa(lp425
Von
p426
a(dp427
VNamedEntityTag
p428
g68
sVCharacterOffsetEnd
p429
V118
p430
sVCharacterOffsetBegin
p431
V116
p432
sVPartOfSpeech
p433
VIN
p434
sVLemma
p435
Von
p436
saa(lp437
Vclearance
p438
a(dp439
VNamedEntityTag
p440
g68
sVCharacterOffsetEnd
p441
V128
p442
sVCharacterOffsetBegin
p443
V119
p444
sVPartOfSpeech
p445
VNN
p446
sVLemma
p447
Vclearance
p448
saa(lp449
V?
p450
a(dp451
VNamedEntityTag
p452
g68
sVCharacterOffsetEnd
p453
V130
p454
sVCharacterOffsetBegin
p455
V129
p456
sVPartOfSpeech
p457
g261
sVLemma
p458
g450
saasVindexeddependencies
p459
(lp460
(lp461
Vroot
p462
aVROOT-0
p463
aVare-5
p464
aa(lp465
Vadvmod
p466
aVmany-2
p467
aVHow-1
p468
aa(lp469
Vamod
p470
aVplastic-3
p471
aVmany-2
p472
aa(lp473
Vnsubj
p474
aVare-5
p475
aVplastic-3
p476
aa(lp477
Vdep
p478
aVplastic-3
p479
aVbeads-4
p480
aa(lp481
Vexpl
p482
aVare-5
p483
aVthere-6
p484
aa(lp485
Vprep_on
p486
aVare-5
p487
aVclearance-8
p488
aasas.