(dp0
Vsentences
p1
(lp2
(dp3
Vparsetree
p4
V(ROOT (S (S (NP (DT A) (NNS trivia) (NN team)) (VP (VBD had) (NP (NP (CD 9) (NNS members)) (JJ total)))) (, ,) (CC but) (S (PP (IN during) (NP (DT a) (NN game))) (NP (CD 3) (NNS members)) (VP (VBD did) (RB n't) (VP (VB show) (PRT (RP up))))) (. .)))
p5
sVtext
p6
VA trivia team had 9 members total , but during a game 3 members didn't show up .
p7
sVdependencies
p8
(lp9
(lp10
Vroot
p11
aVROOT
p12
aVhad
p13
aa(lp14
Vdet
p15
aVteam
p16
aVA
p17
aa(lp18
Vnn
p19
aVteam
p20
aVtrivia
p21
aa(lp22
Vnsubj
p23
aVhad
p24
aVteam
p25
aa(lp26
Vnum
p27
aVmembers
p28
aV9
p29
aa(lp30
Vdobj
p31
aVhad
p32
aVmembers
p33
aa(lp34
Vamod
p35
aVmembers
p36
aVtotal
p37
aa(lp38
Vdet
p39
aVgame
p40
aVa
p41
aa(lp42
Vprep_during
p43
aVshow
p44
aVgame
p45
aa(lp46
Vnum
p47
aVmembers
p48
aV3
p49
aa(lp50
Vnsubj
p51
aVshow
p52
aVmembers
p53
aa(lp54
Vaux
p55
aVshow
p56
aVdid
p57
aa(lp58
Vneg
p59
aVshow
p60
aVn't
p61
aa(lp62
Vconj_but
p63
aVhad
p64
aVshow
p65
aa(lp66
Vprt
p67
aVshow
p68
aVup
p69
aasVwords
p70
(lp71
(lp72
g17
a(dp73
VNamedEntityTag
p74
VO
p75
sVCharacterOffsetEnd
p76
V2
p77
sVCharacterOffsetBegin
p78
V1
p79
sVPartOfSpeech
p80
VDT
p81
sVLemma
p82
g41
saa(lp83
Vtrivia
p84
a(dp85
VNamedEntityTag
p86
g75
sVCharacterOffsetEnd
p87
g29
sVCharacterOffsetBegin
p88
g49
sVPartOfSpeech
p89
VNNS
p90
sVLemma
p91
Vtrivia
p92
saa(lp93
Vteam
p94
a(dp95
VNamedEntityTag
p96
g75
sVCharacterOffsetEnd
p97
V14
p98
sVCharacterOffsetBegin
p99
V10
p100
sVPartOfSpeech
p101
VNN
p102
sVLemma
p103
Vteam
p104
saa(lp105
Vhad
p106
a(dp107
VNamedEntityTag
p108
g75
sVCharacterOffsetEnd
p109
V18
p110
sVCharacterOffsetBegin
p111
V15
p112
sVPartOfSpeech
p113
VVBD
p114
sVLemma
p115
Vhave
p116
saa(lp117
g29
a(dp118
VNormalizedNamedEntityTag
p119
V9.0
p120
sVLemma
p121
g29
sVCharacterOffsetEnd
p122
V20
p123
sVPartOfSpeech
p124
VCD
p125
sVCharacterOffsetBegin
p126
V19
p127
sVNamedEntityTag
p128
VNUMBER
p129
saa(lp130
Vmembers
p131
a(dp132
VNamedEntityTag
p133
g75
sVCharacterOffsetEnd
p134
V28
p135
sVCharacterOffsetBegin
p136
V21
p137
sVPartOfSpeech
p138
VNNS
p139
sVLemma
p140
Vmember
p141
saa(lp142
Vtotal
p143
a(dp144
VNamedEntityTag
p145
g75
sVCharacterOffsetEnd
p146
V34
p147
sVCharacterOffsetBegin
p148
V29
p149
sVPartOfSpeech
p150
VJJ
p151
sVLemma
p152
Vtotal
p153
saa(lp154
V,
p155
a(dp156
VNamedEntityTag
p157
g75
sVCharacterOffsetEnd
p158
V36
p159
sVCharacterOffsetBegin
p160
V35
p161
sVPartOfSpeech
p162
g155
sVLemma
p163
g155
saa(lp164
Vbut
p165
a(dp166
VNamedEntityTag
p167
g75
sVCharacterOffsetEnd
p168
V40
p169
sVCharacterOffsetBegin
p170
V37
p171
sVPartOfSpeech
p172
VCC
p173
sVLemma
p174
Vbut
p175
saa(lp176
Vduring
p177
a(dp178
VNamedEntityTag
p179
g75
sVCharacterOffsetEnd
p180
V47
p181
sVCharacterOffsetBegin
p182
V41
p183
sVPartOfSpeech
p184
VIN
p185
sVLemma
p186
Vduring
p187
saa(lp188
g41
a(dp189
VNamedEntityTag
p190
g75
sVCharacterOffsetEnd
p191
V49
p192
sVCharacterOffsetBegin
p193
V48
p194
sVPartOfSpeech
p195
VDT
p196
sVLemma
p197
g41
saa(lp198
Vgame
p199
a(dp200
VNamedEntityTag
p201
g75
sVCharacterOffsetEnd
p202
V54
p203
sVCharacterOffsetBegin
p204
V50
p205
sVPartOfSpeech
p206
VNN
p207
sVLemma
p208
Vgame
p209
saa(lp210
g49
a(dp211
VNormalizedNamedEntityTag
p212
V3.0
p213
sVLemma
p214
g49
sVCharacterOffsetEnd
p215
V56
p216
sVPartOfSpeech
p217
VCD
p218
sVCharacterOffsetBegin
p219
V55
p220
sVNamedEntityTag
p221
VNUMBER
p222
saa(lp223
Vmembers
p224
a(dp225
VNamedEntityTag
p226
g75
sVCharacterOffsetEnd
p227
V64
p228
sVCharacterOffsetBegin
p229
V57
p230
sVPartOfSpeech
p231
VNNS
p232
sVLemma
p233
Vmember
p234
saa(lp235
Vdid
p236
a(dp237
VNamedEntityTag
p238
g75
sVCharacterOffsetEnd
p239
V68
p240
sVCharacterOffsetBegin
p241
V65
p242
sVPartOfSpeech
p243
VVBD
p244
sVLemma
p245
Vdo
p246
saa(lp247
Vn't
p248
a(dp249
VNamedEntityTag
p250
g75
sVCharacterOffsetEnd
p251
V71
p252
sVCharacterOffsetBegin
p253
V68
p254
sVPartOfSpeech
p255
VRB
p256
sVLemma
p257
Vnot
p258
saa(lp259
Vshow
p260
a(dp261
VNamedEntityTag
p262
g75
sVCharacterOffsetEnd
p263
V76
p264
sVCharacterOffsetBegin
p265
V72
p266
sVPartOfSpeech
p267
VVB
p268
sVLemma
p269
Vshow
p270
saa(lp271
Vup
p272
a(dp273
VNamedEntityTag
p274
g75
sVCharacterOffsetEnd
p275
V79
p276
sVCharacterOffsetBegin
p277
V77
p278
sVPartOfSpeech
p279
VRP
p280
sVLemma
p281
Vup
p282
saa(lp283
V.
p284
a(dp285
VNamedEntityTag
p286
g75
sVCharacterOffsetEnd
p287
V81
p288
sVCharacterOffsetBegin
p289
V80
p290
sVPartOfSpeech
p291
g284
sVLemma
p292
g284
saasVindexeddependencies
p293
(lp294
(lp295
Vroot
p296
aVROOT-0
p297
aVhad-4
p298
aa(lp299
Vdet
p300
aVteam-3
p301
aVA-1
p302
aa(lp303
Vnn
p304
aVteam-3
p305
aVtrivia-2
p306
aa(lp307
Vnsubj
p308
aVhad-4
p309
aVteam-3
p310
aa(lp311
Vnum
p312
aVmembers-6
p313
aV9-5
p314
aa(lp315
Vdobj
p316
aVhad-4
p317
aVmembers-6
p318
aa(lp319
Vamod
p320
aVmembers-6
p321
aVtotal-7
p322
aa(lp323
Vdet
p324
aVgame-12
p325
aVa-11
p326
aa(lp327
Vprep_during
p328
aVshow-17
p329
aVgame-12
p330
aa(lp331
Vnum
p332
aVmembers-14
p333
aV3-13
p334
aa(lp335
Vnsubj
p336
aVshow-17
p337
aVmembers-14
p338
aa(lp339
Vaux
p340
aVshow-17
p341
aVdid-15
p342
aa(lp343
Vneg
p344
aVshow-17
p345
aVn't-16
p346
aa(lp347
Vconj_but
p348
aVhad-4
p349
aVshow-17
p350
aa(lp351
Vprt
p352
aVshow-17
p353
aVup-18
p354
aasa(dp355
Vparsetree
p356
V(ROOT (SBARQ (SBAR (IN If) (S (NP (NP (DT each) (NN member)) (SBAR (WHNP (WDT that)) (S (VP (VBD did) (S (VP (VB show) (PRT (RP up)))))))) (VP (VBN scored) (NP (CD 2) (NNS points))))) (, ,) (WHNP (WHADJP (WRB how) (JJ many)) (NNS points)) (SQ (VBD were) (VP (VBN scored) (NP (NN total)))) (. ?)))
p357
sVtext
p358
VIf each member that did show up scored 2 points , how many points were scored total ?
p359
sVdependencies
p360
(lp361
(lp362
Vroot
p363
aVROOT
p364
aVscored
p365
aa(lp366
Vmark
p367
aVscored
p368
aVIf
p369
aa(lp370
Vdet
p371
aVmember
p372
aVeach
p373
aa(lp374
Vnsubj
p375
aVscored
p376
aVmember
p377
aa(lp378
Vnsubj
p379
aVdid
p380
aVthat
p381
aa(lp382
Vrcmod
p383
aVmember
p384
aVdid
p385
aa(lp386
Vccomp
p387
aVdid
p388
aVshow
p389
aa(lp390
Vprt
p391
aVshow
p392
aVup
p393
aa(lp394
Vadvcl
p395
aVscored
p396
aVscored
p397
aa(lp398
Vnum
p399
aVpoints
p400
ag77
aa(lp401
Vdobj
p402
aVscored
p403
aVpoints
p404
aa(lp405
Vadvmod
p406
aVmany
p407
aVhow
p408
aa(lp409
Vamod
p410
aVpoints
p411
aVmany
p412
aa(lp413
Vnsubjpass
p414
aVscored
p415
aVpoints
p416
aa(lp417
Vauxpass
p418
aVscored
p419
aVwere
p420
aa(lp421
Vdobj
p422
aVscored
p423
aVtotal
p424
aasVwords
p425
(lp426
(lp427
VIf
p428
a(dp429
VNamedEntityTag
p430
g75
sVCharacterOffsetEnd
p431
V84
p432
sVCharacterOffsetBegin
p433
V82
p434
sVPartOfSpeech
p435
VIN
p436
sVLemma
p437
Vif
p438
saa(lp439
Veach
p440
a(dp441
VNamedEntityTag
p442
g75
sVCharacterOffsetEnd
p443
V89
p444
sVCharacterOffsetBegin
p445
V85
p446
sVPartOfSpeech
p447
VDT
p448
sVLemma
p449
Veach
p450
saa(lp451
Vmember
p452
a(dp453
VNamedEntityTag
p454
g75
sVCharacterOffsetEnd
p455
V96
p456
sVCharacterOffsetBegin
p457
V90
p458
sVPartOfSpeech
p459
VNN
p460
sVLemma
p461
Vmember
p462
saa(lp463
Vthat
p464
a(dp465
VNamedEntityTag
p466
g75
sVCharacterOffsetEnd
p467
V101
p468
sVCharacterOffsetBegin
p469
V97
p470
sVPartOfSpeech
p471
VWDT
p472
sVLemma
p473
Vthat
p474
saa(lp475
Vdid
p476
a(dp477
VNamedEntityTag
p478
g75
sVCharacterOffsetEnd
p479
V105
p480
sVCharacterOffsetBegin
p481
V102
p482
sVPartOfSpeech
p483
VVBD
p484
sVLemma
p485
Vdo
p486
saa(lp487
Vshow
p488
a(dp489
VNamedEntityTag
p490
g75
sVCharacterOffsetEnd
p491
V110
p492
sVCharacterOffsetBegin
p493
V106
p494
sVPartOfSpeech
p495
VVB
p496
sVLemma
p497
Vshow
p498
saa(lp499
Vup
p500
a(dp501
VNamedEntityTag
p502
g75
sVCharacterOffsetEnd
p503
V113
p504
sVCharacterOffsetBegin
p505
V111
p506
sVPartOfSpeech
p507
VRP
p508
sVLemma
p509
Vup
p510
saa(lp511
Vscored
p512
a(dp513
VNamedEntityTag
p514
g75
sVCharacterOffsetEnd
p515
V120
p516
sVCharacterOffsetBegin
p517
V114
p518
sVPartOfSpeech
p519
VVBN
p520
sVLemma
p521
Vscore
p522
saa(lp523
g77
a(dp524
VNormalizedNamedEntityTag
p525
V2.0
p526
sVLemma
p527
g77
sVCharacterOffsetEnd
p528
V122
p529
sVPartOfSpeech
p530
VCD
p531
sVCharacterOffsetBegin
p532
V121
p533
sVNamedEntityTag
p534
VNUMBER
p535
saa(lp536
Vpoints
p537
a(dp538
VNamedEntityTag
p539
g75
sVCharacterOffsetEnd
p540
V129
p541
sVCharacterOffsetBegin
p542
V123
p543
sVPartOfSpeech
p544
VNNS
p545
sVLemma
p546
Vpoint
p547
saa(lp548
g155
a(dp549
VNamedEntityTag
p550
g75
sVCharacterOffsetEnd
p551
V131
p552
sVCharacterOffsetBegin
p553
V130
p554
sVPartOfSpeech
p555
g155
sVLemma
p556
g155
saa(lp557
Vhow
p558
a(dp559
VNamedEntityTag
p560
g75
sVCharacterOffsetEnd
p561
V135
p562
sVCharacterOffsetBegin
p563
V132
p564
sVPartOfSpeech
p565
VWRB
p566
sVLemma
p567
Vhow
p568
saa(lp569
Vmany
p570
a(dp571
VNamedEntityTag
p572
g75
sVCharacterOffsetEnd
p573
V140
p574
sVCharacterOffsetBegin
p575
V136
p576
sVPartOfSpeech
p577
VJJ
p578
sVLemma
p579
Vmany
p580
saa(lp581
Vpoints
p582
a(dp583
VNamedEntityTag
p584
g75
sVCharacterOffsetEnd
p585
V147
p586
sVCharacterOffsetBegin
p587
V141
p588
sVPartOfSpeech
p589
VNNS
p590
sVLemma
p591
Vpoint
p592
saa(lp593
Vwere
p594
a(dp595
VNamedEntityTag
p596
g75
sVCharacterOffsetEnd
p597
V152
p598
sVCharacterOffsetBegin
p599
V148
p600
sVPartOfSpeech
p601
VVBD
p602
sVLemma
p603
Vbe
p604
saa(lp605
Vscored
p606
a(dp607
VNamedEntityTag
p608
g75
sVCharacterOffsetEnd
p609
V159
p610
sVCharacterOffsetBegin
p611
V153
p612
sVPartOfSpeech
p613
VVBN
p614
sVLemma
p615
Vscore
p616
saa(lp617
Vtotal
p618
a(dp619
VNamedEntityTag
p620
g75
sVCharacterOffsetEnd
p621
V165
p622
sVCharacterOffsetBegin
p623
V160
p624
sVPartOfSpeech
p625
VNN
p626
sVLemma
p627
Vtotal
p628
saa(lp629
V?
p630
a(dp631
VNamedEntityTag
p632
g75
sVCharacterOffsetEnd
p633
V167
p634
sVCharacterOffsetBegin
p635
V166
p636
sVPartOfSpeech
p637
g284
sVLemma
p638
g630
saasVindexeddependencies
p639
(lp640
(lp641
Vroot
p642
aVROOT-0
p643
aVscored-16
p644
aa(lp645
Vmark
p646
aVscored-8
p647
aVIf-1
p648
aa(lp649
Vdet
p650
aVmember-3
p651
aVeach-2
p652
aa(lp653
Vnsubj
p654
aVscored-8
p655
aVmember-3
p656
aa(lp657
Vnsubj
p658
aVdid-5
p659
aVthat-4
p660
aa(lp661
Vrcmod
p662
aVmember-3
p663
aVdid-5
p664
aa(lp665
Vccomp
p666
aVdid-5
p667
aVshow-6
p668
aa(lp669
Vprt
p670
aVshow-6
p671
aVup-7
p672
aa(lp673
Vadvcl
p674
aVscored-16
p675
aVscored-8
p676
aa(lp677
Vnum
p678
aVpoints-10
p679
aV2-9
p680
aa(lp681
Vdobj
p682
aVscored-8
p683
aVpoints-10
p684
aa(lp685
Vadvmod
p686
aVmany-13
p687
aVhow-12
p688
aa(lp689
Vamod
p690
aVpoints-14
p691
aVmany-13
p692
aa(lp693
Vnsubjpass
p694
aVscored-16
p695
aVpoints-14
p696
aa(lp697
Vauxpass
p698
aVscored-16
p699
aVwere-15
p700
aa(lp701
Vdobj
p702
aVscored-16
p703
aVtotal-17
p704
aasas.