(dp0
Vcoref
p1
(lp2
(lp3
(lp4
(lp5
Vhe
p6
aI1
aI1
aI1
aI2
aa(lp7
VSam
p8
aI0
aI0
aI0
aI1
aaa(lp9
(lp10
Vhe
p11
aI1
aI18
aI18
aI19
aa(lp12
VSam
p13
aI0
aI0
aI0
aI1
aaaasVsentences
p14
(lp15
(dp16
Vparsetree
p17
V(ROOT (S (S (NP (NNP Sam)) (VP (VBD invited) (NP (CD 9) (NNS friends)) (PP (TO to) (NP (DT a) (NN birthday) (NN party))))) (, ,) (CC but) (S (NP (CD 6)) (VP (MD could) (RB n't) (VP (VB come)))) (. .)))
p18
sVtext
p19
VSam invited 9 friends to a birthday party , but 6 couldn't come .
p20
sVdependencies
p21
(lp22
(lp23
Vroot
p24
aVROOT
p25
aVinvited
p26
aa(lp27
Vnsubj
p28
aVinvited
p29
aVSam
p30
aa(lp31
Vnum
p32
aVfriends
p33
aV9
p34
aa(lp35
Vdobj
p36
aVinvited
p37
aVfriends
p38
aa(lp39
Vdet
p40
aVparty
p41
aVa
p42
aa(lp43
Vnn
p44
aVparty
p45
aVbirthday
p46
aa(lp47
Vprep_to
p48
aVinvited
p49
aVparty
p50
aa(lp51
Vnsubj
p52
aVcome
p53
aV6
p54
aa(lp55
Vaux
p56
aVcome
p57
aVcould
p58
aa(lp59
Vneg
p60
aVcome
p61
aVn't
p62
aa(lp63
Vconj_but
p64
aVinvited
p65
aVcome
p66
aasVwords
p67
(lp68
(lp69
VSam
p70
a(dp71
VNamedEntityTag
p72
VPERSON
p73
sVCharacterOffsetEnd
p74
V4
p75
sVCharacterOffsetBegin
p76
V1
p77
sVPartOfSpeech
p78
VNNP
p79
sVLemma
p80
VSam
p81
saa(lp82
Vinvited
p83
a(dp84
VNamedEntityTag
p85
VO
p86
sVCharacterOffsetEnd
p87
V12
p88
sVCharacterOffsetBegin
p89
V5
p90
sVPartOfSpeech
p91
VVBD
p92
sVLemma
p93
Vinvite
p94
saa(lp95
g34
a(dp96
VNormalizedNamedEntityTag
p97
V9.0
p98
sVLemma
p99
g34
sVCharacterOffsetEnd
p100
V14
p101
sVPartOfSpeech
p102
VCD
p103
sVCharacterOffsetBegin
p104
V13
p105
sVNamedEntityTag
p106
VNUMBER
p107
saa(lp108
Vfriends
p109
a(dp110
VNamedEntityTag
p111
g86
sVCharacterOffsetEnd
p112
V22
p113
sVCharacterOffsetBegin
p114
V15
p115
sVPartOfSpeech
p116
VNNS
p117
sVLemma
p118
Vfriend
p119
saa(lp120
Vto
p121
a(dp122
VNamedEntityTag
p123
g86
sVCharacterOffsetEnd
p124
V25
p125
sVCharacterOffsetBegin
p126
V23
p127
sVPartOfSpeech
p128
VTO
p129
sVLemma
p130
Vto
p131
saa(lp132
g42
a(dp133
VNamedEntityTag
p134
g86
sVCharacterOffsetEnd
p135
V27
p136
sVCharacterOffsetBegin
p137
V26
p138
sVPartOfSpeech
p139
VDT
p140
sVLemma
p141
g42
saa(lp142
Vbirthday
p143
a(dp144
VNamedEntityTag
p145
g86
sVCharacterOffsetEnd
p146
V36
p147
sVCharacterOffsetBegin
p148
V28
p149
sVPartOfSpeech
p150
VNN
p151
sVLemma
p152
Vbirthday
p153
saa(lp154
Vparty
p155
a(dp156
VNamedEntityTag
p157
g86
sVCharacterOffsetEnd
p158
V42
p159
sVCharacterOffsetBegin
p160
V37
p161
sVPartOfSpeech
p162
VNN
p163
sVLemma
p164
Vparty
p165
saa(lp166
V,
p167
a(dp168
VNamedEntityTag
p169
g86
sVCharacterOffsetEnd
p170
V44
p171
sVCharacterOffsetBegin
p172
V43
p173
sVPartOfSpeech
p174
g167
sVLemma
p175
g167
saa(lp176
Vbut
p177
a(dp178
VNamedEntityTag
p179
g86
sVCharacterOffsetEnd
p180
V48
p181
sVCharacterOffsetBegin
p182
V45
p183
sVPartOfSpeech
p184
VCC
p185
sVLemma
p186
Vbut
p187
saa(lp188
g54
a(dp189
VNormalizedNamedEntityTag
p190
V6.0
p191
sVLemma
p192
g54
sVCharacterOffsetEnd
p193
V50
p194
sVPartOfSpeech
p195
VCD
p196
sVCharacterOffsetBegin
p197
V49
p198
sVNamedEntityTag
p199
VNUMBER
p200
saa(lp201
Vcould
p202
a(dp203
VNamedEntityTag
p204
g86
sVCharacterOffsetEnd
p205
V56
p206
sVCharacterOffsetBegin
p207
V51
p208
sVPartOfSpeech
p209
VMD
p210
sVLemma
p211
Vcould
p212
saa(lp213
Vn't
p214
a(dp215
VNamedEntityTag
p216
g86
sVCharacterOffsetEnd
p217
V59
p218
sVCharacterOffsetBegin
p219
V56
p220
sVPartOfSpeech
p221
VRB
p222
sVLemma
p223
Vnot
p224
saa(lp225
Vcome
p226
a(dp227
VNamedEntityTag
p228
g86
sVCharacterOffsetEnd
p229
V64
p230
sVCharacterOffsetBegin
p231
V60
p232
sVPartOfSpeech
p233
VVB
p234
sVLemma
p235
Vcome
p236
saa(lp237
V.
p238
a(dp239
VNamedEntityTag
p240
g86
sVCharacterOffsetEnd
p241
V66
p242
sVCharacterOffsetBegin
p243
V65
p244
sVPartOfSpeech
p245
g238
sVLemma
p246
g238
saasVindexeddependencies
p247
(lp248
(lp249
Vroot
p250
aVROOT-0
p251
aVinvited-2
p252
aa(lp253
Vnsubj
p254
aVinvited-2
p255
aVSam-1
p256
aa(lp257
Vnum
p258
aVfriends-4
p259
aV9-3
p260
aa(lp261
Vdobj
p262
aVinvited-2
p263
aVfriends-4
p264
aa(lp265
Vdet
p266
aVparty-8
p267
aVa-6
p268
aa(lp269
Vnn
p270
aVparty-8
p271
aVbirthday-7
p272
aa(lp273
Vprep_to
p274
aVinvited-2
p275
aVparty-8
p276
aa(lp277
Vnsubj
p278
aVcome-14
p279
aV6-11
p280
aa(lp281
Vaux
p282
aVcome-14
p283
aVcould-12
p284
aa(lp285
Vneg
p286
aVcome-14
p287
aVn't-13
p288
aa(lp289
Vconj_but
p290
aVinvited-2
p291
aVcome-14
p292
aasa(dp293
Vparsetree
p294
V(ROOT (SBARQ (SBAR (IN If) (S (NP (PRP he)) (VP (VBD wanted) (S (VP (TO to) (VP (VB buy) (NP (JJ enough) (NNS cupcakes)) (SBAR (IN so) (S (NP (DT each) (NN person)) (VP (MD could) (VP (VB have) (NP (RB exactly) (CD 2)))))))))))) (, ,) (WHNP (WRB how) (JJ many)) (SQ (MD should) (NP (PRP he)) (VP (VB buy))) (. ?)))
p295
sVtext
p296
VIf he wanted to buy enough cupcakes so each person could have exactly 2 , how many should he buy ?
p297
sVdependencies
p298
(lp299
(lp300
Vroot
p301
aVROOT
p302
aVbuy
p303
aa(lp304
Vmark
p305
aVwanted
p306
aVIf
p307
aa(lp308
Vnsubj
p309
aVwanted
p310
aVhe
p311
aa(lp312
Vadvcl
p313
aVbuy
p314
aVwanted
p315
aa(lp316
Vaux
p317
aVbuy
p318
aVto
p319
aa(lp320
Vxcomp
p321
aVwanted
p322
aVbuy
p323
aa(lp324
Vamod
p325
aVcupcakes
p326
aVenough
p327
aa(lp328
Vdobj
p329
aVbuy
p330
aVcupcakes
p331
aa(lp332
Vmark
p333
aVhave
p334
aVso
p335
aa(lp336
Vdet
p337
aVperson
p338
aVeach
p339
aa(lp340
Vnsubj
p341
aVhave
p342
aVperson
p343
aa(lp344
Vaux
p345
aVhave
p346
aVcould
p347
aa(lp348
Vadvcl
p349
aVbuy
p350
aVhave
p351
aa(lp352
Vadvmod
p353
aV2
p354
aVexactly
p355
aa(lp356
Vdobj
p357
aVhave
p358
ag354
aa(lp359
Vadvmod
p360
aVmany
p361
aVhow
p362
aa(lp363
Vdep
p364
aVbuy
p365
aVmany
p366
aa(lp367
Vaux
p368
aVbuy
p369
aVshould
p370
aa(lp371
Vnsubj
p372
aVbuy
p373
aVhe
p374
aasVwords
p375
(lp376
(lp377
VIf
p378
a(dp379
VNamedEntityTag
p380
g86
sVCharacterOffsetEnd
p381
V69
p382
sVCharacterOffsetBegin
p383
V67
p384
sVPartOfSpeech
p385
VIN
p386
sVLemma
p387
Vif
p388
saa(lp389
Vhe
p390
a(dp391
VNamedEntityTag
p392
g86
sVCharacterOffsetEnd
p393
V72
p394
sVCharacterOffsetBegin
p395
V70
p396
sVPartOfSpeech
p397
VPRP
p398
sVLemma
p399
Vhe
p400
saa(lp401
Vwanted
p402
a(dp403
VNamedEntityTag
p404
g86
sVCharacterOffsetEnd
p405
V79
p406
sVCharacterOffsetBegin
p407
V73
p408
sVPartOfSpeech
p409
VVBD
p410
sVLemma
p411
Vwant
p412
saa(lp413
Vto
p414
a(dp415
VNamedEntityTag
p416
g86
sVCharacterOffsetEnd
p417
V82
p418
sVCharacterOffsetBegin
p419
V80
p420
sVPartOfSpeech
p421
VTO
p422
sVLemma
p423
Vto
p424
saa(lp425
Vbuy
p426
a(dp427
VNamedEntityTag
p428
g86
sVCharacterOffsetEnd
p429
V86
p430
sVCharacterOffsetBegin
p431
V83
p432
sVPartOfSpeech
p433
VVB
p434
sVLemma
p435
Vbuy
p436
saa(lp437
Venough
p438
a(dp439
VNamedEntityTag
p440
g86
sVCharacterOffsetEnd
p441
V93
p442
sVCharacterOffsetBegin
p443
V87
p444
sVPartOfSpeech
p445
VJJ
p446
sVLemma
p447
Venough
p448
saa(lp449
Vcupcakes
p450
a(dp451
VNamedEntityTag
p452
g86
sVCharacterOffsetEnd
p453
V102
p454
sVCharacterOffsetBegin
p455
V94
p456
sVPartOfSpeech
p457
VNNS
p458
sVLemma
p459
Vcupcake
p460
saa(lp461
Vso
p462
a(dp463
VNamedEntityTag
p464
g86
sVCharacterOffsetEnd
p465
V105
p466
sVCharacterOffsetBegin
p467
V103
p468
sVPartOfSpeech
p469
VIN
p470
sVLemma
p471
Vso
p472
saa(lp473
Veach
p474
a(dp475
VNamedEntityTag
p476
g86
sVCharacterOffsetEnd
p477
V110
p478
sVCharacterOffsetBegin
p479
V106
p480
sVPartOfSpeech
p481
VDT
p482
sVLemma
p483
Veach
p484
saa(lp485
Vperson
p486
a(dp487
VNamedEntityTag
p488
g86
sVCharacterOffsetEnd
p489
V117
p490
sVCharacterOffsetBegin
p491
V111
p492
sVPartOfSpeech
p493
VNN
p494
sVLemma
p495
Vperson
p496
saa(lp497
Vcould
p498
a(dp499
VNamedEntityTag
p500
g86
sVCharacterOffsetEnd
p501
V123
p502
sVCharacterOffsetBegin
p503
V118
p504
sVPartOfSpeech
p505
VMD
p506
sVLemma
p507
Vcould
p508
saa(lp509
Vhave
p510
a(dp511
VNamedEntityTag
p512
g86
sVCharacterOffsetEnd
p513
V128
p514
sVCharacterOffsetBegin
p515
V124
p516
sVPartOfSpeech
p517
VVB
p518
sVLemma
p519
Vhave
p520
saa(lp521
Vexactly
p522
a(dp523
VNamedEntityTag
p524
g86
sVCharacterOffsetEnd
p525
V136
p526
sVCharacterOffsetBegin
p527
V129
p528
sVPartOfSpeech
p529
VRB
p530
sVLemma
p531
Vexactly
p532
saa(lp533
g354
a(dp534
VNormalizedNamedEntityTag
p535
V2.0
p536
sVLemma
p537
g354
sVCharacterOffsetEnd
p538
V138
p539
sVPartOfSpeech
p540
VCD
p541
sVCharacterOffsetBegin
p542
V137
p543
sVNamedEntityTag
p544
VNUMBER
p545
saa(lp546
g167
a(dp547
VNamedEntityTag
p548
g86
sVCharacterOffsetEnd
p549
V140
p550
sVCharacterOffsetBegin
p551
V139
p552
sVPartOfSpeech
p553
g167
sVLemma
p554
g167
saa(lp555
Vhow
p556
a(dp557
VNamedEntityTag
p558
g86
sVCharacterOffsetEnd
p559
V144
p560
sVCharacterOffsetBegin
p561
V141
p562
sVPartOfSpeech
p563
VWRB
p564
sVLemma
p565
Vhow
p566
saa(lp567
Vmany
p568
a(dp569
VNamedEntityTag
p570
g86
sVCharacterOffsetEnd
p571
V149
p572
sVCharacterOffsetBegin
p573
V145
p574
sVPartOfSpeech
p575
VJJ
p576
sVLemma
p577
Vmany
p578
saa(lp579
Vshould
p580
a(dp581
VNamedEntityTag
p582
g86
sVCharacterOffsetEnd
p583
V156
p584
sVCharacterOffsetBegin
p585
V150
p586
sVPartOfSpeech
p587
VMD
p588
sVLemma
p589
Vshould
p590
saa(lp591
Vhe
p592
a(dp593
VNamedEntityTag
p594
g86
sVCharacterOffsetEnd
p595
V159
p596
sVCharacterOffsetBegin
p597
V157
p598
sVPartOfSpeech
p599
VPRP
p600
sVLemma
p601
Vhe
p602
saa(lp603
Vbuy
p604
a(dp605
VNamedEntityTag
p606
g86
sVCharacterOffsetEnd
p607
V163
p608
sVCharacterOffsetBegin
p609
V160
p610
sVPartOfSpeech
p611
VVB
p612
sVLemma
p613
Vbuy
p614
saa(lp615
V?
p616
a(dp617
VNamedEntityTag
p618
g86
sVCharacterOffsetEnd
p619
V165
p620
sVCharacterOffsetBegin
p621
V164
p622
sVPartOfSpeech
p623
g238
sVLemma
p624
g616
saasVindexeddependencies
p625
(lp626
(lp627
Vroot
p628
aVROOT-0
p629
aVbuy-20
p630
aa(lp631
Vmark
p632
aVwanted-3
p633
aVIf-1
p634
aa(lp635
Vnsubj
p636
aVwanted-3
p637
aVhe-2
p638
aa(lp639
Vadvcl
p640
aVbuy-20
p641
aVwanted-3
p642
aa(lp643
Vaux
p644
aVbuy-5
p645
aVto-4
p646
aa(lp647
Vxcomp
p648
aVwanted-3
p649
aVbuy-5
p650
aa(lp651
Vamod
p652
aVcupcakes-7
p653
aVenough-6
p654
aa(lp655
Vdobj
p656
aVbuy-5
p657
aVcupcakes-7
p658
aa(lp659
Vmark
p660
aVhave-12
p661
aVso-8
p662
aa(lp663
Vdet
p664
aVperson-10
p665
aVeach-9
p666
aa(lp667
Vnsubj
p668
aVhave-12
p669
aVperson-10
p670
aa(lp671
Vaux
p672
aVhave-12
p673
aVcould-11
p674
aa(lp675
Vadvcl
p676
aVbuy-5
p677
aVhave-12
p678
aa(lp679
Vadvmod
p680
aV2-14
p681
aVexactly-13
p682
aa(lp683
Vdobj
p684
aVhave-12
p685
aV2-14
p686
aa(lp687
Vadvmod
p688
aVmany-17
p689
aVhow-16
p690
aa(lp691
Vdep
p692
aVbuy-20
p693
aVmany-17
p694
aa(lp695
Vaux
p696
aVbuy-20
p697
aVshould-18
p698
aa(lp699
Vnsubj
p700
aVbuy-20
p701
aVhe-19
p702
aasas.