(dp0
Vcoref
p1
(lp2
(lp3
(lp4
(lp5
Vshe
p6
aI0
aI9
aI9
aI10
aa(lp7
VMegan
p8
aI0
aI0
aI0
aI1
aaa(lp9
(lp10
Vshe
p11
aI1
aI1
aI1
aI2
aa(lp12
VMegan
p13
aI0
aI0
aI0
aI1
aaa(lp14
(lp15
Vshe
p16
aI1
aI18
aI18
aI19
aa(lp17
VMegan
p18
aI0
aI0
aI0
aI1
aaaasVsentences
p19
(lp20
(dp21
Vparsetree
p22
V(ROOT (S (S (NP (NNP Megan)) (VP (VBD earned) (NP (CD 8) (NNS points)) (PP (IN for) (NP (NP (DT each) (NN bag)) (PP (IN of) (NP (NNS cans))))))) (NP (PRP she)) (VP (VBD recycled)) (. .)))
p23
sVtext
p24
VMegan earned 8 points for each bag of cans she recycled .
p25
sVdependencies
p26
(lp27
(lp28
Vroot
p29
aVROOT
p30
aVrecycled
p31
aa(lp32
Vnsubj
p33
aVearned
p34
aVMegan
p35
aa(lp36
Vdep
p37
aVrecycled
p38
aVearned
p39
aa(lp40
Vnum
p41
aVpoints
p42
aV8
p43
aa(lp44
Vdobj
p45
aVearned
p46
aVpoints
p47
aa(lp48
Vdet
p49
aVbag
p50
aVeach
p51
aa(lp52
Vprep_for
p53
aVearned
p54
aVbag
p55
aa(lp56
Vprep_of
p57
aVbag
p58
aVcans
p59
aa(lp60
Vnsubj
p61
aVrecycled
p62
aVshe
p63
aasVwords
p64
(lp65
(lp66
VMegan
p67
a(dp68
VNamedEntityTag
p69
VPERSON
p70
sVCharacterOffsetEnd
p71
V6
p72
sVCharacterOffsetBegin
p73
V1
p74
sVPartOfSpeech
p75
VNNP
p76
sVLemma
p77
VMegan
p78
saa(lp79
Vearned
p80
a(dp81
VNamedEntityTag
p82
VO
p83
sVCharacterOffsetEnd
p84
V13
p85
sVCharacterOffsetBegin
p86
V7
p87
sVPartOfSpeech
p88
VVBD
p89
sVLemma
p90
Vearn
p91
saa(lp92
g43
a(dp93
VNormalizedNamedEntityTag
p94
V8.0
p95
sVLemma
p96
g43
sVCharacterOffsetEnd
p97
V15
p98
sVPartOfSpeech
p99
VCD
p100
sVCharacterOffsetBegin
p101
V14
p102
sVNamedEntityTag
p103
VNUMBER
p104
saa(lp105
Vpoints
p106
a(dp107
VNamedEntityTag
p108
g83
sVCharacterOffsetEnd
p109
V22
p110
sVCharacterOffsetBegin
p111
V16
p112
sVPartOfSpeech
p113
VNNS
p114
sVLemma
p115
Vpoint
p116
saa(lp117
Vfor
p118
a(dp119
VNamedEntityTag
p120
g83
sVCharacterOffsetEnd
p121
V26
p122
sVCharacterOffsetBegin
p123
V23
p124
sVPartOfSpeech
p125
VIN
p126
sVLemma
p127
Vfor
p128
saa(lp129
Veach
p130
a(dp131
VNamedEntityTag
p132
g83
sVCharacterOffsetEnd
p133
V31
p134
sVCharacterOffsetBegin
p135
V27
p136
sVPartOfSpeech
p137
VDT
p138
sVLemma
p139
Veach
p140
saa(lp141
Vbag
p142
a(dp143
VNamedEntityTag
p144
g83
sVCharacterOffsetEnd
p145
V35
p146
sVCharacterOffsetBegin
p147
V32
p148
sVPartOfSpeech
p149
VNN
p150
sVLemma
p151
Vbag
p152
saa(lp153
Vof
p154
a(dp155
VNamedEntityTag
p156
g83
sVCharacterOffsetEnd
p157
V38
p158
sVCharacterOffsetBegin
p159
V36
p160
sVPartOfSpeech
p161
VIN
p162
sVLemma
p163
Vof
p164
saa(lp165
Vcans
p166
a(dp167
VNamedEntityTag
p168
g83
sVCharacterOffsetEnd
p169
V43
p170
sVCharacterOffsetBegin
p171
V39
p172
sVPartOfSpeech
p173
VNNS
p174
sVLemma
p175
Vcan
p176
saa(lp177
Vshe
p178
a(dp179
VNamedEntityTag
p180
g83
sVCharacterOffsetEnd
p181
V47
p182
sVCharacterOffsetBegin
p183
V44
p184
sVPartOfSpeech
p185
VPRP
p186
sVLemma
p187
Vshe
p188
saa(lp189
Vrecycled
p190
a(dp191
VNamedEntityTag
p192
g83
sVCharacterOffsetEnd
p193
V56
p194
sVCharacterOffsetBegin
p195
V48
p196
sVPartOfSpeech
p197
VVBD
p198
sVLemma
p199
Vrecycle
p200
saa(lp201
V.
p202
a(dp203
VNamedEntityTag
p204
g83
sVCharacterOffsetEnd
p205
V58
p206
sVCharacterOffsetBegin
p207
V57
p208
sVPartOfSpeech
p209
g202
sVLemma
p210
g202
saasVindexeddependencies
p211
(lp212
(lp213
Vroot
p214
aVROOT-0
p215
aVrecycled-11
p216
aa(lp217
Vnsubj
p218
aVearned-2
p219
aVMegan-1
p220
aa(lp221
Vdep
p222
aVrecycled-11
p223
aVearned-2
p224
aa(lp225
Vnum
p226
aVpoints-4
p227
aV8-3
p228
aa(lp229
Vdobj
p230
aVearned-2
p231
aVpoints-4
p232
aa(lp233
Vdet
p234
aVbag-7
p235
aVeach-6
p236
aa(lp237
Vprep_for
p238
aVearned-2
p239
aVbag-7
p240
aa(lp241
Vprep_of
p242
aVbag-7
p243
aVcans-9
p244
aa(lp245
Vnsubj
p246
aVrecycled-11
p247
aVshe-10
p248
aasa(dp249
Vparsetree
p250
V(ROOT (SBARQ (SBAR (IN If) (S (NP (PRP she)) (VP (VP (VBD had) (NP (CD 14) (NNS bags))) (, ,) (CC but) (VP (VBD did) (RB n't) (VP (VB recycle) (NP (NP (CD 5)) (PP (IN of) (NP (PRP them))))))))) (, ,) (WHNP (WHADJP (WRB how) (JJ many)) (NNS points)) (SQ (MD would) (NP (PRP she)) (VP (VB have) (VP (VBN earned)))) (. ?)))
p251
sVtext
p252
VIf she had 14 bags , but didn't recycle 5 of them , how many points would she have earned ?
p253
sVdependencies
p254
(lp255
(lp256
Vroot
p257
aVROOT
p258
aVearned
p259
aa(lp260
Vmark
p261
aVhad
p262
aVIf
p263
aa(lp264
Vnsubj
p265
aVhad
p266
aVshe
p267
aa(lp268
Vadvcl
p269
aVearned
p270
aVhad
p271
aa(lp272
Vnum
p273
aVbags
p274
aV14
p275
aa(lp276
Vdobj
p277
aVhad
p278
aVbags
p279
aa(lp280
Vaux
p281
aVrecycle
p282
aVdid
p283
aa(lp284
Vneg
p285
aVrecycle
p286
aVn't
p287
aa(lp288
Vconj_but
p289
aVhad
p290
aVrecycle
p291
aa(lp292
Vdobj
p293
aVrecycle
p294
aV5
p295
aa(lp296
Vprep_of
p297
ag295
aVthem
p298
aa(lp299
Vadvmod
p300
aVmany
p301
aVhow
p302
aa(lp303
Vamod
p304
aVpoints
p305
aVmany
p306
aa(lp307
Vdobj
p308
aVearned
p309
aVpoints
p310
aa(lp311
Vaux
p312
aVearned
p313
aVwould
p314
aa(lp315
Vnsubj
p316
aVearned
p317
aVshe
p318
aa(lp319
Vaux
p320
aVearned
p321
aVhave
p322
aasVwords
p323
(lp324
(lp325
VIf
p326
a(dp327
VNamedEntityTag
p328
g83
sVCharacterOffsetEnd
p329
V61
p330
sVCharacterOffsetBegin
p331
V59
p332
sVPartOfSpeech
p333
VIN
p334
sVLemma
p335
Vif
p336
saa(lp337
Vshe
p338
a(dp339
VNamedEntityTag
p340
g83
sVCharacterOffsetEnd
p341
V65
p342
sVCharacterOffsetBegin
p343
V62
p344
sVPartOfSpeech
p345
VPRP
p346
sVLemma
p347
Vshe
p348
saa(lp349
Vhad
p350
a(dp351
VNamedEntityTag
p352
g83
sVCharacterOffsetEnd
p353
V69
p354
sVCharacterOffsetBegin
p355
V66
p356
sVPartOfSpeech
p357
VVBD
p358
sVLemma
p359
Vhave
p360
saa(lp361
V14
p362
a(dp363
VNormalizedNamedEntityTag
p364
V14.0
p365
sVLemma
p366
V14
p367
sVCharacterOffsetEnd
p368
V72
p369
sVPartOfSpeech
p370
VCD
p371
sVCharacterOffsetBegin
p372
V70
p373
sVNamedEntityTag
p374
VNUMBER
p375
saa(lp376
Vbags
p377
a(dp378
VNamedEntityTag
p379
g83
sVCharacterOffsetEnd
p380
V77
p381
sVCharacterOffsetBegin
p382
V73
p383
sVPartOfSpeech
p384
VNNS
p385
sVLemma
p386
Vbag
p387
saa(lp388
V,
p389
a(dp390
VNamedEntityTag
p391
g83
sVCharacterOffsetEnd
p392
V79
p393
sVCharacterOffsetBegin
p394
V78
p395
sVPartOfSpeech
p396
g389
sVLemma
p397
g389
saa(lp398
Vbut
p399
a(dp400
VNamedEntityTag
p401
g83
sVCharacterOffsetEnd
p402
V83
p403
sVCharacterOffsetBegin
p404
V80
p405
sVPartOfSpeech
p406
VCC
p407
sVLemma
p408
Vbut
p409
saa(lp410
Vdid
p411
a(dp412
VNamedEntityTag
p413
g83
sVCharacterOffsetEnd
p414
V87
p415
sVCharacterOffsetBegin
p416
V84
p417
sVPartOfSpeech
p418
VVBD
p419
sVLemma
p420
Vdo
p421
saa(lp422
Vn't
p423
a(dp424
VNamedEntityTag
p425
g83
sVCharacterOffsetEnd
p426
V90
p427
sVCharacterOffsetBegin
p428
V87
p429
sVPartOfSpeech
p430
VRB
p431
sVLemma
p432
Vnot
p433
saa(lp434
Vrecycle
p435
a(dp436
VNamedEntityTag
p437
g83
sVCharacterOffsetEnd
p438
V98
p439
sVCharacterOffsetBegin
p440
V91
p441
sVPartOfSpeech
p442
VVB
p443
sVLemma
p444
Vrecycle
p445
saa(lp446
g295
a(dp447
VNormalizedNamedEntityTag
p448
V5.0
p449
sVLemma
p450
g295
sVCharacterOffsetEnd
p451
V100
p452
sVPartOfSpeech
p453
VCD
p454
sVCharacterOffsetBegin
p455
V99
p456
sVNamedEntityTag
p457
VNUMBER
p458
saa(lp459
Vof
p460
a(dp461
VNamedEntityTag
p462
g83
sVCharacterOffsetEnd
p463
V103
p464
sVCharacterOffsetBegin
p465
V101
p466
sVPartOfSpeech
p467
VIN
p468
sVLemma
p469
Vof
p470
saa(lp471
Vthem
p472
a(dp473
VNamedEntityTag
p474
g83
sVCharacterOffsetEnd
p475
V108
p476
sVCharacterOffsetBegin
p477
V104
p478
sVPartOfSpeech
p479
VPRP
p480
sVLemma
p481
Vthey
p482
saa(lp483
g389
a(dp484
VNamedEntityTag
p485
g83
sVCharacterOffsetEnd
p486
V110
p487
sVCharacterOffsetBegin
p488
V109
p489
sVPartOfSpeech
p490
g389
sVLemma
p491
g389
saa(lp492
Vhow
p493
a(dp494
VNamedEntityTag
p495
g83
sVCharacterOffsetEnd
p496
V114
p497
sVCharacterOffsetBegin
p498
V111
p499
sVPartOfSpeech
p500
VWRB
p501
sVLemma
p502
Vhow
p503
saa(lp504
Vmany
p505
a(dp506
VNamedEntityTag
p507
g83
sVCharacterOffsetEnd
p508
V119
p509
sVCharacterOffsetBegin
p510
V115
p511
sVPartOfSpeech
p512
VJJ
p513
sVLemma
p514
Vmany
p515
saa(lp516
Vpoints
p517
a(dp518
VNamedEntityTag
p519
g83
sVCharacterOffsetEnd
p520
V126
p521
sVCharacterOffsetBegin
p522
V120
p523
sVPartOfSpeech
p524
VNNS
p525
sVLemma
p526
Vpoint
p527
saa(lp528
Vwould
p529
a(dp530
VNamedEntityTag
p531
g83
sVCharacterOffsetEnd
p532
V132
p533
sVCharacterOffsetBegin
p534
V127
p535
sVPartOfSpeech
p536
VMD
p537
sVLemma
p538
Vwould
p539
saa(lp540
Vshe
p541
a(dp542
VNamedEntityTag
p543
g83
sVCharacterOffsetEnd
p544
V136
p545
sVCharacterOffsetBegin
p546
V133
p547
sVPartOfSpeech
p548
VPRP
p549
sVLemma
p550
Vshe
p551
saa(lp552
Vhave
p553
a(dp554
VNamedEntityTag
p555
g83
sVCharacterOffsetEnd
p556
V141
p557
sVCharacterOffsetBegin
p558
V137
p559
sVPartOfSpeech
p560
VVB
p561
sVLemma
p562
Vhave
p563
saa(lp564
Vearned
p565
a(dp566
VNamedEntityTag
p567
g83
sVCharacterOffsetEnd
p568
V148
p569
sVCharacterOffsetBegin
p570
V142
p571
sVPartOfSpeech
p572
VVBN
p573
sVLemma
p574
Vearn
p575
saa(lp576
V?
p577
a(dp578
VNamedEntityTag
p579
g83
sVCharacterOffsetEnd
p580
V150
p581
sVCharacterOffsetBegin
p582
V149
p583
sVPartOfSpeech
p584
g202
sVLemma
p585
g577
saasVindexeddependencies
p586
(lp587
(lp588
Vroot
p589
aVROOT-0
p590
aVearned-21
p591
aa(lp592
Vmark
p593
aVhad-3
p594
aVIf-1
p595
aa(lp596
Vnsubj
p597
aVhad-3
p598
aVshe-2
p599
aa(lp600
Vadvcl
p601
aVearned-21
p602
aVhad-3
p603
aa(lp604
Vnum
p605
aVbags-5
p606
aV14-4
p607
aa(lp608
Vdobj
p609
aVhad-3
p610
aVbags-5
p611
aa(lp612
Vaux
p613
aVrecycle-10
p614
aVdid-8
p615
aa(lp616
Vneg
p617
aVrecycle-10
p618
aVn't-9
p619
aa(lp620
Vconj_but
p621
aVhad-3
p622
aVrecycle-10
p623
aa(lp624
Vdobj
p625
aVrecycle-10
p626
aV5-11
p627
aa(lp628
Vprep_of
p629
aV5-11
p630
aVthem-13
p631
aa(lp632
Vadvmod
p633
aVmany-16
p634
aVhow-15
p635
aa(lp636
Vamod
p637
aVpoints-17
p638
aVmany-16
p639
aa(lp640
Vdobj
p641
aVearned-21
p642
aVpoints-17
p643
aa(lp644
Vaux
p645
aVearned-21
p646
aVwould-18
p647
aa(lp648
Vnsubj
p649
aVearned-21
p650
aVshe-19
p651
aa(lp652
Vaux
p653
aVearned-21
p654
aVhave-20
p655
aasas.