(dp0
Vsentences
p1
(lp2
(dp3
Vparsetree
p4
V(ROOT (S (NP (DT The) (NN cake) (NN store)) (VP (VBZ is) (VP (VBG having) (NP (NP (DT a) (ADVP (NP (CD 0.1) (NNS times)) (IN off)) (NN sale)) (PP (IN on) (NP (NP (DT all)) (PP (IN of) (NP (PRP$ its) (NNS cakes)))))))) (. .)))
p5
sVtext
p6
VThe cake store is having a 0.1 times off sale on all of its cakes .
p7
sVdependencies
p8
(lp9
(lp10
Vroot
p11
aVROOT
p12
aVhaving
p13
aa(lp14
Vdet
p15
aVstore
p16
aVThe
p17
aa(lp18
Vnn
p19
aVstore
p20
aVcake
p21
aa(lp22
Vnsubj
p23
aVhaving
p24
aVstore
p25
aa(lp26
Vaux
p27
aVhaving
p28
aVis
p29
aa(lp30
Vdet
p31
aVsale
p32
aVa
p33
aa(lp34
Vnum
p35
aVtimes
p36
aV0.1
p37
aa(lp38
Vnpadvmod
p39
aVoff
p40
aVtimes
p41
aa(lp42
Vadvmod
p43
aVsale
p44
aVoff
p45
aa(lp46
Vdobj
p47
aVhaving
p48
aVsale
p49
aa(lp50
Vprep_on
p51
aVsale
p52
aVall
p53
aa(lp54
Vposs
p55
aVcakes
p56
aVits
p57
aa(lp58
Vprep_of
p59
aVall
p60
aVcakes
p61
aasVwords
p62
(lp63
(lp64
VThe
p65
a(dp66
VNamedEntityTag
p67
VO
p68
sVCharacterOffsetEnd
p69
V4
p70
sVCharacterOffsetBegin
p71
V1
p72
sVPartOfSpeech
p73
VDT
p74
sVLemma
p75
Vthe
p76
saa(lp77
Vcake
p78
a(dp79
VNamedEntityTag
p80
g68
sVCharacterOffsetEnd
p81
V9
p82
sVCharacterOffsetBegin
p83
V5
p84
sVPartOfSpeech
p85
VNN
p86
sVLemma
p87
Vcake
p88
saa(lp89
Vstore
p90
a(dp91
VNamedEntityTag
p92
g68
sVCharacterOffsetEnd
p93
V15
p94
sVCharacterOffsetBegin
p95
V10
p96
sVPartOfSpeech
p97
VNN
p98
sVLemma
p99
Vstore
p100
saa(lp101
Vis
p102
a(dp103
VNamedEntityTag
p104
g68
sVCharacterOffsetEnd
p105
V18
p106
sVCharacterOffsetBegin
p107
V16
p108
sVPartOfSpeech
p109
VVBZ
p110
sVLemma
p111
Vbe
p112
saa(lp113
Vhaving
p114
a(dp115
VNamedEntityTag
p116
g68
sVCharacterOffsetEnd
p117
V25
p118
sVCharacterOffsetBegin
p119
V19
p120
sVPartOfSpeech
p121
VVBG
p122
sVLemma
p123
Vhave
p124
saa(lp125
g33
a(dp126
VNamedEntityTag
p127
g68
sVCharacterOffsetEnd
p128
V27
p129
sVCharacterOffsetBegin
p130
V26
p131
sVPartOfSpeech
p132
VDT
p133
sVLemma
p134
g33
saa(lp135
V0.1
p136
a(dp137
VNormalizedNamedEntityTag
p138
V0.1
p139
sVLemma
p140
V0.1
p141
sVCharacterOffsetEnd
p142
V31
p143
sVPartOfSpeech
p144
VCD
p145
sVCharacterOffsetBegin
p146
V28
p147
sVNamedEntityTag
p148
VNUMBER
p149
saa(lp150
Vtimes
p151
a(dp152
VNamedEntityTag
p153
g68
sVCharacterOffsetEnd
p154
V37
p155
sVCharacterOffsetBegin
p156
V32
p157
sVPartOfSpeech
p158
VNNS
p159
sVLemma
p160
Vtime
p161
saa(lp162
Voff
p163
a(dp164
VNamedEntityTag
p165
g68
sVCharacterOffsetEnd
p166
V41
p167
sVCharacterOffsetBegin
p168
V38
p169
sVPartOfSpeech
p170
VIN
p171
sVLemma
p172
Voff
p173
saa(lp174
Vsale
p175
a(dp176
VNamedEntityTag
p177
g68
sVCharacterOffsetEnd
p178
V46
p179
sVCharacterOffsetBegin
p180
V42
p181
sVPartOfSpeech
p182
VNN
p183
sVLemma
p184
Vsale
p185
saa(lp186
Von
p187
a(dp188
VNamedEntityTag
p189
g68
sVCharacterOffsetEnd
p190
V49
p191
sVCharacterOffsetBegin
p192
V47
p193
sVPartOfSpeech
p194
VIN
p195
sVLemma
p196
Von
p197
saa(lp198
Vall
p199
a(dp200
VNamedEntityTag
p201
g68
sVCharacterOffsetEnd
p202
V53
p203
sVCharacterOffsetBegin
p204
V50
p205
sVPartOfSpeech
p206
VDT
p207
sVLemma
p208
Vall
p209
saa(lp210
Vof
p211
a(dp212
VNamedEntityTag
p213
g68
sVCharacterOffsetEnd
p214
V56
p215
sVCharacterOffsetBegin
p216
V54
p217
sVPartOfSpeech
p218
VIN
p219
sVLemma
p220
Vof
p221
saa(lp222
Vits
p223
a(dp224
VNamedEntityTag
p225
g68
sVCharacterOffsetEnd
p226
V60
p227
sVCharacterOffsetBegin
p228
V57
p229
sVPartOfSpeech
p230
VPRP$
p231
sVLemma
p232
Vits
p233
saa(lp234
Vcakes
p235
a(dp236
VNamedEntityTag
p237
g68
sVCharacterOffsetEnd
p238
V66
p239
sVCharacterOffsetBegin
p240
V61
p241
sVPartOfSpeech
p242
VNNS
p243
sVLemma
p244
Vcake
p245
saa(lp246
V.
p247
a(dp248
VNamedEntityTag
p249
g68
sVCharacterOffsetEnd
p250
V68
p251
sVCharacterOffsetBegin
p252
V67
p253
sVPartOfSpeech
p254
g247
sVLemma
p255
g247
saasVindexeddependencies
p256
(lp257
(lp258
Vroot
p259
aVROOT-0
p260
aVhaving-5
p261
aa(lp262
Vdet
p263
aVstore-3
p264
aVThe-1
p265
aa(lp266
Vnn
p267
aVstore-3
p268
aVcake-2
p269
aa(lp270
Vnsubj
p271
aVhaving-5
p272
aVstore-3
p273
aa(lp274
Vaux
p275
aVhaving-5
p276
aVis-4
p277
aa(lp278
Vdet
p279
aVsale-10
p280
aVa-6
p281
aa(lp282
Vnum
p283
aVtimes-8
p284
aV0.1-7
p285
aa(lp286
Vnpadvmod
p287
aVoff-9
p288
aVtimes-8
p289
aa(lp290
Vadvmod
p291
aVsale-10
p292
aVoff-9
p293
aa(lp294
Vdobj
p295
aVhaving-5
p296
aVsale-10
p297
aa(lp298
Vprep_on
p299
aVsale-10
p300
aVall-12
p301
aa(lp302
Vposs
p303
aVcakes-15
p304
aVits-14
p305
aa(lp306
Vprep_of
p307
aVall-12
p308
aVcakes-15
p309
aasa(dp310
Vparsetree
p311
V(ROOT (SBARQ (SBAR (IN If) (S (NP (NP (DT the) (NN cake)) (SBAR (S (NP (PRP you)) (VP (VBP want) (ADVP (RB regularly)))))) (VP (VBZ costs) (NP ($ $) (CD 7))))) (, ,) (WHNP (WRB how) (RB much)) (SQ (MD would) (NP (PRP you)) (VP (VB save) (PP (IN with) (NP (DT the) (NN discount))))) (. ?)))
p312
sVtext
p313
VIf the cake you want regularly costs $7 , how much would you save with the discount ?
p314
sVdependencies
p315
(lp316
(lp317
Vroot
p318
aVROOT
p319
aVsave
p320
aa(lp321
Vmark
p322
aVcosts
p323
aVIf
p324
aa(lp325
Vdet
p326
aVcake
p327
aVthe
p328
aa(lp329
Vnsubj
p330
aVcosts
p331
aVcake
p332
aa(lp333
Vnsubj
p334
aVwant
p335
aVyou
p336
aa(lp337
Vrcmod
p338
aVcake
p339
aVwant
p340
aa(lp341
Vadvmod
p342
aVwant
p343
aVregularly
p344
aa(lp345
Vadvcl
p346
aVsave
p347
aVcosts
p348
aa(lp349
Vdobj
p350
aVcosts
p351
aV$
p352
aa(lp353
Vnum
p354
ag352
aV7
p355
aa(lp356
Vadvmod
p357
aVmuch
p358
aVhow
p359
aa(lp360
Vdep
p361
aVsave
p362
aVmuch
p363
aa(lp364
Vaux
p365
aVsave
p366
aVwould
p367
aa(lp368
Vnsubj
p369
aVsave
p370
aVyou
p371
aa(lp372
Vdet
p373
aVdiscount
p374
aVthe
p375
aa(lp376
Vprep_with
p377
aVsave
p378
aVdiscount
p379
aasVwords
p380
(lp381
(lp382
VIf
p383
a(dp384
VNamedEntityTag
p385
g68
sVCharacterOffsetEnd
p386
V71
p387
sVCharacterOffsetBegin
p388
V69
p389
sVPartOfSpeech
p390
VIN
p391
sVLemma
p392
Vif
p393
saa(lp394
Vthe
p395
a(dp396
VNamedEntityTag
p397
g68
sVCharacterOffsetEnd
p398
V75
p399
sVCharacterOffsetBegin
p400
V72
p401
sVPartOfSpeech
p402
VDT
p403
sVLemma
p404
Vthe
p405
saa(lp406
Vcake
p407
a(dp408
VNamedEntityTag
p409
g68
sVCharacterOffsetEnd
p410
V80
p411
sVCharacterOffsetBegin
p412
V76
p413
sVPartOfSpeech
p414
VNN
p415
sVLemma
p416
Vcake
p417
saa(lp418
Vyou
p419
a(dp420
VNamedEntityTag
p421
g68
sVCharacterOffsetEnd
p422
V84
p423
sVCharacterOffsetBegin
p424
V81
p425
sVPartOfSpeech
p426
VPRP
p427
sVLemma
p428
Vyou
p429
saa(lp430
Vwant
p431
a(dp432
VNamedEntityTag
p433
g68
sVCharacterOffsetEnd
p434
V89
p435
sVCharacterOffsetBegin
p436
V85
p437
sVPartOfSpeech
p438
VVBP
p439
sVLemma
p440
Vwant
p441
saa(lp442
Vregularly
p443
a(dp444
VNamedEntityTag
p445
g68
sVCharacterOffsetEnd
p446
V99
p447
sVCharacterOffsetBegin
p448
V90
p449
sVPartOfSpeech
p450
VRB
p451
sVLemma
p452
Vregularly
p453
saa(lp454
Vcosts
p455
a(dp456
VNamedEntityTag
p457
g68
sVCharacterOffsetEnd
p458
V105
p459
sVCharacterOffsetBegin
p460
V100
p461
sVPartOfSpeech
p462
VVBZ
p463
sVLemma
p464
Vcost
p465
saa(lp466
g352
a(dp467
VNormalizedNamedEntityTag
p468
V$7.0
p469
sVLemma
p470
g352
sVCharacterOffsetEnd
p471
V107
p472
sVPartOfSpeech
p473
g352
sVCharacterOffsetBegin
p474
V106
p475
sVNamedEntityTag
p476
VMONEY
p477
saa(lp478
g355
a(dp479
VNormalizedNamedEntityTag
p480
V$7.0
p481
sVLemma
p482
g355
sVCharacterOffsetEnd
p483
V108
p484
sVPartOfSpeech
p485
VCD
p486
sVCharacterOffsetBegin
p487
V107
p488
sVNamedEntityTag
p489
VMONEY
p490
saa(lp491
V,
p492
a(dp493
VNamedEntityTag
p494
g68
sVCharacterOffsetEnd
p495
V110
p496
sVCharacterOffsetBegin
p497
V109
p498
sVPartOfSpeech
p499
g492
sVLemma
p500
g492
saa(lp501
Vhow
p502
a(dp503
VNamedEntityTag
p504
g68
sVCharacterOffsetEnd
p505
V114
p506
sVCharacterOffsetBegin
p507
V111
p508
sVPartOfSpeech
p509
VWRB
p510
sVLemma
p511
Vhow
p512
saa(lp513
Vmuch
p514
a(dp515
VNamedEntityTag
p516
g68
sVCharacterOffsetEnd
p517
V119
p518
sVCharacterOffsetBegin
p519
V115
p520
sVPartOfSpeech
p521
VRB
p522
sVLemma
p523
Vmuch
p524
saa(lp525
Vwould
p526
a(dp527
VNamedEntityTag
p528
g68
sVCharacterOffsetEnd
p529
V125
p530
sVCharacterOffsetBegin
p531
V120
p532
sVPartOfSpeech
p533
VMD
p534
sVLemma
p535
Vwould
p536
saa(lp537
Vyou
p538
a(dp539
VNamedEntityTag
p540
g68
sVCharacterOffsetEnd
p541
V129
p542
sVCharacterOffsetBegin
p543
V126
p544
sVPartOfSpeech
p545
VPRP
p546
sVLemma
p547
Vyou
p548
saa(lp549
Vsave
p550
a(dp551
VNamedEntityTag
p552
g68
sVCharacterOffsetEnd
p553
V134
p554
sVCharacterOffsetBegin
p555
V130
p556
sVPartOfSpeech
p557
VVB
p558
sVLemma
p559
Vsave
p560
saa(lp561
Vwith
p562
a(dp563
VNamedEntityTag
p564
g68
sVCharacterOffsetEnd
p565
V139
p566
sVCharacterOffsetBegin
p567
V135
p568
sVPartOfSpeech
p569
VIN
p570
sVLemma
p571
Vwith
p572
saa(lp573
Vthe
p574
a(dp575
VNamedEntityTag
p576
g68
sVCharacterOffsetEnd
p577
V143
p578
sVCharacterOffsetBegin
p579
V140
p580
sVPartOfSpeech
p581
VDT
p582
sVLemma
p583
Vthe
p584
saa(lp585
Vdiscount
p586
a(dp587
VNamedEntityTag
p588
g68
sVCharacterOffsetEnd
p589
V152
p590
sVCharacterOffsetBegin
p591
V144
p592
sVPartOfSpeech
p593
VNN
p594
sVLemma
p595
Vdiscount
p596
saa(lp597
V?
p598
a(dp599
VNamedEntityTag
p600
g68
sVCharacterOffsetEnd
p601
V154
p602
sVCharacterOffsetBegin
p603
V153
p604
sVPartOfSpeech
p605
g247
sVLemma
p606
g598
saasVindexeddependencies
p607
(lp608
(lp609
Vroot
p610
aVROOT-0
p611
aVsave-15
p612
aa(lp613
Vmark
p614
aVcosts-7
p615
aVIf-1
p616
aa(lp617
Vdet
p618
aVcake-3
p619
aVthe-2
p620
aa(lp621
Vnsubj
p622
aVcosts-7
p623
aVcake-3
p624
aa(lp625
Vnsubj
p626
aVwant-5
p627
aVyou-4
p628
aa(lp629
Vrcmod
p630
aVcake-3
p631
aVwant-5
p632
aa(lp633
Vadvmod
p634
aVwant-5
p635
aVregularly-6
p636
aa(lp637
Vadvcl
p638
aVsave-15
p639
aVcosts-7
p640
aa(lp641
Vdobj
p642
aVcosts-7
p643
aV$-8
p644
aa(lp645
Vnum
p646
aV$-8
p647
aV7-9
p648
aa(lp649
Vadvmod
p650
aVmuch-12
p651
aVhow-11
p652
aa(lp653
Vdep
p654
aVsave-15
p655
aVmuch-12
p656
aa(lp657
Vaux
p658
aVsave-15
p659
aVwould-13
p660
aa(lp661
Vnsubj
p662
aVsave-15
p663
aVyou-14
p664
aa(lp665
Vdet
p666
aVdiscount-18
p667
aVthe-17
p668
aa(lp669
Vprep_with
p670
aVsave-15
p671
aVdiscount-18
p672
aasas.