(dp0
Vcoref
p1
(lp2
(lp3
(lp4
(lp5
Vhe
p6
aI1
aI16
aI16
aI17
aa(lp7
Vhe
p8
aI1
aI1
aI1
aI2
aaa(lp9
(lp10
Vhe
p11
aI1
aI21
aI21
aI22
aa(lp12
Vhe
p13
aI1
aI1
aI1
aI2
aaaasVsentences
p14
(lp15
(dp16
Vparsetree
p17
V(ROOT (S (VP (MD Will) (VP (VBD had) (NP (CD 57) (NNS dollars)))) (. .)))
p18
sVtext
p19
VWill had 57 dollars .
p20
sVdependencies
p21
(lp22
(lp23
Vroot
p24
aVROOT
p25
aVhad
p26
aa(lp27
Vaux
p28
aVhad
p29
aVWill
p30
aa(lp31
Vnum
p32
aVdollars
p33
aV57
p34
aa(lp35
Vdobj
p36
aVhad
p37
aVdollars
p38
aasVwords
p39
(lp40
(lp41
VWill
p42
a(dp43
VNamedEntityTag
p44
VO
p45
sVCharacterOffsetEnd
p46
V5
p47
sVCharacterOffsetBegin
p48
V1
p49
sVPartOfSpeech
p50
VMD
p51
sVLemma
p52
Vwill
p53
saa(lp54
Vhad
p55
a(dp56
VNamedEntityTag
p57
g45
sVCharacterOffsetEnd
p58
V9
p59
sVCharacterOffsetBegin
p60
V6
p61
sVPartOfSpeech
p62
VVBD
p63
sVLemma
p64
Vhave
p65
saa(lp66
V57
p67
a(dp68
VNormalizedNamedEntityTag
p69
V$57.0
p70
sVLemma
p71
V57
p72
sVCharacterOffsetEnd
p73
V12
p74
sVPartOfSpeech
p75
VCD
p76
sVCharacterOffsetBegin
p77
V10
p78
sVNamedEntityTag
p79
VMONEY
p80
saa(lp81
Vdollars
p82
a(dp83
VNormalizedNamedEntityTag
p84
V$57.0
p85
sVLemma
p86
Vdollar
p87
sVCharacterOffsetEnd
p88
V20
p89
sVPartOfSpeech
p90
VNNS
p91
sVCharacterOffsetBegin
p92
V13
p93
sVNamedEntityTag
p94
VMONEY
p95
saa(lp96
V.
p97
a(dp98
VNamedEntityTag
p99
g45
sVCharacterOffsetEnd
p100
V22
p101
sVCharacterOffsetBegin
p102
V21
p103
sVPartOfSpeech
p104
g97
sVLemma
p105
g97
saasVindexeddependencies
p106
(lp107
(lp108
Vroot
p109
aVROOT-0
p110
aVhad-2
p111
aa(lp112
Vaux
p113
aVhad-2
p114
aVWill-1
p115
aa(lp116
Vnum
p117
aVdollars-4
p118
aV57-3
p119
aa(lp120
Vdobj
p121
aVhad-2
p122
aVdollars-4
p123
aasa(dp124
Vparsetree
p125
V(ROOT (SBARQ (SBAR (IN If) (S (NP (PRP he)) (VP (VBD spent) (NP (CD 27) (NNS bucks)) (PP (IN on) (NP (DT a) (JJ new) (NN game)))))) (, ,) (WHNP (WHADJP (WRB how) (JJ many)) (NP (NP (CD 6) (NN dollar)) (NP (NNS toys)))) (SQ (MD could) (NP (PRP he)) (VP (VB buy) (PP (IN with) (NP (NP (DT the) (NN money)) (SBAR (S (NP (PRP he)) (VP (VBD had) (VP (VBN left))))))))) (. ?)))
p126
sVtext
p127
VIf he spent 27 bucks on a new game , how many 6 dollar toys could he buy with the money he had left ?
p128
sVdependencies
p129
(lp130
(lp131
Vroot
p132
aVROOT
p133
aVbuy
p134
aa(lp135
Vmark
p136
aVspent
p137
aVIf
p138
aa(lp139
Vnsubj
p140
aVspent
p141
aVhe
p142
aa(lp143
Vadvcl
p144
aVbuy
p145
aVspent
p146
aa(lp147
Vnum
p148
aVbucks
p149
aV27
p150
aa(lp151
Vdobj
p152
aVspent
p153
aVbucks
p154
aa(lp155
Vdet
p156
aVgame
p157
aVa
p158
aa(lp159
Vamod
p160
aVgame
p161
aVnew
p162
aa(lp163
Vprep_on
p164
aVspent
p165
aVgame
p166
aa(lp167
Vadvmod
p168
aVmany
p169
aVhow
p170
aa(lp171
Vamod
p172
aVdollar
p173
aVmany
p174
aa(lp175
Vnum
p176
aVdollar
p177
ag61
aa(lp178
Vdobj
p179
aVbuy
p180
aVdollar
p181
aa(lp182
Vdep
p183
aVdollar
p184
aVtoys
p185
aa(lp186
Vaux
p187
aVbuy
p188
aVcould
p189
aa(lp190
Vnsubj
p191
aVbuy
p192
aVhe
p193
aa(lp194
Vdet
p195
aVmoney
p196
aVthe
p197
aa(lp198
Vprep_with
p199
aVbuy
p200
aVmoney
p201
aa(lp202
Vnsubj
p203
aVleft
p204
aVhe
p205
aa(lp206
Vaux
p207
aVleft
p208
aVhad
p209
aa(lp210
Vrcmod
p211
aVmoney
p212
aVleft
p213
aasVwords
p214
(lp215
(lp216
VIf
p217
a(dp218
VNamedEntityTag
p219
g45
sVCharacterOffsetEnd
p220
V25
p221
sVCharacterOffsetBegin
p222
V23
p223
sVPartOfSpeech
p224
VIN
p225
sVLemma
p226
Vif
p227
saa(lp228
Vhe
p229
a(dp230
VNamedEntityTag
p231
g45
sVCharacterOffsetEnd
p232
V28
p233
sVCharacterOffsetBegin
p234
V26
p235
sVPartOfSpeech
p236
VPRP
p237
sVLemma
p238
Vhe
p239
saa(lp240
Vspent
p241
a(dp242
VNamedEntityTag
p243
g45
sVCharacterOffsetEnd
p244
V34
p245
sVCharacterOffsetBegin
p246
V29
p247
sVPartOfSpeech
p248
VVBD
p249
sVLemma
p250
Vspend
p251
saa(lp252
V27
p253
a(dp254
VNormalizedNamedEntityTag
p255
V27.0
p256
sVLemma
p257
V27
p258
sVCharacterOffsetEnd
p259
V37
p260
sVPartOfSpeech
p261
VCD
p262
sVCharacterOffsetBegin
p263
V35
p264
sVNamedEntityTag
p265
VNUMBER
p266
saa(lp267
Vbucks
p268
a(dp269
VNamedEntityTag
p270
g45
sVCharacterOffsetEnd
p271
V43
p272
sVCharacterOffsetBegin
p273
V38
p274
sVPartOfSpeech
p275
VNNS
p276
sVLemma
p277
Vbuck
p278
saa(lp279
Von
p280
a(dp281
VNamedEntityTag
p282
g45
sVCharacterOffsetEnd
p283
V46
p284
sVCharacterOffsetBegin
p285
V44
p286
sVPartOfSpeech
p287
VIN
p288
sVLemma
p289
Von
p290
saa(lp291
g158
a(dp292
VNamedEntityTag
p293
g45
sVCharacterOffsetEnd
p294
V48
p295
sVCharacterOffsetBegin
p296
V47
p297
sVPartOfSpeech
p298
VDT
p299
sVLemma
p300
g158
saa(lp301
Vnew
p302
a(dp303
VNamedEntityTag
p304
g45
sVCharacterOffsetEnd
p305
V52
p306
sVCharacterOffsetBegin
p307
V49
p308
sVPartOfSpeech
p309
VJJ
p310
sVLemma
p311
Vnew
p312
saa(lp313
Vgame
p314
a(dp315
VNamedEntityTag
p316
g45
sVCharacterOffsetEnd
p317
V57
p318
sVCharacterOffsetBegin
p319
V53
p320
sVPartOfSpeech
p321
VNN
p322
sVLemma
p323
Vgame
p324
saa(lp325
V,
p326
a(dp327
VNamedEntityTag
p328
g45
sVCharacterOffsetEnd
p329
V59
p330
sVCharacterOffsetBegin
p331
V58
p332
sVPartOfSpeech
p333
g326
sVLemma
p334
g326
saa(lp335
Vhow
p336
a(dp337
VNamedEntityTag
p338
g45
sVCharacterOffsetEnd
p339
V63
p340
sVCharacterOffsetBegin
p341
V60
p342
sVPartOfSpeech
p343
VWRB
p344
sVLemma
p345
Vhow
p346
saa(lp347
Vmany
p348
a(dp349
VNamedEntityTag
p350
g45
sVCharacterOffsetEnd
p351
V68
p352
sVCharacterOffsetBegin
p353
V64
p354
sVPartOfSpeech
p355
VJJ
p356
sVLemma
p357
Vmany
p358
saa(lp359
g61
a(dp360
VNormalizedNamedEntityTag
p361
V$6.0
p362
sVLemma
p363
g61
sVCharacterOffsetEnd
p364
V70
p365
sVPartOfSpeech
p366
VCD
p367
sVCharacterOffsetBegin
p368
V69
p369
sVNamedEntityTag
p370
VMONEY
p371
saa(lp372
Vdollar
p373
a(dp374
VNormalizedNamedEntityTag
p375
V$6.0
p376
sVLemma
p377
Vdollar
p378
sVCharacterOffsetEnd
p379
V77
p380
sVPartOfSpeech
p381
VNN
p382
sVCharacterOffsetBegin
p383
V71
p384
sVNamedEntityTag
p385
VMONEY
p386
saa(lp387
Vtoys
p388
a(dp389
VNamedEntityTag
p390
g45
sVCharacterOffsetEnd
p391
V82
p392
sVCharacterOffsetBegin
p393
V78
p394
sVPartOfSpeech
p395
VNNS
p396
sVLemma
p397
Vtoy
p398
saa(lp399
Vcould
p400
a(dp401
VNamedEntityTag
p402
g45
sVCharacterOffsetEnd
p403
V88
p404
sVCharacterOffsetBegin
p405
V83
p406
sVPartOfSpeech
p407
VMD
p408
sVLemma
p409
Vcould
p410
saa(lp411
Vhe
p412
a(dp413
VNamedEntityTag
p414
g45
sVCharacterOffsetEnd
p415
V91
p416
sVCharacterOffsetBegin
p417
V89
p418
sVPartOfSpeech
p419
VPRP
p420
sVLemma
p421
Vhe
p422
saa(lp423
Vbuy
p424
a(dp425
VNamedEntityTag
p426
g45
sVCharacterOffsetEnd
p427
V95
p428
sVCharacterOffsetBegin
p429
V92
p430
sVPartOfSpeech
p431
VVB
p432
sVLemma
p433
Vbuy
p434
saa(lp435
Vwith
p436
a(dp437
VNamedEntityTag
p438
g45
sVCharacterOffsetEnd
p439
V100
p440
sVCharacterOffsetBegin
p441
V96
p442
sVPartOfSpeech
p443
VIN
p444
sVLemma
p445
Vwith
p446
saa(lp447
Vthe
p448
a(dp449
VNamedEntityTag
p450
g45
sVCharacterOffsetEnd
p451
V104
p452
sVCharacterOffsetBegin
p453
V101
p454
sVPartOfSpeech
p455
VDT
p456
sVLemma
p457
Vthe
p458
saa(lp459
Vmoney
p460
a(dp461
VNamedEntityTag
p462
g45
sVCharacterOffsetEnd
p463
V110
p464
sVCharacterOffsetBegin
p465
V105
p466
sVPartOfSpeech
p467
VNN
p468
sVLemma
p469
Vmoney
p470
saa(lp471
Vhe
p472
a(dp473
VNamedEntityTag
p474
g45
sVCharacterOffsetEnd
p475
V113
p476
sVCharacterOffsetBegin
p477
V111
p478
sVPartOfSpeech
p479
VPRP
p480
sVLemma
p481
Vhe
p482
saa(lp483
Vhad
p484
a(dp485
VNamedEntityTag
p486
g45
sVCharacterOffsetEnd
p487
V117
p488
sVCharacterOffsetBegin
p489
V114
p490
sVPartOfSpeech
p491
VVBD
p492
sVLemma
p493
Vhave
p494
saa(lp495
Vleft
p496
a(dp497
VNamedEntityTag
p498
g45
sVCharacterOffsetEnd
p499
V122
p500
sVCharacterOffsetBegin
p501
V118
p502
sVPartOfSpeech
p503
VVBN
p504
sVLemma
p505
Vleave
p506
saa(lp507
V?
p508
a(dp509
VNamedEntityTag
p510
g45
sVCharacterOffsetEnd
p511
V124
p512
sVCharacterOffsetBegin
p513
V123
p514
sVPartOfSpeech
p515
g97
sVLemma
p516
g508
saasVindexeddependencies
p517
(lp518
(lp519
Vroot
p520
aVROOT-0
p521
aVbuy-18
p522
aa(lp523
Vmark
p524
aVspent-3
p525
aVIf-1
p526
aa(lp527
Vnsubj
p528
aVspent-3
p529
aVhe-2
p530
aa(lp531
Vadvcl
p532
aVbuy-18
p533
aVspent-3
p534
aa(lp535
Vnum
p536
aVbucks-5
p537
aV27-4
p538
aa(lp539
Vdobj
p540
aVspent-3
p541
aVbucks-5
p542
aa(lp543
Vdet
p544
aVgame-9
p545
aVa-7
p546
aa(lp547
Vamod
p548
aVgame-9
p549
aVnew-8
p550
aa(lp551
Vprep_on
p552
aVspent-3
p553
aVgame-9
p554
aa(lp555
Vadvmod
p556
aVmany-12
p557
aVhow-11
p558
aa(lp559
Vamod
p560
aVdollar-14
p561
aVmany-12
p562
aa(lp563
Vnum
p564
aVdollar-14
p565
aV6-13
p566
aa(lp567
Vdobj
p568
aVbuy-18
p569
aVdollar-14
p570
aa(lp571
Vdep
p572
aVdollar-14
p573
aVtoys-15
p574
aa(lp575
Vaux
p576
aVbuy-18
p577
aVcould-16
p578
aa(lp579
Vnsubj
p580
aVbuy-18
p581
aVhe-17
p582
aa(lp583
Vdet
p584
aVmoney-21
p585
aVthe-20
p586
aa(lp587
Vprep_with
p588
aVbuy-18
p589
aVmoney-21
p590
aa(lp591
Vnsubj
p592
aVleft-24
p593
aVhe-22
p594
aa(lp595
Vaux
p596
aVleft-24
p597
aVhad-23
p598
aa(lp599
Vrcmod
p600
aVmoney-21
p601
aVleft-24
p602
aasas.