(dp0
Vcoref
p1
(lp2
(lp3
(lp4
(lp5
VHe
p6
aI1
aI0
aI0
aI1
aa(lp7
VLuke
p8
aI0
aI0
aI0
aI1
aaaa(lp9
(lp10
(lp11
Vpieces of clothing
p12
aI2
aI2
aI2
aI5
aa(lp13
V47 pieces of clothing to wash
p14
aI0
aI3
aI2
aI8
aaaasVsentences
p15
(lp16
(dp17
Vparsetree
p18
V(ROOT (S (NP (NNP Luke)) (VP (VBD had) (NP (NP (CD 47) (NNS pieces)) (PP (IN of) (NP (NN clothing))) (S (VP (TO to) (VP (VB wash)))))) (. .)))
p19
sVtext
p20
VLuke had 47 pieces of clothing to wash .
p21
sVdependencies
p22
(lp23
(lp24
Vroot
p25
aVROOT
p26
aVhad
p27
aa(lp28
Vnsubj
p29
aVhad
p30
aVLuke
p31
aa(lp32
Vnum
p33
aVpieces
p34
aV47
p35
aa(lp36
Vdobj
p37
aVhad
p38
aVpieces
p39
aa(lp40
Vprep_of
p41
aVpieces
p42
aVclothing
p43
aa(lp44
Vaux
p45
aVwash
p46
aVto
p47
aa(lp48
Vvmod
p49
aVpieces
p50
aVwash
p51
aasVwords
p52
(lp53
(lp54
VLuke
p55
a(dp56
VNamedEntityTag
p57
VPERSON
p58
sVCharacterOffsetEnd
p59
V5
p60
sVCharacterOffsetBegin
p61
V1
p62
sVPartOfSpeech
p63
VNNP
p64
sVLemma
p65
VLuke
p66
saa(lp67
Vhad
p68
a(dp69
VNamedEntityTag
p70
VO
p71
sVCharacterOffsetEnd
p72
V9
p73
sVCharacterOffsetBegin
p74
V6
p75
sVPartOfSpeech
p76
VVBD
p77
sVLemma
p78
Vhave
p79
saa(lp80
V47
p81
a(dp82
VNormalizedNamedEntityTag
p83
V47.0
p84
sVLemma
p85
V47
p86
sVCharacterOffsetEnd
p87
V12
p88
sVPartOfSpeech
p89
VCD
p90
sVCharacterOffsetBegin
p91
V10
p92
sVNamedEntityTag
p93
VNUMBER
p94
saa(lp95
Vpieces
p96
a(dp97
VNamedEntityTag
p98
g71
sVCharacterOffsetEnd
p99
V19
p100
sVCharacterOffsetBegin
p101
V13
p102
sVPartOfSpeech
p103
VNNS
p104
sVLemma
p105
Vpiece
p106
saa(lp107
Vof
p108
a(dp109
VNamedEntityTag
p110
g71
sVCharacterOffsetEnd
p111
V22
p112
sVCharacterOffsetBegin
p113
V20
p114
sVPartOfSpeech
p115
VIN
p116
sVLemma
p117
Vof
p118
saa(lp119
Vclothing
p120
a(dp121
VNamedEntityTag
p122
g71
sVCharacterOffsetEnd
p123
V31
p124
sVCharacterOffsetBegin
p125
V23
p126
sVPartOfSpeech
p127
VNN
p128
sVLemma
p129
Vclothing
p130
saa(lp131
Vto
p132
a(dp133
VNamedEntityTag
p134
g71
sVCharacterOffsetEnd
p135
V34
p136
sVCharacterOffsetBegin
p137
V32
p138
sVPartOfSpeech
p139
VTO
p140
sVLemma
p141
Vto
p142
saa(lp143
Vwash
p144
a(dp145
VNamedEntityTag
p146
g71
sVCharacterOffsetEnd
p147
V39
p148
sVCharacterOffsetBegin
p149
V35
p150
sVPartOfSpeech
p151
VVB
p152
sVLemma
p153
Vwash
p154
saa(lp155
V.
p156
a(dp157
VNamedEntityTag
p158
g71
sVCharacterOffsetEnd
p159
V41
p160
sVCharacterOffsetBegin
p161
V40
p162
sVPartOfSpeech
p163
g156
sVLemma
p164
g156
saasVindexeddependencies
p165
(lp166
(lp167
Vroot
p168
aVROOT-0
p169
aVhad-2
p170
aa(lp171
Vnsubj
p172
aVhad-2
p173
aVLuke-1
p174
aa(lp175
Vnum
p176
aVpieces-4
p177
aV47-3
p178
aa(lp179
Vdobj
p180
aVhad-2
p181
aVpieces-4
p182
aa(lp183
Vprep_of
p184
aVpieces-4
p185
aVclothing-6
p186
aa(lp187
Vaux
p188
aVwash-8
p189
aVto-7
p190
aa(lp191
Vvmod
p192
aVpieces-4
p193
aVwash-8
p194
aasa(dp195
Vparsetree
p196
V(ROOT (S (NP (PRP He)) (VP (VP (VBD put) (NP (NP (CD 17)) (PP (IN of) (NP (PRP them)))) (PP (IN in) (NP (CD one) (NN load)))) (, ,) (CC but) (VP (VBD decided) (S (VP (TO to) (VP (VB split) (NP (DT the) (NN rest)) (PP (IN into) (NP (CD 5) (JJ equal) (NNS loads)))))))) (. .)))
p197
sVtext
p198
VHe put 17 of them in one load , but decided to split the rest into 5 equal loads .
p199
sVdependencies
p200
(lp201
(lp202
Vroot
p203
aVROOT
p204
aVput
p205
aa(lp206
Vnsubj
p207
aVput
p208
aVHe
p209
aa(lp210
Vdobj
p211
aVput
p212
aV17
p213
aa(lp214
Vprep_of
p215
aV17
p216
aVthem
p217
aa(lp218
Vnum
p219
aVload
p220
aVone
p221
aa(lp222
Vprep_in
p223
aVput
p224
aVload
p225
aa(lp226
Vconj_but
p227
aVput
p228
aVdecided
p229
aa(lp230
Vaux
p231
aVsplit
p232
aVto
p233
aa(lp234
Vxcomp
p235
aVdecided
p236
aVsplit
p237
aa(lp238
Vdet
p239
aVrest
p240
aVthe
p241
aa(lp242
Vdobj
p243
aVsplit
p244
aVrest
p245
aa(lp246
Vnum
p247
aVloads
p248
ag60
aa(lp249
Vamod
p250
aVloads
p251
aVequal
p252
aa(lp253
Vprep_into
p254
aVsplit
p255
aVloads
p256
aasVwords
p257
(lp258
(lp259
VHe
p260
a(dp261
VNamedEntityTag
p262
g71
sVCharacterOffsetEnd
p263
V44
p264
sVCharacterOffsetBegin
p265
V42
p266
sVPartOfSpeech
p267
VPRP
p268
sVLemma
p269
Vhe
p270
saa(lp271
Vput
p272
a(dp273
VNamedEntityTag
p274
g71
sVCharacterOffsetEnd
p275
V48
p276
sVCharacterOffsetBegin
p277
V45
p278
sVPartOfSpeech
p279
VVBD
p280
sVLemma
p281
Vput
p282
saa(lp283
V17
p284
a(dp285
VNormalizedNamedEntityTag
p286
V17.0
p287
sVLemma
p288
V17
p289
sVCharacterOffsetEnd
p290
V51
p291
sVPartOfSpeech
p292
VCD
p293
sVCharacterOffsetBegin
p294
V49
p295
sVNamedEntityTag
p296
VNUMBER
p297
saa(lp298
Vof
p299
a(dp300
VNamedEntityTag
p301
g71
sVCharacterOffsetEnd
p302
V54
p303
sVCharacterOffsetBegin
p304
V52
p305
sVPartOfSpeech
p306
VIN
p307
sVLemma
p308
Vof
p309
saa(lp310
Vthem
p311
a(dp312
VNamedEntityTag
p313
g71
sVCharacterOffsetEnd
p314
V59
p315
sVCharacterOffsetBegin
p316
V55
p317
sVPartOfSpeech
p318
VPRP
p319
sVLemma
p320
Vthey
p321
saa(lp322
Vin
p323
a(dp324
VNamedEntityTag
p325
g71
sVCharacterOffsetEnd
p326
V62
p327
sVCharacterOffsetBegin
p328
V60
p329
sVPartOfSpeech
p330
VIN
p331
sVLemma
p332
Vin
p333
saa(lp334
Vone
p335
a(dp336
VNormalizedNamedEntityTag
p337
V1.0
p338
sVLemma
p339
Vone
p340
sVCharacterOffsetEnd
p341
V66
p342
sVPartOfSpeech
p343
VCD
p344
sVCharacterOffsetBegin
p345
V63
p346
sVNamedEntityTag
p347
VNUMBER
p348
saa(lp349
Vload
p350
a(dp351
VNamedEntityTag
p352
g71
sVCharacterOffsetEnd
p353
V71
p354
sVCharacterOffsetBegin
p355
V67
p356
sVPartOfSpeech
p357
VNN
p358
sVLemma
p359
Vload
p360
saa(lp361
V,
p362
a(dp363
VNamedEntityTag
p364
g71
sVCharacterOffsetEnd
p365
V73
p366
sVCharacterOffsetBegin
p367
V72
p368
sVPartOfSpeech
p369
g362
sVLemma
p370
g362
saa(lp371
Vbut
p372
a(dp373
VNamedEntityTag
p374
g71
sVCharacterOffsetEnd
p375
V77
p376
sVCharacterOffsetBegin
p377
V74
p378
sVPartOfSpeech
p379
VCC
p380
sVLemma
p381
Vbut
p382
saa(lp383
Vdecided
p384
a(dp385
VNamedEntityTag
p386
g71
sVCharacterOffsetEnd
p387
V85
p388
sVCharacterOffsetBegin
p389
V78
p390
sVPartOfSpeech
p391
VVBD
p392
sVLemma
p393
Vdecide
p394
saa(lp395
Vto
p396
a(dp397
VNamedEntityTag
p398
g71
sVCharacterOffsetEnd
p399
V88
p400
sVCharacterOffsetBegin
p401
V86
p402
sVPartOfSpeech
p403
VTO
p404
sVLemma
p405
Vto
p406
saa(lp407
Vsplit
p408
a(dp409
VNamedEntityTag
p410
g71
sVCharacterOffsetEnd
p411
V94
p412
sVCharacterOffsetBegin
p413
V89
p414
sVPartOfSpeech
p415
VVB
p416
sVLemma
p417
Vsplit
p418
saa(lp419
Vthe
p420
a(dp421
VNamedEntityTag
p422
g71
sVCharacterOffsetEnd
p423
V98
p424
sVCharacterOffsetBegin
p425
V95
p426
sVPartOfSpeech
p427
VDT
p428
sVLemma
p429
Vthe
p430
saa(lp431
Vrest
p432
a(dp433
VNamedEntityTag
p434
g71
sVCharacterOffsetEnd
p435
V103
p436
sVCharacterOffsetBegin
p437
V99
p438
sVPartOfSpeech
p439
VNN
p440
sVLemma
p441
Vrest
p442
saa(lp443
Vinto
p444
a(dp445
VNamedEntityTag
p446
g71
sVCharacterOffsetEnd
p447
V108
p448
sVCharacterOffsetBegin
p449
V104
p450
sVPartOfSpeech
p451
VIN
p452
sVLemma
p453
Vinto
p454
saa(lp455
g60
a(dp456
VNormalizedNamedEntityTag
p457
V5.0
p458
sVLemma
p459
g60
sVCharacterOffsetEnd
p460
V110
p461
sVPartOfSpeech
p462
VCD
p463
sVCharacterOffsetBegin
p464
V109
p465
sVNamedEntityTag
p466
VNUMBER
p467
saa(lp468
Vequal
p469
a(dp470
VNamedEntityTag
p471
g71
sVCharacterOffsetEnd
p472
V116
p473
sVCharacterOffsetBegin
p474
V111
p475
sVPartOfSpeech
p476
VJJ
p477
sVLemma
p478
Vequal
p479
saa(lp480
Vloads
p481
a(dp482
VNamedEntityTag
p483
g71
sVCharacterOffsetEnd
p484
V122
p485
sVCharacterOffsetBegin
p486
V117
p487
sVPartOfSpeech
p488
VNNS
p489
sVLemma
p490
Vload
p491
saa(lp492
g156
a(dp493
VNamedEntityTag
p494
g71
sVCharacterOffsetEnd
p495
V124
p496
sVCharacterOffsetBegin
p497
V123
p498
sVPartOfSpeech
p499
g156
sVLemma
p500
g156
saasVindexeddependencies
p501
(lp502
(lp503
Vroot
p504
aVROOT-0
p505
aVput-2
p506
aa(lp507
Vnsubj
p508
aVput-2
p509
aVHe-1
p510
aa(lp511
Vdobj
p512
aVput-2
p513
aV17-3
p514
aa(lp515
Vprep_of
p516
aV17-3
p517
aVthem-5
p518
aa(lp519
Vnum
p520
aVload-8
p521
aVone-7
p522
aa(lp523
Vprep_in
p524
aVput-2
p525
aVload-8
p526
aa(lp527
Vconj_but
p528
aVput-2
p529
aVdecided-11
p530
aa(lp531
Vaux
p532
aVsplit-13
p533
aVto-12
p534
aa(lp535
Vxcomp
p536
aVdecided-11
p537
aVsplit-13
p538
aa(lp539
Vdet
p540
aVrest-15
p541
aVthe-14
p542
aa(lp543
Vdobj
p544
aVsplit-13
p545
aVrest-15
p546
aa(lp547
Vnum
p548
aVloads-19
p549
aV5-17
p550
aa(lp551
Vamod
p552
aVloads-19
p553
aVequal-18
p554
aa(lp555
Vprep_into
p556
aVsplit-13
p557
aVloads-19
p558
aasa(dp559
Vparsetree
p560
V(ROOT (SBARQ (WHNP (WHADJP (WRB How) (JJ many)) (NP (NP (NNS pieces)) (PP (IN of) (NP (NN clothing))))) (SQ (VP (MD could) (VP (VB go) (PP (IN in) (NP (NP (DT each)) (PP (IN of) (NP (DT the) (JJ small) (NNS loads)))))))) (. ?)))
p561
sVtext
p562
VHow many pieces of clothing could go in each of the small loads ?
p563
sVdependencies
p564
(lp565
(lp566
Vroot
p567
aVROOT
p568
aVgo
p569
aa(lp570
Vadvmod
p571
aVmany
p572
aVHow
p573
aa(lp574
Vamod
p575
aVpieces
p576
aVmany
p577
aa(lp578
Vnsubj
p579
aVgo
p580
aVpieces
p581
aa(lp582
Vprep_of
p583
aVpieces
p584
aVclothing
p585
aa(lp586
Vaux
p587
aVgo
p588
aVcould
p589
aa(lp590
Vprep_in
p591
aVgo
p592
aVeach
p593
aa(lp594
Vdet
p595
aVloads
p596
aVthe
p597
aa(lp598
Vamod
p599
aVloads
p600
aVsmall
p601
aa(lp602
Vprep_of
p603
aVeach
p604
aVloads
p605
aasVwords
p606
(lp607
(lp608
VHow
p609
a(dp610
VNamedEntityTag
p611
g71
sVCharacterOffsetEnd
p612
V128
p613
sVCharacterOffsetBegin
p614
V125
p615
sVPartOfSpeech
p616
VWRB
p617
sVLemma
p618
Vhow
p619
saa(lp620
Vmany
p621
a(dp622
VNamedEntityTag
p623
g71
sVCharacterOffsetEnd
p624
V133
p625
sVCharacterOffsetBegin
p626
V129
p627
sVPartOfSpeech
p628
VJJ
p629
sVLemma
p630
Vmany
p631
saa(lp632
Vpieces
p633
a(dp634
VNamedEntityTag
p635
g71
sVCharacterOffsetEnd
p636
V140
p637
sVCharacterOffsetBegin
p638
V134
p639
sVPartOfSpeech
p640
VNNS
p641
sVLemma
p642
Vpiece
p643
saa(lp644
Vof
p645
a(dp646
VNamedEntityTag
p647
g71
sVCharacterOffsetEnd
p648
V143
p649
sVCharacterOffsetBegin
p650
V141
p651
sVPartOfSpeech
p652
VIN
p653
sVLemma
p654
Vof
p655
saa(lp656
Vclothing
p657
a(dp658
VNamedEntityTag
p659
g71
sVCharacterOffsetEnd
p660
V152
p661
sVCharacterOffsetBegin
p662
V144
p663
sVPartOfSpeech
p664
VNN
p665
sVLemma
p666
Vclothing
p667
saa(lp668
Vcould
p669
a(dp670
VNamedEntityTag
p671
g71
sVCharacterOffsetEnd
p672
V158
p673
sVCharacterOffsetBegin
p674
V153
p675
sVPartOfSpeech
p676
VMD
p677
sVLemma
p678
Vcould
p679
saa(lp680
Vgo
p681
a(dp682
VNamedEntityTag
p683
g71
sVCharacterOffsetEnd
p684
V161
p685
sVCharacterOffsetBegin
p686
V159
p687
sVPartOfSpeech
p688
VVB
p689
sVLemma
p690
Vgo
p691
saa(lp692
Vin
p693
a(dp694
VNamedEntityTag
p695
g71
sVCharacterOffsetEnd
p696
V164
p697
sVCharacterOffsetBegin
p698
V162
p699
sVPartOfSpeech
p700
VIN
p701
sVLemma
p702
Vin
p703
saa(lp704
Veach
p705
a(dp706
VNamedEntityTag
p707
g71
sVCharacterOffsetEnd
p708
V169
p709
sVCharacterOffsetBegin
p710
V165
p711
sVPartOfSpeech
p712
VDT
p713
sVLemma
p714
Veach
p715
saa(lp716
Vof
p717
a(dp718
VNamedEntityTag
p719
g71
sVCharacterOffsetEnd
p720
V172
p721
sVCharacterOffsetBegin
p722
V170
p723
sVPartOfSpeech
p724
VIN
p725
sVLemma
p726
Vof
p727
saa(lp728
Vthe
p729
a(dp730
VNamedEntityTag
p731
g71
sVCharacterOffsetEnd
p732
V176
p733
sVCharacterOffsetBegin
p734
V173
p735
sVPartOfSpeech
p736
VDT
p737
sVLemma
p738
Vthe
p739
saa(lp740
Vsmall
p741
a(dp742
VNamedEntityTag
p743
g71
sVCharacterOffsetEnd
p744
V182
p745
sVCharacterOffsetBegin
p746
V177
p747
sVPartOfSpeech
p748
VJJ
p749
sVLemma
p750
Vsmall
p751
saa(lp752
Vloads
p753
a(dp754
VNamedEntityTag
p755
g71
sVCharacterOffsetEnd
p756
V188
p757
sVCharacterOffsetBegin
p758
V183
p759
sVPartOfSpeech
p760
VNNS
p761
sVLemma
p762
Vload
p763
saa(lp764
V?
p765
a(dp766
VNamedEntityTag
p767
g71
sVCharacterOffsetEnd
p768
V190
p769
sVCharacterOffsetBegin
p770
V189
p771
sVPartOfSpeech
p772
g156
sVLemma
p773
g765
saasVindexeddependencies
p774
(lp775
(lp776
Vroot
p777
aVROOT-0
p778
aVgo-7
p779
aa(lp780
Vadvmod
p781
aVmany-2
p782
aVHow-1
p783
aa(lp784
Vamod
p785
aVpieces-3
p786
aVmany-2
p787
aa(lp788
Vnsubj
p789
aVgo-7
p790
aVpieces-3
p791
aa(lp792
Vprep_of
p793
aVpieces-3
p794
aVclothing-5
p795
aa(lp796
Vaux
p797
aVgo-7
p798
aVcould-6
p799
aa(lp800
Vprep_in
p801
aVgo-7
p802
aVeach-9
p803
aa(lp804
Vdet
p805
aVloads-13
p806
aVthe-11
p807
aa(lp808
Vamod
p809
aVloads-13
p810
aVsmall-12
p811
aa(lp812
Vprep_of
p813
aVeach-9
p814
aVloads-13
p815
aasas.