(dp0
Vcoref
p1
(lp2
(lp3
(lp4
(lp5
VHe
p6
aI1
aI0
aI0
aI1
aa(lp7
VEdward
p8
aI0
aI0
aI0
aI1
aaa(lp9
(lp10
Vhe
p11
aI2
aI11
aI11
aI12
aa(lp12
VEdward
p13
aI0
aI0
aI0
aI1
aaaasVsentences
p14
(lp15
(dp16
Vparsetree
p17
V(ROOT (S (NP (NNP Edward)) (VP (VBD bought) (NP (CD 79) (NNS tickets)) (PP (IN at) (NP (DT the) (NN state) (NN fair)))) (. .)))
p18
sVtext
p19
VEdward bought 79 tickets at the state fair .
p20
sVdependencies
p21
(lp22
(lp23
Vroot
p24
aVROOT
p25
aVbought
p26
aa(lp27
Vnsubj
p28
aVbought
p29
aVEdward
p30
aa(lp31
Vnum
p32
aVtickets
p33
aV79
p34
aa(lp35
Vdobj
p36
aVbought
p37
aVtickets
p38
aa(lp39
Vdet
p40
aVfair
p41
aVthe
p42
aa(lp43
Vnn
p44
aVfair
p45
aVstate
p46
aa(lp47
Vprep_at
p48
aVbought
p49
aVfair
p50
aasVwords
p51
(lp52
(lp53
VEdward
p54
a(dp55
VNamedEntityTag
p56
VPERSON
p57
sVCharacterOffsetEnd
p58
V7
p59
sVCharacterOffsetBegin
p60
V1
p61
sVPartOfSpeech
p62
VNNP
p63
sVLemma
p64
VEdward
p65
saa(lp66
Vbought
p67
a(dp68
VNamedEntityTag
p69
VO
p70
sVCharacterOffsetEnd
p71
V14
p72
sVCharacterOffsetBegin
p73
V8
p74
sVPartOfSpeech
p75
VVBD
p76
sVLemma
p77
Vbuy
p78
saa(lp79
V79
p80
a(dp81
VNormalizedNamedEntityTag
p82
V79.0
p83
sVLemma
p84
V79
p85
sVCharacterOffsetEnd
p86
V17
p87
sVPartOfSpeech
p88
VCD
p89
sVCharacterOffsetBegin
p90
V15
p91
sVNamedEntityTag
p92
VNUMBER
p93
saa(lp94
Vtickets
p95
a(dp96
VNamedEntityTag
p97
g70
sVCharacterOffsetEnd
p98
V25
p99
sVCharacterOffsetBegin
p100
V18
p101
sVPartOfSpeech
p102
VNNS
p103
sVLemma
p104
Vticket
p105
saa(lp106
Vat
p107
a(dp108
VNamedEntityTag
p109
g70
sVCharacterOffsetEnd
p110
V28
p111
sVCharacterOffsetBegin
p112
V26
p113
sVPartOfSpeech
p114
VIN
p115
sVLemma
p116
Vat
p117
saa(lp118
Vthe
p119
a(dp120
VNamedEntityTag
p121
g70
sVCharacterOffsetEnd
p122
V32
p123
sVCharacterOffsetBegin
p124
V29
p125
sVPartOfSpeech
p126
VDT
p127
sVLemma
p128
Vthe
p129
saa(lp130
Vstate
p131
a(dp132
VNamedEntityTag
p133
g70
sVCharacterOffsetEnd
p134
V38
p135
sVCharacterOffsetBegin
p136
V33
p137
sVPartOfSpeech
p138
VNN
p139
sVLemma
p140
Vstate
p141
saa(lp142
Vfair
p143
a(dp144
VNamedEntityTag
p145
g70
sVCharacterOffsetEnd
p146
V43
p147
sVCharacterOffsetBegin
p148
V39
p149
sVPartOfSpeech
p150
VNN
p151
sVLemma
p152
Vfair
p153
saa(lp154
V.
p155
a(dp156
VNamedEntityTag
p157
g70
sVCharacterOffsetEnd
p158
V45
p159
sVCharacterOffsetBegin
p160
V44
p161
sVPartOfSpeech
p162
g155
sVLemma
p163
g155
saasVindexeddependencies
p164
(lp165
(lp166
Vroot
p167
aVROOT-0
p168
aVbought-2
p169
aa(lp170
Vnsubj
p171
aVbought-2
p172
aVEdward-1
p173
aa(lp174
Vnum
p175
aVtickets-4
p176
aV79-3
p177
aa(lp178
Vdobj
p179
aVbought-2
p180
aVtickets-4
p181
aa(lp182
Vdet
p183
aVfair-8
p184
aVthe-6
p185
aa(lp186
Vnn
p187
aVfair-8
p188
aVstate-7
p189
aa(lp190
Vprep_at
p191
aVbought-2
p192
aVfair-8
p193
aasa(dp194
Vparsetree
p195
V(ROOT (S (NP (PRP He)) (VP (VP (VBD spent) (NP (CD 23) (NNS tickets)) (PP (IN at) (NP (NP (DT the) (`` `) (NN dunk)) (NP (DT a) (NN clown) ('' ') (NN booth))))) (CC and) (VP (VBD decided) (S (VP (TO to) (VP (VB use) (NP (DT the) (NN rest)) (PP (IN on) (NP (NNS rides)))))))) (. .)))
p196
sVtext
p197
VHe spent 23 tickets at the 'dunk a clown' booth and decided to use the rest on rides .
p198
sVdependencies
p199
(lp200
(lp201
Vroot
p202
aVROOT
p203
aVspent
p204
aa(lp205
Vnsubj
p206
aVspent
p207
aVHe
p208
aa(lp209
Vnum
p210
aVtickets
p211
aV23
p212
aa(lp213
Vdobj
p214
aVspent
p215
aVtickets
p216
aa(lp217
Vdet
p218
aVdunk
p219
aVthe
p220
aa(lp221
Vprep_at
p222
aVspent
p223
aVdunk
p224
aa(lp225
Vdet
p226
aVbooth
p227
aVa
p228
aa(lp229
Vnn
p230
aVbooth
p231
aVclown
p232
aa(lp233
Vdep
p234
aVdunk
p235
aVbooth
p236
aa(lp237
Vconj_and
p238
aVspent
p239
aVdecided
p240
aa(lp241
Vaux
p242
aVuse
p243
aVto
p244
aa(lp245
Vxcomp
p246
aVdecided
p247
aVuse
p248
aa(lp249
Vdet
p250
aVrest
p251
aVthe
p252
aa(lp253
Vdobj
p254
aVuse
p255
aVrest
p256
aa(lp257
Vprep_on
p258
aVuse
p259
aVrides
p260
aasVwords
p261
(lp262
(lp263
VHe
p264
a(dp265
VNamedEntityTag
p266
g70
sVCharacterOffsetEnd
p267
V48
p268
sVCharacterOffsetBegin
p269
V46
p270
sVPartOfSpeech
p271
VPRP
p272
sVLemma
p273
Vhe
p274
saa(lp275
Vspent
p276
a(dp277
VNamedEntityTag
p278
g70
sVCharacterOffsetEnd
p279
V54
p280
sVCharacterOffsetBegin
p281
V49
p282
sVPartOfSpeech
p283
VVBD
p284
sVLemma
p285
Vspend
p286
saa(lp287
V23
p288
a(dp289
VNormalizedNamedEntityTag
p290
V23.0
p291
sVLemma
p292
V23
p293
sVCharacterOffsetEnd
p294
V57
p295
sVPartOfSpeech
p296
VCD
p297
sVCharacterOffsetBegin
p298
V55
p299
sVNamedEntityTag
p300
VNUMBER
p301
saa(lp302
Vtickets
p303
a(dp304
VNamedEntityTag
p305
g70
sVCharacterOffsetEnd
p306
V65
p307
sVCharacterOffsetBegin
p308
V58
p309
sVPartOfSpeech
p310
VNNS
p311
sVLemma
p312
Vticket
p313
saa(lp314
Vat
p315
a(dp316
VNamedEntityTag
p317
g70
sVCharacterOffsetEnd
p318
V68
p319
sVCharacterOffsetBegin
p320
V66
p321
sVPartOfSpeech
p322
VIN
p323
sVLemma
p324
Vat
p325
saa(lp326
Vthe
p327
a(dp328
VNamedEntityTag
p329
g70
sVCharacterOffsetEnd
p330
V72
p331
sVCharacterOffsetBegin
p332
V69
p333
sVPartOfSpeech
p334
VDT
p335
sVLemma
p336
Vthe
p337
saa(lp338
V`
p339
a(dp340
VNamedEntityTag
p341
g70
sVCharacterOffsetEnd
p342
V74
p343
sVCharacterOffsetBegin
p344
V73
p345
sVPartOfSpeech
p346
V``
p347
sVLemma
p348
g339
saa(lp349
Vdunk
p350
a(dp351
VNamedEntityTag
p352
g70
sVCharacterOffsetEnd
p353
V78
p354
sVCharacterOffsetBegin
p355
V74
p356
sVPartOfSpeech
p357
VNN
p358
sVLemma
p359
Vdunk
p360
saa(lp361
g228
a(dp362
VNamedEntityTag
p363
g70
sVCharacterOffsetEnd
p364
V80
p365
sVCharacterOffsetBegin
p366
V79
p367
sVPartOfSpeech
p368
VDT
p369
sVLemma
p370
g228
saa(lp371
Vclown
p372
a(dp373
VNamedEntityTag
p374
g70
sVCharacterOffsetEnd
p375
V86
p376
sVCharacterOffsetBegin
p377
V81
p378
sVPartOfSpeech
p379
VNN
p380
sVLemma
p381
Vclown
p382
saa(lp383
V'
p384
a(dp385
VNamedEntityTag
p386
g70
sVCharacterOffsetEnd
p387
V87
p388
sVCharacterOffsetBegin
p389
V86
p390
sVPartOfSpeech
p391
V''
p392
sVLemma
p393
g384
saa(lp394
Vbooth
p395
a(dp396
VNamedEntityTag
p397
g70
sVCharacterOffsetEnd
p398
V93
p399
sVCharacterOffsetBegin
p400
V88
p401
sVPartOfSpeech
p402
VNN
p403
sVLemma
p404
Vbooth
p405
saa(lp406
Vand
p407
a(dp408
VNamedEntityTag
p409
g70
sVCharacterOffsetEnd
p410
V97
p411
sVCharacterOffsetBegin
p412
V94
p413
sVPartOfSpeech
p414
VCC
p415
sVLemma
p416
Vand
p417
saa(lp418
Vdecided
p419
a(dp420
VNamedEntityTag
p421
g70
sVCharacterOffsetEnd
p422
V105
p423
sVCharacterOffsetBegin
p424
V98
p425
sVPartOfSpeech
p426
VVBD
p427
sVLemma
p428
Vdecide
p429
saa(lp430
Vto
p431
a(dp432
VNamedEntityTag
p433
g70
sVCharacterOffsetEnd
p434
V108
p435
sVCharacterOffsetBegin
p436
V106
p437
sVPartOfSpeech
p438
VTO
p439
sVLemma
p440
Vto
p441
saa(lp442
Vuse
p443
a(dp444
VNamedEntityTag
p445
g70
sVCharacterOffsetEnd
p446
V112
p447
sVCharacterOffsetBegin
p448
V109
p449
sVPartOfSpeech
p450
VVB
p451
sVLemma
p452
Vuse
p453
saa(lp454
Vthe
p455
a(dp456
VNamedEntityTag
p457
g70
sVCharacterOffsetEnd
p458
V116
p459
sVCharacterOffsetBegin
p460
V113
p461
sVPartOfSpeech
p462
VDT
p463
sVLemma
p464
Vthe
p465
saa(lp466
Vrest
p467
a(dp468
VNamedEntityTag
p469
g70
sVCharacterOffsetEnd
p470
V121
p471
sVCharacterOffsetBegin
p472
V117
p473
sVPartOfSpeech
p474
VNN
p475
sVLemma
p476
Vrest
p477
saa(lp478
Von
p479
a(dp480
VNamedEntityTag
p481
g70
sVCharacterOffsetEnd
p482
V124
p483
sVCharacterOffsetBegin
p484
V122
p485
sVPartOfSpeech
p486
VIN
p487
sVLemma
p488
Von
p489
saa(lp490
Vrides
p491
a(dp492
VNamedEntityTag
p493
g70
sVCharacterOffsetEnd
p494
V130
p495
sVCharacterOffsetBegin
p496
V125
p497
sVPartOfSpeech
p498
VNNS
p499
sVLemma
p500
Vride
p501
saa(lp502
g155
a(dp503
VNamedEntityTag
p504
g70
sVCharacterOffsetEnd
p505
V132
p506
sVCharacterOffsetBegin
p507
V131
p508
sVPartOfSpeech
p509
g155
sVLemma
p510
g155
saasVindexeddependencies
p511
(lp512
(lp513
Vroot
p514
aVROOT-0
p515
aVspent-2
p516
aa(lp517
Vnsubj
p518
aVspent-2
p519
aVHe-1
p520
aa(lp521
Vnum
p522
aVtickets-4
p523
aV23-3
p524
aa(lp525
Vdobj
p526
aVspent-2
p527
aVtickets-4
p528
aa(lp529
Vdet
p530
aVdunk-8
p531
aVthe-6
p532
aa(lp533
Vprep_at
p534
aVspent-2
p535
aVdunk-8
p536
aa(lp537
Vdet
p538
aVbooth-12
p539
aVa-9
p540
aa(lp541
Vnn
p542
aVbooth-12
p543
aVclown-10
p544
aa(lp545
Vdep
p546
aVdunk-8
p547
aVbooth-12
p548
aa(lp549
Vconj_and
p550
aVspent-2
p551
aVdecided-14
p552
aa(lp553
Vaux
p554
aVuse-16
p555
aVto-15
p556
aa(lp557
Vxcomp
p558
aVdecided-14
p559
aVuse-16
p560
aa(lp561
Vdet
p562
aVrest-18
p563
aVthe-17
p564
aa(lp565
Vdobj
p566
aVuse-16
p567
aVrest-18
p568
aa(lp569
Vprep_on
p570
aVuse-16
p571
aVrides-20
p572
aasa(dp573
Vparsetree
p574
V(ROOT (SBARQ (SBAR (IN If) (FRAG (NP-TMP (NP (DT each) (NN ride) (NN cost)) (NP (CD 7) (NNS tickets))))) (, ,) (WHNP (WHADJP (WRB how) (JJ many)) (NNS rides)) (SQ (MD could) (NP (PRP he)) (VP (VB go) (PP (IN on))) (. ?))))
p575
sVtext
p576
VIf each ride cost 7 tickets , how many rides could he go on ?
p577
sVdependencies
p578
(lp579
(lp580
Vroot
p581
aVROOT
p582
aVgo
p583
aa(lp584
Vmark
p585
aVcost
p586
aVIf
p587
aa(lp588
Vdet
p589
aVcost
p590
aVeach
p591
aa(lp592
Vnn
p593
aVcost
p594
aVride
p595
aa(lp596
Vadvcl
p597
aVgo
p598
aVcost
p599
aa(lp600
Vnum
p601
aVtickets
p602
ag59
aa(lp603
Vdep
p604
aVcost
p605
aVtickets
p606
aa(lp607
Vadvmod
p608
aVmany
p609
aVhow
p610
aa(lp611
Vamod
p612
aVrides
p613
aVmany
p614
aa(lp615
Vdep
p616
aVgo
p617
aVrides
p618
aa(lp619
Vaux
p620
aVgo
p621
aVcould
p622
aa(lp623
Vnsubj
p624
aVgo
p625
aVhe
p626
aa(lp627
Vprep
p628
aVgo
p629
aVon
p630
aasVwords
p631
(lp632
(lp633
VIf
p634
a(dp635
VNamedEntityTag
p636
g70
sVCharacterOffsetEnd
p637
V135
p638
sVCharacterOffsetBegin
p639
V133
p640
sVPartOfSpeech
p641
VIN
p642
sVLemma
p643
Vif
p644
saa(lp645
Veach
p646
a(dp647
VNamedEntityTag
p648
g70
sVCharacterOffsetEnd
p649
V140
p650
sVCharacterOffsetBegin
p651
V136
p652
sVPartOfSpeech
p653
VDT
p654
sVLemma
p655
Veach
p656
saa(lp657
Vride
p658
a(dp659
VNamedEntityTag
p660
g70
sVCharacterOffsetEnd
p661
V145
p662
sVCharacterOffsetBegin
p663
V141
p664
sVPartOfSpeech
p665
VNN
p666
sVLemma
p667
Vride
p668
saa(lp669
Vcost
p670
a(dp671
VNamedEntityTag
p672
g70
sVCharacterOffsetEnd
p673
V150
p674
sVCharacterOffsetBegin
p675
V146
p676
sVPartOfSpeech
p677
VNN
p678
sVLemma
p679
Vcost
p680
saa(lp681
g59
a(dp682
VNormalizedNamedEntityTag
p683
V7.0
p684
sVLemma
p685
g59
sVCharacterOffsetEnd
p686
V152
p687
sVPartOfSpeech
p688
VCD
p689
sVCharacterOffsetBegin
p690
V151
p691
sVNamedEntityTag
p692
VNUMBER
p693
saa(lp694
Vtickets
p695
a(dp696
VNamedEntityTag
p697
g70
sVCharacterOffsetEnd
p698
V160
p699
sVCharacterOffsetBegin
p700
V153
p701
sVPartOfSpeech
p702
VNNS
p703
sVLemma
p704
Vticket
p705
saa(lp706
V,
p707
a(dp708
VNamedEntityTag
p709
g70
sVCharacterOffsetEnd
p710
V162
p711
sVCharacterOffsetBegin
p712
V161
p713
sVPartOfSpeech
p714
g707
sVLemma
p715
g707
saa(lp716
Vhow
p717
a(dp718
VNamedEntityTag
p719
g70
sVCharacterOffsetEnd
p720
V166
p721
sVCharacterOffsetBegin
p722
V163
p723
sVPartOfSpeech
p724
VWRB
p725
sVLemma
p726
Vhow
p727
saa(lp728
Vmany
p729
a(dp730
VNamedEntityTag
p731
g70
sVCharacterOffsetEnd
p732
V171
p733
sVCharacterOffsetBegin
p734
V167
p735
sVPartOfSpeech
p736
VJJ
p737
sVLemma
p738
Vmany
p739
saa(lp740
Vrides
p741
a(dp742
VNamedEntityTag
p743
g70
sVCharacterOffsetEnd
p744
V177
p745
sVCharacterOffsetBegin
p746
V172
p747
sVPartOfSpeech
p748
VNNS
p749
sVLemma
p750
Vride
p751
saa(lp752
Vcould
p753
a(dp754
VNamedEntityTag
p755
g70
sVCharacterOffsetEnd
p756
V183
p757
sVCharacterOffsetBegin
p758
V178
p759
sVPartOfSpeech
p760
VMD
p761
sVLemma
p762
Vcould
p763
saa(lp764
Vhe
p765
a(dp766
VNamedEntityTag
p767
g70
sVCharacterOffsetEnd
p768
V186
p769
sVCharacterOffsetBegin
p770
V184
p771
sVPartOfSpeech
p772
VPRP
p773
sVLemma
p774
Vhe
p775
saa(lp776
Vgo
p777
a(dp778
VNamedEntityTag
p779
g70
sVCharacterOffsetEnd
p780
V189
p781
sVCharacterOffsetBegin
p782
V187
p783
sVPartOfSpeech
p784
VVB
p785
sVLemma
p786
Vgo
p787
saa(lp788
Von
p789
a(dp790
VNamedEntityTag
p791
g70
sVCharacterOffsetEnd
p792
V192
p793
sVCharacterOffsetBegin
p794
V190
p795
sVPartOfSpeech
p796
VIN
p797
sVLemma
p798
Von
p799
saa(lp800
V?
p801
a(dp802
VNamedEntityTag
p803
g70
sVCharacterOffsetEnd
p804
V194
p805
sVCharacterOffsetBegin
p806
V193
p807
sVPartOfSpeech
p808
g155
sVLemma
p809
g801
saasVindexeddependencies
p810
(lp811
(lp812
Vroot
p813
aVROOT-0
p814
aVgo-13
p815
aa(lp816
Vmark
p817
aVcost-4
p818
aVIf-1
p819
aa(lp820
Vdet
p821
aVcost-4
p822
aVeach-2
p823
aa(lp824
Vnn
p825
aVcost-4
p826
aVride-3
p827
aa(lp828
Vadvcl
p829
aVgo-13
p830
aVcost-4
p831
aa(lp832
Vnum
p833
aVtickets-6
p834
aV7-5
p835
aa(lp836
Vdep
p837
aVcost-4
p838
aVtickets-6
p839
aa(lp840
Vadvmod
p841
aVmany-9
p842
aVhow-8
p843
aa(lp844
Vamod
p845
aVrides-10
p846
aVmany-9
p847
aa(lp848
Vdep
p849
aVgo-13
p850
aVrides-10
p851
aa(lp852
Vaux
p853
aVgo-13
p854
aVcould-11
p855
aa(lp856
Vnsubj
p857
aVgo-13
p858
aVhe-12
p859
aa(lp860
Vprep
p861
aVgo-13
p862
aVon-14
p863
aasas.