(dp0
Vcoref
p1
(lp2
(lp3
(lp4
(lp5
Vher
p6
aI1
aI1
aI1
aI2
aa(lp7
VKatie baked 18 cupcakes for her school 's bake sale .
p8
aI0
aI0
aI0
aI11
aaa(lp9
(lp10
Vshe
p11
aI1
aI14
aI14
aI15
aa(lp12
VKatie baked 18 cupcakes for her school 's bake sale .
p13
aI0
aI0
aI0
aI11
aaa(lp14
(lp15
Vshe
p16
aI1
aI17
aI17
aI18
aa(lp17
VKatie baked 18 cupcakes for her school 's bake sale .
p18
aI0
aI0
aI0
aI11
aaaa(lp19
(lp20
(lp21
Vher brother
p22
aI1
aI2
aI1
aI3
aa(lp23
VTodd
p24
aI1
aI4
aI4
aI5
aaaasVsentences
p25
(lp26
(dp27
Vparsetree
p28
V(ROOT (NP (NP (NNP Katie)) (NP (NP (JJ baked) (CD 18) (NNS cupcakes)) (PP (IN for) (NP (NP (PRP$ her) (NN school) (POS 's)) (JJ bake) (NN sale)))) (. .)))
p29
sVtext
p30
VKatie baked 18 cupcakes for her school's bake sale .
p31
sVdependencies
p32
(lp33
(lp34
Vroot
p35
aVROOT
p36
aVKatie
p37
aa(lp38
Vamod
p39
aVcupcakes
p40
aVbaked
p41
aa(lp42
Vnum
p43
aVcupcakes
p44
aV18
p45
aa(lp46
Vdep
p47
aVKatie
p48
aVcupcakes
p49
aa(lp50
Vposs
p51
aVschool
p52
aVher
p53
aa(lp54
Vposs
p55
aVsale
p56
aVschool
p57
aa(lp58
Vamod
p59
aVsale
p60
aVbake
p61
aa(lp62
Vprep_for
p63
aVcupcakes
p64
aVsale
p65
aasVwords
p66
(lp67
(lp68
VKatie
p69
a(dp70
VNamedEntityTag
p71
VPERSON
p72
sVCharacterOffsetEnd
p73
V6
p74
sVCharacterOffsetBegin
p75
V1
p76
sVPartOfSpeech
p77
VNNP
p78
sVLemma
p79
VKatie
p80
saa(lp81
Vbaked
p82
a(dp83
VNamedEntityTag
p84
VO
p85
sVCharacterOffsetEnd
p86
V12
p87
sVCharacterOffsetBegin
p88
V7
p89
sVPartOfSpeech
p90
VJJ
p91
sVLemma
p92
Vbaked
p93
saa(lp94
V18
p95
a(dp96
VNormalizedNamedEntityTag
p97
V18.0
p98
sVLemma
p99
V18
p100
sVCharacterOffsetEnd
p101
V15
p102
sVPartOfSpeech
p103
VCD
p104
sVCharacterOffsetBegin
p105
V13
p106
sVNamedEntityTag
p107
VNUMBER
p108
saa(lp109
Vcupcakes
p110
a(dp111
VNamedEntityTag
p112
g85
sVCharacterOffsetEnd
p113
V24
p114
sVCharacterOffsetBegin
p115
V16
p116
sVPartOfSpeech
p117
VNNS
p118
sVLemma
p119
Vcupcake
p120
saa(lp121
Vfor
p122
a(dp123
VNamedEntityTag
p124
g85
sVCharacterOffsetEnd
p125
V28
p126
sVCharacterOffsetBegin
p127
V25
p128
sVPartOfSpeech
p129
VIN
p130
sVLemma
p131
Vfor
p132
saa(lp133
Vher
p134
a(dp135
VNamedEntityTag
p136
g85
sVCharacterOffsetEnd
p137
V32
p138
sVCharacterOffsetBegin
p139
V29
p140
sVPartOfSpeech
p141
VPRP$
p142
sVLemma
p143
Vshe
p144
saa(lp145
Vschool
p146
a(dp147
VNamedEntityTag
p148
g85
sVCharacterOffsetEnd
p149
V39
p150
sVCharacterOffsetBegin
p151
V33
p152
sVPartOfSpeech
p153
VNN
p154
sVLemma
p155
Vschool
p156
saa(lp157
V's
p158
a(dp159
VNamedEntityTag
p160
g85
sVCharacterOffsetEnd
p161
V41
p162
sVCharacterOffsetBegin
p163
V39
p164
sVPartOfSpeech
p165
VPOS
p166
sVLemma
p167
V's
p168
saa(lp169
Vbake
p170
a(dp171
VNamedEntityTag
p172
g85
sVCharacterOffsetEnd
p173
V46
p174
sVCharacterOffsetBegin
p175
V42
p176
sVPartOfSpeech
p177
VJJ
p178
sVLemma
p179
Vbake
p180
saa(lp181
Vsale
p182
a(dp183
VNamedEntityTag
p184
g85
sVCharacterOffsetEnd
p185
V51
p186
sVCharacterOffsetBegin
p187
V47
p188
sVPartOfSpeech
p189
VNN
p190
sVLemma
p191
Vsale
p192
saa(lp193
V.
p194
a(dp195
VNamedEntityTag
p196
g85
sVCharacterOffsetEnd
p197
V53
p198
sVCharacterOffsetBegin
p199
V52
p200
sVPartOfSpeech
p201
g194
sVLemma
p202
g194
saasVindexeddependencies
p203
(lp204
(lp205
Vroot
p206
aVROOT-0
p207
aVKatie-1
p208
aa(lp209
Vamod
p210
aVcupcakes-4
p211
aVbaked-2
p212
aa(lp213
Vnum
p214
aVcupcakes-4
p215
aV18-3
p216
aa(lp217
Vdep
p218
aVKatie-1
p219
aVcupcakes-4
p220
aa(lp221
Vposs
p222
aVschool-7
p223
aVher-6
p224
aa(lp225
Vposs
p226
aVsale-10
p227
aVschool-7
p228
aa(lp229
Vamod
p230
aVsale-10
p231
aVbake-9
p232
aa(lp233
Vprep_for
p234
aVcupcakes-4
p235
aVsale-10
p236
aasa(dp237
Vparsetree
p238
V(ROOT (SBAR (IN If) (S (NP (NP (PRP$ her) (NN brother)) (, ,) (NP (NNP Todd)) (, ,)) (VP (VBD ate) (NP (CD 8)) (PP (IN of) (NP (PRP them))) (SBAR (SBARQ (WHNP (WHADJP (WRB how) (JJ many)) (NNS packages)) (SQ (MD could) (NP (PRP she)) (VP (VB make) (SBAR (IN if) (S (NP (PRP she)) (VP (VBD put) (NP (NP (CD 2) (NN cupcake)) (PP (IN in) (NP (DT each) (NN package))))))))) (. ?)))))))
p239
sVtext
p240
VIf her brother , Todd , ate 8 of them how many packages could she make if she put 2 cupcake in each package ?
p241
sVdependencies
p242
(lp243
(lp244
Vroot
p245
aVROOT
p246
aVate
p247
aa(lp248
Vmark
p249
aVate
p250
aVIf
p251
aa(lp252
Vposs
p253
aVbrother
p254
aVher
p255
aa(lp256
Vnsubj
p257
aVate
p258
aVbrother
p259
aa(lp260
Vappos
p261
aVbrother
p262
aVTodd
p263
aa(lp264
Vdobj
p265
aVate
p266
aV8
p267
aa(lp268
Vprep_of
p269
aVate
p270
aVthem
p271
aa(lp272
Vadvmod
p273
aVmany
p274
aVhow
p275
aa(lp276
Vamod
p277
aVpackages
p278
aVmany
p279
aa(lp280
Vdobj
p281
aVmake
p282
aVpackages
p283
aa(lp284
Vaux
p285
aVmake
p286
aVcould
p287
aa(lp288
Vnsubj
p289
aVmake
p290
aVshe
p291
aa(lp292
Vdep
p293
aVate
p294
aVmake
p295
aa(lp296
Vmark
p297
aVput
p298
aVif
p299
aa(lp300
Vnsubj
p301
aVput
p302
aVshe
p303
aa(lp304
Vadvcl
p305
aVmake
p306
aVput
p307
aa(lp308
Vnum
p309
aVcupcake
p310
aV2
p311
aa(lp312
Vdobj
p313
aVput
p314
aVcupcake
p315
aa(lp316
Vdet
p317
aVpackage
p318
aVeach
p319
aa(lp320
Vprep_in
p321
aVcupcake
p322
aVpackage
p323
aasVwords
p324
(lp325
(lp326
VIf
p327
a(dp328
VNamedEntityTag
p329
g85
sVCharacterOffsetEnd
p330
V56
p331
sVCharacterOffsetBegin
p332
V54
p333
sVPartOfSpeech
p334
VIN
p335
sVLemma
p336
Vif
p337
saa(lp338
Vher
p339
a(dp340
VNamedEntityTag
p341
g85
sVCharacterOffsetEnd
p342
V60
p343
sVCharacterOffsetBegin
p344
V57
p345
sVPartOfSpeech
p346
VPRP$
p347
sVLemma
p348
Vshe
p349
saa(lp350
Vbrother
p351
a(dp352
VNamedEntityTag
p353
g85
sVCharacterOffsetEnd
p354
V68
p355
sVCharacterOffsetBegin
p356
V61
p357
sVPartOfSpeech
p358
VNN
p359
sVLemma
p360
Vbrother
p361
saa(lp362
V,
p363
a(dp364
VNamedEntityTag
p365
g85
sVCharacterOffsetEnd
p366
V70
p367
sVCharacterOffsetBegin
p368
V69
p369
sVPartOfSpeech
p370
g363
sVLemma
p371
g363
saa(lp372
VTodd
p373
a(dp374
VNamedEntityTag
p375
VPERSON
p376
sVCharacterOffsetEnd
p377
V75
p378
sVCharacterOffsetBegin
p379
V71
p380
sVPartOfSpeech
p381
VNNP
p382
sVLemma
p383
VTodd
p384
saa(lp385
g363
a(dp386
VNamedEntityTag
p387
g85
sVCharacterOffsetEnd
p388
V77
p389
sVCharacterOffsetBegin
p390
V76
p391
sVPartOfSpeech
p392
g363
sVLemma
p393
g363
saa(lp394
Vate
p395
a(dp396
VNamedEntityTag
p397
g85
sVCharacterOffsetEnd
p398
V81
p399
sVCharacterOffsetBegin
p400
V78
p401
sVPartOfSpeech
p402
VVBD
p403
sVLemma
p404
Veat
p405
saa(lp406
g267
a(dp407
VNormalizedNamedEntityTag
p408
V8.0
p409
sVLemma
p410
g267
sVCharacterOffsetEnd
p411
V83
p412
sVPartOfSpeech
p413
VCD
p414
sVCharacterOffsetBegin
p415
V82
p416
sVNamedEntityTag
p417
VNUMBER
p418
saa(lp419
Vof
p420
a(dp421
VNamedEntityTag
p422
g85
sVCharacterOffsetEnd
p423
V86
p424
sVCharacterOffsetBegin
p425
V84
p426
sVPartOfSpeech
p427
VIN
p428
sVLemma
p429
Vof
p430
saa(lp431
Vthem
p432
a(dp433
VNamedEntityTag
p434
g85
sVCharacterOffsetEnd
p435
V91
p436
sVCharacterOffsetBegin
p437
V87
p438
sVPartOfSpeech
p439
VPRP
p440
sVLemma
p441
Vthey
p442
saa(lp443
Vhow
p444
a(dp445
VNamedEntityTag
p446
g85
sVCharacterOffsetEnd
p447
V95
p448
sVCharacterOffsetBegin
p449
V92
p450
sVPartOfSpeech
p451
VWRB
p452
sVLemma
p453
Vhow
p454
saa(lp455
Vmany
p456
a(dp457
VNamedEntityTag
p458
g85
sVCharacterOffsetEnd
p459
V100
p460
sVCharacterOffsetBegin
p461
V96
p462
sVPartOfSpeech
p463
VJJ
p464
sVLemma
p465
Vmany
p466
saa(lp467
Vpackages
p468
a(dp469
VNamedEntityTag
p470
g85
sVCharacterOffsetEnd
p471
V109
p472
sVCharacterOffsetBegin
p473
V101
p474
sVPartOfSpeech
p475
VNNS
p476
sVLemma
p477
Vpackage
p478
saa(lp479
Vcould
p480
a(dp481
VNamedEntityTag
p482
g85
sVCharacterOffsetEnd
p483
V115
p484
sVCharacterOffsetBegin
p485
V110
p486
sVPartOfSpeech
p487
VMD
p488
sVLemma
p489
Vcould
p490
saa(lp491
Vshe
p492
a(dp493
VNamedEntityTag
p494
g85
sVCharacterOffsetEnd
p495
V119
p496
sVCharacterOffsetBegin
p497
V116
p498
sVPartOfSpeech
p499
VPRP
p500
sVLemma
p501
Vshe
p502
saa(lp503
Vmake
p504
a(dp505
VNamedEntityTag
p506
g85
sVCharacterOffsetEnd
p507
V124
p508
sVCharacterOffsetBegin
p509
V120
p510
sVPartOfSpeech
p511
VVB
p512
sVLemma
p513
Vmake
p514
saa(lp515
Vif
p516
a(dp517
VNamedEntityTag
p518
g85
sVCharacterOffsetEnd
p519
V127
p520
sVCharacterOffsetBegin
p521
V125
p522
sVPartOfSpeech
p523
VIN
p524
sVLemma
p525
Vif
p526
saa(lp527
Vshe
p528
a(dp529
VNamedEntityTag
p530
g85
sVCharacterOffsetEnd
p531
V131
p532
sVCharacterOffsetBegin
p533
V128
p534
sVPartOfSpeech
p535
VPRP
p536
sVLemma
p537
Vshe
p538
saa(lp539
Vput
p540
a(dp541
VNamedEntityTag
p542
g85
sVCharacterOffsetEnd
p543
V135
p544
sVCharacterOffsetBegin
p545
V132
p546
sVPartOfSpeech
p547
VVBD
p548
sVLemma
p549
Vput
p550
saa(lp551
g311
a(dp552
VNormalizedNamedEntityTag
p553
V2.0
p554
sVLemma
p555
g311
sVCharacterOffsetEnd
p556
V137
p557
sVPartOfSpeech
p558
VCD
p559
sVCharacterOffsetBegin
p560
V136
p561
sVNamedEntityTag
p562
VNUMBER
p563
saa(lp564
Vcupcake
p565
a(dp566
VNamedEntityTag
p567
g85
sVCharacterOffsetEnd
p568
V145
p569
sVCharacterOffsetBegin
p570
V138
p571
sVPartOfSpeech
p572
VNN
p573
sVLemma
p574
Vcupcake
p575
saa(lp576
Vin
p577
a(dp578
VNamedEntityTag
p579
g85
sVCharacterOffsetEnd
p580
V148
p581
sVCharacterOffsetBegin
p582
V146
p583
sVPartOfSpeech
p584
VIN
p585
sVLemma
p586
Vin
p587
saa(lp588
Veach
p589
a(dp590
VNamedEntityTag
p591
g85
sVCharacterOffsetEnd
p592
V153
p593
sVCharacterOffsetBegin
p594
V149
p595
sVPartOfSpeech
p596
VDT
p597
sVLemma
p598
Veach
p599
saa(lp600
Vpackage
p601
a(dp602
VNamedEntityTag
p603
g85
sVCharacterOffsetEnd
p604
V161
p605
sVCharacterOffsetBegin
p606
V154
p607
sVPartOfSpeech
p608
VNN
p609
sVLemma
p610
Vpackage
p611
saa(lp612
V?
p613
a(dp614
VNamedEntityTag
p615
g85
sVCharacterOffsetEnd
p616
V163
p617
sVCharacterOffsetBegin
p618
V162
p619
sVPartOfSpeech
p620
g194
sVLemma
p621
g613
saasVindexeddependencies
p622
(lp623
(lp624
Vroot
p625
aVROOT-0
p626
aVate-7
p627
aa(lp628
Vmark
p629
aVate-7
p630
aVIf-1
p631
aa(lp632
Vposs
p633
aVbrother-3
p634
aVher-2
p635
aa(lp636
Vnsubj
p637
aVate-7
p638
aVbrother-3
p639
aa(lp640
Vappos
p641
aVbrother-3
p642
aVTodd-5
p643
aa(lp644
Vdobj
p645
aVate-7
p646
aV8-8
p647
aa(lp648
Vprep_of
p649
aVate-7
p650
aVthem-10
p651
aa(lp652
Vadvmod
p653
aVmany-12
p654
aVhow-11
p655
aa(lp656
Vamod
p657
aVpackages-13
p658
aVmany-12
p659
aa(lp660
Vdobj
p661
aVmake-16
p662
aVpackages-13
p663
aa(lp664
Vaux
p665
aVmake-16
p666
aVcould-14
p667
aa(lp668
Vnsubj
p669
aVmake-16
p670
aVshe-15
p671
aa(lp672
Vdep
p673
aVate-7
p674
aVmake-16
p675
aa(lp676
Vmark
p677
aVput-19
p678
aVif-17
p679
aa(lp680
Vnsubj
p681
aVput-19
p682
aVshe-18
p683
aa(lp684
Vadvcl
p685
aVmake-16
p686
aVput-19
p687
aa(lp688
Vnum
p689
aVcupcake-21
p690
aV2-20
p691
aa(lp692
Vdobj
p693
aVput-19
p694
aVcupcake-21
p695
aa(lp696
Vdet
p697
aVpackage-24
p698
aVeach-23
p699
aa(lp700
Vprep_in
p701
aVcupcake-21
p702
aVpackage-24
p703
aasas.