(dp0
Vcoref
p1
(lp2
(lp3
(lp4
(lp5
VShe
p6
aI1
aI0
aI0
aI1
aa(lp7
VIsabel
p8
aI0
aI0
aI0
aI1
aaaa(lp9
(lp10
(lp11
Vproblems
p12
aI2
aI14
aI14
aI15
aa(lp13
Vproblems to do
p14
aI1
aI11
aI11
aI14
aaaa(lp15
(lp16
(lp17
Vit
p18
aI2
aI10
aI10
aI11
aa(lp19
Veach page
p20
aI2
aI2
aI1
aI3
aaaasVsentences
p21
(lp22
(dp23
Vparsetree
p24
V(ROOT (S (NP (NNP Isabel)) (VP (VBD had) (NP (CD 72) (NN homework) (NNS problems))) (. .)))
p25
sVtext
p26
VIsabel had 72 homework problems .
p27
sVdependencies
p28
(lp29
(lp30
Vroot
p31
aVROOT
p32
aVhad
p33
aa(lp34
Vnsubj
p35
aVhad
p36
aVIsabel
p37
aa(lp38
Vnum
p39
aVproblems
p40
aV72
p41
aa(lp42
Vnn
p43
aVproblems
p44
aVhomework
p45
aa(lp46
Vdobj
p47
aVhad
p48
aVproblems
p49
aasVwords
p50
(lp51
(lp52
VIsabel
p53
a(dp54
VNamedEntityTag
p55
VPERSON
p56
sVCharacterOffsetEnd
p57
V7
p58
sVCharacterOffsetBegin
p59
V1
p60
sVPartOfSpeech
p61
VNNP
p62
sVLemma
p63
VIsabel
p64
saa(lp65
Vhad
p66
a(dp67
VNamedEntityTag
p68
VO
p69
sVCharacterOffsetEnd
p70
V11
p71
sVCharacterOffsetBegin
p72
V8
p73
sVPartOfSpeech
p74
VVBD
p75
sVLemma
p76
Vhave
p77
saa(lp78
V72
p79
a(dp80
VNormalizedNamedEntityTag
p81
V72.0
p82
sVLemma
p83
V72
p84
sVCharacterOffsetEnd
p85
V14
p86
sVPartOfSpeech
p87
VCD
p88
sVCharacterOffsetBegin
p89
V12
p90
sVNamedEntityTag
p91
VNUMBER
p92
saa(lp93
Vhomework
p94
a(dp95
VNamedEntityTag
p96
g69
sVCharacterOffsetEnd
p97
V23
p98
sVCharacterOffsetBegin
p99
V15
p100
sVPartOfSpeech
p101
VNN
p102
sVLemma
p103
Vhomework
p104
saa(lp105
Vproblems
p106
a(dp107
VNamedEntityTag
p108
g69
sVCharacterOffsetEnd
p109
V32
p110
sVCharacterOffsetBegin
p111
V24
p112
sVPartOfSpeech
p113
VNNS
p114
sVLemma
p115
Vproblem
p116
saa(lp117
V.
p118
a(dp119
VNamedEntityTag
p120
g69
sVCharacterOffsetEnd
p121
V34
p122
sVCharacterOffsetBegin
p123
V33
p124
sVPartOfSpeech
p125
g118
sVLemma
p126
g118
saasVindexeddependencies
p127
(lp128
(lp129
Vroot
p130
aVROOT-0
p131
aVhad-2
p132
aa(lp133
Vnsubj
p134
aVhad-2
p135
aVIsabel-1
p136
aa(lp137
Vnum
p138
aVproblems-5
p139
aV72-3
p140
aa(lp141
Vnn
p142
aVproblems-5
p143
aVhomework-4
p144
aa(lp145
Vdobj
p146
aVhad-2
p147
aVproblems-5
p148
aasa(dp149
Vparsetree
p150
V(ROOT (S (NP (PRP She)) (VP (VP (VBD finished) (NP (NP (CD 32)) (PP (IN of) (NP (PRP them))))) (CC but) (ADVP (RB still)) (VP (VBD had) (NP (NP (CD 5) (NNS pages)) (PP (IN of) (NP (NNS problems) (S (VP (TO to) (VP (VB do))))))))) (. .)))
p151
sVtext
p152
VShe finished 32 of them but still had 5 pages of problems to do .
p153
sVdependencies
p154
(lp155
(lp156
Vroot
p157
aVROOT
p158
aVfinished
p159
aa(lp160
Vnsubj
p161
aVfinished
p162
aVShe
p163
aa(lp164
Vdobj
p165
aVfinished
p166
aV32
p167
aa(lp168
Vprep_of
p169
aV32
p170
aVthem
p171
aa(lp172
Vadvmod
p173
aVhad
p174
aVstill
p175
aa(lp176
Vconj_but
p177
aVfinished
p178
aVhad
p179
aa(lp180
Vnum
p181
aVpages
p182
aV5
p183
aa(lp184
Vdobj
p185
aVhad
p186
aVpages
p187
aa(lp188
Vprep_of
p189
aVpages
p190
aVproblems
p191
aa(lp192
Vaux
p193
aVdo
p194
aVto
p195
aa(lp196
Vvmod
p197
aVproblems
p198
aVdo
p199
aasVwords
p200
(lp201
(lp202
VShe
p203
a(dp204
VNamedEntityTag
p205
g69
sVCharacterOffsetEnd
p206
V38
p207
sVCharacterOffsetBegin
p208
V35
p209
sVPartOfSpeech
p210
VPRP
p211
sVLemma
p212
Vshe
p213
saa(lp214
Vfinished
p215
a(dp216
VNamedEntityTag
p217
g69
sVCharacterOffsetEnd
p218
V47
p219
sVCharacterOffsetBegin
p220
V39
p221
sVPartOfSpeech
p222
VVBD
p223
sVLemma
p224
Vfinish
p225
saa(lp226
V32
p227
a(dp228
VNormalizedNamedEntityTag
p229
V32.0
p230
sVLemma
p231
V32
p232
sVCharacterOffsetEnd
p233
V50
p234
sVPartOfSpeech
p235
VCD
p236
sVCharacterOffsetBegin
p237
V48
p238
sVNamedEntityTag
p239
VNUMBER
p240
saa(lp241
Vof
p242
a(dp243
VNamedEntityTag
p244
g69
sVCharacterOffsetEnd
p245
V53
p246
sVCharacterOffsetBegin
p247
V51
p248
sVPartOfSpeech
p249
VIN
p250
sVLemma
p251
Vof
p252
saa(lp253
Vthem
p254
a(dp255
VNamedEntityTag
p256
g69
sVCharacterOffsetEnd
p257
V58
p258
sVCharacterOffsetBegin
p259
V54
p260
sVPartOfSpeech
p261
VPRP
p262
sVLemma
p263
Vthey
p264
saa(lp265
Vbut
p266
a(dp267
VNamedEntityTag
p268
g69
sVCharacterOffsetEnd
p269
V62
p270
sVCharacterOffsetBegin
p271
V59
p272
sVPartOfSpeech
p273
VCC
p274
sVLemma
p275
Vbut
p276
saa(lp277
Vstill
p278
a(dp279
VNamedEntityTag
p280
g69
sVCharacterOffsetEnd
p281
V68
p282
sVCharacterOffsetBegin
p283
V63
p284
sVPartOfSpeech
p285
VRB
p286
sVLemma
p287
Vstill
p288
saa(lp289
Vhad
p290
a(dp291
VNamedEntityTag
p292
g69
sVCharacterOffsetEnd
p293
V72
p294
sVCharacterOffsetBegin
p295
V69
p296
sVPartOfSpeech
p297
VVBD
p298
sVLemma
p299
Vhave
p300
saa(lp301
g183
a(dp302
VNormalizedNamedEntityTag
p303
V5.0
p304
sVLemma
p305
g183
sVCharacterOffsetEnd
p306
V74
p307
sVPartOfSpeech
p308
VCD
p309
sVCharacterOffsetBegin
p310
V73
p311
sVNamedEntityTag
p312
VNUMBER
p313
saa(lp314
Vpages
p315
a(dp316
VNamedEntityTag
p317
g69
sVCharacterOffsetEnd
p318
V80
p319
sVCharacterOffsetBegin
p320
V75
p321
sVPartOfSpeech
p322
VNNS
p323
sVLemma
p324
Vpage
p325
saa(lp326
Vof
p327
a(dp328
VNamedEntityTag
p329
g69
sVCharacterOffsetEnd
p330
V83
p331
sVCharacterOffsetBegin
p332
V81
p333
sVPartOfSpeech
p334
VIN
p335
sVLemma
p336
Vof
p337
saa(lp338
Vproblems
p339
a(dp340
VNamedEntityTag
p341
g69
sVCharacterOffsetEnd
p342
V92
p343
sVCharacterOffsetBegin
p344
V84
p345
sVPartOfSpeech
p346
VNNS
p347
sVLemma
p348
Vproblem
p349
saa(lp350
Vto
p351
a(dp352
VNamedEntityTag
p353
g69
sVCharacterOffsetEnd
p354
V95
p355
sVCharacterOffsetBegin
p356
V93
p357
sVPartOfSpeech
p358
VTO
p359
sVLemma
p360
Vto
p361
saa(lp362
Vdo
p363
a(dp364
VNamedEntityTag
p365
g69
sVCharacterOffsetEnd
p366
V98
p367
sVCharacterOffsetBegin
p368
V96
p369
sVPartOfSpeech
p370
VVB
p371
sVLemma
p372
Vdo
p373
saa(lp374
g118
a(dp375
VNamedEntityTag
p376
g69
sVCharacterOffsetEnd
p377
V100
p378
sVCharacterOffsetBegin
p379
V99
p380
sVPartOfSpeech
p381
g118
sVLemma
p382
g118
saasVindexeddependencies
p383
(lp384
(lp385
Vroot
p386
aVROOT-0
p387
aVfinished-2
p388
aa(lp389
Vnsubj
p390
aVfinished-2
p391
aVShe-1
p392
aa(lp393
Vdobj
p394
aVfinished-2
p395
aV32-3
p396
aa(lp397
Vprep_of
p398
aV32-3
p399
aVthem-5
p400
aa(lp401
Vadvmod
p402
aVhad-8
p403
aVstill-7
p404
aa(lp405
Vconj_but
p406
aVfinished-2
p407
aVhad-8
p408
aa(lp409
Vnum
p410
aVpages-10
p411
aV5-9
p412
aa(lp413
Vdobj
p414
aVhad-8
p415
aVpages-10
p416
aa(lp417
Vprep_of
p418
aVpages-10
p419
aVproblems-12
p420
aa(lp421
Vaux
p422
aVdo-14
p423
aVto-13
p424
aa(lp425
Vvmod
p426
aVproblems-12
p427
aVdo-14
p428
aasa(dp429
Vparsetree
p430
V(ROOT (SBAR (SBAR (IN If) (S (NP (DT each) (NN page)) (VP (VBZ has) (NP (NP (DT the) (JJ same) (NN number)) (PP (IN of) (NP (NP (NNS problems)) (PP (IN on) (NP (PRP it))))))))) (, ,) (SBAR (WHADJP (WRB how) (JJ many)) (S (NP (NNS problems)) (VP (VBP are) (PP (IN on) (NP (DT each) (NN page))))) (. ?))))
p431
sVtext
p432
VIf each page has the same number of problems on it , how many problems are on each page ?
p433
sVdependencies
p434
(lp435
(lp436
Vroot
p437
aVROOT
p438
aVhas
p439
aa(lp440
Vmark
p441
aVhas
p442
aVIf
p443
aa(lp444
Vdet
p445
aVpage
p446
aVeach
p447
aa(lp448
Vnsubj
p449
aVhas
p450
aVpage
p451
aa(lp452
Vdet
p453
aVnumber
p454
aVthe
p455
aa(lp456
Vamod
p457
aVnumber
p458
aVsame
p459
aa(lp460
Vdobj
p461
aVhas
p462
aVnumber
p463
aa(lp464
Vprep_of
p465
aVnumber
p466
aVproblems
p467
aa(lp468
Vprep_on
p469
aVproblems
p470
aVit
p471
aa(lp472
Vadvmod
p473
aVmany
p474
aVhow
p475
aa(lp476
Vdep
p477
aVare
p478
aVmany
p479
aa(lp480
Vnsubj
p481
aVare
p482
aVproblems
p483
aa(lp484
Vdep
p485
aVhas
p486
aVare
p487
aa(lp488
Vdet
p489
aVpage
p490
aVeach
p491
aa(lp492
Vprep_on
p493
aVare
p494
aVpage
p495
aasVwords
p496
(lp497
(lp498
VIf
p499
a(dp500
VNamedEntityTag
p501
g69
sVCharacterOffsetEnd
p502
V103
p503
sVCharacterOffsetBegin
p504
V101
p505
sVPartOfSpeech
p506
VIN
p507
sVLemma
p508
Vif
p509
saa(lp510
Veach
p511
a(dp512
VNamedEntityTag
p513
g69
sVCharacterOffsetEnd
p514
V108
p515
sVCharacterOffsetBegin
p516
V104
p517
sVPartOfSpeech
p518
VDT
p519
sVLemma
p520
Veach
p521
saa(lp522
Vpage
p523
a(dp524
VNamedEntityTag
p525
g69
sVCharacterOffsetEnd
p526
V113
p527
sVCharacterOffsetBegin
p528
V109
p529
sVPartOfSpeech
p530
VNN
p531
sVLemma
p532
Vpage
p533
saa(lp534
Vhas
p535
a(dp536
VNamedEntityTag
p537
g69
sVCharacterOffsetEnd
p538
V117
p539
sVCharacterOffsetBegin
p540
V114
p541
sVPartOfSpeech
p542
VVBZ
p543
sVLemma
p544
Vhave
p545
saa(lp546
Vthe
p547
a(dp548
VNamedEntityTag
p549
g69
sVCharacterOffsetEnd
p550
V121
p551
sVCharacterOffsetBegin
p552
V118
p553
sVPartOfSpeech
p554
VDT
p555
sVLemma
p556
Vthe
p557
saa(lp558
Vsame
p559
a(dp560
VNamedEntityTag
p561
g69
sVCharacterOffsetEnd
p562
V126
p563
sVCharacterOffsetBegin
p564
V122
p565
sVPartOfSpeech
p566
VJJ
p567
sVLemma
p568
Vsame
p569
saa(lp570
Vnumber
p571
a(dp572
VNamedEntityTag
p573
g69
sVCharacterOffsetEnd
p574
V133
p575
sVCharacterOffsetBegin
p576
V127
p577
sVPartOfSpeech
p578
VNN
p579
sVLemma
p580
Vnumber
p581
saa(lp582
Vof
p583
a(dp584
VNamedEntityTag
p585
g69
sVCharacterOffsetEnd
p586
V136
p587
sVCharacterOffsetBegin
p588
V134
p589
sVPartOfSpeech
p590
VIN
p591
sVLemma
p592
Vof
p593
saa(lp594
Vproblems
p595
a(dp596
VNamedEntityTag
p597
g69
sVCharacterOffsetEnd
p598
V145
p599
sVCharacterOffsetBegin
p600
V137
p601
sVPartOfSpeech
p602
VNNS
p603
sVLemma
p604
Vproblem
p605
saa(lp606
Von
p607
a(dp608
VNamedEntityTag
p609
g69
sVCharacterOffsetEnd
p610
V148
p611
sVCharacterOffsetBegin
p612
V146
p613
sVPartOfSpeech
p614
VIN
p615
sVLemma
p616
Von
p617
saa(lp618
Vit
p619
a(dp620
VNamedEntityTag
p621
g69
sVCharacterOffsetEnd
p622
V151
p623
sVCharacterOffsetBegin
p624
V149
p625
sVPartOfSpeech
p626
VPRP
p627
sVLemma
p628
Vit
p629
saa(lp630
V,
p631
a(dp632
VNamedEntityTag
p633
g69
sVCharacterOffsetEnd
p634
V153
p635
sVCharacterOffsetBegin
p636
V152
p637
sVPartOfSpeech
p638
g631
sVLemma
p639
g631
saa(lp640
Vhow
p641
a(dp642
VNamedEntityTag
p643
g69
sVCharacterOffsetEnd
p644
V157
p645
sVCharacterOffsetBegin
p646
V154
p647
sVPartOfSpeech
p648
VWRB
p649
sVLemma
p650
Vhow
p651
saa(lp652
Vmany
p653
a(dp654
VNamedEntityTag
p655
g69
sVCharacterOffsetEnd
p656
V162
p657
sVCharacterOffsetBegin
p658
V158
p659
sVPartOfSpeech
p660
VJJ
p661
sVLemma
p662
Vmany
p663
saa(lp664
Vproblems
p665
a(dp666
VNamedEntityTag
p667
g69
sVCharacterOffsetEnd
p668
V171
p669
sVCharacterOffsetBegin
p670
V163
p671
sVPartOfSpeech
p672
VNNS
p673
sVLemma
p674
Vproblem
p675
saa(lp676
Vare
p677
a(dp678
VNamedEntityTag
p679
g69
sVCharacterOffsetEnd
p680
V175
p681
sVCharacterOffsetBegin
p682
V172
p683
sVPartOfSpeech
p684
VVBP
p685
sVLemma
p686
Vbe
p687
saa(lp688
Von
p689
a(dp690
VNamedEntityTag
p691
g69
sVCharacterOffsetEnd
p692
V178
p693
sVCharacterOffsetBegin
p694
V176
p695
sVPartOfSpeech
p696
VIN
p697
sVLemma
p698
Von
p699
saa(lp700
Veach
p701
a(dp702
VNamedEntityTag
p703
g69
sVCharacterOffsetEnd
p704
V183
p705
sVCharacterOffsetBegin
p706
V179
p707
sVPartOfSpeech
p708
VDT
p709
sVLemma
p710
Veach
p711
saa(lp712
Vpage
p713
a(dp714
VNamedEntityTag
p715
g69
sVCharacterOffsetEnd
p716
V188
p717
sVCharacterOffsetBegin
p718
V184
p719
sVPartOfSpeech
p720
VNN
p721
sVLemma
p722
Vpage
p723
saa(lp724
V?
p725
a(dp726
VNamedEntityTag
p727
g69
sVCharacterOffsetEnd
p728
V190
p729
sVCharacterOffsetBegin
p730
V189
p731
sVPartOfSpeech
p732
g118
sVLemma
p733
g725
saasVindexeddependencies
p734
(lp735
(lp736
Vroot
p737
aVROOT-0
p738
aVhas-4
p739
aa(lp740
Vmark
p741
aVhas-4
p742
aVIf-1
p743
aa(lp744
Vdet
p745
aVpage-3
p746
aVeach-2
p747
aa(lp748
Vnsubj
p749
aVhas-4
p750
aVpage-3
p751
aa(lp752
Vdet
p753
aVnumber-7
p754
aVthe-5
p755
aa(lp756
Vamod
p757
aVnumber-7
p758
aVsame-6
p759
aa(lp760
Vdobj
p761
aVhas-4
p762
aVnumber-7
p763
aa(lp764
Vprep_of
p765
aVnumber-7
p766
aVproblems-9
p767
aa(lp768
Vprep_on
p769
aVproblems-9
p770
aVit-11
p771
aa(lp772
Vadvmod
p773
aVmany-14
p774
aVhow-13
p775
aa(lp776
Vdep
p777
aVare-16
p778
aVmany-14
p779
aa(lp780
Vnsubj
p781
aVare-16
p782
aVproblems-15
p783
aa(lp784
Vdep
p785
aVhas-4
p786
aVare-16
p787
aa(lp788
Vdet
p789
aVpage-19
p790
aVeach-18
p791
aa(lp792
Vprep_on
p793
aVare-16
p794
aVpage-19
p795
aasas.