(dp0
Vcoref
p1
(lp2
(lp3
(lp4
(lp5
Vthey
p6
aI2
aI11
aI11
aI12
aa(lp7
Vthey
p8
aI1
aI2
aI2
aI3
aaaasVsentences
p9
(lp10
(dp11
Vparsetree
p12
V(ROOT (S (NP (DT The) (NN cafeteria)) (VP (VBD had) (NP (CD 62) (NNS apples))) (. .)))
p13
sVtext
p14
VThe cafeteria had 62 apples .
p15
sVdependencies
p16
(lp17
(lp18
Vroot
p19
aVROOT
p20
aVhad
p21
aa(lp22
Vdet
p23
aVcafeteria
p24
aVThe
p25
aa(lp26
Vnsubj
p27
aVhad
p28
aVcafeteria
p29
aa(lp30
Vnum
p31
aVapples
p32
aV62
p33
aa(lp34
Vdobj
p35
aVhad
p36
aVapples
p37
aasVwords
p38
(lp39
(lp40
VThe
p41
a(dp42
VNamedEntityTag
p43
VO
p44
sVCharacterOffsetEnd
p45
V4
p46
sVCharacterOffsetBegin
p47
V1
p48
sVPartOfSpeech
p49
VDT
p50
sVLemma
p51
Vthe
p52
saa(lp53
Vcafeteria
p54
a(dp55
VNamedEntityTag
p56
g44
sVCharacterOffsetEnd
p57
V14
p58
sVCharacterOffsetBegin
p59
V5
p60
sVPartOfSpeech
p61
VNN
p62
sVLemma
p63
Vcafeteria
p64
saa(lp65
Vhad
p66
a(dp67
VNamedEntityTag
p68
g44
sVCharacterOffsetEnd
p69
V18
p70
sVCharacterOffsetBegin
p71
V15
p72
sVPartOfSpeech
p73
VVBD
p74
sVLemma
p75
Vhave
p76
saa(lp77
V62
p78
a(dp79
VNormalizedNamedEntityTag
p80
V62.0
p81
sVLemma
p82
V62
p83
sVCharacterOffsetEnd
p84
V21
p85
sVPartOfSpeech
p86
VCD
p87
sVCharacterOffsetBegin
p88
V19
p89
sVNamedEntityTag
p90
VNUMBER
p91
saa(lp92
Vapples
p93
a(dp94
VNamedEntityTag
p95
g44
sVCharacterOffsetEnd
p96
V28
p97
sVCharacterOffsetBegin
p98
V22
p99
sVPartOfSpeech
p100
VNNS
p101
sVLemma
p102
Vapple
p103
saa(lp104
V.
p105
a(dp106
VNamedEntityTag
p107
g44
sVCharacterOffsetEnd
p108
V30
p109
sVCharacterOffsetBegin
p110
V29
p111
sVPartOfSpeech
p112
g105
sVLemma
p113
g105
saasVindexeddependencies
p114
(lp115
(lp116
Vroot
p117
aVROOT-0
p118
aVhad-3
p119
aa(lp120
Vdet
p121
aVcafeteria-2
p122
aVThe-1
p123
aa(lp124
Vnsubj
p125
aVhad-3
p126
aVcafeteria-2
p127
aa(lp128
Vnum
p129
aVapples-5
p130
aV62-4
p131
aa(lp132
Vdobj
p133
aVhad-3
p134
aVapples-5
p135
aasa(dp136
Vparsetree
p137
V(ROOT (S (PP (IN For) (NP (NN lunch))) (NP (PRP they)) (VP (VP (VBD handed) (PRT (RP out)) (NP (CD 8)) (PP (TO to) (NP (NNS students)))) (CC and) (VP (VBD decided) (S (VP (TO to) (VP (VB use) (NP (DT the) (NN rest) (S (VP (TO to) (VP (VB make) (NP (NNS pies))))))))))) (. .)))
p138
sVtext
p139
VFor lunch they handed out 8 to students and decided to use the rest to make pies .
p140
sVdependencies
p141
(lp142
(lp143
Vroot
p144
aVROOT
p145
aVhanded
p146
aa(lp147
Vprep_for
p148
aVhanded
p149
aVlunch
p150
aa(lp151
Vnsubj
p152
aVhanded
p153
aVthey
p154
aa(lp155
Vprt
p156
aVhanded
p157
aVout
p158
aa(lp159
Vdobj
p160
aVhanded
p161
aV8
p162
aa(lp163
Vprep_to
p164
aVhanded
p165
aVstudents
p166
aa(lp167
Vconj_and
p168
aVhanded
p169
aVdecided
p170
aa(lp171
Vaux
p172
aVuse
p173
aVto
p174
aa(lp175
Vxcomp
p176
aVdecided
p177
aVuse
p178
aa(lp179
Vdet
p180
aVrest
p181
aVthe
p182
aa(lp183
Vdobj
p184
aVuse
p185
aVrest
p186
aa(lp187
Vaux
p188
aVmake
p189
aVto
p190
aa(lp191
Vvmod
p192
aVrest
p193
aVmake
p194
aa(lp195
Vdobj
p196
aVmake
p197
aVpies
p198
aasVwords
p199
(lp200
(lp201
VFor
p202
a(dp203
VNamedEntityTag
p204
g44
sVCharacterOffsetEnd
p205
V34
p206
sVCharacterOffsetBegin
p207
V31
p208
sVPartOfSpeech
p209
VIN
p210
sVLemma
p211
Vfor
p212
saa(lp213
Vlunch
p214
a(dp215
VNamedEntityTag
p216
g44
sVCharacterOffsetEnd
p217
V40
p218
sVCharacterOffsetBegin
p219
V35
p220
sVPartOfSpeech
p221
VNN
p222
sVLemma
p223
Vlunch
p224
saa(lp225
Vthey
p226
a(dp227
VNamedEntityTag
p228
g44
sVCharacterOffsetEnd
p229
V45
p230
sVCharacterOffsetBegin
p231
V41
p232
sVPartOfSpeech
p233
VPRP
p234
sVLemma
p235
Vthey
p236
saa(lp237
Vhanded
p238
a(dp239
VNamedEntityTag
p240
g44
sVCharacterOffsetEnd
p241
V52
p242
sVCharacterOffsetBegin
p243
V46
p244
sVPartOfSpeech
p245
VVBD
p246
sVLemma
p247
Vhand
p248
saa(lp249
Vout
p250
a(dp251
VNamedEntityTag
p252
g44
sVCharacterOffsetEnd
p253
V56
p254
sVCharacterOffsetBegin
p255
V53
p256
sVPartOfSpeech
p257
VRP
p258
sVLemma
p259
Vout
p260
saa(lp261
g162
a(dp262
VNormalizedNamedEntityTag
p263
V8.0
p264
sVLemma
p265
g162
sVCharacterOffsetEnd
p266
V58
p267
sVPartOfSpeech
p268
VCD
p269
sVCharacterOffsetBegin
p270
V57
p271
sVNamedEntityTag
p272
VNUMBER
p273
saa(lp274
Vto
p275
a(dp276
VNamedEntityTag
p277
g44
sVCharacterOffsetEnd
p278
V61
p279
sVCharacterOffsetBegin
p280
V59
p281
sVPartOfSpeech
p282
VTO
p283
sVLemma
p284
Vto
p285
saa(lp286
Vstudents
p287
a(dp288
VNamedEntityTag
p289
g44
sVCharacterOffsetEnd
p290
V70
p291
sVCharacterOffsetBegin
p292
V62
p293
sVPartOfSpeech
p294
VNNS
p295
sVLemma
p296
Vstudent
p297
saa(lp298
Vand
p299
a(dp300
VNamedEntityTag
p301
g44
sVCharacterOffsetEnd
p302
V74
p303
sVCharacterOffsetBegin
p304
V71
p305
sVPartOfSpeech
p306
VCC
p307
sVLemma
p308
Vand
p309
saa(lp310
Vdecided
p311
a(dp312
VNamedEntityTag
p313
g44
sVCharacterOffsetEnd
p314
V82
p315
sVCharacterOffsetBegin
p316
V75
p317
sVPartOfSpeech
p318
VVBD
p319
sVLemma
p320
Vdecide
p321
saa(lp322
Vto
p323
a(dp324
VNamedEntityTag
p325
g44
sVCharacterOffsetEnd
p326
V85
p327
sVCharacterOffsetBegin
p328
V83
p329
sVPartOfSpeech
p330
VTO
p331
sVLemma
p332
Vto
p333
saa(lp334
Vuse
p335
a(dp336
VNamedEntityTag
p337
g44
sVCharacterOffsetEnd
p338
V89
p339
sVCharacterOffsetBegin
p340
V86
p341
sVPartOfSpeech
p342
VVB
p343
sVLemma
p344
Vuse
p345
saa(lp346
Vthe
p347
a(dp348
VNamedEntityTag
p349
g44
sVCharacterOffsetEnd
p350
V93
p351
sVCharacterOffsetBegin
p352
V90
p353
sVPartOfSpeech
p354
VDT
p355
sVLemma
p356
Vthe
p357
saa(lp358
Vrest
p359
a(dp360
VNamedEntityTag
p361
g44
sVCharacterOffsetEnd
p362
V98
p363
sVCharacterOffsetBegin
p364
V94
p365
sVPartOfSpeech
p366
VNN
p367
sVLemma
p368
Vrest
p369
saa(lp370
Vto
p371
a(dp372
VNamedEntityTag
p373
g44
sVCharacterOffsetEnd
p374
V101
p375
sVCharacterOffsetBegin
p376
V99
p377
sVPartOfSpeech
p378
VTO
p379
sVLemma
p380
Vto
p381
saa(lp382
Vmake
p383
a(dp384
VNamedEntityTag
p385
g44
sVCharacterOffsetEnd
p386
V106
p387
sVCharacterOffsetBegin
p388
V102
p389
sVPartOfSpeech
p390
VVB
p391
sVLemma
p392
Vmake
p393
saa(lp394
Vpies
p395
a(dp396
VNamedEntityTag
p397
g44
sVCharacterOffsetEnd
p398
V111
p399
sVCharacterOffsetBegin
p400
V107
p401
sVPartOfSpeech
p402
VNNS
p403
sVLemma
p404
Vpie
p405
saa(lp406
g105
a(dp407
VNamedEntityTag
p408
g44
sVCharacterOffsetEnd
p409
V113
p410
sVCharacterOffsetBegin
p411
V112
p412
sVPartOfSpeech
p413
g105
sVLemma
p414
g105
saasVindexeddependencies
p415
(lp416
(lp417
Vroot
p418
aVROOT-0
p419
aVhanded-4
p420
aa(lp421
Vprep_for
p422
aVhanded-4
p423
aVlunch-2
p424
aa(lp425
Vnsubj
p426
aVhanded-4
p427
aVthey-3
p428
aa(lp429
Vprt
p430
aVhanded-4
p431
aVout-5
p432
aa(lp433
Vdobj
p434
aVhanded-4
p435
aV8-6
p436
aa(lp437
Vprep_to
p438
aVhanded-4
p439
aVstudents-8
p440
aa(lp441
Vconj_and
p442
aVhanded-4
p443
aVdecided-10
p444
aa(lp445
Vaux
p446
aVuse-12
p447
aVto-11
p448
aa(lp449
Vxcomp
p450
aVdecided-10
p451
aVuse-12
p452
aa(lp453
Vdet
p454
aVrest-14
p455
aVthe-13
p456
aa(lp457
Vdobj
p458
aVuse-12
p459
aVrest-14
p460
aa(lp461
Vaux
p462
aVmake-16
p463
aVto-15
p464
aa(lp465
Vvmod
p466
aVrest-14
p467
aVmake-16
p468
aa(lp469
Vdobj
p470
aVmake-16
p471
aVpies-17
p472
aasa(dp473
Vparsetree
p474
V(ROOT (SBARQ (SBAR (IN If) (S (NP (DT each) (NN pie)) (VP (VBZ takes) (NP (CD 9) (NNS apples))))) (, ,) (WHNP (WHADJP (WRB how) (JJ many)) (NNS pies)) (SQ (MD could) (NP (PRP they)) (VP (VB make))) (. ?)))
p475
sVtext
p476
VIf each pie takes 9 apples , how many pies could they make ?
p477
sVdependencies
p478
(lp479
(lp480
Vroot
p481
aVROOT
p482
aVmake
p483
aa(lp484
Vmark
p485
aVtakes
p486
aVIf
p487
aa(lp488
Vdet
p489
aVpie
p490
aVeach
p491
aa(lp492
Vnsubj
p493
aVtakes
p494
aVpie
p495
aa(lp496
Vadvcl
p497
aVmake
p498
aVtakes
p499
aa(lp500
Vnum
p501
aVapples
p502
aV9
p503
aa(lp504
Vdobj
p505
aVtakes
p506
aVapples
p507
aa(lp508
Vadvmod
p509
aVmany
p510
aVhow
p511
aa(lp512
Vamod
p513
aVpies
p514
aVmany
p515
aa(lp516
Vdobj
p517
aVmake
p518
aVpies
p519
aa(lp520
Vaux
p521
aVmake
p522
aVcould
p523
aa(lp524
Vnsubj
p525
aVmake
p526
aVthey
p527
aasVwords
p528
(lp529
(lp530
VIf
p531
a(dp532
VNamedEntityTag
p533
g44
sVCharacterOffsetEnd
p534
V116
p535
sVCharacterOffsetBegin
p536
V114
p537
sVPartOfSpeech
p538
VIN
p539
sVLemma
p540
Vif
p541
saa(lp542
Veach
p543
a(dp544
VNamedEntityTag
p545
g44
sVCharacterOffsetEnd
p546
V121
p547
sVCharacterOffsetBegin
p548
V117
p549
sVPartOfSpeech
p550
VDT
p551
sVLemma
p552
Veach
p553
saa(lp554
Vpie
p555
a(dp556
VNamedEntityTag
p557
g44
sVCharacterOffsetEnd
p558
V125
p559
sVCharacterOffsetBegin
p560
V122
p561
sVPartOfSpeech
p562
VNN
p563
sVLemma
p564
Vpie
p565
saa(lp566
Vtakes
p567
a(dp568
VNamedEntityTag
p569
g44
sVCharacterOffsetEnd
p570
V131
p571
sVCharacterOffsetBegin
p572
V126
p573
sVPartOfSpeech
p574
VVBZ
p575
sVLemma
p576
Vtake
p577
saa(lp578
g503
a(dp579
VNormalizedNamedEntityTag
p580
V9.0
p581
sVLemma
p582
g503
sVCharacterOffsetEnd
p583
V133
p584
sVPartOfSpeech
p585
VCD
p586
sVCharacterOffsetBegin
p587
V132
p588
sVNamedEntityTag
p589
VNUMBER
p590
saa(lp591
Vapples
p592
a(dp593
VNamedEntityTag
p594
g44
sVCharacterOffsetEnd
p595
V140
p596
sVCharacterOffsetBegin
p597
V134
p598
sVPartOfSpeech
p599
VNNS
p600
sVLemma
p601
Vapple
p602
saa(lp603
V,
p604
a(dp605
VNamedEntityTag
p606
g44
sVCharacterOffsetEnd
p607
V142
p608
sVCharacterOffsetBegin
p609
V141
p610
sVPartOfSpeech
p611
g604
sVLemma
p612
g604
saa(lp613
Vhow
p614
a(dp615
VNamedEntityTag
p616
g44
sVCharacterOffsetEnd
p617
V146
p618
sVCharacterOffsetBegin
p619
V143
p620
sVPartOfSpeech
p621
VWRB
p622
sVLemma
p623
Vhow
p624
saa(lp625
Vmany
p626
a(dp627
VNamedEntityTag
p628
g44
sVCharacterOffsetEnd
p629
V151
p630
sVCharacterOffsetBegin
p631
V147
p632
sVPartOfSpeech
p633
VJJ
p634
sVLemma
p635
Vmany
p636
saa(lp637
Vpies
p638
a(dp639
VNamedEntityTag
p640
g44
sVCharacterOffsetEnd
p641
V156
p642
sVCharacterOffsetBegin
p643
V152
p644
sVPartOfSpeech
p645
VNNS
p646
sVLemma
p647
Vpie
p648
saa(lp649
Vcould
p650
a(dp651
VNamedEntityTag
p652
g44
sVCharacterOffsetEnd
p653
V162
p654
sVCharacterOffsetBegin
p655
V157
p656
sVPartOfSpeech
p657
VMD
p658
sVLemma
p659
Vcould
p660
saa(lp661
Vthey
p662
a(dp663
VNamedEntityTag
p664
g44
sVCharacterOffsetEnd
p665
V167
p666
sVCharacterOffsetBegin
p667
V163
p668
sVPartOfSpeech
p669
VPRP
p670
sVLemma
p671
Vthey
p672
saa(lp673
Vmake
p674
a(dp675
VNamedEntityTag
p676
g44
sVCharacterOffsetEnd
p677
V172
p678
sVCharacterOffsetBegin
p679
V168
p680
sVPartOfSpeech
p681
VVB
p682
sVLemma
p683
Vmake
p684
saa(lp685
V?
p686
a(dp687
VNamedEntityTag
p688
g44
sVCharacterOffsetEnd
p689
V174
p690
sVCharacterOffsetBegin
p691
V173
p692
sVPartOfSpeech
p693
g105
sVLemma
p694
g686
saasVindexeddependencies
p695
(lp696
(lp697
Vroot
p698
aVROOT-0
p699
aVmake-13
p700
aa(lp701
Vmark
p702
aVtakes-4
p703
aVIf-1
p704
aa(lp705
Vdet
p706
aVpie-3
p707
aVeach-2
p708
aa(lp709
Vnsubj
p710
aVtakes-4
p711
aVpie-3
p712
aa(lp713
Vadvcl
p714
aVmake-13
p715
aVtakes-4
p716
aa(lp717
Vnum
p718
aVapples-6
p719
aV9-5
p720
aa(lp721
Vdobj
p722
aVtakes-4
p723
aVapples-6
p724
aa(lp725
Vadvmod
p726
aVmany-9
p727
aVhow-8
p728
aa(lp729
Vamod
p730
aVpies-10
p731
aVmany-9
p732
aa(lp733
Vdobj
p734
aVmake-13
p735
aVpies-10
p736
aa(lp737
Vaux
p738
aVmake-13
p739
aVcould-11
p740
aa(lp741
Vnsubj
p742
aVmake-13
p743
aVthey-12
p744
aasas.