(dp0
Vcoref
p1
(lp2
(lp3
(lp4
(lp5
Vhe
p6
aI2
aI1
aI1
aI2
aa(lp7
VOliver with the rest
p8
aI1
aI17
aI17
aI21
aaa(lp9
(lp10
Vhe
p11
aI2
aI14
aI14
aI15
aa(lp12
VOliver with the rest
p13
aI1
aI17
aI17
aI21
aaaasVsentences
p14
(lp15
(dp16
Vparsetree
p17
V(ROOT (S (NP (NNP Oliver)) (VP (VBZ is) (ADVP (IN at) (NP (DT the) (NN library))) (VP (VBG helping) (S (VP (VB put) (PRT (RP away)) (NP (NNS books)))))) (. .)))
p18
sVtext
p19
VOliver is at the library helping put away books .
p20
sVdependencies
p21
(lp22
(lp23
Vroot
p24
aVROOT
p25
aVhelping
p26
aa(lp27
Vnsubj
p28
aVhelping
p29
aVOliver
p30
aa(lp31
Vaux
p32
aVhelping
p33
aVis
p34
aa(lp35
Vadvmod
p36
aVhelping
p37
aVat
p38
aa(lp39
Vdet
p40
aVlibrary
p41
aVthe
p42
aa(lp43
Vpobj
p44
aVat
p45
aVlibrary
p46
aa(lp47
Vccomp
p48
aVhelping
p49
aVput
p50
aa(lp51
Vprt
p52
aVput
p53
aVaway
p54
aa(lp55
Vdobj
p56
aVput
p57
aVbooks
p58
aasVwords
p59
(lp60
(lp61
VOliver
p62
a(dp63
VNamedEntityTag
p64
VPERSON
p65
sVCharacterOffsetEnd
p66
V7
p67
sVCharacterOffsetBegin
p68
V1
p69
sVPartOfSpeech
p70
VNNP
p71
sVLemma
p72
VOliver
p73
saa(lp74
Vis
p75
a(dp76
VNamedEntityTag
p77
VO
p78
sVCharacterOffsetEnd
p79
V10
p80
sVCharacterOffsetBegin
p81
V8
p82
sVPartOfSpeech
p83
VVBZ
p84
sVLemma
p85
Vbe
p86
saa(lp87
Vat
p88
a(dp89
VNamedEntityTag
p90
g78
sVCharacterOffsetEnd
p91
V13
p92
sVCharacterOffsetBegin
p93
V11
p94
sVPartOfSpeech
p95
VIN
p96
sVLemma
p97
Vat
p98
saa(lp99
Vthe
p100
a(dp101
VNamedEntityTag
p102
g78
sVCharacterOffsetEnd
p103
V17
p104
sVCharacterOffsetBegin
p105
V14
p106
sVPartOfSpeech
p107
VDT
p108
sVLemma
p109
Vthe
p110
saa(lp111
Vlibrary
p112
a(dp113
VNamedEntityTag
p114
g78
sVCharacterOffsetEnd
p115
V25
p116
sVCharacterOffsetBegin
p117
V18
p118
sVPartOfSpeech
p119
VNN
p120
sVLemma
p121
Vlibrary
p122
saa(lp123
Vhelping
p124
a(dp125
VNamedEntityTag
p126
g78
sVCharacterOffsetEnd
p127
V33
p128
sVCharacterOffsetBegin
p129
V26
p130
sVPartOfSpeech
p131
VVBG
p132
sVLemma
p133
Vhelp
p134
saa(lp135
Vput
p136
a(dp137
VNamedEntityTag
p138
g78
sVCharacterOffsetEnd
p139
V37
p140
sVCharacterOffsetBegin
p141
V34
p142
sVPartOfSpeech
p143
VVB
p144
sVLemma
p145
Vput
p146
saa(lp147
Vaway
p148
a(dp149
VNamedEntityTag
p150
g78
sVCharacterOffsetEnd
p151
V42
p152
sVCharacterOffsetBegin
p153
V38
p154
sVPartOfSpeech
p155
VRP
p156
sVLemma
p157
Vaway
p158
saa(lp159
Vbooks
p160
a(dp161
VNamedEntityTag
p162
g78
sVCharacterOffsetEnd
p163
V48
p164
sVCharacterOffsetBegin
p165
V43
p166
sVPartOfSpeech
p167
VNNS
p168
sVLemma
p169
Vbook
p170
saa(lp171
V.
p172
a(dp173
VNamedEntityTag
p174
g78
sVCharacterOffsetEnd
p175
V50
p176
sVCharacterOffsetBegin
p177
V49
p178
sVPartOfSpeech
p179
g172
sVLemma
p180
g172
saasVindexeddependencies
p181
(lp182
(lp183
Vroot
p184
aVROOT-0
p185
aVhelping-6
p186
aa(lp187
Vnsubj
p188
aVhelping-6
p189
aVOliver-1
p190
aa(lp191
Vaux
p192
aVhelping-6
p193
aVis-2
p194
aa(lp195
Vadvmod
p196
aVhelping-6
p197
aVat-3
p198
aa(lp199
Vdet
p200
aVlibrary-5
p201
aVthe-4
p202
aa(lp203
Vpobj
p204
aVat-3
p205
aVlibrary-5
p206
aa(lp207
Vccomp
p208
aVhelping-6
p209
aVput-7
p210
aa(lp211
Vprt
p212
aVput-7
p213
aVaway-8
p214
aa(lp215
Vdobj
p216
aVput-7
p217
aVbooks-9
p218
aasa(dp219
Vparsetree
p220
V(ROOT (S (S (NP (EX There)) (VP (VBP are) (NP (NP (CD 46) (NN book)) (SBAR (S (VP (TO to) (VP (VB put) (PRT (RP away)) (NP (JJ total))))))))) (CC but) (S (NP (DT a) (NN librarian)) (VP (VP (VBZ takes) (NP (NP (CD 10)) (PP (IN of) (NP (PRP them))))) (CC and) (VP (VBZ leaves) (NP (NP (NNP Oliver)) (PP (IN with) (NP (DT the) (NN rest))))))) (. .)))
p221
sVtext
p222
VThere are 46 book to put away total but a librarian takes 10 of them and leaves Oliver with the rest .
p223
sVdependencies
p224
(lp225
(lp226
Vroot
p227
aVROOT
p228
aVare
p229
aa(lp230
Vexpl
p231
aVare
p232
aVThere
p233
aa(lp234
Vnum
p235
aVbook
p236
aV46
p237
aa(lp238
Vnsubj
p239
aVare
p240
aVbook
p241
aa(lp242
Vaux
p243
aVput
p244
aVto
p245
aa(lp246
Vvmod
p247
aVbook
p248
aVput
p249
aa(lp250
Vprt
p251
aVput
p252
aVaway
p253
aa(lp254
Vdobj
p255
aVput
p256
aVtotal
p257
aa(lp258
Vdet
p259
aVlibrarian
p260
aVa
p261
aa(lp262
Vnsubj
p263
aVtakes
p264
aVlibrarian
p265
aa(lp266
Vconj_but
p267
aVare
p268
aVtakes
p269
aa(lp270
Vdobj
p271
aVtakes
p272
aV10
p273
aa(lp274
Vprep_of
p275
aV10
p276
aVthem
p277
aa(lp278
Vconj_and
p279
aVtakes
p280
aVleaves
p281
aa(lp282
Vdobj
p283
aVleaves
p284
aVOliver
p285
aa(lp286
Vdet
p287
aVrest
p288
aVthe
p289
aa(lp290
Vprep_with
p291
aVOliver
p292
aVrest
p293
aasVwords
p294
(lp295
(lp296
VThere
p297
a(dp298
VNamedEntityTag
p299
g78
sVCharacterOffsetEnd
p300
V56
p301
sVCharacterOffsetBegin
p302
V51
p303
sVPartOfSpeech
p304
VEX
p305
sVLemma
p306
Vthere
p307
saa(lp308
Vare
p309
a(dp310
VNamedEntityTag
p311
g78
sVCharacterOffsetEnd
p312
V60
p313
sVCharacterOffsetBegin
p314
V57
p315
sVPartOfSpeech
p316
VVBP
p317
sVLemma
p318
Vbe
p319
saa(lp320
V46
p321
a(dp322
VNormalizedNamedEntityTag
p323
V46.0
p324
sVLemma
p325
V46
p326
sVCharacterOffsetEnd
p327
V63
p328
sVPartOfSpeech
p329
VCD
p330
sVCharacterOffsetBegin
p331
V61
p332
sVNamedEntityTag
p333
VNUMBER
p334
saa(lp335
Vbook
p336
a(dp337
VNamedEntityTag
p338
g78
sVCharacterOffsetEnd
p339
V68
p340
sVCharacterOffsetBegin
p341
V64
p342
sVPartOfSpeech
p343
VNN
p344
sVLemma
p345
Vbook
p346
saa(lp347
Vto
p348
a(dp349
VNamedEntityTag
p350
g78
sVCharacterOffsetEnd
p351
V71
p352
sVCharacterOffsetBegin
p353
V69
p354
sVPartOfSpeech
p355
VTO
p356
sVLemma
p357
Vto
p358
saa(lp359
Vput
p360
a(dp361
VNamedEntityTag
p362
g78
sVCharacterOffsetEnd
p363
V75
p364
sVCharacterOffsetBegin
p365
V72
p366
sVPartOfSpeech
p367
VVB
p368
sVLemma
p369
Vput
p370
saa(lp371
Vaway
p372
a(dp373
VNamedEntityTag
p374
g78
sVCharacterOffsetEnd
p375
V80
p376
sVCharacterOffsetBegin
p377
V76
p378
sVPartOfSpeech
p379
VRP
p380
sVLemma
p381
Vaway
p382
saa(lp383
Vtotal
p384
a(dp385
VNamedEntityTag
p386
g78
sVCharacterOffsetEnd
p387
V86
p388
sVCharacterOffsetBegin
p389
V81
p390
sVPartOfSpeech
p391
VJJ
p392
sVLemma
p393
Vtotal
p394
saa(lp395
Vbut
p396
a(dp397
VNamedEntityTag
p398
g78
sVCharacterOffsetEnd
p399
V90
p400
sVCharacterOffsetBegin
p401
V87
p402
sVPartOfSpeech
p403
VCC
p404
sVLemma
p405
Vbut
p406
saa(lp407
g261
a(dp408
VNamedEntityTag
p409
g78
sVCharacterOffsetEnd
p410
V92
p411
sVCharacterOffsetBegin
p412
V91
p413
sVPartOfSpeech
p414
VDT
p415
sVLemma
p416
g261
saa(lp417
Vlibrarian
p418
a(dp419
VNamedEntityTag
p420
g78
sVCharacterOffsetEnd
p421
V102
p422
sVCharacterOffsetBegin
p423
V93
p424
sVPartOfSpeech
p425
VNN
p426
sVLemma
p427
Vlibrarian
p428
saa(lp429
Vtakes
p430
a(dp431
VNamedEntityTag
p432
g78
sVCharacterOffsetEnd
p433
V108
p434
sVCharacterOffsetBegin
p435
V103
p436
sVPartOfSpeech
p437
VVBZ
p438
sVLemma
p439
Vtake
p440
saa(lp441
V10
p442
a(dp443
VNormalizedNamedEntityTag
p444
V10.0
p445
sVLemma
p446
V10
p447
sVCharacterOffsetEnd
p448
V111
p449
sVPartOfSpeech
p450
VCD
p451
sVCharacterOffsetBegin
p452
V109
p453
sVNamedEntityTag
p454
VNUMBER
p455
saa(lp456
Vof
p457
a(dp458
VNamedEntityTag
p459
g78
sVCharacterOffsetEnd
p460
V114
p461
sVCharacterOffsetBegin
p462
V112
p463
sVPartOfSpeech
p464
VIN
p465
sVLemma
p466
Vof
p467
saa(lp468
Vthem
p469
a(dp470
VNamedEntityTag
p471
g78
sVCharacterOffsetEnd
p472
V119
p473
sVCharacterOffsetBegin
p474
V115
p475
sVPartOfSpeech
p476
VPRP
p477
sVLemma
p478
Vthey
p479
saa(lp480
Vand
p481
a(dp482
VNamedEntityTag
p483
g78
sVCharacterOffsetEnd
p484
V123
p485
sVCharacterOffsetBegin
p486
V120
p487
sVPartOfSpeech
p488
VCC
p489
sVLemma
p490
Vand
p491
saa(lp492
Vleaves
p493
a(dp494
VNamedEntityTag
p495
g78
sVCharacterOffsetEnd
p496
V130
p497
sVCharacterOffsetBegin
p498
V124
p499
sVPartOfSpeech
p500
VVBZ
p501
sVLemma
p502
Vleave
p503
saa(lp504
VOliver
p505
a(dp506
VNamedEntityTag
p507
VPERSON
p508
sVCharacterOffsetEnd
p509
V137
p510
sVCharacterOffsetBegin
p511
V131
p512
sVPartOfSpeech
p513
VNNP
p514
sVLemma
p515
VOliver
p516
saa(lp517
Vwith
p518
a(dp519
VNamedEntityTag
p520
g78
sVCharacterOffsetEnd
p521
V142
p522
sVCharacterOffsetBegin
p523
V138
p524
sVPartOfSpeech
p525
VIN
p526
sVLemma
p527
Vwith
p528
saa(lp529
Vthe
p530
a(dp531
VNamedEntityTag
p532
g78
sVCharacterOffsetEnd
p533
V146
p534
sVCharacterOffsetBegin
p535
V143
p536
sVPartOfSpeech
p537
VDT
p538
sVLemma
p539
Vthe
p540
saa(lp541
Vrest
p542
a(dp543
VNamedEntityTag
p544
g78
sVCharacterOffsetEnd
p545
V151
p546
sVCharacterOffsetBegin
p547
V147
p548
sVPartOfSpeech
p549
VNN
p550
sVLemma
p551
Vrest
p552
saa(lp553
g172
a(dp554
VNamedEntityTag
p555
g78
sVCharacterOffsetEnd
p556
V153
p557
sVCharacterOffsetBegin
p558
V152
p559
sVPartOfSpeech
p560
g172
sVLemma
p561
g172
saasVindexeddependencies
p562
(lp563
(lp564
Vroot
p565
aVROOT-0
p566
aVare-2
p567
aa(lp568
Vexpl
p569
aVare-2
p570
aVThere-1
p571
aa(lp572
Vnum
p573
aVbook-4
p574
aV46-3
p575
aa(lp576
Vnsubj
p577
aVare-2
p578
aVbook-4
p579
aa(lp580
Vaux
p581
aVput-6
p582
aVto-5
p583
aa(lp584
Vvmod
p585
aVbook-4
p586
aVput-6
p587
aa(lp588
Vprt
p589
aVput-6
p590
aVaway-7
p591
aa(lp592
Vdobj
p593
aVput-6
p594
aVtotal-8
p595
aa(lp596
Vdet
p597
aVlibrarian-11
p598
aVa-10
p599
aa(lp600
Vnsubj
p601
aVtakes-12
p602
aVlibrarian-11
p603
aa(lp604
Vconj_but
p605
aVare-2
p606
aVtakes-12
p607
aa(lp608
Vdobj
p609
aVtakes-12
p610
aV10-13
p611
aa(lp612
Vprep_of
p613
aV10-13
p614
aVthem-15
p615
aa(lp616
Vconj_and
p617
aVtakes-12
p618
aVleaves-17
p619
aa(lp620
Vdobj
p621
aVleaves-17
p622
aVOliver-18
p623
aa(lp624
Vdet
p625
aVrest-21
p626
aVthe-20
p627
aa(lp628
Vprep_with
p629
aVOliver-18
p630
aVrest-21
p631
aasa(dp632
Vparsetree
p633
V(ROOT (SBARQ (SBAR (IN If) (S (NP (PRP he)) (VP (MD can) (VP (VB fit) (NP (CD 4) (NNS books)) (PP (IN on) (NP (DT a) (NN shelf))))))) (, ,) (WHNP (WHADJP (WRB how) (JJ many)) (NNS shelves)) (SQ (MD will) (NP (PRP he)) (VP (VB need))) (. ?)))
p634
sVtext
p635
VIf he can fit 4 books on a shelf , how many shelves will he need ?
p636
sVdependencies
p637
(lp638
(lp639
Vroot
p640
aVROOT
p641
aVneed
p642
aa(lp643
Vmark
p644
aVfit
p645
aVIf
p646
aa(lp647
Vnsubj
p648
aVfit
p649
aVhe
p650
aa(lp651
Vaux
p652
aVfit
p653
aVcan
p654
aa(lp655
Vadvcl
p656
aVneed
p657
aVfit
p658
aa(lp659
Vnum
p660
aVbooks
p661
aV4
p662
aa(lp663
Vdobj
p664
aVfit
p665
aVbooks
p666
aa(lp667
Vdet
p668
aVshelf
p669
ag261
aa(lp670
Vprep_on
p671
aVfit
p672
aVshelf
p673
aa(lp674
Vadvmod
p675
aVmany
p676
aVhow
p677
aa(lp678
Vamod
p679
aVshelves
p680
aVmany
p681
aa(lp682
Vdobj
p683
aVneed
p684
aVshelves
p685
aa(lp686
Vaux
p687
aVneed
p688
aVwill
p689
aa(lp690
Vnsubj
p691
aVneed
p692
aVhe
p693
aasVwords
p694
(lp695
(lp696
VIf
p697
a(dp698
VNamedEntityTag
p699
g78
sVCharacterOffsetEnd
p700
V156
p701
sVCharacterOffsetBegin
p702
V154
p703
sVPartOfSpeech
p704
VIN
p705
sVLemma
p706
Vif
p707
saa(lp708
Vhe
p709
a(dp710
VNamedEntityTag
p711
g78
sVCharacterOffsetEnd
p712
V159
p713
sVCharacterOffsetBegin
p714
V157
p715
sVPartOfSpeech
p716
VPRP
p717
sVLemma
p718
Vhe
p719
saa(lp720
Vcan
p721
a(dp722
VNamedEntityTag
p723
g78
sVCharacterOffsetEnd
p724
V163
p725
sVCharacterOffsetBegin
p726
V160
p727
sVPartOfSpeech
p728
VMD
p729
sVLemma
p730
Vcan
p731
saa(lp732
Vfit
p733
a(dp734
VNamedEntityTag
p735
g78
sVCharacterOffsetEnd
p736
V167
p737
sVCharacterOffsetBegin
p738
V164
p739
sVPartOfSpeech
p740
VVB
p741
sVLemma
p742
Vfit
p743
saa(lp744
g662
a(dp745
VNormalizedNamedEntityTag
p746
V4.0
p747
sVLemma
p748
g662
sVCharacterOffsetEnd
p749
V169
p750
sVPartOfSpeech
p751
VCD
p752
sVCharacterOffsetBegin
p753
V168
p754
sVNamedEntityTag
p755
VNUMBER
p756
saa(lp757
Vbooks
p758
a(dp759
VNamedEntityTag
p760
g78
sVCharacterOffsetEnd
p761
V175
p762
sVCharacterOffsetBegin
p763
V170
p764
sVPartOfSpeech
p765
VNNS
p766
sVLemma
p767
Vbook
p768
saa(lp769
Von
p770
a(dp771
VNamedEntityTag
p772
g78
sVCharacterOffsetEnd
p773
V178
p774
sVCharacterOffsetBegin
p775
V176
p776
sVPartOfSpeech
p777
VIN
p778
sVLemma
p779
Von
p780
saa(lp781
g261
a(dp782
VNamedEntityTag
p783
g78
sVCharacterOffsetEnd
p784
V180
p785
sVCharacterOffsetBegin
p786
V179
p787
sVPartOfSpeech
p788
VDT
p789
sVLemma
p790
g261
saa(lp791
Vshelf
p792
a(dp793
VNamedEntityTag
p794
g78
sVCharacterOffsetEnd
p795
V186
p796
sVCharacterOffsetBegin
p797
V181
p798
sVPartOfSpeech
p799
VNN
p800
sVLemma
p801
Vshelf
p802
saa(lp803
V,
p804
a(dp805
VNamedEntityTag
p806
g78
sVCharacterOffsetEnd
p807
V188
p808
sVCharacterOffsetBegin
p809
V187
p810
sVPartOfSpeech
p811
g804
sVLemma
p812
g804
saa(lp813
Vhow
p814
a(dp815
VNamedEntityTag
p816
g78
sVCharacterOffsetEnd
p817
V192
p818
sVCharacterOffsetBegin
p819
V189
p820
sVPartOfSpeech
p821
VWRB
p822
sVLemma
p823
Vhow
p824
saa(lp825
Vmany
p826
a(dp827
VNamedEntityTag
p828
g78
sVCharacterOffsetEnd
p829
V197
p830
sVCharacterOffsetBegin
p831
V193
p832
sVPartOfSpeech
p833
VJJ
p834
sVLemma
p835
Vmany
p836
saa(lp837
Vshelves
p838
a(dp839
VNamedEntityTag
p840
g78
sVCharacterOffsetEnd
p841
V205
p842
sVCharacterOffsetBegin
p843
V198
p844
sVPartOfSpeech
p845
VNNS
p846
sVLemma
p847
Vshelf
p848
saa(lp849
Vwill
p850
a(dp851
VNamedEntityTag
p852
g78
sVCharacterOffsetEnd
p853
V210
p854
sVCharacterOffsetBegin
p855
V206
p856
sVPartOfSpeech
p857
VMD
p858
sVLemma
p859
Vwill
p860
saa(lp861
Vhe
p862
a(dp863
VNamedEntityTag
p864
g78
sVCharacterOffsetEnd
p865
V213
p866
sVCharacterOffsetBegin
p867
V211
p868
sVPartOfSpeech
p869
VPRP
p870
sVLemma
p871
Vhe
p872
saa(lp873
Vneed
p874
a(dp875
VNamedEntityTag
p876
g78
sVCharacterOffsetEnd
p877
V218
p878
sVCharacterOffsetBegin
p879
V214
p880
sVPartOfSpeech
p881
VVB
p882
sVLemma
p883
Vneed
p884
saa(lp885
V?
p886
a(dp887
VNamedEntityTag
p888
g78
sVCharacterOffsetEnd
p889
V220
p890
sVCharacterOffsetBegin
p891
V219
p892
sVPartOfSpeech
p893
g172
sVLemma
p894
g886
saasVindexeddependencies
p895
(lp896
(lp897
Vroot
p898
aVROOT-0
p899
aVneed-16
p900
aa(lp901
Vmark
p902
aVfit-4
p903
aVIf-1
p904
aa(lp905
Vnsubj
p906
aVfit-4
p907
aVhe-2
p908
aa(lp909
Vaux
p910
aVfit-4
p911
aVcan-3
p912
aa(lp913
Vadvcl
p914
aVneed-16
p915
aVfit-4
p916
aa(lp917
Vnum
p918
aVbooks-6
p919
aV4-5
p920
aa(lp921
Vdobj
p922
aVfit-4
p923
aVbooks-6
p924
aa(lp925
Vdet
p926
aVshelf-9
p927
aVa-8
p928
aa(lp929
Vprep_on
p930
aVfit-4
p931
aVshelf-9
p932
aa(lp933
Vadvmod
p934
aVmany-12
p935
aVhow-11
p936
aa(lp937
Vamod
p938
aVshelves-13
p939
aVmany-12
p940
aa(lp941
Vdobj
p942
aVneed-16
p943
aVshelves-13
p944
aa(lp945
Vaux
p946
aVneed-16
p947
aVwill-14
p948
aa(lp949
Vnsubj
p950
aVneed-16
p951
aVhe-15
p952
aasas.