(dp0
Vcoref
p1
(lp2
(lp3
(lp4
(lp5
Vthem
p6
aI1
aI7
aI7
aI8
aa(lp7
Vthey
p8
aI1
aI3
aI3
aI4
aaa(lp9
(lp10
Vthey
p11
aI2
aI4
aI4
aI5
aa(lp12
Vthey
p13
aI1
aI3
aI3
aI4
aaaasVsentences
p14
(lp15
(dp16
Vparsetree
p17
V(ROOT (S (NP (DT A) (JJ pet) (NN store)) (VP (VBD had) (NP (CD 81) (NNS puppies))) (. .)))
p18
sVtext
p19
VA pet store had 81 puppies .
p20
sVdependencies
p21
(lp22
(lp23
Vroot
p24
aVROOT
p25
aVhad
p26
aa(lp27
Vdet
p28
aVstore
p29
aVA
p30
aa(lp31
Vamod
p32
aVstore
p33
aVpet
p34
aa(lp35
Vnsubj
p36
aVhad
p37
aVstore
p38
aa(lp39
Vnum
p40
aVpuppies
p41
aV81
p42
aa(lp43
Vdobj
p44
aVhad
p45
aVpuppies
p46
aasVwords
p47
(lp48
(lp49
g30
a(dp50
VNamedEntityTag
p51
VO
p52
sVCharacterOffsetEnd
p53
V2
p54
sVCharacterOffsetBegin
p55
V1
p56
sVPartOfSpeech
p57
VDT
p58
sVLemma
p59
Va
p60
saa(lp61
Vpet
p62
a(dp63
VNamedEntityTag
p64
g52
sVCharacterOffsetEnd
p65
V6
p66
sVCharacterOffsetBegin
p67
V3
p68
sVPartOfSpeech
p69
VJJ
p70
sVLemma
p71
Vpet
p72
saa(lp73
Vstore
p74
a(dp75
VNamedEntityTag
p76
g52
sVCharacterOffsetEnd
p77
V12
p78
sVCharacterOffsetBegin
p79
V7
p80
sVPartOfSpeech
p81
VNN
p82
sVLemma
p83
Vstore
p84
saa(lp85
Vhad
p86
a(dp87
VNamedEntityTag
p88
g52
sVCharacterOffsetEnd
p89
V16
p90
sVCharacterOffsetBegin
p91
V13
p92
sVPartOfSpeech
p93
VVBD
p94
sVLemma
p95
Vhave
p96
saa(lp97
V81
p98
a(dp99
VNormalizedNamedEntityTag
p100
V81.0
p101
sVLemma
p102
V81
p103
sVCharacterOffsetEnd
p104
V19
p105
sVPartOfSpeech
p106
VCD
p107
sVCharacterOffsetBegin
p108
V17
p109
sVNamedEntityTag
p110
VNUMBER
p111
saa(lp112
Vpuppies
p113
a(dp114
VNamedEntityTag
p115
g52
sVCharacterOffsetEnd
p116
V27
p117
sVCharacterOffsetBegin
p118
V20
p119
sVPartOfSpeech
p120
VNNS
p121
sVLemma
p122
Vpuppy
p123
saa(lp124
V.
p125
a(dp126
VNamedEntityTag
p127
g52
sVCharacterOffsetEnd
p128
V29
p129
sVCharacterOffsetBegin
p130
V28
p131
sVPartOfSpeech
p132
g125
sVLemma
p133
g125
saasVindexeddependencies
p134
(lp135
(lp136
Vroot
p137
aVROOT-0
p138
aVhad-4
p139
aa(lp140
Vdet
p141
aVstore-3
p142
aVA-1
p143
aa(lp144
Vamod
p145
aVstore-3
p146
aVpet-2
p147
aa(lp148
Vnsubj
p149
aVhad-4
p150
aVstore-3
p151
aa(lp152
Vnum
p153
aVpuppies-6
p154
aV81-5
p155
aa(lp156
Vdobj
p157
aVhad-4
p158
aVpuppies-6
p159
aasa(dp160
Vparsetree
p161
V(ROOT (S (PP (IN In) (NP (CD one) (NN day))) (NP (PRP they)) (VP (VP (VBD sold) (NP (NP (CD 41)) (PP (IN of) (NP (PRP them))))) (CC and) (VP (VB put) (NP (DT the) (NN rest)) (PP (IN into) (NP (NP (NNS cages)) (PP (IN with) (NP (CD 8))))) (PP (IN in) (NP (DT each) (NN cage))))) (. .)))
p162
sVtext
p163
VIn one day they sold 41 of them and put the rest into cages with 8 in each cage .
p164
sVdependencies
p165
(lp166
(lp167
Vroot
p168
aVROOT
p169
aVsold
p170
aa(lp171
Vnum
p172
aVday
p173
aVone
p174
aa(lp175
Vprep_in
p176
aVsold
p177
aVday
p178
aa(lp179
Vnsubj
p180
aVsold
p181
aVthey
p182
aa(lp183
Vdobj
p184
aVsold
p185
aV41
p186
aa(lp187
Vprep_of
p188
aV41
p189
aVthem
p190
aa(lp191
Vconj_and
p192
aVsold
p193
aVput
p194
aa(lp195
Vdet
p196
aVrest
p197
aVthe
p198
aa(lp199
Vdobj
p200
aVput
p201
aVrest
p202
aa(lp203
Vprep_into
p204
aVput
p205
aVcages
p206
aa(lp207
Vprep_with
p208
aVcages
p209
aV8
p210
aa(lp211
Vdet
p212
aVcage
p213
aVeach
p214
aa(lp215
Vprep_in
p216
aVput
p217
aVcage
p218
aasVwords
p219
(lp220
(lp221
VIn
p222
a(dp223
VNamedEntityTag
p224
g52
sVCharacterOffsetEnd
p225
V32
p226
sVCharacterOffsetBegin
p227
V30
p228
sVPartOfSpeech
p229
VIN
p230
sVLemma
p231
Vin
p232
saa(lp233
Vone
p234
a(dp235
VNormalizedNamedEntityTag
p236
VP1D
p237
sVTimex
p238
V<TIMEX3 tid="t1" type="DURATION" value="P1D">one day</TIMEX3>
p239
sVLemma
p240
Vone
p241
sVCharacterOffsetEnd
p242
V36
p243
sVPartOfSpeech
p244
VCD
p245
sVCharacterOffsetBegin
p246
V33
p247
sVNamedEntityTag
p248
VDURATION
p249
saa(lp250
Vday
p251
a(dp252
VNormalizedNamedEntityTag
p253
VP1D
p254
sVTimex
p255
V<TIMEX3 tid="t1" type="DURATION" value="P1D">one day</TIMEX3>
p256
sVLemma
p257
Vday
p258
sVCharacterOffsetEnd
p259
V40
p260
sVPartOfSpeech
p261
VNN
p262
sVCharacterOffsetBegin
p263
V37
p264
sVNamedEntityTag
p265
VDURATION
p266
saa(lp267
Vthey
p268
a(dp269
VNamedEntityTag
p270
g52
sVCharacterOffsetEnd
p271
V45
p272
sVCharacterOffsetBegin
p273
V41
p274
sVPartOfSpeech
p275
VPRP
p276
sVLemma
p277
Vthey
p278
saa(lp279
Vsold
p280
a(dp281
VNamedEntityTag
p282
g52
sVCharacterOffsetEnd
p283
V50
p284
sVCharacterOffsetBegin
p285
V46
p286
sVPartOfSpeech
p287
VVBD
p288
sVLemma
p289
Vsell
p290
saa(lp291
V41
p292
a(dp293
VNormalizedNamedEntityTag
p294
V41.0
p295
sVLemma
p296
V41
p297
sVCharacterOffsetEnd
p298
V53
p299
sVPartOfSpeech
p300
VCD
p301
sVCharacterOffsetBegin
p302
V51
p303
sVNamedEntityTag
p304
VNUMBER
p305
saa(lp306
Vof
p307
a(dp308
VNamedEntityTag
p309
g52
sVCharacterOffsetEnd
p310
V56
p311
sVCharacterOffsetBegin
p312
V54
p313
sVPartOfSpeech
p314
VIN
p315
sVLemma
p316
Vof
p317
saa(lp318
Vthem
p319
a(dp320
VNamedEntityTag
p321
g52
sVCharacterOffsetEnd
p322
V61
p323
sVCharacterOffsetBegin
p324
V57
p325
sVPartOfSpeech
p326
VPRP
p327
sVLemma
p328
Vthey
p329
saa(lp330
Vand
p331
a(dp332
VNamedEntityTag
p333
g52
sVCharacterOffsetEnd
p334
V65
p335
sVCharacterOffsetBegin
p336
V62
p337
sVPartOfSpeech
p338
VCC
p339
sVLemma
p340
Vand
p341
saa(lp342
Vput
p343
a(dp344
VNamedEntityTag
p345
g52
sVCharacterOffsetEnd
p346
V69
p347
sVCharacterOffsetBegin
p348
V66
p349
sVPartOfSpeech
p350
VVB
p351
sVLemma
p352
Vput
p353
saa(lp354
Vthe
p355
a(dp356
VNamedEntityTag
p357
g52
sVCharacterOffsetEnd
p358
V73
p359
sVCharacterOffsetBegin
p360
V70
p361
sVPartOfSpeech
p362
VDT
p363
sVLemma
p364
Vthe
p365
saa(lp366
Vrest
p367
a(dp368
VNamedEntityTag
p369
g52
sVCharacterOffsetEnd
p370
V78
p371
sVCharacterOffsetBegin
p372
V74
p373
sVPartOfSpeech
p374
VNN
p375
sVLemma
p376
Vrest
p377
saa(lp378
Vinto
p379
a(dp380
VNamedEntityTag
p381
g52
sVCharacterOffsetEnd
p382
V83
p383
sVCharacterOffsetBegin
p384
V79
p385
sVPartOfSpeech
p386
VIN
p387
sVLemma
p388
Vinto
p389
saa(lp390
Vcages
p391
a(dp392
VNamedEntityTag
p393
g52
sVCharacterOffsetEnd
p394
V89
p395
sVCharacterOffsetBegin
p396
V84
p397
sVPartOfSpeech
p398
VNNS
p399
sVLemma
p400
Vcage
p401
saa(lp402
Vwith
p403
a(dp404
VNamedEntityTag
p405
g52
sVCharacterOffsetEnd
p406
V94
p407
sVCharacterOffsetBegin
p408
V90
p409
sVPartOfSpeech
p410
VIN
p411
sVLemma
p412
Vwith
p413
saa(lp414
g210
a(dp415
VNormalizedNamedEntityTag
p416
V8.0
p417
sVLemma
p418
g210
sVCharacterOffsetEnd
p419
V96
p420
sVPartOfSpeech
p421
VCD
p422
sVCharacterOffsetBegin
p423
V95
p424
sVNamedEntityTag
p425
VNUMBER
p426
saa(lp427
Vin
p428
a(dp429
VNamedEntityTag
p430
g52
sVCharacterOffsetEnd
p431
V99
p432
sVCharacterOffsetBegin
p433
V97
p434
sVPartOfSpeech
p435
VIN
p436
sVLemma
p437
Vin
p438
saa(lp439
Veach
p440
a(dp441
VNamedEntityTag
p442
g52
sVCharacterOffsetEnd
p443
V104
p444
sVCharacterOffsetBegin
p445
V100
p446
sVPartOfSpeech
p447
VDT
p448
sVLemma
p449
Veach
p450
saa(lp451
Vcage
p452
a(dp453
VNamedEntityTag
p454
g52
sVCharacterOffsetEnd
p455
V109
p456
sVCharacterOffsetBegin
p457
V105
p458
sVPartOfSpeech
p459
VNN
p460
sVLemma
p461
Vcage
p462
saa(lp463
g125
a(dp464
VNamedEntityTag
p465
g52
sVCharacterOffsetEnd
p466
V111
p467
sVCharacterOffsetBegin
p468
V110
p469
sVPartOfSpeech
p470
g125
sVLemma
p471
g125
saasVindexeddependencies
p472
(lp473
(lp474
Vroot
p475
aVROOT-0
p476
aVsold-5
p477
aa(lp478
Vnum
p479
aVday-3
p480
aVone-2
p481
aa(lp482
Vprep_in
p483
aVsold-5
p484
aVday-3
p485
aa(lp486
Vnsubj
p487
aVsold-5
p488
aVthey-4
p489
aa(lp490
Vdobj
p491
aVsold-5
p492
aV41-6
p493
aa(lp494
Vprep_of
p495
aV41-6
p496
aVthem-8
p497
aa(lp498
Vconj_and
p499
aVsold-5
p500
aVput-10
p501
aa(lp502
Vdet
p503
aVrest-12
p504
aVthe-11
p505
aa(lp506
Vdobj
p507
aVput-10
p508
aVrest-12
p509
aa(lp510
Vprep_into
p511
aVput-10
p512
aVcages-14
p513
aa(lp514
Vprep_with
p515
aVcages-14
p516
aV8-16
p517
aa(lp518
Vdet
p519
aVcage-19
p520
aVeach-18
p521
aa(lp522
Vprep_in
p523
aVput-10
p524
aVcage-19
p525
aasa(dp526
Vparsetree
p527
V(ROOT (SBARQ (WHADVP (WRB How) (NP (JJ many) (NNS cages))) (SQ (VBD did) (NP (PRP they)) (VP (VB use))) (. ?)))
p528
sVtext
p529
VHow many cages did they use ?
p530
sVdependencies
p531
(lp532
(lp533
Vroot
p534
aVROOT
p535
aVuse
p536
aa(lp537
Vadvmod
p538
aVuse
p539
aVHow
p540
aa(lp541
Vamod
p542
aVcages
p543
aVmany
p544
aa(lp545
Vdep
p546
aVHow
p547
aVcages
p548
aa(lp549
Vaux
p550
aVuse
p551
aVdid
p552
aa(lp553
Vnsubj
p554
aVuse
p555
aVthey
p556
aasVwords
p557
(lp558
(lp559
VHow
p560
a(dp561
VNamedEntityTag
p562
g52
sVCharacterOffsetEnd
p563
V115
p564
sVCharacterOffsetBegin
p565
V112
p566
sVPartOfSpeech
p567
VWRB
p568
sVLemma
p569
Vhow
p570
saa(lp571
Vmany
p572
a(dp573
VNamedEntityTag
p574
g52
sVCharacterOffsetEnd
p575
V120
p576
sVCharacterOffsetBegin
p577
V116
p578
sVPartOfSpeech
p579
VJJ
p580
sVLemma
p581
Vmany
p582
saa(lp583
Vcages
p584
a(dp585
VNamedEntityTag
p586
g52
sVCharacterOffsetEnd
p587
V126
p588
sVCharacterOffsetBegin
p589
V121
p590
sVPartOfSpeech
p591
VNNS
p592
sVLemma
p593
Vcage
p594
saa(lp595
Vdid
p596
a(dp597
VNamedEntityTag
p598
g52
sVCharacterOffsetEnd
p599
V130
p600
sVCharacterOffsetBegin
p601
V127
p602
sVPartOfSpeech
p603
VVBD
p604
sVLemma
p605
Vdo
p606
saa(lp607
Vthey
p608
a(dp609
VNamedEntityTag
p610
g52
sVCharacterOffsetEnd
p611
V135
p612
sVCharacterOffsetBegin
p613
V131
p614
sVPartOfSpeech
p615
VPRP
p616
sVLemma
p617
Vthey
p618
saa(lp619
Vuse
p620
a(dp621
VNamedEntityTag
p622
g52
sVCharacterOffsetEnd
p623
V139
p624
sVCharacterOffsetBegin
p625
V136
p626
sVPartOfSpeech
p627
VVB
p628
sVLemma
p629
Vuse
p630
saa(lp631
V?
p632
a(dp633
VNamedEntityTag
p634
g52
sVCharacterOffsetEnd
p635
V141
p636
sVCharacterOffsetBegin
p637
V140
p638
sVPartOfSpeech
p639
g125
sVLemma
p640
g632
saasVindexeddependencies
p641
(lp642
(lp643
Vroot
p644
aVROOT-0
p645
aVuse-6
p646
aa(lp647
Vadvmod
p648
aVuse-6
p649
aVHow-1
p650
aa(lp651
Vamod
p652
aVcages-3
p653
aVmany-2
p654
aa(lp655
Vdep
p656
aVHow-1
p657
aVcages-3
p658
aa(lp659
Vaux
p660
aVuse-6
p661
aVdid-4
p662
aa(lp663
Vnsubj
p664
aVuse-6
p665
aVthey-5
p666
aasas.