(dp0
Vcoref
p1
(lp2
(lp3
(lp4
(lp5
Vhe
p6
aI1
aI1
aI1
aI2
aa(lp7
VTom
p8
aI0
aI0
aI0
aI1
aaa(lp9
(lp10
Vhe
p11
aI1
aI16
aI16
aI17
aa(lp12
VTom
p13
aI0
aI0
aI0
aI1
aaa(lp14
(lp15
Vhe
p16
aI1
aI21
aI21
aI22
aa(lp17
VTom
p18
aI0
aI0
aI0
aI1
aaaasVsentences
p19
(lp20
(dp21
Vparsetree
p22
V(ROOT (S (NP (NNP Tom)) (VP (VBD had) (NP (CD 57) (NNS dollars))) (. .)))
p23
sVtext
p24
VTom had 57 dollars .
p25
sVdependencies
p26
(lp27
(lp28
Vroot
p29
aVROOT
p30
aVhad
p31
aa(lp32
Vnsubj
p33
aVhad
p34
aVTom
p35
aa(lp36
Vnum
p37
aVdollars
p38
aV57
p39
aa(lp40
Vdobj
p41
aVhad
p42
aVdollars
p43
aasVwords
p44
(lp45
(lp46
VTom
p47
a(dp48
VNamedEntityTag
p49
VPERSON
p50
sVCharacterOffsetEnd
p51
V4
p52
sVCharacterOffsetBegin
p53
V1
p54
sVPartOfSpeech
p55
VNNP
p56
sVLemma
p57
VTom
p58
saa(lp59
Vhad
p60
a(dp61
VNamedEntityTag
p62
VO
p63
sVCharacterOffsetEnd
p64
V8
p65
sVCharacterOffsetBegin
p66
V5
p67
sVPartOfSpeech
p68
VVBD
p69
sVLemma
p70
Vhave
p71
saa(lp72
V57
p73
a(dp74
VNormalizedNamedEntityTag
p75
V$57.0
p76
sVLemma
p77
V57
p78
sVCharacterOffsetEnd
p79
V11
p80
sVPartOfSpeech
p81
VCD
p82
sVCharacterOffsetBegin
p83
V9
p84
sVNamedEntityTag
p85
VMONEY
p86
saa(lp87
Vdollars
p88
a(dp89
VNormalizedNamedEntityTag
p90
V$57.0
p91
sVLemma
p92
Vdollar
p93
sVCharacterOffsetEnd
p94
V19
p95
sVPartOfSpeech
p96
VNNS
p97
sVCharacterOffsetBegin
p98
V12
p99
sVNamedEntityTag
p100
VMONEY
p101
saa(lp102
V.
p103
a(dp104
VNamedEntityTag
p105
g63
sVCharacterOffsetEnd
p106
V21
p107
sVCharacterOffsetBegin
p108
V20
p109
sVPartOfSpeech
p110
g103
sVLemma
p111
g103
saasVindexeddependencies
p112
(lp113
(lp114
Vroot
p115
aVROOT-0
p116
aVhad-2
p117
aa(lp118
Vnsubj
p119
aVhad-2
p120
aVTom-1
p121
aa(lp122
Vnum
p123
aVdollars-4
p124
aV57-3
p125
aa(lp126
Vdobj
p127
aVhad-2
p128
aVdollars-4
p129
aasa(dp130
Vparsetree
p131
V(ROOT (SBARQ (SBAR (IN If) (S (NP (PRP he)) (VP (VBD spent) (NP (CD 49) (NNS bucks)) (PP (IN on) (NP (DT a) (JJ new) (NN game)))))) (, ,) (WHNP (WHADJP (WRB how) (JJ many)) (NP (NP (CD 4) (NN dollar)) (NP (NNS toys)))) (SQ (MD could) (NP (PRP he)) (VP (VB buy) (PP (IN with) (NP (NP (DT the) (NN money)) (SBAR (S (NP (PRP he)) (VP (VBD had) (VP (VBN left))))))))) (. ?)))
p132
sVtext
p133
VIf he spent 49 bucks on a new game , how many 4 dollar toys could he buy with the money he had left ?
p134
sVdependencies
p135
(lp136
(lp137
Vroot
p138
aVROOT
p139
aVbuy
p140
aa(lp141
Vmark
p142
aVspent
p143
aVIf
p144
aa(lp145
Vnsubj
p146
aVspent
p147
aVhe
p148
aa(lp149
Vadvcl
p150
aVbuy
p151
aVspent
p152
aa(lp153
Vnum
p154
aVbucks
p155
aV49
p156
aa(lp157
Vdobj
p158
aVspent
p159
aVbucks
p160
aa(lp161
Vdet
p162
aVgame
p163
aVa
p164
aa(lp165
Vamod
p166
aVgame
p167
aVnew
p168
aa(lp169
Vprep_on
p170
aVspent
p171
aVgame
p172
aa(lp173
Vadvmod
p174
aVmany
p175
aVhow
p176
aa(lp177
Vamod
p178
aVdollar
p179
aVmany
p180
aa(lp181
Vnum
p182
aVdollar
p183
ag52
aa(lp184
Vdobj
p185
aVbuy
p186
aVdollar
p187
aa(lp188
Vdep
p189
aVdollar
p190
aVtoys
p191
aa(lp192
Vaux
p193
aVbuy
p194
aVcould
p195
aa(lp196
Vnsubj
p197
aVbuy
p198
aVhe
p199
aa(lp200
Vdet
p201
aVmoney
p202
aVthe
p203
aa(lp204
Vprep_with
p205
aVbuy
p206
aVmoney
p207
aa(lp208
Vnsubj
p209
aVleft
p210
aVhe
p211
aa(lp212
Vaux
p213
aVleft
p214
aVhad
p215
aa(lp216
Vrcmod
p217
aVmoney
p218
aVleft
p219
aasVwords
p220
(lp221
(lp222
VIf
p223
a(dp224
VNamedEntityTag
p225
g63
sVCharacterOffsetEnd
p226
V24
p227
sVCharacterOffsetBegin
p228
V22
p229
sVPartOfSpeech
p230
VIN
p231
sVLemma
p232
Vif
p233
saa(lp234
Vhe
p235
a(dp236
VNamedEntityTag
p237
g63
sVCharacterOffsetEnd
p238
V27
p239
sVCharacterOffsetBegin
p240
V25
p241
sVPartOfSpeech
p242
VPRP
p243
sVLemma
p244
Vhe
p245
saa(lp246
Vspent
p247
a(dp248
VNamedEntityTag
p249
g63
sVCharacterOffsetEnd
p250
V33
p251
sVCharacterOffsetBegin
p252
V28
p253
sVPartOfSpeech
p254
VVBD
p255
sVLemma
p256
Vspend
p257
saa(lp258
V49
p259
a(dp260
VNormalizedNamedEntityTag
p261
V49.0
p262
sVLemma
p263
V49
p264
sVCharacterOffsetEnd
p265
V36
p266
sVPartOfSpeech
p267
VCD
p268
sVCharacterOffsetBegin
p269
V34
p270
sVNamedEntityTag
p271
VNUMBER
p272
saa(lp273
Vbucks
p274
a(dp275
VNamedEntityTag
p276
g63
sVCharacterOffsetEnd
p277
V42
p278
sVCharacterOffsetBegin
p279
V37
p280
sVPartOfSpeech
p281
VNNS
p282
sVLemma
p283
Vbuck
p284
saa(lp285
Von
p286
a(dp287
VNamedEntityTag
p288
g63
sVCharacterOffsetEnd
p289
V45
p290
sVCharacterOffsetBegin
p291
V43
p292
sVPartOfSpeech
p293
VIN
p294
sVLemma
p295
Von
p296
saa(lp297
g164
a(dp298
VNamedEntityTag
p299
g63
sVCharacterOffsetEnd
p300
V47
p301
sVCharacterOffsetBegin
p302
V46
p303
sVPartOfSpeech
p304
VDT
p305
sVLemma
p306
g164
saa(lp307
Vnew
p308
a(dp309
VNamedEntityTag
p310
g63
sVCharacterOffsetEnd
p311
V51
p312
sVCharacterOffsetBegin
p313
V48
p314
sVPartOfSpeech
p315
VJJ
p316
sVLemma
p317
Vnew
p318
saa(lp319
Vgame
p320
a(dp321
VNamedEntityTag
p322
g63
sVCharacterOffsetEnd
p323
V56
p324
sVCharacterOffsetBegin
p325
V52
p326
sVPartOfSpeech
p327
VNN
p328
sVLemma
p329
Vgame
p330
saa(lp331
V,
p332
a(dp333
VNamedEntityTag
p334
g63
sVCharacterOffsetEnd
p335
V58
p336
sVCharacterOffsetBegin
p337
V57
p338
sVPartOfSpeech
p339
g332
sVLemma
p340
g332
saa(lp341
Vhow
p342
a(dp343
VNamedEntityTag
p344
g63
sVCharacterOffsetEnd
p345
V62
p346
sVCharacterOffsetBegin
p347
V59
p348
sVPartOfSpeech
p349
VWRB
p350
sVLemma
p351
Vhow
p352
saa(lp353
Vmany
p354
a(dp355
VNamedEntityTag
p356
g63
sVCharacterOffsetEnd
p357
V67
p358
sVCharacterOffsetBegin
p359
V63
p360
sVPartOfSpeech
p361
VJJ
p362
sVLemma
p363
Vmany
p364
saa(lp365
g52
a(dp366
VNormalizedNamedEntityTag
p367
V$4.0
p368
sVLemma
p369
g52
sVCharacterOffsetEnd
p370
V69
p371
sVPartOfSpeech
p372
VCD
p373
sVCharacterOffsetBegin
p374
V68
p375
sVNamedEntityTag
p376
VMONEY
p377
saa(lp378
Vdollar
p379
a(dp380
VNormalizedNamedEntityTag
p381
V$4.0
p382
sVLemma
p383
Vdollar
p384
sVCharacterOffsetEnd
p385
V76
p386
sVPartOfSpeech
p387
VNN
p388
sVCharacterOffsetBegin
p389
V70
p390
sVNamedEntityTag
p391
VMONEY
p392
saa(lp393
Vtoys
p394
a(dp395
VNamedEntityTag
p396
g63
sVCharacterOffsetEnd
p397
V81
p398
sVCharacterOffsetBegin
p399
V77
p400
sVPartOfSpeech
p401
VNNS
p402
sVLemma
p403
Vtoy
p404
saa(lp405
Vcould
p406
a(dp407
VNamedEntityTag
p408
g63
sVCharacterOffsetEnd
p409
V87
p410
sVCharacterOffsetBegin
p411
V82
p412
sVPartOfSpeech
p413
VMD
p414
sVLemma
p415
Vcould
p416
saa(lp417
Vhe
p418
a(dp419
VNamedEntityTag
p420
g63
sVCharacterOffsetEnd
p421
V90
p422
sVCharacterOffsetBegin
p423
V88
p424
sVPartOfSpeech
p425
VPRP
p426
sVLemma
p427
Vhe
p428
saa(lp429
Vbuy
p430
a(dp431
VNamedEntityTag
p432
g63
sVCharacterOffsetEnd
p433
V94
p434
sVCharacterOffsetBegin
p435
V91
p436
sVPartOfSpeech
p437
VVB
p438
sVLemma
p439
Vbuy
p440
saa(lp441
Vwith
p442
a(dp443
VNamedEntityTag
p444
g63
sVCharacterOffsetEnd
p445
V99
p446
sVCharacterOffsetBegin
p447
V95
p448
sVPartOfSpeech
p449
VIN
p450
sVLemma
p451
Vwith
p452
saa(lp453
Vthe
p454
a(dp455
VNamedEntityTag
p456
g63
sVCharacterOffsetEnd
p457
V103
p458
sVCharacterOffsetBegin
p459
V100
p460
sVPartOfSpeech
p461
VDT
p462
sVLemma
p463
Vthe
p464
saa(lp465
Vmoney
p466
a(dp467
VNamedEntityTag
p468
g63
sVCharacterOffsetEnd
p469
V109
p470
sVCharacterOffsetBegin
p471
V104
p472
sVPartOfSpeech
p473
VNN
p474
sVLemma
p475
Vmoney
p476
saa(lp477
Vhe
p478
a(dp479
VNamedEntityTag
p480
g63
sVCharacterOffsetEnd
p481
V112
p482
sVCharacterOffsetBegin
p483
V110
p484
sVPartOfSpeech
p485
VPRP
p486
sVLemma
p487
Vhe
p488
saa(lp489
Vhad
p490
a(dp491
VNamedEntityTag
p492
g63
sVCharacterOffsetEnd
p493
V116
p494
sVCharacterOffsetBegin
p495
V113
p496
sVPartOfSpeech
p497
VVBD
p498
sVLemma
p499
Vhave
p500
saa(lp501
Vleft
p502
a(dp503
VNamedEntityTag
p504
g63
sVCharacterOffsetEnd
p505
V121
p506
sVCharacterOffsetBegin
p507
V117
p508
sVPartOfSpeech
p509
VVBN
p510
sVLemma
p511
Vleave
p512
saa(lp513
V?
p514
a(dp515
VNamedEntityTag
p516
g63
sVCharacterOffsetEnd
p517
V123
p518
sVCharacterOffsetBegin
p519
V122
p520
sVPartOfSpeech
p521
g103
sVLemma
p522
g514
saasVindexeddependencies
p523
(lp524
(lp525
Vroot
p526
aVROOT-0
p527
aVbuy-18
p528
aa(lp529
Vmark
p530
aVspent-3
p531
aVIf-1
p532
aa(lp533
Vnsubj
p534
aVspent-3
p535
aVhe-2
p536
aa(lp537
Vadvcl
p538
aVbuy-18
p539
aVspent-3
p540
aa(lp541
Vnum
p542
aVbucks-5
p543
aV49-4
p544
aa(lp545
Vdobj
p546
aVspent-3
p547
aVbucks-5
p548
aa(lp549
Vdet
p550
aVgame-9
p551
aVa-7
p552
aa(lp553
Vamod
p554
aVgame-9
p555
aVnew-8
p556
aa(lp557
Vprep_on
p558
aVspent-3
p559
aVgame-9
p560
aa(lp561
Vadvmod
p562
aVmany-12
p563
aVhow-11
p564
aa(lp565
Vamod
p566
aVdollar-14
p567
aVmany-12
p568
aa(lp569
Vnum
p570
aVdollar-14
p571
aV4-13
p572
aa(lp573
Vdobj
p574
aVbuy-18
p575
aVdollar-14
p576
aa(lp577
Vdep
p578
aVdollar-14
p579
aVtoys-15
p580
aa(lp581
Vaux
p582
aVbuy-18
p583
aVcould-16
p584
aa(lp585
Vnsubj
p586
aVbuy-18
p587
aVhe-17
p588
aa(lp589
Vdet
p590
aVmoney-21
p591
aVthe-20
p592
aa(lp593
Vprep_with
p594
aVbuy-18
p595
aVmoney-21
p596
aa(lp597
Vnsubj
p598
aVleft-24
p599
aVhe-22
p600
aa(lp601
Vaux
p602
aVleft-24
p603
aVhad-23
p604
aa(lp605
Vrcmod
p606
aVmoney-21
p607
aVleft-24
p608
aasas.