(dp0
Vcoref
p1
(lp2
(lp3
(lp4
(lp5
Vher
p6
aI0
aI5
aI5
aI6
aa(lp7
VIsabel
p8
aI0
aI0
aI0
aI1
aaa(lp9
(lp10
VShe
p11
aI1
aI0
aI0
aI1
aa(lp12
VIsabel
p13
aI0
aI0
aI0
aI1
aaa(lp14
(lp15
Vshe
p16
aI2
aI14
aI14
aI15
aa(lp17
VIsabel
p18
aI0
aI0
aI0
aI1
aaaa(lp19
(lp20
(lp21
Vthe wedding
p22
aI2
aI8
aI7
aI9
aa(lp23
Vher friend 's wedding
p24
aI0
aI8
aI5
aI9
aaaa(lp25
(lp26
(lp27
Vthe flowers
p28
aI2
aI4
aI3
aI5
aa(lp29
V8 flowers in each one
p30
aI1
aI6
aI5
aI10
aaaasVsentences
p31
(lp32
(dp33
Vparsetree
p34
V(ROOT (S (NP (NNP Isabel)) (VP (VBD picked) (NP (NP (CD 66) (NNS flowers)) (PP (IN for) (NP (NP (PRP$ her) (NN friend) (POS 's)) (NN wedding))))) (. .)))
p35
sVtext
p36
VIsabel picked 66 flowers for her friend\u2019s wedding .
p37
sVdependencies
p38
(lp39
(lp40
Vroot
p41
aVROOT
p42
aVpicked
p43
aa(lp44
Vnsubj
p45
aVpicked
p46
aVIsabel
p47
aa(lp48
Vnum
p49
aVflowers
p50
aV66
p51
aa(lp52
Vdobj
p53
aVpicked
p54
aVflowers
p55
aa(lp56
Vposs
p57
aVfriend
p58
aVher
p59
aa(lp60
Vposs
p61
aVwedding
p62
aVfriend
p63
aa(lp64
Vprep_for
p65
aVflowers
p66
aVwedding
p67
aasVwords
p68
(lp69
(lp70
VIsabel
p71
a(dp72
VNamedEntityTag
p73
VO
p74
sVCharacterOffsetEnd
p75
V7
p76
sVCharacterOffsetBegin
p77
V1
p78
sVPartOfSpeech
p79
VNNP
p80
sVLemma
p81
VIsabel
p82
saa(lp83
Vpicked
p84
a(dp85
VNamedEntityTag
p86
g74
sVCharacterOffsetEnd
p87
V14
p88
sVCharacterOffsetBegin
p89
V8
p90
sVPartOfSpeech
p91
VVBD
p92
sVLemma
p93
Vpick
p94
saa(lp95
V66
p96
a(dp97
VNormalizedNamedEntityTag
p98
V66.0
p99
sVLemma
p100
V66
p101
sVCharacterOffsetEnd
p102
V17
p103
sVPartOfSpeech
p104
VCD
p105
sVCharacterOffsetBegin
p106
V15
p107
sVNamedEntityTag
p108
VNUMBER
p109
saa(lp110
Vflowers
p111
a(dp112
VNamedEntityTag
p113
g74
sVCharacterOffsetEnd
p114
V25
p115
sVCharacterOffsetBegin
p116
V18
p117
sVPartOfSpeech
p118
VNNS
p119
sVLemma
p120
Vflower
p121
saa(lp122
Vfor
p123
a(dp124
VNamedEntityTag
p125
g74
sVCharacterOffsetEnd
p126
V29
p127
sVCharacterOffsetBegin
p128
V26
p129
sVPartOfSpeech
p130
VIN
p131
sVLemma
p132
Vfor
p133
saa(lp134
Vher
p135
a(dp136
VNamedEntityTag
p137
g74
sVCharacterOffsetEnd
p138
V33
p139
sVCharacterOffsetBegin
p140
V30
p141
sVPartOfSpeech
p142
VPRP$
p143
sVLemma
p144
Vshe
p145
saa(lp146
Vfriend
p147
a(dp148
VNamedEntityTag
p149
g74
sVCharacterOffsetEnd
p150
V40
p151
sVCharacterOffsetBegin
p152
V34
p153
sVPartOfSpeech
p154
VNN
p155
sVLemma
p156
Vfriend
p157
saa(lp158
V's
p159
a(dp160
VNamedEntityTag
p161
g74
sVCharacterOffsetEnd
p162
V42
p163
sVCharacterOffsetBegin
p164
V40
p165
sVPartOfSpeech
p166
VPOS
p167
sVLemma
p168
V's
p169
saa(lp170
Vwedding
p171
a(dp172
VNamedEntityTag
p173
g74
sVCharacterOffsetEnd
p174
V50
p175
sVCharacterOffsetBegin
p176
V43
p177
sVPartOfSpeech
p178
VNN
p179
sVLemma
p180
Vwedding
p181
saa(lp182
V.
p183
a(dp184
VNamedEntityTag
p185
g74
sVCharacterOffsetEnd
p186
V52
p187
sVCharacterOffsetBegin
p188
V51
p189
sVPartOfSpeech
p190
g183
sVLemma
p191
g183
saasVindexeddependencies
p192
(lp193
(lp194
Vroot
p195
aVROOT-0
p196
aVpicked-2
p197
aa(lp198
Vnsubj
p199
aVpicked-2
p200
aVIsabel-1
p201
aa(lp202
Vnum
p203
aVflowers-4
p204
aV66-3
p205
aa(lp206
Vdobj
p207
aVpicked-2
p208
aVflowers-4
p209
aa(lp210
Vposs
p211
aVfriend-7
p212
aVher-6
p213
aa(lp214
Vposs
p215
aVwedding-9
p216
aVfriend-7
p217
aa(lp218
Vprep_for
p219
aVflowers-4
p220
aVwedding-9
p221
aasa(dp222
Vparsetree
p223
V(ROOT (S (NP (PRP She)) (VP (VBD was) (VP (VBG making) (NP (NNS bouquets)) (PP (IN with) (NP (NP (CD 8) (NNS flowers)) (PP (IN in) (NP (DT each) (CD one))))))) (. .)))
p224
sVtext
p225
VShe was making bouquets with 8 flowers in each one .
p226
sVdependencies
p227
(lp228
(lp229
Vroot
p230
aVROOT
p231
aVmaking
p232
aa(lp233
Vnsubj
p234
aVmaking
p235
aVShe
p236
aa(lp237
Vaux
p238
aVmaking
p239
aVwas
p240
aa(lp241
Vdobj
p242
aVmaking
p243
aVbouquets
p244
aa(lp245
Vnum
p246
aVflowers
p247
ag90
aa(lp248
Vprep_with
p249
aVmaking
p250
aVflowers
p251
aa(lp252
Vdet
p253
aVone
p254
aVeach
p255
aa(lp256
Vprep_in
p257
aVflowers
p258
aVone
p259
aasVwords
p260
(lp261
(lp262
VShe
p263
a(dp264
VNamedEntityTag
p265
g74
sVCharacterOffsetEnd
p266
V56
p267
sVCharacterOffsetBegin
p268
V53
p269
sVPartOfSpeech
p270
VPRP
p271
sVLemma
p272
Vshe
p273
saa(lp274
Vwas
p275
a(dp276
VNamedEntityTag
p277
g74
sVCharacterOffsetEnd
p278
V60
p279
sVCharacterOffsetBegin
p280
V57
p281
sVPartOfSpeech
p282
VVBD
p283
sVLemma
p284
Vbe
p285
saa(lp286
Vmaking
p287
a(dp288
VNamedEntityTag
p289
g74
sVCharacterOffsetEnd
p290
V67
p291
sVCharacterOffsetBegin
p292
V61
p293
sVPartOfSpeech
p294
VVBG
p295
sVLemma
p296
Vmake
p297
saa(lp298
Vbouquets
p299
a(dp300
VNamedEntityTag
p301
g74
sVCharacterOffsetEnd
p302
V76
p303
sVCharacterOffsetBegin
p304
V68
p305
sVPartOfSpeech
p306
VNNS
p307
sVLemma
p308
Vbouquet
p309
saa(lp310
Vwith
p311
a(dp312
VNamedEntityTag
p313
g74
sVCharacterOffsetEnd
p314
V81
p315
sVCharacterOffsetBegin
p316
V77
p317
sVPartOfSpeech
p318
VIN
p319
sVLemma
p320
Vwith
p321
saa(lp322
g90
a(dp323
VNormalizedNamedEntityTag
p324
V8.0
p325
sVLemma
p326
g90
sVCharacterOffsetEnd
p327
V83
p328
sVPartOfSpeech
p329
VCD
p330
sVCharacterOffsetBegin
p331
V82
p332
sVNamedEntityTag
p333
VNUMBER
p334
saa(lp335
Vflowers
p336
a(dp337
VNamedEntityTag
p338
g74
sVCharacterOffsetEnd
p339
V91
p340
sVCharacterOffsetBegin
p341
V84
p342
sVPartOfSpeech
p343
VNNS
p344
sVLemma
p345
Vflower
p346
saa(lp347
Vin
p348
a(dp349
VNamedEntityTag
p350
g74
sVCharacterOffsetEnd
p351
V94
p352
sVCharacterOffsetBegin
p353
V92
p354
sVPartOfSpeech
p355
VIN
p356
sVLemma
p357
Vin
p358
saa(lp359
Veach
p360
a(dp361
VNamedEntityTag
p362
g74
sVCharacterOffsetEnd
p363
V99
p364
sVCharacterOffsetBegin
p365
V95
p366
sVPartOfSpeech
p367
VDT
p368
sVLemma
p369
Veach
p370
saa(lp371
Vone
p372
a(dp373
VNormalizedNamedEntityTag
p374
V1.0
p375
sVLemma
p376
Vone
p377
sVCharacterOffsetEnd
p378
V103
p379
sVPartOfSpeech
p380
VCD
p381
sVCharacterOffsetBegin
p382
V100
p383
sVNamedEntityTag
p384
VNUMBER
p385
saa(lp386
g183
a(dp387
VNamedEntityTag
p388
g74
sVCharacterOffsetEnd
p389
V105
p390
sVCharacterOffsetBegin
p391
V104
p392
sVPartOfSpeech
p393
g183
sVLemma
p394
g183
saasVindexeddependencies
p395
(lp396
(lp397
Vroot
p398
aVROOT-0
p399
aVmaking-3
p400
aa(lp401
Vnsubj
p402
aVmaking-3
p403
aVShe-1
p404
aa(lp405
Vaux
p406
aVmaking-3
p407
aVwas-2
p408
aa(lp409
Vdobj
p410
aVmaking-3
p411
aVbouquets-4
p412
aa(lp413
Vnum
p414
aVflowers-7
p415
aV8-6
p416
aa(lp417
Vprep_with
p418
aVmaking-3
p419
aVflowers-7
p420
aa(lp421
Vdet
p422
aVone-10
p423
aVeach-9
p424
aa(lp425
Vprep_in
p426
aVflowers-7
p427
aVone-10
p428
aasa(dp429
Vparsetree
p430
V(ROOT (SBARQ (SBAR (IN If) (S (NP (NP (CD 10)) (PP (IN of) (NP (DT the) (NNS flowers)))) (VP (VBN wilted) (PP (IN before) (NP (DT the) (NN wedding)))))) (, ,) (WHADVP (WRB how) (NP (JJ many) (NNS bouquets))) (SQ (MD could) (NP (PRP she)) (VP (ADVP (RB still)) (VB make))) (. ?)))
p431
sVtext
p432
VIf 10 of the flowers wilted before the wedding , how many bouquets could she still make ?
p433
sVdependencies
p434
(lp435
(lp436
Vroot
p437
aVROOT
p438
aVmake
p439
aa(lp440
Vmark
p441
aVwilted
p442
aVIf
p443
aa(lp444
Vnsubj
p445
aVwilted
p446
aV10
p447
aa(lp448
Vdet
p449
aVflowers
p450
aVthe
p451
aa(lp452
Vprep_of
p453
aV10
p454
aVflowers
p455
aa(lp456
Vadvcl
p457
aVmake
p458
aVwilted
p459
aa(lp460
Vdet
p461
aVwedding
p462
aVthe
p463
aa(lp464
Vprep_before
p465
aVwilted
p466
aVwedding
p467
aa(lp468
Vadvmod
p469
aVmake
p470
aVhow
p471
aa(lp472
Vamod
p473
aVbouquets
p474
aVmany
p475
aa(lp476
Vdep
p477
aVhow
p478
aVbouquets
p479
aa(lp480
Vaux
p481
aVmake
p482
aVcould
p483
aa(lp484
Vnsubj
p485
aVmake
p486
aVshe
p487
aa(lp488
Vadvmod
p489
aVmake
p490
aVstill
p491
aasVwords
p492
(lp493
(lp494
VIf
p495
a(dp496
VNamedEntityTag
p497
g74
sVCharacterOffsetEnd
p498
V108
p499
sVCharacterOffsetBegin
p500
V106
p501
sVPartOfSpeech
p502
VIN
p503
sVLemma
p504
Vif
p505
saa(lp506
V10
p507
a(dp508
VNormalizedNamedEntityTag
p509
V10.0
p510
sVLemma
p511
V10
p512
sVCharacterOffsetEnd
p513
V111
p514
sVPartOfSpeech
p515
VCD
p516
sVCharacterOffsetBegin
p517
V109
p518
sVNamedEntityTag
p519
VNUMBER
p520
saa(lp521
Vof
p522
a(dp523
VNamedEntityTag
p524
g74
sVCharacterOffsetEnd
p525
V114
p526
sVCharacterOffsetBegin
p527
V112
p528
sVPartOfSpeech
p529
VIN
p530
sVLemma
p531
Vof
p532
saa(lp533
Vthe
p534
a(dp535
VNamedEntityTag
p536
g74
sVCharacterOffsetEnd
p537
V118
p538
sVCharacterOffsetBegin
p539
V115
p540
sVPartOfSpeech
p541
VDT
p542
sVLemma
p543
Vthe
p544
saa(lp545
Vflowers
p546
a(dp547
VNamedEntityTag
p548
g74
sVCharacterOffsetEnd
p549
V126
p550
sVCharacterOffsetBegin
p551
V119
p552
sVPartOfSpeech
p553
VNNS
p554
sVLemma
p555
Vflower
p556
saa(lp557
Vwilted
p558
a(dp559
VNamedEntityTag
p560
g74
sVCharacterOffsetEnd
p561
V133
p562
sVCharacterOffsetBegin
p563
V127
p564
sVPartOfSpeech
p565
VVBN
p566
sVLemma
p567
Vwilt
p568
saa(lp569
Vbefore
p570
a(dp571
VNamedEntityTag
p572
g74
sVCharacterOffsetEnd
p573
V140
p574
sVCharacterOffsetBegin
p575
V134
p576
sVPartOfSpeech
p577
VIN
p578
sVLemma
p579
Vbefore
p580
saa(lp581
Vthe
p582
a(dp583
VNamedEntityTag
p584
g74
sVCharacterOffsetEnd
p585
V144
p586
sVCharacterOffsetBegin
p587
V141
p588
sVPartOfSpeech
p589
VDT
p590
sVLemma
p591
Vthe
p592
saa(lp593
Vwedding
p594
a(dp595
VNamedEntityTag
p596
g74
sVCharacterOffsetEnd
p597
V152
p598
sVCharacterOffsetBegin
p599
V145
p600
sVPartOfSpeech
p601
VNN
p602
sVLemma
p603
Vwedding
p604
saa(lp605
V,
p606
a(dp607
VNamedEntityTag
p608
g74
sVCharacterOffsetEnd
p609
V154
p610
sVCharacterOffsetBegin
p611
V153
p612
sVPartOfSpeech
p613
g606
sVLemma
p614
g606
saa(lp615
Vhow
p616
a(dp617
VNamedEntityTag
p618
g74
sVCharacterOffsetEnd
p619
V158
p620
sVCharacterOffsetBegin
p621
V155
p622
sVPartOfSpeech
p623
VWRB
p624
sVLemma
p625
Vhow
p626
saa(lp627
Vmany
p628
a(dp629
VNamedEntityTag
p630
g74
sVCharacterOffsetEnd
p631
V163
p632
sVCharacterOffsetBegin
p633
V159
p634
sVPartOfSpeech
p635
VJJ
p636
sVLemma
p637
Vmany
p638
saa(lp639
Vbouquets
p640
a(dp641
VNamedEntityTag
p642
g74
sVCharacterOffsetEnd
p643
V172
p644
sVCharacterOffsetBegin
p645
V164
p646
sVPartOfSpeech
p647
VNNS
p648
sVLemma
p649
Vbouquet
p650
saa(lp651
Vcould
p652
a(dp653
VNamedEntityTag
p654
g74
sVCharacterOffsetEnd
p655
V178
p656
sVCharacterOffsetBegin
p657
V173
p658
sVPartOfSpeech
p659
VMD
p660
sVLemma
p661
Vcould
p662
saa(lp663
Vshe
p664
a(dp665
VNamedEntityTag
p666
g74
sVCharacterOffsetEnd
p667
V182
p668
sVCharacterOffsetBegin
p669
V179
p670
sVPartOfSpeech
p671
VPRP
p672
sVLemma
p673
Vshe
p674
saa(lp675
Vstill
p676
a(dp677
VNamedEntityTag
p678
g74
sVCharacterOffsetEnd
p679
V188
p680
sVCharacterOffsetBegin
p681
V183
p682
sVPartOfSpeech
p683
VRB
p684
sVLemma
p685
Vstill
p686
saa(lp687
Vmake
p688
a(dp689
VNamedEntityTag
p690
g74
sVCharacterOffsetEnd
p691
V193
p692
sVCharacterOffsetBegin
p693
V189
p694
sVPartOfSpeech
p695
VVB
p696
sVLemma
p697
Vmake
p698
saa(lp699
V?
p700
a(dp701
VNamedEntityTag
p702
g74
sVCharacterOffsetEnd
p703
V195
p704
sVCharacterOffsetBegin
p705
V194
p706
sVPartOfSpeech
p707
g183
sVLemma
p708
g700
saasVindexeddependencies
p709
(lp710
(lp711
Vroot
p712
aVROOT-0
p713
aVmake-17
p714
aa(lp715
Vmark
p716
aVwilted-6
p717
aVIf-1
p718
aa(lp719
Vnsubj
p720
aVwilted-6
p721
aV10-2
p722
aa(lp723
Vdet
p724
aVflowers-5
p725
aVthe-4
p726
aa(lp727
Vprep_of
p728
aV10-2
p729
aVflowers-5
p730
aa(lp731
Vadvcl
p732
aVmake-17
p733
aVwilted-6
p734
aa(lp735
Vdet
p736
aVwedding-9
p737
aVthe-8
p738
aa(lp739
Vprep_before
p740
aVwilted-6
p741
aVwedding-9
p742
aa(lp743
Vadvmod
p744
aVmake-17
p745
aVhow-11
p746
aa(lp747
Vamod
p748
aVbouquets-13
p749
aVmany-12
p750
aa(lp751
Vdep
p752
aVhow-11
p753
aVbouquets-13
p754
aa(lp755
Vaux
p756
aVmake-17
p757
aVcould-14
p758
aa(lp759
Vnsubj
p760
aVmake-17
p761
aVshe-15
p762
aa(lp763
Vadvmod
p764
aVmake-17
p765
aVstill-16
p766
aasas.