(dp0
Vcoref
p1
(lp2
(lp3
(lp4
(lp5
Vher
p6
aI0
aI5
aI5
aI6
aa(lp7
VNancy
p8
aI0
aI0
aI0
aI1
aaa(lp9
(lp10
VShe
p11
aI1
aI0
aI0
aI1
aa(lp12
VNancy
p13
aI0
aI0
aI0
aI1
aaa(lp14
(lp15
VNancy
p16
aI2
aI4
aI4
aI5
aa(lp17
VNancy
p18
aI0
aI0
aI0
aI1
aaaasVsentences
p19
(lp20
(dp21
Vparsetree
p22
V(ROOT (S (NP (NNP Nancy)) (VP (VBD had) (NP (NP (CD 80) (NNS files)) (PP (IN on) (NP (PRP$ her) (NN computer))))) (. .)))
p23
sVtext
p24
VNancy had 80 files on her computer .
p25
sVdependencies
p26
(lp27
(lp28
Vroot
p29
aVROOT
p30
aVhad
p31
aa(lp32
Vnsubj
p33
aVhad
p34
aVNancy
p35
aa(lp36
Vnum
p37
aVfiles
p38
aV80
p39
aa(lp40
Vdobj
p41
aVhad
p42
aVfiles
p43
aa(lp44
Vposs
p45
aVcomputer
p46
aVher
p47
aa(lp48
Vprep_on
p49
aVfiles
p50
aVcomputer
p51
aasVwords
p52
(lp53
(lp54
VNancy
p55
a(dp56
VNamedEntityTag
p57
VPERSON
p58
sVCharacterOffsetEnd
p59
V6
p60
sVCharacterOffsetBegin
p61
V1
p62
sVPartOfSpeech
p63
VNNP
p64
sVLemma
p65
VNancy
p66
saa(lp67
Vhad
p68
a(dp69
VNamedEntityTag
p70
VO
p71
sVCharacterOffsetEnd
p72
V10
p73
sVCharacterOffsetBegin
p74
V7
p75
sVPartOfSpeech
p76
VVBD
p77
sVLemma
p78
Vhave
p79
saa(lp80
V80
p81
a(dp82
VNormalizedNamedEntityTag
p83
V80.0
p84
sVLemma
p85
V80
p86
sVCharacterOffsetEnd
p87
V13
p88
sVPartOfSpeech
p89
VCD
p90
sVCharacterOffsetBegin
p91
V11
p92
sVNamedEntityTag
p93
VNUMBER
p94
saa(lp95
Vfiles
p96
a(dp97
VNamedEntityTag
p98
g71
sVCharacterOffsetEnd
p99
V19
p100
sVCharacterOffsetBegin
p101
V14
p102
sVPartOfSpeech
p103
VNNS
p104
sVLemma
p105
Vfile
p106
saa(lp107
Von
p108
a(dp109
VNamedEntityTag
p110
g71
sVCharacterOffsetEnd
p111
V22
p112
sVCharacterOffsetBegin
p113
V20
p114
sVPartOfSpeech
p115
VIN
p116
sVLemma
p117
Von
p118
saa(lp119
Vher
p120
a(dp121
VNamedEntityTag
p122
g71
sVCharacterOffsetEnd
p123
V26
p124
sVCharacterOffsetBegin
p125
V23
p126
sVPartOfSpeech
p127
VPRP$
p128
sVLemma
p129
Vshe
p130
saa(lp131
Vcomputer
p132
a(dp133
VNamedEntityTag
p134
g71
sVCharacterOffsetEnd
p135
V35
p136
sVCharacterOffsetBegin
p137
V27
p138
sVPartOfSpeech
p139
VNN
p140
sVLemma
p141
Vcomputer
p142
saa(lp143
V.
p144
a(dp145
VNamedEntityTag
p146
g71
sVCharacterOffsetEnd
p147
V37
p148
sVCharacterOffsetBegin
p149
V36
p150
sVPartOfSpeech
p151
g144
sVLemma
p152
g144
saasVindexeddependencies
p153
(lp154
(lp155
Vroot
p156
aVROOT-0
p157
aVhad-2
p158
aa(lp159
Vnsubj
p160
aVhad-2
p161
aVNancy-1
p162
aa(lp163
Vnum
p164
aVfiles-4
p165
aV80-3
p166
aa(lp167
Vdobj
p168
aVhad-2
p169
aVfiles-4
p170
aa(lp171
Vposs
p172
aVcomputer-7
p173
aVher-6
p174
aa(lp175
Vprep_on
p176
aVfiles-4
p177
aVcomputer-7
p178
aasa(dp179
Vparsetree
p180
V(ROOT (S (NP (PRP She)) (VP (VP (VBD deleted) (NP (NP (CD 31)) (PP (IN of) (NP (PRP them))))) (CC and) (VP (VB put) (NP (DT the) (NN rest)) (PP (IN into) (NP (NP (NNS folders)) (PP (IN with) (NP (NP (CD 7) (NNS files)) (PP (IN in) (NP (DT each) (CD one))))))))) (. .)))
p181
sVtext
p182
VShe deleted 31 of them and put the rest into folders with 7 files in each one .
p183
sVdependencies
p184
(lp185
(lp186
Vroot
p187
aVROOT
p188
aVdeleted
p189
aa(lp190
Vnsubj
p191
aVdeleted
p192
aVShe
p193
aa(lp194
Vdobj
p195
aVdeleted
p196
aV31
p197
aa(lp198
Vprep_of
p199
aV31
p200
aVthem
p201
aa(lp202
Vconj_and
p203
aVdeleted
p204
aVput
p205
aa(lp206
Vdet
p207
aVrest
p208
aVthe
p209
aa(lp210
Vdobj
p211
aVput
p212
aVrest
p213
aa(lp214
Vprep_into
p215
aVput
p216
aVfolders
p217
aa(lp218
Vnum
p219
aVfiles
p220
ag75
aa(lp221
Vprep_with
p222
aVfolders
p223
aVfiles
p224
aa(lp225
Vdet
p226
aVone
p227
aVeach
p228
aa(lp229
Vprep_in
p230
aVfiles
p231
aVone
p232
aasVwords
p233
(lp234
(lp235
VShe
p236
a(dp237
VNamedEntityTag
p238
g71
sVCharacterOffsetEnd
p239
V41
p240
sVCharacterOffsetBegin
p241
V38
p242
sVPartOfSpeech
p243
VPRP
p244
sVLemma
p245
Vshe
p246
saa(lp247
Vdeleted
p248
a(dp249
VNamedEntityTag
p250
g71
sVCharacterOffsetEnd
p251
V49
p252
sVCharacterOffsetBegin
p253
V42
p254
sVPartOfSpeech
p255
VVBD
p256
sVLemma
p257
Vdelete
p258
saa(lp259
V31
p260
a(dp261
VNormalizedNamedEntityTag
p262
V31.0
p263
sVLemma
p264
V31
p265
sVCharacterOffsetEnd
p266
V52
p267
sVPartOfSpeech
p268
VCD
p269
sVCharacterOffsetBegin
p270
V50
p271
sVNamedEntityTag
p272
VNUMBER
p273
saa(lp274
Vof
p275
a(dp276
VNamedEntityTag
p277
g71
sVCharacterOffsetEnd
p278
V55
p279
sVCharacterOffsetBegin
p280
V53
p281
sVPartOfSpeech
p282
VIN
p283
sVLemma
p284
Vof
p285
saa(lp286
Vthem
p287
a(dp288
VNamedEntityTag
p289
g71
sVCharacterOffsetEnd
p290
V60
p291
sVCharacterOffsetBegin
p292
V56
p293
sVPartOfSpeech
p294
VPRP
p295
sVLemma
p296
Vthey
p297
saa(lp298
Vand
p299
a(dp300
VNamedEntityTag
p301
g71
sVCharacterOffsetEnd
p302
V64
p303
sVCharacterOffsetBegin
p304
V61
p305
sVPartOfSpeech
p306
VCC
p307
sVLemma
p308
Vand
p309
saa(lp310
Vput
p311
a(dp312
VNamedEntityTag
p313
g71
sVCharacterOffsetEnd
p314
V68
p315
sVCharacterOffsetBegin
p316
V65
p317
sVPartOfSpeech
p318
VVB
p319
sVLemma
p320
Vput
p321
saa(lp322
Vthe
p323
a(dp324
VNamedEntityTag
p325
g71
sVCharacterOffsetEnd
p326
V72
p327
sVCharacterOffsetBegin
p328
V69
p329
sVPartOfSpeech
p330
VDT
p331
sVLemma
p332
Vthe
p333
saa(lp334
Vrest
p335
a(dp336
VNamedEntityTag
p337
g71
sVCharacterOffsetEnd
p338
V77
p339
sVCharacterOffsetBegin
p340
V73
p341
sVPartOfSpeech
p342
VNN
p343
sVLemma
p344
Vrest
p345
saa(lp346
Vinto
p347
a(dp348
VNamedEntityTag
p349
g71
sVCharacterOffsetEnd
p350
V82
p351
sVCharacterOffsetBegin
p352
V78
p353
sVPartOfSpeech
p354
VIN
p355
sVLemma
p356
Vinto
p357
saa(lp358
Vfolders
p359
a(dp360
VNamedEntityTag
p361
g71
sVCharacterOffsetEnd
p362
V90
p363
sVCharacterOffsetBegin
p364
V83
p365
sVPartOfSpeech
p366
VNNS
p367
sVLemma
p368
Vfolder
p369
saa(lp370
Vwith
p371
a(dp372
VNamedEntityTag
p373
g71
sVCharacterOffsetEnd
p374
V95
p375
sVCharacterOffsetBegin
p376
V91
p377
sVPartOfSpeech
p378
VIN
p379
sVLemma
p380
Vwith
p381
saa(lp382
g75
a(dp383
VNormalizedNamedEntityTag
p384
V7.0
p385
sVLemma
p386
g75
sVCharacterOffsetEnd
p387
V97
p388
sVPartOfSpeech
p389
VCD
p390
sVCharacterOffsetBegin
p391
V96
p392
sVNamedEntityTag
p393
VNUMBER
p394
saa(lp395
Vfiles
p396
a(dp397
VNamedEntityTag
p398
g71
sVCharacterOffsetEnd
p399
V103
p400
sVCharacterOffsetBegin
p401
V98
p402
sVPartOfSpeech
p403
VNNS
p404
sVLemma
p405
Vfile
p406
saa(lp407
Vin
p408
a(dp409
VNamedEntityTag
p410
g71
sVCharacterOffsetEnd
p411
V106
p412
sVCharacterOffsetBegin
p413
V104
p414
sVPartOfSpeech
p415
VIN
p416
sVLemma
p417
Vin
p418
saa(lp419
Veach
p420
a(dp421
VNamedEntityTag
p422
g71
sVCharacterOffsetEnd
p423
V111
p424
sVCharacterOffsetBegin
p425
V107
p426
sVPartOfSpeech
p427
VDT
p428
sVLemma
p429
Veach
p430
saa(lp431
Vone
p432
a(dp433
VNormalizedNamedEntityTag
p434
V1.0
p435
sVLemma
p436
Vone
p437
sVCharacterOffsetEnd
p438
V115
p439
sVPartOfSpeech
p440
VCD
p441
sVCharacterOffsetBegin
p442
V112
p443
sVNamedEntityTag
p444
VNUMBER
p445
saa(lp446
g144
a(dp447
VNamedEntityTag
p448
g71
sVCharacterOffsetEnd
p449
V117
p450
sVCharacterOffsetBegin
p451
V116
p452
sVPartOfSpeech
p453
g144
sVLemma
p454
g144
saasVindexeddependencies
p455
(lp456
(lp457
Vroot
p458
aVROOT-0
p459
aVdeleted-2
p460
aa(lp461
Vnsubj
p462
aVdeleted-2
p463
aVShe-1
p464
aa(lp465
Vdobj
p466
aVdeleted-2
p467
aV31-3
p468
aa(lp469
Vprep_of
p470
aV31-3
p471
aVthem-5
p472
aa(lp473
Vconj_and
p474
aVdeleted-2
p475
aVput-7
p476
aa(lp477
Vdet
p478
aVrest-9
p479
aVthe-8
p480
aa(lp481
Vdobj
p482
aVput-7
p483
aVrest-9
p484
aa(lp485
Vprep_into
p486
aVput-7
p487
aVfolders-11
p488
aa(lp489
Vnum
p490
aVfiles-14
p491
aV7-13
p492
aa(lp493
Vprep_with
p494
aVfolders-11
p495
aVfiles-14
p496
aa(lp497
Vdet
p498
aVone-17
p499
aVeach-16
p500
aa(lp501
Vprep_in
p502
aVfiles-14
p503
aVone-17
p504
aasa(dp505
Vparsetree
p506
V(ROOT (SBARQ (WHNP (WHADJP (WRB How) (JJ many)) (NNS folders)) (SQ (VBD did) (NP (NNP Nancy)) (VP (VB end) (PRT (RP up)) (PP (IN with)))) (. ?)))
p507
sVtext
p508
VHow many folders did Nancy end up with ?
p509
sVdependencies
p510
(lp511
(lp512
Vroot
p513
aVROOT
p514
aVend
p515
aa(lp516
Vadvmod
p517
aVmany
p518
aVHow
p519
aa(lp520
Vamod
p521
aVfolders
p522
aVmany
p523
aa(lp524
Vprep_with
p525
aVend
p526
aVfolders
p527
aa(lp528
Vaux
p529
aVend
p530
aVdid
p531
aa(lp532
Vnsubj
p533
aVend
p534
aVNancy
p535
aa(lp536
Vprt
p537
aVend
p538
aVup
p539
aasVwords
p540
(lp541
(lp542
VHow
p543
a(dp544
VNamedEntityTag
p545
g71
sVCharacterOffsetEnd
p546
V121
p547
sVCharacterOffsetBegin
p548
V118
p549
sVPartOfSpeech
p550
VWRB
p551
sVLemma
p552
Vhow
p553
saa(lp554
Vmany
p555
a(dp556
VNamedEntityTag
p557
g71
sVCharacterOffsetEnd
p558
V126
p559
sVCharacterOffsetBegin
p560
V122
p561
sVPartOfSpeech
p562
VJJ
p563
sVLemma
p564
Vmany
p565
saa(lp566
Vfolders
p567
a(dp568
VNamedEntityTag
p569
g71
sVCharacterOffsetEnd
p570
V134
p571
sVCharacterOffsetBegin
p572
V127
p573
sVPartOfSpeech
p574
VNNS
p575
sVLemma
p576
Vfolder
p577
saa(lp578
Vdid
p579
a(dp580
VNamedEntityTag
p581
g71
sVCharacterOffsetEnd
p582
V138
p583
sVCharacterOffsetBegin
p584
V135
p585
sVPartOfSpeech
p586
VVBD
p587
sVLemma
p588
Vdo
p589
saa(lp590
VNancy
p591
a(dp592
VNamedEntityTag
p593
VPERSON
p594
sVCharacterOffsetEnd
p595
V144
p596
sVCharacterOffsetBegin
p597
V139
p598
sVPartOfSpeech
p599
VNNP
p600
sVLemma
p601
VNancy
p602
saa(lp603
Vend
p604
a(dp605
VNamedEntityTag
p606
g71
sVCharacterOffsetEnd
p607
V148
p608
sVCharacterOffsetBegin
p609
V145
p610
sVPartOfSpeech
p611
VVB
p612
sVLemma
p613
Vend
p614
saa(lp615
Vup
p616
a(dp617
VNamedEntityTag
p618
g71
sVCharacterOffsetEnd
p619
V151
p620
sVCharacterOffsetBegin
p621
V149
p622
sVPartOfSpeech
p623
VRP
p624
sVLemma
p625
Vup
p626
saa(lp627
Vwith
p628
a(dp629
VNamedEntityTag
p630
g71
sVCharacterOffsetEnd
p631
V156
p632
sVCharacterOffsetBegin
p633
V152
p634
sVPartOfSpeech
p635
VIN
p636
sVLemma
p637
Vwith
p638
saa(lp639
V?
p640
a(dp641
VNamedEntityTag
p642
g71
sVCharacterOffsetEnd
p643
V158
p644
sVCharacterOffsetBegin
p645
V157
p646
sVPartOfSpeech
p647
g144
sVLemma
p648
g640
saasVindexeddependencies
p649
(lp650
(lp651
Vroot
p652
aVROOT-0
p653
aVend-6
p654
aa(lp655
Vadvmod
p656
aVmany-2
p657
aVHow-1
p658
aa(lp659
Vamod
p660
aVfolders-3
p661
aVmany-2
p662
aa(lp663
Vprep_with
p664
aVend-6
p665
aVfolders-3
p666
aa(lp667
Vaux
p668
aVend-6
p669
aVdid-4
p670
aa(lp671
Vnsubj
p672
aVend-6
p673
aVNancy-5
p674
aa(lp675
Vprt
p676
aVend-6
p677
aVup-7
p678
aasas.