(dp0
Vcoref
p1
(lp2
(lp3
(lp4
(lp5
Vthem
p6
aI1
aI5
aI5
aI6
aa(lp7
V60 students
p8
aI0
aI8
aI7
aI9
aaaasVsentences
p9
(lp10
(dp11
Vparsetree
p12
V(ROOT (S (PP (IN In) (NP (NP (NNP Steve) (POS 's)) (NN grade))) (, ,) (NP (EX there)) (VP (VBP are) (NP (CD 60) (NNS students))) (. .)))
p13
sVtext
p14
VIn Steve's grade , there are 60 students .
p15
sVdependencies
p16
(lp17
(lp18
Vroot
p19
aVROOT
p20
aVare
p21
aa(lp22
Vposs
p23
aVgrade
p24
aVSteve
p25
aa(lp26
Vprep_in
p27
aVare
p28
aVgrade
p29
aa(lp30
Vexpl
p31
aVare
p32
aVthere
p33
aa(lp34
Vnum
p35
aVstudents
p36
aV60
p37
aa(lp38
Vnsubj
p39
aVare
p40
aVstudents
p41
aasVwords
p42
(lp43
(lp44
VIn
p45
a(dp46
VNamedEntityTag
p47
VO
p48
sVCharacterOffsetEnd
p49
V3
p50
sVCharacterOffsetBegin
p51
V1
p52
sVPartOfSpeech
p53
VIN
p54
sVLemma
p55
Vin
p56
saa(lp57
VSteve
p58
a(dp59
VNamedEntityTag
p60
VPERSON
p61
sVCharacterOffsetEnd
p62
V9
p63
sVCharacterOffsetBegin
p64
V4
p65
sVPartOfSpeech
p66
VNNP
p67
sVLemma
p68
VSteve
p69
saa(lp70
V's
p71
a(dp72
VNamedEntityTag
p73
g48
sVCharacterOffsetEnd
p74
V11
p75
sVCharacterOffsetBegin
p76
g63
sVPartOfSpeech
p77
VPOS
p78
sVLemma
p79
V's
p80
saa(lp81
Vgrade
p82
a(dp83
VNamedEntityTag
p84
g48
sVCharacterOffsetEnd
p85
V17
p86
sVCharacterOffsetBegin
p87
V12
p88
sVPartOfSpeech
p89
VNN
p90
sVLemma
p91
Vgrade
p92
saa(lp93
V,
p94
a(dp95
VNamedEntityTag
p96
g48
sVCharacterOffsetEnd
p97
V19
p98
sVCharacterOffsetBegin
p99
V18
p100
sVPartOfSpeech
p101
g94
sVLemma
p102
g94
saa(lp103
Vthere
p104
a(dp105
VNamedEntityTag
p106
g48
sVCharacterOffsetEnd
p107
V25
p108
sVCharacterOffsetBegin
p109
V20
p110
sVPartOfSpeech
p111
VEX
p112
sVLemma
p113
Vthere
p114
saa(lp115
Vare
p116
a(dp117
VNamedEntityTag
p118
g48
sVCharacterOffsetEnd
p119
V29
p120
sVCharacterOffsetBegin
p121
V26
p122
sVPartOfSpeech
p123
VVBP
p124
sVLemma
p125
Vbe
p126
saa(lp127
V60
p128
a(dp129
VNormalizedNamedEntityTag
p130
V60.0
p131
sVLemma
p132
V60
p133
sVCharacterOffsetEnd
p134
V32
p135
sVPartOfSpeech
p136
VCD
p137
sVCharacterOffsetBegin
p138
V30
p139
sVNamedEntityTag
p140
VNUMBER
p141
saa(lp142
Vstudents
p143
a(dp144
VNamedEntityTag
p145
g48
sVCharacterOffsetEnd
p146
V41
p147
sVCharacterOffsetBegin
p148
V33
p149
sVPartOfSpeech
p150
VNNS
p151
sVLemma
p152
Vstudent
p153
saa(lp154
V.
p155
a(dp156
VNamedEntityTag
p157
g48
sVCharacterOffsetEnd
p158
V43
p159
sVCharacterOffsetBegin
p160
V42
p161
sVPartOfSpeech
p162
g155
sVLemma
p163
g155
saasVindexeddependencies
p164
(lp165
(lp166
Vroot
p167
aVROOT-0
p168
aVare-7
p169
aa(lp170
Vposs
p171
aVgrade-4
p172
aVSteve-2
p173
aa(lp174
Vprep_in
p175
aVare-7
p176
aVgrade-4
p177
aa(lp178
Vexpl
p179
aVare-7
p180
aVthere-6
p181
aa(lp182
Vnum
p183
aVstudents-9
p184
aV60-8
p185
aa(lp186
Vnsubj
p187
aVare-7
p188
aVstudents-9
p189
aasa(dp190
Vparsetree
p191
V(ROOT (S (ADVP (RB Currently)) (, ,) (NP (NP (CD 0.7) (NNS times)) (PP (IN of) (NP (PRP them)))) (VP (VBP are) (VP (VBN enrolled) (PP (IN in) (NP (NN health))))) (. .)))
p192
sVtext
p193
VCurrently , 0.7 times of them are enrolled in health .
p194
sVdependencies
p195
(lp196
(lp197
Vroot
p198
aVROOT
p199
aVenrolled
p200
aa(lp201
Vadvmod
p202
aVenrolled
p203
aVCurrently
p204
aa(lp205
Vnum
p206
aVtimes
p207
aV0.7
p208
aa(lp209
Vnsubjpass
p210
aVenrolled
p211
aVtimes
p212
aa(lp213
Vprep_of
p214
aVtimes
p215
aVthem
p216
aa(lp217
Vauxpass
p218
aVenrolled
p219
aVare
p220
aa(lp221
Vprep_in
p222
aVenrolled
p223
aVhealth
p224
aasVwords
p225
(lp226
(lp227
VCurrently
p228
a(dp229
VNormalizedNamedEntityTag
p230
VPRESENT_REF
p231
sVTimex
p232
V<TIMEX3 tid="t1" type="DATE" value="PRESENT_REF">Currently</TIMEX3>
p233
sVLemma
p234
Vcurrently
p235
sVCharacterOffsetEnd
p236
V53
p237
sVPartOfSpeech
p238
VRB
p239
sVCharacterOffsetBegin
p240
V44
p241
sVNamedEntityTag
p242
VDATE
p243
saa(lp244
g94
a(dp245
VNamedEntityTag
p246
g48
sVCharacterOffsetEnd
p247
V55
p248
sVCharacterOffsetBegin
p249
V54
p250
sVPartOfSpeech
p251
g94
sVLemma
p252
g94
saa(lp253
V0.7
p254
a(dp255
VNormalizedNamedEntityTag
p256
V0.7
p257
sVLemma
p258
V0.7
p259
sVCharacterOffsetEnd
p260
V59
p261
sVPartOfSpeech
p262
VCD
p263
sVCharacterOffsetBegin
p264
V56
p265
sVNamedEntityTag
p266
VNUMBER
p267
saa(lp268
Vtimes
p269
a(dp270
VNamedEntityTag
p271
g48
sVCharacterOffsetEnd
p272
V65
p273
sVCharacterOffsetBegin
p274
V60
p275
sVPartOfSpeech
p276
VNNS
p277
sVLemma
p278
Vtime
p279
saa(lp280
Vof
p281
a(dp282
VNamedEntityTag
p283
g48
sVCharacterOffsetEnd
p284
V68
p285
sVCharacterOffsetBegin
p286
V66
p287
sVPartOfSpeech
p288
VIN
p289
sVLemma
p290
Vof
p291
saa(lp292
Vthem
p293
a(dp294
VNamedEntityTag
p295
g48
sVCharacterOffsetEnd
p296
V73
p297
sVCharacterOffsetBegin
p298
V69
p299
sVPartOfSpeech
p300
VPRP
p301
sVLemma
p302
Vthey
p303
saa(lp304
Vare
p305
a(dp306
VNamedEntityTag
p307
g48
sVCharacterOffsetEnd
p308
V77
p309
sVCharacterOffsetBegin
p310
V74
p311
sVPartOfSpeech
p312
VVBP
p313
sVLemma
p314
Vbe
p315
saa(lp316
Venrolled
p317
a(dp318
VNamedEntityTag
p319
g48
sVCharacterOffsetEnd
p320
V86
p321
sVCharacterOffsetBegin
p322
V78
p323
sVPartOfSpeech
p324
VVBN
p325
sVLemma
p326
Venrol
p327
saa(lp328
Vin
p329
a(dp330
VNamedEntityTag
p331
g48
sVCharacterOffsetEnd
p332
V89
p333
sVCharacterOffsetBegin
p334
V87
p335
sVPartOfSpeech
p336
VIN
p337
sVLemma
p338
Vin
p339
saa(lp340
Vhealth
p341
a(dp342
VNamedEntityTag
p343
g48
sVCharacterOffsetEnd
p344
V96
p345
sVCharacterOffsetBegin
p346
V90
p347
sVPartOfSpeech
p348
VNN
p349
sVLemma
p350
Vhealth
p351
saa(lp352
g155
a(dp353
VNamedEntityTag
p354
g48
sVCharacterOffsetEnd
p355
V98
p356
sVCharacterOffsetBegin
p357
V97
p358
sVPartOfSpeech
p359
g155
sVLemma
p360
g155
saasVindexeddependencies
p361
(lp362
(lp363
Vroot
p364
aVROOT-0
p365
aVenrolled-8
p366
aa(lp367
Vadvmod
p368
aVenrolled-8
p369
aVCurrently-1
p370
aa(lp371
Vnum
p372
aVtimes-4
p373
aV0.7-3
p374
aa(lp375
Vnsubjpass
p376
aVenrolled-8
p377
aVtimes-4
p378
aa(lp379
Vprep_of
p380
aVtimes-4
p381
aVthem-6
p382
aa(lp383
Vauxpass
p384
aVenrolled-8
p385
aVare-7
p386
aa(lp387
Vprep_in
p388
aVenrolled-8
p389
aVhealth-10
p390
aasa(dp391
Vparsetree
p392
V(ROOT (SBARQ (WHNP (WHADJP (WRB How) (JJ many)) (NNS students)) (SQ (VBP are) (VP (VBN enrolled) (PP (IN in) (NP (NN health))))) (. ?)))
p393
sVtext
p394
VHow many students are enrolled in health ?
p395
sVdependencies
p396
(lp397
(lp398
Vroot
p399
aVROOT
p400
aVenrolled
p401
aa(lp402
Vadvmod
p403
aVmany
p404
aVHow
p405
aa(lp406
Vamod
p407
aVstudents
p408
aVmany
p409
aa(lp410
Vnsubjpass
p411
aVenrolled
p412
aVstudents
p413
aa(lp414
Vauxpass
p415
aVenrolled
p416
aVare
p417
aa(lp418
Vprep_in
p419
aVenrolled
p420
aVhealth
p421
aasVwords
p422
(lp423
(lp424
VHow
p425
a(dp426
VNamedEntityTag
p427
g48
sVCharacterOffsetEnd
p428
V102
p429
sVCharacterOffsetBegin
p430
V99
p431
sVPartOfSpeech
p432
VWRB
p433
sVLemma
p434
Vhow
p435
saa(lp436
Vmany
p437
a(dp438
VNamedEntityTag
p439
g48
sVCharacterOffsetEnd
p440
V107
p441
sVCharacterOffsetBegin
p442
V103
p443
sVPartOfSpeech
p444
VJJ
p445
sVLemma
p446
Vmany
p447
saa(lp448
Vstudents
p449
a(dp450
VNamedEntityTag
p451
g48
sVCharacterOffsetEnd
p452
V116
p453
sVCharacterOffsetBegin
p454
V108
p455
sVPartOfSpeech
p456
VNNS
p457
sVLemma
p458
Vstudent
p459
saa(lp460
Vare
p461
a(dp462
VNamedEntityTag
p463
g48
sVCharacterOffsetEnd
p464
V120
p465
sVCharacterOffsetBegin
p466
V117
p467
sVPartOfSpeech
p468
VVBP
p469
sVLemma
p470
Vbe
p471
saa(lp472
Venrolled
p473
a(dp474
VNamedEntityTag
p475
g48
sVCharacterOffsetEnd
p476
V129
p477
sVCharacterOffsetBegin
p478
V121
p479
sVPartOfSpeech
p480
VVBN
p481
sVLemma
p482
Venrol
p483
saa(lp484
Vin
p485
a(dp486
VNamedEntityTag
p487
g48
sVCharacterOffsetEnd
p488
V132
p489
sVCharacterOffsetBegin
p490
V130
p491
sVPartOfSpeech
p492
VIN
p493
sVLemma
p494
Vin
p495
saa(lp496
Vhealth
p497
a(dp498
VNamedEntityTag
p499
g48
sVCharacterOffsetEnd
p500
V139
p501
sVCharacterOffsetBegin
p502
V133
p503
sVPartOfSpeech
p504
VNN
p505
sVLemma
p506
Vhealth
p507
saa(lp508
V?
p509
a(dp510
VNamedEntityTag
p511
g48
sVCharacterOffsetEnd
p512
V141
p513
sVCharacterOffsetBegin
p514
V140
p515
sVPartOfSpeech
p516
g155
sVLemma
p517
g509
saasVindexeddependencies
p518
(lp519
(lp520
Vroot
p521
aVROOT-0
p522
aVenrolled-5
p523
aa(lp524
Vadvmod
p525
aVmany-2
p526
aVHow-1
p527
aa(lp528
Vamod
p529
aVstudents-3
p530
aVmany-2
p531
aa(lp532
Vnsubjpass
p533
aVenrolled-5
p534
aVstudents-3
p535
aa(lp536
Vauxpass
p537
aVenrolled-5
p538
aVare-4
p539
aa(lp540
Vprep_in
p541
aVenrolled-5
p542
aVhealth-7
p543
aasas.