(dp0
Vcoref
p1
(lp2
(lp3
(lp4
(lp5
Vhis
p6
aI1
aI1
aI1
aI2
aa(lp7
VOliver
p8
aI0
aI0
aI0
aI1
aaa(lp9
(lp10
Vhe
p11
aI1
aI3
aI3
aI4
aa(lp12
VOliver
p13
aI0
aI0
aI0
aI1
aaa(lp14
(lp15
Vhe
p16
aI2
aI4
aI4
aI5
aa(lp17
VOliver
p18
aI0
aI0
aI0
aI1
aaaasVsentences
p19
(lp20
(dp21
Vparsetree
p22
V(ROOT (S (NP (NNP Oliver)) (VP (VBD had) (NP (CD 35) (NNS dollars))) (. .)))
p23
sVtext
p24
VOliver had 35 dollars .
p25
sVdependencies
p26
(lp27
(lp28
Vroot
p29
aVROOT
p30
aVhad
p31
aa(lp32
Vnsubj
p33
aVhad
p34
aVOliver
p35
aa(lp36
Vnum
p37
aVdollars
p38
aV35
p39
aa(lp40
Vdobj
p41
aVhad
p42
aVdollars
p43
aasVwords
p44
(lp45
(lp46
VOliver
p47
a(dp48
VNamedEntityTag
p49
VPERSON
p50
sVCharacterOffsetEnd
p51
V7
p52
sVCharacterOffsetBegin
p53
V1
p54
sVPartOfSpeech
p55
VNNP
p56
sVLemma
p57
VOliver
p58
saa(lp59
Vhad
p60
a(dp61
VNamedEntityTag
p62
VO
p63
sVCharacterOffsetEnd
p64
V11
p65
sVCharacterOffsetBegin
p66
V8
p67
sVPartOfSpeech
p68
VVBD
p69
sVLemma
p70
Vhave
p71
saa(lp72
V35
p73
a(dp74
VNormalizedNamedEntityTag
p75
V$35.0
p76
sVLemma
p77
V35
p78
sVCharacterOffsetEnd
p79
V14
p80
sVPartOfSpeech
p81
VCD
p82
sVCharacterOffsetBegin
p83
V12
p84
sVNamedEntityTag
p85
VMONEY
p86
saa(lp87
Vdollars
p88
a(dp89
VNormalizedNamedEntityTag
p90
V$35.0
p91
sVLemma
p92
Vdollar
p93
sVCharacterOffsetEnd
p94
V22
p95
sVPartOfSpeech
p96
VNNS
p97
sVCharacterOffsetBegin
p98
V15
p99
sVNamedEntityTag
p100
VMONEY
p101
saa(lp102
V.
p103
a(dp104
VNamedEntityTag
p105
g63
sVCharacterOffsetEnd
p106
V24
p107
sVCharacterOffsetBegin
p108
V23
p109
sVPartOfSpeech
p110
g103
sVLemma
p111
g103
saasVindexeddependencies
p112
(lp113
(lp114
Vroot
p115
aVROOT-0
p116
aVhad-2
p117
aa(lp118
Vnsubj
p119
aVhad-2
p120
aVOliver-1
p121
aa(lp122
Vnum
p123
aVdollars-4
p124
aV35-3
p125
aa(lp126
Vdobj
p127
aVhad-2
p128
aVdollars-4
p129
aasa(dp130
Vparsetree
p131
V(ROOT (S (PP (IN For) (NP (PRP$ his) (NN birthday))) (NP (PRP he)) (VP (VP (VBD got) (NP (CD 50) (JJR more) (NNS dollars))) (CC but) (VP (VBD spent) (NP (CD 84)) (PP (IN on) (NP (DT a) (JJ new) (NN game))))) (. .)))
p132
sVtext
p133
VFor his birthday he got 50 more dollars but spent 84 on a new game .
p134
sVdependencies
p135
(lp136
(lp137
Vroot
p138
aVROOT
p139
aVgot
p140
aa(lp141
Vposs
p142
aVbirthday
p143
aVhis
p144
aa(lp145
Vprep_for
p146
aVgot
p147
aVbirthday
p148
aa(lp149
Vnsubj
p150
aVgot
p151
aVhe
p152
aa(lp153
Vnum
p154
aVdollars
p155
aV50
p156
aa(lp157
Vamod
p158
aVdollars
p159
aVmore
p160
aa(lp161
Vdobj
p162
aVgot
p163
aVdollars
p164
aa(lp165
Vconj_but
p166
aVgot
p167
aVspent
p168
aa(lp169
Vdobj
p170
aVspent
p171
aV84
p172
aa(lp173
Vdet
p174
aVgame
p175
aVa
p176
aa(lp177
Vamod
p178
aVgame
p179
aVnew
p180
aa(lp181
Vprep_on
p182
aVspent
p183
aVgame
p184
aasVwords
p185
(lp186
(lp187
VFor
p188
a(dp189
VNamedEntityTag
p190
g63
sVCharacterOffsetEnd
p191
V28
p192
sVCharacterOffsetBegin
p193
V25
p194
sVPartOfSpeech
p195
VIN
p196
sVLemma
p197
Vfor
p198
saa(lp199
Vhis
p200
a(dp201
VNamedEntityTag
p202
g63
sVCharacterOffsetEnd
p203
V32
p204
sVCharacterOffsetBegin
p205
V29
p206
sVPartOfSpeech
p207
VPRP$
p208
sVLemma
p209
Vhe
p210
saa(lp211
Vbirthday
p212
a(dp213
VNamedEntityTag
p214
g63
sVCharacterOffsetEnd
p215
V41
p216
sVCharacterOffsetBegin
p217
V33
p218
sVPartOfSpeech
p219
VNN
p220
sVLemma
p221
Vbirthday
p222
saa(lp223
Vhe
p224
a(dp225
VNamedEntityTag
p226
g63
sVCharacterOffsetEnd
p227
V44
p228
sVCharacterOffsetBegin
p229
V42
p230
sVPartOfSpeech
p231
VPRP
p232
sVLemma
p233
Vhe
p234
saa(lp235
Vgot
p236
a(dp237
VNamedEntityTag
p238
g63
sVCharacterOffsetEnd
p239
V48
p240
sVCharacterOffsetBegin
p241
V45
p242
sVPartOfSpeech
p243
VVBD
p244
sVLemma
p245
Vget
p246
saa(lp247
V50
p248
a(dp249
VNormalizedNamedEntityTag
p250
V50.0
p251
sVLemma
p252
V50
p253
sVCharacterOffsetEnd
p254
V51
p255
sVPartOfSpeech
p256
VCD
p257
sVCharacterOffsetBegin
p258
V49
p259
sVNamedEntityTag
p260
VNUMBER
p261
saa(lp262
Vmore
p263
a(dp264
VNamedEntityTag
p265
g63
sVCharacterOffsetEnd
p266
V56
p267
sVCharacterOffsetBegin
p268
V52
p269
sVPartOfSpeech
p270
VJJR
p271
sVLemma
p272
Vmore
p273
saa(lp274
Vdollars
p275
a(dp276
VNamedEntityTag
p277
g63
sVCharacterOffsetEnd
p278
V64
p279
sVCharacterOffsetBegin
p280
V57
p281
sVPartOfSpeech
p282
VNNS
p283
sVLemma
p284
Vdollar
p285
saa(lp286
Vbut
p287
a(dp288
VNamedEntityTag
p289
g63
sVCharacterOffsetEnd
p290
V68
p291
sVCharacterOffsetBegin
p292
V65
p293
sVPartOfSpeech
p294
VCC
p295
sVLemma
p296
Vbut
p297
saa(lp298
Vspent
p299
a(dp300
VNamedEntityTag
p301
g63
sVCharacterOffsetEnd
p302
V74
p303
sVCharacterOffsetBegin
p304
V69
p305
sVPartOfSpeech
p306
VVBD
p307
sVLemma
p308
Vspend
p309
saa(lp310
V84
p311
a(dp312
VNormalizedNamedEntityTag
p313
V84.0
p314
sVLemma
p315
V84
p316
sVCharacterOffsetEnd
p317
V77
p318
sVPartOfSpeech
p319
VCD
p320
sVCharacterOffsetBegin
p321
V75
p322
sVNamedEntityTag
p323
VNUMBER
p324
saa(lp325
Von
p326
a(dp327
VNamedEntityTag
p328
g63
sVCharacterOffsetEnd
p329
V80
p330
sVCharacterOffsetBegin
p331
V78
p332
sVPartOfSpeech
p333
VIN
p334
sVLemma
p335
Von
p336
saa(lp337
g176
a(dp338
VNamedEntityTag
p339
g63
sVCharacterOffsetEnd
p340
V82
p341
sVCharacterOffsetBegin
p342
V81
p343
sVPartOfSpeech
p344
VDT
p345
sVLemma
p346
g176
saa(lp347
Vnew
p348
a(dp349
VNamedEntityTag
p350
g63
sVCharacterOffsetEnd
p351
V86
p352
sVCharacterOffsetBegin
p353
V83
p354
sVPartOfSpeech
p355
VJJ
p356
sVLemma
p357
Vnew
p358
saa(lp359
Vgame
p360
a(dp361
VNamedEntityTag
p362
g63
sVCharacterOffsetEnd
p363
V91
p364
sVCharacterOffsetBegin
p365
V87
p366
sVPartOfSpeech
p367
VNN
p368
sVLemma
p369
Vgame
p370
saa(lp371
g103
a(dp372
VNamedEntityTag
p373
g63
sVCharacterOffsetEnd
p374
V93
p375
sVCharacterOffsetBegin
p376
V92
p377
sVPartOfSpeech
p378
g103
sVLemma
p379
g103
saasVindexeddependencies
p380
(lp381
(lp382
Vroot
p383
aVROOT-0
p384
aVgot-5
p385
aa(lp386
Vposs
p387
aVbirthday-3
p388
aVhis-2
p389
aa(lp390
Vprep_for
p391
aVgot-5
p392
aVbirthday-3
p393
aa(lp394
Vnsubj
p395
aVgot-5
p396
aVhe-4
p397
aa(lp398
Vnum
p399
aVdollars-8
p400
aV50-6
p401
aa(lp402
Vamod
p403
aVdollars-8
p404
aVmore-7
p405
aa(lp406
Vdobj
p407
aVgot-5
p408
aVdollars-8
p409
aa(lp410
Vconj_but
p411
aVgot-5
p412
aVspent-10
p413
aa(lp414
Vdobj
p415
aVspent-10
p416
aV84-11
p417
aa(lp418
Vdet
p419
aVgame-15
p420
aVa-13
p421
aa(lp422
Vamod
p423
aVgame-15
p424
aVnew-14
p425
aa(lp426
Vprep_on
p427
aVspent-10
p428
aVgame-15
p429
aasa(dp430
Vparsetree
p431
V(ROOT (SBARQ (WHNP (WHADJP (WRB How) (JJ much)) (NN money)) (SQ (VBZ does) (NP (PRP he)) (VP (VB have) (NP (RB now)))) (. ?)))
p432
sVtext
p433
VHow much money does he have now ?
p434
sVdependencies
p435
(lp436
(lp437
Vroot
p438
aVROOT
p439
aVhave
p440
aa(lp441
Vadvmod
p442
aVmuch
p443
aVHow
p444
aa(lp445
Vamod
p446
aVmoney
p447
aVmuch
p448
aa(lp449
Vdep
p450
aVhave
p451
aVmoney
p452
aa(lp453
Vaux
p454
aVhave
p455
aVdoes
p456
aa(lp457
Vnsubj
p458
aVhave
p459
aVhe
p460
aa(lp461
Vdobj
p462
aVhave
p463
aVnow
p464
aasVwords
p465
(lp466
(lp467
VHow
p468
a(dp469
VNamedEntityTag
p470
g63
sVCharacterOffsetEnd
p471
V97
p472
sVCharacterOffsetBegin
p473
V94
p474
sVPartOfSpeech
p475
VWRB
p476
sVLemma
p477
Vhow
p478
saa(lp479
Vmuch
p480
a(dp481
VNamedEntityTag
p482
g63
sVCharacterOffsetEnd
p483
V102
p484
sVCharacterOffsetBegin
p485
V98
p486
sVPartOfSpeech
p487
VJJ
p488
sVLemma
p489
Vmuch
p490
saa(lp491
Vmoney
p492
a(dp493
VNamedEntityTag
p494
g63
sVCharacterOffsetEnd
p495
V108
p496
sVCharacterOffsetBegin
p497
V103
p498
sVPartOfSpeech
p499
VNN
p500
sVLemma
p501
Vmoney
p502
saa(lp503
Vdoes
p504
a(dp505
VNamedEntityTag
p506
g63
sVCharacterOffsetEnd
p507
V113
p508
sVCharacterOffsetBegin
p509
V109
p510
sVPartOfSpeech
p511
VVBZ
p512
sVLemma
p513
Vdo
p514
saa(lp515
Vhe
p516
a(dp517
VNamedEntityTag
p518
g63
sVCharacterOffsetEnd
p519
V116
p520
sVCharacterOffsetBegin
p521
V114
p522
sVPartOfSpeech
p523
VPRP
p524
sVLemma
p525
Vhe
p526
saa(lp527
Vhave
p528
a(dp529
VNamedEntityTag
p530
g63
sVCharacterOffsetEnd
p531
V121
p532
sVCharacterOffsetBegin
p533
V117
p534
sVPartOfSpeech
p535
VVB
p536
sVLemma
p537
Vhave
p538
saa(lp539
Vnow
p540
a(dp541
VNormalizedNamedEntityTag
p542
VPRESENT_REF
p543
sVTimex
p544
V<TIMEX3 tid="t1" type="DATE" value="PRESENT_REF">now</TIMEX3>
p545
sVLemma
p546
Vnow
p547
sVCharacterOffsetEnd
p548
V125
p549
sVPartOfSpeech
p550
VRB
p551
sVCharacterOffsetBegin
p552
V122
p553
sVNamedEntityTag
p554
VDATE
p555
saa(lp556
V?
p557
a(dp558
VNamedEntityTag
p559
g63
sVCharacterOffsetEnd
p560
V127
p561
sVCharacterOffsetBegin
p562
V126
p563
sVPartOfSpeech
p564
g103
sVLemma
p565
g557
saasVindexeddependencies
p566
(lp567
(lp568
Vroot
p569
aVROOT-0
p570
aVhave-6
p571
aa(lp572
Vadvmod
p573
aVmuch-2
p574
aVHow-1
p575
aa(lp576
Vamod
p577
aVmoney-3
p578
aVmuch-2
p579
aa(lp580
Vdep
p581
aVhave-6
p582
aVmoney-3
p583
aa(lp584
Vaux
p585
aVhave-6
p586
aVdoes-4
p587
aa(lp588
Vnsubj
p589
aVhave-6
p590
aVhe-5
p591
aa(lp592
Vdobj
p593
aVhave-6
p594
aVnow-7
p595
aasas.