(dp0
Vcoref
p1
(lp2
(lp3
(lp4
(lp5
Vhis
p6
aI0
aI3
aI3
aI4
aa(lp7
VEdward
p8
aI0
aI0
aI0
aI1
aaa(lp9
(lp10
VHe
p11
aI1
aI0
aI0
aI1
aa(lp12
VEdward
p13
aI0
aI0
aI0
aI1
aaa(lp14
(lp15
VHe
p16
aI2
aI0
aI0
aI1
aa(lp17
VEdward
p18
aI0
aI0
aI0
aI1
aaa(lp19
(lp20
Vhe
p21
aI3
aI4
aI4
aI5
aa(lp22
VEdward
p23
aI0
aI0
aI0
aI1
aaaasVsentences
p24
(lp25
(dp26
Vparsetree
p27
V(ROOT (S (NP (NNP Edward)) (VP (VBD was) (VP (VBG selling) (NP (PRP$ his) (JJ old) (NNS games)))) (. .)))
p28
sVtext
p29
VEdward was selling his old games .
p30
sVdependencies
p31
(lp32
(lp33
Vroot
p34
aVROOT
p35
aVselling
p36
aa(lp37
Vnsubj
p38
aVselling
p39
aVEdward
p40
aa(lp41
Vaux
p42
aVselling
p43
aVwas
p44
aa(lp45
Vposs
p46
aVgames
p47
aVhis
p48
aa(lp49
Vamod
p50
aVgames
p51
aVold
p52
aa(lp53
Vdobj
p54
aVselling
p55
aVgames
p56
aasVwords
p57
(lp58
(lp59
VEdward
p60
a(dp61
VNamedEntityTag
p62
VPERSON
p63
sVCharacterOffsetEnd
p64
V7
p65
sVCharacterOffsetBegin
p66
V1
p67
sVPartOfSpeech
p68
VNNP
p69
sVLemma
p70
VEdward
p71
saa(lp72
Vwas
p73
a(dp74
VNamedEntityTag
p75
VO
p76
sVCharacterOffsetEnd
p77
V11
p78
sVCharacterOffsetBegin
p79
V8
p80
sVPartOfSpeech
p81
VVBD
p82
sVLemma
p83
Vbe
p84
saa(lp85
Vselling
p86
a(dp87
VNamedEntityTag
p88
g76
sVCharacterOffsetEnd
p89
V19
p90
sVCharacterOffsetBegin
p91
V12
p92
sVPartOfSpeech
p93
VVBG
p94
sVLemma
p95
Vsell
p96
saa(lp97
Vhis
p98
a(dp99
VNamedEntityTag
p100
g76
sVCharacterOffsetEnd
p101
V23
p102
sVCharacterOffsetBegin
p103
V20
p104
sVPartOfSpeech
p105
VPRP$
p106
sVLemma
p107
Vhe
p108
saa(lp109
Vold
p110
a(dp111
VNamedEntityTag
p112
g76
sVCharacterOffsetEnd
p113
V27
p114
sVCharacterOffsetBegin
p115
V24
p116
sVPartOfSpeech
p117
VJJ
p118
sVLemma
p119
Vold
p120
saa(lp121
Vgames
p122
a(dp123
VNamedEntityTag
p124
g76
sVCharacterOffsetEnd
p125
V33
p126
sVCharacterOffsetBegin
p127
V28
p128
sVPartOfSpeech
p129
VNNS
p130
sVLemma
p131
Vgame
p132
saa(lp133
V.
p134
a(dp135
VNamedEntityTag
p136
g76
sVCharacterOffsetEnd
p137
V35
p138
sVCharacterOffsetBegin
p139
V34
p140
sVPartOfSpeech
p141
g134
sVLemma
p142
g134
saasVindexeddependencies
p143
(lp144
(lp145
Vroot
p146
aVROOT-0
p147
aVselling-3
p148
aa(lp149
Vnsubj
p150
aVselling-3
p151
aVEdward-1
p152
aa(lp153
Vaux
p154
aVselling-3
p155
aVwas-2
p156
aa(lp157
Vposs
p158
aVgames-6
p159
aVhis-4
p160
aa(lp161
Vamod
p162
aVgames-6
p163
aVold-5
p164
aa(lp165
Vdobj
p166
aVselling-3
p167
aVgames-6
p168
aasa(dp169
Vparsetree
p170
V(ROOT (S (NP (PRP He)) (VP (VP (VBD started) (PRT (RP out)) (PP (IN with) (NP (CD 35)))) (CC but) (VP (VBD sold) (NP (NP (CD 19)) (PP (IN of) (NP (PRP them)))))) (. .)))
p171
sVtext
p172
VHe started out with 35 but sold 19 of them .
p173
sVdependencies
p174
(lp175
(lp176
Vroot
p177
aVROOT
p178
aVstarted
p179
aa(lp180
Vnsubj
p181
aVstarted
p182
aVHe
p183
aa(lp184
Vprt
p185
aVstarted
p186
aVout
p187
aa(lp188
Vprep_with
p189
aVstarted
p190
aV35
p191
aa(lp192
Vconj_but
p193
aVstarted
p194
aVsold
p195
aa(lp196
Vdobj
p197
aVsold
p198
aV19
p199
aa(lp200
Vprep_of
p201
aV19
p202
aVthem
p203
aasVwords
p204
(lp205
(lp206
VHe
p207
a(dp208
VNamedEntityTag
p209
g76
sVCharacterOffsetEnd
p210
V38
p211
sVCharacterOffsetBegin
p212
V36
p213
sVPartOfSpeech
p214
VPRP
p215
sVLemma
p216
Vhe
p217
saa(lp218
Vstarted
p219
a(dp220
VNamedEntityTag
p221
g76
sVCharacterOffsetEnd
p222
V46
p223
sVCharacterOffsetBegin
p224
V39
p225
sVPartOfSpeech
p226
VVBD
p227
sVLemma
p228
Vstart
p229
saa(lp230
Vout
p231
a(dp232
VNamedEntityTag
p233
g76
sVCharacterOffsetEnd
p234
V50
p235
sVCharacterOffsetBegin
p236
V47
p237
sVPartOfSpeech
p238
VRP
p239
sVLemma
p240
Vout
p241
saa(lp242
Vwith
p243
a(dp244
VNamedEntityTag
p245
g76
sVCharacterOffsetEnd
p246
V55
p247
sVCharacterOffsetBegin
p248
V51
p249
sVPartOfSpeech
p250
VIN
p251
sVLemma
p252
Vwith
p253
saa(lp254
V35
p255
a(dp256
VNormalizedNamedEntityTag
p257
V35.0
p258
sVLemma
p259
V35
p260
sVCharacterOffsetEnd
p261
V58
p262
sVPartOfSpeech
p263
VCD
p264
sVCharacterOffsetBegin
p265
V56
p266
sVNamedEntityTag
p267
VNUMBER
p268
saa(lp269
Vbut
p270
a(dp271
VNamedEntityTag
p272
g76
sVCharacterOffsetEnd
p273
V62
p274
sVCharacterOffsetBegin
p275
V59
p276
sVPartOfSpeech
p277
VCC
p278
sVLemma
p279
Vbut
p280
saa(lp281
Vsold
p282
a(dp283
VNamedEntityTag
p284
g76
sVCharacterOffsetEnd
p285
V67
p286
sVCharacterOffsetBegin
p287
V63
p288
sVPartOfSpeech
p289
VVBD
p290
sVLemma
p291
Vsell
p292
saa(lp293
V19
p294
a(dp295
VNormalizedNamedEntityTag
p296
V19.0
p297
sVLemma
p298
V19
p299
sVCharacterOffsetEnd
p300
V70
p301
sVPartOfSpeech
p302
VCD
p303
sVCharacterOffsetBegin
p304
V68
p305
sVNamedEntityTag
p306
VNUMBER
p307
saa(lp308
Vof
p309
a(dp310
VNamedEntityTag
p311
g76
sVCharacterOffsetEnd
p312
V73
p313
sVCharacterOffsetBegin
p314
V71
p315
sVPartOfSpeech
p316
VIN
p317
sVLemma
p318
Vof
p319
saa(lp320
Vthem
p321
a(dp322
VNamedEntityTag
p323
g76
sVCharacterOffsetEnd
p324
V78
p325
sVCharacterOffsetBegin
p326
V74
p327
sVPartOfSpeech
p328
VPRP
p329
sVLemma
p330
Vthey
p331
saa(lp332
g134
a(dp333
VNamedEntityTag
p334
g76
sVCharacterOffsetEnd
p335
V80
p336
sVCharacterOffsetBegin
p337
V79
p338
sVPartOfSpeech
p339
g134
sVLemma
p340
g134
saasVindexeddependencies
p341
(lp342
(lp343
Vroot
p344
aVROOT-0
p345
aVstarted-2
p346
aa(lp347
Vnsubj
p348
aVstarted-2
p349
aVHe-1
p350
aa(lp351
Vprt
p352
aVstarted-2
p353
aVout-3
p354
aa(lp355
Vprep_with
p356
aVstarted-2
p357
aV35-5
p358
aa(lp359
Vconj_but
p360
aVstarted-2
p361
aVsold-7
p362
aa(lp363
Vdobj
p364
aVsold-7
p365
aV19-8
p366
aa(lp367
Vprep_of
p368
aV19-8
p369
aVthem-10
p370
aasa(dp371
Vparsetree
p372
V(ROOT (S (NP (PRP He)) (VP (VBD packed) (NP (DT the) (NN rest)) (PRT (RP up)) (S (VP (VBG putting) (NP (CD 8) (NNS games)))) (PP (IN into) (NP (DT each) (NN box)))) (. .)))
p373
sVtext
p374
VHe packed the rest up putting 8 games into each box .
p375
sVdependencies
p376
(lp377
(lp378
Vroot
p379
aVROOT
p380
aVpacked
p381
aa(lp382
Vnsubj
p383
aVpacked
p384
aVHe
p385
aa(lp386
Vdet
p387
aVrest
p388
aVthe
p389
aa(lp390
Vdobj
p391
aVpacked
p392
aVrest
p393
aa(lp394
Vprt
p395
aVpacked
p396
aVup
p397
aa(lp398
Vxcomp
p399
aVpacked
p400
aVputting
p401
aa(lp402
Vnum
p403
aVgames
p404
ag80
aa(lp405
Vdobj
p406
aVputting
p407
aVgames
p408
aa(lp409
Vdet
p410
aVbox
p411
aVeach
p412
aa(lp413
Vprep_into
p414
aVpacked
p415
aVbox
p416
aasVwords
p417
(lp418
(lp419
VHe
p420
a(dp421
VNamedEntityTag
p422
g76
sVCharacterOffsetEnd
p423
V83
p424
sVCharacterOffsetBegin
p425
V81
p426
sVPartOfSpeech
p427
VPRP
p428
sVLemma
p429
Vhe
p430
saa(lp431
Vpacked
p432
a(dp433
VNamedEntityTag
p434
g76
sVCharacterOffsetEnd
p435
V90
p436
sVCharacterOffsetBegin
p437
V84
p438
sVPartOfSpeech
p439
VVBD
p440
sVLemma
p441
Vpack
p442
saa(lp443
Vthe
p444
a(dp445
VNamedEntityTag
p446
g76
sVCharacterOffsetEnd
p447
V94
p448
sVCharacterOffsetBegin
p449
V91
p450
sVPartOfSpeech
p451
VDT
p452
sVLemma
p453
Vthe
p454
saa(lp455
Vrest
p456
a(dp457
VNamedEntityTag
p458
g76
sVCharacterOffsetEnd
p459
V99
p460
sVCharacterOffsetBegin
p461
V95
p462
sVPartOfSpeech
p463
VNN
p464
sVLemma
p465
Vrest
p466
saa(lp467
Vup
p468
a(dp469
VNamedEntityTag
p470
g76
sVCharacterOffsetEnd
p471
V102
p472
sVCharacterOffsetBegin
p473
V100
p474
sVPartOfSpeech
p475
VRP
p476
sVLemma
p477
Vup
p478
saa(lp479
Vputting
p480
a(dp481
VNamedEntityTag
p482
g76
sVCharacterOffsetEnd
p483
V110
p484
sVCharacterOffsetBegin
p485
V103
p486
sVPartOfSpeech
p487
VVBG
p488
sVLemma
p489
Vput
p490
saa(lp491
g80
a(dp492
VNormalizedNamedEntityTag
p493
V8.0
p494
sVLemma
p495
g80
sVCharacterOffsetEnd
p496
V112
p497
sVPartOfSpeech
p498
VCD
p499
sVCharacterOffsetBegin
p500
V111
p501
sVNamedEntityTag
p502
VNUMBER
p503
saa(lp504
Vgames
p505
a(dp506
VNamedEntityTag
p507
g76
sVCharacterOffsetEnd
p508
V118
p509
sVCharacterOffsetBegin
p510
V113
p511
sVPartOfSpeech
p512
VNNS
p513
sVLemma
p514
Vgame
p515
saa(lp516
Vinto
p517
a(dp518
VNamedEntityTag
p519
g76
sVCharacterOffsetEnd
p520
V123
p521
sVCharacterOffsetBegin
p522
V119
p523
sVPartOfSpeech
p524
VIN
p525
sVLemma
p526
Vinto
p527
saa(lp528
Veach
p529
a(dp530
VNamedEntityTag
p531
g76
sVCharacterOffsetEnd
p532
V128
p533
sVCharacterOffsetBegin
p534
V124
p535
sVPartOfSpeech
p536
VDT
p537
sVLemma
p538
Veach
p539
saa(lp540
Vbox
p541
a(dp542
VNamedEntityTag
p543
g76
sVCharacterOffsetEnd
p544
V132
p545
sVCharacterOffsetBegin
p546
V129
p547
sVPartOfSpeech
p548
VNN
p549
sVLemma
p550
Vbox
p551
saa(lp552
g134
a(dp553
VNamedEntityTag
p554
g76
sVCharacterOffsetEnd
p555
V134
p556
sVCharacterOffsetBegin
p557
V133
p558
sVPartOfSpeech
p559
g134
sVLemma
p560
g134
saasVindexeddependencies
p561
(lp562
(lp563
Vroot
p564
aVROOT-0
p565
aVpacked-2
p566
aa(lp567
Vnsubj
p568
aVpacked-2
p569
aVHe-1
p570
aa(lp571
Vdet
p572
aVrest-4
p573
aVthe-3
p574
aa(lp575
Vdobj
p576
aVpacked-2
p577
aVrest-4
p578
aa(lp579
Vprt
p580
aVpacked-2
p581
aVup-5
p582
aa(lp583
Vxcomp
p584
aVpacked-2
p585
aVputting-6
p586
aa(lp587
Vnum
p588
aVgames-8
p589
aV8-7
p590
aa(lp591
Vdobj
p592
aVputting-6
p593
aVgames-8
p594
aa(lp595
Vdet
p596
aVbox-11
p597
aVeach-10
p598
aa(lp599
Vprep_into
p600
aVpacked-2
p601
aVbox-11
p602
aasa(dp603
Vparsetree
p604
V(ROOT (SBARQ (WHNP (WHADJP (WRB How) (JJ many)) (NNS boxes)) (SQ (VBD did) (NP (PRP he)) (VP (VB have) (S (VP (TO to) (VP (VB use)))))) (. ?)))
p605
sVtext
p606
VHow many boxes did he have to use ?
p607
sVdependencies
p608
(lp609
(lp610
Vroot
p611
aVROOT
p612
aVhave
p613
aa(lp614
Vadvmod
p615
aVmany
p616
aVHow
p617
aa(lp618
Vamod
p619
aVboxes
p620
aVmany
p621
aa(lp622
Vdep
p623
aVhave
p624
aVboxes
p625
aa(lp626
Vaux
p627
aVhave
p628
aVdid
p629
aa(lp630
Vnsubj
p631
aVhave
p632
aVhe
p633
aa(lp634
Vaux
p635
aVuse
p636
aVto
p637
aa(lp638
Vxcomp
p639
aVhave
p640
aVuse
p641
aasVwords
p642
(lp643
(lp644
VHow
p645
a(dp646
VNamedEntityTag
p647
g76
sVCharacterOffsetEnd
p648
V138
p649
sVCharacterOffsetBegin
p650
V135
p651
sVPartOfSpeech
p652
VWRB
p653
sVLemma
p654
Vhow
p655
saa(lp656
Vmany
p657
a(dp658
VNamedEntityTag
p659
g76
sVCharacterOffsetEnd
p660
V143
p661
sVCharacterOffsetBegin
p662
V139
p663
sVPartOfSpeech
p664
VJJ
p665
sVLemma
p666
Vmany
p667
saa(lp668
Vboxes
p669
a(dp670
VNamedEntityTag
p671
g76
sVCharacterOffsetEnd
p672
V149
p673
sVCharacterOffsetBegin
p674
V144
p675
sVPartOfSpeech
p676
VNNS
p677
sVLemma
p678
Vbox
p679
saa(lp680
Vdid
p681
a(dp682
VNamedEntityTag
p683
g76
sVCharacterOffsetEnd
p684
V153
p685
sVCharacterOffsetBegin
p686
V150
p687
sVPartOfSpeech
p688
VVBD
p689
sVLemma
p690
Vdo
p691
saa(lp692
Vhe
p693
a(dp694
VNamedEntityTag
p695
g76
sVCharacterOffsetEnd
p696
V156
p697
sVCharacterOffsetBegin
p698
V154
p699
sVPartOfSpeech
p700
VPRP
p701
sVLemma
p702
Vhe
p703
saa(lp704
Vhave
p705
a(dp706
VNamedEntityTag
p707
g76
sVCharacterOffsetEnd
p708
V161
p709
sVCharacterOffsetBegin
p710
V157
p711
sVPartOfSpeech
p712
VVB
p713
sVLemma
p714
Vhave
p715
saa(lp716
Vto
p717
a(dp718
VNamedEntityTag
p719
g76
sVCharacterOffsetEnd
p720
V164
p721
sVCharacterOffsetBegin
p722
V162
p723
sVPartOfSpeech
p724
VTO
p725
sVLemma
p726
Vto
p727
saa(lp728
Vuse
p729
a(dp730
VNamedEntityTag
p731
g76
sVCharacterOffsetEnd
p732
V168
p733
sVCharacterOffsetBegin
p734
V165
p735
sVPartOfSpeech
p736
VVB
p737
sVLemma
p738
Vuse
p739
saa(lp740
V?
p741
a(dp742
VNamedEntityTag
p743
g76
sVCharacterOffsetEnd
p744
V170
p745
sVCharacterOffsetBegin
p746
V169
p747
sVPartOfSpeech
p748
g134
sVLemma
p749
g741
saasVindexeddependencies
p750
(lp751
(lp752
Vroot
p753
aVROOT-0
p754
aVhave-6
p755
aa(lp756
Vadvmod
p757
aVmany-2
p758
aVHow-1
p759
aa(lp760
Vamod
p761
aVboxes-3
p762
aVmany-2
p763
aa(lp764
Vdep
p765
aVhave-6
p766
aVboxes-3
p767
aa(lp768
Vaux
p769
aVhave-6
p770
aVdid-4
p771
aa(lp772
Vnsubj
p773
aVhave-6
p774
aVhe-5
p775
aa(lp776
Vaux
p777
aVuse-8
p778
aVto-7
p779
aa(lp780
Vxcomp
p781
aVhave-6
p782
aVuse-8
p783
aasas.