(dp0
Vcoref
p1
(lp2
(lp3
(lp4
(lp5
VHe
p6
aI1
aI0
aI0
aI1
aa(lp7
VKaleb
p8
aI0
aI0
aI0
aI1
aaaa(lp9
(lp10
(lp11
Vpieces of clothing
p12
aI2
aI2
aI2
aI5
aa(lp13
V39 pieces of clothing to wash
p14
aI0
aI3
aI2
aI8
aaaasVsentences
p15
(lp16
(dp17
Vparsetree
p18
V(ROOT (S (NP (NNP Kaleb)) (VP (VBD had) (NP (NP (CD 39) (NNS pieces)) (PP (IN of) (NP (NN clothing))) (S (VP (TO to) (VP (VB wash)))))) (. .)))
p19
sVtext
p20
VKaleb had 39 pieces of clothing to wash .
p21
sVdependencies
p22
(lp23
(lp24
Vroot
p25
aVROOT
p26
aVhad
p27
aa(lp28
Vnsubj
p29
aVhad
p30
aVKaleb
p31
aa(lp32
Vnum
p33
aVpieces
p34
aV39
p35
aa(lp36
Vdobj
p37
aVhad
p38
aVpieces
p39
aa(lp40
Vprep_of
p41
aVpieces
p42
aVclothing
p43
aa(lp44
Vaux
p45
aVwash
p46
aVto
p47
aa(lp48
Vvmod
p49
aVpieces
p50
aVwash
p51
aasVwords
p52
(lp53
(lp54
VKaleb
p55
a(dp56
VNamedEntityTag
p57
VPERSON
p58
sVCharacterOffsetEnd
p59
V6
p60
sVCharacterOffsetBegin
p61
V1
p62
sVPartOfSpeech
p63
VNNP
p64
sVLemma
p65
VKaleb
p66
saa(lp67
Vhad
p68
a(dp69
VNamedEntityTag
p70
VO
p71
sVCharacterOffsetEnd
p72
V10
p73
sVCharacterOffsetBegin
p74
V7
p75
sVPartOfSpeech
p76
VVBD
p77
sVLemma
p78
Vhave
p79
saa(lp80
V39
p81
a(dp82
VNormalizedNamedEntityTag
p83
V39.0
p84
sVLemma
p85
V39
p86
sVCharacterOffsetEnd
p87
V13
p88
sVPartOfSpeech
p89
VCD
p90
sVCharacterOffsetBegin
p91
V11
p92
sVNamedEntityTag
p93
VNUMBER
p94
saa(lp95
Vpieces
p96
a(dp97
VNamedEntityTag
p98
g71
sVCharacterOffsetEnd
p99
V20
p100
sVCharacterOffsetBegin
p101
V14
p102
sVPartOfSpeech
p103
VNNS
p104
sVLemma
p105
Vpiece
p106
saa(lp107
Vof
p108
a(dp109
VNamedEntityTag
p110
g71
sVCharacterOffsetEnd
p111
V23
p112
sVCharacterOffsetBegin
p113
V21
p114
sVPartOfSpeech
p115
VIN
p116
sVLemma
p117
Vof
p118
saa(lp119
Vclothing
p120
a(dp121
VNamedEntityTag
p122
g71
sVCharacterOffsetEnd
p123
V32
p124
sVCharacterOffsetBegin
p125
V24
p126
sVPartOfSpeech
p127
VNN
p128
sVLemma
p129
Vclothing
p130
saa(lp131
Vto
p132
a(dp133
VNamedEntityTag
p134
g71
sVCharacterOffsetEnd
p135
V35
p136
sVCharacterOffsetBegin
p137
V33
p138
sVPartOfSpeech
p139
VTO
p140
sVLemma
p141
Vto
p142
saa(lp143
Vwash
p144
a(dp145
VNamedEntityTag
p146
g71
sVCharacterOffsetEnd
p147
V40
p148
sVCharacterOffsetBegin
p149
V36
p150
sVPartOfSpeech
p151
VVB
p152
sVLemma
p153
Vwash
p154
saa(lp155
V.
p156
a(dp157
VNamedEntityTag
p158
g71
sVCharacterOffsetEnd
p159
V42
p160
sVCharacterOffsetBegin
p161
V41
p162
sVPartOfSpeech
p163
g156
sVLemma
p164
g156
saasVindexeddependencies
p165
(lp166
(lp167
Vroot
p168
aVROOT-0
p169
aVhad-2
p170
aa(lp171
Vnsubj
p172
aVhad-2
p173
aVKaleb-1
p174
aa(lp175
Vnum
p176
aVpieces-4
p177
aV39-3
p178
aa(lp179
Vdobj
p180
aVhad-2
p181
aVpieces-4
p182
aa(lp183
Vprep_of
p184
aVpieces-4
p185
aVclothing-6
p186
aa(lp187
Vaux
p188
aVwash-8
p189
aVto-7
p190
aa(lp191
Vvmod
p192
aVpieces-4
p193
aVwash-8
p194
aasa(dp195
Vparsetree
p196
V(ROOT (S (NP (PRP He)) (VP (VP (VBD put) (NP (NP (CD 19)) (PP (IN of) (NP (PRP them)))) (PP (IN in) (NP (CD one) (NN load)))) (, ,) (CC but) (VP (VBD decided) (S (VP (TO to) (VP (VB split) (NP (DT the) (NN rest)) (PP (IN into) (NP (CD 5) (JJ equal) (NNS loads)))))))) (. .)))
p197
sVtext
p198
VHe put 19 of them in one load , but decided to split the rest into 5 equal loads .
p199
sVdependencies
p200
(lp201
(lp202
Vroot
p203
aVROOT
p204
aVput
p205
aa(lp206
Vnsubj
p207
aVput
p208
aVHe
p209
aa(lp210
Vdobj
p211
aVput
p212
aV19
p213
aa(lp214
Vprep_of
p215
aV19
p216
aVthem
p217
aa(lp218
Vnum
p219
aVload
p220
aVone
p221
aa(lp222
Vprep_in
p223
aVput
p224
aVload
p225
aa(lp226
Vconj_but
p227
aVput
p228
aVdecided
p229
aa(lp230
Vaux
p231
aVsplit
p232
aVto
p233
aa(lp234
Vxcomp
p235
aVdecided
p236
aVsplit
p237
aa(lp238
Vdet
p239
aVrest
p240
aVthe
p241
aa(lp242
Vdobj
p243
aVsplit
p244
aVrest
p245
aa(lp246
Vnum
p247
aVloads
p248
aV5
p249
aa(lp250
Vamod
p251
aVloads
p252
aVequal
p253
aa(lp254
Vprep_into
p255
aVsplit
p256
aVloads
p257
aasVwords
p258
(lp259
(lp260
VHe
p261
a(dp262
VNamedEntityTag
p263
g71
sVCharacterOffsetEnd
p264
V45
p265
sVCharacterOffsetBegin
p266
V43
p267
sVPartOfSpeech
p268
VPRP
p269
sVLemma
p270
Vhe
p271
saa(lp272
Vput
p273
a(dp274
VNamedEntityTag
p275
g71
sVCharacterOffsetEnd
p276
V49
p277
sVCharacterOffsetBegin
p278
V46
p279
sVPartOfSpeech
p280
VVBD
p281
sVLemma
p282
Vput
p283
saa(lp284
V19
p285
a(dp286
VNormalizedNamedEntityTag
p287
V19.0
p288
sVLemma
p289
V19
p290
sVCharacterOffsetEnd
p291
V52
p292
sVPartOfSpeech
p293
VCD
p294
sVCharacterOffsetBegin
p295
V50
p296
sVNamedEntityTag
p297
VNUMBER
p298
saa(lp299
Vof
p300
a(dp301
VNamedEntityTag
p302
g71
sVCharacterOffsetEnd
p303
V55
p304
sVCharacterOffsetBegin
p305
V53
p306
sVPartOfSpeech
p307
VIN
p308
sVLemma
p309
Vof
p310
saa(lp311
Vthem
p312
a(dp313
VNamedEntityTag
p314
g71
sVCharacterOffsetEnd
p315
V60
p316
sVCharacterOffsetBegin
p317
V56
p318
sVPartOfSpeech
p319
VPRP
p320
sVLemma
p321
Vthey
p322
saa(lp323
Vin
p324
a(dp325
VNamedEntityTag
p326
g71
sVCharacterOffsetEnd
p327
V63
p328
sVCharacterOffsetBegin
p329
V61
p330
sVPartOfSpeech
p331
VIN
p332
sVLemma
p333
Vin
p334
saa(lp335
Vone
p336
a(dp337
VNormalizedNamedEntityTag
p338
V1.0
p339
sVLemma
p340
Vone
p341
sVCharacterOffsetEnd
p342
V67
p343
sVPartOfSpeech
p344
VCD
p345
sVCharacterOffsetBegin
p346
V64
p347
sVNamedEntityTag
p348
VNUMBER
p349
saa(lp350
Vload
p351
a(dp352
VNamedEntityTag
p353
g71
sVCharacterOffsetEnd
p354
V72
p355
sVCharacterOffsetBegin
p356
V68
p357
sVPartOfSpeech
p358
VNN
p359
sVLemma
p360
Vload
p361
saa(lp362
V,
p363
a(dp364
VNamedEntityTag
p365
g71
sVCharacterOffsetEnd
p366
V74
p367
sVCharacterOffsetBegin
p368
V73
p369
sVPartOfSpeech
p370
g363
sVLemma
p371
g363
saa(lp372
Vbut
p373
a(dp374
VNamedEntityTag
p375
g71
sVCharacterOffsetEnd
p376
V78
p377
sVCharacterOffsetBegin
p378
V75
p379
sVPartOfSpeech
p380
VCC
p381
sVLemma
p382
Vbut
p383
saa(lp384
Vdecided
p385
a(dp386
VNamedEntityTag
p387
g71
sVCharacterOffsetEnd
p388
V86
p389
sVCharacterOffsetBegin
p390
V79
p391
sVPartOfSpeech
p392
VVBD
p393
sVLemma
p394
Vdecide
p395
saa(lp396
Vto
p397
a(dp398
VNamedEntityTag
p399
g71
sVCharacterOffsetEnd
p400
V89
p401
sVCharacterOffsetBegin
p402
V87
p403
sVPartOfSpeech
p404
VTO
p405
sVLemma
p406
Vto
p407
saa(lp408
Vsplit
p409
a(dp410
VNamedEntityTag
p411
g71
sVCharacterOffsetEnd
p412
V95
p413
sVCharacterOffsetBegin
p414
V90
p415
sVPartOfSpeech
p416
VVB
p417
sVLemma
p418
Vsplit
p419
saa(lp420
Vthe
p421
a(dp422
VNamedEntityTag
p423
g71
sVCharacterOffsetEnd
p424
V99
p425
sVCharacterOffsetBegin
p426
V96
p427
sVPartOfSpeech
p428
VDT
p429
sVLemma
p430
Vthe
p431
saa(lp432
Vrest
p433
a(dp434
VNamedEntityTag
p435
g71
sVCharacterOffsetEnd
p436
V104
p437
sVCharacterOffsetBegin
p438
V100
p439
sVPartOfSpeech
p440
VNN
p441
sVLemma
p442
Vrest
p443
saa(lp444
Vinto
p445
a(dp446
VNamedEntityTag
p447
g71
sVCharacterOffsetEnd
p448
V109
p449
sVCharacterOffsetBegin
p450
V105
p451
sVPartOfSpeech
p452
VIN
p453
sVLemma
p454
Vinto
p455
saa(lp456
g249
a(dp457
VNormalizedNamedEntityTag
p458
V5.0
p459
sVLemma
p460
g249
sVCharacterOffsetEnd
p461
V111
p462
sVPartOfSpeech
p463
VCD
p464
sVCharacterOffsetBegin
p465
V110
p466
sVNamedEntityTag
p467
VNUMBER
p468
saa(lp469
Vequal
p470
a(dp471
VNamedEntityTag
p472
g71
sVCharacterOffsetEnd
p473
V117
p474
sVCharacterOffsetBegin
p475
V112
p476
sVPartOfSpeech
p477
VJJ
p478
sVLemma
p479
Vequal
p480
saa(lp481
Vloads
p482
a(dp483
VNamedEntityTag
p484
g71
sVCharacterOffsetEnd
p485
V123
p486
sVCharacterOffsetBegin
p487
V118
p488
sVPartOfSpeech
p489
VNNS
p490
sVLemma
p491
Vload
p492
saa(lp493
g156
a(dp494
VNamedEntityTag
p495
g71
sVCharacterOffsetEnd
p496
V125
p497
sVCharacterOffsetBegin
p498
V124
p499
sVPartOfSpeech
p500
g156
sVLemma
p501
g156
saasVindexeddependencies
p502
(lp503
(lp504
Vroot
p505
aVROOT-0
p506
aVput-2
p507
aa(lp508
Vnsubj
p509
aVput-2
p510
aVHe-1
p511
aa(lp512
Vdobj
p513
aVput-2
p514
aV19-3
p515
aa(lp516
Vprep_of
p517
aV19-3
p518
aVthem-5
p519
aa(lp520
Vnum
p521
aVload-8
p522
aVone-7
p523
aa(lp524
Vprep_in
p525
aVput-2
p526
aVload-8
p527
aa(lp528
Vconj_but
p529
aVput-2
p530
aVdecided-11
p531
aa(lp532
Vaux
p533
aVsplit-13
p534
aVto-12
p535
aa(lp536
Vxcomp
p537
aVdecided-11
p538
aVsplit-13
p539
aa(lp540
Vdet
p541
aVrest-15
p542
aVthe-14
p543
aa(lp544
Vdobj
p545
aVsplit-13
p546
aVrest-15
p547
aa(lp548
Vnum
p549
aVloads-19
p550
aV5-17
p551
aa(lp552
Vamod
p553
aVloads-19
p554
aVequal-18
p555
aa(lp556
Vprep_into
p557
aVsplit-13
p558
aVloads-19
p559
aasa(dp560
Vparsetree
p561
V(ROOT (SBARQ (WHNP (WHADJP (WRB How) (JJ many)) (NP (NP (NNS pieces)) (PP (IN of) (NP (NN clothing))))) (SQ (VP (MD could) (VP (VB go) (PP (IN in) (NP (NP (DT each)) (PP (IN of) (NP (DT the) (JJ small) (NNS loads)))))))) (. ?)))
p562
sVtext
p563
VHow many pieces of clothing could go in each of the small loads ?
p564
sVdependencies
p565
(lp566
(lp567
Vroot
p568
aVROOT
p569
aVgo
p570
aa(lp571
Vadvmod
p572
aVmany
p573
aVHow
p574
aa(lp575
Vamod
p576
aVpieces
p577
aVmany
p578
aa(lp579
Vnsubj
p580
aVgo
p581
aVpieces
p582
aa(lp583
Vprep_of
p584
aVpieces
p585
aVclothing
p586
aa(lp587
Vaux
p588
aVgo
p589
aVcould
p590
aa(lp591
Vprep_in
p592
aVgo
p593
aVeach
p594
aa(lp595
Vdet
p596
aVloads
p597
aVthe
p598
aa(lp599
Vamod
p600
aVloads
p601
aVsmall
p602
aa(lp603
Vprep_of
p604
aVeach
p605
aVloads
p606
aasVwords
p607
(lp608
(lp609
VHow
p610
a(dp611
VNamedEntityTag
p612
g71
sVCharacterOffsetEnd
p613
V129
p614
sVCharacterOffsetBegin
p615
V126
p616
sVPartOfSpeech
p617
VWRB
p618
sVLemma
p619
Vhow
p620
saa(lp621
Vmany
p622
a(dp623
VNamedEntityTag
p624
g71
sVCharacterOffsetEnd
p625
V134
p626
sVCharacterOffsetBegin
p627
V130
p628
sVPartOfSpeech
p629
VJJ
p630
sVLemma
p631
Vmany
p632
saa(lp633
Vpieces
p634
a(dp635
VNamedEntityTag
p636
g71
sVCharacterOffsetEnd
p637
V141
p638
sVCharacterOffsetBegin
p639
V135
p640
sVPartOfSpeech
p641
VNNS
p642
sVLemma
p643
Vpiece
p644
saa(lp645
Vof
p646
a(dp647
VNamedEntityTag
p648
g71
sVCharacterOffsetEnd
p649
V144
p650
sVCharacterOffsetBegin
p651
V142
p652
sVPartOfSpeech
p653
VIN
p654
sVLemma
p655
Vof
p656
saa(lp657
Vclothing
p658
a(dp659
VNamedEntityTag
p660
g71
sVCharacterOffsetEnd
p661
V153
p662
sVCharacterOffsetBegin
p663
V145
p664
sVPartOfSpeech
p665
VNN
p666
sVLemma
p667
Vclothing
p668
saa(lp669
Vcould
p670
a(dp671
VNamedEntityTag
p672
g71
sVCharacterOffsetEnd
p673
V159
p674
sVCharacterOffsetBegin
p675
V154
p676
sVPartOfSpeech
p677
VMD
p678
sVLemma
p679
Vcould
p680
saa(lp681
Vgo
p682
a(dp683
VNamedEntityTag
p684
g71
sVCharacterOffsetEnd
p685
V162
p686
sVCharacterOffsetBegin
p687
V160
p688
sVPartOfSpeech
p689
VVB
p690
sVLemma
p691
Vgo
p692
saa(lp693
Vin
p694
a(dp695
VNamedEntityTag
p696
g71
sVCharacterOffsetEnd
p697
V165
p698
sVCharacterOffsetBegin
p699
V163
p700
sVPartOfSpeech
p701
VIN
p702
sVLemma
p703
Vin
p704
saa(lp705
Veach
p706
a(dp707
VNamedEntityTag
p708
g71
sVCharacterOffsetEnd
p709
V170
p710
sVCharacterOffsetBegin
p711
V166
p712
sVPartOfSpeech
p713
VDT
p714
sVLemma
p715
Veach
p716
saa(lp717
Vof
p718
a(dp719
VNamedEntityTag
p720
g71
sVCharacterOffsetEnd
p721
V173
p722
sVCharacterOffsetBegin
p723
V171
p724
sVPartOfSpeech
p725
VIN
p726
sVLemma
p727
Vof
p728
saa(lp729
Vthe
p730
a(dp731
VNamedEntityTag
p732
g71
sVCharacterOffsetEnd
p733
V177
p734
sVCharacterOffsetBegin
p735
V174
p736
sVPartOfSpeech
p737
VDT
p738
sVLemma
p739
Vthe
p740
saa(lp741
Vsmall
p742
a(dp743
VNamedEntityTag
p744
g71
sVCharacterOffsetEnd
p745
V183
p746
sVCharacterOffsetBegin
p747
V178
p748
sVPartOfSpeech
p749
VJJ
p750
sVLemma
p751
Vsmall
p752
saa(lp753
Vloads
p754
a(dp755
VNamedEntityTag
p756
g71
sVCharacterOffsetEnd
p757
V189
p758
sVCharacterOffsetBegin
p759
V184
p760
sVPartOfSpeech
p761
VNNS
p762
sVLemma
p763
Vload
p764
saa(lp765
V?
p766
a(dp767
VNamedEntityTag
p768
g71
sVCharacterOffsetEnd
p769
V191
p770
sVCharacterOffsetBegin
p771
V190
p772
sVPartOfSpeech
p773
g156
sVLemma
p774
g766
saasVindexeddependencies
p775
(lp776
(lp777
Vroot
p778
aVROOT-0
p779
aVgo-7
p780
aa(lp781
Vadvmod
p782
aVmany-2
p783
aVHow-1
p784
aa(lp785
Vamod
p786
aVpieces-3
p787
aVmany-2
p788
aa(lp789
Vnsubj
p790
aVgo-7
p791
aVpieces-3
p792
aa(lp793
Vprep_of
p794
aVpieces-3
p795
aVclothing-5
p796
aa(lp797
Vaux
p798
aVgo-7
p799
aVcould-6
p800
aa(lp801
Vprep_in
p802
aVgo-7
p803
aVeach-9
p804
aa(lp805
Vdet
p806
aVloads-13
p807
aVthe-11
p808
aa(lp809
Vamod
p810
aVloads-13
p811
aVsmall-12
p812
aa(lp813
Vprep_of
p814
aVeach-9
p815
aVloads-13
p816
aasas.