(dp0
Vcoref
p1
(lp2
(lp3
(lp4
(lp5
Vhe
p6
aI2
aI1
aI1
aI2
aa(lp7
VMike with the rest
p8
aI1
aI17
aI17
aI21
aaa(lp9
(lp10
Vhe
p11
aI2
aI14
aI14
aI15
aa(lp12
VMike with the rest
p13
aI1
aI17
aI17
aI21
aaaasVsentences
p14
(lp15
(dp16
Vparsetree
p17
V(ROOT (S (NP (NNP Mike)) (VP (VBZ is) (ADVP (IN at) (NP (DT the) (NN library))) (VP (VBG helping) (S (VP (VB put) (PRT (RP away)) (NP (NNS books)))))) (. .)))
p18
sVtext
p19
VMike is at the library helping put away books .
p20
sVdependencies
p21
(lp22
(lp23
Vroot
p24
aVROOT
p25
aVhelping
p26
aa(lp27
Vnsubj
p28
aVhelping
p29
aVMike
p30
aa(lp31
Vaux
p32
aVhelping
p33
aVis
p34
aa(lp35
Vadvmod
p36
aVhelping
p37
aVat
p38
aa(lp39
Vdet
p40
aVlibrary
p41
aVthe
p42
aa(lp43
Vpobj
p44
aVat
p45
aVlibrary
p46
aa(lp47
Vccomp
p48
aVhelping
p49
aVput
p50
aa(lp51
Vprt
p52
aVput
p53
aVaway
p54
aa(lp55
Vdobj
p56
aVput
p57
aVbooks
p58
aasVwords
p59
(lp60
(lp61
VMike
p62
a(dp63
VNamedEntityTag
p64
VPERSON
p65
sVCharacterOffsetEnd
p66
V5
p67
sVCharacterOffsetBegin
p68
V1
p69
sVPartOfSpeech
p70
VNNP
p71
sVLemma
p72
VMike
p73
saa(lp74
Vis
p75
a(dp76
VNamedEntityTag
p77
VO
p78
sVCharacterOffsetEnd
p79
V8
p80
sVCharacterOffsetBegin
p81
V6
p82
sVPartOfSpeech
p83
VVBZ
p84
sVLemma
p85
Vbe
p86
saa(lp87
Vat
p88
a(dp89
VNamedEntityTag
p90
g78
sVCharacterOffsetEnd
p91
V11
p92
sVCharacterOffsetBegin
p93
V9
p94
sVPartOfSpeech
p95
VIN
p96
sVLemma
p97
Vat
p98
saa(lp99
Vthe
p100
a(dp101
VNamedEntityTag
p102
g78
sVCharacterOffsetEnd
p103
V15
p104
sVCharacterOffsetBegin
p105
V12
p106
sVPartOfSpeech
p107
VDT
p108
sVLemma
p109
Vthe
p110
saa(lp111
Vlibrary
p112
a(dp113
VNamedEntityTag
p114
g78
sVCharacterOffsetEnd
p115
V23
p116
sVCharacterOffsetBegin
p117
V16
p118
sVPartOfSpeech
p119
VNN
p120
sVLemma
p121
Vlibrary
p122
saa(lp123
Vhelping
p124
a(dp125
VNamedEntityTag
p126
g78
sVCharacterOffsetEnd
p127
V31
p128
sVCharacterOffsetBegin
p129
V24
p130
sVPartOfSpeech
p131
VVBG
p132
sVLemma
p133
Vhelp
p134
saa(lp135
Vput
p136
a(dp137
VNamedEntityTag
p138
g78
sVCharacterOffsetEnd
p139
V35
p140
sVCharacterOffsetBegin
p141
V32
p142
sVPartOfSpeech
p143
VVB
p144
sVLemma
p145
Vput
p146
saa(lp147
Vaway
p148
a(dp149
VNamedEntityTag
p150
g78
sVCharacterOffsetEnd
p151
V40
p152
sVCharacterOffsetBegin
p153
V36
p154
sVPartOfSpeech
p155
VRP
p156
sVLemma
p157
Vaway
p158
saa(lp159
Vbooks
p160
a(dp161
VNamedEntityTag
p162
g78
sVCharacterOffsetEnd
p163
V46
p164
sVCharacterOffsetBegin
p165
V41
p166
sVPartOfSpeech
p167
VNNS
p168
sVLemma
p169
Vbook
p170
saa(lp171
V.
p172
a(dp173
VNamedEntityTag
p174
g78
sVCharacterOffsetEnd
p175
V48
p176
sVCharacterOffsetBegin
p177
V47
p178
sVPartOfSpeech
p179
g172
sVLemma
p180
g172
saasVindexeddependencies
p181
(lp182
(lp183
Vroot
p184
aVROOT-0
p185
aVhelping-6
p186
aa(lp187
Vnsubj
p188
aVhelping-6
p189
aVMike-1
p190
aa(lp191
Vaux
p192
aVhelping-6
p193
aVis-2
p194
aa(lp195
Vadvmod
p196
aVhelping-6
p197
aVat-3
p198
aa(lp199
Vdet
p200
aVlibrary-5
p201
aVthe-4
p202
aa(lp203
Vpobj
p204
aVat-3
p205
aVlibrary-5
p206
aa(lp207
Vccomp
p208
aVhelping-6
p209
aVput-7
p210
aa(lp211
Vprt
p212
aVput-7
p213
aVaway-8
p214
aa(lp215
Vdobj
p216
aVput-7
p217
aVbooks-9
p218
aasa(dp219
Vparsetree
p220
V(ROOT (S (S (NP (EX There)) (VP (VBP are) (NP (NP (CD 82) (NN book)) (SBAR (S (VP (TO to) (VP (VB put) (PRT (RP away)) (NP (JJ total))))))))) (CC but) (S (NP (DT a) (NN librarian)) (VP (VP (VBZ takes) (NP (NP (CD 10)) (PP (IN of) (NP (PRP them))))) (CC and) (VP (VBZ leaves) (NP (NP (NNP Mike)) (PP (IN with) (NP (DT the) (NN rest))))))) (. .)))
p221
sVtext
p222
VThere are 82 book to put away total but a librarian takes 10 of them and leaves Mike with the rest .
p223
sVdependencies
p224
(lp225
(lp226
Vroot
p227
aVROOT
p228
aVare
p229
aa(lp230
Vexpl
p231
aVare
p232
aVThere
p233
aa(lp234
Vnum
p235
aVbook
p236
aV82
p237
aa(lp238
Vnsubj
p239
aVare
p240
aVbook
p241
aa(lp242
Vaux
p243
aVput
p244
aVto
p245
aa(lp246
Vvmod
p247
aVbook
p248
aVput
p249
aa(lp250
Vprt
p251
aVput
p252
aVaway
p253
aa(lp254
Vdobj
p255
aVput
p256
aVtotal
p257
aa(lp258
Vdet
p259
aVlibrarian
p260
aVa
p261
aa(lp262
Vnsubj
p263
aVtakes
p264
aVlibrarian
p265
aa(lp266
Vconj_but
p267
aVare
p268
aVtakes
p269
aa(lp270
Vdobj
p271
aVtakes
p272
aV10
p273
aa(lp274
Vprep_of
p275
aV10
p276
aVthem
p277
aa(lp278
Vconj_and
p279
aVtakes
p280
aVleaves
p281
aa(lp282
Vdobj
p283
aVleaves
p284
aVMike
p285
aa(lp286
Vdet
p287
aVrest
p288
aVthe
p289
aa(lp290
Vprep_with
p291
aVMike
p292
aVrest
p293
aasVwords
p294
(lp295
(lp296
VThere
p297
a(dp298
VNamedEntityTag
p299
g78
sVCharacterOffsetEnd
p300
V54
p301
sVCharacterOffsetBegin
p302
V49
p303
sVPartOfSpeech
p304
VEX
p305
sVLemma
p306
Vthere
p307
saa(lp308
Vare
p309
a(dp310
VNamedEntityTag
p311
g78
sVCharacterOffsetEnd
p312
V58
p313
sVCharacterOffsetBegin
p314
V55
p315
sVPartOfSpeech
p316
VVBP
p317
sVLemma
p318
Vbe
p319
saa(lp320
V82
p321
a(dp322
VNormalizedNamedEntityTag
p323
V82.0
p324
sVLemma
p325
V82
p326
sVCharacterOffsetEnd
p327
V61
p328
sVPartOfSpeech
p329
VCD
p330
sVCharacterOffsetBegin
p331
V59
p332
sVNamedEntityTag
p333
VNUMBER
p334
saa(lp335
Vbook
p336
a(dp337
VNamedEntityTag
p338
g78
sVCharacterOffsetEnd
p339
V66
p340
sVCharacterOffsetBegin
p341
V62
p342
sVPartOfSpeech
p343
VNN
p344
sVLemma
p345
Vbook
p346
saa(lp347
Vto
p348
a(dp349
VNamedEntityTag
p350
g78
sVCharacterOffsetEnd
p351
V69
p352
sVCharacterOffsetBegin
p353
V67
p354
sVPartOfSpeech
p355
VTO
p356
sVLemma
p357
Vto
p358
saa(lp359
Vput
p360
a(dp361
VNamedEntityTag
p362
g78
sVCharacterOffsetEnd
p363
V73
p364
sVCharacterOffsetBegin
p365
V70
p366
sVPartOfSpeech
p367
VVB
p368
sVLemma
p369
Vput
p370
saa(lp371
Vaway
p372
a(dp373
VNamedEntityTag
p374
g78
sVCharacterOffsetEnd
p375
V78
p376
sVCharacterOffsetBegin
p377
V74
p378
sVPartOfSpeech
p379
VRP
p380
sVLemma
p381
Vaway
p382
saa(lp383
Vtotal
p384
a(dp385
VNamedEntityTag
p386
g78
sVCharacterOffsetEnd
p387
V84
p388
sVCharacterOffsetBegin
p389
V79
p390
sVPartOfSpeech
p391
VJJ
p392
sVLemma
p393
Vtotal
p394
saa(lp395
Vbut
p396
a(dp397
VNamedEntityTag
p398
g78
sVCharacterOffsetEnd
p399
V88
p400
sVCharacterOffsetBegin
p401
V85
p402
sVPartOfSpeech
p403
VCC
p404
sVLemma
p405
Vbut
p406
saa(lp407
g261
a(dp408
VNamedEntityTag
p409
g78
sVCharacterOffsetEnd
p410
V90
p411
sVCharacterOffsetBegin
p412
V89
p413
sVPartOfSpeech
p414
VDT
p415
sVLemma
p416
g261
saa(lp417
Vlibrarian
p418
a(dp419
VNamedEntityTag
p420
g78
sVCharacterOffsetEnd
p421
V100
p422
sVCharacterOffsetBegin
p423
V91
p424
sVPartOfSpeech
p425
VNN
p426
sVLemma
p427
Vlibrarian
p428
saa(lp429
Vtakes
p430
a(dp431
VNamedEntityTag
p432
g78
sVCharacterOffsetEnd
p433
V106
p434
sVCharacterOffsetBegin
p435
V101
p436
sVPartOfSpeech
p437
VVBZ
p438
sVLemma
p439
Vtake
p440
saa(lp441
V10
p442
a(dp443
VNormalizedNamedEntityTag
p444
V10.0
p445
sVLemma
p446
V10
p447
sVCharacterOffsetEnd
p448
V109
p449
sVPartOfSpeech
p450
VCD
p451
sVCharacterOffsetBegin
p452
V107
p453
sVNamedEntityTag
p454
VNUMBER
p455
saa(lp456
Vof
p457
a(dp458
VNamedEntityTag
p459
g78
sVCharacterOffsetEnd
p460
V112
p461
sVCharacterOffsetBegin
p462
V110
p463
sVPartOfSpeech
p464
VIN
p465
sVLemma
p466
Vof
p467
saa(lp468
Vthem
p469
a(dp470
VNamedEntityTag
p471
g78
sVCharacterOffsetEnd
p472
V117
p473
sVCharacterOffsetBegin
p474
V113
p475
sVPartOfSpeech
p476
VPRP
p477
sVLemma
p478
Vthey
p479
saa(lp480
Vand
p481
a(dp482
VNamedEntityTag
p483
g78
sVCharacterOffsetEnd
p484
V121
p485
sVCharacterOffsetBegin
p486
V118
p487
sVPartOfSpeech
p488
VCC
p489
sVLemma
p490
Vand
p491
saa(lp492
Vleaves
p493
a(dp494
VNamedEntityTag
p495
g78
sVCharacterOffsetEnd
p496
V128
p497
sVCharacterOffsetBegin
p498
V122
p499
sVPartOfSpeech
p500
VVBZ
p501
sVLemma
p502
Vleave
p503
saa(lp504
VMike
p505
a(dp506
VNamedEntityTag
p507
VPERSON
p508
sVCharacterOffsetEnd
p509
V133
p510
sVCharacterOffsetBegin
p511
V129
p512
sVPartOfSpeech
p513
VNNP
p514
sVLemma
p515
VMike
p516
saa(lp517
Vwith
p518
a(dp519
VNamedEntityTag
p520
g78
sVCharacterOffsetEnd
p521
V138
p522
sVCharacterOffsetBegin
p523
V134
p524
sVPartOfSpeech
p525
VIN
p526
sVLemma
p527
Vwith
p528
saa(lp529
Vthe
p530
a(dp531
VNamedEntityTag
p532
g78
sVCharacterOffsetEnd
p533
V142
p534
sVCharacterOffsetBegin
p535
V139
p536
sVPartOfSpeech
p537
VDT
p538
sVLemma
p539
Vthe
p540
saa(lp541
Vrest
p542
a(dp543
VNamedEntityTag
p544
g78
sVCharacterOffsetEnd
p545
V147
p546
sVCharacterOffsetBegin
p547
V143
p548
sVPartOfSpeech
p549
VNN
p550
sVLemma
p551
Vrest
p552
saa(lp553
g172
a(dp554
VNamedEntityTag
p555
g78
sVCharacterOffsetEnd
p556
V149
p557
sVCharacterOffsetBegin
p558
V148
p559
sVPartOfSpeech
p560
g172
sVLemma
p561
g172
saasVindexeddependencies
p562
(lp563
(lp564
Vroot
p565
aVROOT-0
p566
aVare-2
p567
aa(lp568
Vexpl
p569
aVare-2
p570
aVThere-1
p571
aa(lp572
Vnum
p573
aVbook-4
p574
aV82-3
p575
aa(lp576
Vnsubj
p577
aVare-2
p578
aVbook-4
p579
aa(lp580
Vaux
p581
aVput-6
p582
aVto-5
p583
aa(lp584
Vvmod
p585
aVbook-4
p586
aVput-6
p587
aa(lp588
Vprt
p589
aVput-6
p590
aVaway-7
p591
aa(lp592
Vdobj
p593
aVput-6
p594
aVtotal-8
p595
aa(lp596
Vdet
p597
aVlibrarian-11
p598
aVa-10
p599
aa(lp600
Vnsubj
p601
aVtakes-12
p602
aVlibrarian-11
p603
aa(lp604
Vconj_but
p605
aVare-2
p606
aVtakes-12
p607
aa(lp608
Vdobj
p609
aVtakes-12
p610
aV10-13
p611
aa(lp612
Vprep_of
p613
aV10-13
p614
aVthem-15
p615
aa(lp616
Vconj_and
p617
aVtakes-12
p618
aVleaves-17
p619
aa(lp620
Vdobj
p621
aVleaves-17
p622
aVMike-18
p623
aa(lp624
Vdet
p625
aVrest-21
p626
aVthe-20
p627
aa(lp628
Vprep_with
p629
aVMike-18
p630
aVrest-21
p631
aasa(dp632
Vparsetree
p633
V(ROOT (SBARQ (SBAR (IN If) (S (NP (PRP he)) (VP (MD can) (VP (VB fit) (NP (CD 9) (NNS books)) (PP (IN on) (NP (DT a) (NN shelf))))))) (, ,) (WHNP (WHADJP (WRB how) (JJ many)) (NNS shelves)) (SQ (MD will) (NP (PRP he)) (VP (VB need))) (. ?)))
p634
sVtext
p635
VIf he can fit 9 books on a shelf , how many shelves will he need ?
p636
sVdependencies
p637
(lp638
(lp639
Vroot
p640
aVROOT
p641
aVneed
p642
aa(lp643
Vmark
p644
aVfit
p645
aVIf
p646
aa(lp647
Vnsubj
p648
aVfit
p649
aVhe
p650
aa(lp651
Vaux
p652
aVfit
p653
aVcan
p654
aa(lp655
Vadvcl
p656
aVneed
p657
aVfit
p658
aa(lp659
Vnum
p660
aVbooks
p661
ag94
aa(lp662
Vdobj
p663
aVfit
p664
aVbooks
p665
aa(lp666
Vdet
p667
aVshelf
p668
ag261
aa(lp669
Vprep_on
p670
aVfit
p671
aVshelf
p672
aa(lp673
Vadvmod
p674
aVmany
p675
aVhow
p676
aa(lp677
Vamod
p678
aVshelves
p679
aVmany
p680
aa(lp681
Vdobj
p682
aVneed
p683
aVshelves
p684
aa(lp685
Vaux
p686
aVneed
p687
aVwill
p688
aa(lp689
Vnsubj
p690
aVneed
p691
aVhe
p692
aasVwords
p693
(lp694
(lp695
VIf
p696
a(dp697
VNamedEntityTag
p698
g78
sVCharacterOffsetEnd
p699
V152
p700
sVCharacterOffsetBegin
p701
V150
p702
sVPartOfSpeech
p703
VIN
p704
sVLemma
p705
Vif
p706
saa(lp707
Vhe
p708
a(dp709
VNamedEntityTag
p710
g78
sVCharacterOffsetEnd
p711
V155
p712
sVCharacterOffsetBegin
p713
V153
p714
sVPartOfSpeech
p715
VPRP
p716
sVLemma
p717
Vhe
p718
saa(lp719
Vcan
p720
a(dp721
VNamedEntityTag
p722
g78
sVCharacterOffsetEnd
p723
V159
p724
sVCharacterOffsetBegin
p725
V156
p726
sVPartOfSpeech
p727
VMD
p728
sVLemma
p729
Vcan
p730
saa(lp731
Vfit
p732
a(dp733
VNamedEntityTag
p734
g78
sVCharacterOffsetEnd
p735
V163
p736
sVCharacterOffsetBegin
p737
V160
p738
sVPartOfSpeech
p739
VVB
p740
sVLemma
p741
Vfit
p742
saa(lp743
g94
a(dp744
VNormalizedNamedEntityTag
p745
V9.0
p746
sVLemma
p747
g94
sVCharacterOffsetEnd
p748
V165
p749
sVPartOfSpeech
p750
VCD
p751
sVCharacterOffsetBegin
p752
V164
p753
sVNamedEntityTag
p754
VNUMBER
p755
saa(lp756
Vbooks
p757
a(dp758
VNamedEntityTag
p759
g78
sVCharacterOffsetEnd
p760
V171
p761
sVCharacterOffsetBegin
p762
V166
p763
sVPartOfSpeech
p764
VNNS
p765
sVLemma
p766
Vbook
p767
saa(lp768
Von
p769
a(dp770
VNamedEntityTag
p771
g78
sVCharacterOffsetEnd
p772
V174
p773
sVCharacterOffsetBegin
p774
V172
p775
sVPartOfSpeech
p776
VIN
p777
sVLemma
p778
Von
p779
saa(lp780
g261
a(dp781
VNamedEntityTag
p782
g78
sVCharacterOffsetEnd
p783
V176
p784
sVCharacterOffsetBegin
p785
V175
p786
sVPartOfSpeech
p787
VDT
p788
sVLemma
p789
g261
saa(lp790
Vshelf
p791
a(dp792
VNamedEntityTag
p793
g78
sVCharacterOffsetEnd
p794
V182
p795
sVCharacterOffsetBegin
p796
V177
p797
sVPartOfSpeech
p798
VNN
p799
sVLemma
p800
Vshelf
p801
saa(lp802
V,
p803
a(dp804
VNamedEntityTag
p805
g78
sVCharacterOffsetEnd
p806
V184
p807
sVCharacterOffsetBegin
p808
V183
p809
sVPartOfSpeech
p810
g803
sVLemma
p811
g803
saa(lp812
Vhow
p813
a(dp814
VNamedEntityTag
p815
g78
sVCharacterOffsetEnd
p816
V188
p817
sVCharacterOffsetBegin
p818
V185
p819
sVPartOfSpeech
p820
VWRB
p821
sVLemma
p822
Vhow
p823
saa(lp824
Vmany
p825
a(dp826
VNamedEntityTag
p827
g78
sVCharacterOffsetEnd
p828
V193
p829
sVCharacterOffsetBegin
p830
V189
p831
sVPartOfSpeech
p832
VJJ
p833
sVLemma
p834
Vmany
p835
saa(lp836
Vshelves
p837
a(dp838
VNamedEntityTag
p839
g78
sVCharacterOffsetEnd
p840
V201
p841
sVCharacterOffsetBegin
p842
V194
p843
sVPartOfSpeech
p844
VNNS
p845
sVLemma
p846
Vshelf
p847
saa(lp848
Vwill
p849
a(dp850
VNamedEntityTag
p851
g78
sVCharacterOffsetEnd
p852
V206
p853
sVCharacterOffsetBegin
p854
V202
p855
sVPartOfSpeech
p856
VMD
p857
sVLemma
p858
Vwill
p859
saa(lp860
Vhe
p861
a(dp862
VNamedEntityTag
p863
g78
sVCharacterOffsetEnd
p864
V209
p865
sVCharacterOffsetBegin
p866
V207
p867
sVPartOfSpeech
p868
VPRP
p869
sVLemma
p870
Vhe
p871
saa(lp872
Vneed
p873
a(dp874
VNamedEntityTag
p875
g78
sVCharacterOffsetEnd
p876
V214
p877
sVCharacterOffsetBegin
p878
V210
p879
sVPartOfSpeech
p880
VVB
p881
sVLemma
p882
Vneed
p883
saa(lp884
V?
p885
a(dp886
VNamedEntityTag
p887
g78
sVCharacterOffsetEnd
p888
V216
p889
sVCharacterOffsetBegin
p890
V215
p891
sVPartOfSpeech
p892
g172
sVLemma
p893
g885
saasVindexeddependencies
p894
(lp895
(lp896
Vroot
p897
aVROOT-0
p898
aVneed-16
p899
aa(lp900
Vmark
p901
aVfit-4
p902
aVIf-1
p903
aa(lp904
Vnsubj
p905
aVfit-4
p906
aVhe-2
p907
aa(lp908
Vaux
p909
aVfit-4
p910
aVcan-3
p911
aa(lp912
Vadvcl
p913
aVneed-16
p914
aVfit-4
p915
aa(lp916
Vnum
p917
aVbooks-6
p918
aV9-5
p919
aa(lp920
Vdobj
p921
aVfit-4
p922
aVbooks-6
p923
aa(lp924
Vdet
p925
aVshelf-9
p926
aVa-8
p927
aa(lp928
Vprep_on
p929
aVfit-4
p930
aVshelf-9
p931
aa(lp932
Vadvmod
p933
aVmany-12
p934
aVhow-11
p935
aa(lp936
Vamod
p937
aVshelves-13
p938
aVmany-12
p939
aa(lp940
Vdobj
p941
aVneed-16
p942
aVshelves-13
p943
aa(lp944
Vaux
p945
aVneed-16
p946
aVwill-14
p947
aa(lp948
Vnsubj
p949
aVneed-16
p950
aVhe-15
p951
aasas.