(dp0
Vcoref
p1
(lp2
(lp3
(lp4
(lp5
Vshe
p6
aI1
aI4
aI4
aI5
aa(lp7
VEmily
p8
aI0
aI0
aI0
aI1
aaa(lp9
(lp10
Vshe
p11
aI1
aI13
aI13
aI14
aa(lp12
VEmily
p13
aI0
aI0
aI0
aI1
aaa(lp14
(lp15
Vshe
p16
aI2
aI4
aI4
aI5
aa(lp17
VEmily
p18
aI0
aI0
aI0
aI1
aaa(lp19
(lp20
Vshe
p21
aI3
aI4
aI4
aI5
aa(lp22
VEmily
p23
aI0
aI0
aI0
aI1
aaaa(lp24
(lp25
(lp26
Vthe game
p27
aI3
aI11
aI10
aI12
aa(lp28
Va trivia game
p29
aI0
aI5
aI3
aI6
aaaasVsentences
p30
(lp31
(dp32
Vparsetree
p33
V(ROOT (S (NP (NNP Emily)) (VP (VBD was) (VP (VBG playing) (NP (DT a) (NNS trivia) (NN game)))) (. .)))
p34
sVtext
p35
VEmily was playing a trivia game .
p36
sVdependencies
p37
(lp38
(lp39
Vroot
p40
aVROOT
p41
aVplaying
p42
aa(lp43
Vnsubj
p44
aVplaying
p45
aVEmily
p46
aa(lp47
Vaux
p48
aVplaying
p49
aVwas
p50
aa(lp51
Vdet
p52
aVgame
p53
aVa
p54
aa(lp55
Vnn
p56
aVgame
p57
aVtrivia
p58
aa(lp59
Vdobj
p60
aVplaying
p61
aVgame
p62
aasVwords
p63
(lp64
(lp65
VEmily
p66
a(dp67
VNamedEntityTag
p68
VPERSON
p69
sVCharacterOffsetEnd
p70
V6
p71
sVCharacterOffsetBegin
p72
V1
p73
sVPartOfSpeech
p74
VNNP
p75
sVLemma
p76
VEmily
p77
saa(lp78
Vwas
p79
a(dp80
VNamedEntityTag
p81
VO
p82
sVCharacterOffsetEnd
p83
V10
p84
sVCharacterOffsetBegin
p85
V7
p86
sVPartOfSpeech
p87
VVBD
p88
sVLemma
p89
Vbe
p90
saa(lp91
Vplaying
p92
a(dp93
VNamedEntityTag
p94
g82
sVCharacterOffsetEnd
p95
V18
p96
sVCharacterOffsetBegin
p97
V11
p98
sVPartOfSpeech
p99
VVBG
p100
sVLemma
p101
Vplay
p102
saa(lp103
g54
a(dp104
VNamedEntityTag
p105
g82
sVCharacterOffsetEnd
p106
V20
p107
sVCharacterOffsetBegin
p108
V19
p109
sVPartOfSpeech
p110
VDT
p111
sVLemma
p112
g54
saa(lp113
Vtrivia
p114
a(dp115
VNamedEntityTag
p116
g82
sVCharacterOffsetEnd
p117
V27
p118
sVCharacterOffsetBegin
p119
V21
p120
sVPartOfSpeech
p121
VNNS
p122
sVLemma
p123
Vtrivia
p124
saa(lp125
Vgame
p126
a(dp127
VNamedEntityTag
p128
g82
sVCharacterOffsetEnd
p129
V32
p130
sVCharacterOffsetBegin
p131
V28
p132
sVPartOfSpeech
p133
VNN
p134
sVLemma
p135
Vgame
p136
saa(lp137
V.
p138
a(dp139
VNamedEntityTag
p140
g82
sVCharacterOffsetEnd
p141
V34
p142
sVCharacterOffsetBegin
p143
V33
p144
sVPartOfSpeech
p145
g138
sVLemma
p146
g138
saasVindexeddependencies
p147
(lp148
(lp149
Vroot
p150
aVROOT-0
p151
aVplaying-3
p152
aa(lp153
Vnsubj
p154
aVplaying-3
p155
aVEmily-1
p156
aa(lp157
Vaux
p158
aVplaying-3
p159
aVwas-2
p160
aa(lp161
Vdet
p162
aVgame-6
p163
aVa-4
p164
aa(lp165
Vnn
p166
aVgame-6
p167
aVtrivia-5
p168
aa(lp169
Vdobj
p170
aVplaying-3
p171
aVgame-6
p172
aasa(dp173
Vparsetree
p174
V(ROOT (S (S (PP (IN In) (NP (DT the) (JJ first) (NN round))) (NP (PRP she)) (VP (VBD scored) (NP (CD 16) (NNS points)))) (CC and) (S (PP (IN in) (NP (DT the) (JJ second) (NN round))) (NP (PRP she)) (VP (VBD scored) (NP (CD 33) (NNS points)))) (. .)))
p175
sVtext
p176
VIn the first round she scored 16 points and in the second round she scored 33 points .
p177
sVdependencies
p178
(lp179
(lp180
Vroot
p181
aVROOT
p182
aVscored
p183
aa(lp184
Vdet
p185
aVround
p186
aVthe
p187
aa(lp188
Vamod
p189
aVround
p190
aVfirst
p191
aa(lp192
Vprep_in
p193
aVscored
p194
aVround
p195
aa(lp196
Vnsubj
p197
aVscored
p198
aVshe
p199
aa(lp200
Vnum
p201
aVpoints
p202
aV16
p203
aa(lp204
Vdobj
p205
aVscored
p206
aVpoints
p207
aa(lp208
Vdet
p209
aVround
p210
aVthe
p211
aa(lp212
Vamod
p213
aVround
p214
aVsecond
p215
aa(lp216
Vprep_in
p217
aVscored
p218
aVround
p219
aa(lp220
Vnsubj
p221
aVscored
p222
aVshe
p223
aa(lp224
Vconj_and
p225
aVscored
p226
aVscored
p227
aa(lp228
Vnum
p229
aVpoints
p230
aV33
p231
aa(lp232
Vdobj
p233
aVscored
p234
aVpoints
p235
aasVwords
p236
(lp237
(lp238
VIn
p239
a(dp240
VNamedEntityTag
p241
g82
sVCharacterOffsetEnd
p242
V37
p243
sVCharacterOffsetBegin
p244
V35
p245
sVPartOfSpeech
p246
VIN
p247
sVLemma
p248
Vin
p249
saa(lp250
Vthe
p251
a(dp252
VNamedEntityTag
p253
g82
sVCharacterOffsetEnd
p254
V41
p255
sVCharacterOffsetBegin
p256
V38
p257
sVPartOfSpeech
p258
VDT
p259
sVLemma
p260
Vthe
p261
saa(lp262
Vfirst
p263
a(dp264
VNormalizedNamedEntityTag
p265
V1.0
p266
sVLemma
p267
Vfirst
p268
sVCharacterOffsetEnd
p269
V47
p270
sVPartOfSpeech
p271
VJJ
p272
sVCharacterOffsetBegin
p273
V42
p274
sVNamedEntityTag
p275
VORDINAL
p276
saa(lp277
Vround
p278
a(dp279
VNamedEntityTag
p280
g82
sVCharacterOffsetEnd
p281
V53
p282
sVCharacterOffsetBegin
p283
V48
p284
sVPartOfSpeech
p285
VNN
p286
sVLemma
p287
Vround
p288
saa(lp289
Vshe
p290
a(dp291
VNamedEntityTag
p292
g82
sVCharacterOffsetEnd
p293
V57
p294
sVCharacterOffsetBegin
p295
V54
p296
sVPartOfSpeech
p297
VPRP
p298
sVLemma
p299
Vshe
p300
saa(lp301
Vscored
p302
a(dp303
VNamedEntityTag
p304
g82
sVCharacterOffsetEnd
p305
V64
p306
sVCharacterOffsetBegin
p307
V58
p308
sVPartOfSpeech
p309
VVBD
p310
sVLemma
p311
Vscore
p312
saa(lp313
V16
p314
a(dp315
VNormalizedNamedEntityTag
p316
V16.0
p317
sVLemma
p318
V16
p319
sVCharacterOffsetEnd
p320
V67
p321
sVPartOfSpeech
p322
VCD
p323
sVCharacterOffsetBegin
p324
V65
p325
sVNamedEntityTag
p326
VNUMBER
p327
saa(lp328
Vpoints
p329
a(dp330
VNamedEntityTag
p331
g82
sVCharacterOffsetEnd
p332
V74
p333
sVCharacterOffsetBegin
p334
V68
p335
sVPartOfSpeech
p336
VNNS
p337
sVLemma
p338
Vpoint
p339
saa(lp340
Vand
p341
a(dp342
VNamedEntityTag
p343
g82
sVCharacterOffsetEnd
p344
V78
p345
sVCharacterOffsetBegin
p346
V75
p347
sVPartOfSpeech
p348
VCC
p349
sVLemma
p350
Vand
p351
saa(lp352
Vin
p353
a(dp354
VNamedEntityTag
p355
g82
sVCharacterOffsetEnd
p356
V81
p357
sVCharacterOffsetBegin
p358
V79
p359
sVPartOfSpeech
p360
VIN
p361
sVLemma
p362
Vin
p363
saa(lp364
Vthe
p365
a(dp366
VNamedEntityTag
p367
g82
sVCharacterOffsetEnd
p368
V85
p369
sVCharacterOffsetBegin
p370
V82
p371
sVPartOfSpeech
p372
VDT
p373
sVLemma
p374
Vthe
p375
saa(lp376
Vsecond
p377
a(dp378
VNormalizedNamedEntityTag
p379
V2.0
p380
sVLemma
p381
Vsecond
p382
sVCharacterOffsetEnd
p383
V92
p384
sVPartOfSpeech
p385
VJJ
p386
sVCharacterOffsetBegin
p387
V86
p388
sVNamedEntityTag
p389
VORDINAL
p390
saa(lp391
Vround
p392
a(dp393
VNamedEntityTag
p394
g82
sVCharacterOffsetEnd
p395
V98
p396
sVCharacterOffsetBegin
p397
V93
p398
sVPartOfSpeech
p399
VNN
p400
sVLemma
p401
Vround
p402
saa(lp403
Vshe
p404
a(dp405
VNamedEntityTag
p406
g82
sVCharacterOffsetEnd
p407
V102
p408
sVCharacterOffsetBegin
p409
V99
p410
sVPartOfSpeech
p411
VPRP
p412
sVLemma
p413
Vshe
p414
saa(lp415
Vscored
p416
a(dp417
VNamedEntityTag
p418
g82
sVCharacterOffsetEnd
p419
V109
p420
sVCharacterOffsetBegin
p421
V103
p422
sVPartOfSpeech
p423
VVBD
p424
sVLemma
p425
Vscore
p426
saa(lp427
V33
p428
a(dp429
VNormalizedNamedEntityTag
p430
V33.0
p431
sVLemma
p432
V33
p433
sVCharacterOffsetEnd
p434
V112
p435
sVPartOfSpeech
p436
VCD
p437
sVCharacterOffsetBegin
p438
V110
p439
sVNamedEntityTag
p440
VNUMBER
p441
saa(lp442
Vpoints
p443
a(dp444
VNamedEntityTag
p445
g82
sVCharacterOffsetEnd
p446
V119
p447
sVCharacterOffsetBegin
p448
V113
p449
sVPartOfSpeech
p450
VNNS
p451
sVLemma
p452
Vpoint
p453
saa(lp454
g138
a(dp455
VNamedEntityTag
p456
g82
sVCharacterOffsetEnd
p457
V121
p458
sVCharacterOffsetBegin
p459
V120
p460
sVPartOfSpeech
p461
g138
sVLemma
p462
g138
saasVindexeddependencies
p463
(lp464
(lp465
Vroot
p466
aVROOT-0
p467
aVscored-6
p468
aa(lp469
Vdet
p470
aVround-4
p471
aVthe-2
p472
aa(lp473
Vamod
p474
aVround-4
p475
aVfirst-3
p476
aa(lp477
Vprep_in
p478
aVscored-6
p479
aVround-4
p480
aa(lp481
Vnsubj
p482
aVscored-6
p483
aVshe-5
p484
aa(lp485
Vnum
p486
aVpoints-8
p487
aV16-7
p488
aa(lp489
Vdobj
p490
aVscored-6
p491
aVpoints-8
p492
aa(lp493
Vdet
p494
aVround-13
p495
aVthe-11
p496
aa(lp497
Vamod
p498
aVround-13
p499
aVsecond-12
p500
aa(lp501
Vprep_in
p502
aVscored-15
p503
aVround-13
p504
aa(lp505
Vnsubj
p506
aVscored-15
p507
aVshe-14
p508
aa(lp509
Vconj_and
p510
aVscored-6
p511
aVscored-15
p512
aa(lp513
Vnum
p514
aVpoints-17
p515
aV33-16
p516
aa(lp517
Vdobj
p518
aVscored-15
p519
aVpoints-17
p520
aasa(dp521
Vparsetree
p522
V(ROOT (S (PP (IN In) (NP (DT the) (JJ last) (NN round))) (NP (PRP she)) (VP (VBD lost) (NP (CD 48) (NNS points))) (. .)))
p523
sVtext
p524
VIn the last round she lost 48 points .
p525
sVdependencies
p526
(lp527
(lp528
Vroot
p529
aVROOT
p530
aVlost
p531
aa(lp532
Vdet
p533
aVround
p534
aVthe
p535
aa(lp536
Vamod
p537
aVround
p538
aVlast
p539
aa(lp540
Vprep_in
p541
aVlost
p542
aVround
p543
aa(lp544
Vnsubj
p545
aVlost
p546
aVshe
p547
aa(lp548
Vnum
p549
aVpoints
p550
aV48
p551
aa(lp552
Vdobj
p553
aVlost
p554
aVpoints
p555
aasVwords
p556
(lp557
(lp558
VIn
p559
a(dp560
VNamedEntityTag
p561
g82
sVCharacterOffsetEnd
p562
V124
p563
sVCharacterOffsetBegin
p564
V122
p565
sVPartOfSpeech
p566
VIN
p567
sVLemma
p568
Vin
p569
saa(lp570
Vthe
p571
a(dp572
VNamedEntityTag
p573
g82
sVCharacterOffsetEnd
p574
V128
p575
sVCharacterOffsetBegin
p576
V125
p577
sVPartOfSpeech
p578
VDT
p579
sVLemma
p580
Vthe
p581
saa(lp582
Vlast
p583
a(dp584
VNamedEntityTag
p585
g82
sVCharacterOffsetEnd
p586
V133
p587
sVCharacterOffsetBegin
p588
V129
p589
sVPartOfSpeech
p590
VJJ
p591
sVLemma
p592
Vlast
p593
saa(lp594
Vround
p595
a(dp596
VNamedEntityTag
p597
g82
sVCharacterOffsetEnd
p598
V139
p599
sVCharacterOffsetBegin
p600
V134
p601
sVPartOfSpeech
p602
VNN
p603
sVLemma
p604
Vround
p605
saa(lp606
Vshe
p607
a(dp608
VNamedEntityTag
p609
g82
sVCharacterOffsetEnd
p610
V143
p611
sVCharacterOffsetBegin
p612
V140
p613
sVPartOfSpeech
p614
VPRP
p615
sVLemma
p616
Vshe
p617
saa(lp618
Vlost
p619
a(dp620
VNamedEntityTag
p621
g82
sVCharacterOffsetEnd
p622
V148
p623
sVCharacterOffsetBegin
p624
V144
p625
sVPartOfSpeech
p626
VVBD
p627
sVLemma
p628
Vlose
p629
saa(lp630
V48
p631
a(dp632
VNormalizedNamedEntityTag
p633
V48.0
p634
sVLemma
p635
V48
p636
sVCharacterOffsetEnd
p637
V151
p638
sVPartOfSpeech
p639
VCD
p640
sVCharacterOffsetBegin
p641
V149
p642
sVNamedEntityTag
p643
VNUMBER
p644
saa(lp645
Vpoints
p646
a(dp647
VNamedEntityTag
p648
g82
sVCharacterOffsetEnd
p649
V158
p650
sVCharacterOffsetBegin
p651
V152
p652
sVPartOfSpeech
p653
VNNS
p654
sVLemma
p655
Vpoint
p656
saa(lp657
g138
a(dp658
VNamedEntityTag
p659
g82
sVCharacterOffsetEnd
p660
V160
p661
sVCharacterOffsetBegin
p662
V159
p663
sVPartOfSpeech
p664
g138
sVLemma
p665
g138
saasVindexeddependencies
p666
(lp667
(lp668
Vroot
p669
aVROOT-0
p670
aVlost-6
p671
aa(lp672
Vdet
p673
aVround-4
p674
aVthe-2
p675
aa(lp676
Vamod
p677
aVround-4
p678
aVlast-3
p679
aa(lp680
Vprep_in
p681
aVlost-6
p682
aVround-4
p683
aa(lp684
Vnsubj
p685
aVlost-6
p686
aVshe-5
p687
aa(lp688
Vnum
p689
aVpoints-8
p690
aV48-7
p691
aa(lp692
Vdobj
p693
aVlost-6
p694
aVpoints-8
p695
aasa(dp696
Vparsetree
p697
V(ROOT (SBARQ (WHNP (WHADJP (WRB How) (JJ many)) (NNS points)) (SQ (VBD did) (NP (PRP she)) (VP (VB have) (PP (IN at) (NP (NP (DT the) (NN end)) (PP (IN of) (NP (DT the) (NN game))))))) (. ?)))
p698
sVtext
p699
VHow many points did she have at the end of the game ?
p700
sVdependencies
p701
(lp702
(lp703
Vroot
p704
aVROOT
p705
aVhave
p706
aa(lp707
Vadvmod
p708
aVmany
p709
aVHow
p710
aa(lp711
Vamod
p712
aVpoints
p713
aVmany
p714
aa(lp715
Vdobj
p716
aVhave
p717
aVpoints
p718
aa(lp719
Vaux
p720
aVhave
p721
aVdid
p722
aa(lp723
Vnsubj
p724
aVhave
p725
aVshe
p726
aa(lp727
Vdet
p728
aVend
p729
aVthe
p730
aa(lp731
Vprep_at
p732
aVhave
p733
aVend
p734
aa(lp735
Vdet
p736
aVgame
p737
aVthe
p738
aa(lp739
Vprep_of
p740
aVend
p741
aVgame
p742
aasVwords
p743
(lp744
(lp745
VHow
p746
a(dp747
VNamedEntityTag
p748
g82
sVCharacterOffsetEnd
p749
V164
p750
sVCharacterOffsetBegin
p751
V161
p752
sVPartOfSpeech
p753
VWRB
p754
sVLemma
p755
Vhow
p756
saa(lp757
Vmany
p758
a(dp759
VNamedEntityTag
p760
g82
sVCharacterOffsetEnd
p761
V169
p762
sVCharacterOffsetBegin
p763
V165
p764
sVPartOfSpeech
p765
VJJ
p766
sVLemma
p767
Vmany
p768
saa(lp769
Vpoints
p770
a(dp771
VNamedEntityTag
p772
g82
sVCharacterOffsetEnd
p773
V176
p774
sVCharacterOffsetBegin
p775
V170
p776
sVPartOfSpeech
p777
VNNS
p778
sVLemma
p779
Vpoint
p780
saa(lp781
Vdid
p782
a(dp783
VNamedEntityTag
p784
g82
sVCharacterOffsetEnd
p785
V180
p786
sVCharacterOffsetBegin
p787
V177
p788
sVPartOfSpeech
p789
VVBD
p790
sVLemma
p791
Vdo
p792
saa(lp793
Vshe
p794
a(dp795
VNamedEntityTag
p796
g82
sVCharacterOffsetEnd
p797
V184
p798
sVCharacterOffsetBegin
p799
V181
p800
sVPartOfSpeech
p801
VPRP
p802
sVLemma
p803
Vshe
p804
saa(lp805
Vhave
p806
a(dp807
VNamedEntityTag
p808
g82
sVCharacterOffsetEnd
p809
V189
p810
sVCharacterOffsetBegin
p811
V185
p812
sVPartOfSpeech
p813
VVB
p814
sVLemma
p815
Vhave
p816
saa(lp817
Vat
p818
a(dp819
VNamedEntityTag
p820
g82
sVCharacterOffsetEnd
p821
V192
p822
sVCharacterOffsetBegin
p823
V190
p824
sVPartOfSpeech
p825
VIN
p826
sVLemma
p827
Vat
p828
saa(lp829
Vthe
p830
a(dp831
VNamedEntityTag
p832
g82
sVCharacterOffsetEnd
p833
V196
p834
sVCharacterOffsetBegin
p835
V193
p836
sVPartOfSpeech
p837
VDT
p838
sVLemma
p839
Vthe
p840
saa(lp841
Vend
p842
a(dp843
VNamedEntityTag
p844
g82
sVCharacterOffsetEnd
p845
V200
p846
sVCharacterOffsetBegin
p847
V197
p848
sVPartOfSpeech
p849
VNN
p850
sVLemma
p851
Vend
p852
saa(lp853
Vof
p854
a(dp855
VNamedEntityTag
p856
g82
sVCharacterOffsetEnd
p857
V203
p858
sVCharacterOffsetBegin
p859
V201
p860
sVPartOfSpeech
p861
VIN
p862
sVLemma
p863
Vof
p864
saa(lp865
Vthe
p866
a(dp867
VNamedEntityTag
p868
g82
sVCharacterOffsetEnd
p869
V207
p870
sVCharacterOffsetBegin
p871
V204
p872
sVPartOfSpeech
p873
VDT
p874
sVLemma
p875
Vthe
p876
saa(lp877
Vgame
p878
a(dp879
VNamedEntityTag
p880
g82
sVCharacterOffsetEnd
p881
V212
p882
sVCharacterOffsetBegin
p883
V208
p884
sVPartOfSpeech
p885
VNN
p886
sVLemma
p887
Vgame
p888
saa(lp889
V?
p890
a(dp891
VNamedEntityTag
p892
g82
sVCharacterOffsetEnd
p893
V214
p894
sVCharacterOffsetBegin
p895
V213
p896
sVPartOfSpeech
p897
g138
sVLemma
p898
g890
saasVindexeddependencies
p899
(lp900
(lp901
Vroot
p902
aVROOT-0
p903
aVhave-6
p904
aa(lp905
Vadvmod
p906
aVmany-2
p907
aVHow-1
p908
aa(lp909
Vamod
p910
aVpoints-3
p911
aVmany-2
p912
aa(lp913
Vdobj
p914
aVhave-6
p915
aVpoints-3
p916
aa(lp917
Vaux
p918
aVhave-6
p919
aVdid-4
p920
aa(lp921
Vnsubj
p922
aVhave-6
p923
aVshe-5
p924
aa(lp925
Vdet
p926
aVend-9
p927
aVthe-8
p928
aa(lp929
Vprep_at
p930
aVhave-6
p931
aVend-9
p932
aa(lp933
Vdet
p934
aVgame-12
p935
aVthe-11
p936
aa(lp937
Vprep_of
p938
aVend-9
p939
aVgame-12
p940
aasas.