(dp0
Vcoref
p1
(lp2
(lp3
(lp4
(lp5
Vthem
p6
aI0
aI12
aI12
aI13
aa(lp7
V47 people
p8
aI0
aI4
aI3
aI5
aaa(lp9
(lp10
Vthey
p11
aI1
aI3
aI3
aI4
aa(lp12
V47 people
p13
aI0
aI4
aI3
aI5
aaa(lp14
(lp15
Vthey
p16
aI1
aI14
aI14
aI15
aa(lp17
V47 people
p18
aI0
aI4
aI3
aI5
aaaasVsentences
p19
(lp20
(dp21
Vparsetree
p22
V(ROOT (S (S (NP (DT A) (NN company)) (VP (VBN invited) (NP (CD 47) (NNS people)) (PP (TO to) (NP (DT a) (NN luncheon))))) (, ,) (CC but) (S (NP (NP (CD 7)) (PP (IN of) (NP (PRP them)))) (VP (VBD did) (RB n't) (VP (VB show) (PRT (RP up))))) (. .)))
p23
sVtext
p24
VA company invited 47 people to a luncheon , but 7 of them didn't show up .
p25
sVdependencies
p26
(lp27
(lp28
Vroot
p29
aVROOT
p30
aVinvited
p31
aa(lp32
Vdet
p33
aVcompany
p34
aVA
p35
aa(lp36
Vnsubj
p37
aVinvited
p38
aVcompany
p39
aa(lp40
Vnum
p41
aVpeople
p42
aV47
p43
aa(lp44
Vdobj
p45
aVinvited
p46
aVpeople
p47
aa(lp48
Vdet
p49
aVluncheon
p50
aVa
p51
aa(lp52
Vprep_to
p53
aVinvited
p54
aVluncheon
p55
aa(lp56
Vnsubj
p57
aVshow
p58
aV7
p59
aa(lp60
Vprep_of
p61
ag59
aVthem
p62
aa(lp63
Vaux
p64
aVshow
p65
aVdid
p66
aa(lp67
Vneg
p68
aVshow
p69
aVn't
p70
aa(lp71
Vconj_but
p72
aVinvited
p73
aVshow
p74
aa(lp75
Vprt
p76
aVshow
p77
aVup
p78
aasVwords
p79
(lp80
(lp81
g35
a(dp82
VNamedEntityTag
p83
VO
p84
sVCharacterOffsetEnd
p85
V2
p86
sVCharacterOffsetBegin
p87
V1
p88
sVPartOfSpeech
p89
VDT
p90
sVLemma
p91
g51
saa(lp92
Vcompany
p93
a(dp94
VNamedEntityTag
p95
g84
sVCharacterOffsetEnd
p96
V10
p97
sVCharacterOffsetBegin
p98
V3
p99
sVPartOfSpeech
p100
VNN
p101
sVLemma
p102
Vcompany
p103
saa(lp104
Vinvited
p105
a(dp106
VNamedEntityTag
p107
g84
sVCharacterOffsetEnd
p108
V18
p109
sVCharacterOffsetBegin
p110
V11
p111
sVPartOfSpeech
p112
VVBN
p113
sVLemma
p114
Vinvite
p115
saa(lp116
V47
p117
a(dp118
VNormalizedNamedEntityTag
p119
V47.0
p120
sVLemma
p121
V47
p122
sVCharacterOffsetEnd
p123
V21
p124
sVPartOfSpeech
p125
VCD
p126
sVCharacterOffsetBegin
p127
V19
p128
sVNamedEntityTag
p129
VNUMBER
p130
saa(lp131
Vpeople
p132
a(dp133
VNamedEntityTag
p134
g84
sVCharacterOffsetEnd
p135
V28
p136
sVCharacterOffsetBegin
p137
V22
p138
sVPartOfSpeech
p139
VNNS
p140
sVLemma
p141
Vpeople
p142
saa(lp143
Vto
p144
a(dp145
VNamedEntityTag
p146
g84
sVCharacterOffsetEnd
p147
V31
p148
sVCharacterOffsetBegin
p149
V29
p150
sVPartOfSpeech
p151
VTO
p152
sVLemma
p153
Vto
p154
saa(lp155
g51
a(dp156
VNamedEntityTag
p157
g84
sVCharacterOffsetEnd
p158
V33
p159
sVCharacterOffsetBegin
p160
V32
p161
sVPartOfSpeech
p162
VDT
p163
sVLemma
p164
g51
saa(lp165
Vluncheon
p166
a(dp167
VNamedEntityTag
p168
g84
sVCharacterOffsetEnd
p169
V42
p170
sVCharacterOffsetBegin
p171
V34
p172
sVPartOfSpeech
p173
VNN
p174
sVLemma
p175
Vluncheon
p176
saa(lp177
V,
p178
a(dp179
VNamedEntityTag
p180
g84
sVCharacterOffsetEnd
p181
V44
p182
sVCharacterOffsetBegin
p183
V43
p184
sVPartOfSpeech
p185
g178
sVLemma
p186
g178
saa(lp187
Vbut
p188
a(dp189
VNamedEntityTag
p190
g84
sVCharacterOffsetEnd
p191
V48
p192
sVCharacterOffsetBegin
p193
V45
p194
sVPartOfSpeech
p195
VCC
p196
sVLemma
p197
Vbut
p198
saa(lp199
g59
a(dp200
VNormalizedNamedEntityTag
p201
V7.0
p202
sVLemma
p203
g59
sVCharacterOffsetEnd
p204
V50
p205
sVPartOfSpeech
p206
VCD
p207
sVCharacterOffsetBegin
p208
V49
p209
sVNamedEntityTag
p210
VNUMBER
p211
saa(lp212
Vof
p213
a(dp214
VNamedEntityTag
p215
g84
sVCharacterOffsetEnd
p216
V53
p217
sVCharacterOffsetBegin
p218
V51
p219
sVPartOfSpeech
p220
VIN
p221
sVLemma
p222
Vof
p223
saa(lp224
Vthem
p225
a(dp226
VNamedEntityTag
p227
g84
sVCharacterOffsetEnd
p228
V58
p229
sVCharacterOffsetBegin
p230
V54
p231
sVPartOfSpeech
p232
VPRP
p233
sVLemma
p234
Vthey
p235
saa(lp236
Vdid
p237
a(dp238
VNamedEntityTag
p239
g84
sVCharacterOffsetEnd
p240
V62
p241
sVCharacterOffsetBegin
p242
V59
p243
sVPartOfSpeech
p244
VVBD
p245
sVLemma
p246
Vdo
p247
saa(lp248
Vn't
p249
a(dp250
VNamedEntityTag
p251
g84
sVCharacterOffsetEnd
p252
V65
p253
sVCharacterOffsetBegin
p254
V62
p255
sVPartOfSpeech
p256
VRB
p257
sVLemma
p258
Vnot
p259
saa(lp260
Vshow
p261
a(dp262
VNamedEntityTag
p263
g84
sVCharacterOffsetEnd
p264
V70
p265
sVCharacterOffsetBegin
p266
V66
p267
sVPartOfSpeech
p268
VVB
p269
sVLemma
p270
Vshow
p271
saa(lp272
Vup
p273
a(dp274
VNamedEntityTag
p275
g84
sVCharacterOffsetEnd
p276
V73
p277
sVCharacterOffsetBegin
p278
V71
p279
sVPartOfSpeech
p280
VRP
p281
sVLemma
p282
Vup
p283
saa(lp284
V.
p285
a(dp286
VNamedEntityTag
p287
g84
sVCharacterOffsetEnd
p288
V75
p289
sVCharacterOffsetBegin
p290
V74
p291
sVPartOfSpeech
p292
g285
sVLemma
p293
g285
saasVindexeddependencies
p294
(lp295
(lp296
Vroot
p297
aVROOT-0
p298
aVinvited-3
p299
aa(lp300
Vdet
p301
aVcompany-2
p302
aVA-1
p303
aa(lp304
Vnsubj
p305
aVinvited-3
p306
aVcompany-2
p307
aa(lp308
Vnum
p309
aVpeople-5
p310
aV47-4
p311
aa(lp312
Vdobj
p313
aVinvited-3
p314
aVpeople-5
p315
aa(lp316
Vdet
p317
aVluncheon-8
p318
aVa-7
p319
aa(lp320
Vprep_to
p321
aVinvited-3
p322
aVluncheon-8
p323
aa(lp324
Vnsubj
p325
aVshow-16
p326
aV7-11
p327
aa(lp328
Vprep_of
p329
aV7-11
p330
aVthem-13
p331
aa(lp332
Vaux
p333
aVshow-16
p334
aVdid-14
p335
aa(lp336
Vneg
p337
aVshow-16
p338
aVn't-15
p339
aa(lp340
Vconj_but
p341
aVinvited-3
p342
aVshow-16
p343
aa(lp344
Vprt
p345
aVshow-16
p346
aVup-17
p347
aasa(dp348
Vparsetree
p349
V(ROOT (SBARQ (SBAR (IN If) (S (NP (NP (DT the) (NNS tables)) (NP (PRP they))) (VP (VBD had) (VP (VBN held) (NP (NP (CD 5) (NNS people)) (NP (DT each))))))) (, ,) (WHNP (WHADJP (WRB how) (JJ many)) (NNS tables)) (SQ (VBP do) (NP (PRP they)) (VP (VB need))) (. ?)))
p350
sVtext
p351
VIf the tables they had held 5 people each , how many tables do they need ?
p352
sVdependencies
p353
(lp354
(lp355
Vroot
p356
aVROOT
p357
aVneed
p358
aa(lp359
Vmark
p360
aVheld
p361
aVIf
p362
aa(lp363
Vdet
p364
aVtables
p365
aVthe
p366
aa(lp367
Vnsubj
p368
aVheld
p369
aVtables
p370
aa(lp371
Vdep
p372
aVtables
p373
aVthey
p374
aa(lp375
Vaux
p376
aVheld
p377
aVhad
p378
aa(lp379
Vadvcl
p380
aVneed
p381
aVheld
p382
aa(lp383
Vnum
p384
aVpeople
p385
aV5
p386
aa(lp387
Vdobj
p388
aVheld
p389
aVpeople
p390
aa(lp391
Vdep
p392
aVpeople
p393
aVeach
p394
aa(lp395
Vadvmod
p396
aVmany
p397
aVhow
p398
aa(lp399
Vamod
p400
aVtables
p401
aVmany
p402
aa(lp403
Vdobj
p404
aVneed
p405
aVtables
p406
aa(lp407
Vaux
p408
aVneed
p409
aVdo
p410
aa(lp411
Vnsubj
p412
aVneed
p413
aVthey
p414
aasVwords
p415
(lp416
(lp417
VIf
p418
a(dp419
VNamedEntityTag
p420
g84
sVCharacterOffsetEnd
p421
V78
p422
sVCharacterOffsetBegin
p423
V76
p424
sVPartOfSpeech
p425
VIN
p426
sVLemma
p427
Vif
p428
saa(lp429
Vthe
p430
a(dp431
VNamedEntityTag
p432
g84
sVCharacterOffsetEnd
p433
V82
p434
sVCharacterOffsetBegin
p435
V79
p436
sVPartOfSpeech
p437
VDT
p438
sVLemma
p439
Vthe
p440
saa(lp441
Vtables
p442
a(dp443
VNamedEntityTag
p444
g84
sVCharacterOffsetEnd
p445
V89
p446
sVCharacterOffsetBegin
p447
V83
p448
sVPartOfSpeech
p449
VNNS
p450
sVLemma
p451
Vtable
p452
saa(lp453
Vthey
p454
a(dp455
VNamedEntityTag
p456
g84
sVCharacterOffsetEnd
p457
V94
p458
sVCharacterOffsetBegin
p459
V90
p460
sVPartOfSpeech
p461
VPRP
p462
sVLemma
p463
Vthey
p464
saa(lp465
Vhad
p466
a(dp467
VNamedEntityTag
p468
g84
sVCharacterOffsetEnd
p469
V98
p470
sVCharacterOffsetBegin
p471
V95
p472
sVPartOfSpeech
p473
VVBD
p474
sVLemma
p475
Vhave
p476
saa(lp477
Vheld
p478
a(dp479
VNamedEntityTag
p480
g84
sVCharacterOffsetEnd
p481
V103
p482
sVCharacterOffsetBegin
p483
V99
p484
sVPartOfSpeech
p485
VVBN
p486
sVLemma
p487
Vhold
p488
saa(lp489
g386
a(dp490
VNormalizedNamedEntityTag
p491
V5.0
p492
sVLemma
p493
g386
sVCharacterOffsetEnd
p494
V105
p495
sVPartOfSpeech
p496
VCD
p497
sVCharacterOffsetBegin
p498
V104
p499
sVNamedEntityTag
p500
VNUMBER
p501
saa(lp502
Vpeople
p503
a(dp504
VNamedEntityTag
p505
g84
sVCharacterOffsetEnd
p506
V112
p507
sVCharacterOffsetBegin
p508
V106
p509
sVPartOfSpeech
p510
VNNS
p511
sVLemma
p512
Vpeople
p513
saa(lp514
Veach
p515
a(dp516
VNamedEntityTag
p517
g84
sVCharacterOffsetEnd
p518
V117
p519
sVCharacterOffsetBegin
p520
V113
p521
sVPartOfSpeech
p522
VDT
p523
sVLemma
p524
Veach
p525
saa(lp526
g178
a(dp527
VNamedEntityTag
p528
g84
sVCharacterOffsetEnd
p529
V119
p530
sVCharacterOffsetBegin
p531
V118
p532
sVPartOfSpeech
p533
g178
sVLemma
p534
g178
saa(lp535
Vhow
p536
a(dp537
VNamedEntityTag
p538
g84
sVCharacterOffsetEnd
p539
V123
p540
sVCharacterOffsetBegin
p541
V120
p542
sVPartOfSpeech
p543
VWRB
p544
sVLemma
p545
Vhow
p546
saa(lp547
Vmany
p548
a(dp549
VNamedEntityTag
p550
g84
sVCharacterOffsetEnd
p551
V128
p552
sVCharacterOffsetBegin
p553
V124
p554
sVPartOfSpeech
p555
VJJ
p556
sVLemma
p557
Vmany
p558
saa(lp559
Vtables
p560
a(dp561
VNamedEntityTag
p562
g84
sVCharacterOffsetEnd
p563
V135
p564
sVCharacterOffsetBegin
p565
V129
p566
sVPartOfSpeech
p567
VNNS
p568
sVLemma
p569
Vtable
p570
saa(lp571
Vdo
p572
a(dp573
VNamedEntityTag
p574
g84
sVCharacterOffsetEnd
p575
V138
p576
sVCharacterOffsetBegin
p577
V136
p578
sVPartOfSpeech
p579
VVBP
p580
sVLemma
p581
Vdo
p582
saa(lp583
Vthey
p584
a(dp585
VNamedEntityTag
p586
g84
sVCharacterOffsetEnd
p587
V143
p588
sVCharacterOffsetBegin
p589
V139
p590
sVPartOfSpeech
p591
VPRP
p592
sVLemma
p593
Vthey
p594
saa(lp595
Vneed
p596
a(dp597
VNamedEntityTag
p598
g84
sVCharacterOffsetEnd
p599
V148
p600
sVCharacterOffsetBegin
p601
V144
p602
sVPartOfSpeech
p603
VVB
p604
sVLemma
p605
Vneed
p606
saa(lp607
V?
p608
a(dp609
VNamedEntityTag
p610
g84
sVCharacterOffsetEnd
p611
V150
p612
sVCharacterOffsetBegin
p613
V149
p614
sVPartOfSpeech
p615
g285
sVLemma
p616
g608
saasVindexeddependencies
p617
(lp618
(lp619
Vroot
p620
aVROOT-0
p621
aVneed-16
p622
aa(lp623
Vmark
p624
aVheld-6
p625
aVIf-1
p626
aa(lp627
Vdet
p628
aVtables-3
p629
aVthe-2
p630
aa(lp631
Vnsubj
p632
aVheld-6
p633
aVtables-3
p634
aa(lp635
Vdep
p636
aVtables-3
p637
aVthey-4
p638
aa(lp639
Vaux
p640
aVheld-6
p641
aVhad-5
p642
aa(lp643
Vadvcl
p644
aVneed-16
p645
aVheld-6
p646
aa(lp647
Vnum
p648
aVpeople-8
p649
aV5-7
p650
aa(lp651
Vdobj
p652
aVheld-6
p653
aVpeople-8
p654
aa(lp655
Vdep
p656
aVpeople-8
p657
aVeach-9
p658
aa(lp659
Vadvmod
p660
aVmany-12
p661
aVhow-11
p662
aa(lp663
Vamod
p664
aVtables-13
p665
aVmany-12
p666
aa(lp667
Vdobj
p668
aVneed-16
p669
aVtables-13
p670
aa(lp671
Vaux
p672
aVneed-16
p673
aVdo-14
p674
aa(lp675
Vnsubj
p676
aVneed-16
p677
aVthey-15
p678
aasas.