(dp0
Vcoref
p1
(lp2
(lp3
(lp4
(lp5
Vhe
p6
aI2
aI1
aI1
aI2
aa(lp7
VJerry with the rest
p8
aI1
aI17
aI17
aI21
aaa(lp9
(lp10
Vhe
p11
aI2
aI14
aI14
aI15
aa(lp12
VJerry with the rest
p13
aI1
aI17
aI17
aI21
aaaasVsentences
p14
(lp15
(dp16
Vparsetree
p17
V(ROOT (S (NP (NNP Jerry)) (VP (VBZ is) (ADVP (IN at) (NP (DT the) (NN library))) (VP (VBG helping) (S (VP (VB put) (PRT (RP away)) (NP (NNS books)))))) (. .)))
p18
sVtext
p19
VJerry is at the library helping put away books .
p20
sVdependencies
p21
(lp22
(lp23
Vroot
p24
aVROOT
p25
aVhelping
p26
aa(lp27
Vnsubj
p28
aVhelping
p29
aVJerry
p30
aa(lp31
Vaux
p32
aVhelping
p33
aVis
p34
aa(lp35
Vadvmod
p36
aVhelping
p37
aVat
p38
aa(lp39
Vdet
p40
aVlibrary
p41
aVthe
p42
aa(lp43
Vpobj
p44
aVat
p45
aVlibrary
p46
aa(lp47
Vccomp
p48
aVhelping
p49
aVput
p50
aa(lp51
Vprt
p52
aVput
p53
aVaway
p54
aa(lp55
Vdobj
p56
aVput
p57
aVbooks
p58
aasVwords
p59
(lp60
(lp61
VJerry
p62
a(dp63
VNamedEntityTag
p64
VPERSON
p65
sVCharacterOffsetEnd
p66
V6
p67
sVCharacterOffsetBegin
p68
V1
p69
sVPartOfSpeech
p70
VNNP
p71
sVLemma
p72
VJerry
p73
saa(lp74
Vis
p75
a(dp76
VNamedEntityTag
p77
VO
p78
sVCharacterOffsetEnd
p79
V9
p80
sVCharacterOffsetBegin
p81
V7
p82
sVPartOfSpeech
p83
VVBZ
p84
sVLemma
p85
Vbe
p86
saa(lp87
Vat
p88
a(dp89
VNamedEntityTag
p90
g78
sVCharacterOffsetEnd
p91
V12
p92
sVCharacterOffsetBegin
p93
V10
p94
sVPartOfSpeech
p95
VIN
p96
sVLemma
p97
Vat
p98
saa(lp99
Vthe
p100
a(dp101
VNamedEntityTag
p102
g78
sVCharacterOffsetEnd
p103
V16
p104
sVCharacterOffsetBegin
p105
V13
p106
sVPartOfSpeech
p107
VDT
p108
sVLemma
p109
Vthe
p110
saa(lp111
Vlibrary
p112
a(dp113
VNamedEntityTag
p114
g78
sVCharacterOffsetEnd
p115
V24
p116
sVCharacterOffsetBegin
p117
V17
p118
sVPartOfSpeech
p119
VNN
p120
sVLemma
p121
Vlibrary
p122
saa(lp123
Vhelping
p124
a(dp125
VNamedEntityTag
p126
g78
sVCharacterOffsetEnd
p127
V32
p128
sVCharacterOffsetBegin
p129
V25
p130
sVPartOfSpeech
p131
VVBG
p132
sVLemma
p133
Vhelp
p134
saa(lp135
Vput
p136
a(dp137
VNamedEntityTag
p138
g78
sVCharacterOffsetEnd
p139
V36
p140
sVCharacterOffsetBegin
p141
V33
p142
sVPartOfSpeech
p143
VVB
p144
sVLemma
p145
Vput
p146
saa(lp147
Vaway
p148
a(dp149
VNamedEntityTag
p150
g78
sVCharacterOffsetEnd
p151
V41
p152
sVCharacterOffsetBegin
p153
V37
p154
sVPartOfSpeech
p155
VRP
p156
sVLemma
p157
Vaway
p158
saa(lp159
Vbooks
p160
a(dp161
VNamedEntityTag
p162
g78
sVCharacterOffsetEnd
p163
V47
p164
sVCharacterOffsetBegin
p165
V42
p166
sVPartOfSpeech
p167
VNNS
p168
sVLemma
p169
Vbook
p170
saa(lp171
V.
p172
a(dp173
VNamedEntityTag
p174
g78
sVCharacterOffsetEnd
p175
V49
p176
sVCharacterOffsetBegin
p177
V48
p178
sVPartOfSpeech
p179
g172
sVLemma
p180
g172
saasVindexeddependencies
p181
(lp182
(lp183
Vroot
p184
aVROOT-0
p185
aVhelping-6
p186
aa(lp187
Vnsubj
p188
aVhelping-6
p189
aVJerry-1
p190
aa(lp191
Vaux
p192
aVhelping-6
p193
aVis-2
p194
aa(lp195
Vadvmod
p196
aVhelping-6
p197
aVat-3
p198
aa(lp199
Vdet
p200
aVlibrary-5
p201
aVthe-4
p202
aa(lp203
Vpobj
p204
aVat-3
p205
aVlibrary-5
p206
aa(lp207
Vccomp
p208
aVhelping-6
p209
aVput-7
p210
aa(lp211
Vprt
p212
aVput-7
p213
aVaway-8
p214
aa(lp215
Vdobj
p216
aVput-7
p217
aVbooks-9
p218
aasa(dp219
Vparsetree
p220
V(ROOT (S (S (NP (EX There)) (VP (VBP are) (NP (NP (CD 34) (NN book)) (SBAR (S (VP (TO to) (VP (VB put) (PRT (RP away)) (NP (JJ total))))))))) (CC but) (S (NP (DT a) (NN librarian)) (VP (VP (VBZ takes) (NP (NP (CD 7)) (PP (IN of) (NP (PRP them))))) (CC and) (VP (VBZ leaves) (NP (NP (NNP Jerry)) (PP (IN with) (NP (DT the) (NN rest))))))) (. .)))
p221
sVtext
p222
VThere are 34 book to put away total but a librarian takes 7 of them and leaves Jerry with the rest .
p223
sVdependencies
p224
(lp225
(lp226
Vroot
p227
aVROOT
p228
aVare
p229
aa(lp230
Vexpl
p231
aVare
p232
aVThere
p233
aa(lp234
Vnum
p235
aVbook
p236
aV34
p237
aa(lp238
Vnsubj
p239
aVare
p240
aVbook
p241
aa(lp242
Vaux
p243
aVput
p244
aVto
p245
aa(lp246
Vvmod
p247
aVbook
p248
aVput
p249
aa(lp250
Vprt
p251
aVput
p252
aVaway
p253
aa(lp254
Vdobj
p255
aVput
p256
aVtotal
p257
aa(lp258
Vdet
p259
aVlibrarian
p260
aVa
p261
aa(lp262
Vnsubj
p263
aVtakes
p264
aVlibrarian
p265
aa(lp266
Vconj_but
p267
aVare
p268
aVtakes
p269
aa(lp270
Vdobj
p271
aVtakes
p272
ag82
aa(lp273
Vprep_of
p274
ag82
aVthem
p275
aa(lp276
Vconj_and
p277
aVtakes
p278
aVleaves
p279
aa(lp280
Vdobj
p281
aVleaves
p282
aVJerry
p283
aa(lp284
Vdet
p285
aVrest
p286
aVthe
p287
aa(lp288
Vprep_with
p289
aVJerry
p290
aVrest
p291
aasVwords
p292
(lp293
(lp294
VThere
p295
a(dp296
VNamedEntityTag
p297
g78
sVCharacterOffsetEnd
p298
V55
p299
sVCharacterOffsetBegin
p300
V50
p301
sVPartOfSpeech
p302
VEX
p303
sVLemma
p304
Vthere
p305
saa(lp306
Vare
p307
a(dp308
VNamedEntityTag
p309
g78
sVCharacterOffsetEnd
p310
V59
p311
sVCharacterOffsetBegin
p312
V56
p313
sVPartOfSpeech
p314
VVBP
p315
sVLemma
p316
Vbe
p317
saa(lp318
V34
p319
a(dp320
VNormalizedNamedEntityTag
p321
V34.0
p322
sVLemma
p323
V34
p324
sVCharacterOffsetEnd
p325
V62
p326
sVPartOfSpeech
p327
VCD
p328
sVCharacterOffsetBegin
p329
V60
p330
sVNamedEntityTag
p331
VNUMBER
p332
saa(lp333
Vbook
p334
a(dp335
VNamedEntityTag
p336
g78
sVCharacterOffsetEnd
p337
V67
p338
sVCharacterOffsetBegin
p339
V63
p340
sVPartOfSpeech
p341
VNN
p342
sVLemma
p343
Vbook
p344
saa(lp345
Vto
p346
a(dp347
VNamedEntityTag
p348
g78
sVCharacterOffsetEnd
p349
V70
p350
sVCharacterOffsetBegin
p351
V68
p352
sVPartOfSpeech
p353
VTO
p354
sVLemma
p355
Vto
p356
saa(lp357
Vput
p358
a(dp359
VNamedEntityTag
p360
g78
sVCharacterOffsetEnd
p361
V74
p362
sVCharacterOffsetBegin
p363
V71
p364
sVPartOfSpeech
p365
VVB
p366
sVLemma
p367
Vput
p368
saa(lp369
Vaway
p370
a(dp371
VNamedEntityTag
p372
g78
sVCharacterOffsetEnd
p373
V79
p374
sVCharacterOffsetBegin
p375
V75
p376
sVPartOfSpeech
p377
VRP
p378
sVLemma
p379
Vaway
p380
saa(lp381
Vtotal
p382
a(dp383
VNamedEntityTag
p384
g78
sVCharacterOffsetEnd
p385
V85
p386
sVCharacterOffsetBegin
p387
V80
p388
sVPartOfSpeech
p389
VJJ
p390
sVLemma
p391
Vtotal
p392
saa(lp393
Vbut
p394
a(dp395
VNamedEntityTag
p396
g78
sVCharacterOffsetEnd
p397
V89
p398
sVCharacterOffsetBegin
p399
V86
p400
sVPartOfSpeech
p401
VCC
p402
sVLemma
p403
Vbut
p404
saa(lp405
g261
a(dp406
VNamedEntityTag
p407
g78
sVCharacterOffsetEnd
p408
V91
p409
sVCharacterOffsetBegin
p410
V90
p411
sVPartOfSpeech
p412
VDT
p413
sVLemma
p414
g261
saa(lp415
Vlibrarian
p416
a(dp417
VNamedEntityTag
p418
g78
sVCharacterOffsetEnd
p419
V101
p420
sVCharacterOffsetBegin
p421
V92
p422
sVPartOfSpeech
p423
VNN
p424
sVLemma
p425
Vlibrarian
p426
saa(lp427
Vtakes
p428
a(dp429
VNamedEntityTag
p430
g78
sVCharacterOffsetEnd
p431
V107
p432
sVCharacterOffsetBegin
p433
V102
p434
sVPartOfSpeech
p435
VVBZ
p436
sVLemma
p437
Vtake
p438
saa(lp439
g82
a(dp440
VNormalizedNamedEntityTag
p441
V7.0
p442
sVLemma
p443
g82
sVCharacterOffsetEnd
p444
V109
p445
sVPartOfSpeech
p446
VCD
p447
sVCharacterOffsetBegin
p448
V108
p449
sVNamedEntityTag
p450
VNUMBER
p451
saa(lp452
Vof
p453
a(dp454
VNamedEntityTag
p455
g78
sVCharacterOffsetEnd
p456
V112
p457
sVCharacterOffsetBegin
p458
V110
p459
sVPartOfSpeech
p460
VIN
p461
sVLemma
p462
Vof
p463
saa(lp464
Vthem
p465
a(dp466
VNamedEntityTag
p467
g78
sVCharacterOffsetEnd
p468
V117
p469
sVCharacterOffsetBegin
p470
V113
p471
sVPartOfSpeech
p472
VPRP
p473
sVLemma
p474
Vthey
p475
saa(lp476
Vand
p477
a(dp478
VNamedEntityTag
p479
g78
sVCharacterOffsetEnd
p480
V121
p481
sVCharacterOffsetBegin
p482
V118
p483
sVPartOfSpeech
p484
VCC
p485
sVLemma
p486
Vand
p487
saa(lp488
Vleaves
p489
a(dp490
VNamedEntityTag
p491
g78
sVCharacterOffsetEnd
p492
V128
p493
sVCharacterOffsetBegin
p494
V122
p495
sVPartOfSpeech
p496
VVBZ
p497
sVLemma
p498
Vleave
p499
saa(lp500
VJerry
p501
a(dp502
VNamedEntityTag
p503
VPERSON
p504
sVCharacterOffsetEnd
p505
V134
p506
sVCharacterOffsetBegin
p507
V129
p508
sVPartOfSpeech
p509
VNNP
p510
sVLemma
p511
VJerry
p512
saa(lp513
Vwith
p514
a(dp515
VNamedEntityTag
p516
g78
sVCharacterOffsetEnd
p517
V139
p518
sVCharacterOffsetBegin
p519
V135
p520
sVPartOfSpeech
p521
VIN
p522
sVLemma
p523
Vwith
p524
saa(lp525
Vthe
p526
a(dp527
VNamedEntityTag
p528
g78
sVCharacterOffsetEnd
p529
V143
p530
sVCharacterOffsetBegin
p531
V140
p532
sVPartOfSpeech
p533
VDT
p534
sVLemma
p535
Vthe
p536
saa(lp537
Vrest
p538
a(dp539
VNamedEntityTag
p540
g78
sVCharacterOffsetEnd
p541
V148
p542
sVCharacterOffsetBegin
p543
V144
p544
sVPartOfSpeech
p545
VNN
p546
sVLemma
p547
Vrest
p548
saa(lp549
g172
a(dp550
VNamedEntityTag
p551
g78
sVCharacterOffsetEnd
p552
V150
p553
sVCharacterOffsetBegin
p554
V149
p555
sVPartOfSpeech
p556
g172
sVLemma
p557
g172
saasVindexeddependencies
p558
(lp559
(lp560
Vroot
p561
aVROOT-0
p562
aVare-2
p563
aa(lp564
Vexpl
p565
aVare-2
p566
aVThere-1
p567
aa(lp568
Vnum
p569
aVbook-4
p570
aV34-3
p571
aa(lp572
Vnsubj
p573
aVare-2
p574
aVbook-4
p575
aa(lp576
Vaux
p577
aVput-6
p578
aVto-5
p579
aa(lp580
Vvmod
p581
aVbook-4
p582
aVput-6
p583
aa(lp584
Vprt
p585
aVput-6
p586
aVaway-7
p587
aa(lp588
Vdobj
p589
aVput-6
p590
aVtotal-8
p591
aa(lp592
Vdet
p593
aVlibrarian-11
p594
aVa-10
p595
aa(lp596
Vnsubj
p597
aVtakes-12
p598
aVlibrarian-11
p599
aa(lp600
Vconj_but
p601
aVare-2
p602
aVtakes-12
p603
aa(lp604
Vdobj
p605
aVtakes-12
p606
aV7-13
p607
aa(lp608
Vprep_of
p609
aV7-13
p610
aVthem-15
p611
aa(lp612
Vconj_and
p613
aVtakes-12
p614
aVleaves-17
p615
aa(lp616
Vdobj
p617
aVleaves-17
p618
aVJerry-18
p619
aa(lp620
Vdet
p621
aVrest-21
p622
aVthe-20
p623
aa(lp624
Vprep_with
p625
aVJerry-18
p626
aVrest-21
p627
aasa(dp628
Vparsetree
p629
V(ROOT (SBARQ (SBAR (IN If) (S (NP (PRP he)) (VP (MD can) (VP (VB fit) (NP (CD 3) (NNS books)) (PP (IN on) (NP (DT a) (NN shelf))))))) (, ,) (WHNP (WHADJP (WRB how) (JJ many)) (NNS shelves)) (SQ (MD will) (NP (PRP he)) (VP (VB need))) (. ?)))
p630
sVtext
p631
VIf he can fit 3 books on a shelf , how many shelves will he need ?
p632
sVdependencies
p633
(lp634
(lp635
Vroot
p636
aVROOT
p637
aVneed
p638
aa(lp639
Vmark
p640
aVfit
p641
aVIf
p642
aa(lp643
Vnsubj
p644
aVfit
p645
aVhe
p646
aa(lp647
Vaux
p648
aVfit
p649
aVcan
p650
aa(lp651
Vadvcl
p652
aVneed
p653
aVfit
p654
aa(lp655
Vnum
p656
aVbooks
p657
aV3
p658
aa(lp659
Vdobj
p660
aVfit
p661
aVbooks
p662
aa(lp663
Vdet
p664
aVshelf
p665
ag261
aa(lp666
Vprep_on
p667
aVfit
p668
aVshelf
p669
aa(lp670
Vadvmod
p671
aVmany
p672
aVhow
p673
aa(lp674
Vamod
p675
aVshelves
p676
aVmany
p677
aa(lp678
Vdobj
p679
aVneed
p680
aVshelves
p681
aa(lp682
Vaux
p683
aVneed
p684
aVwill
p685
aa(lp686
Vnsubj
p687
aVneed
p688
aVhe
p689
aasVwords
p690
(lp691
(lp692
VIf
p693
a(dp694
VNamedEntityTag
p695
g78
sVCharacterOffsetEnd
p696
V153
p697
sVCharacterOffsetBegin
p698
V151
p699
sVPartOfSpeech
p700
VIN
p701
sVLemma
p702
Vif
p703
saa(lp704
Vhe
p705
a(dp706
VNamedEntityTag
p707
g78
sVCharacterOffsetEnd
p708
V156
p709
sVCharacterOffsetBegin
p710
V154
p711
sVPartOfSpeech
p712
VPRP
p713
sVLemma
p714
Vhe
p715
saa(lp716
Vcan
p717
a(dp718
VNamedEntityTag
p719
g78
sVCharacterOffsetEnd
p720
V160
p721
sVCharacterOffsetBegin
p722
V157
p723
sVPartOfSpeech
p724
VMD
p725
sVLemma
p726
Vcan
p727
saa(lp728
Vfit
p729
a(dp730
VNamedEntityTag
p731
g78
sVCharacterOffsetEnd
p732
V164
p733
sVCharacterOffsetBegin
p734
V161
p735
sVPartOfSpeech
p736
VVB
p737
sVLemma
p738
Vfit
p739
saa(lp740
g658
a(dp741
VNormalizedNamedEntityTag
p742
V3.0
p743
sVLemma
p744
g658
sVCharacterOffsetEnd
p745
V166
p746
sVPartOfSpeech
p747
VCD
p748
sVCharacterOffsetBegin
p749
V165
p750
sVNamedEntityTag
p751
VNUMBER
p752
saa(lp753
Vbooks
p754
a(dp755
VNamedEntityTag
p756
g78
sVCharacterOffsetEnd
p757
V172
p758
sVCharacterOffsetBegin
p759
V167
p760
sVPartOfSpeech
p761
VNNS
p762
sVLemma
p763
Vbook
p764
saa(lp765
Von
p766
a(dp767
VNamedEntityTag
p768
g78
sVCharacterOffsetEnd
p769
V175
p770
sVCharacterOffsetBegin
p771
V173
p772
sVPartOfSpeech
p773
VIN
p774
sVLemma
p775
Von
p776
saa(lp777
g261
a(dp778
VNamedEntityTag
p779
g78
sVCharacterOffsetEnd
p780
V177
p781
sVCharacterOffsetBegin
p782
V176
p783
sVPartOfSpeech
p784
VDT
p785
sVLemma
p786
g261
saa(lp787
Vshelf
p788
a(dp789
VNamedEntityTag
p790
g78
sVCharacterOffsetEnd
p791
V183
p792
sVCharacterOffsetBegin
p793
V178
p794
sVPartOfSpeech
p795
VNN
p796
sVLemma
p797
Vshelf
p798
saa(lp799
V,
p800
a(dp801
VNamedEntityTag
p802
g78
sVCharacterOffsetEnd
p803
V185
p804
sVCharacterOffsetBegin
p805
V184
p806
sVPartOfSpeech
p807
g800
sVLemma
p808
g800
saa(lp809
Vhow
p810
a(dp811
VNamedEntityTag
p812
g78
sVCharacterOffsetEnd
p813
V189
p814
sVCharacterOffsetBegin
p815
V186
p816
sVPartOfSpeech
p817
VWRB
p818
sVLemma
p819
Vhow
p820
saa(lp821
Vmany
p822
a(dp823
VNamedEntityTag
p824
g78
sVCharacterOffsetEnd
p825
V194
p826
sVCharacterOffsetBegin
p827
V190
p828
sVPartOfSpeech
p829
VJJ
p830
sVLemma
p831
Vmany
p832
saa(lp833
Vshelves
p834
a(dp835
VNamedEntityTag
p836
g78
sVCharacterOffsetEnd
p837
V202
p838
sVCharacterOffsetBegin
p839
V195
p840
sVPartOfSpeech
p841
VNNS
p842
sVLemma
p843
Vshelf
p844
saa(lp845
Vwill
p846
a(dp847
VNamedEntityTag
p848
g78
sVCharacterOffsetEnd
p849
V207
p850
sVCharacterOffsetBegin
p851
V203
p852
sVPartOfSpeech
p853
VMD
p854
sVLemma
p855
Vwill
p856
saa(lp857
Vhe
p858
a(dp859
VNamedEntityTag
p860
g78
sVCharacterOffsetEnd
p861
V210
p862
sVCharacterOffsetBegin
p863
V208
p864
sVPartOfSpeech
p865
VPRP
p866
sVLemma
p867
Vhe
p868
saa(lp869
Vneed
p870
a(dp871
VNamedEntityTag
p872
g78
sVCharacterOffsetEnd
p873
V215
p874
sVCharacterOffsetBegin
p875
V211
p876
sVPartOfSpeech
p877
VVB
p878
sVLemma
p879
Vneed
p880
saa(lp881
V?
p882
a(dp883
VNamedEntityTag
p884
g78
sVCharacterOffsetEnd
p885
V217
p886
sVCharacterOffsetBegin
p887
V216
p888
sVPartOfSpeech
p889
g172
sVLemma
p890
g882
saasVindexeddependencies
p891
(lp892
(lp893
Vroot
p894
aVROOT-0
p895
aVneed-16
p896
aa(lp897
Vmark
p898
aVfit-4
p899
aVIf-1
p900
aa(lp901
Vnsubj
p902
aVfit-4
p903
aVhe-2
p904
aa(lp905
Vaux
p906
aVfit-4
p907
aVcan-3
p908
aa(lp909
Vadvcl
p910
aVneed-16
p911
aVfit-4
p912
aa(lp913
Vnum
p914
aVbooks-6
p915
aV3-5
p916
aa(lp917
Vdobj
p918
aVfit-4
p919
aVbooks-6
p920
aa(lp921
Vdet
p922
aVshelf-9
p923
aVa-8
p924
aa(lp925
Vprep_on
p926
aVfit-4
p927
aVshelf-9
p928
aa(lp929
Vadvmod
p930
aVmany-12
p931
aVhow-11
p932
aa(lp933
Vamod
p934
aVshelves-13
p935
aVmany-12
p936
aa(lp937
Vdobj
p938
aVneed-16
p939
aVshelves-13
p940
aa(lp941
Vaux
p942
aVneed-16
p943
aVwill-14
p944
aa(lp945
Vnsubj
p946
aVneed-16
p947
aVhe-15
p948
aasas.