(dp0
Vcoref
p1
(lp2
(lp3
(lp4
(lp5
Vhe
p6
aI1
aI16
aI16
aI17
aa(lp7
Vhe
p8
aI1
aI1
aI1
aI2
aaa(lp9
(lp10
Vhe
p11
aI1
aI21
aI21
aI22
aa(lp12
Vhe
p13
aI1
aI1
aI1
aI2
aaaasVsentences
p14
(lp15
(dp16
Vparsetree
p17
V(ROOT (S (VP (MD Will) (VP (VBD had) (NP (CD 83) (NNS dollars)))) (. .)))
p18
sVtext
p19
VWill had 83 dollars .
p20
sVdependencies
p21
(lp22
(lp23
Vroot
p24
aVROOT
p25
aVhad
p26
aa(lp27
Vaux
p28
aVhad
p29
aVWill
p30
aa(lp31
Vnum
p32
aVdollars
p33
aV83
p34
aa(lp35
Vdobj
p36
aVhad
p37
aVdollars
p38
aasVwords
p39
(lp40
(lp41
VWill
p42
a(dp43
VNamedEntityTag
p44
VO
p45
sVCharacterOffsetEnd
p46
V5
p47
sVCharacterOffsetBegin
p48
V1
p49
sVPartOfSpeech
p50
VMD
p51
sVLemma
p52
Vwill
p53
saa(lp54
Vhad
p55
a(dp56
VNamedEntityTag
p57
g45
sVCharacterOffsetEnd
p58
V9
p59
sVCharacterOffsetBegin
p60
V6
p61
sVPartOfSpeech
p62
VVBD
p63
sVLemma
p64
Vhave
p65
saa(lp66
V83
p67
a(dp68
VNormalizedNamedEntityTag
p69
V$83.0
p70
sVLemma
p71
V83
p72
sVCharacterOffsetEnd
p73
V12
p74
sVPartOfSpeech
p75
VCD
p76
sVCharacterOffsetBegin
p77
V10
p78
sVNamedEntityTag
p79
VMONEY
p80
saa(lp81
Vdollars
p82
a(dp83
VNormalizedNamedEntityTag
p84
V$83.0
p85
sVLemma
p86
Vdollar
p87
sVCharacterOffsetEnd
p88
V20
p89
sVPartOfSpeech
p90
VNNS
p91
sVCharacterOffsetBegin
p92
V13
p93
sVNamedEntityTag
p94
VMONEY
p95
saa(lp96
V.
p97
a(dp98
VNamedEntityTag
p99
g45
sVCharacterOffsetEnd
p100
V22
p101
sVCharacterOffsetBegin
p102
V21
p103
sVPartOfSpeech
p104
g97
sVLemma
p105
g97
saasVindexeddependencies
p106
(lp107
(lp108
Vroot
p109
aVROOT-0
p110
aVhad-2
p111
aa(lp112
Vaux
p113
aVhad-2
p114
aVWill-1
p115
aa(lp116
Vnum
p117
aVdollars-4
p118
aV83-3
p119
aa(lp120
Vdobj
p121
aVhad-2
p122
aVdollars-4
p123
aasa(dp124
Vparsetree
p125
V(ROOT (SBARQ (SBAR (IN If) (S (NP (PRP he)) (VP (VBD spent) (NP (CD 47) (NNS bucks)) (PP (IN on) (NP (DT a) (JJ new) (NN game)))))) (, ,) (WHNP (WHADJP (WRB how) (JJ many)) (NP (NP (CD 4) (NN dollar)) (NP (NNS toys)))) (SQ (MD could) (NP (PRP he)) (VP (VB buy) (PP (IN with) (NP (NP (DT the) (NN money)) (SBAR (S (NP (PRP he)) (VP (VBD had) (VP (VBN left))))))))) (. ?)))
p126
sVtext
p127
VIf he spent 47 bucks on a new game , how many 4 dollar toys could he buy with the money he had left ?
p128
sVdependencies
p129
(lp130
(lp131
Vroot
p132
aVROOT
p133
aVbuy
p134
aa(lp135
Vmark
p136
aVspent
p137
aVIf
p138
aa(lp139
Vnsubj
p140
aVspent
p141
aVhe
p142
aa(lp143
Vadvcl
p144
aVbuy
p145
aVspent
p146
aa(lp147
Vnum
p148
aVbucks
p149
aV47
p150
aa(lp151
Vdobj
p152
aVspent
p153
aVbucks
p154
aa(lp155
Vdet
p156
aVgame
p157
aVa
p158
aa(lp159
Vamod
p160
aVgame
p161
aVnew
p162
aa(lp163
Vprep_on
p164
aVspent
p165
aVgame
p166
aa(lp167
Vadvmod
p168
aVmany
p169
aVhow
p170
aa(lp171
Vamod
p172
aVdollar
p173
aVmany
p174
aa(lp175
Vnum
p176
aVdollar
p177
aV4
p178
aa(lp179
Vdobj
p180
aVbuy
p181
aVdollar
p182
aa(lp183
Vdep
p184
aVdollar
p185
aVtoys
p186
aa(lp187
Vaux
p188
aVbuy
p189
aVcould
p190
aa(lp191
Vnsubj
p192
aVbuy
p193
aVhe
p194
aa(lp195
Vdet
p196
aVmoney
p197
aVthe
p198
aa(lp199
Vprep_with
p200
aVbuy
p201
aVmoney
p202
aa(lp203
Vnsubj
p204
aVleft
p205
aVhe
p206
aa(lp207
Vaux
p208
aVleft
p209
aVhad
p210
aa(lp211
Vrcmod
p212
aVmoney
p213
aVleft
p214
aasVwords
p215
(lp216
(lp217
VIf
p218
a(dp219
VNamedEntityTag
p220
g45
sVCharacterOffsetEnd
p221
V25
p222
sVCharacterOffsetBegin
p223
V23
p224
sVPartOfSpeech
p225
VIN
p226
sVLemma
p227
Vif
p228
saa(lp229
Vhe
p230
a(dp231
VNamedEntityTag
p232
g45
sVCharacterOffsetEnd
p233
V28
p234
sVCharacterOffsetBegin
p235
V26
p236
sVPartOfSpeech
p237
VPRP
p238
sVLemma
p239
Vhe
p240
saa(lp241
Vspent
p242
a(dp243
VNamedEntityTag
p244
g45
sVCharacterOffsetEnd
p245
V34
p246
sVCharacterOffsetBegin
p247
V29
p248
sVPartOfSpeech
p249
VVBD
p250
sVLemma
p251
Vspend
p252
saa(lp253
V47
p254
a(dp255
VNormalizedNamedEntityTag
p256
V47.0
p257
sVLemma
p258
V47
p259
sVCharacterOffsetEnd
p260
V37
p261
sVPartOfSpeech
p262
VCD
p263
sVCharacterOffsetBegin
p264
V35
p265
sVNamedEntityTag
p266
VNUMBER
p267
saa(lp268
Vbucks
p269
a(dp270
VNamedEntityTag
p271
g45
sVCharacterOffsetEnd
p272
V43
p273
sVCharacterOffsetBegin
p274
V38
p275
sVPartOfSpeech
p276
VNNS
p277
sVLemma
p278
Vbuck
p279
saa(lp280
Von
p281
a(dp282
VNamedEntityTag
p283
g45
sVCharacterOffsetEnd
p284
V46
p285
sVCharacterOffsetBegin
p286
V44
p287
sVPartOfSpeech
p288
VIN
p289
sVLemma
p290
Von
p291
saa(lp292
g158
a(dp293
VNamedEntityTag
p294
g45
sVCharacterOffsetEnd
p295
V48
p296
sVCharacterOffsetBegin
p297
V47
p298
sVPartOfSpeech
p299
VDT
p300
sVLemma
p301
g158
saa(lp302
Vnew
p303
a(dp304
VNamedEntityTag
p305
g45
sVCharacterOffsetEnd
p306
V52
p307
sVCharacterOffsetBegin
p308
V49
p309
sVPartOfSpeech
p310
VJJ
p311
sVLemma
p312
Vnew
p313
saa(lp314
Vgame
p315
a(dp316
VNamedEntityTag
p317
g45
sVCharacterOffsetEnd
p318
V57
p319
sVCharacterOffsetBegin
p320
V53
p321
sVPartOfSpeech
p322
VNN
p323
sVLemma
p324
Vgame
p325
saa(lp326
V,
p327
a(dp328
VNamedEntityTag
p329
g45
sVCharacterOffsetEnd
p330
V59
p331
sVCharacterOffsetBegin
p332
V58
p333
sVPartOfSpeech
p334
g327
sVLemma
p335
g327
saa(lp336
Vhow
p337
a(dp338
VNamedEntityTag
p339
g45
sVCharacterOffsetEnd
p340
V63
p341
sVCharacterOffsetBegin
p342
V60
p343
sVPartOfSpeech
p344
VWRB
p345
sVLemma
p346
Vhow
p347
saa(lp348
Vmany
p349
a(dp350
VNamedEntityTag
p351
g45
sVCharacterOffsetEnd
p352
V68
p353
sVCharacterOffsetBegin
p354
V64
p355
sVPartOfSpeech
p356
VJJ
p357
sVLemma
p358
Vmany
p359
saa(lp360
g178
a(dp361
VNormalizedNamedEntityTag
p362
V$4.0
p363
sVLemma
p364
g178
sVCharacterOffsetEnd
p365
V70
p366
sVPartOfSpeech
p367
VCD
p368
sVCharacterOffsetBegin
p369
V69
p370
sVNamedEntityTag
p371
VMONEY
p372
saa(lp373
Vdollar
p374
a(dp375
VNormalizedNamedEntityTag
p376
V$4.0
p377
sVLemma
p378
Vdollar
p379
sVCharacterOffsetEnd
p380
V77
p381
sVPartOfSpeech
p382
VNN
p383
sVCharacterOffsetBegin
p384
V71
p385
sVNamedEntityTag
p386
VMONEY
p387
saa(lp388
Vtoys
p389
a(dp390
VNamedEntityTag
p391
g45
sVCharacterOffsetEnd
p392
V82
p393
sVCharacterOffsetBegin
p394
V78
p395
sVPartOfSpeech
p396
VNNS
p397
sVLemma
p398
Vtoy
p399
saa(lp400
Vcould
p401
a(dp402
VNamedEntityTag
p403
g45
sVCharacterOffsetEnd
p404
V88
p405
sVCharacterOffsetBegin
p406
V83
p407
sVPartOfSpeech
p408
VMD
p409
sVLemma
p410
Vcould
p411
saa(lp412
Vhe
p413
a(dp414
VNamedEntityTag
p415
g45
sVCharacterOffsetEnd
p416
V91
p417
sVCharacterOffsetBegin
p418
V89
p419
sVPartOfSpeech
p420
VPRP
p421
sVLemma
p422
Vhe
p423
saa(lp424
Vbuy
p425
a(dp426
VNamedEntityTag
p427
g45
sVCharacterOffsetEnd
p428
V95
p429
sVCharacterOffsetBegin
p430
V92
p431
sVPartOfSpeech
p432
VVB
p433
sVLemma
p434
Vbuy
p435
saa(lp436
Vwith
p437
a(dp438
VNamedEntityTag
p439
g45
sVCharacterOffsetEnd
p440
V100
p441
sVCharacterOffsetBegin
p442
V96
p443
sVPartOfSpeech
p444
VIN
p445
sVLemma
p446
Vwith
p447
saa(lp448
Vthe
p449
a(dp450
VNamedEntityTag
p451
g45
sVCharacterOffsetEnd
p452
V104
p453
sVCharacterOffsetBegin
p454
V101
p455
sVPartOfSpeech
p456
VDT
p457
sVLemma
p458
Vthe
p459
saa(lp460
Vmoney
p461
a(dp462
VNamedEntityTag
p463
g45
sVCharacterOffsetEnd
p464
V110
p465
sVCharacterOffsetBegin
p466
V105
p467
sVPartOfSpeech
p468
VNN
p469
sVLemma
p470
Vmoney
p471
saa(lp472
Vhe
p473
a(dp474
VNamedEntityTag
p475
g45
sVCharacterOffsetEnd
p476
V113
p477
sVCharacterOffsetBegin
p478
V111
p479
sVPartOfSpeech
p480
VPRP
p481
sVLemma
p482
Vhe
p483
saa(lp484
Vhad
p485
a(dp486
VNamedEntityTag
p487
g45
sVCharacterOffsetEnd
p488
V117
p489
sVCharacterOffsetBegin
p490
V114
p491
sVPartOfSpeech
p492
VVBD
p493
sVLemma
p494
Vhave
p495
saa(lp496
Vleft
p497
a(dp498
VNamedEntityTag
p499
g45
sVCharacterOffsetEnd
p500
V122
p501
sVCharacterOffsetBegin
p502
V118
p503
sVPartOfSpeech
p504
VVBN
p505
sVLemma
p506
Vleave
p507
saa(lp508
V?
p509
a(dp510
VNamedEntityTag
p511
g45
sVCharacterOffsetEnd
p512
V124
p513
sVCharacterOffsetBegin
p514
V123
p515
sVPartOfSpeech
p516
g97
sVLemma
p517
g509
saasVindexeddependencies
p518
(lp519
(lp520
Vroot
p521
aVROOT-0
p522
aVbuy-18
p523
aa(lp524
Vmark
p525
aVspent-3
p526
aVIf-1
p527
aa(lp528
Vnsubj
p529
aVspent-3
p530
aVhe-2
p531
aa(lp532
Vadvcl
p533
aVbuy-18
p534
aVspent-3
p535
aa(lp536
Vnum
p537
aVbucks-5
p538
aV47-4
p539
aa(lp540
Vdobj
p541
aVspent-3
p542
aVbucks-5
p543
aa(lp544
Vdet
p545
aVgame-9
p546
aVa-7
p547
aa(lp548
Vamod
p549
aVgame-9
p550
aVnew-8
p551
aa(lp552
Vprep_on
p553
aVspent-3
p554
aVgame-9
p555
aa(lp556
Vadvmod
p557
aVmany-12
p558
aVhow-11
p559
aa(lp560
Vamod
p561
aVdollar-14
p562
aVmany-12
p563
aa(lp564
Vnum
p565
aVdollar-14
p566
aV4-13
p567
aa(lp568
Vdobj
p569
aVbuy-18
p570
aVdollar-14
p571
aa(lp572
Vdep
p573
aVdollar-14
p574
aVtoys-15
p575
aa(lp576
Vaux
p577
aVbuy-18
p578
aVcould-16
p579
aa(lp580
Vnsubj
p581
aVbuy-18
p582
aVhe-17
p583
aa(lp584
Vdet
p585
aVmoney-21
p586
aVthe-20
p587
aa(lp588
Vprep_with
p589
aVbuy-18
p590
aVmoney-21
p591
aa(lp592
Vnsubj
p593
aVleft-24
p594
aVhe-22
p595
aa(lp596
Vaux
p597
aVleft-24
p598
aVhad-23
p599
aa(lp600
Vrcmod
p601
aVmoney-21
p602
aVleft-24
p603
aasas.