(dp0
Vcoref
p1
(lp2
(lp3
(lp4
(lp5
Vthey
p6
aI2
aI11
aI11
aI12
aa(lp7
Vthey
p8
aI1
aI2
aI2
aI3
aaaasVsentences
p9
(lp10
(dp11
Vparsetree
p12
V(ROOT (S (NP (DT The) (NN cafeteria)) (VP (VBD had) (NP (CD 47) (NNS apples))) (. .)))
p13
sVtext
p14
VThe cafeteria had 47 apples .
p15
sVdependencies
p16
(lp17
(lp18
Vroot
p19
aVROOT
p20
aVhad
p21
aa(lp22
Vdet
p23
aVcafeteria
p24
aVThe
p25
aa(lp26
Vnsubj
p27
aVhad
p28
aVcafeteria
p29
aa(lp30
Vnum
p31
aVapples
p32
aV47
p33
aa(lp34
Vdobj
p35
aVhad
p36
aVapples
p37
aasVwords
p38
(lp39
(lp40
VThe
p41
a(dp42
VNamedEntityTag
p43
VO
p44
sVCharacterOffsetEnd
p45
V4
p46
sVCharacterOffsetBegin
p47
V1
p48
sVPartOfSpeech
p49
VDT
p50
sVLemma
p51
Vthe
p52
saa(lp53
Vcafeteria
p54
a(dp55
VNamedEntityTag
p56
g44
sVCharacterOffsetEnd
p57
V14
p58
sVCharacterOffsetBegin
p59
V5
p60
sVPartOfSpeech
p61
VNN
p62
sVLemma
p63
Vcafeteria
p64
saa(lp65
Vhad
p66
a(dp67
VNamedEntityTag
p68
g44
sVCharacterOffsetEnd
p69
V18
p70
sVCharacterOffsetBegin
p71
V15
p72
sVPartOfSpeech
p73
VVBD
p74
sVLemma
p75
Vhave
p76
saa(lp77
V47
p78
a(dp79
VNormalizedNamedEntityTag
p80
V47.0
p81
sVLemma
p82
V47
p83
sVCharacterOffsetEnd
p84
V21
p85
sVPartOfSpeech
p86
VCD
p87
sVCharacterOffsetBegin
p88
V19
p89
sVNamedEntityTag
p90
VNUMBER
p91
saa(lp92
Vapples
p93
a(dp94
VNamedEntityTag
p95
g44
sVCharacterOffsetEnd
p96
V28
p97
sVCharacterOffsetBegin
p98
V22
p99
sVPartOfSpeech
p100
VNNS
p101
sVLemma
p102
Vapple
p103
saa(lp104
V.
p105
a(dp106
VNamedEntityTag
p107
g44
sVCharacterOffsetEnd
p108
V30
p109
sVCharacterOffsetBegin
p110
V29
p111
sVPartOfSpeech
p112
g105
sVLemma
p113
g105
saasVindexeddependencies
p114
(lp115
(lp116
Vroot
p117
aVROOT-0
p118
aVhad-3
p119
aa(lp120
Vdet
p121
aVcafeteria-2
p122
aVThe-1
p123
aa(lp124
Vnsubj
p125
aVhad-3
p126
aVcafeteria-2
p127
aa(lp128
Vnum
p129
aVapples-5
p130
aV47-4
p131
aa(lp132
Vdobj
p133
aVhad-3
p134
aVapples-5
p135
aasa(dp136
Vparsetree
p137
V(ROOT (S (PP (IN For) (NP (NN lunch))) (NP (PRP they)) (VP (VP (VBD handed) (PRT (RP out)) (NP (CD 27)) (PP (TO to) (NP (NNS students)))) (CC and) (VP (VBD decided) (S (VP (TO to) (VP (VB use) (NP (DT the) (NN rest) (S (VP (TO to) (VP (VB make) (NP (NNS pies))))))))))) (. .)))
p138
sVtext
p139
VFor lunch they handed out 27 to students and decided to use the rest to make pies .
p140
sVdependencies
p141
(lp142
(lp143
Vroot
p144
aVROOT
p145
aVhanded
p146
aa(lp147
Vprep_for
p148
aVhanded
p149
aVlunch
p150
aa(lp151
Vnsubj
p152
aVhanded
p153
aVthey
p154
aa(lp155
Vprt
p156
aVhanded
p157
aVout
p158
aa(lp159
Vdobj
p160
aVhanded
p161
aV27
p162
aa(lp163
Vprep_to
p164
aVhanded
p165
aVstudents
p166
aa(lp167
Vconj_and
p168
aVhanded
p169
aVdecided
p170
aa(lp171
Vaux
p172
aVuse
p173
aVto
p174
aa(lp175
Vxcomp
p176
aVdecided
p177
aVuse
p178
aa(lp179
Vdet
p180
aVrest
p181
aVthe
p182
aa(lp183
Vdobj
p184
aVuse
p185
aVrest
p186
aa(lp187
Vaux
p188
aVmake
p189
aVto
p190
aa(lp191
Vvmod
p192
aVrest
p193
aVmake
p194
aa(lp195
Vdobj
p196
aVmake
p197
aVpies
p198
aasVwords
p199
(lp200
(lp201
VFor
p202
a(dp203
VNamedEntityTag
p204
g44
sVCharacterOffsetEnd
p205
V34
p206
sVCharacterOffsetBegin
p207
V31
p208
sVPartOfSpeech
p209
VIN
p210
sVLemma
p211
Vfor
p212
saa(lp213
Vlunch
p214
a(dp215
VNamedEntityTag
p216
g44
sVCharacterOffsetEnd
p217
V40
p218
sVCharacterOffsetBegin
p219
V35
p220
sVPartOfSpeech
p221
VNN
p222
sVLemma
p223
Vlunch
p224
saa(lp225
Vthey
p226
a(dp227
VNamedEntityTag
p228
g44
sVCharacterOffsetEnd
p229
V45
p230
sVCharacterOffsetBegin
p231
V41
p232
sVPartOfSpeech
p233
VPRP
p234
sVLemma
p235
Vthey
p236
saa(lp237
Vhanded
p238
a(dp239
VNamedEntityTag
p240
g44
sVCharacterOffsetEnd
p241
V52
p242
sVCharacterOffsetBegin
p243
V46
p244
sVPartOfSpeech
p245
VVBD
p246
sVLemma
p247
Vhand
p248
saa(lp249
Vout
p250
a(dp251
VNamedEntityTag
p252
g44
sVCharacterOffsetEnd
p253
V56
p254
sVCharacterOffsetBegin
p255
V53
p256
sVPartOfSpeech
p257
VRP
p258
sVLemma
p259
Vout
p260
saa(lp261
V27
p262
a(dp263
VNormalizedNamedEntityTag
p264
V27.0
p265
sVLemma
p266
V27
p267
sVCharacterOffsetEnd
p268
V59
p269
sVPartOfSpeech
p270
VCD
p271
sVCharacterOffsetBegin
p272
V57
p273
sVNamedEntityTag
p274
VNUMBER
p275
saa(lp276
Vto
p277
a(dp278
VNamedEntityTag
p279
g44
sVCharacterOffsetEnd
p280
V62
p281
sVCharacterOffsetBegin
p282
V60
p283
sVPartOfSpeech
p284
VTO
p285
sVLemma
p286
Vto
p287
saa(lp288
Vstudents
p289
a(dp290
VNamedEntityTag
p291
g44
sVCharacterOffsetEnd
p292
V71
p293
sVCharacterOffsetBegin
p294
V63
p295
sVPartOfSpeech
p296
VNNS
p297
sVLemma
p298
Vstudent
p299
saa(lp300
Vand
p301
a(dp302
VNamedEntityTag
p303
g44
sVCharacterOffsetEnd
p304
V75
p305
sVCharacterOffsetBegin
p306
V72
p307
sVPartOfSpeech
p308
VCC
p309
sVLemma
p310
Vand
p311
saa(lp312
Vdecided
p313
a(dp314
VNamedEntityTag
p315
g44
sVCharacterOffsetEnd
p316
V83
p317
sVCharacterOffsetBegin
p318
V76
p319
sVPartOfSpeech
p320
VVBD
p321
sVLemma
p322
Vdecide
p323
saa(lp324
Vto
p325
a(dp326
VNamedEntityTag
p327
g44
sVCharacterOffsetEnd
p328
V86
p329
sVCharacterOffsetBegin
p330
V84
p331
sVPartOfSpeech
p332
VTO
p333
sVLemma
p334
Vto
p335
saa(lp336
Vuse
p337
a(dp338
VNamedEntityTag
p339
g44
sVCharacterOffsetEnd
p340
V90
p341
sVCharacterOffsetBegin
p342
V87
p343
sVPartOfSpeech
p344
VVB
p345
sVLemma
p346
Vuse
p347
saa(lp348
Vthe
p349
a(dp350
VNamedEntityTag
p351
g44
sVCharacterOffsetEnd
p352
V94
p353
sVCharacterOffsetBegin
p354
V91
p355
sVPartOfSpeech
p356
VDT
p357
sVLemma
p358
Vthe
p359
saa(lp360
Vrest
p361
a(dp362
VNamedEntityTag
p363
g44
sVCharacterOffsetEnd
p364
V99
p365
sVCharacterOffsetBegin
p366
V95
p367
sVPartOfSpeech
p368
VNN
p369
sVLemma
p370
Vrest
p371
saa(lp372
Vto
p373
a(dp374
VNamedEntityTag
p375
g44
sVCharacterOffsetEnd
p376
V102
p377
sVCharacterOffsetBegin
p378
V100
p379
sVPartOfSpeech
p380
VTO
p381
sVLemma
p382
Vto
p383
saa(lp384
Vmake
p385
a(dp386
VNamedEntityTag
p387
g44
sVCharacterOffsetEnd
p388
V107
p389
sVCharacterOffsetBegin
p390
V103
p391
sVPartOfSpeech
p392
VVB
p393
sVLemma
p394
Vmake
p395
saa(lp396
Vpies
p397
a(dp398
VNamedEntityTag
p399
g44
sVCharacterOffsetEnd
p400
V112
p401
sVCharacterOffsetBegin
p402
V108
p403
sVPartOfSpeech
p404
VNNS
p405
sVLemma
p406
Vpie
p407
saa(lp408
g105
a(dp409
VNamedEntityTag
p410
g44
sVCharacterOffsetEnd
p411
V114
p412
sVCharacterOffsetBegin
p413
V113
p414
sVPartOfSpeech
p415
g105
sVLemma
p416
g105
saasVindexeddependencies
p417
(lp418
(lp419
Vroot
p420
aVROOT-0
p421
aVhanded-4
p422
aa(lp423
Vprep_for
p424
aVhanded-4
p425
aVlunch-2
p426
aa(lp427
Vnsubj
p428
aVhanded-4
p429
aVthey-3
p430
aa(lp431
Vprt
p432
aVhanded-4
p433
aVout-5
p434
aa(lp435
Vdobj
p436
aVhanded-4
p437
aV27-6
p438
aa(lp439
Vprep_to
p440
aVhanded-4
p441
aVstudents-8
p442
aa(lp443
Vconj_and
p444
aVhanded-4
p445
aVdecided-10
p446
aa(lp447
Vaux
p448
aVuse-12
p449
aVto-11
p450
aa(lp451
Vxcomp
p452
aVdecided-10
p453
aVuse-12
p454
aa(lp455
Vdet
p456
aVrest-14
p457
aVthe-13
p458
aa(lp459
Vdobj
p460
aVuse-12
p461
aVrest-14
p462
aa(lp463
Vaux
p464
aVmake-16
p465
aVto-15
p466
aa(lp467
Vvmod
p468
aVrest-14
p469
aVmake-16
p470
aa(lp471
Vdobj
p472
aVmake-16
p473
aVpies-17
p474
aasa(dp475
Vparsetree
p476
V(ROOT (SBARQ (SBAR (IN If) (S (NP (DT each) (NN pie)) (VP (VBZ takes) (NP (CD 4) (NNS apples))))) (, ,) (WHNP (WHADJP (WRB how) (JJ many)) (NNS pies)) (SQ (MD could) (NP (PRP they)) (VP (VB make))) (. ?)))
p477
sVtext
p478
VIf each pie takes 4 apples , how many pies could they make ?
p479
sVdependencies
p480
(lp481
(lp482
Vroot
p483
aVROOT
p484
aVmake
p485
aa(lp486
Vmark
p487
aVtakes
p488
aVIf
p489
aa(lp490
Vdet
p491
aVpie
p492
aVeach
p493
aa(lp494
Vnsubj
p495
aVtakes
p496
aVpie
p497
aa(lp498
Vadvcl
p499
aVmake
p500
aVtakes
p501
aa(lp502
Vnum
p503
aVapples
p504
ag46
aa(lp505
Vdobj
p506
aVtakes
p507
aVapples
p508
aa(lp509
Vadvmod
p510
aVmany
p511
aVhow
p512
aa(lp513
Vamod
p514
aVpies
p515
aVmany
p516
aa(lp517
Vdobj
p518
aVmake
p519
aVpies
p520
aa(lp521
Vaux
p522
aVmake
p523
aVcould
p524
aa(lp525
Vnsubj
p526
aVmake
p527
aVthey
p528
aasVwords
p529
(lp530
(lp531
VIf
p532
a(dp533
VNamedEntityTag
p534
g44
sVCharacterOffsetEnd
p535
V117
p536
sVCharacterOffsetBegin
p537
V115
p538
sVPartOfSpeech
p539
VIN
p540
sVLemma
p541
Vif
p542
saa(lp543
Veach
p544
a(dp545
VNamedEntityTag
p546
g44
sVCharacterOffsetEnd
p547
V122
p548
sVCharacterOffsetBegin
p549
V118
p550
sVPartOfSpeech
p551
VDT
p552
sVLemma
p553
Veach
p554
saa(lp555
Vpie
p556
a(dp557
VNamedEntityTag
p558
g44
sVCharacterOffsetEnd
p559
V126
p560
sVCharacterOffsetBegin
p561
V123
p562
sVPartOfSpeech
p563
VNN
p564
sVLemma
p565
Vpie
p566
saa(lp567
Vtakes
p568
a(dp569
VNamedEntityTag
p570
g44
sVCharacterOffsetEnd
p571
V132
p572
sVCharacterOffsetBegin
p573
V127
p574
sVPartOfSpeech
p575
VVBZ
p576
sVLemma
p577
Vtake
p578
saa(lp579
g46
a(dp580
VNormalizedNamedEntityTag
p581
V4.0
p582
sVLemma
p583
g46
sVCharacterOffsetEnd
p584
V134
p585
sVPartOfSpeech
p586
VCD
p587
sVCharacterOffsetBegin
p588
V133
p589
sVNamedEntityTag
p590
VNUMBER
p591
saa(lp592
Vapples
p593
a(dp594
VNamedEntityTag
p595
g44
sVCharacterOffsetEnd
p596
V141
p597
sVCharacterOffsetBegin
p598
V135
p599
sVPartOfSpeech
p600
VNNS
p601
sVLemma
p602
Vapple
p603
saa(lp604
V,
p605
a(dp606
VNamedEntityTag
p607
g44
sVCharacterOffsetEnd
p608
V143
p609
sVCharacterOffsetBegin
p610
V142
p611
sVPartOfSpeech
p612
g605
sVLemma
p613
g605
saa(lp614
Vhow
p615
a(dp616
VNamedEntityTag
p617
g44
sVCharacterOffsetEnd
p618
V147
p619
sVCharacterOffsetBegin
p620
V144
p621
sVPartOfSpeech
p622
VWRB
p623
sVLemma
p624
Vhow
p625
saa(lp626
Vmany
p627
a(dp628
VNamedEntityTag
p629
g44
sVCharacterOffsetEnd
p630
V152
p631
sVCharacterOffsetBegin
p632
V148
p633
sVPartOfSpeech
p634
VJJ
p635
sVLemma
p636
Vmany
p637
saa(lp638
Vpies
p639
a(dp640
VNamedEntityTag
p641
g44
sVCharacterOffsetEnd
p642
V157
p643
sVCharacterOffsetBegin
p644
V153
p645
sVPartOfSpeech
p646
VNNS
p647
sVLemma
p648
Vpie
p649
saa(lp650
Vcould
p651
a(dp652
VNamedEntityTag
p653
g44
sVCharacterOffsetEnd
p654
V163
p655
sVCharacterOffsetBegin
p656
V158
p657
sVPartOfSpeech
p658
VMD
p659
sVLemma
p660
Vcould
p661
saa(lp662
Vthey
p663
a(dp664
VNamedEntityTag
p665
g44
sVCharacterOffsetEnd
p666
V168
p667
sVCharacterOffsetBegin
p668
V164
p669
sVPartOfSpeech
p670
VPRP
p671
sVLemma
p672
Vthey
p673
saa(lp674
Vmake
p675
a(dp676
VNamedEntityTag
p677
g44
sVCharacterOffsetEnd
p678
V173
p679
sVCharacterOffsetBegin
p680
V169
p681
sVPartOfSpeech
p682
VVB
p683
sVLemma
p684
Vmake
p685
saa(lp686
V?
p687
a(dp688
VNamedEntityTag
p689
g44
sVCharacterOffsetEnd
p690
V175
p691
sVCharacterOffsetBegin
p692
V174
p693
sVPartOfSpeech
p694
g105
sVLemma
p695
g687
saasVindexeddependencies
p696
(lp697
(lp698
Vroot
p699
aVROOT-0
p700
aVmake-13
p701
aa(lp702
Vmark
p703
aVtakes-4
p704
aVIf-1
p705
aa(lp706
Vdet
p707
aVpie-3
p708
aVeach-2
p709
aa(lp710
Vnsubj
p711
aVtakes-4
p712
aVpie-3
p713
aa(lp714
Vadvcl
p715
aVmake-13
p716
aVtakes-4
p717
aa(lp718
Vnum
p719
aVapples-6
p720
aV4-5
p721
aa(lp722
Vdobj
p723
aVtakes-4
p724
aVapples-6
p725
aa(lp726
Vadvmod
p727
aVmany-9
p728
aVhow-8
p729
aa(lp730
Vamod
p731
aVpies-10
p732
aVmany-9
p733
aa(lp734
Vdobj
p735
aVmake-13
p736
aVpies-10
p737
aa(lp738
Vaux
p739
aVmake-13
p740
aVcould-11
p741
aa(lp742
Vnsubj
p743
aVmake-13
p744
aVthey-12
p745
aasas.