(dp0
Vcoref
p1
(lp2
(lp3
(lp4
(lp5
Vthem
p6
aI1
aI4
aI4
aI5
aa(lp7
VThey
p8
aI1
aI0
aI0
aI1
aaa(lp9
(lp10
Vthem
p11
aI1
aI13
aI13
aI14
aa(lp12
VThey
p13
aI1
aI0
aI0
aI1
aaaa(lp14
(lp15
(lp16
Vthey
p17
aI2
aI4
aI4
aI5
aa(lp18
VThe
p19
aI2
aI0
aI0
aI1
aaa(lp20
(lp21
Vthey
p22
aI3
aI4
aI4
aI5
aa(lp23
VThe
p24
aI2
aI0
aI0
aI1
aaaasVsentences
p25
(lp26
(dp27
Vparsetree
p28
V(ROOT (S (NP (DT A) (NN store)) (VP (VBD had) (NP (NP (CD 120) (VBG coloring) (NNS books)) (PP (IN in) (NP (NN stock))))) (. .)))
p29
sVtext
p30
VA store had 120 coloring books in stock .
p31
sVdependencies
p32
(lp33
(lp34
Vroot
p35
aVROOT
p36
aVhad
p37
aa(lp38
Vdet
p39
aVstore
p40
aVA
p41
aa(lp42
Vnsubj
p43
aVhad
p44
aVstore
p45
aa(lp46
Vnum
p47
aVbooks
p48
aV120
p49
aa(lp50
Vamod
p51
aVbooks
p52
aVcoloring
p53
aa(lp54
Vdobj
p55
aVhad
p56
aVbooks
p57
aa(lp58
Vprep_in
p59
aVbooks
p60
aVstock
p61
aasVwords
p62
(lp63
(lp64
g41
a(dp65
VNamedEntityTag
p66
VO
p67
sVCharacterOffsetEnd
p68
V2
p69
sVCharacterOffsetBegin
p70
V1
p71
sVPartOfSpeech
p72
VDT
p73
sVLemma
p74
Va
p75
saa(lp76
Vstore
p77
a(dp78
VNamedEntityTag
p79
g67
sVCharacterOffsetEnd
p80
V8
p81
sVCharacterOffsetBegin
p82
V3
p83
sVPartOfSpeech
p84
VNN
p85
sVLemma
p86
Vstore
p87
saa(lp88
Vhad
p89
a(dp90
VNamedEntityTag
p91
g67
sVCharacterOffsetEnd
p92
V12
p93
sVCharacterOffsetBegin
p94
V9
p95
sVPartOfSpeech
p96
VVBD
p97
sVLemma
p98
Vhave
p99
saa(lp100
V120
p101
a(dp102
VNormalizedNamedEntityTag
p103
V120.0
p104
sVLemma
p105
V120
p106
sVCharacterOffsetEnd
p107
V16
p108
sVPartOfSpeech
p109
VCD
p110
sVCharacterOffsetBegin
p111
V13
p112
sVNamedEntityTag
p113
VNUMBER
p114
saa(lp115
Vcoloring
p116
a(dp117
VNamedEntityTag
p118
g67
sVCharacterOffsetEnd
p119
V25
p120
sVCharacterOffsetBegin
p121
V17
p122
sVPartOfSpeech
p123
VVBG
p124
sVLemma
p125
Vcolor
p126
saa(lp127
Vbooks
p128
a(dp129
VNamedEntityTag
p130
g67
sVCharacterOffsetEnd
p131
V31
p132
sVCharacterOffsetBegin
p133
V26
p134
sVPartOfSpeech
p135
VNNS
p136
sVLemma
p137
Vbook
p138
saa(lp139
Vin
p140
a(dp141
VNamedEntityTag
p142
g67
sVCharacterOffsetEnd
p143
V34
p144
sVCharacterOffsetBegin
p145
V32
p146
sVPartOfSpeech
p147
VIN
p148
sVLemma
p149
Vin
p150
saa(lp151
Vstock
p152
a(dp153
VNamedEntityTag
p154
g67
sVCharacterOffsetEnd
p155
V40
p156
sVCharacterOffsetBegin
p157
V35
p158
sVPartOfSpeech
p159
VNN
p160
sVLemma
p161
Vstock
p162
saa(lp163
V.
p164
a(dp165
VNamedEntityTag
p166
g67
sVCharacterOffsetEnd
p167
V42
p168
sVCharacterOffsetBegin
p169
V41
p170
sVPartOfSpeech
p171
g164
sVLemma
p172
g164
saasVindexeddependencies
p173
(lp174
(lp175
Vroot
p176
aVROOT-0
p177
aVhad-3
p178
aa(lp179
Vdet
p180
aVstore-2
p181
aVA-1
p182
aa(lp183
Vnsubj
p184
aVhad-3
p185
aVstore-2
p186
aa(lp187
Vnum
p188
aVbooks-6
p189
aV120-4
p190
aa(lp191
Vamod
p192
aVbooks-6
p193
aVcoloring-5
p194
aa(lp195
Vdobj
p196
aVhad-3
p197
aVbooks-6
p198
aa(lp199
Vprep_in
p200
aVbooks-6
p201
aVstock-8
p202
aasa(dp203
Vparsetree
p204
V(ROOT (S (NP (PRP They)) (VP (VBD ended) (PRT (RP up)) (S (VP (VP (VBG putting) (NP (PRP them)) (PP (IN on) (NP (NN sale)))) (CC and) (VP (VBG getting) (ADJP (JJ rid) (PP (IN of) (NP (NP (CD 39)) (PP (IN of) (NP (PRP them)))))))))) (. .)))
p205
sVtext
p206
VThey ended up putting them on sale and getting rid of 39 of them .
p207
sVdependencies
p208
(lp209
(lp210
Vroot
p211
aVROOT
p212
aVended
p213
aa(lp214
Vnsubj
p215
aVended
p216
aVThey
p217
aa(lp218
Vprt
p219
aVended
p220
aVup
p221
aa(lp222
Vccomp
p223
aVended
p224
aVputting
p225
aa(lp226
Vdobj
p227
aVputting
p228
aVthem
p229
aa(lp230
Vprep_on
p231
aVputting
p232
aVsale
p233
aa(lp234
Vdep
p235
aVrid
p236
aVgetting
p237
aa(lp238
Vconj_and
p239
aVputting
p240
aVrid
p241
aa(lp242
Vprep_of
p243
aVrid
p244
aV39
p245
aa(lp246
Vprep_of
p247
aV39
p248
aVthem
p249
aasVwords
p250
(lp251
(lp252
VThey
p253
a(dp254
VNamedEntityTag
p255
g67
sVCharacterOffsetEnd
p256
V47
p257
sVCharacterOffsetBegin
p258
V43
p259
sVPartOfSpeech
p260
VPRP
p261
sVLemma
p262
Vthey
p263
saa(lp264
Vended
p265
a(dp266
VNamedEntityTag
p267
g67
sVCharacterOffsetEnd
p268
V53
p269
sVCharacterOffsetBegin
p270
V48
p271
sVPartOfSpeech
p272
VVBD
p273
sVLemma
p274
Vend
p275
saa(lp276
Vup
p277
a(dp278
VNamedEntityTag
p279
g67
sVCharacterOffsetEnd
p280
V56
p281
sVCharacterOffsetBegin
p282
V54
p283
sVPartOfSpeech
p284
VRP
p285
sVLemma
p286
Vup
p287
saa(lp288
Vputting
p289
a(dp290
VNamedEntityTag
p291
g67
sVCharacterOffsetEnd
p292
V64
p293
sVCharacterOffsetBegin
p294
V57
p295
sVPartOfSpeech
p296
VVBG
p297
sVLemma
p298
Vput
p299
saa(lp300
Vthem
p301
a(dp302
VNamedEntityTag
p303
g67
sVCharacterOffsetEnd
p304
V69
p305
sVCharacterOffsetBegin
p306
V65
p307
sVPartOfSpeech
p308
VPRP
p309
sVLemma
p310
Vthey
p311
saa(lp312
Von
p313
a(dp314
VNamedEntityTag
p315
g67
sVCharacterOffsetEnd
p316
V72
p317
sVCharacterOffsetBegin
p318
V70
p319
sVPartOfSpeech
p320
VIN
p321
sVLemma
p322
Von
p323
saa(lp324
Vsale
p325
a(dp326
VNamedEntityTag
p327
g67
sVCharacterOffsetEnd
p328
V77
p329
sVCharacterOffsetBegin
p330
V73
p331
sVPartOfSpeech
p332
VNN
p333
sVLemma
p334
Vsale
p335
saa(lp336
Vand
p337
a(dp338
VNamedEntityTag
p339
g67
sVCharacterOffsetEnd
p340
V81
p341
sVCharacterOffsetBegin
p342
V78
p343
sVPartOfSpeech
p344
VCC
p345
sVLemma
p346
Vand
p347
saa(lp348
Vgetting
p349
a(dp350
VNamedEntityTag
p351
g67
sVCharacterOffsetEnd
p352
V89
p353
sVCharacterOffsetBegin
p354
V82
p355
sVPartOfSpeech
p356
VVBG
p357
sVLemma
p358
Vget
p359
saa(lp360
Vrid
p361
a(dp362
VNamedEntityTag
p363
g67
sVCharacterOffsetEnd
p364
V93
p365
sVCharacterOffsetBegin
p366
V90
p367
sVPartOfSpeech
p368
VJJ
p369
sVLemma
p370
Vrid
p371
saa(lp372
Vof
p373
a(dp374
VNamedEntityTag
p375
g67
sVCharacterOffsetEnd
p376
V96
p377
sVCharacterOffsetBegin
p378
V94
p379
sVPartOfSpeech
p380
VIN
p381
sVLemma
p382
Vof
p383
saa(lp384
V39
p385
a(dp386
VNormalizedNamedEntityTag
p387
V39.0
p388
sVLemma
p389
V39
p390
sVCharacterOffsetEnd
p391
V99
p392
sVPartOfSpeech
p393
VCD
p394
sVCharacterOffsetBegin
p395
V97
p396
sVNamedEntityTag
p397
VNUMBER
p398
saa(lp399
Vof
p400
a(dp401
VNamedEntityTag
p402
g67
sVCharacterOffsetEnd
p403
V102
p404
sVCharacterOffsetBegin
p405
V100
p406
sVPartOfSpeech
p407
VIN
p408
sVLemma
p409
Vof
p410
saa(lp411
Vthem
p412
a(dp413
VNamedEntityTag
p414
g67
sVCharacterOffsetEnd
p415
V107
p416
sVCharacterOffsetBegin
p417
V103
p418
sVPartOfSpeech
p419
VPRP
p420
sVLemma
p421
Vthey
p422
saa(lp423
g164
a(dp424
VNamedEntityTag
p425
g67
sVCharacterOffsetEnd
p426
V109
p427
sVCharacterOffsetBegin
p428
V108
p429
sVPartOfSpeech
p430
g164
sVLemma
p431
g164
saasVindexeddependencies
p432
(lp433
(lp434
Vroot
p435
aVROOT-0
p436
aVended-2
p437
aa(lp438
Vnsubj
p439
aVended-2
p440
aVThey-1
p441
aa(lp442
Vprt
p443
aVended-2
p444
aVup-3
p445
aa(lp446
Vccomp
p447
aVended-2
p448
aVputting-4
p449
aa(lp450
Vdobj
p451
aVputting-4
p452
aVthem-5
p453
aa(lp454
Vprep_on
p455
aVputting-4
p456
aVsale-7
p457
aa(lp458
Vdep
p459
aVrid-10
p460
aVgetting-9
p461
aa(lp462
Vconj_and
p463
aVputting-4
p464
aVrid-10
p465
aa(lp466
Vprep_of
p467
aVrid-10
p468
aV39-12
p469
aa(lp470
Vprep_of
p471
aV39-12
p472
aVthem-14
p473
aasa(dp474
Vparsetree
p475
V(ROOT (S (NP (DT The)) (VP (VBN put) (NP (NP (DT the) (NNS ones)) (SBAR (S (NP (PRP they)) (ADVP (RB still)) (VP (VBD had) (PP (IN onto) (NP (NNS shelves))))))) (PP (IN with) (NP (CD 9))) (PP (IN on) (NP (DT each) (NN shelf)))) (. .)))
p476
sVtext
p477
VThe put the ones they still had onto shelves with 9 on each shelf .
p478
sVdependencies
p479
(lp480
(lp481
Vroot
p482
aVROOT
p483
aVput
p484
aa(lp485
Vnsubj
p486
aVput
p487
aVThe
p488
aa(lp489
Vdet
p490
aVones
p491
aVthe
p492
aa(lp493
Vdobj
p494
aVput
p495
aVones
p496
aa(lp497
Vnsubj
p498
aVhad
p499
aVthey
p500
aa(lp501
Vadvmod
p502
aVhad
p503
aVstill
p504
aa(lp505
Vrcmod
p506
aVones
p507
aVhad
p508
aa(lp509
Vprep_onto
p510
aVhad
p511
aVshelves
p512
aa(lp513
Vprep_with
p514
aVput
p515
ag95
aa(lp516
Vdet
p517
aVshelf
p518
aVeach
p519
aa(lp520
Vprep_on
p521
aVput
p522
aVshelf
p523
aasVwords
p524
(lp525
(lp526
VThe
p527
a(dp528
VNamedEntityTag
p529
g67
sVCharacterOffsetEnd
p530
V113
p531
sVCharacterOffsetBegin
p532
V110
p533
sVPartOfSpeech
p534
VDT
p535
sVLemma
p536
Vthe
p537
saa(lp538
Vput
p539
a(dp540
VNamedEntityTag
p541
g67
sVCharacterOffsetEnd
p542
V117
p543
sVCharacterOffsetBegin
p544
V114
p545
sVPartOfSpeech
p546
VVBN
p547
sVLemma
p548
Vput
p549
saa(lp550
Vthe
p551
a(dp552
VNamedEntityTag
p553
g67
sVCharacterOffsetEnd
p554
V121
p555
sVCharacterOffsetBegin
p556
V118
p557
sVPartOfSpeech
p558
VDT
p559
sVLemma
p560
Vthe
p561
saa(lp562
Vones
p563
a(dp564
VNamedEntityTag
p565
g67
sVCharacterOffsetEnd
p566
V126
p567
sVCharacterOffsetBegin
p568
V122
p569
sVPartOfSpeech
p570
VNNS
p571
sVLemma
p572
Vone
p573
saa(lp574
Vthey
p575
a(dp576
VNamedEntityTag
p577
g67
sVCharacterOffsetEnd
p578
V131
p579
sVCharacterOffsetBegin
p580
V127
p581
sVPartOfSpeech
p582
VPRP
p583
sVLemma
p584
Vthey
p585
saa(lp586
Vstill
p587
a(dp588
VNamedEntityTag
p589
g67
sVCharacterOffsetEnd
p590
V137
p591
sVCharacterOffsetBegin
p592
V132
p593
sVPartOfSpeech
p594
VRB
p595
sVLemma
p596
Vstill
p597
saa(lp598
Vhad
p599
a(dp600
VNamedEntityTag
p601
g67
sVCharacterOffsetEnd
p602
V141
p603
sVCharacterOffsetBegin
p604
V138
p605
sVPartOfSpeech
p606
VVBD
p607
sVLemma
p608
Vhave
p609
saa(lp610
Vonto
p611
a(dp612
VNamedEntityTag
p613
g67
sVCharacterOffsetEnd
p614
V146
p615
sVCharacterOffsetBegin
p616
V142
p617
sVPartOfSpeech
p618
VIN
p619
sVLemma
p620
Vonto
p621
saa(lp622
Vshelves
p623
a(dp624
VNamedEntityTag
p625
g67
sVCharacterOffsetEnd
p626
V154
p627
sVCharacterOffsetBegin
p628
V147
p629
sVPartOfSpeech
p630
VNNS
p631
sVLemma
p632
Vshelf
p633
saa(lp634
Vwith
p635
a(dp636
VNamedEntityTag
p637
g67
sVCharacterOffsetEnd
p638
V159
p639
sVCharacterOffsetBegin
p640
V155
p641
sVPartOfSpeech
p642
VIN
p643
sVLemma
p644
Vwith
p645
saa(lp646
g95
a(dp647
VNormalizedNamedEntityTag
p648
V9.0
p649
sVLemma
p650
g95
sVCharacterOffsetEnd
p651
V161
p652
sVPartOfSpeech
p653
VCD
p654
sVCharacterOffsetBegin
p655
V160
p656
sVNamedEntityTag
p657
VNUMBER
p658
saa(lp659
Von
p660
a(dp661
VNamedEntityTag
p662
g67
sVCharacterOffsetEnd
p663
V164
p664
sVCharacterOffsetBegin
p665
V162
p666
sVPartOfSpeech
p667
VIN
p668
sVLemma
p669
Von
p670
saa(lp671
Veach
p672
a(dp673
VNamedEntityTag
p674
g67
sVCharacterOffsetEnd
p675
V169
p676
sVCharacterOffsetBegin
p677
V165
p678
sVPartOfSpeech
p679
VDT
p680
sVLemma
p681
Veach
p682
saa(lp683
Vshelf
p684
a(dp685
VNamedEntityTag
p686
g67
sVCharacterOffsetEnd
p687
V175
p688
sVCharacterOffsetBegin
p689
V170
p690
sVPartOfSpeech
p691
VNN
p692
sVLemma
p693
Vshelf
p694
saa(lp695
g164
a(dp696
VNamedEntityTag
p697
g67
sVCharacterOffsetEnd
p698
V177
p699
sVCharacterOffsetBegin
p700
V176
p701
sVPartOfSpeech
p702
g164
sVLemma
p703
g164
saasVindexeddependencies
p704
(lp705
(lp706
Vroot
p707
aVROOT-0
p708
aVput-2
p709
aa(lp710
Vnsubj
p711
aVput-2
p712
aVThe-1
p713
aa(lp714
Vdet
p715
aVones-4
p716
aVthe-3
p717
aa(lp718
Vdobj
p719
aVput-2
p720
aVones-4
p721
aa(lp722
Vnsubj
p723
aVhad-7
p724
aVthey-5
p725
aa(lp726
Vadvmod
p727
aVhad-7
p728
aVstill-6
p729
aa(lp730
Vrcmod
p731
aVones-4
p732
aVhad-7
p733
aa(lp734
Vprep_onto
p735
aVhad-7
p736
aVshelves-9
p737
aa(lp738
Vprep_with
p739
aVput-2
p740
aV9-11
p741
aa(lp742
Vdet
p743
aVshelf-14
p744
aVeach-13
p745
aa(lp746
Vprep_on
p747
aVput-2
p748
aVshelf-14
p749
aasa(dp750
Vparsetree
p751
V(ROOT (SBARQ (WHNP (WHADJP (WRB How) (JJ many)) (NNS shelves)) (SQ (VBD did) (NP (PRP they)) (VP (VB use))) (. ?)))
p752
sVtext
p753
VHow many shelves did they use ?
p754
sVdependencies
p755
(lp756
(lp757
Vroot
p758
aVROOT
p759
aVuse
p760
aa(lp761
Vadvmod
p762
aVmany
p763
aVHow
p764
aa(lp765
Vamod
p766
aVshelves
p767
aVmany
p768
aa(lp769
Vdobj
p770
aVuse
p771
aVshelves
p772
aa(lp773
Vaux
p774
aVuse
p775
aVdid
p776
aa(lp777
Vnsubj
p778
aVuse
p779
aVthey
p780
aasVwords
p781
(lp782
(lp783
VHow
p784
a(dp785
VNamedEntityTag
p786
g67
sVCharacterOffsetEnd
p787
V181
p788
sVCharacterOffsetBegin
p789
V178
p790
sVPartOfSpeech
p791
VWRB
p792
sVLemma
p793
Vhow
p794
saa(lp795
Vmany
p796
a(dp797
VNamedEntityTag
p798
g67
sVCharacterOffsetEnd
p799
V186
p800
sVCharacterOffsetBegin
p801
V182
p802
sVPartOfSpeech
p803
VJJ
p804
sVLemma
p805
Vmany
p806
saa(lp807
Vshelves
p808
a(dp809
VNamedEntityTag
p810
g67
sVCharacterOffsetEnd
p811
V194
p812
sVCharacterOffsetBegin
p813
V187
p814
sVPartOfSpeech
p815
VNNS
p816
sVLemma
p817
Vshelf
p818
saa(lp819
Vdid
p820
a(dp821
VNamedEntityTag
p822
g67
sVCharacterOffsetEnd
p823
V198
p824
sVCharacterOffsetBegin
p825
V195
p826
sVPartOfSpeech
p827
VVBD
p828
sVLemma
p829
Vdo
p830
saa(lp831
Vthey
p832
a(dp833
VNamedEntityTag
p834
g67
sVCharacterOffsetEnd
p835
V203
p836
sVCharacterOffsetBegin
p837
V199
p838
sVPartOfSpeech
p839
VPRP
p840
sVLemma
p841
Vthey
p842
saa(lp843
Vuse
p844
a(dp845
VNamedEntityTag
p846
g67
sVCharacterOffsetEnd
p847
V207
p848
sVCharacterOffsetBegin
p849
V204
p850
sVPartOfSpeech
p851
VVB
p852
sVLemma
p853
Vuse
p854
saa(lp855
V?
p856
a(dp857
VNamedEntityTag
p858
g67
sVCharacterOffsetEnd
p859
V209
p860
sVCharacterOffsetBegin
p861
V208
p862
sVPartOfSpeech
p863
g164
sVLemma
p864
g856
saasVindexeddependencies
p865
(lp866
(lp867
Vroot
p868
aVROOT-0
p869
aVuse-6
p870
aa(lp871
Vadvmod
p872
aVmany-2
p873
aVHow-1
p874
aa(lp875
Vamod
p876
aVshelves-3
p877
aVmany-2
p878
aa(lp879
Vdobj
p880
aVuse-6
p881
aVshelves-3
p882
aa(lp883
Vaux
p884
aVuse-6
p885
aVdid-4
p886
aa(lp887
Vnsubj
p888
aVuse-6
p889
aVthey-5
p890
aasas.