(dp0
Vcoref
p1
(lp2
(lp3
(lp4
(lp5
VShe
p6
aI1
aI0
aI0
aI1
aa(lp7
VIsabel
p8
aI0
aI0
aI0
aI1
aaaasVsentences
p9
(lp10
(dp11
Vparsetree
p12
V(ROOT (S (NP (NNP Isabel)) (VP (VBD uploaded) (NP (CD 25) (NNS pictures)) (PP (TO to) (NP (NNP Facebook)))) (. .)))
p13
sVtext
p14
VIsabel uploaded 25 pictures to Facebook .
p15
sVdependencies
p16
(lp17
(lp18
Vroot
p19
aVROOT
p20
aVuploaded
p21
aa(lp22
Vnsubj
p23
aVuploaded
p24
aVIsabel
p25
aa(lp26
Vnum
p27
aVpictures
p28
aV25
p29
aa(lp30
Vdobj
p31
aVuploaded
p32
aVpictures
p33
aa(lp34
Vprep_to
p35
aVuploaded
p36
aVFacebook
p37
aasVwords
p38
(lp39
(lp40
VIsabel
p41
a(dp42
VNamedEntityTag
p43
VO
p44
sVCharacterOffsetEnd
p45
V7
p46
sVCharacterOffsetBegin
p47
V1
p48
sVPartOfSpeech
p49
VNNP
p50
sVLemma
p51
VIsabel
p52
saa(lp53
Vuploaded
p54
a(dp55
VNamedEntityTag
p56
g44
sVCharacterOffsetEnd
p57
V16
p58
sVCharacterOffsetBegin
p59
V8
p60
sVPartOfSpeech
p61
VVBD
p62
sVLemma
p63
Vupload
p64
saa(lp65
V25
p66
a(dp67
VNormalizedNamedEntityTag
p68
V25.0
p69
sVLemma
p70
V25
p71
sVCharacterOffsetEnd
p72
V19
p73
sVPartOfSpeech
p74
VCD
p75
sVCharacterOffsetBegin
p76
V17
p77
sVNamedEntityTag
p78
VNUMBER
p79
saa(lp80
Vpictures
p81
a(dp82
VNamedEntityTag
p83
g44
sVCharacterOffsetEnd
p84
V28
p85
sVCharacterOffsetBegin
p86
V20
p87
sVPartOfSpeech
p88
VNNS
p89
sVLemma
p90
Vpicture
p91
saa(lp92
Vto
p93
a(dp94
VNamedEntityTag
p95
g44
sVCharacterOffsetEnd
p96
V31
p97
sVCharacterOffsetBegin
p98
V29
p99
sVPartOfSpeech
p100
VTO
p101
sVLemma
p102
Vto
p103
saa(lp104
VFacebook
p105
a(dp106
VNamedEntityTag
p107
VORGANIZATION
p108
sVCharacterOffsetEnd
p109
V40
p110
sVCharacterOffsetBegin
p111
V32
p112
sVPartOfSpeech
p113
VNNP
p114
sVLemma
p115
VFacebook
p116
saa(lp117
V.
p118
a(dp119
VNamedEntityTag
p120
g44
sVCharacterOffsetEnd
p121
V42
p122
sVCharacterOffsetBegin
p123
V41
p124
sVPartOfSpeech
p125
g118
sVLemma
p126
g118
saasVindexeddependencies
p127
(lp128
(lp129
Vroot
p130
aVROOT-0
p131
aVuploaded-2
p132
aa(lp133
Vnsubj
p134
aVuploaded-2
p135
aVIsabel-1
p136
aa(lp137
Vnum
p138
aVpictures-4
p139
aV25-3
p140
aa(lp141
Vdobj
p142
aVuploaded-2
p143
aVpictures-4
p144
aa(lp145
Vprep_to
p146
aVuploaded-2
p147
aVFacebook-6
p148
aasa(dp149
Vparsetree
p150
V(ROOT (S (NP (PRP She)) (VP (VP (VBD put) (NP (CD 10) (NNS pics)) (PP (IN into) (NP (CD one) (NN album)))) (CC and) (VP (VBD put) (NP (DT the) (NN rest)) (PP (IN into) (NP (CD 5) (JJ different) (NNS albums))))) (. .)))
p151
sVtext
p152
VShe put 10 pics into one album and put the rest into 5 different albums .
p153
sVdependencies
p154
(lp155
(lp156
Vroot
p157
aVROOT
p158
aVput
p159
aa(lp160
Vnsubj
p161
aVput
p162
aVShe
p163
aa(lp164
Vnum
p165
aVpics
p166
aV10
p167
aa(lp168
Vdobj
p169
aVput
p170
aVpics
p171
aa(lp172
Vnum
p173
aValbum
p174
aVone
p175
aa(lp176
Vprep_into
p177
aVput
p178
aValbum
p179
aa(lp180
Vconj_and
p181
aVput
p182
aVput
p183
aa(lp184
Vdet
p185
aVrest
p186
aVthe
p187
aa(lp188
Vdobj
p189
aVput
p190
aVrest
p191
aa(lp192
Vnum
p193
aValbums
p194
aV5
p195
aa(lp196
Vamod
p197
aValbums
p198
aVdifferent
p199
aa(lp200
Vprep_into
p201
aVput
p202
aValbums
p203
aasVwords
p204
(lp205
(lp206
VShe
p207
a(dp208
VNamedEntityTag
p209
g44
sVCharacterOffsetEnd
p210
V46
p211
sVCharacterOffsetBegin
p212
V43
p213
sVPartOfSpeech
p214
VPRP
p215
sVLemma
p216
Vshe
p217
saa(lp218
Vput
p219
a(dp220
VNamedEntityTag
p221
g44
sVCharacterOffsetEnd
p222
V50
p223
sVCharacterOffsetBegin
p224
V47
p225
sVPartOfSpeech
p226
VVBD
p227
sVLemma
p228
Vput
p229
saa(lp230
V10
p231
a(dp232
VNormalizedNamedEntityTag
p233
V10.0
p234
sVLemma
p235
V10
p236
sVCharacterOffsetEnd
p237
V53
p238
sVPartOfSpeech
p239
VCD
p240
sVCharacterOffsetBegin
p241
V51
p242
sVNamedEntityTag
p243
VNUMBER
p244
saa(lp245
Vpics
p246
a(dp247
VNamedEntityTag
p248
g44
sVCharacterOffsetEnd
p249
V58
p250
sVCharacterOffsetBegin
p251
V54
p252
sVPartOfSpeech
p253
VNNS
p254
sVLemma
p255
Vpic
p256
saa(lp257
Vinto
p258
a(dp259
VNamedEntityTag
p260
g44
sVCharacterOffsetEnd
p261
V63
p262
sVCharacterOffsetBegin
p263
V59
p264
sVPartOfSpeech
p265
VIN
p266
sVLemma
p267
Vinto
p268
saa(lp269
Vone
p270
a(dp271
VNormalizedNamedEntityTag
p272
V1.0
p273
sVLemma
p274
Vone
p275
sVCharacterOffsetEnd
p276
V67
p277
sVPartOfSpeech
p278
VCD
p279
sVCharacterOffsetBegin
p280
V64
p281
sVNamedEntityTag
p282
VNUMBER
p283
saa(lp284
Valbum
p285
a(dp286
VNamedEntityTag
p287
g44
sVCharacterOffsetEnd
p288
V73
p289
sVCharacterOffsetBegin
p290
V68
p291
sVPartOfSpeech
p292
VNN
p293
sVLemma
p294
Valbum
p295
saa(lp296
Vand
p297
a(dp298
VNamedEntityTag
p299
g44
sVCharacterOffsetEnd
p300
V77
p301
sVCharacterOffsetBegin
p302
V74
p303
sVPartOfSpeech
p304
VCC
p305
sVLemma
p306
Vand
p307
saa(lp308
Vput
p309
a(dp310
VNamedEntityTag
p311
g44
sVCharacterOffsetEnd
p312
V81
p313
sVCharacterOffsetBegin
p314
V78
p315
sVPartOfSpeech
p316
VVBD
p317
sVLemma
p318
Vput
p319
saa(lp320
Vthe
p321
a(dp322
VNamedEntityTag
p323
g44
sVCharacterOffsetEnd
p324
V85
p325
sVCharacterOffsetBegin
p326
V82
p327
sVPartOfSpeech
p328
VDT
p329
sVLemma
p330
Vthe
p331
saa(lp332
Vrest
p333
a(dp334
VNamedEntityTag
p335
g44
sVCharacterOffsetEnd
p336
V90
p337
sVCharacterOffsetBegin
p338
V86
p339
sVPartOfSpeech
p340
VNN
p341
sVLemma
p342
Vrest
p343
saa(lp344
Vinto
p345
a(dp346
VNamedEntityTag
p347
g44
sVCharacterOffsetEnd
p348
V95
p349
sVCharacterOffsetBegin
p350
V91
p351
sVPartOfSpeech
p352
VIN
p353
sVLemma
p354
Vinto
p355
saa(lp356
g195
a(dp357
VNormalizedNamedEntityTag
p358
V5.0
p359
sVLemma
p360
g195
sVCharacterOffsetEnd
p361
V97
p362
sVPartOfSpeech
p363
VCD
p364
sVCharacterOffsetBegin
p365
V96
p366
sVNamedEntityTag
p367
VNUMBER
p368
saa(lp369
Vdifferent
p370
a(dp371
VNamedEntityTag
p372
g44
sVCharacterOffsetEnd
p373
V107
p374
sVCharacterOffsetBegin
p375
V98
p376
sVPartOfSpeech
p377
VJJ
p378
sVLemma
p379
Vdifferent
p380
saa(lp381
Valbums
p382
a(dp383
VNamedEntityTag
p384
g44
sVCharacterOffsetEnd
p385
V114
p386
sVCharacterOffsetBegin
p387
V108
p388
sVPartOfSpeech
p389
VNNS
p390
sVLemma
p391
Valbum
p392
saa(lp393
g118
a(dp394
VNamedEntityTag
p395
g44
sVCharacterOffsetEnd
p396
V116
p397
sVCharacterOffsetBegin
p398
V115
p399
sVPartOfSpeech
p400
g118
sVLemma
p401
g118
saasVindexeddependencies
p402
(lp403
(lp404
Vroot
p405
aVROOT-0
p406
aVput-2
p407
aa(lp408
Vnsubj
p409
aVput-2
p410
aVShe-1
p411
aa(lp412
Vnum
p413
aVpics-4
p414
aV10-3
p415
aa(lp416
Vdobj
p417
aVput-2
p418
aVpics-4
p419
aa(lp420
Vnum
p421
aValbum-7
p422
aVone-6
p423
aa(lp424
Vprep_into
p425
aVput-2
p426
aValbum-7
p427
aa(lp428
Vconj_and
p429
aVput-2
p430
aVput-9
p431
aa(lp432
Vdet
p433
aVrest-11
p434
aVthe-10
p435
aa(lp436
Vdobj
p437
aVput-9
p438
aVrest-11
p439
aa(lp440
Vnum
p441
aValbums-15
p442
aV5-13
p443
aa(lp444
Vamod
p445
aValbums-15
p446
aVdifferent-14
p447
aa(lp448
Vprep_into
p449
aVput-9
p450
aValbums-15
p451
aasa(dp452
Vparsetree
p453
V(ROOT (SBARQ (WHNP (WHADJP (WRB How) (JJ many)) (NNS pictures)) (SQ (VP (VBD were) (PP (IN in) (NP (DT each) (NN album))))) (. ?)))
p454
sVtext
p455
VHow many pictures were in each album ?
p456
sVdependencies
p457
(lp458
(lp459
Vroot
p460
aVROOT
p461
aVwere
p462
aa(lp463
Vadvmod
p464
aVmany
p465
aVHow
p466
aa(lp467
Vamod
p468
aVpictures
p469
aVmany
p470
aa(lp471
Vnsubj
p472
aVwere
p473
aVpictures
p474
aa(lp475
Vdet
p476
aValbum
p477
aVeach
p478
aa(lp479
Vprep_in
p480
aVwere
p481
aValbum
p482
aasVwords
p483
(lp484
(lp485
VHow
p486
a(dp487
VNamedEntityTag
p488
g44
sVCharacterOffsetEnd
p489
V120
p490
sVCharacterOffsetBegin
p491
V117
p492
sVPartOfSpeech
p493
VWRB
p494
sVLemma
p495
Vhow
p496
saa(lp497
Vmany
p498
a(dp499
VNamedEntityTag
p500
g44
sVCharacterOffsetEnd
p501
V125
p502
sVCharacterOffsetBegin
p503
V121
p504
sVPartOfSpeech
p505
VJJ
p506
sVLemma
p507
Vmany
p508
saa(lp509
Vpictures
p510
a(dp511
VNamedEntityTag
p512
g44
sVCharacterOffsetEnd
p513
V134
p514
sVCharacterOffsetBegin
p515
V126
p516
sVPartOfSpeech
p517
VNNS
p518
sVLemma
p519
Vpicture
p520
saa(lp521
Vwere
p522
a(dp523
VNamedEntityTag
p524
g44
sVCharacterOffsetEnd
p525
V139
p526
sVCharacterOffsetBegin
p527
V135
p528
sVPartOfSpeech
p529
VVBD
p530
sVLemma
p531
Vbe
p532
saa(lp533
Vin
p534
a(dp535
VNamedEntityTag
p536
g44
sVCharacterOffsetEnd
p537
V142
p538
sVCharacterOffsetBegin
p539
V140
p540
sVPartOfSpeech
p541
VIN
p542
sVLemma
p543
Vin
p544
saa(lp545
Veach
p546
a(dp547
VNamedEntityTag
p548
g44
sVCharacterOffsetEnd
p549
V147
p550
sVCharacterOffsetBegin
p551
V143
p552
sVPartOfSpeech
p553
VDT
p554
sVLemma
p555
Veach
p556
saa(lp557
Valbum
p558
a(dp559
VNamedEntityTag
p560
g44
sVCharacterOffsetEnd
p561
V153
p562
sVCharacterOffsetBegin
p563
V148
p564
sVPartOfSpeech
p565
VNN
p566
sVLemma
p567
Valbum
p568
saa(lp569
V?
p570
a(dp571
VNamedEntityTag
p572
g44
sVCharacterOffsetEnd
p573
V155
p574
sVCharacterOffsetBegin
p575
V154
p576
sVPartOfSpeech
p577
g118
sVLemma
p578
g570
saasVindexeddependencies
p579
(lp580
(lp581
Vroot
p582
aVROOT-0
p583
aVwere-4
p584
aa(lp585
Vadvmod
p586
aVmany-2
p587
aVHow-1
p588
aa(lp589
Vamod
p590
aVpictures-3
p591
aVmany-2
p592
aa(lp593
Vnsubj
p594
aVwere-4
p595
aVpictures-3
p596
aa(lp597
Vdet
p598
aValbum-7
p599
aVeach-6
p600
aa(lp601
Vprep_in
p602
aVwere-4
p603
aValbum-7
p604
aasas.