(dp0
Vcoref
p1
(lp2
(lp3
(lp4
(lp5
Vpieces of clothing
p6
aI2
aI2
aI2
aI5
aa(lp7
V59 pieces of clothing to wash
p8
aI0
aI3
aI2
aI8
aaaasVsentences
p9
(lp10
(dp11
Vparsetree
p12
V(ROOT (S (S (VP (MD Will))) (VP (VBD had) (NP (NP (CD 59) (NNS pieces)) (PP (IN of) (NP (NN clothing))) (S (VP (TO to) (VP (VB wash)))))) (. .)))
p13
sVtext
p14
VWill had 59 pieces of clothing to wash .
p15
sVdependencies
p16
(lp17
(lp18
Vroot
p19
aVROOT
p20
aVhad
p21
aa(lp22
Vcsubj
p23
aVhad
p24
aVWill
p25
aa(lp26
Vnum
p27
aVpieces
p28
aV59
p29
aa(lp30
Vdobj
p31
aVhad
p32
aVpieces
p33
aa(lp34
Vprep_of
p35
aVpieces
p36
aVclothing
p37
aa(lp38
Vaux
p39
aVwash
p40
aVto
p41
aa(lp42
Vvmod
p43
aVpieces
p44
aVwash
p45
aasVwords
p46
(lp47
(lp48
VWill
p49
a(dp50
VNamedEntityTag
p51
VO
p52
sVCharacterOffsetEnd
p53
V5
p54
sVCharacterOffsetBegin
p55
V1
p56
sVPartOfSpeech
p57
VMD
p58
sVLemma
p59
Vwill
p60
saa(lp61
Vhad
p62
a(dp63
VNamedEntityTag
p64
g52
sVCharacterOffsetEnd
p65
V9
p66
sVCharacterOffsetBegin
p67
V6
p68
sVPartOfSpeech
p69
VVBD
p70
sVLemma
p71
Vhave
p72
saa(lp73
V59
p74
a(dp75
VNormalizedNamedEntityTag
p76
V59.0
p77
sVLemma
p78
V59
p79
sVCharacterOffsetEnd
p80
V12
p81
sVPartOfSpeech
p82
VCD
p83
sVCharacterOffsetBegin
p84
V10
p85
sVNamedEntityTag
p86
VNUMBER
p87
saa(lp88
Vpieces
p89
a(dp90
VNamedEntityTag
p91
g52
sVCharacterOffsetEnd
p92
V19
p93
sVCharacterOffsetBegin
p94
V13
p95
sVPartOfSpeech
p96
VNNS
p97
sVLemma
p98
Vpiece
p99
saa(lp100
Vof
p101
a(dp102
VNamedEntityTag
p103
g52
sVCharacterOffsetEnd
p104
V22
p105
sVCharacterOffsetBegin
p106
V20
p107
sVPartOfSpeech
p108
VIN
p109
sVLemma
p110
Vof
p111
saa(lp112
Vclothing
p113
a(dp114
VNamedEntityTag
p115
g52
sVCharacterOffsetEnd
p116
V31
p117
sVCharacterOffsetBegin
p118
V23
p119
sVPartOfSpeech
p120
VNN
p121
sVLemma
p122
Vclothing
p123
saa(lp124
Vto
p125
a(dp126
VNamedEntityTag
p127
g52
sVCharacterOffsetEnd
p128
V34
p129
sVCharacterOffsetBegin
p130
V32
p131
sVPartOfSpeech
p132
VTO
p133
sVLemma
p134
Vto
p135
saa(lp136
Vwash
p137
a(dp138
VNamedEntityTag
p139
g52
sVCharacterOffsetEnd
p140
V39
p141
sVCharacterOffsetBegin
p142
V35
p143
sVPartOfSpeech
p144
VVB
p145
sVLemma
p146
Vwash
p147
saa(lp148
V.
p149
a(dp150
VNamedEntityTag
p151
g52
sVCharacterOffsetEnd
p152
V41
p153
sVCharacterOffsetBegin
p154
V40
p155
sVPartOfSpeech
p156
g149
sVLemma
p157
g149
saasVindexeddependencies
p158
(lp159
(lp160
Vroot
p161
aVROOT-0
p162
aVhad-2
p163
aa(lp164
Vcsubj
p165
aVhad-2
p166
aVWill-1
p167
aa(lp168
Vnum
p169
aVpieces-4
p170
aV59-3
p171
aa(lp172
Vdobj
p173
aVhad-2
p174
aVpieces-4
p175
aa(lp176
Vprep_of
p177
aVpieces-4
p178
aVclothing-6
p179
aa(lp180
Vaux
p181
aVwash-8
p182
aVto-7
p183
aa(lp184
Vvmod
p185
aVpieces-4
p186
aVwash-8
p187
aasa(dp188
Vparsetree
p189
V(ROOT (S (NP (PRP He)) (VP (VP (VBD put) (NP (NP (CD 32)) (PP (IN of) (NP (PRP them)))) (PP (IN in) (NP (CD one) (NN load)))) (, ,) (CC but) (VP (VBD decided) (S (VP (TO to) (VP (VB split) (NP (DT the) (NN rest)) (PP (IN into) (NP (CD 9) (JJ equal) (NNS loads)))))))) (. .)))
p190
sVtext
p191
VHe put 32 of them in one load , but decided to split the rest into 9 equal loads .
p192
sVdependencies
p193
(lp194
(lp195
Vroot
p196
aVROOT
p197
aVput
p198
aa(lp199
Vnsubj
p200
aVput
p201
aVHe
p202
aa(lp203
Vdobj
p204
aVput
p205
aV32
p206
aa(lp207
Vprep_of
p208
aV32
p209
aVthem
p210
aa(lp211
Vnum
p212
aVload
p213
aVone
p214
aa(lp215
Vprep_in
p216
aVput
p217
aVload
p218
aa(lp219
Vconj_but
p220
aVput
p221
aVdecided
p222
aa(lp223
Vaux
p224
aVsplit
p225
aVto
p226
aa(lp227
Vxcomp
p228
aVdecided
p229
aVsplit
p230
aa(lp231
Vdet
p232
aVrest
p233
aVthe
p234
aa(lp235
Vdobj
p236
aVsplit
p237
aVrest
p238
aa(lp239
Vnum
p240
aVloads
p241
ag66
aa(lp242
Vamod
p243
aVloads
p244
aVequal
p245
aa(lp246
Vprep_into
p247
aVsplit
p248
aVloads
p249
aasVwords
p250
(lp251
(lp252
VHe
p253
a(dp254
VNamedEntityTag
p255
g52
sVCharacterOffsetEnd
p256
V44
p257
sVCharacterOffsetBegin
p258
V42
p259
sVPartOfSpeech
p260
VPRP
p261
sVLemma
p262
Vhe
p263
saa(lp264
Vput
p265
a(dp266
VNamedEntityTag
p267
g52
sVCharacterOffsetEnd
p268
V48
p269
sVCharacterOffsetBegin
p270
V45
p271
sVPartOfSpeech
p272
VVBD
p273
sVLemma
p274
Vput
p275
saa(lp276
V32
p277
a(dp278
VNormalizedNamedEntityTag
p279
V32.0
p280
sVLemma
p281
V32
p282
sVCharacterOffsetEnd
p283
V51
p284
sVPartOfSpeech
p285
VCD
p286
sVCharacterOffsetBegin
p287
V49
p288
sVNamedEntityTag
p289
VNUMBER
p290
saa(lp291
Vof
p292
a(dp293
VNamedEntityTag
p294
g52
sVCharacterOffsetEnd
p295
V54
p296
sVCharacterOffsetBegin
p297
V52
p298
sVPartOfSpeech
p299
VIN
p300
sVLemma
p301
Vof
p302
saa(lp303
Vthem
p304
a(dp305
VNamedEntityTag
p306
g52
sVCharacterOffsetEnd
p307
V59
p308
sVCharacterOffsetBegin
p309
V55
p310
sVPartOfSpeech
p311
VPRP
p312
sVLemma
p313
Vthey
p314
saa(lp315
Vin
p316
a(dp317
VNamedEntityTag
p318
g52
sVCharacterOffsetEnd
p319
V62
p320
sVCharacterOffsetBegin
p321
V60
p322
sVPartOfSpeech
p323
VIN
p324
sVLemma
p325
Vin
p326
saa(lp327
Vone
p328
a(dp329
VNormalizedNamedEntityTag
p330
V1.0
p331
sVLemma
p332
Vone
p333
sVCharacterOffsetEnd
p334
V66
p335
sVPartOfSpeech
p336
VCD
p337
sVCharacterOffsetBegin
p338
V63
p339
sVNamedEntityTag
p340
VNUMBER
p341
saa(lp342
Vload
p343
a(dp344
VNamedEntityTag
p345
g52
sVCharacterOffsetEnd
p346
V71
p347
sVCharacterOffsetBegin
p348
V67
p349
sVPartOfSpeech
p350
VNN
p351
sVLemma
p352
Vload
p353
saa(lp354
V,
p355
a(dp356
VNamedEntityTag
p357
g52
sVCharacterOffsetEnd
p358
V73
p359
sVCharacterOffsetBegin
p360
V72
p361
sVPartOfSpeech
p362
g355
sVLemma
p363
g355
saa(lp364
Vbut
p365
a(dp366
VNamedEntityTag
p367
g52
sVCharacterOffsetEnd
p368
V77
p369
sVCharacterOffsetBegin
p370
V74
p371
sVPartOfSpeech
p372
VCC
p373
sVLemma
p374
Vbut
p375
saa(lp376
Vdecided
p377
a(dp378
VNamedEntityTag
p379
g52
sVCharacterOffsetEnd
p380
V85
p381
sVCharacterOffsetBegin
p382
V78
p383
sVPartOfSpeech
p384
VVBD
p385
sVLemma
p386
Vdecide
p387
saa(lp388
Vto
p389
a(dp390
VNamedEntityTag
p391
g52
sVCharacterOffsetEnd
p392
V88
p393
sVCharacterOffsetBegin
p394
V86
p395
sVPartOfSpeech
p396
VTO
p397
sVLemma
p398
Vto
p399
saa(lp400
Vsplit
p401
a(dp402
VNamedEntityTag
p403
g52
sVCharacterOffsetEnd
p404
V94
p405
sVCharacterOffsetBegin
p406
V89
p407
sVPartOfSpeech
p408
VVB
p409
sVLemma
p410
Vsplit
p411
saa(lp412
Vthe
p413
a(dp414
VNamedEntityTag
p415
g52
sVCharacterOffsetEnd
p416
V98
p417
sVCharacterOffsetBegin
p418
V95
p419
sVPartOfSpeech
p420
VDT
p421
sVLemma
p422
Vthe
p423
saa(lp424
Vrest
p425
a(dp426
VNamedEntityTag
p427
g52
sVCharacterOffsetEnd
p428
V103
p429
sVCharacterOffsetBegin
p430
V99
p431
sVPartOfSpeech
p432
VNN
p433
sVLemma
p434
Vrest
p435
saa(lp436
Vinto
p437
a(dp438
VNamedEntityTag
p439
g52
sVCharacterOffsetEnd
p440
V108
p441
sVCharacterOffsetBegin
p442
V104
p443
sVPartOfSpeech
p444
VIN
p445
sVLemma
p446
Vinto
p447
saa(lp448
g66
a(dp449
VNormalizedNamedEntityTag
p450
V9.0
p451
sVLemma
p452
g66
sVCharacterOffsetEnd
p453
V110
p454
sVPartOfSpeech
p455
VCD
p456
sVCharacterOffsetBegin
p457
V109
p458
sVNamedEntityTag
p459
VNUMBER
p460
saa(lp461
Vequal
p462
a(dp463
VNamedEntityTag
p464
g52
sVCharacterOffsetEnd
p465
V116
p466
sVCharacterOffsetBegin
p467
V111
p468
sVPartOfSpeech
p469
VJJ
p470
sVLemma
p471
Vequal
p472
saa(lp473
Vloads
p474
a(dp475
VNamedEntityTag
p476
g52
sVCharacterOffsetEnd
p477
V122
p478
sVCharacterOffsetBegin
p479
V117
p480
sVPartOfSpeech
p481
VNNS
p482
sVLemma
p483
Vload
p484
saa(lp485
g149
a(dp486
VNamedEntityTag
p487
g52
sVCharacterOffsetEnd
p488
V124
p489
sVCharacterOffsetBegin
p490
V123
p491
sVPartOfSpeech
p492
g149
sVLemma
p493
g149
saasVindexeddependencies
p494
(lp495
(lp496
Vroot
p497
aVROOT-0
p498
aVput-2
p499
aa(lp500
Vnsubj
p501
aVput-2
p502
aVHe-1
p503
aa(lp504
Vdobj
p505
aVput-2
p506
aV32-3
p507
aa(lp508
Vprep_of
p509
aV32-3
p510
aVthem-5
p511
aa(lp512
Vnum
p513
aVload-8
p514
aVone-7
p515
aa(lp516
Vprep_in
p517
aVput-2
p518
aVload-8
p519
aa(lp520
Vconj_but
p521
aVput-2
p522
aVdecided-11
p523
aa(lp524
Vaux
p525
aVsplit-13
p526
aVto-12
p527
aa(lp528
Vxcomp
p529
aVdecided-11
p530
aVsplit-13
p531
aa(lp532
Vdet
p533
aVrest-15
p534
aVthe-14
p535
aa(lp536
Vdobj
p537
aVsplit-13
p538
aVrest-15
p539
aa(lp540
Vnum
p541
aVloads-19
p542
aV9-17
p543
aa(lp544
Vamod
p545
aVloads-19
p546
aVequal-18
p547
aa(lp548
Vprep_into
p549
aVsplit-13
p550
aVloads-19
p551
aasa(dp552
Vparsetree
p553
V(ROOT (SBARQ (WHNP (WHADJP (WRB How) (JJ many)) (NP (NP (NNS pieces)) (PP (IN of) (NP (NN clothing))))) (SQ (VP (MD could) (VP (VB go) (PP (IN in) (NP (NP (DT each)) (PP (IN of) (NP (DT the) (JJ small) (NNS loads)))))))) (. ?)))
p554
sVtext
p555
VHow many pieces of clothing could go in each of the small loads ?
p556
sVdependencies
p557
(lp558
(lp559
Vroot
p560
aVROOT
p561
aVgo
p562
aa(lp563
Vadvmod
p564
aVmany
p565
aVHow
p566
aa(lp567
Vamod
p568
aVpieces
p569
aVmany
p570
aa(lp571
Vnsubj
p572
aVgo
p573
aVpieces
p574
aa(lp575
Vprep_of
p576
aVpieces
p577
aVclothing
p578
aa(lp579
Vaux
p580
aVgo
p581
aVcould
p582
aa(lp583
Vprep_in
p584
aVgo
p585
aVeach
p586
aa(lp587
Vdet
p588
aVloads
p589
aVthe
p590
aa(lp591
Vamod
p592
aVloads
p593
aVsmall
p594
aa(lp595
Vprep_of
p596
aVeach
p597
aVloads
p598
aasVwords
p599
(lp600
(lp601
VHow
p602
a(dp603
VNamedEntityTag
p604
g52
sVCharacterOffsetEnd
p605
V128
p606
sVCharacterOffsetBegin
p607
V125
p608
sVPartOfSpeech
p609
VWRB
p610
sVLemma
p611
Vhow
p612
saa(lp613
Vmany
p614
a(dp615
VNamedEntityTag
p616
g52
sVCharacterOffsetEnd
p617
V133
p618
sVCharacterOffsetBegin
p619
V129
p620
sVPartOfSpeech
p621
VJJ
p622
sVLemma
p623
Vmany
p624
saa(lp625
Vpieces
p626
a(dp627
VNamedEntityTag
p628
g52
sVCharacterOffsetEnd
p629
V140
p630
sVCharacterOffsetBegin
p631
V134
p632
sVPartOfSpeech
p633
VNNS
p634
sVLemma
p635
Vpiece
p636
saa(lp637
Vof
p638
a(dp639
VNamedEntityTag
p640
g52
sVCharacterOffsetEnd
p641
V143
p642
sVCharacterOffsetBegin
p643
V141
p644
sVPartOfSpeech
p645
VIN
p646
sVLemma
p647
Vof
p648
saa(lp649
Vclothing
p650
a(dp651
VNamedEntityTag
p652
g52
sVCharacterOffsetEnd
p653
V152
p654
sVCharacterOffsetBegin
p655
V144
p656
sVPartOfSpeech
p657
VNN
p658
sVLemma
p659
Vclothing
p660
saa(lp661
Vcould
p662
a(dp663
VNamedEntityTag
p664
g52
sVCharacterOffsetEnd
p665
V158
p666
sVCharacterOffsetBegin
p667
V153
p668
sVPartOfSpeech
p669
VMD
p670
sVLemma
p671
Vcould
p672
saa(lp673
Vgo
p674
a(dp675
VNamedEntityTag
p676
g52
sVCharacterOffsetEnd
p677
V161
p678
sVCharacterOffsetBegin
p679
V159
p680
sVPartOfSpeech
p681
VVB
p682
sVLemma
p683
Vgo
p684
saa(lp685
Vin
p686
a(dp687
VNamedEntityTag
p688
g52
sVCharacterOffsetEnd
p689
V164
p690
sVCharacterOffsetBegin
p691
V162
p692
sVPartOfSpeech
p693
VIN
p694
sVLemma
p695
Vin
p696
saa(lp697
Veach
p698
a(dp699
VNamedEntityTag
p700
g52
sVCharacterOffsetEnd
p701
V169
p702
sVCharacterOffsetBegin
p703
V165
p704
sVPartOfSpeech
p705
VDT
p706
sVLemma
p707
Veach
p708
saa(lp709
Vof
p710
a(dp711
VNamedEntityTag
p712
g52
sVCharacterOffsetEnd
p713
V172
p714
sVCharacterOffsetBegin
p715
V170
p716
sVPartOfSpeech
p717
VIN
p718
sVLemma
p719
Vof
p720
saa(lp721
Vthe
p722
a(dp723
VNamedEntityTag
p724
g52
sVCharacterOffsetEnd
p725
V176
p726
sVCharacterOffsetBegin
p727
V173
p728
sVPartOfSpeech
p729
VDT
p730
sVLemma
p731
Vthe
p732
saa(lp733
Vsmall
p734
a(dp735
VNamedEntityTag
p736
g52
sVCharacterOffsetEnd
p737
V182
p738
sVCharacterOffsetBegin
p739
V177
p740
sVPartOfSpeech
p741
VJJ
p742
sVLemma
p743
Vsmall
p744
saa(lp745
Vloads
p746
a(dp747
VNamedEntityTag
p748
g52
sVCharacterOffsetEnd
p749
V188
p750
sVCharacterOffsetBegin
p751
V183
p752
sVPartOfSpeech
p753
VNNS
p754
sVLemma
p755
Vload
p756
saa(lp757
V?
p758
a(dp759
VNamedEntityTag
p760
g52
sVCharacterOffsetEnd
p761
V190
p762
sVCharacterOffsetBegin
p763
V189
p764
sVPartOfSpeech
p765
g149
sVLemma
p766
g758
saasVindexeddependencies
p767
(lp768
(lp769
Vroot
p770
aVROOT-0
p771
aVgo-7
p772
aa(lp773
Vadvmod
p774
aVmany-2
p775
aVHow-1
p776
aa(lp777
Vamod
p778
aVpieces-3
p779
aVmany-2
p780
aa(lp781
Vnsubj
p782
aVgo-7
p783
aVpieces-3
p784
aa(lp785
Vprep_of
p786
aVpieces-3
p787
aVclothing-5
p788
aa(lp789
Vaux
p790
aVgo-7
p791
aVcould-6
p792
aa(lp793
Vprep_in
p794
aVgo-7
p795
aVeach-9
p796
aa(lp797
Vdet
p798
aVloads-13
p799
aVthe-11
p800
aa(lp801
Vamod
p802
aVloads-13
p803
aVsmall-12
p804
aa(lp805
Vprep_of
p806
aVeach-9
p807
aVloads-13
p808
aasas.