(dp0
Vcoref
p1
(lp2
(lp3
(lp4
(lp5
Vhe
p6
aI1
aI1
aI1
aI2
aa(lp7
VOliver
p8
aI0
aI0
aI0
aI1
aaa(lp9
(lp10
Vhe
p11
aI1
aI16
aI16
aI17
aa(lp12
VOliver
p13
aI0
aI0
aI0
aI1
aaa(lp14
(lp15
Vhe
p16
aI1
aI21
aI21
aI22
aa(lp17
VOliver
p18
aI0
aI0
aI0
aI1
aaaasVsentences
p19
(lp20
(dp21
Vparsetree
p22
V(ROOT (S (NP (NNP Oliver)) (VP (VBD made) (NP (CD 35) (NNS dollars) (VBG mowing) (NNS lawns)) (PP (IN over) (NP (DT the) (NN summer)))) (. .)))
p23
sVtext
p24
VOliver made 35 dollars mowing lawns over the summer .
p25
sVdependencies
p26
(lp27
(lp28
Vroot
p29
aVROOT
p30
aVmade
p31
aa(lp32
Vnsubj
p33
aVmade
p34
aVOliver
p35
aa(lp36
Vnum
p37
aVlawns
p38
aV35
p39
aa(lp40
Vnn
p41
aVlawns
p42
aVdollars
p43
aa(lp44
Vamod
p45
aVlawns
p46
aVmowing
p47
aa(lp48
Vdobj
p49
aVmade
p50
aVlawns
p51
aa(lp52
Vdet
p53
aVsummer
p54
aVthe
p55
aa(lp56
Vprep_over
p57
aVmade
p58
aVsummer
p59
aasVwords
p60
(lp61
(lp62
VOliver
p63
a(dp64
VNamedEntityTag
p65
VPERSON
p66
sVCharacterOffsetEnd
p67
V7
p68
sVCharacterOffsetBegin
p69
V1
p70
sVPartOfSpeech
p71
VNNP
p72
sVLemma
p73
VOliver
p74
saa(lp75
Vmade
p76
a(dp77
VNamedEntityTag
p78
VO
p79
sVCharacterOffsetEnd
p80
V12
p81
sVCharacterOffsetBegin
p82
V8
p83
sVPartOfSpeech
p84
VVBD
p85
sVLemma
p86
Vmake
p87
saa(lp88
V35
p89
a(dp90
VNormalizedNamedEntityTag
p91
V$35.0
p92
sVLemma
p93
V35
p94
sVCharacterOffsetEnd
p95
V15
p96
sVPartOfSpeech
p97
VCD
p98
sVCharacterOffsetBegin
p99
V13
p100
sVNamedEntityTag
p101
VMONEY
p102
saa(lp103
Vdollars
p104
a(dp105
VNormalizedNamedEntityTag
p106
V$35.0
p107
sVLemma
p108
Vdollar
p109
sVCharacterOffsetEnd
p110
V23
p111
sVPartOfSpeech
p112
VNNS
p113
sVCharacterOffsetBegin
p114
V16
p115
sVNamedEntityTag
p116
VMONEY
p117
saa(lp118
Vmowing
p119
a(dp120
VNamedEntityTag
p121
g79
sVCharacterOffsetEnd
p122
V30
p123
sVCharacterOffsetBegin
p124
V24
p125
sVPartOfSpeech
p126
VVBG
p127
sVLemma
p128
Vmow
p129
saa(lp130
Vlawns
p131
a(dp132
VNamedEntityTag
p133
g79
sVCharacterOffsetEnd
p134
V36
p135
sVCharacterOffsetBegin
p136
V31
p137
sVPartOfSpeech
p138
VNNS
p139
sVLemma
p140
Vlawn
p141
saa(lp142
Vover
p143
a(dp144
VNamedEntityTag
p145
g79
sVCharacterOffsetEnd
p146
V41
p147
sVCharacterOffsetBegin
p148
V37
p149
sVPartOfSpeech
p150
VIN
p151
sVLemma
p152
Vover
p153
saa(lp154
Vthe
p155
a(dp156
VNamedEntityTag
p157
g79
sVCharacterOffsetEnd
p158
V45
p159
sVCharacterOffsetBegin
p160
V42
p161
sVPartOfSpeech
p162
VDT
p163
sVLemma
p164
Vthe
p165
saa(lp166
Vsummer
p167
a(dp168
VNormalizedNamedEntityTag
p169
VXXXX-SU
p170
sVTimex
p171
V<TIMEX3 tid="t1" type="DATE" value="XXXX-SU">summer</TIMEX3>
p172
sVLemma
p173
Vsummer
p174
sVCharacterOffsetEnd
p175
V52
p176
sVPartOfSpeech
p177
VNN
p178
sVCharacterOffsetBegin
p179
V46
p180
sVNamedEntityTag
p181
VDATE
p182
saa(lp183
V.
p184
a(dp185
VNamedEntityTag
p186
g79
sVCharacterOffsetEnd
p187
V54
p188
sVCharacterOffsetBegin
p189
V53
p190
sVPartOfSpeech
p191
g184
sVLemma
p192
g184
saasVindexeddependencies
p193
(lp194
(lp195
Vroot
p196
aVROOT-0
p197
aVmade-2
p198
aa(lp199
Vnsubj
p200
aVmade-2
p201
aVOliver-1
p202
aa(lp203
Vnum
p204
aVlawns-6
p205
aV35-3
p206
aa(lp207
Vnn
p208
aVlawns-6
p209
aVdollars-4
p210
aa(lp211
Vamod
p212
aVlawns-6
p213
aVmowing-5
p214
aa(lp215
Vdobj
p216
aVmade-2
p217
aVlawns-6
p218
aa(lp219
Vdet
p220
aVsummer-9
p221
aVthe-8
p222
aa(lp223
Vprep_over
p224
aVmade-2
p225
aVsummer-9
p226
aasa(dp227
Vparsetree
p228
V(ROOT (SBARQ (SBAR (IN If) (S (NP (PRP he)) (VP (VBD spent) (NP (NP (CD 7) (NNS dollars)) (VP (VBG buying) (NP (JJ new) (NN mower) (NNS blades))))))) (, ,) (WHNP (WHADJP (WRB how) (JJ many)) (NP (NP (CD 4) (NN dollar)) (NP (NNS games)))) (SQ (MD could) (NP (PRP he)) (VP (VB buy) (PP (IN with) (NP (NP (DT the) (NN money)) (SBAR (S (NP (PRP he)) (VP (VBD had) (VP (VBN left))))))))) (. ?)))
p229
sVtext
p230
VIf he spent 7 dollars buying new mower blades , how many 4 dollar games could he buy with the money he had left ?
p231
sVdependencies
p232
(lp233
(lp234
Vroot
p235
aVROOT
p236
aVbuy
p237
aa(lp238
Vmark
p239
aVspent
p240
aVIf
p241
aa(lp242
Vnsubj
p243
aVspent
p244
aVhe
p245
aa(lp246
Vadvcl
p247
aVbuy
p248
aVspent
p249
aa(lp250
Vnum
p251
aVdollars
p252
ag68
aa(lp253
Vdobj
p254
aVspent
p255
aVdollars
p256
aa(lp257
Vvmod
p258
aVdollars
p259
aVbuying
p260
aa(lp261
Vamod
p262
aVblades
p263
aVnew
p264
aa(lp265
Vnn
p266
aVblades
p267
aVmower
p268
aa(lp269
Vdobj
p270
aVbuying
p271
aVblades
p272
aa(lp273
Vadvmod
p274
aVmany
p275
aVhow
p276
aa(lp277
Vamod
p278
aVdollar
p279
aVmany
p280
aa(lp281
Vnum
p282
aVdollar
p283
aV4
p284
aa(lp285
Vdobj
p286
aVbuy
p287
aVdollar
p288
aa(lp289
Vdep
p290
aVdollar
p291
aVgames
p292
aa(lp293
Vaux
p294
aVbuy
p295
aVcould
p296
aa(lp297
Vnsubj
p298
aVbuy
p299
aVhe
p300
aa(lp301
Vdet
p302
aVmoney
p303
aVthe
p304
aa(lp305
Vprep_with
p306
aVbuy
p307
aVmoney
p308
aa(lp309
Vnsubj
p310
aVleft
p311
aVhe
p312
aa(lp313
Vaux
p314
aVleft
p315
aVhad
p316
aa(lp317
Vrcmod
p318
aVmoney
p319
aVleft
p320
aasVwords
p321
(lp322
(lp323
VIf
p324
a(dp325
VNamedEntityTag
p326
g79
sVCharacterOffsetEnd
p327
V57
p328
sVCharacterOffsetBegin
p329
V55
p330
sVPartOfSpeech
p331
VIN
p332
sVLemma
p333
Vif
p334
saa(lp335
Vhe
p336
a(dp337
VNamedEntityTag
p338
g79
sVCharacterOffsetEnd
p339
V60
p340
sVCharacterOffsetBegin
p341
V58
p342
sVPartOfSpeech
p343
VPRP
p344
sVLemma
p345
Vhe
p346
saa(lp347
Vspent
p348
a(dp349
VNamedEntityTag
p350
g79
sVCharacterOffsetEnd
p351
V66
p352
sVCharacterOffsetBegin
p353
V61
p354
sVPartOfSpeech
p355
VVBD
p356
sVLemma
p357
Vspend
p358
saa(lp359
g68
a(dp360
VNormalizedNamedEntityTag
p361
V$7.0
p362
sVLemma
p363
g68
sVCharacterOffsetEnd
p364
V68
p365
sVPartOfSpeech
p366
VCD
p367
sVCharacterOffsetBegin
p368
V67
p369
sVNamedEntityTag
p370
VMONEY
p371
saa(lp372
Vdollars
p373
a(dp374
VNormalizedNamedEntityTag
p375
V$7.0
p376
sVLemma
p377
Vdollar
p378
sVCharacterOffsetEnd
p379
V76
p380
sVPartOfSpeech
p381
VNNS
p382
sVCharacterOffsetBegin
p383
V69
p384
sVNamedEntityTag
p385
VMONEY
p386
saa(lp387
Vbuying
p388
a(dp389
VNamedEntityTag
p390
g79
sVCharacterOffsetEnd
p391
V83
p392
sVCharacterOffsetBegin
p393
V77
p394
sVPartOfSpeech
p395
VVBG
p396
sVLemma
p397
Vbuy
p398
saa(lp399
Vnew
p400
a(dp401
VNamedEntityTag
p402
g79
sVCharacterOffsetEnd
p403
V87
p404
sVCharacterOffsetBegin
p405
V84
p406
sVPartOfSpeech
p407
VJJ
p408
sVLemma
p409
Vnew
p410
saa(lp411
Vmower
p412
a(dp413
VNamedEntityTag
p414
g79
sVCharacterOffsetEnd
p415
V93
p416
sVCharacterOffsetBegin
p417
V88
p418
sVPartOfSpeech
p419
VNN
p420
sVLemma
p421
Vmower
p422
saa(lp423
Vblades
p424
a(dp425
VNamedEntityTag
p426
g79
sVCharacterOffsetEnd
p427
V100
p428
sVCharacterOffsetBegin
p429
V94
p430
sVPartOfSpeech
p431
VNNS
p432
sVLemma
p433
Vblade
p434
saa(lp435
V,
p436
a(dp437
VNamedEntityTag
p438
g79
sVCharacterOffsetEnd
p439
V102
p440
sVCharacterOffsetBegin
p441
V101
p442
sVPartOfSpeech
p443
g436
sVLemma
p444
g436
saa(lp445
Vhow
p446
a(dp447
VNamedEntityTag
p448
g79
sVCharacterOffsetEnd
p449
V106
p450
sVCharacterOffsetBegin
p451
V103
p452
sVPartOfSpeech
p453
VWRB
p454
sVLemma
p455
Vhow
p456
saa(lp457
Vmany
p458
a(dp459
VNamedEntityTag
p460
g79
sVCharacterOffsetEnd
p461
V111
p462
sVCharacterOffsetBegin
p463
V107
p464
sVPartOfSpeech
p465
VJJ
p466
sVLemma
p467
Vmany
p468
saa(lp469
g284
a(dp470
VNormalizedNamedEntityTag
p471
V$4.0
p472
sVLemma
p473
g284
sVCharacterOffsetEnd
p474
V113
p475
sVPartOfSpeech
p476
VCD
p477
sVCharacterOffsetBegin
p478
V112
p479
sVNamedEntityTag
p480
VMONEY
p481
saa(lp482
Vdollar
p483
a(dp484
VNormalizedNamedEntityTag
p485
V$4.0
p486
sVLemma
p487
Vdollar
p488
sVCharacterOffsetEnd
p489
V120
p490
sVPartOfSpeech
p491
VNN
p492
sVCharacterOffsetBegin
p493
V114
p494
sVNamedEntityTag
p495
VMONEY
p496
saa(lp497
Vgames
p498
a(dp499
VNamedEntityTag
p500
g79
sVCharacterOffsetEnd
p501
V126
p502
sVCharacterOffsetBegin
p503
V121
p504
sVPartOfSpeech
p505
VNNS
p506
sVLemma
p507
Vgame
p508
saa(lp509
Vcould
p510
a(dp511
VNamedEntityTag
p512
g79
sVCharacterOffsetEnd
p513
V132
p514
sVCharacterOffsetBegin
p515
V127
p516
sVPartOfSpeech
p517
VMD
p518
sVLemma
p519
Vcould
p520
saa(lp521
Vhe
p522
a(dp523
VNamedEntityTag
p524
g79
sVCharacterOffsetEnd
p525
V135
p526
sVCharacterOffsetBegin
p527
V133
p528
sVPartOfSpeech
p529
VPRP
p530
sVLemma
p531
Vhe
p532
saa(lp533
Vbuy
p534
a(dp535
VNamedEntityTag
p536
g79
sVCharacterOffsetEnd
p537
V139
p538
sVCharacterOffsetBegin
p539
V136
p540
sVPartOfSpeech
p541
VVB
p542
sVLemma
p543
Vbuy
p544
saa(lp545
Vwith
p546
a(dp547
VNamedEntityTag
p548
g79
sVCharacterOffsetEnd
p549
V144
p550
sVCharacterOffsetBegin
p551
V140
p552
sVPartOfSpeech
p553
VIN
p554
sVLemma
p555
Vwith
p556
saa(lp557
Vthe
p558
a(dp559
VNamedEntityTag
p560
g79
sVCharacterOffsetEnd
p561
V148
p562
sVCharacterOffsetBegin
p563
V145
p564
sVPartOfSpeech
p565
VDT
p566
sVLemma
p567
Vthe
p568
saa(lp569
Vmoney
p570
a(dp571
VNamedEntityTag
p572
g79
sVCharacterOffsetEnd
p573
V154
p574
sVCharacterOffsetBegin
p575
V149
p576
sVPartOfSpeech
p577
VNN
p578
sVLemma
p579
Vmoney
p580
saa(lp581
Vhe
p582
a(dp583
VNamedEntityTag
p584
g79
sVCharacterOffsetEnd
p585
V157
p586
sVCharacterOffsetBegin
p587
V155
p588
sVPartOfSpeech
p589
VPRP
p590
sVLemma
p591
Vhe
p592
saa(lp593
Vhad
p594
a(dp595
VNamedEntityTag
p596
g79
sVCharacterOffsetEnd
p597
V161
p598
sVCharacterOffsetBegin
p599
V158
p600
sVPartOfSpeech
p601
VVBD
p602
sVLemma
p603
Vhave
p604
saa(lp605
Vleft
p606
a(dp607
VNamedEntityTag
p608
g79
sVCharacterOffsetEnd
p609
V166
p610
sVCharacterOffsetBegin
p611
V162
p612
sVPartOfSpeech
p613
VVBN
p614
sVLemma
p615
Vleave
p616
saa(lp617
V?
p618
a(dp619
VNamedEntityTag
p620
g79
sVCharacterOffsetEnd
p621
V168
p622
sVCharacterOffsetBegin
p623
V167
p624
sVPartOfSpeech
p625
g184
sVLemma
p626
g618
saasVindexeddependencies
p627
(lp628
(lp629
Vroot
p630
aVROOT-0
p631
aVbuy-18
p632
aa(lp633
Vmark
p634
aVspent-3
p635
aVIf-1
p636
aa(lp637
Vnsubj
p638
aVspent-3
p639
aVhe-2
p640
aa(lp641
Vadvcl
p642
aVbuy-18
p643
aVspent-3
p644
aa(lp645
Vnum
p646
aVdollars-5
p647
aV7-4
p648
aa(lp649
Vdobj
p650
aVspent-3
p651
aVdollars-5
p652
aa(lp653
Vvmod
p654
aVdollars-5
p655
aVbuying-6
p656
aa(lp657
Vamod
p658
aVblades-9
p659
aVnew-7
p660
aa(lp661
Vnn
p662
aVblades-9
p663
aVmower-8
p664
aa(lp665
Vdobj
p666
aVbuying-6
p667
aVblades-9
p668
aa(lp669
Vadvmod
p670
aVmany-12
p671
aVhow-11
p672
aa(lp673
Vamod
p674
aVdollar-14
p675
aVmany-12
p676
aa(lp677
Vnum
p678
aVdollar-14
p679
aV4-13
p680
aa(lp681
Vdobj
p682
aVbuy-18
p683
aVdollar-14
p684
aa(lp685
Vdep
p686
aVdollar-14
p687
aVgames-15
p688
aa(lp689
Vaux
p690
aVbuy-18
p691
aVcould-16
p692
aa(lp693
Vnsubj
p694
aVbuy-18
p695
aVhe-17
p696
aa(lp697
Vdet
p698
aVmoney-21
p699
aVthe-20
p700
aa(lp701
Vprep_with
p702
aVbuy-18
p703
aVmoney-21
p704
aa(lp705
Vnsubj
p706
aVleft-24
p707
aVhe-22
p708
aa(lp709
Vaux
p710
aVleft-24
p711
aVhad-23
p712
aa(lp713
Vrcmod
p714
aVmoney-21
p715
aVleft-24
p716
aasas.