(dp0
Vcoref
p1
(lp2
(lp3
(lp4
(lp5
Vher
p6
aI1
aI1
aI1
aI2
aa(lp7
VMegan baked 71 cupcakes for her school 's bake sale .
p8
aI0
aI0
aI0
aI11
aaa(lp9
(lp10
Vshe
p11
aI1
aI14
aI14
aI15
aa(lp12
VMegan baked 71 cupcakes for her school 's bake sale .
p13
aI0
aI0
aI0
aI11
aaa(lp14
(lp15
Vshe
p16
aI1
aI17
aI17
aI18
aa(lp17
VMegan baked 71 cupcakes for her school 's bake sale .
p18
aI0
aI0
aI0
aI11
aaaa(lp19
(lp20
(lp21
Vher brother
p22
aI1
aI2
aI1
aI3
aa(lp23
VTodd
p24
aI1
aI4
aI4
aI5
aaaasVsentences
p25
(lp26
(dp27
Vparsetree
p28
V(ROOT (NP (NP (NNP Megan)) (NP (NP (JJ baked) (CD 71) (NNS cupcakes)) (PP (IN for) (NP (NP (PRP$ her) (NN school) (POS 's)) (JJ bake) (NN sale)))) (. .)))
p29
sVtext
p30
VMegan baked 71 cupcakes for her school's bake sale .
p31
sVdependencies
p32
(lp33
(lp34
Vroot
p35
aVROOT
p36
aVMegan
p37
aa(lp38
Vamod
p39
aVcupcakes
p40
aVbaked
p41
aa(lp42
Vnum
p43
aVcupcakes
p44
aV71
p45
aa(lp46
Vdep
p47
aVMegan
p48
aVcupcakes
p49
aa(lp50
Vposs
p51
aVschool
p52
aVher
p53
aa(lp54
Vposs
p55
aVsale
p56
aVschool
p57
aa(lp58
Vamod
p59
aVsale
p60
aVbake
p61
aa(lp62
Vprep_for
p63
aVcupcakes
p64
aVsale
p65
aasVwords
p66
(lp67
(lp68
VMegan
p69
a(dp70
VNamedEntityTag
p71
VPERSON
p72
sVCharacterOffsetEnd
p73
V6
p74
sVCharacterOffsetBegin
p75
V1
p76
sVPartOfSpeech
p77
VNNP
p78
sVLemma
p79
VMegan
p80
saa(lp81
Vbaked
p82
a(dp83
VNamedEntityTag
p84
VO
p85
sVCharacterOffsetEnd
p86
V12
p87
sVCharacterOffsetBegin
p88
V7
p89
sVPartOfSpeech
p90
VJJ
p91
sVLemma
p92
Vbaked
p93
saa(lp94
V71
p95
a(dp96
VNormalizedNamedEntityTag
p97
V71.0
p98
sVLemma
p99
V71
p100
sVCharacterOffsetEnd
p101
V15
p102
sVPartOfSpeech
p103
VCD
p104
sVCharacterOffsetBegin
p105
V13
p106
sVNamedEntityTag
p107
VNUMBER
p108
saa(lp109
Vcupcakes
p110
a(dp111
VNamedEntityTag
p112
g85
sVCharacterOffsetEnd
p113
V24
p114
sVCharacterOffsetBegin
p115
V16
p116
sVPartOfSpeech
p117
VNNS
p118
sVLemma
p119
Vcupcake
p120
saa(lp121
Vfor
p122
a(dp123
VNamedEntityTag
p124
g85
sVCharacterOffsetEnd
p125
V28
p126
sVCharacterOffsetBegin
p127
V25
p128
sVPartOfSpeech
p129
VIN
p130
sVLemma
p131
Vfor
p132
saa(lp133
Vher
p134
a(dp135
VNamedEntityTag
p136
g85
sVCharacterOffsetEnd
p137
V32
p138
sVCharacterOffsetBegin
p139
V29
p140
sVPartOfSpeech
p141
VPRP$
p142
sVLemma
p143
Vshe
p144
saa(lp145
Vschool
p146
a(dp147
VNamedEntityTag
p148
g85
sVCharacterOffsetEnd
p149
V39
p150
sVCharacterOffsetBegin
p151
V33
p152
sVPartOfSpeech
p153
VNN
p154
sVLemma
p155
Vschool
p156
saa(lp157
V's
p158
a(dp159
VNamedEntityTag
p160
g85
sVCharacterOffsetEnd
p161
V41
p162
sVCharacterOffsetBegin
p163
V39
p164
sVPartOfSpeech
p165
VPOS
p166
sVLemma
p167
V's
p168
saa(lp169
Vbake
p170
a(dp171
VNamedEntityTag
p172
g85
sVCharacterOffsetEnd
p173
V46
p174
sVCharacterOffsetBegin
p175
V42
p176
sVPartOfSpeech
p177
VJJ
p178
sVLemma
p179
Vbake
p180
saa(lp181
Vsale
p182
a(dp183
VNamedEntityTag
p184
g85
sVCharacterOffsetEnd
p185
V51
p186
sVCharacterOffsetBegin
p187
V47
p188
sVPartOfSpeech
p189
VNN
p190
sVLemma
p191
Vsale
p192
saa(lp193
V.
p194
a(dp195
VNamedEntityTag
p196
g85
sVCharacterOffsetEnd
p197
V53
p198
sVCharacterOffsetBegin
p199
V52
p200
sVPartOfSpeech
p201
g194
sVLemma
p202
g194
saasVindexeddependencies
p203
(lp204
(lp205
Vroot
p206
aVROOT-0
p207
aVMegan-1
p208
aa(lp209
Vamod
p210
aVcupcakes-4
p211
aVbaked-2
p212
aa(lp213
Vnum
p214
aVcupcakes-4
p215
aV71-3
p216
aa(lp217
Vdep
p218
aVMegan-1
p219
aVcupcakes-4
p220
aa(lp221
Vposs
p222
aVschool-7
p223
aVher-6
p224
aa(lp225
Vposs
p226
aVsale-10
p227
aVschool-7
p228
aa(lp229
Vamod
p230
aVsale-10
p231
aVbake-9
p232
aa(lp233
Vprep_for
p234
aVcupcakes-4
p235
aVsale-10
p236
aasa(dp237
Vparsetree
p238
V(ROOT (SBAR (IN If) (S (NP (NP (PRP$ her) (NN brother)) (, ,) (NP (NNP Todd)) (, ,)) (VP (VBD ate) (NP (CD 43)) (PP (IN of) (NP (PRP them))) (SBAR (SBARQ (WHNP (WHADJP (WRB how) (JJ many)) (NNS packages)) (SQ (MD could) (NP (PRP she)) (VP (VB make) (SBAR (IN if) (S (NP (PRP she)) (VP (VBD put) (NP (NP (CD 7) (NN cupcake)) (PP (IN in) (NP (DT each) (NN package))))))))) (. ?)))))))
p239
sVtext
p240
VIf her brother , Todd , ate 43 of them how many packages could she make if she put 7 cupcake in each package ?
p241
sVdependencies
p242
(lp243
(lp244
Vroot
p245
aVROOT
p246
aVate
p247
aa(lp248
Vmark
p249
aVate
p250
aVIf
p251
aa(lp252
Vposs
p253
aVbrother
p254
aVher
p255
aa(lp256
Vnsubj
p257
aVate
p258
aVbrother
p259
aa(lp260
Vappos
p261
aVbrother
p262
aVTodd
p263
aa(lp264
Vdobj
p265
aVate
p266
aV43
p267
aa(lp268
Vprep_of
p269
aVate
p270
aVthem
p271
aa(lp272
Vadvmod
p273
aVmany
p274
aVhow
p275
aa(lp276
Vamod
p277
aVpackages
p278
aVmany
p279
aa(lp280
Vdobj
p281
aVmake
p282
aVpackages
p283
aa(lp284
Vaux
p285
aVmake
p286
aVcould
p287
aa(lp288
Vnsubj
p289
aVmake
p290
aVshe
p291
aa(lp292
Vdep
p293
aVate
p294
aVmake
p295
aa(lp296
Vmark
p297
aVput
p298
aVif
p299
aa(lp300
Vnsubj
p301
aVput
p302
aVshe
p303
aa(lp304
Vadvcl
p305
aVmake
p306
aVput
p307
aa(lp308
Vnum
p309
aVcupcake
p310
ag89
aa(lp311
Vdobj
p312
aVput
p313
aVcupcake
p314
aa(lp315
Vdet
p316
aVpackage
p317
aVeach
p318
aa(lp319
Vprep_in
p320
aVcupcake
p321
aVpackage
p322
aasVwords
p323
(lp324
(lp325
VIf
p326
a(dp327
VNamedEntityTag
p328
g85
sVCharacterOffsetEnd
p329
V56
p330
sVCharacterOffsetBegin
p331
V54
p332
sVPartOfSpeech
p333
VIN
p334
sVLemma
p335
Vif
p336
saa(lp337
Vher
p338
a(dp339
VNamedEntityTag
p340
g85
sVCharacterOffsetEnd
p341
V60
p342
sVCharacterOffsetBegin
p343
V57
p344
sVPartOfSpeech
p345
VPRP$
p346
sVLemma
p347
Vshe
p348
saa(lp349
Vbrother
p350
a(dp351
VNamedEntityTag
p352
g85
sVCharacterOffsetEnd
p353
V68
p354
sVCharacterOffsetBegin
p355
V61
p356
sVPartOfSpeech
p357
VNN
p358
sVLemma
p359
Vbrother
p360
saa(lp361
V,
p362
a(dp363
VNamedEntityTag
p364
g85
sVCharacterOffsetEnd
p365
V70
p366
sVCharacterOffsetBegin
p367
V69
p368
sVPartOfSpeech
p369
g362
sVLemma
p370
g362
saa(lp371
VTodd
p372
a(dp373
VNamedEntityTag
p374
VPERSON
p375
sVCharacterOffsetEnd
p376
V75
p377
sVCharacterOffsetBegin
p378
V71
p379
sVPartOfSpeech
p380
VNNP
p381
sVLemma
p382
VTodd
p383
saa(lp384
g362
a(dp385
VNamedEntityTag
p386
g85
sVCharacterOffsetEnd
p387
V77
p388
sVCharacterOffsetBegin
p389
V76
p390
sVPartOfSpeech
p391
g362
sVLemma
p392
g362
saa(lp393
Vate
p394
a(dp395
VNamedEntityTag
p396
g85
sVCharacterOffsetEnd
p397
V81
p398
sVCharacterOffsetBegin
p399
V78
p400
sVPartOfSpeech
p401
VVBD
p402
sVLemma
p403
Veat
p404
saa(lp405
V43
p406
a(dp407
VNormalizedNamedEntityTag
p408
V43.0
p409
sVLemma
p410
V43
p411
sVCharacterOffsetEnd
p412
V84
p413
sVPartOfSpeech
p414
VCD
p415
sVCharacterOffsetBegin
p416
V82
p417
sVNamedEntityTag
p418
VNUMBER
p419
saa(lp420
Vof
p421
a(dp422
VNamedEntityTag
p423
g85
sVCharacterOffsetEnd
p424
V87
p425
sVCharacterOffsetBegin
p426
V85
p427
sVPartOfSpeech
p428
VIN
p429
sVLemma
p430
Vof
p431
saa(lp432
Vthem
p433
a(dp434
VNamedEntityTag
p435
g85
sVCharacterOffsetEnd
p436
V92
p437
sVCharacterOffsetBegin
p438
V88
p439
sVPartOfSpeech
p440
VPRP
p441
sVLemma
p442
Vthey
p443
saa(lp444
Vhow
p445
a(dp446
VNamedEntityTag
p447
g85
sVCharacterOffsetEnd
p448
V96
p449
sVCharacterOffsetBegin
p450
V93
p451
sVPartOfSpeech
p452
VWRB
p453
sVLemma
p454
Vhow
p455
saa(lp456
Vmany
p457
a(dp458
VNamedEntityTag
p459
g85
sVCharacterOffsetEnd
p460
V101
p461
sVCharacterOffsetBegin
p462
V97
p463
sVPartOfSpeech
p464
VJJ
p465
sVLemma
p466
Vmany
p467
saa(lp468
Vpackages
p469
a(dp470
VNamedEntityTag
p471
g85
sVCharacterOffsetEnd
p472
V110
p473
sVCharacterOffsetBegin
p474
V102
p475
sVPartOfSpeech
p476
VNNS
p477
sVLemma
p478
Vpackage
p479
saa(lp480
Vcould
p481
a(dp482
VNamedEntityTag
p483
g85
sVCharacterOffsetEnd
p484
V116
p485
sVCharacterOffsetBegin
p486
V111
p487
sVPartOfSpeech
p488
VMD
p489
sVLemma
p490
Vcould
p491
saa(lp492
Vshe
p493
a(dp494
VNamedEntityTag
p495
g85
sVCharacterOffsetEnd
p496
V120
p497
sVCharacterOffsetBegin
p498
V117
p499
sVPartOfSpeech
p500
VPRP
p501
sVLemma
p502
Vshe
p503
saa(lp504
Vmake
p505
a(dp506
VNamedEntityTag
p507
g85
sVCharacterOffsetEnd
p508
V125
p509
sVCharacterOffsetBegin
p510
V121
p511
sVPartOfSpeech
p512
VVB
p513
sVLemma
p514
Vmake
p515
saa(lp516
Vif
p517
a(dp518
VNamedEntityTag
p519
g85
sVCharacterOffsetEnd
p520
V128
p521
sVCharacterOffsetBegin
p522
V126
p523
sVPartOfSpeech
p524
VIN
p525
sVLemma
p526
Vif
p527
saa(lp528
Vshe
p529
a(dp530
VNamedEntityTag
p531
g85
sVCharacterOffsetEnd
p532
V132
p533
sVCharacterOffsetBegin
p534
V129
p535
sVPartOfSpeech
p536
VPRP
p537
sVLemma
p538
Vshe
p539
saa(lp540
Vput
p541
a(dp542
VNamedEntityTag
p543
g85
sVCharacterOffsetEnd
p544
V136
p545
sVCharacterOffsetBegin
p546
V133
p547
sVPartOfSpeech
p548
VVBD
p549
sVLemma
p550
Vput
p551
saa(lp552
g89
a(dp553
VNormalizedNamedEntityTag
p554
V7.0
p555
sVLemma
p556
g89
sVCharacterOffsetEnd
p557
V138
p558
sVPartOfSpeech
p559
VCD
p560
sVCharacterOffsetBegin
p561
V137
p562
sVNamedEntityTag
p563
VNUMBER
p564
saa(lp565
Vcupcake
p566
a(dp567
VNamedEntityTag
p568
g85
sVCharacterOffsetEnd
p569
V146
p570
sVCharacterOffsetBegin
p571
V139
p572
sVPartOfSpeech
p573
VNN
p574
sVLemma
p575
Vcupcake
p576
saa(lp577
Vin
p578
a(dp579
VNamedEntityTag
p580
g85
sVCharacterOffsetEnd
p581
V149
p582
sVCharacterOffsetBegin
p583
V147
p584
sVPartOfSpeech
p585
VIN
p586
sVLemma
p587
Vin
p588
saa(lp589
Veach
p590
a(dp591
VNamedEntityTag
p592
g85
sVCharacterOffsetEnd
p593
V154
p594
sVCharacterOffsetBegin
p595
V150
p596
sVPartOfSpeech
p597
VDT
p598
sVLemma
p599
Veach
p600
saa(lp601
Vpackage
p602
a(dp603
VNamedEntityTag
p604
g85
sVCharacterOffsetEnd
p605
V162
p606
sVCharacterOffsetBegin
p607
V155
p608
sVPartOfSpeech
p609
VNN
p610
sVLemma
p611
Vpackage
p612
saa(lp613
V?
p614
a(dp615
VNamedEntityTag
p616
g85
sVCharacterOffsetEnd
p617
V164
p618
sVCharacterOffsetBegin
p619
V163
p620
sVPartOfSpeech
p621
g194
sVLemma
p622
g614
saasVindexeddependencies
p623
(lp624
(lp625
Vroot
p626
aVROOT-0
p627
aVate-7
p628
aa(lp629
Vmark
p630
aVate-7
p631
aVIf-1
p632
aa(lp633
Vposs
p634
aVbrother-3
p635
aVher-2
p636
aa(lp637
Vnsubj
p638
aVate-7
p639
aVbrother-3
p640
aa(lp641
Vappos
p642
aVbrother-3
p643
aVTodd-5
p644
aa(lp645
Vdobj
p646
aVate-7
p647
aV43-8
p648
aa(lp649
Vprep_of
p650
aVate-7
p651
aVthem-10
p652
aa(lp653
Vadvmod
p654
aVmany-12
p655
aVhow-11
p656
aa(lp657
Vamod
p658
aVpackages-13
p659
aVmany-12
p660
aa(lp661
Vdobj
p662
aVmake-16
p663
aVpackages-13
p664
aa(lp665
Vaux
p666
aVmake-16
p667
aVcould-14
p668
aa(lp669
Vnsubj
p670
aVmake-16
p671
aVshe-15
p672
aa(lp673
Vdep
p674
aVate-7
p675
aVmake-16
p676
aa(lp677
Vmark
p678
aVput-19
p679
aVif-17
p680
aa(lp681
Vnsubj
p682
aVput-19
p683
aVshe-18
p684
aa(lp685
Vadvcl
p686
aVmake-16
p687
aVput-19
p688
aa(lp689
Vnum
p690
aVcupcake-21
p691
aV7-20
p692
aa(lp693
Vdobj
p694
aVput-19
p695
aVcupcake-21
p696
aa(lp697
Vdet
p698
aVpackage-24
p699
aVeach-23
p700
aa(lp701
Vprep_in
p702
aVcupcake-21
p703
aVpackage-24
p704
aasas.