(dp0
Vcoref
p1
(lp2
(lp3
(lp4
(lp5
VShe
p6
aI1
aI0
aI0
aI1
aa(lp7
VNancy
p8
aI0
aI0
aI0
aI1
aaaa(lp9
(lp10
(lp11
Vproblems
p12
aI2
aI14
aI14
aI15
aa(lp13
Vproblems to do
p14
aI1
aI11
aI11
aI14
aaaa(lp15
(lp16
(lp17
Vit
p18
aI2
aI10
aI10
aI11
aa(lp19
Veach page
p20
aI2
aI2
aI1
aI3
aaaasVsentences
p21
(lp22
(dp23
Vparsetree
p24
V(ROOT (S (NP (NNP Nancy)) (VP (VBD had) (NP (CD 101) (NN homework) (NNS problems))) (. .)))
p25
sVtext
p26
VNancy had 101 homework problems .
p27
sVdependencies
p28
(lp29
(lp30
Vroot
p31
aVROOT
p32
aVhad
p33
aa(lp34
Vnsubj
p35
aVhad
p36
aVNancy
p37
aa(lp38
Vnum
p39
aVproblems
p40
aV101
p41
aa(lp42
Vnn
p43
aVproblems
p44
aVhomework
p45
aa(lp46
Vdobj
p47
aVhad
p48
aVproblems
p49
aasVwords
p50
(lp51
(lp52
VNancy
p53
a(dp54
VNamedEntityTag
p55
VPERSON
p56
sVCharacterOffsetEnd
p57
V6
p58
sVCharacterOffsetBegin
p59
V1
p60
sVPartOfSpeech
p61
VNNP
p62
sVLemma
p63
VNancy
p64
saa(lp65
Vhad
p66
a(dp67
VNamedEntityTag
p68
VO
p69
sVCharacterOffsetEnd
p70
V10
p71
sVCharacterOffsetBegin
p72
V7
p73
sVPartOfSpeech
p74
VVBD
p75
sVLemma
p76
Vhave
p77
saa(lp78
V101
p79
a(dp80
VNormalizedNamedEntityTag
p81
V101.0
p82
sVLemma
p83
V101
p84
sVCharacterOffsetEnd
p85
V14
p86
sVPartOfSpeech
p87
VCD
p88
sVCharacterOffsetBegin
p89
V11
p90
sVNamedEntityTag
p91
VNUMBER
p92
saa(lp93
Vhomework
p94
a(dp95
VNamedEntityTag
p96
g69
sVCharacterOffsetEnd
p97
V23
p98
sVCharacterOffsetBegin
p99
V15
p100
sVPartOfSpeech
p101
VNN
p102
sVLemma
p103
Vhomework
p104
saa(lp105
Vproblems
p106
a(dp107
VNamedEntityTag
p108
g69
sVCharacterOffsetEnd
p109
V32
p110
sVCharacterOffsetBegin
p111
V24
p112
sVPartOfSpeech
p113
VNNS
p114
sVLemma
p115
Vproblem
p116
saa(lp117
V.
p118
a(dp119
VNamedEntityTag
p120
g69
sVCharacterOffsetEnd
p121
V34
p122
sVCharacterOffsetBegin
p123
V33
p124
sVPartOfSpeech
p125
g118
sVLemma
p126
g118
saasVindexeddependencies
p127
(lp128
(lp129
Vroot
p130
aVROOT-0
p131
aVhad-2
p132
aa(lp133
Vnsubj
p134
aVhad-2
p135
aVNancy-1
p136
aa(lp137
Vnum
p138
aVproblems-5
p139
aV101-3
p140
aa(lp141
Vnn
p142
aVproblems-5
p143
aVhomework-4
p144
aa(lp145
Vdobj
p146
aVhad-2
p147
aVproblems-5
p148
aasa(dp149
Vparsetree
p150
V(ROOT (S (NP (PRP She)) (VP (VP (VBD finished) (NP (NP (CD 47)) (PP (IN of) (NP (PRP them))))) (CC but) (ADVP (RB still)) (VP (VBD had) (NP (NP (CD 6) (NNS pages)) (PP (IN of) (NP (NNS problems) (S (VP (TO to) (VP (VB do))))))))) (. .)))
p151
sVtext
p152
VShe finished 47 of them but still had 6 pages of problems to do .
p153
sVdependencies
p154
(lp155
(lp156
Vroot
p157
aVROOT
p158
aVfinished
p159
aa(lp160
Vnsubj
p161
aVfinished
p162
aVShe
p163
aa(lp164
Vdobj
p165
aVfinished
p166
aV47
p167
aa(lp168
Vprep_of
p169
aV47
p170
aVthem
p171
aa(lp172
Vadvmod
p173
aVhad
p174
aVstill
p175
aa(lp176
Vconj_but
p177
aVfinished
p178
aVhad
p179
aa(lp180
Vnum
p181
aVpages
p182
ag58
aa(lp183
Vdobj
p184
aVhad
p185
aVpages
p186
aa(lp187
Vprep_of
p188
aVpages
p189
aVproblems
p190
aa(lp191
Vaux
p192
aVdo
p193
aVto
p194
aa(lp195
Vvmod
p196
aVproblems
p197
aVdo
p198
aasVwords
p199
(lp200
(lp201
VShe
p202
a(dp203
VNamedEntityTag
p204
g69
sVCharacterOffsetEnd
p205
V38
p206
sVCharacterOffsetBegin
p207
V35
p208
sVPartOfSpeech
p209
VPRP
p210
sVLemma
p211
Vshe
p212
saa(lp213
Vfinished
p214
a(dp215
VNamedEntityTag
p216
g69
sVCharacterOffsetEnd
p217
V47
p218
sVCharacterOffsetBegin
p219
V39
p220
sVPartOfSpeech
p221
VVBD
p222
sVLemma
p223
Vfinish
p224
saa(lp225
V47
p226
a(dp227
VNormalizedNamedEntityTag
p228
V47.0
p229
sVLemma
p230
V47
p231
sVCharacterOffsetEnd
p232
V50
p233
sVPartOfSpeech
p234
VCD
p235
sVCharacterOffsetBegin
p236
V48
p237
sVNamedEntityTag
p238
VNUMBER
p239
saa(lp240
Vof
p241
a(dp242
VNamedEntityTag
p243
g69
sVCharacterOffsetEnd
p244
V53
p245
sVCharacterOffsetBegin
p246
V51
p247
sVPartOfSpeech
p248
VIN
p249
sVLemma
p250
Vof
p251
saa(lp252
Vthem
p253
a(dp254
VNamedEntityTag
p255
g69
sVCharacterOffsetEnd
p256
V58
p257
sVCharacterOffsetBegin
p258
V54
p259
sVPartOfSpeech
p260
VPRP
p261
sVLemma
p262
Vthey
p263
saa(lp264
Vbut
p265
a(dp266
VNamedEntityTag
p267
g69
sVCharacterOffsetEnd
p268
V62
p269
sVCharacterOffsetBegin
p270
V59
p271
sVPartOfSpeech
p272
VCC
p273
sVLemma
p274
Vbut
p275
saa(lp276
Vstill
p277
a(dp278
VNamedEntityTag
p279
g69
sVCharacterOffsetEnd
p280
V68
p281
sVCharacterOffsetBegin
p282
V63
p283
sVPartOfSpeech
p284
VRB
p285
sVLemma
p286
Vstill
p287
saa(lp288
Vhad
p289
a(dp290
VNamedEntityTag
p291
g69
sVCharacterOffsetEnd
p292
V72
p293
sVCharacterOffsetBegin
p294
V69
p295
sVPartOfSpeech
p296
VVBD
p297
sVLemma
p298
Vhave
p299
saa(lp300
g58
a(dp301
VNormalizedNamedEntityTag
p302
V6.0
p303
sVLemma
p304
g58
sVCharacterOffsetEnd
p305
V74
p306
sVPartOfSpeech
p307
VCD
p308
sVCharacterOffsetBegin
p309
V73
p310
sVNamedEntityTag
p311
VNUMBER
p312
saa(lp313
Vpages
p314
a(dp315
VNamedEntityTag
p316
g69
sVCharacterOffsetEnd
p317
V80
p318
sVCharacterOffsetBegin
p319
V75
p320
sVPartOfSpeech
p321
VNNS
p322
sVLemma
p323
Vpage
p324
saa(lp325
Vof
p326
a(dp327
VNamedEntityTag
p328
g69
sVCharacterOffsetEnd
p329
V83
p330
sVCharacterOffsetBegin
p331
V81
p332
sVPartOfSpeech
p333
VIN
p334
sVLemma
p335
Vof
p336
saa(lp337
Vproblems
p338
a(dp339
VNamedEntityTag
p340
g69
sVCharacterOffsetEnd
p341
V92
p342
sVCharacterOffsetBegin
p343
V84
p344
sVPartOfSpeech
p345
VNNS
p346
sVLemma
p347
Vproblem
p348
saa(lp349
Vto
p350
a(dp351
VNamedEntityTag
p352
g69
sVCharacterOffsetEnd
p353
V95
p354
sVCharacterOffsetBegin
p355
V93
p356
sVPartOfSpeech
p357
VTO
p358
sVLemma
p359
Vto
p360
saa(lp361
Vdo
p362
a(dp363
VNamedEntityTag
p364
g69
sVCharacterOffsetEnd
p365
V98
p366
sVCharacterOffsetBegin
p367
V96
p368
sVPartOfSpeech
p369
VVB
p370
sVLemma
p371
Vdo
p372
saa(lp373
g118
a(dp374
VNamedEntityTag
p375
g69
sVCharacterOffsetEnd
p376
V100
p377
sVCharacterOffsetBegin
p378
V99
p379
sVPartOfSpeech
p380
g118
sVLemma
p381
g118
saasVindexeddependencies
p382
(lp383
(lp384
Vroot
p385
aVROOT-0
p386
aVfinished-2
p387
aa(lp388
Vnsubj
p389
aVfinished-2
p390
aVShe-1
p391
aa(lp392
Vdobj
p393
aVfinished-2
p394
aV47-3
p395
aa(lp396
Vprep_of
p397
aV47-3
p398
aVthem-5
p399
aa(lp400
Vadvmod
p401
aVhad-8
p402
aVstill-7
p403
aa(lp404
Vconj_but
p405
aVfinished-2
p406
aVhad-8
p407
aa(lp408
Vnum
p409
aVpages-10
p410
aV6-9
p411
aa(lp412
Vdobj
p413
aVhad-8
p414
aVpages-10
p415
aa(lp416
Vprep_of
p417
aVpages-10
p418
aVproblems-12
p419
aa(lp420
Vaux
p421
aVdo-14
p422
aVto-13
p423
aa(lp424
Vvmod
p425
aVproblems-12
p426
aVdo-14
p427
aasa(dp428
Vparsetree
p429
V(ROOT (SBAR (SBAR (IN If) (S (NP (DT each) (NN page)) (VP (VBZ has) (NP (NP (DT the) (JJ same) (NN number)) (PP (IN of) (NP (NP (NNS problems)) (PP (IN on) (NP (PRP it))))))))) (, ,) (SBAR (WHADJP (WRB how) (JJ many)) (S (NP (NNS problems)) (VP (VBP are) (PP (IN on) (NP (DT each) (NN page))))) (. ?))))
p430
sVtext
p431
VIf each page has the same number of problems on it , how many problems are on each page ?
p432
sVdependencies
p433
(lp434
(lp435
Vroot
p436
aVROOT
p437
aVhas
p438
aa(lp439
Vmark
p440
aVhas
p441
aVIf
p442
aa(lp443
Vdet
p444
aVpage
p445
aVeach
p446
aa(lp447
Vnsubj
p448
aVhas
p449
aVpage
p450
aa(lp451
Vdet
p452
aVnumber
p453
aVthe
p454
aa(lp455
Vamod
p456
aVnumber
p457
aVsame
p458
aa(lp459
Vdobj
p460
aVhas
p461
aVnumber
p462
aa(lp463
Vprep_of
p464
aVnumber
p465
aVproblems
p466
aa(lp467
Vprep_on
p468
aVproblems
p469
aVit
p470
aa(lp471
Vadvmod
p472
aVmany
p473
aVhow
p474
aa(lp475
Vdep
p476
aVare
p477
aVmany
p478
aa(lp479
Vnsubj
p480
aVare
p481
aVproblems
p482
aa(lp483
Vdep
p484
aVhas
p485
aVare
p486
aa(lp487
Vdet
p488
aVpage
p489
aVeach
p490
aa(lp491
Vprep_on
p492
aVare
p493
aVpage
p494
aasVwords
p495
(lp496
(lp497
VIf
p498
a(dp499
VNamedEntityTag
p500
g69
sVCharacterOffsetEnd
p501
V103
p502
sVCharacterOffsetBegin
p503
V101
p504
sVPartOfSpeech
p505
VIN
p506
sVLemma
p507
Vif
p508
saa(lp509
Veach
p510
a(dp511
VNamedEntityTag
p512
g69
sVCharacterOffsetEnd
p513
V108
p514
sVCharacterOffsetBegin
p515
V104
p516
sVPartOfSpeech
p517
VDT
p518
sVLemma
p519
Veach
p520
saa(lp521
Vpage
p522
a(dp523
VNamedEntityTag
p524
g69
sVCharacterOffsetEnd
p525
V113
p526
sVCharacterOffsetBegin
p527
V109
p528
sVPartOfSpeech
p529
VNN
p530
sVLemma
p531
Vpage
p532
saa(lp533
Vhas
p534
a(dp535
VNamedEntityTag
p536
g69
sVCharacterOffsetEnd
p537
V117
p538
sVCharacterOffsetBegin
p539
V114
p540
sVPartOfSpeech
p541
VVBZ
p542
sVLemma
p543
Vhave
p544
saa(lp545
Vthe
p546
a(dp547
VNamedEntityTag
p548
g69
sVCharacterOffsetEnd
p549
V121
p550
sVCharacterOffsetBegin
p551
V118
p552
sVPartOfSpeech
p553
VDT
p554
sVLemma
p555
Vthe
p556
saa(lp557
Vsame
p558
a(dp559
VNamedEntityTag
p560
g69
sVCharacterOffsetEnd
p561
V126
p562
sVCharacterOffsetBegin
p563
V122
p564
sVPartOfSpeech
p565
VJJ
p566
sVLemma
p567
Vsame
p568
saa(lp569
Vnumber
p570
a(dp571
VNamedEntityTag
p572
g69
sVCharacterOffsetEnd
p573
V133
p574
sVCharacterOffsetBegin
p575
V127
p576
sVPartOfSpeech
p577
VNN
p578
sVLemma
p579
Vnumber
p580
saa(lp581
Vof
p582
a(dp583
VNamedEntityTag
p584
g69
sVCharacterOffsetEnd
p585
V136
p586
sVCharacterOffsetBegin
p587
V134
p588
sVPartOfSpeech
p589
VIN
p590
sVLemma
p591
Vof
p592
saa(lp593
Vproblems
p594
a(dp595
VNamedEntityTag
p596
g69
sVCharacterOffsetEnd
p597
V145
p598
sVCharacterOffsetBegin
p599
V137
p600
sVPartOfSpeech
p601
VNNS
p602
sVLemma
p603
Vproblem
p604
saa(lp605
Von
p606
a(dp607
VNamedEntityTag
p608
g69
sVCharacterOffsetEnd
p609
V148
p610
sVCharacterOffsetBegin
p611
V146
p612
sVPartOfSpeech
p613
VIN
p614
sVLemma
p615
Von
p616
saa(lp617
Vit
p618
a(dp619
VNamedEntityTag
p620
g69
sVCharacterOffsetEnd
p621
V151
p622
sVCharacterOffsetBegin
p623
V149
p624
sVPartOfSpeech
p625
VPRP
p626
sVLemma
p627
Vit
p628
saa(lp629
V,
p630
a(dp631
VNamedEntityTag
p632
g69
sVCharacterOffsetEnd
p633
V153
p634
sVCharacterOffsetBegin
p635
V152
p636
sVPartOfSpeech
p637
g630
sVLemma
p638
g630
saa(lp639
Vhow
p640
a(dp641
VNamedEntityTag
p642
g69
sVCharacterOffsetEnd
p643
V157
p644
sVCharacterOffsetBegin
p645
V154
p646
sVPartOfSpeech
p647
VWRB
p648
sVLemma
p649
Vhow
p650
saa(lp651
Vmany
p652
a(dp653
VNamedEntityTag
p654
g69
sVCharacterOffsetEnd
p655
V162
p656
sVCharacterOffsetBegin
p657
V158
p658
sVPartOfSpeech
p659
VJJ
p660
sVLemma
p661
Vmany
p662
saa(lp663
Vproblems
p664
a(dp665
VNamedEntityTag
p666
g69
sVCharacterOffsetEnd
p667
V171
p668
sVCharacterOffsetBegin
p669
V163
p670
sVPartOfSpeech
p671
VNNS
p672
sVLemma
p673
Vproblem
p674
saa(lp675
Vare
p676
a(dp677
VNamedEntityTag
p678
g69
sVCharacterOffsetEnd
p679
V175
p680
sVCharacterOffsetBegin
p681
V172
p682
sVPartOfSpeech
p683
VVBP
p684
sVLemma
p685
Vbe
p686
saa(lp687
Von
p688
a(dp689
VNamedEntityTag
p690
g69
sVCharacterOffsetEnd
p691
V178
p692
sVCharacterOffsetBegin
p693
V176
p694
sVPartOfSpeech
p695
VIN
p696
sVLemma
p697
Von
p698
saa(lp699
Veach
p700
a(dp701
VNamedEntityTag
p702
g69
sVCharacterOffsetEnd
p703
V183
p704
sVCharacterOffsetBegin
p705
V179
p706
sVPartOfSpeech
p707
VDT
p708
sVLemma
p709
Veach
p710
saa(lp711
Vpage
p712
a(dp713
VNamedEntityTag
p714
g69
sVCharacterOffsetEnd
p715
V188
p716
sVCharacterOffsetBegin
p717
V184
p718
sVPartOfSpeech
p719
VNN
p720
sVLemma
p721
Vpage
p722
saa(lp723
V?
p724
a(dp725
VNamedEntityTag
p726
g69
sVCharacterOffsetEnd
p727
V190
p728
sVCharacterOffsetBegin
p729
V189
p730
sVPartOfSpeech
p731
g118
sVLemma
p732
g724
saasVindexeddependencies
p733
(lp734
(lp735
Vroot
p736
aVROOT-0
p737
aVhas-4
p738
aa(lp739
Vmark
p740
aVhas-4
p741
aVIf-1
p742
aa(lp743
Vdet
p744
aVpage-3
p745
aVeach-2
p746
aa(lp747
Vnsubj
p748
aVhas-4
p749
aVpage-3
p750
aa(lp751
Vdet
p752
aVnumber-7
p753
aVthe-5
p754
aa(lp755
Vamod
p756
aVnumber-7
p757
aVsame-6
p758
aa(lp759
Vdobj
p760
aVhas-4
p761
aVnumber-7
p762
aa(lp763
Vprep_of
p764
aVnumber-7
p765
aVproblems-9
p766
aa(lp767
Vprep_on
p768
aVproblems-9
p769
aVit-11
p770
aa(lp771
Vadvmod
p772
aVmany-14
p773
aVhow-13
p774
aa(lp775
Vdep
p776
aVare-16
p777
aVmany-14
p778
aa(lp779
Vnsubj
p780
aVare-16
p781
aVproblems-15
p782
aa(lp783
Vdep
p784
aVhas-4
p785
aVare-16
p786
aa(lp787
Vdet
p788
aVpage-19
p789
aVeach-18
p790
aa(lp791
Vprep_on
p792
aVare-16
p793
aVpage-19
p794
aasas.