(dp0
Vcoref
p1
(lp2
(lp3
(lp4
(lp5
VPaige
p6
aI2
aI4
aI4
aI5
aa(lp7
VPaige
p8
aI0
aI0
aI0
aI1
aaaa(lp9
(lp10
(lp11
VShe
p12
aI1
aI0
aI0
aI1
aa(lp13
Vher
p14
aI0
aI5
aI5
aI6
aaaasVsentences
p15
(lp16
(dp17
Vparsetree
p18
V(ROOT (S (NP (NNP Paige)) (VP (VBD had) (NP (NP (CD 27) (NNS files)) (PP (IN on) (NP (PRP$ her) (NN computer))))) (. .)))
p19
sVtext
p20
VPaige had 27 files on her computer .
p21
sVdependencies
p22
(lp23
(lp24
Vroot
p25
aVROOT
p26
aVhad
p27
aa(lp28
Vnsubj
p29
aVhad
p30
aVPaige
p31
aa(lp32
Vnum
p33
aVfiles
p34
aV27
p35
aa(lp36
Vdobj
p37
aVhad
p38
aVfiles
p39
aa(lp40
Vposs
p41
aVcomputer
p42
aVher
p43
aa(lp44
Vprep_on
p45
aVfiles
p46
aVcomputer
p47
aasVwords
p48
(lp49
(lp50
VPaige
p51
a(dp52
VNamedEntityTag
p53
VPERSON
p54
sVCharacterOffsetEnd
p55
V6
p56
sVCharacterOffsetBegin
p57
V1
p58
sVPartOfSpeech
p59
VNNP
p60
sVLemma
p61
VPaige
p62
saa(lp63
Vhad
p64
a(dp65
VNamedEntityTag
p66
VO
p67
sVCharacterOffsetEnd
p68
V10
p69
sVCharacterOffsetBegin
p70
V7
p71
sVPartOfSpeech
p72
VVBD
p73
sVLemma
p74
Vhave
p75
saa(lp76
V27
p77
a(dp78
VNormalizedNamedEntityTag
p79
V27.0
p80
sVLemma
p81
V27
p82
sVCharacterOffsetEnd
p83
V13
p84
sVPartOfSpeech
p85
VCD
p86
sVCharacterOffsetBegin
p87
V11
p88
sVNamedEntityTag
p89
VNUMBER
p90
saa(lp91
Vfiles
p92
a(dp93
VNamedEntityTag
p94
g67
sVCharacterOffsetEnd
p95
V19
p96
sVCharacterOffsetBegin
p97
V14
p98
sVPartOfSpeech
p99
VNNS
p100
sVLemma
p101
Vfile
p102
saa(lp103
Von
p104
a(dp105
VNamedEntityTag
p106
g67
sVCharacterOffsetEnd
p107
V22
p108
sVCharacterOffsetBegin
p109
V20
p110
sVPartOfSpeech
p111
VIN
p112
sVLemma
p113
Von
p114
saa(lp115
Vher
p116
a(dp117
VNamedEntityTag
p118
g67
sVCharacterOffsetEnd
p119
V26
p120
sVCharacterOffsetBegin
p121
V23
p122
sVPartOfSpeech
p123
VPRP$
p124
sVLemma
p125
Vshe
p126
saa(lp127
Vcomputer
p128
a(dp129
VNamedEntityTag
p130
g67
sVCharacterOffsetEnd
p131
V35
p132
sVCharacterOffsetBegin
p133
V27
p134
sVPartOfSpeech
p135
VNN
p136
sVLemma
p137
Vcomputer
p138
saa(lp139
V.
p140
a(dp141
VNamedEntityTag
p142
g67
sVCharacterOffsetEnd
p143
V37
p144
sVCharacterOffsetBegin
p145
V36
p146
sVPartOfSpeech
p147
g140
sVLemma
p148
g140
saasVindexeddependencies
p149
(lp150
(lp151
Vroot
p152
aVROOT-0
p153
aVhad-2
p154
aa(lp155
Vnsubj
p156
aVhad-2
p157
aVPaige-1
p158
aa(lp159
Vnum
p160
aVfiles-4
p161
aV27-3
p162
aa(lp163
Vdobj
p164
aVhad-2
p165
aVfiles-4
p166
aa(lp167
Vposs
p168
aVcomputer-7
p169
aVher-6
p170
aa(lp171
Vprep_on
p172
aVfiles-4
p173
aVcomputer-7
p174
aasa(dp175
Vparsetree
p176
V(ROOT (S (NP (PRP She)) (VP (VP (VBD deleted) (NP (NP (CD 9)) (PP (IN of) (NP (PRP them))))) (CC and) (VP (VB put) (NP (DT the) (NN rest)) (PP (IN into) (NP (NP (NNS folders)) (PP (IN with) (NP (NP (CD 6) (NNS files)) (PP (IN in) (NP (DT each) (CD one))))))))) (. .)))
p177
sVtext
p178
VShe deleted 9 of them and put the rest into folders with 6 files in each one .
p179
sVdependencies
p180
(lp181
(lp182
Vroot
p183
aVROOT
p184
aVdeleted
p185
aa(lp186
Vnsubj
p187
aVdeleted
p188
aVShe
p189
aa(lp190
Vdobj
p191
aVdeleted
p192
aV9
p193
aa(lp194
Vprep_of
p195
ag193
aVthem
p196
aa(lp197
Vconj_and
p198
aVdeleted
p199
aVput
p200
aa(lp201
Vdet
p202
aVrest
p203
aVthe
p204
aa(lp205
Vdobj
p206
aVput
p207
aVrest
p208
aa(lp209
Vprep_into
p210
aVput
p211
aVfolders
p212
aa(lp213
Vnum
p214
aVfiles
p215
ag56
aa(lp216
Vprep_with
p217
aVfolders
p218
aVfiles
p219
aa(lp220
Vdet
p221
aVone
p222
aVeach
p223
aa(lp224
Vprep_in
p225
aVfiles
p226
aVone
p227
aasVwords
p228
(lp229
(lp230
VShe
p231
a(dp232
VNamedEntityTag
p233
g67
sVCharacterOffsetEnd
p234
V41
p235
sVCharacterOffsetBegin
p236
V38
p237
sVPartOfSpeech
p238
VPRP
p239
sVLemma
p240
Vshe
p241
saa(lp242
Vdeleted
p243
a(dp244
VNamedEntityTag
p245
g67
sVCharacterOffsetEnd
p246
V49
p247
sVCharacterOffsetBegin
p248
V42
p249
sVPartOfSpeech
p250
VVBD
p251
sVLemma
p252
Vdelete
p253
saa(lp254
g193
a(dp255
VNormalizedNamedEntityTag
p256
V9.0
p257
sVLemma
p258
g193
sVCharacterOffsetEnd
p259
V51
p260
sVPartOfSpeech
p261
VCD
p262
sVCharacterOffsetBegin
p263
V50
p264
sVNamedEntityTag
p265
VNUMBER
p266
saa(lp267
Vof
p268
a(dp269
VNamedEntityTag
p270
g67
sVCharacterOffsetEnd
p271
V54
p272
sVCharacterOffsetBegin
p273
V52
p274
sVPartOfSpeech
p275
VIN
p276
sVLemma
p277
Vof
p278
saa(lp279
Vthem
p280
a(dp281
VNamedEntityTag
p282
g67
sVCharacterOffsetEnd
p283
V59
p284
sVCharacterOffsetBegin
p285
V55
p286
sVPartOfSpeech
p287
VPRP
p288
sVLemma
p289
Vthey
p290
saa(lp291
Vand
p292
a(dp293
VNamedEntityTag
p294
g67
sVCharacterOffsetEnd
p295
V63
p296
sVCharacterOffsetBegin
p297
V60
p298
sVPartOfSpeech
p299
VCC
p300
sVLemma
p301
Vand
p302
saa(lp303
Vput
p304
a(dp305
VNamedEntityTag
p306
g67
sVCharacterOffsetEnd
p307
V67
p308
sVCharacterOffsetBegin
p309
V64
p310
sVPartOfSpeech
p311
VVB
p312
sVLemma
p313
Vput
p314
saa(lp315
Vthe
p316
a(dp317
VNamedEntityTag
p318
g67
sVCharacterOffsetEnd
p319
V71
p320
sVCharacterOffsetBegin
p321
V68
p322
sVPartOfSpeech
p323
VDT
p324
sVLemma
p325
Vthe
p326
saa(lp327
Vrest
p328
a(dp329
VNamedEntityTag
p330
g67
sVCharacterOffsetEnd
p331
V76
p332
sVCharacterOffsetBegin
p333
V72
p334
sVPartOfSpeech
p335
VNN
p336
sVLemma
p337
Vrest
p338
saa(lp339
Vinto
p340
a(dp341
VNamedEntityTag
p342
g67
sVCharacterOffsetEnd
p343
V81
p344
sVCharacterOffsetBegin
p345
V77
p346
sVPartOfSpeech
p347
VIN
p348
sVLemma
p349
Vinto
p350
saa(lp351
Vfolders
p352
a(dp353
VNamedEntityTag
p354
g67
sVCharacterOffsetEnd
p355
V89
p356
sVCharacterOffsetBegin
p357
V82
p358
sVPartOfSpeech
p359
VNNS
p360
sVLemma
p361
Vfolder
p362
saa(lp363
Vwith
p364
a(dp365
VNamedEntityTag
p366
g67
sVCharacterOffsetEnd
p367
V94
p368
sVCharacterOffsetBegin
p369
V90
p370
sVPartOfSpeech
p371
VIN
p372
sVLemma
p373
Vwith
p374
saa(lp375
g56
a(dp376
VNormalizedNamedEntityTag
p377
V6.0
p378
sVLemma
p379
g56
sVCharacterOffsetEnd
p380
V96
p381
sVPartOfSpeech
p382
VCD
p383
sVCharacterOffsetBegin
p384
V95
p385
sVNamedEntityTag
p386
VNUMBER
p387
saa(lp388
Vfiles
p389
a(dp390
VNamedEntityTag
p391
g67
sVCharacterOffsetEnd
p392
V102
p393
sVCharacterOffsetBegin
p394
V97
p395
sVPartOfSpeech
p396
VNNS
p397
sVLemma
p398
Vfile
p399
saa(lp400
Vin
p401
a(dp402
VNamedEntityTag
p403
g67
sVCharacterOffsetEnd
p404
V105
p405
sVCharacterOffsetBegin
p406
V103
p407
sVPartOfSpeech
p408
VIN
p409
sVLemma
p410
Vin
p411
saa(lp412
Veach
p413
a(dp414
VNamedEntityTag
p415
g67
sVCharacterOffsetEnd
p416
V110
p417
sVCharacterOffsetBegin
p418
V106
p419
sVPartOfSpeech
p420
VDT
p421
sVLemma
p422
Veach
p423
saa(lp424
Vone
p425
a(dp426
VNormalizedNamedEntityTag
p427
V1.0
p428
sVLemma
p429
Vone
p430
sVCharacterOffsetEnd
p431
V114
p432
sVPartOfSpeech
p433
VCD
p434
sVCharacterOffsetBegin
p435
V111
p436
sVNamedEntityTag
p437
VNUMBER
p438
saa(lp439
g140
a(dp440
VNamedEntityTag
p441
g67
sVCharacterOffsetEnd
p442
V116
p443
sVCharacterOffsetBegin
p444
V115
p445
sVPartOfSpeech
p446
g140
sVLemma
p447
g140
saasVindexeddependencies
p448
(lp449
(lp450
Vroot
p451
aVROOT-0
p452
aVdeleted-2
p453
aa(lp454
Vnsubj
p455
aVdeleted-2
p456
aVShe-1
p457
aa(lp458
Vdobj
p459
aVdeleted-2
p460
aV9-3
p461
aa(lp462
Vprep_of
p463
aV9-3
p464
aVthem-5
p465
aa(lp466
Vconj_and
p467
aVdeleted-2
p468
aVput-7
p469
aa(lp470
Vdet
p471
aVrest-9
p472
aVthe-8
p473
aa(lp474
Vdobj
p475
aVput-7
p476
aVrest-9
p477
aa(lp478
Vprep_into
p479
aVput-7
p480
aVfolders-11
p481
aa(lp482
Vnum
p483
aVfiles-14
p484
aV6-13
p485
aa(lp486
Vprep_with
p487
aVfolders-11
p488
aVfiles-14
p489
aa(lp490
Vdet
p491
aVone-17
p492
aVeach-16
p493
aa(lp494
Vprep_in
p495
aVfiles-14
p496
aVone-17
p497
aasa(dp498
Vparsetree
p499
V(ROOT (SBARQ (WHNP (WHADJP (WRB How) (JJ many)) (NNS folders)) (SQ (VBD did) (NP (NNP Paige)) (VP (VB end) (PRT (RP up)) (PP (IN with)))) (. ?)))
p500
sVtext
p501
VHow many folders did Paige end up with ?
p502
sVdependencies
p503
(lp504
(lp505
Vroot
p506
aVROOT
p507
aVend
p508
aa(lp509
Vadvmod
p510
aVmany
p511
aVHow
p512
aa(lp513
Vamod
p514
aVfolders
p515
aVmany
p516
aa(lp517
Vprep_with
p518
aVend
p519
aVfolders
p520
aa(lp521
Vaux
p522
aVend
p523
aVdid
p524
aa(lp525
Vnsubj
p526
aVend
p527
aVPaige
p528
aa(lp529
Vprt
p530
aVend
p531
aVup
p532
aasVwords
p533
(lp534
(lp535
VHow
p536
a(dp537
VNamedEntityTag
p538
g67
sVCharacterOffsetEnd
p539
V120
p540
sVCharacterOffsetBegin
p541
V117
p542
sVPartOfSpeech
p543
VWRB
p544
sVLemma
p545
Vhow
p546
saa(lp547
Vmany
p548
a(dp549
VNamedEntityTag
p550
g67
sVCharacterOffsetEnd
p551
V125
p552
sVCharacterOffsetBegin
p553
V121
p554
sVPartOfSpeech
p555
VJJ
p556
sVLemma
p557
Vmany
p558
saa(lp559
Vfolders
p560
a(dp561
VNamedEntityTag
p562
g67
sVCharacterOffsetEnd
p563
V133
p564
sVCharacterOffsetBegin
p565
V126
p566
sVPartOfSpeech
p567
VNNS
p568
sVLemma
p569
Vfolder
p570
saa(lp571
Vdid
p572
a(dp573
VNamedEntityTag
p574
g67
sVCharacterOffsetEnd
p575
V137
p576
sVCharacterOffsetBegin
p577
V134
p578
sVPartOfSpeech
p579
VVBD
p580
sVLemma
p581
Vdo
p582
saa(lp583
VPaige
p584
a(dp585
VNamedEntityTag
p586
VPERSON
p587
sVCharacterOffsetEnd
p588
V143
p589
sVCharacterOffsetBegin
p590
V138
p591
sVPartOfSpeech
p592
VNNP
p593
sVLemma
p594
VPaige
p595
saa(lp596
Vend
p597
a(dp598
VNamedEntityTag
p599
g67
sVCharacterOffsetEnd
p600
V147
p601
sVCharacterOffsetBegin
p602
V144
p603
sVPartOfSpeech
p604
VVB
p605
sVLemma
p606
Vend
p607
saa(lp608
Vup
p609
a(dp610
VNamedEntityTag
p611
g67
sVCharacterOffsetEnd
p612
V150
p613
sVCharacterOffsetBegin
p614
V148
p615
sVPartOfSpeech
p616
VRP
p617
sVLemma
p618
Vup
p619
saa(lp620
Vwith
p621
a(dp622
VNamedEntityTag
p623
g67
sVCharacterOffsetEnd
p624
V155
p625
sVCharacterOffsetBegin
p626
V151
p627
sVPartOfSpeech
p628
VIN
p629
sVLemma
p630
Vwith
p631
saa(lp632
V?
p633
a(dp634
VNamedEntityTag
p635
g67
sVCharacterOffsetEnd
p636
V157
p637
sVCharacterOffsetBegin
p638
V156
p639
sVPartOfSpeech
p640
g140
sVLemma
p641
g633
saasVindexeddependencies
p642
(lp643
(lp644
Vroot
p645
aVROOT-0
p646
aVend-6
p647
aa(lp648
Vadvmod
p649
aVmany-2
p650
aVHow-1
p651
aa(lp652
Vamod
p653
aVfolders-3
p654
aVmany-2
p655
aa(lp656
Vprep_with
p657
aVend-6
p658
aVfolders-3
p659
aa(lp660
Vaux
p661
aVend-6
p662
aVdid-4
p663
aa(lp664
Vnsubj
p665
aVend-6
p666
aVPaige-5
p667
aa(lp668
Vprt
p669
aVend-6
p670
aVup-7
p671
aasas.