(dp0
Vcoref
p1
(lp2
(lp3
(lp4
(lp5
VShe
p6
aI1
aI0
aI0
aI1
aa(lp7
VHaley
p8
aI0
aI0
aI0
aI1
aaaasVsentences
p9
(lp10
(dp11
Vparsetree
p12
V(ROOT (S (NP (NNP Haley)) (VP (VBD uploaded) (NP (CD 65) (NNS pictures)) (PP (TO to) (NP (NNP Facebook)))) (. .)))
p13
sVtext
p14
VHaley uploaded 65 pictures to Facebook .
p15
sVdependencies
p16
(lp17
(lp18
Vroot
p19
aVROOT
p20
aVuploaded
p21
aa(lp22
Vnsubj
p23
aVuploaded
p24
aVHaley
p25
aa(lp26
Vnum
p27
aVpictures
p28
aV65
p29
aa(lp30
Vdobj
p31
aVuploaded
p32
aVpictures
p33
aa(lp34
Vprep_to
p35
aVuploaded
p36
aVFacebook
p37
aasVwords
p38
(lp39
(lp40
VHaley
p41
a(dp42
VNamedEntityTag
p43
VPERSON
p44
sVCharacterOffsetEnd
p45
V6
p46
sVCharacterOffsetBegin
p47
V1
p48
sVPartOfSpeech
p49
VNNP
p50
sVLemma
p51
VHaley
p52
saa(lp53
Vuploaded
p54
a(dp55
VNamedEntityTag
p56
VO
p57
sVCharacterOffsetEnd
p58
V15
p59
sVCharacterOffsetBegin
p60
V7
p61
sVPartOfSpeech
p62
VVBD
p63
sVLemma
p64
Vupload
p65
saa(lp66
V65
p67
a(dp68
VNormalizedNamedEntityTag
p69
V65.0
p70
sVLemma
p71
V65
p72
sVCharacterOffsetEnd
p73
V18
p74
sVPartOfSpeech
p75
VCD
p76
sVCharacterOffsetBegin
p77
V16
p78
sVNamedEntityTag
p79
VNUMBER
p80
saa(lp81
Vpictures
p82
a(dp83
VNamedEntityTag
p84
g57
sVCharacterOffsetEnd
p85
V27
p86
sVCharacterOffsetBegin
p87
V19
p88
sVPartOfSpeech
p89
VNNS
p90
sVLemma
p91
Vpicture
p92
saa(lp93
Vto
p94
a(dp95
VNamedEntityTag
p96
g57
sVCharacterOffsetEnd
p97
V30
p98
sVCharacterOffsetBegin
p99
V28
p100
sVPartOfSpeech
p101
VTO
p102
sVLemma
p103
Vto
p104
saa(lp105
VFacebook
p106
a(dp107
VNamedEntityTag
p108
VORGANIZATION
p109
sVCharacterOffsetEnd
p110
V39
p111
sVCharacterOffsetBegin
p112
V31
p113
sVPartOfSpeech
p114
VNNP
p115
sVLemma
p116
VFacebook
p117
saa(lp118
V.
p119
a(dp120
VNamedEntityTag
p121
g57
sVCharacterOffsetEnd
p122
V41
p123
sVCharacterOffsetBegin
p124
V40
p125
sVPartOfSpeech
p126
g119
sVLemma
p127
g119
saasVindexeddependencies
p128
(lp129
(lp130
Vroot
p131
aVROOT-0
p132
aVuploaded-2
p133
aa(lp134
Vnsubj
p135
aVuploaded-2
p136
aVHaley-1
p137
aa(lp138
Vnum
p139
aVpictures-4
p140
aV65-3
p141
aa(lp142
Vdobj
p143
aVuploaded-2
p144
aVpictures-4
p145
aa(lp146
Vprep_to
p147
aVuploaded-2
p148
aVFacebook-6
p149
aasa(dp150
Vparsetree
p151
V(ROOT (S (NP (PRP She)) (VP (VP (VBD put) (NP (CD 17) (NNS pics)) (PP (IN into) (NP (CD one) (NN album)))) (CC and) (VP (VBD put) (NP (DT the) (NN rest)) (PP (IN into) (NP (CD 6) (JJ different) (NNS albums))))) (. .)))
p152
sVtext
p153
VShe put 17 pics into one album and put the rest into 6 different albums .
p154
sVdependencies
p155
(lp156
(lp157
Vroot
p158
aVROOT
p159
aVput
p160
aa(lp161
Vnsubj
p162
aVput
p163
aVShe
p164
aa(lp165
Vnum
p166
aVpics
p167
aV17
p168
aa(lp169
Vdobj
p170
aVput
p171
aVpics
p172
aa(lp173
Vnum
p174
aValbum
p175
aVone
p176
aa(lp177
Vprep_into
p178
aVput
p179
aValbum
p180
aa(lp181
Vconj_and
p182
aVput
p183
aVput
p184
aa(lp185
Vdet
p186
aVrest
p187
aVthe
p188
aa(lp189
Vdobj
p190
aVput
p191
aVrest
p192
aa(lp193
Vnum
p194
aValbums
p195
ag46
aa(lp196
Vamod
p197
aValbums
p198
aVdifferent
p199
aa(lp200
Vprep_into
p201
aVput
p202
aValbums
p203
aasVwords
p204
(lp205
(lp206
VShe
p207
a(dp208
VNamedEntityTag
p209
g57
sVCharacterOffsetEnd
p210
V45
p211
sVCharacterOffsetBegin
p212
V42
p213
sVPartOfSpeech
p214
VPRP
p215
sVLemma
p216
Vshe
p217
saa(lp218
Vput
p219
a(dp220
VNamedEntityTag
p221
g57
sVCharacterOffsetEnd
p222
V49
p223
sVCharacterOffsetBegin
p224
V46
p225
sVPartOfSpeech
p226
VVBD
p227
sVLemma
p228
Vput
p229
saa(lp230
V17
p231
a(dp232
VNormalizedNamedEntityTag
p233
V17.0
p234
sVLemma
p235
V17
p236
sVCharacterOffsetEnd
p237
V52
p238
sVPartOfSpeech
p239
VCD
p240
sVCharacterOffsetBegin
p241
V50
p242
sVNamedEntityTag
p243
VNUMBER
p244
saa(lp245
Vpics
p246
a(dp247
VNamedEntityTag
p248
g57
sVCharacterOffsetEnd
p249
V57
p250
sVCharacterOffsetBegin
p251
V53
p252
sVPartOfSpeech
p253
VNNS
p254
sVLemma
p255
Vpic
p256
saa(lp257
Vinto
p258
a(dp259
VNamedEntityTag
p260
g57
sVCharacterOffsetEnd
p261
V62
p262
sVCharacterOffsetBegin
p263
V58
p264
sVPartOfSpeech
p265
VIN
p266
sVLemma
p267
Vinto
p268
saa(lp269
Vone
p270
a(dp271
VNormalizedNamedEntityTag
p272
V1.0
p273
sVLemma
p274
Vone
p275
sVCharacterOffsetEnd
p276
V66
p277
sVPartOfSpeech
p278
VCD
p279
sVCharacterOffsetBegin
p280
V63
p281
sVNamedEntityTag
p282
VNUMBER
p283
saa(lp284
Valbum
p285
a(dp286
VNamedEntityTag
p287
g57
sVCharacterOffsetEnd
p288
V72
p289
sVCharacterOffsetBegin
p290
V67
p291
sVPartOfSpeech
p292
VNN
p293
sVLemma
p294
Valbum
p295
saa(lp296
Vand
p297
a(dp298
VNamedEntityTag
p299
g57
sVCharacterOffsetEnd
p300
V76
p301
sVCharacterOffsetBegin
p302
V73
p303
sVPartOfSpeech
p304
VCC
p305
sVLemma
p306
Vand
p307
saa(lp308
Vput
p309
a(dp310
VNamedEntityTag
p311
g57
sVCharacterOffsetEnd
p312
V80
p313
sVCharacterOffsetBegin
p314
V77
p315
sVPartOfSpeech
p316
VVBD
p317
sVLemma
p318
Vput
p319
saa(lp320
Vthe
p321
a(dp322
VNamedEntityTag
p323
g57
sVCharacterOffsetEnd
p324
V84
p325
sVCharacterOffsetBegin
p326
V81
p327
sVPartOfSpeech
p328
VDT
p329
sVLemma
p330
Vthe
p331
saa(lp332
Vrest
p333
a(dp334
VNamedEntityTag
p335
g57
sVCharacterOffsetEnd
p336
V89
p337
sVCharacterOffsetBegin
p338
V85
p339
sVPartOfSpeech
p340
VNN
p341
sVLemma
p342
Vrest
p343
saa(lp344
Vinto
p345
a(dp346
VNamedEntityTag
p347
g57
sVCharacterOffsetEnd
p348
V94
p349
sVCharacterOffsetBegin
p350
V90
p351
sVPartOfSpeech
p352
VIN
p353
sVLemma
p354
Vinto
p355
saa(lp356
g46
a(dp357
VNormalizedNamedEntityTag
p358
V6.0
p359
sVLemma
p360
g46
sVCharacterOffsetEnd
p361
V96
p362
sVPartOfSpeech
p363
VCD
p364
sVCharacterOffsetBegin
p365
V95
p366
sVNamedEntityTag
p367
VNUMBER
p368
saa(lp369
Vdifferent
p370
a(dp371
VNamedEntityTag
p372
g57
sVCharacterOffsetEnd
p373
V106
p374
sVCharacterOffsetBegin
p375
V97
p376
sVPartOfSpeech
p377
VJJ
p378
sVLemma
p379
Vdifferent
p380
saa(lp381
Valbums
p382
a(dp383
VNamedEntityTag
p384
g57
sVCharacterOffsetEnd
p385
V113
p386
sVCharacterOffsetBegin
p387
V107
p388
sVPartOfSpeech
p389
VNNS
p390
sVLemma
p391
Valbum
p392
saa(lp393
g119
a(dp394
VNamedEntityTag
p395
g57
sVCharacterOffsetEnd
p396
V115
p397
sVCharacterOffsetBegin
p398
V114
p399
sVPartOfSpeech
p400
g119
sVLemma
p401
g119
saasVindexeddependencies
p402
(lp403
(lp404
Vroot
p405
aVROOT-0
p406
aVput-2
p407
aa(lp408
Vnsubj
p409
aVput-2
p410
aVShe-1
p411
aa(lp412
Vnum
p413
aVpics-4
p414
aV17-3
p415
aa(lp416
Vdobj
p417
aVput-2
p418
aVpics-4
p419
aa(lp420
Vnum
p421
aValbum-7
p422
aVone-6
p423
aa(lp424
Vprep_into
p425
aVput-2
p426
aValbum-7
p427
aa(lp428
Vconj_and
p429
aVput-2
p430
aVput-9
p431
aa(lp432
Vdet
p433
aVrest-11
p434
aVthe-10
p435
aa(lp436
Vdobj
p437
aVput-9
p438
aVrest-11
p439
aa(lp440
Vnum
p441
aValbums-15
p442
aV6-13
p443
aa(lp444
Vamod
p445
aValbums-15
p446
aVdifferent-14
p447
aa(lp448
Vprep_into
p449
aVput-9
p450
aValbums-15
p451
aasa(dp452
Vparsetree
p453
V(ROOT (SBARQ (WHNP (WHADJP (WRB How) (JJ many)) (NNS pictures)) (SQ (VP (VBD were) (PP (IN in) (NP (DT each) (NN album))))) (. ?)))
p454
sVtext
p455
VHow many pictures were in each album ?
p456
sVdependencies
p457
(lp458
(lp459
Vroot
p460
aVROOT
p461
aVwere
p462
aa(lp463
Vadvmod
p464
aVmany
p465
aVHow
p466
aa(lp467
Vamod
p468
aVpictures
p469
aVmany
p470
aa(lp471
Vnsubj
p472
aVwere
p473
aVpictures
p474
aa(lp475
Vdet
p476
aValbum
p477
aVeach
p478
aa(lp479
Vprep_in
p480
aVwere
p481
aValbum
p482
aasVwords
p483
(lp484
(lp485
VHow
p486
a(dp487
VNamedEntityTag
p488
g57
sVCharacterOffsetEnd
p489
V119
p490
sVCharacterOffsetBegin
p491
V116
p492
sVPartOfSpeech
p493
VWRB
p494
sVLemma
p495
Vhow
p496
saa(lp497
Vmany
p498
a(dp499
VNamedEntityTag
p500
g57
sVCharacterOffsetEnd
p501
V124
p502
sVCharacterOffsetBegin
p503
V120
p504
sVPartOfSpeech
p505
VJJ
p506
sVLemma
p507
Vmany
p508
saa(lp509
Vpictures
p510
a(dp511
VNamedEntityTag
p512
g57
sVCharacterOffsetEnd
p513
V133
p514
sVCharacterOffsetBegin
p515
V125
p516
sVPartOfSpeech
p517
VNNS
p518
sVLemma
p519
Vpicture
p520
saa(lp521
Vwere
p522
a(dp523
VNamedEntityTag
p524
g57
sVCharacterOffsetEnd
p525
V138
p526
sVCharacterOffsetBegin
p527
V134
p528
sVPartOfSpeech
p529
VVBD
p530
sVLemma
p531
Vbe
p532
saa(lp533
Vin
p534
a(dp535
VNamedEntityTag
p536
g57
sVCharacterOffsetEnd
p537
V141
p538
sVCharacterOffsetBegin
p539
V139
p540
sVPartOfSpeech
p541
VIN
p542
sVLemma
p543
Vin
p544
saa(lp545
Veach
p546
a(dp547
VNamedEntityTag
p548
g57
sVCharacterOffsetEnd
p549
V146
p550
sVCharacterOffsetBegin
p551
V142
p552
sVPartOfSpeech
p553
VDT
p554
sVLemma
p555
Veach
p556
saa(lp557
Valbum
p558
a(dp559
VNamedEntityTag
p560
g57
sVCharacterOffsetEnd
p561
V152
p562
sVCharacterOffsetBegin
p563
V147
p564
sVPartOfSpeech
p565
VNN
p566
sVLemma
p567
Valbum
p568
saa(lp569
V?
p570
a(dp571
VNamedEntityTag
p572
g57
sVCharacterOffsetEnd
p573
V154
p574
sVCharacterOffsetBegin
p575
V153
p576
sVPartOfSpeech
p577
g119
sVLemma
p578
g570
saasVindexeddependencies
p579
(lp580
(lp581
Vroot
p582
aVROOT-0
p583
aVwere-4
p584
aa(lp585
Vadvmod
p586
aVmany-2
p587
aVHow-1
p588
aa(lp589
Vamod
p590
aVpictures-3
p591
aVmany-2
p592
aa(lp593
Vnsubj
p594
aVwere-4
p595
aVpictures-3
p596
aa(lp597
Vdet
p598
aValbum-7
p599
aVeach-6
p600
aa(lp601
Vprep_in
p602
aVwere-4
p603
aValbum-7
p604
aasas.