(dp0
Vcoref
p1
(lp2
(lp3
(lp4
(lp5
Vthe wedding
p6
aI2
aI8
aI7
aI9
aa(lp7
Vher friend 's wedding
p8
aI0
aI8
aI5
aI9
aaaa(lp9
(lp10
(lp11
VShe
p12
aI1
aI0
aI0
aI1
aa(lp13
Vher friend 's
p14
aI0
aI6
aI5
aI8
aaa(lp15
(lp16
Vshe
p17
aI2
aI14
aI14
aI15
aa(lp18
Vher friend 's
p19
aI0
aI6
aI5
aI8
aaaa(lp20
(lp21
(lp22
Vthe flowers
p23
aI2
aI4
aI3
aI5
aa(lp24
V5 flowers in each one
p25
aI1
aI6
aI5
aI10
aaaasVsentences
p26
(lp27
(dp28
Vparsetree
p29
V(ROOT (S (NP (NN Wendy)) (VP (VBD picked) (NP (NP (CD 45) (NNS flowers)) (PP (IN for) (NP (NP (PRP$ her) (NN friend) (POS 's)) (NN wedding))))) (. .)))
p30
sVtext
p31
VWendy picked 45 flowers for her friend\u2019s wedding .
p32
sVdependencies
p33
(lp34
(lp35
Vroot
p36
aVROOT
p37
aVpicked
p38
aa(lp39
Vnsubj
p40
aVpicked
p41
aVWendy
p42
aa(lp43
Vnum
p44
aVflowers
p45
aV45
p46
aa(lp47
Vdobj
p48
aVpicked
p49
aVflowers
p50
aa(lp51
Vposs
p52
aVfriend
p53
aVher
p54
aa(lp55
Vposs
p56
aVwedding
p57
aVfriend
p58
aa(lp59
Vprep_for
p60
aVflowers
p61
aVwedding
p62
aasVwords
p63
(lp64
(lp65
VWendy
p66
a(dp67
VNamedEntityTag
p68
VPERSON
p69
sVCharacterOffsetEnd
p70
V6
p71
sVCharacterOffsetBegin
p72
V1
p73
sVPartOfSpeech
p74
VNN
p75
sVLemma
p76
Vwendy
p77
saa(lp78
Vpicked
p79
a(dp80
VNamedEntityTag
p81
VO
p82
sVCharacterOffsetEnd
p83
V13
p84
sVCharacterOffsetBegin
p85
V7
p86
sVPartOfSpeech
p87
VVBD
p88
sVLemma
p89
Vpick
p90
saa(lp91
V45
p92
a(dp93
VNormalizedNamedEntityTag
p94
V45.0
p95
sVLemma
p96
V45
p97
sVCharacterOffsetEnd
p98
V16
p99
sVPartOfSpeech
p100
VCD
p101
sVCharacterOffsetBegin
p102
V14
p103
sVNamedEntityTag
p104
VNUMBER
p105
saa(lp106
Vflowers
p107
a(dp108
VNamedEntityTag
p109
g82
sVCharacterOffsetEnd
p110
V24
p111
sVCharacterOffsetBegin
p112
V17
p113
sVPartOfSpeech
p114
VNNS
p115
sVLemma
p116
Vflower
p117
saa(lp118
Vfor
p119
a(dp120
VNamedEntityTag
p121
g82
sVCharacterOffsetEnd
p122
V28
p123
sVCharacterOffsetBegin
p124
V25
p125
sVPartOfSpeech
p126
VIN
p127
sVLemma
p128
Vfor
p129
saa(lp130
Vher
p131
a(dp132
VNamedEntityTag
p133
g82
sVCharacterOffsetEnd
p134
V32
p135
sVCharacterOffsetBegin
p136
V29
p137
sVPartOfSpeech
p138
VPRP$
p139
sVLemma
p140
Vshe
p141
saa(lp142
Vfriend
p143
a(dp144
VNamedEntityTag
p145
g82
sVCharacterOffsetEnd
p146
V39
p147
sVCharacterOffsetBegin
p148
V33
p149
sVPartOfSpeech
p150
VNN
p151
sVLemma
p152
Vfriend
p153
saa(lp154
V's
p155
a(dp156
VNamedEntityTag
p157
g82
sVCharacterOffsetEnd
p158
V41
p159
sVCharacterOffsetBegin
p160
V39
p161
sVPartOfSpeech
p162
VPOS
p163
sVLemma
p164
V's
p165
saa(lp166
Vwedding
p167
a(dp168
VNamedEntityTag
p169
g82
sVCharacterOffsetEnd
p170
V49
p171
sVCharacterOffsetBegin
p172
V42
p173
sVPartOfSpeech
p174
VNN
p175
sVLemma
p176
Vwedding
p177
saa(lp178
V.
p179
a(dp180
VNamedEntityTag
p181
g82
sVCharacterOffsetEnd
p182
V51
p183
sVCharacterOffsetBegin
p184
V50
p185
sVPartOfSpeech
p186
g179
sVLemma
p187
g179
saasVindexeddependencies
p188
(lp189
(lp190
Vroot
p191
aVROOT-0
p192
aVpicked-2
p193
aa(lp194
Vnsubj
p195
aVpicked-2
p196
aVWendy-1
p197
aa(lp198
Vnum
p199
aVflowers-4
p200
aV45-3
p201
aa(lp202
Vdobj
p203
aVpicked-2
p204
aVflowers-4
p205
aa(lp206
Vposs
p207
aVfriend-7
p208
aVher-6
p209
aa(lp210
Vposs
p211
aVwedding-9
p212
aVfriend-7
p213
aa(lp214
Vprep_for
p215
aVflowers-4
p216
aVwedding-9
p217
aasa(dp218
Vparsetree
p219
V(ROOT (S (NP (PRP She)) (VP (VBD was) (VP (VBG making) (NP (NNS bouquets)) (PP (IN with) (NP (NP (CD 5) (NNS flowers)) (PP (IN in) (NP (DT each) (CD one))))))) (. .)))
p220
sVtext
p221
VShe was making bouquets with 5 flowers in each one .
p222
sVdependencies
p223
(lp224
(lp225
Vroot
p226
aVROOT
p227
aVmaking
p228
aa(lp229
Vnsubj
p230
aVmaking
p231
aVShe
p232
aa(lp233
Vaux
p234
aVmaking
p235
aVwas
p236
aa(lp237
Vdobj
p238
aVmaking
p239
aVbouquets
p240
aa(lp241
Vnum
p242
aVflowers
p243
aV5
p244
aa(lp245
Vprep_with
p246
aVmaking
p247
aVflowers
p248
aa(lp249
Vdet
p250
aVone
p251
aVeach
p252
aa(lp253
Vprep_in
p254
aVflowers
p255
aVone
p256
aasVwords
p257
(lp258
(lp259
VShe
p260
a(dp261
VNamedEntityTag
p262
g82
sVCharacterOffsetEnd
p263
V55
p264
sVCharacterOffsetBegin
p265
V52
p266
sVPartOfSpeech
p267
VPRP
p268
sVLemma
p269
Vshe
p270
saa(lp271
Vwas
p272
a(dp273
VNamedEntityTag
p274
g82
sVCharacterOffsetEnd
p275
V59
p276
sVCharacterOffsetBegin
p277
V56
p278
sVPartOfSpeech
p279
VVBD
p280
sVLemma
p281
Vbe
p282
saa(lp283
Vmaking
p284
a(dp285
VNamedEntityTag
p286
g82
sVCharacterOffsetEnd
p287
V66
p288
sVCharacterOffsetBegin
p289
V60
p290
sVPartOfSpeech
p291
VVBG
p292
sVLemma
p293
Vmake
p294
saa(lp295
Vbouquets
p296
a(dp297
VNamedEntityTag
p298
g82
sVCharacterOffsetEnd
p299
V75
p300
sVCharacterOffsetBegin
p301
V67
p302
sVPartOfSpeech
p303
VNNS
p304
sVLemma
p305
Vbouquet
p306
saa(lp307
Vwith
p308
a(dp309
VNamedEntityTag
p310
g82
sVCharacterOffsetEnd
p311
V80
p312
sVCharacterOffsetBegin
p313
V76
p314
sVPartOfSpeech
p315
VIN
p316
sVLemma
p317
Vwith
p318
saa(lp319
g244
a(dp320
VNormalizedNamedEntityTag
p321
V5.0
p322
sVLemma
p323
g244
sVCharacterOffsetEnd
p324
V82
p325
sVPartOfSpeech
p326
VCD
p327
sVCharacterOffsetBegin
p328
V81
p329
sVNamedEntityTag
p330
VNUMBER
p331
saa(lp332
Vflowers
p333
a(dp334
VNamedEntityTag
p335
g82
sVCharacterOffsetEnd
p336
V90
p337
sVCharacterOffsetBegin
p338
V83
p339
sVPartOfSpeech
p340
VNNS
p341
sVLemma
p342
Vflower
p343
saa(lp344
Vin
p345
a(dp346
VNamedEntityTag
p347
g82
sVCharacterOffsetEnd
p348
V93
p349
sVCharacterOffsetBegin
p350
V91
p351
sVPartOfSpeech
p352
VIN
p353
sVLemma
p354
Vin
p355
saa(lp356
Veach
p357
a(dp358
VNamedEntityTag
p359
g82
sVCharacterOffsetEnd
p360
V98
p361
sVCharacterOffsetBegin
p362
V94
p363
sVPartOfSpeech
p364
VDT
p365
sVLemma
p366
Veach
p367
saa(lp368
Vone
p369
a(dp370
VNormalizedNamedEntityTag
p371
V1.0
p372
sVLemma
p373
Vone
p374
sVCharacterOffsetEnd
p375
V102
p376
sVPartOfSpeech
p377
VCD
p378
sVCharacterOffsetBegin
p379
V99
p380
sVNamedEntityTag
p381
VNUMBER
p382
saa(lp383
g179
a(dp384
VNamedEntityTag
p385
g82
sVCharacterOffsetEnd
p386
V104
p387
sVCharacterOffsetBegin
p388
V103
p389
sVPartOfSpeech
p390
g179
sVLemma
p391
g179
saasVindexeddependencies
p392
(lp393
(lp394
Vroot
p395
aVROOT-0
p396
aVmaking-3
p397
aa(lp398
Vnsubj
p399
aVmaking-3
p400
aVShe-1
p401
aa(lp402
Vaux
p403
aVmaking-3
p404
aVwas-2
p405
aa(lp406
Vdobj
p407
aVmaking-3
p408
aVbouquets-4
p409
aa(lp410
Vnum
p411
aVflowers-7
p412
aV5-6
p413
aa(lp414
Vprep_with
p415
aVmaking-3
p416
aVflowers-7
p417
aa(lp418
Vdet
p419
aVone-10
p420
aVeach-9
p421
aa(lp422
Vprep_in
p423
aVflowers-7
p424
aVone-10
p425
aasa(dp426
Vparsetree
p427
V(ROOT (SBARQ (SBAR (IN If) (S (NP (NP (CD 35)) (PP (IN of) (NP (DT the) (NNS flowers)))) (VP (VBN wilted) (PP (IN before) (NP (DT the) (NN wedding)))))) (, ,) (WHADVP (WRB how) (NP (JJ many) (NNS bouquets))) (SQ (MD could) (NP (PRP she)) (VP (ADVP (RB still)) (VB make))) (. ?)))
p428
sVtext
p429
VIf 35 of the flowers wilted before the wedding , how many bouquets could she still make ?
p430
sVdependencies
p431
(lp432
(lp433
Vroot
p434
aVROOT
p435
aVmake
p436
aa(lp437
Vmark
p438
aVwilted
p439
aVIf
p440
aa(lp441
Vnsubj
p442
aVwilted
p443
aV35
p444
aa(lp445
Vdet
p446
aVflowers
p447
aVthe
p448
aa(lp449
Vprep_of
p450
aV35
p451
aVflowers
p452
aa(lp453
Vadvcl
p454
aVmake
p455
aVwilted
p456
aa(lp457
Vdet
p458
aVwedding
p459
aVthe
p460
aa(lp461
Vprep_before
p462
aVwilted
p463
aVwedding
p464
aa(lp465
Vadvmod
p466
aVmake
p467
aVhow
p468
aa(lp469
Vamod
p470
aVbouquets
p471
aVmany
p472
aa(lp473
Vdep
p474
aVhow
p475
aVbouquets
p476
aa(lp477
Vaux
p478
aVmake
p479
aVcould
p480
aa(lp481
Vnsubj
p482
aVmake
p483
aVshe
p484
aa(lp485
Vadvmod
p486
aVmake
p487
aVstill
p488
aasVwords
p489
(lp490
(lp491
VIf
p492
a(dp493
VNamedEntityTag
p494
g82
sVCharacterOffsetEnd
p495
V107
p496
sVCharacterOffsetBegin
p497
V105
p498
sVPartOfSpeech
p499
VIN
p500
sVLemma
p501
Vif
p502
saa(lp503
V35
p504
a(dp505
VNormalizedNamedEntityTag
p506
V35.0
p507
sVLemma
p508
V35
p509
sVCharacterOffsetEnd
p510
V110
p511
sVPartOfSpeech
p512
VCD
p513
sVCharacterOffsetBegin
p514
V108
p515
sVNamedEntityTag
p516
VNUMBER
p517
saa(lp518
Vof
p519
a(dp520
VNamedEntityTag
p521
g82
sVCharacterOffsetEnd
p522
V113
p523
sVCharacterOffsetBegin
p524
V111
p525
sVPartOfSpeech
p526
VIN
p527
sVLemma
p528
Vof
p529
saa(lp530
Vthe
p531
a(dp532
VNamedEntityTag
p533
g82
sVCharacterOffsetEnd
p534
V117
p535
sVCharacterOffsetBegin
p536
V114
p537
sVPartOfSpeech
p538
VDT
p539
sVLemma
p540
Vthe
p541
saa(lp542
Vflowers
p543
a(dp544
VNamedEntityTag
p545
g82
sVCharacterOffsetEnd
p546
V125
p547
sVCharacterOffsetBegin
p548
V118
p549
sVPartOfSpeech
p550
VNNS
p551
sVLemma
p552
Vflower
p553
saa(lp554
Vwilted
p555
a(dp556
VNamedEntityTag
p557
g82
sVCharacterOffsetEnd
p558
V132
p559
sVCharacterOffsetBegin
p560
V126
p561
sVPartOfSpeech
p562
VVBN
p563
sVLemma
p564
Vwilt
p565
saa(lp566
Vbefore
p567
a(dp568
VNamedEntityTag
p569
g82
sVCharacterOffsetEnd
p570
V139
p571
sVCharacterOffsetBegin
p572
V133
p573
sVPartOfSpeech
p574
VIN
p575
sVLemma
p576
Vbefore
p577
saa(lp578
Vthe
p579
a(dp580
VNamedEntityTag
p581
g82
sVCharacterOffsetEnd
p582
V143
p583
sVCharacterOffsetBegin
p584
V140
p585
sVPartOfSpeech
p586
VDT
p587
sVLemma
p588
Vthe
p589
saa(lp590
Vwedding
p591
a(dp592
VNamedEntityTag
p593
g82
sVCharacterOffsetEnd
p594
V151
p595
sVCharacterOffsetBegin
p596
V144
p597
sVPartOfSpeech
p598
VNN
p599
sVLemma
p600
Vwedding
p601
saa(lp602
V,
p603
a(dp604
VNamedEntityTag
p605
g82
sVCharacterOffsetEnd
p606
V153
p607
sVCharacterOffsetBegin
p608
V152
p609
sVPartOfSpeech
p610
g603
sVLemma
p611
g603
saa(lp612
Vhow
p613
a(dp614
VNamedEntityTag
p615
g82
sVCharacterOffsetEnd
p616
V157
p617
sVCharacterOffsetBegin
p618
V154
p619
sVPartOfSpeech
p620
VWRB
p621
sVLemma
p622
Vhow
p623
saa(lp624
Vmany
p625
a(dp626
VNamedEntityTag
p627
g82
sVCharacterOffsetEnd
p628
V162
p629
sVCharacterOffsetBegin
p630
V158
p631
sVPartOfSpeech
p632
VJJ
p633
sVLemma
p634
Vmany
p635
saa(lp636
Vbouquets
p637
a(dp638
VNamedEntityTag
p639
g82
sVCharacterOffsetEnd
p640
V171
p641
sVCharacterOffsetBegin
p642
V163
p643
sVPartOfSpeech
p644
VNNS
p645
sVLemma
p646
Vbouquet
p647
saa(lp648
Vcould
p649
a(dp650
VNamedEntityTag
p651
g82
sVCharacterOffsetEnd
p652
V177
p653
sVCharacterOffsetBegin
p654
V172
p655
sVPartOfSpeech
p656
VMD
p657
sVLemma
p658
Vcould
p659
saa(lp660
Vshe
p661
a(dp662
VNamedEntityTag
p663
g82
sVCharacterOffsetEnd
p664
V181
p665
sVCharacterOffsetBegin
p666
V178
p667
sVPartOfSpeech
p668
VPRP
p669
sVLemma
p670
Vshe
p671
saa(lp672
Vstill
p673
a(dp674
VNamedEntityTag
p675
g82
sVCharacterOffsetEnd
p676
V187
p677
sVCharacterOffsetBegin
p678
V182
p679
sVPartOfSpeech
p680
VRB
p681
sVLemma
p682
Vstill
p683
saa(lp684
Vmake
p685
a(dp686
VNamedEntityTag
p687
g82
sVCharacterOffsetEnd
p688
V192
p689
sVCharacterOffsetBegin
p690
V188
p691
sVPartOfSpeech
p692
VVB
p693
sVLemma
p694
Vmake
p695
saa(lp696
V?
p697
a(dp698
VNamedEntityTag
p699
g82
sVCharacterOffsetEnd
p700
V194
p701
sVCharacterOffsetBegin
p702
V193
p703
sVPartOfSpeech
p704
g179
sVLemma
p705
g697
saasVindexeddependencies
p706
(lp707
(lp708
Vroot
p709
aVROOT-0
p710
aVmake-17
p711
aa(lp712
Vmark
p713
aVwilted-6
p714
aVIf-1
p715
aa(lp716
Vnsubj
p717
aVwilted-6
p718
aV35-2
p719
aa(lp720
Vdet
p721
aVflowers-5
p722
aVthe-4
p723
aa(lp724
Vprep_of
p725
aV35-2
p726
aVflowers-5
p727
aa(lp728
Vadvcl
p729
aVmake-17
p730
aVwilted-6
p731
aa(lp732
Vdet
p733
aVwedding-9
p734
aVthe-8
p735
aa(lp736
Vprep_before
p737
aVwilted-6
p738
aVwedding-9
p739
aa(lp740
Vadvmod
p741
aVmake-17
p742
aVhow-11
p743
aa(lp744
Vamod
p745
aVbouquets-13
p746
aVmany-12
p747
aa(lp748
Vdep
p749
aVhow-11
p750
aVbouquets-13
p751
aa(lp752
Vaux
p753
aVmake-17
p754
aVcould-14
p755
aa(lp756
Vnsubj
p757
aVmake-17
p758
aVshe-15
p759
aa(lp760
Vadvmod
p761
aVmake-17
p762
aVstill-16
p763
aasas.