(dp0
Vcoref
p1
(lp2
(lp3
(lp4
(lp5
Vthe wedding
p6
aI2
aI8
aI7
aI9
aa(lp7
Vher friend 's wedding
p8
aI0
aI8
aI5
aI9
aaaa(lp9
(lp10
(lp11
VShe
p12
aI1
aI0
aI0
aI1
aa(lp13
Vher friend 's
p14
aI0
aI6
aI5
aI8
aaa(lp15
(lp16
Vshe
p17
aI2
aI14
aI14
aI15
aa(lp18
Vher friend 's
p19
aI0
aI6
aI5
aI8
aaaa(lp20
(lp21
(lp22
Vthe flowers
p23
aI2
aI4
aI3
aI5
aa(lp24
V7 flowers in each one
p25
aI1
aI6
aI5
aI10
aaaasVsentences
p26
(lp27
(dp28
Vparsetree
p29
V(ROOT (S (NP (NNP Paige)) (VP (VBD picked) (NP (NP (CD 53) (NNS flowers)) (PP (IN for) (NP (NP (PRP$ her) (NN friend) (POS 's)) (NN wedding))))) (. .)))
p30
sVtext
p31
VPaige picked 53 flowers for her friend\u2019s wedding .
p32
sVdependencies
p33
(lp34
(lp35
Vroot
p36
aVROOT
p37
aVpicked
p38
aa(lp39
Vnsubj
p40
aVpicked
p41
aVPaige
p42
aa(lp43
Vnum
p44
aVflowers
p45
aV53
p46
aa(lp47
Vdobj
p48
aVpicked
p49
aVflowers
p50
aa(lp51
Vposs
p52
aVfriend
p53
aVher
p54
aa(lp55
Vposs
p56
aVwedding
p57
aVfriend
p58
aa(lp59
Vprep_for
p60
aVflowers
p61
aVwedding
p62
aasVwords
p63
(lp64
(lp65
VPaige
p66
a(dp67
VNamedEntityTag
p68
VPERSON
p69
sVCharacterOffsetEnd
p70
V6
p71
sVCharacterOffsetBegin
p72
V1
p73
sVPartOfSpeech
p74
VNNP
p75
sVLemma
p76
VPaige
p77
saa(lp78
Vpicked
p79
a(dp80
VNamedEntityTag
p81
VO
p82
sVCharacterOffsetEnd
p83
V13
p84
sVCharacterOffsetBegin
p85
V7
p86
sVPartOfSpeech
p87
VVBD
p88
sVLemma
p89
Vpick
p90
saa(lp91
V53
p92
a(dp93
VNormalizedNamedEntityTag
p94
V53.0
p95
sVLemma
p96
V53
p97
sVCharacterOffsetEnd
p98
V16
p99
sVPartOfSpeech
p100
VCD
p101
sVCharacterOffsetBegin
p102
V14
p103
sVNamedEntityTag
p104
VNUMBER
p105
saa(lp106
Vflowers
p107
a(dp108
VNamedEntityTag
p109
g82
sVCharacterOffsetEnd
p110
V24
p111
sVCharacterOffsetBegin
p112
V17
p113
sVPartOfSpeech
p114
VNNS
p115
sVLemma
p116
Vflower
p117
saa(lp118
Vfor
p119
a(dp120
VNamedEntityTag
p121
g82
sVCharacterOffsetEnd
p122
V28
p123
sVCharacterOffsetBegin
p124
V25
p125
sVPartOfSpeech
p126
VIN
p127
sVLemma
p128
Vfor
p129
saa(lp130
Vher
p131
a(dp132
VNamedEntityTag
p133
g82
sVCharacterOffsetEnd
p134
V32
p135
sVCharacterOffsetBegin
p136
V29
p137
sVPartOfSpeech
p138
VPRP$
p139
sVLemma
p140
Vshe
p141
saa(lp142
Vfriend
p143
a(dp144
VNamedEntityTag
p145
g82
sVCharacterOffsetEnd
p146
V39
p147
sVCharacterOffsetBegin
p148
V33
p149
sVPartOfSpeech
p150
VNN
p151
sVLemma
p152
Vfriend
p153
saa(lp154
V's
p155
a(dp156
VNamedEntityTag
p157
g82
sVCharacterOffsetEnd
p158
V41
p159
sVCharacterOffsetBegin
p160
V39
p161
sVPartOfSpeech
p162
VPOS
p163
sVLemma
p164
V's
p165
saa(lp166
Vwedding
p167
a(dp168
VNamedEntityTag
p169
g82
sVCharacterOffsetEnd
p170
V49
p171
sVCharacterOffsetBegin
p172
V42
p173
sVPartOfSpeech
p174
VNN
p175
sVLemma
p176
Vwedding
p177
saa(lp178
V.
p179
a(dp180
VNamedEntityTag
p181
g82
sVCharacterOffsetEnd
p182
V51
p183
sVCharacterOffsetBegin
p184
V50
p185
sVPartOfSpeech
p186
g179
sVLemma
p187
g179
saasVindexeddependencies
p188
(lp189
(lp190
Vroot
p191
aVROOT-0
p192
aVpicked-2
p193
aa(lp194
Vnsubj
p195
aVpicked-2
p196
aVPaige-1
p197
aa(lp198
Vnum
p199
aVflowers-4
p200
aV53-3
p201
aa(lp202
Vdobj
p203
aVpicked-2
p204
aVflowers-4
p205
aa(lp206
Vposs
p207
aVfriend-7
p208
aVher-6
p209
aa(lp210
Vposs
p211
aVwedding-9
p212
aVfriend-7
p213
aa(lp214
Vprep_for
p215
aVflowers-4
p216
aVwedding-9
p217
aasa(dp218
Vparsetree
p219
V(ROOT (S (NP (PRP She)) (VP (VBD was) (VP (VBG making) (NP (NNS bouquets)) (PP (IN with) (NP (NP (CD 7) (NNS flowers)) (PP (IN in) (NP (DT each) (CD one))))))) (. .)))
p220
sVtext
p221
VShe was making bouquets with 7 flowers in each one .
p222
sVdependencies
p223
(lp224
(lp225
Vroot
p226
aVROOT
p227
aVmaking
p228
aa(lp229
Vnsubj
p230
aVmaking
p231
aVShe
p232
aa(lp233
Vaux
p234
aVmaking
p235
aVwas
p236
aa(lp237
Vdobj
p238
aVmaking
p239
aVbouquets
p240
aa(lp241
Vnum
p242
aVflowers
p243
ag86
aa(lp244
Vprep_with
p245
aVmaking
p246
aVflowers
p247
aa(lp248
Vdet
p249
aVone
p250
aVeach
p251
aa(lp252
Vprep_in
p253
aVflowers
p254
aVone
p255
aasVwords
p256
(lp257
(lp258
VShe
p259
a(dp260
VNamedEntityTag
p261
g82
sVCharacterOffsetEnd
p262
V55
p263
sVCharacterOffsetBegin
p264
V52
p265
sVPartOfSpeech
p266
VPRP
p267
sVLemma
p268
Vshe
p269
saa(lp270
Vwas
p271
a(dp272
VNamedEntityTag
p273
g82
sVCharacterOffsetEnd
p274
V59
p275
sVCharacterOffsetBegin
p276
V56
p277
sVPartOfSpeech
p278
VVBD
p279
sVLemma
p280
Vbe
p281
saa(lp282
Vmaking
p283
a(dp284
VNamedEntityTag
p285
g82
sVCharacterOffsetEnd
p286
V66
p287
sVCharacterOffsetBegin
p288
V60
p289
sVPartOfSpeech
p290
VVBG
p291
sVLemma
p292
Vmake
p293
saa(lp294
Vbouquets
p295
a(dp296
VNamedEntityTag
p297
g82
sVCharacterOffsetEnd
p298
V75
p299
sVCharacterOffsetBegin
p300
V67
p301
sVPartOfSpeech
p302
VNNS
p303
sVLemma
p304
Vbouquet
p305
saa(lp306
Vwith
p307
a(dp308
VNamedEntityTag
p309
g82
sVCharacterOffsetEnd
p310
V80
p311
sVCharacterOffsetBegin
p312
V76
p313
sVPartOfSpeech
p314
VIN
p315
sVLemma
p316
Vwith
p317
saa(lp318
g86
a(dp319
VNormalizedNamedEntityTag
p320
V7.0
p321
sVLemma
p322
g86
sVCharacterOffsetEnd
p323
V82
p324
sVPartOfSpeech
p325
VCD
p326
sVCharacterOffsetBegin
p327
V81
p328
sVNamedEntityTag
p329
VNUMBER
p330
saa(lp331
Vflowers
p332
a(dp333
VNamedEntityTag
p334
g82
sVCharacterOffsetEnd
p335
V90
p336
sVCharacterOffsetBegin
p337
V83
p338
sVPartOfSpeech
p339
VNNS
p340
sVLemma
p341
Vflower
p342
saa(lp343
Vin
p344
a(dp345
VNamedEntityTag
p346
g82
sVCharacterOffsetEnd
p347
V93
p348
sVCharacterOffsetBegin
p349
V91
p350
sVPartOfSpeech
p351
VIN
p352
sVLemma
p353
Vin
p354
saa(lp355
Veach
p356
a(dp357
VNamedEntityTag
p358
g82
sVCharacterOffsetEnd
p359
V98
p360
sVCharacterOffsetBegin
p361
V94
p362
sVPartOfSpeech
p363
VDT
p364
sVLemma
p365
Veach
p366
saa(lp367
Vone
p368
a(dp369
VNormalizedNamedEntityTag
p370
V1.0
p371
sVLemma
p372
Vone
p373
sVCharacterOffsetEnd
p374
V102
p375
sVPartOfSpeech
p376
VCD
p377
sVCharacterOffsetBegin
p378
V99
p379
sVNamedEntityTag
p380
VNUMBER
p381
saa(lp382
g179
a(dp383
VNamedEntityTag
p384
g82
sVCharacterOffsetEnd
p385
V104
p386
sVCharacterOffsetBegin
p387
V103
p388
sVPartOfSpeech
p389
g179
sVLemma
p390
g179
saasVindexeddependencies
p391
(lp392
(lp393
Vroot
p394
aVROOT-0
p395
aVmaking-3
p396
aa(lp397
Vnsubj
p398
aVmaking-3
p399
aVShe-1
p400
aa(lp401
Vaux
p402
aVmaking-3
p403
aVwas-2
p404
aa(lp405
Vdobj
p406
aVmaking-3
p407
aVbouquets-4
p408
aa(lp409
Vnum
p410
aVflowers-7
p411
aV7-6
p412
aa(lp413
Vprep_with
p414
aVmaking-3
p415
aVflowers-7
p416
aa(lp417
Vdet
p418
aVone-10
p419
aVeach-9
p420
aa(lp421
Vprep_in
p422
aVflowers-7
p423
aVone-10
p424
aasa(dp425
Vparsetree
p426
V(ROOT (SBARQ (SBAR (IN If) (S (NP (NP (CD 18)) (PP (IN of) (NP (DT the) (NNS flowers)))) (VP (VBN wilted) (PP (IN before) (NP (DT the) (NN wedding)))))) (, ,) (WHADVP (WRB how) (NP (JJ many) (NNS bouquets))) (SQ (MD could) (NP (PRP she)) (VP (ADVP (RB still)) (VB make))) (. ?)))
p427
sVtext
p428
VIf 18 of the flowers wilted before the wedding , how many bouquets could she still make ?
p429
sVdependencies
p430
(lp431
(lp432
Vroot
p433
aVROOT
p434
aVmake
p435
aa(lp436
Vmark
p437
aVwilted
p438
aVIf
p439
aa(lp440
Vnsubj
p441
aVwilted
p442
aV18
p443
aa(lp444
Vdet
p445
aVflowers
p446
aVthe
p447
aa(lp448
Vprep_of
p449
aV18
p450
aVflowers
p451
aa(lp452
Vadvcl
p453
aVmake
p454
aVwilted
p455
aa(lp456
Vdet
p457
aVwedding
p458
aVthe
p459
aa(lp460
Vprep_before
p461
aVwilted
p462
aVwedding
p463
aa(lp464
Vadvmod
p465
aVmake
p466
aVhow
p467
aa(lp468
Vamod
p469
aVbouquets
p470
aVmany
p471
aa(lp472
Vdep
p473
aVhow
p474
aVbouquets
p475
aa(lp476
Vaux
p477
aVmake
p478
aVcould
p479
aa(lp480
Vnsubj
p481
aVmake
p482
aVshe
p483
aa(lp484
Vadvmod
p485
aVmake
p486
aVstill
p487
aasVwords
p488
(lp489
(lp490
VIf
p491
a(dp492
VNamedEntityTag
p493
g82
sVCharacterOffsetEnd
p494
V107
p495
sVCharacterOffsetBegin
p496
V105
p497
sVPartOfSpeech
p498
VIN
p499
sVLemma
p500
Vif
p501
saa(lp502
V18
p503
a(dp504
VNormalizedNamedEntityTag
p505
V18.0
p506
sVLemma
p507
V18
p508
sVCharacterOffsetEnd
p509
V110
p510
sVPartOfSpeech
p511
VCD
p512
sVCharacterOffsetBegin
p513
V108
p514
sVNamedEntityTag
p515
VNUMBER
p516
saa(lp517
Vof
p518
a(dp519
VNamedEntityTag
p520
g82
sVCharacterOffsetEnd
p521
V113
p522
sVCharacterOffsetBegin
p523
V111
p524
sVPartOfSpeech
p525
VIN
p526
sVLemma
p527
Vof
p528
saa(lp529
Vthe
p530
a(dp531
VNamedEntityTag
p532
g82
sVCharacterOffsetEnd
p533
V117
p534
sVCharacterOffsetBegin
p535
V114
p536
sVPartOfSpeech
p537
VDT
p538
sVLemma
p539
Vthe
p540
saa(lp541
Vflowers
p542
a(dp543
VNamedEntityTag
p544
g82
sVCharacterOffsetEnd
p545
V125
p546
sVCharacterOffsetBegin
p547
V118
p548
sVPartOfSpeech
p549
VNNS
p550
sVLemma
p551
Vflower
p552
saa(lp553
Vwilted
p554
a(dp555
VNamedEntityTag
p556
g82
sVCharacterOffsetEnd
p557
V132
p558
sVCharacterOffsetBegin
p559
V126
p560
sVPartOfSpeech
p561
VVBN
p562
sVLemma
p563
Vwilt
p564
saa(lp565
Vbefore
p566
a(dp567
VNamedEntityTag
p568
g82
sVCharacterOffsetEnd
p569
V139
p570
sVCharacterOffsetBegin
p571
V133
p572
sVPartOfSpeech
p573
VIN
p574
sVLemma
p575
Vbefore
p576
saa(lp577
Vthe
p578
a(dp579
VNamedEntityTag
p580
g82
sVCharacterOffsetEnd
p581
V143
p582
sVCharacterOffsetBegin
p583
V140
p584
sVPartOfSpeech
p585
VDT
p586
sVLemma
p587
Vthe
p588
saa(lp589
Vwedding
p590
a(dp591
VNamedEntityTag
p592
g82
sVCharacterOffsetEnd
p593
V151
p594
sVCharacterOffsetBegin
p595
V144
p596
sVPartOfSpeech
p597
VNN
p598
sVLemma
p599
Vwedding
p600
saa(lp601
V,
p602
a(dp603
VNamedEntityTag
p604
g82
sVCharacterOffsetEnd
p605
V153
p606
sVCharacterOffsetBegin
p607
V152
p608
sVPartOfSpeech
p609
g602
sVLemma
p610
g602
saa(lp611
Vhow
p612
a(dp613
VNamedEntityTag
p614
g82
sVCharacterOffsetEnd
p615
V157
p616
sVCharacterOffsetBegin
p617
V154
p618
sVPartOfSpeech
p619
VWRB
p620
sVLemma
p621
Vhow
p622
saa(lp623
Vmany
p624
a(dp625
VNamedEntityTag
p626
g82
sVCharacterOffsetEnd
p627
V162
p628
sVCharacterOffsetBegin
p629
V158
p630
sVPartOfSpeech
p631
VJJ
p632
sVLemma
p633
Vmany
p634
saa(lp635
Vbouquets
p636
a(dp637
VNamedEntityTag
p638
g82
sVCharacterOffsetEnd
p639
V171
p640
sVCharacterOffsetBegin
p641
V163
p642
sVPartOfSpeech
p643
VNNS
p644
sVLemma
p645
Vbouquet
p646
saa(lp647
Vcould
p648
a(dp649
VNamedEntityTag
p650
g82
sVCharacterOffsetEnd
p651
V177
p652
sVCharacterOffsetBegin
p653
V172
p654
sVPartOfSpeech
p655
VMD
p656
sVLemma
p657
Vcould
p658
saa(lp659
Vshe
p660
a(dp661
VNamedEntityTag
p662
g82
sVCharacterOffsetEnd
p663
V181
p664
sVCharacterOffsetBegin
p665
V178
p666
sVPartOfSpeech
p667
VPRP
p668
sVLemma
p669
Vshe
p670
saa(lp671
Vstill
p672
a(dp673
VNamedEntityTag
p674
g82
sVCharacterOffsetEnd
p675
V187
p676
sVCharacterOffsetBegin
p677
V182
p678
sVPartOfSpeech
p679
VRB
p680
sVLemma
p681
Vstill
p682
saa(lp683
Vmake
p684
a(dp685
VNamedEntityTag
p686
g82
sVCharacterOffsetEnd
p687
V192
p688
sVCharacterOffsetBegin
p689
V188
p690
sVPartOfSpeech
p691
VVB
p692
sVLemma
p693
Vmake
p694
saa(lp695
V?
p696
a(dp697
VNamedEntityTag
p698
g82
sVCharacterOffsetEnd
p699
V194
p700
sVCharacterOffsetBegin
p701
V193
p702
sVPartOfSpeech
p703
g179
sVLemma
p704
g696
saasVindexeddependencies
p705
(lp706
(lp707
Vroot
p708
aVROOT-0
p709
aVmake-17
p710
aa(lp711
Vmark
p712
aVwilted-6
p713
aVIf-1
p714
aa(lp715
Vnsubj
p716
aVwilted-6
p717
aV18-2
p718
aa(lp719
Vdet
p720
aVflowers-5
p721
aVthe-4
p722
aa(lp723
Vprep_of
p724
aV18-2
p725
aVflowers-5
p726
aa(lp727
Vadvcl
p728
aVmake-17
p729
aVwilted-6
p730
aa(lp731
Vdet
p732
aVwedding-9
p733
aVthe-8
p734
aa(lp735
Vprep_before
p736
aVwilted-6
p737
aVwedding-9
p738
aa(lp739
Vadvmod
p740
aVmake-17
p741
aVhow-11
p742
aa(lp743
Vamod
p744
aVbouquets-13
p745
aVmany-12
p746
aa(lp747
Vdep
p748
aVhow-11
p749
aVbouquets-13
p750
aa(lp751
Vaux
p752
aVmake-17
p753
aVcould-14
p754
aa(lp755
Vnsubj
p756
aVmake-17
p757
aVshe-15
p758
aa(lp759
Vadvmod
p760
aVmake-17
p761
aVstill-16
p762
aasas.