(dp0
Vcoref
p1
(lp2
(lp3
(lp4
(lp5
Vhis
p6
aI0
aI6
aI6
aI7
aa(lp7
VA waiter
p8
aI0
aI1
aI0
aI2
aaa(lp9
(lp10
Vhis
p11
aI1
aI9
aI9
aI10
aa(lp12
VA waiter
p13
aI0
aI1
aI0
aI2
aaa(lp14
(lp15
Vhe
p16
aI1
aI22
aI22
aI23
aa(lp17
VA waiter
p18
aI0
aI1
aI0
aI2
aaaa(lp19
(lp20
(lp21
Vthem
p22
aI1
aI3
aI3
aI4
aa(lp23
V22 customers in his section
p24
aI0
aI4
aI3
aI8
aaaasVsentences
p25
(lp26
(dp27
Vparsetree
p28
V(ROOT (S (NP (DT A) (NN waiter)) (VP (VBD had) (NP (NP (CD 22) (NNS customers)) (PP (IN in) (NP (PRP$ his) (NN section))))) (. .)))
p29
sVtext
p30
VA waiter had 22 customers in his section .
p31
sVdependencies
p32
(lp33
(lp34
Vroot
p35
aVROOT
p36
aVhad
p37
aa(lp38
Vdet
p39
aVwaiter
p40
aVA
p41
aa(lp42
Vnsubj
p43
aVhad
p44
aVwaiter
p45
aa(lp46
Vnum
p47
aVcustomers
p48
aV22
p49
aa(lp50
Vdobj
p51
aVhad
p52
aVcustomers
p53
aa(lp54
Vposs
p55
aVsection
p56
aVhis
p57
aa(lp58
Vprep_in
p59
aVcustomers
p60
aVsection
p61
aasVwords
p62
(lp63
(lp64
g41
a(dp65
VNamedEntityTag
p66
VO
p67
sVCharacterOffsetEnd
p68
V2
p69
sVCharacterOffsetBegin
p70
V1
p71
sVPartOfSpeech
p72
VDT
p73
sVLemma
p74
Va
p75
saa(lp76
Vwaiter
p77
a(dp78
VNamedEntityTag
p79
g67
sVCharacterOffsetEnd
p80
V9
p81
sVCharacterOffsetBegin
p82
V3
p83
sVPartOfSpeech
p84
VNN
p85
sVLemma
p86
Vwaiter
p87
saa(lp88
Vhad
p89
a(dp90
VNamedEntityTag
p91
g67
sVCharacterOffsetEnd
p92
V13
p93
sVCharacterOffsetBegin
p94
V10
p95
sVPartOfSpeech
p96
VVBD
p97
sVLemma
p98
Vhave
p99
saa(lp100
V22
p101
a(dp102
VNormalizedNamedEntityTag
p103
V22.0
p104
sVLemma
p105
V22
p106
sVCharacterOffsetEnd
p107
V16
p108
sVPartOfSpeech
p109
VCD
p110
sVCharacterOffsetBegin
p111
V14
p112
sVNamedEntityTag
p113
VNUMBER
p114
saa(lp115
Vcustomers
p116
a(dp117
VNamedEntityTag
p118
g67
sVCharacterOffsetEnd
p119
V26
p120
sVCharacterOffsetBegin
p121
V17
p122
sVPartOfSpeech
p123
VNNS
p124
sVLemma
p125
Vcustomer
p126
saa(lp127
Vin
p128
a(dp129
VNamedEntityTag
p130
g67
sVCharacterOffsetEnd
p131
V29
p132
sVCharacterOffsetBegin
p133
V27
p134
sVPartOfSpeech
p135
VIN
p136
sVLemma
p137
Vin
p138
saa(lp139
Vhis
p140
a(dp141
VNamedEntityTag
p142
g67
sVCharacterOffsetEnd
p143
V33
p144
sVCharacterOffsetBegin
p145
V30
p146
sVPartOfSpeech
p147
VPRP$
p148
sVLemma
p149
Vhe
p150
saa(lp151
Vsection
p152
a(dp153
VNamedEntityTag
p154
g67
sVCharacterOffsetEnd
p155
V41
p156
sVCharacterOffsetBegin
p157
V34
p158
sVPartOfSpeech
p159
VNN
p160
sVLemma
p161
Vsection
p162
saa(lp163
V.
p164
a(dp165
VNamedEntityTag
p166
g67
sVCharacterOffsetEnd
p167
V43
p168
sVCharacterOffsetBegin
p169
V42
p170
sVPartOfSpeech
p171
g164
sVLemma
p172
g164
saasVindexeddependencies
p173
(lp174
(lp175
Vroot
p176
aVROOT-0
p177
aVhad-3
p178
aa(lp179
Vdet
p180
aVwaiter-2
p181
aVA-1
p182
aa(lp183
Vnsubj
p184
aVhad-3
p185
aVwaiter-2
p186
aa(lp187
Vnum
p188
aVcustomers-5
p189
aV22-4
p190
aa(lp191
Vdobj
p192
aVhad-3
p193
aVcustomers-5
p194
aa(lp195
Vposs
p196
aVsection-8
p197
aVhis-7
p198
aa(lp199
Vprep_in
p200
aVcustomers-5
p201
aVsection-8
p202
aasa(dp203
Vparsetree
p204
V(ROOT (SBARQ (SBAR (IN If) (S (S (NP (NP (CD 14)) (PP (IN of) (NP (PRP them)))) (VP (VBD left))) (CC and) (S (NP (NP (DT the) (NN rest)) (PP (IN of) (NP (PRP$ his) (NNS tables)))) (VP (VBD had) (NP (NP (CD 4) (NNS people)) (PP (IN at) (NP (DT each) (NN table)))))))) (, ,) (WHNP (WHADJP (WRB how) (JJ many)) (NNS tables)) (SQ (VBD did) (NP (PRP he)) (VP (VB have))) (. ?)))
p205
sVtext
p206
VIf 14 of them left and the rest of his tables had 4 people at each table , how many tables did he have ?
p207
sVdependencies
p208
(lp209
(lp210
Vroot
p211
aVROOT
p212
aVhave
p213
aa(lp214
Vmark
p215
aVleft
p216
aVIf
p217
aa(lp218
Vnsubj
p219
aVleft
p220
aV14
p221
aa(lp222
Vprep_of
p223
aV14
p224
aVthem
p225
aa(lp226
Vadvcl
p227
aVhave
p228
aVleft
p229
aa(lp230
Vdet
p231
aVrest
p232
aVthe
p233
aa(lp234
Vnsubj
p235
aVhad
p236
aVrest
p237
aa(lp238
Vposs
p239
aVtables
p240
aVhis
p241
aa(lp242
Vprep_of
p243
aVrest
p244
aVtables
p245
aa(lp246
Vconj_and
p247
aVleft
p248
aVhad
p249
aa(lp250
Vnum
p251
aVpeople
p252
aV4
p253
aa(lp254
Vdobj
p255
aVhad
p256
aVpeople
p257
aa(lp258
Vdet
p259
aVtable
p260
aVeach
p261
aa(lp262
Vprep_at
p263
aVpeople
p264
aVtable
p265
aa(lp266
Vadvmod
p267
aVmany
p268
aVhow
p269
aa(lp270
Vamod
p271
aVtables
p272
aVmany
p273
aa(lp274
Vdobj
p275
aVhave
p276
aVtables
p277
aa(lp278
Vaux
p279
aVhave
p280
aVdid
p281
aa(lp282
Vnsubj
p283
aVhave
p284
aVhe
p285
aasVwords
p286
(lp287
(lp288
VIf
p289
a(dp290
VNamedEntityTag
p291
g67
sVCharacterOffsetEnd
p292
V46
p293
sVCharacterOffsetBegin
p294
V44
p295
sVPartOfSpeech
p296
VIN
p297
sVLemma
p298
Vif
p299
saa(lp300
V14
p301
a(dp302
VNormalizedNamedEntityTag
p303
V14.0
p304
sVLemma
p305
V14
p306
sVCharacterOffsetEnd
p307
V49
p308
sVPartOfSpeech
p309
VCD
p310
sVCharacterOffsetBegin
p311
V47
p312
sVNamedEntityTag
p313
VNUMBER
p314
saa(lp315
Vof
p316
a(dp317
VNamedEntityTag
p318
g67
sVCharacterOffsetEnd
p319
V52
p320
sVCharacterOffsetBegin
p321
V50
p322
sVPartOfSpeech
p323
VIN
p324
sVLemma
p325
Vof
p326
saa(lp327
Vthem
p328
a(dp329
VNamedEntityTag
p330
g67
sVCharacterOffsetEnd
p331
V57
p332
sVCharacterOffsetBegin
p333
V53
p334
sVPartOfSpeech
p335
VPRP
p336
sVLemma
p337
Vthey
p338
saa(lp339
Vleft
p340
a(dp341
VNamedEntityTag
p342
g67
sVCharacterOffsetEnd
p343
V62
p344
sVCharacterOffsetBegin
p345
V58
p346
sVPartOfSpeech
p347
VVBD
p348
sVLemma
p349
Vleave
p350
saa(lp351
Vand
p352
a(dp353
VNamedEntityTag
p354
g67
sVCharacterOffsetEnd
p355
V66
p356
sVCharacterOffsetBegin
p357
V63
p358
sVPartOfSpeech
p359
VCC
p360
sVLemma
p361
Vand
p362
saa(lp363
Vthe
p364
a(dp365
VNamedEntityTag
p366
g67
sVCharacterOffsetEnd
p367
V70
p368
sVCharacterOffsetBegin
p369
V67
p370
sVPartOfSpeech
p371
VDT
p372
sVLemma
p373
Vthe
p374
saa(lp375
Vrest
p376
a(dp377
VNamedEntityTag
p378
g67
sVCharacterOffsetEnd
p379
V75
p380
sVCharacterOffsetBegin
p381
V71
p382
sVPartOfSpeech
p383
VNN
p384
sVLemma
p385
Vrest
p386
saa(lp387
Vof
p388
a(dp389
VNamedEntityTag
p390
g67
sVCharacterOffsetEnd
p391
V78
p392
sVCharacterOffsetBegin
p393
V76
p394
sVPartOfSpeech
p395
VIN
p396
sVLemma
p397
Vof
p398
saa(lp399
Vhis
p400
a(dp401
VNamedEntityTag
p402
g67
sVCharacterOffsetEnd
p403
V82
p404
sVCharacterOffsetBegin
p405
V79
p406
sVPartOfSpeech
p407
VPRP$
p408
sVLemma
p409
Vhe
p410
saa(lp411
Vtables
p412
a(dp413
VNamedEntityTag
p414
g67
sVCharacterOffsetEnd
p415
V89
p416
sVCharacterOffsetBegin
p417
V83
p418
sVPartOfSpeech
p419
VNNS
p420
sVLemma
p421
Vtable
p422
saa(lp423
Vhad
p424
a(dp425
VNamedEntityTag
p426
g67
sVCharacterOffsetEnd
p427
V93
p428
sVCharacterOffsetBegin
p429
V90
p430
sVPartOfSpeech
p431
VVBD
p432
sVLemma
p433
Vhave
p434
saa(lp435
g253
a(dp436
VNormalizedNamedEntityTag
p437
V4.0
p438
sVLemma
p439
g253
sVCharacterOffsetEnd
p440
V95
p441
sVPartOfSpeech
p442
VCD
p443
sVCharacterOffsetBegin
p444
V94
p445
sVNamedEntityTag
p446
VNUMBER
p447
saa(lp448
Vpeople
p449
a(dp450
VNamedEntityTag
p451
g67
sVCharacterOffsetEnd
p452
V102
p453
sVCharacterOffsetBegin
p454
V96
p455
sVPartOfSpeech
p456
VNNS
p457
sVLemma
p458
Vpeople
p459
saa(lp460
Vat
p461
a(dp462
VNamedEntityTag
p463
g67
sVCharacterOffsetEnd
p464
V105
p465
sVCharacterOffsetBegin
p466
V103
p467
sVPartOfSpeech
p468
VIN
p469
sVLemma
p470
Vat
p471
saa(lp472
Veach
p473
a(dp474
VNamedEntityTag
p475
g67
sVCharacterOffsetEnd
p476
V110
p477
sVCharacterOffsetBegin
p478
V106
p479
sVPartOfSpeech
p480
VDT
p481
sVLemma
p482
Veach
p483
saa(lp484
Vtable
p485
a(dp486
VNamedEntityTag
p487
g67
sVCharacterOffsetEnd
p488
V116
p489
sVCharacterOffsetBegin
p490
V111
p491
sVPartOfSpeech
p492
VNN
p493
sVLemma
p494
Vtable
p495
saa(lp496
V,
p497
a(dp498
VNamedEntityTag
p499
g67
sVCharacterOffsetEnd
p500
V118
p501
sVCharacterOffsetBegin
p502
V117
p503
sVPartOfSpeech
p504
g497
sVLemma
p505
g497
saa(lp506
Vhow
p507
a(dp508
VNamedEntityTag
p509
g67
sVCharacterOffsetEnd
p510
V122
p511
sVCharacterOffsetBegin
p512
V119
p513
sVPartOfSpeech
p514
VWRB
p515
sVLemma
p516
Vhow
p517
saa(lp518
Vmany
p519
a(dp520
VNamedEntityTag
p521
g67
sVCharacterOffsetEnd
p522
V127
p523
sVCharacterOffsetBegin
p524
V123
p525
sVPartOfSpeech
p526
VJJ
p527
sVLemma
p528
Vmany
p529
saa(lp530
Vtables
p531
a(dp532
VNamedEntityTag
p533
g67
sVCharacterOffsetEnd
p534
V134
p535
sVCharacterOffsetBegin
p536
V128
p537
sVPartOfSpeech
p538
VNNS
p539
sVLemma
p540
Vtable
p541
saa(lp542
Vdid
p543
a(dp544
VNamedEntityTag
p545
g67
sVCharacterOffsetEnd
p546
V138
p547
sVCharacterOffsetBegin
p548
V135
p549
sVPartOfSpeech
p550
VVBD
p551
sVLemma
p552
Vdo
p553
saa(lp554
Vhe
p555
a(dp556
VNamedEntityTag
p557
g67
sVCharacterOffsetEnd
p558
V141
p559
sVCharacterOffsetBegin
p560
V139
p561
sVPartOfSpeech
p562
VPRP
p563
sVLemma
p564
Vhe
p565
saa(lp566
Vhave
p567
a(dp568
VNamedEntityTag
p569
g67
sVCharacterOffsetEnd
p570
V146
p571
sVCharacterOffsetBegin
p572
V142
p573
sVPartOfSpeech
p574
VVB
p575
sVLemma
p576
Vhave
p577
saa(lp578
V?
p579
a(dp580
VNamedEntityTag
p581
g67
sVCharacterOffsetEnd
p582
V148
p583
sVCharacterOffsetBegin
p584
V147
p585
sVPartOfSpeech
p586
g164
sVLemma
p587
g579
saasVindexeddependencies
p588
(lp589
(lp590
Vroot
p591
aVROOT-0
p592
aVhave-24
p593
aa(lp594
Vmark
p595
aVleft-5
p596
aVIf-1
p597
aa(lp598
Vnsubj
p599
aVleft-5
p600
aV14-2
p601
aa(lp602
Vprep_of
p603
aV14-2
p604
aVthem-4
p605
aa(lp606
Vadvcl
p607
aVhave-24
p608
aVleft-5
p609
aa(lp610
Vdet
p611
aVrest-8
p612
aVthe-7
p613
aa(lp614
Vnsubj
p615
aVhad-12
p616
aVrest-8
p617
aa(lp618
Vposs
p619
aVtables-11
p620
aVhis-10
p621
aa(lp622
Vprep_of
p623
aVrest-8
p624
aVtables-11
p625
aa(lp626
Vconj_and
p627
aVleft-5
p628
aVhad-12
p629
aa(lp630
Vnum
p631
aVpeople-14
p632
aV4-13
p633
aa(lp634
Vdobj
p635
aVhad-12
p636
aVpeople-14
p637
aa(lp638
Vdet
p639
aVtable-17
p640
aVeach-16
p641
aa(lp642
Vprep_at
p643
aVpeople-14
p644
aVtable-17
p645
aa(lp646
Vadvmod
p647
aVmany-20
p648
aVhow-19
p649
aa(lp650
Vamod
p651
aVtables-21
p652
aVmany-20
p653
aa(lp654
Vdobj
p655
aVhave-24
p656
aVtables-21
p657
aa(lp658
Vaux
p659
aVhave-24
p660
aVdid-22
p661
aa(lp662
Vnsubj
p663
aVhave-24
p664
aVhe-23
p665
aasas.