(dp0
Vcoref
p1
(lp2
(lp3
(lp4
(lp5
VShe
p6
aI1
aI0
aI0
aI1
aa(lp7
VMartha
p8
aI0
aI0
aI0
aI1
aaa(lp9
(lp10
VMartha
p11
aI2
aI5
aI5
aI6
aa(lp12
VMartha
p13
aI0
aI0
aI0
aI1
aaaasVsentences
p14
(lp15
(dp16
Vparsetree
p17
V(ROOT (S (NP (NNP Martha)) (VP (VBD ordered) (NP (NP (DT a) (NN set)) (PP (IN of) (NP (JJ blue) (CC and) (JJ green) (NNS pins))))) (. .)))
p18
sVtext
p19
VMartha ordered a set of blue and green pins .
p20
sVdependencies
p21
(lp22
(lp23
Vroot
p24
aVROOT
p25
aVordered
p26
aa(lp27
Vnsubj
p28
aVordered
p29
aVMartha
p30
aa(lp31
Vdet
p32
aVset
p33
aVa
p34
aa(lp35
Vdobj
p36
aVordered
p37
aVset
p38
aa(lp39
Vamod
p40
aVpins
p41
aVblue
p42
aa(lp43
Vconj_and
p44
aVblue
p45
aVgreen
p46
aa(lp47
Vprep_of
p48
aVset
p49
aVpins
p50
aasVwords
p51
(lp52
(lp53
VMartha
p54
a(dp55
VNamedEntityTag
p56
VPERSON
p57
sVCharacterOffsetEnd
p58
V7
p59
sVCharacterOffsetBegin
p60
V1
p61
sVPartOfSpeech
p62
VNNP
p63
sVLemma
p64
VMartha
p65
saa(lp66
Vordered
p67
a(dp68
VNamedEntityTag
p69
VO
p70
sVCharacterOffsetEnd
p71
V15
p72
sVCharacterOffsetBegin
p73
V8
p74
sVPartOfSpeech
p75
VVBD
p76
sVLemma
p77
Vorder
p78
saa(lp79
g34
a(dp80
VNamedEntityTag
p81
g70
sVCharacterOffsetEnd
p82
V17
p83
sVCharacterOffsetBegin
p84
V16
p85
sVPartOfSpeech
p86
VDT
p87
sVLemma
p88
g34
saa(lp89
Vset
p90
a(dp91
VNamedEntityTag
p92
g70
sVCharacterOffsetEnd
p93
V21
p94
sVCharacterOffsetBegin
p95
V18
p96
sVPartOfSpeech
p97
VNN
p98
sVLemma
p99
Vset
p100
saa(lp101
Vof
p102
a(dp103
VNamedEntityTag
p104
g70
sVCharacterOffsetEnd
p105
V24
p106
sVCharacterOffsetBegin
p107
V22
p108
sVPartOfSpeech
p109
VIN
p110
sVLemma
p111
Vof
p112
saa(lp113
Vblue
p114
a(dp115
VNamedEntityTag
p116
g70
sVCharacterOffsetEnd
p117
V29
p118
sVCharacterOffsetBegin
p119
V25
p120
sVPartOfSpeech
p121
VJJ
p122
sVLemma
p123
Vblue
p124
saa(lp125
Vand
p126
a(dp127
VNamedEntityTag
p128
g70
sVCharacterOffsetEnd
p129
V33
p130
sVCharacterOffsetBegin
p131
V30
p132
sVPartOfSpeech
p133
VCC
p134
sVLemma
p135
Vand
p136
saa(lp137
Vgreen
p138
a(dp139
VNamedEntityTag
p140
g70
sVCharacterOffsetEnd
p141
V39
p142
sVCharacterOffsetBegin
p143
V34
p144
sVPartOfSpeech
p145
VJJ
p146
sVLemma
p147
Vgreen
p148
saa(lp149
Vpins
p150
a(dp151
VNamedEntityTag
p152
g70
sVCharacterOffsetEnd
p153
V44
p154
sVCharacterOffsetBegin
p155
V40
p156
sVPartOfSpeech
p157
VNNS
p158
sVLemma
p159
Vpin
p160
saa(lp161
V.
p162
a(dp163
VNamedEntityTag
p164
g70
sVCharacterOffsetEnd
p165
V46
p166
sVCharacterOffsetBegin
p167
V45
p168
sVPartOfSpeech
p169
g162
sVLemma
p170
g162
saasVindexeddependencies
p171
(lp172
(lp173
Vroot
p174
aVROOT-0
p175
aVordered-2
p176
aa(lp177
Vnsubj
p178
aVordered-2
p179
aVMartha-1
p180
aa(lp181
Vdet
p182
aVset-4
p183
aVa-3
p184
aa(lp185
Vdobj
p186
aVordered-2
p187
aVset-4
p188
aa(lp189
Vamod
p190
aVpins-9
p191
aVblue-6
p192
aa(lp193
Vconj_and
p194
aVblue-6
p195
aVgreen-8
p196
aa(lp197
Vprep_of
p198
aVset-4
p199
aVpins-9
p200
aasa(dp201
Vparsetree
p202
V(ROOT (S (S (NP (PRP She)) (VP (VBD received) (NP (CD 80) (NNS pins)))) (, ,) (CC and) (S (NP (NP (CD 0.8) (NNS times)) (PP (IN of) (NP (PRP them)))) (VP (VBD were) (ADJP (JJ blue)))) (. .)))
p203
sVtext
p204
VShe received 80 pins , and 0.8 times of them were blue .
p205
sVdependencies
p206
(lp207
(lp208
Vroot
p209
aVROOT
p210
aVreceived
p211
aa(lp212
Vnsubj
p213
aVreceived
p214
aVShe
p215
aa(lp216
Vnum
p217
aVpins
p218
aV80
p219
aa(lp220
Vdobj
p221
aVreceived
p222
aVpins
p223
aa(lp224
Vnum
p225
aVtimes
p226
aV0.8
p227
aa(lp228
Vnsubj
p229
aVblue
p230
aVtimes
p231
aa(lp232
Vprep_of
p233
aVtimes
p234
aVthem
p235
aa(lp236
Vcop
p237
aVblue
p238
aVwere
p239
aa(lp240
Vconj_and
p241
aVreceived
p242
aVblue
p243
aasVwords
p244
(lp245
(lp246
VShe
p247
a(dp248
VNamedEntityTag
p249
g70
sVCharacterOffsetEnd
p250
V50
p251
sVCharacterOffsetBegin
p252
V47
p253
sVPartOfSpeech
p254
VPRP
p255
sVLemma
p256
Vshe
p257
saa(lp258
Vreceived
p259
a(dp260
VNamedEntityTag
p261
g70
sVCharacterOffsetEnd
p262
V59
p263
sVCharacterOffsetBegin
p264
V51
p265
sVPartOfSpeech
p266
VVBD
p267
sVLemma
p268
Vreceive
p269
saa(lp270
V80
p271
a(dp272
VNormalizedNamedEntityTag
p273
V80.0
p274
sVLemma
p275
V80
p276
sVCharacterOffsetEnd
p277
V62
p278
sVPartOfSpeech
p279
VCD
p280
sVCharacterOffsetBegin
p281
V60
p282
sVNamedEntityTag
p283
VNUMBER
p284
saa(lp285
Vpins
p286
a(dp287
VNamedEntityTag
p288
g70
sVCharacterOffsetEnd
p289
V67
p290
sVCharacterOffsetBegin
p291
V63
p292
sVPartOfSpeech
p293
VNNS
p294
sVLemma
p295
Vpin
p296
saa(lp297
V,
p298
a(dp299
VNamedEntityTag
p300
g70
sVCharacterOffsetEnd
p301
V69
p302
sVCharacterOffsetBegin
p303
V68
p304
sVPartOfSpeech
p305
g298
sVLemma
p306
g298
saa(lp307
Vand
p308
a(dp309
VNamedEntityTag
p310
g70
sVCharacterOffsetEnd
p311
V73
p312
sVCharacterOffsetBegin
p313
V70
p314
sVPartOfSpeech
p315
VCC
p316
sVLemma
p317
Vand
p318
saa(lp319
V0.8
p320
a(dp321
VNormalizedNamedEntityTag
p322
V0.8
p323
sVLemma
p324
V0.8
p325
sVCharacterOffsetEnd
p326
V77
p327
sVPartOfSpeech
p328
VCD
p329
sVCharacterOffsetBegin
p330
V74
p331
sVNamedEntityTag
p332
VNUMBER
p333
saa(lp334
Vtimes
p335
a(dp336
VNamedEntityTag
p337
g70
sVCharacterOffsetEnd
p338
V83
p339
sVCharacterOffsetBegin
p340
V78
p341
sVPartOfSpeech
p342
VNNS
p343
sVLemma
p344
Vtime
p345
saa(lp346
Vof
p347
a(dp348
VNamedEntityTag
p349
g70
sVCharacterOffsetEnd
p350
V86
p351
sVCharacterOffsetBegin
p352
V84
p353
sVPartOfSpeech
p354
VIN
p355
sVLemma
p356
Vof
p357
saa(lp358
Vthem
p359
a(dp360
VNamedEntityTag
p361
g70
sVCharacterOffsetEnd
p362
V91
p363
sVCharacterOffsetBegin
p364
V87
p365
sVPartOfSpeech
p366
VPRP
p367
sVLemma
p368
Vthey
p369
saa(lp370
Vwere
p371
a(dp372
VNamedEntityTag
p373
g70
sVCharacterOffsetEnd
p374
V96
p375
sVCharacterOffsetBegin
p376
V92
p377
sVPartOfSpeech
p378
VVBD
p379
sVLemma
p380
Vbe
p381
saa(lp382
Vblue
p383
a(dp384
VNamedEntityTag
p385
g70
sVCharacterOffsetEnd
p386
V101
p387
sVCharacterOffsetBegin
p388
V97
p389
sVPartOfSpeech
p390
VJJ
p391
sVLemma
p392
Vblue
p393
saa(lp394
g162
a(dp395
VNamedEntityTag
p396
g70
sVCharacterOffsetEnd
p397
V103
p398
sVCharacterOffsetBegin
p399
V102
p400
sVPartOfSpeech
p401
g162
sVLemma
p402
g162
saasVindexeddependencies
p403
(lp404
(lp405
Vroot
p406
aVROOT-0
p407
aVreceived-2
p408
aa(lp409
Vnsubj
p410
aVreceived-2
p411
aVShe-1
p412
aa(lp413
Vnum
p414
aVpins-4
p415
aV80-3
p416
aa(lp417
Vdobj
p418
aVreceived-2
p419
aVpins-4
p420
aa(lp421
Vnum
p422
aVtimes-8
p423
aV0.8-7
p424
aa(lp425
Vnsubj
p426
aVblue-12
p427
aVtimes-8
p428
aa(lp429
Vprep_of
p430
aVtimes-8
p431
aVthem-10
p432
aa(lp433
Vcop
p434
aVblue-12
p435
aVwere-11
p436
aa(lp437
Vconj_and
p438
aVreceived-2
p439
aVblue-12
p440
aasa(dp441
Vparsetree
p442
V(ROOT (SBARQ (WHNP (WHADJP (WRB How) (JJ many)) (ADJP (JJ blue)) (NNS pins)) (SQ (VBD did) (NP (NNP Martha)) (VP (VB receive))) (. ?)))
p443
sVtext
p444
VHow many blue pins did Martha receive ?
p445
sVdependencies
p446
(lp447
(lp448
Vroot
p449
aVROOT
p450
aVreceive
p451
aa(lp452
Vadvmod
p453
aVmany
p454
aVHow
p455
aa(lp456
Vamod
p457
aVpins
p458
aVmany
p459
aa(lp460
Vamod
p461
aVpins
p462
aVblue
p463
aa(lp464
Vdobj
p465
aVreceive
p466
aVpins
p467
aa(lp468
Vaux
p469
aVreceive
p470
aVdid
p471
aa(lp472
Vnsubj
p473
aVreceive
p474
aVMartha
p475
aasVwords
p476
(lp477
(lp478
VHow
p479
a(dp480
VNamedEntityTag
p481
g70
sVCharacterOffsetEnd
p482
V107
p483
sVCharacterOffsetBegin
p484
V104
p485
sVPartOfSpeech
p486
VWRB
p487
sVLemma
p488
Vhow
p489
saa(lp490
Vmany
p491
a(dp492
VNamedEntityTag
p493
g70
sVCharacterOffsetEnd
p494
V112
p495
sVCharacterOffsetBegin
p496
V108
p497
sVPartOfSpeech
p498
VJJ
p499
sVLemma
p500
Vmany
p501
saa(lp502
Vblue
p503
a(dp504
VNamedEntityTag
p505
g70
sVCharacterOffsetEnd
p506
V117
p507
sVCharacterOffsetBegin
p508
V113
p509
sVPartOfSpeech
p510
VJJ
p511
sVLemma
p512
Vblue
p513
saa(lp514
Vpins
p515
a(dp516
VNamedEntityTag
p517
g70
sVCharacterOffsetEnd
p518
V122
p519
sVCharacterOffsetBegin
p520
V118
p521
sVPartOfSpeech
p522
VNNS
p523
sVLemma
p524
Vpin
p525
saa(lp526
Vdid
p527
a(dp528
VNamedEntityTag
p529
g70
sVCharacterOffsetEnd
p530
V126
p531
sVCharacterOffsetBegin
p532
V123
p533
sVPartOfSpeech
p534
VVBD
p535
sVLemma
p536
Vdo
p537
saa(lp538
VMartha
p539
a(dp540
VNamedEntityTag
p541
VPERSON
p542
sVCharacterOffsetEnd
p543
V133
p544
sVCharacterOffsetBegin
p545
V127
p546
sVPartOfSpeech
p547
VNNP
p548
sVLemma
p549
VMartha
p550
saa(lp551
Vreceive
p552
a(dp553
VNamedEntityTag
p554
g70
sVCharacterOffsetEnd
p555
V141
p556
sVCharacterOffsetBegin
p557
V134
p558
sVPartOfSpeech
p559
VVB
p560
sVLemma
p561
Vreceive
p562
saa(lp563
V?
p564
a(dp565
VNamedEntityTag
p566
g70
sVCharacterOffsetEnd
p567
V143
p568
sVCharacterOffsetBegin
p569
V142
p570
sVPartOfSpeech
p571
g162
sVLemma
p572
g564
saasVindexeddependencies
p573
(lp574
(lp575
Vroot
p576
aVROOT-0
p577
aVreceive-7
p578
aa(lp579
Vadvmod
p580
aVmany-2
p581
aVHow-1
p582
aa(lp583
Vamod
p584
aVpins-4
p585
aVmany-2
p586
aa(lp587
Vamod
p588
aVpins-4
p589
aVblue-3
p590
aa(lp591
Vdobj
p592
aVreceive-7
p593
aVpins-4
p594
aa(lp595
Vaux
p596
aVreceive-7
p597
aVdid-5
p598
aa(lp599
Vnsubj
p600
aVreceive-7
p601
aVMartha-6
p602
aasas.