(dp0
Vcoref
p1
(lp2
(lp3
(lp4
(lp5
Vthem
p6
aI0
aI12
aI12
aI13
aa(lp7
V24 people
p8
aI0
aI4
aI3
aI5
aaa(lp9
(lp10
Vthey
p11
aI1
aI3
aI3
aI4
aa(lp12
V24 people
p13
aI0
aI4
aI3
aI5
aaa(lp14
(lp15
Vthey
p16
aI1
aI14
aI14
aI15
aa(lp17
V24 people
p18
aI0
aI4
aI3
aI5
aaaasVsentences
p19
(lp20
(dp21
Vparsetree
p22
V(ROOT (S (S (NP (DT A) (NN company)) (VP (VBN invited) (NP (CD 24) (NNS people)) (PP (TO to) (NP (DT a) (NN luncheon))))) (, ,) (CC but) (S (NP (NP (CD 10)) (PP (IN of) (NP (PRP them)))) (VP (VBD did) (RB n't) (VP (VB show) (PRT (RP up))))) (. .)))
p23
sVtext
p24
VA company invited 24 people to a luncheon , but 10 of them didn't show up .
p25
sVdependencies
p26
(lp27
(lp28
Vroot
p29
aVROOT
p30
aVinvited
p31
aa(lp32
Vdet
p33
aVcompany
p34
aVA
p35
aa(lp36
Vnsubj
p37
aVinvited
p38
aVcompany
p39
aa(lp40
Vnum
p41
aVpeople
p42
aV24
p43
aa(lp44
Vdobj
p45
aVinvited
p46
aVpeople
p47
aa(lp48
Vdet
p49
aVluncheon
p50
aVa
p51
aa(lp52
Vprep_to
p53
aVinvited
p54
aVluncheon
p55
aa(lp56
Vnsubj
p57
aVshow
p58
aV10
p59
aa(lp60
Vprep_of
p61
aV10
p62
aVthem
p63
aa(lp64
Vaux
p65
aVshow
p66
aVdid
p67
aa(lp68
Vneg
p69
aVshow
p70
aVn't
p71
aa(lp72
Vconj_but
p73
aVinvited
p74
aVshow
p75
aa(lp76
Vprt
p77
aVshow
p78
aVup
p79
aasVwords
p80
(lp81
(lp82
g35
a(dp83
VNamedEntityTag
p84
VO
p85
sVCharacterOffsetEnd
p86
V2
p87
sVCharacterOffsetBegin
p88
V1
p89
sVPartOfSpeech
p90
VDT
p91
sVLemma
p92
g51
saa(lp93
Vcompany
p94
a(dp95
VNamedEntityTag
p96
g85
sVCharacterOffsetEnd
p97
V10
p98
sVCharacterOffsetBegin
p99
V3
p100
sVPartOfSpeech
p101
VNN
p102
sVLemma
p103
Vcompany
p104
saa(lp105
Vinvited
p106
a(dp107
VNamedEntityTag
p108
g85
sVCharacterOffsetEnd
p109
V18
p110
sVCharacterOffsetBegin
p111
V11
p112
sVPartOfSpeech
p113
VVBN
p114
sVLemma
p115
Vinvite
p116
saa(lp117
V24
p118
a(dp119
VNormalizedNamedEntityTag
p120
V24.0
p121
sVLemma
p122
V24
p123
sVCharacterOffsetEnd
p124
V21
p125
sVPartOfSpeech
p126
VCD
p127
sVCharacterOffsetBegin
p128
V19
p129
sVNamedEntityTag
p130
VNUMBER
p131
saa(lp132
Vpeople
p133
a(dp134
VNamedEntityTag
p135
g85
sVCharacterOffsetEnd
p136
V28
p137
sVCharacterOffsetBegin
p138
V22
p139
sVPartOfSpeech
p140
VNNS
p141
sVLemma
p142
Vpeople
p143
saa(lp144
Vto
p145
a(dp146
VNamedEntityTag
p147
g85
sVCharacterOffsetEnd
p148
V31
p149
sVCharacterOffsetBegin
p150
V29
p151
sVPartOfSpeech
p152
VTO
p153
sVLemma
p154
Vto
p155
saa(lp156
g51
a(dp157
VNamedEntityTag
p158
g85
sVCharacterOffsetEnd
p159
V33
p160
sVCharacterOffsetBegin
p161
V32
p162
sVPartOfSpeech
p163
VDT
p164
sVLemma
p165
g51
saa(lp166
Vluncheon
p167
a(dp168
VNamedEntityTag
p169
g85
sVCharacterOffsetEnd
p170
V42
p171
sVCharacterOffsetBegin
p172
V34
p173
sVPartOfSpeech
p174
VNN
p175
sVLemma
p176
Vluncheon
p177
saa(lp178
V,
p179
a(dp180
VNamedEntityTag
p181
g85
sVCharacterOffsetEnd
p182
V44
p183
sVCharacterOffsetBegin
p184
V43
p185
sVPartOfSpeech
p186
g179
sVLemma
p187
g179
saa(lp188
Vbut
p189
a(dp190
VNamedEntityTag
p191
g85
sVCharacterOffsetEnd
p192
V48
p193
sVCharacterOffsetBegin
p194
V45
p195
sVPartOfSpeech
p196
VCC
p197
sVLemma
p198
Vbut
p199
saa(lp200
V10
p201
a(dp202
VNormalizedNamedEntityTag
p203
V10.0
p204
sVLemma
p205
V10
p206
sVCharacterOffsetEnd
p207
V51
p208
sVPartOfSpeech
p209
VCD
p210
sVCharacterOffsetBegin
p211
V49
p212
sVNamedEntityTag
p213
VNUMBER
p214
saa(lp215
Vof
p216
a(dp217
VNamedEntityTag
p218
g85
sVCharacterOffsetEnd
p219
V54
p220
sVCharacterOffsetBegin
p221
V52
p222
sVPartOfSpeech
p223
VIN
p224
sVLemma
p225
Vof
p226
saa(lp227
Vthem
p228
a(dp229
VNamedEntityTag
p230
g85
sVCharacterOffsetEnd
p231
V59
p232
sVCharacterOffsetBegin
p233
V55
p234
sVPartOfSpeech
p235
VPRP
p236
sVLemma
p237
Vthey
p238
saa(lp239
Vdid
p240
a(dp241
VNamedEntityTag
p242
g85
sVCharacterOffsetEnd
p243
V63
p244
sVCharacterOffsetBegin
p245
V60
p246
sVPartOfSpeech
p247
VVBD
p248
sVLemma
p249
Vdo
p250
saa(lp251
Vn't
p252
a(dp253
VNamedEntityTag
p254
g85
sVCharacterOffsetEnd
p255
V66
p256
sVCharacterOffsetBegin
p257
V63
p258
sVPartOfSpeech
p259
VRB
p260
sVLemma
p261
Vnot
p262
saa(lp263
Vshow
p264
a(dp265
VNamedEntityTag
p266
g85
sVCharacterOffsetEnd
p267
V71
p268
sVCharacterOffsetBegin
p269
V67
p270
sVPartOfSpeech
p271
VVB
p272
sVLemma
p273
Vshow
p274
saa(lp275
Vup
p276
a(dp277
VNamedEntityTag
p278
g85
sVCharacterOffsetEnd
p279
V74
p280
sVCharacterOffsetBegin
p281
V72
p282
sVPartOfSpeech
p283
VRP
p284
sVLemma
p285
Vup
p286
saa(lp287
V.
p288
a(dp289
VNamedEntityTag
p290
g85
sVCharacterOffsetEnd
p291
V76
p292
sVCharacterOffsetBegin
p293
V75
p294
sVPartOfSpeech
p295
g288
sVLemma
p296
g288
saasVindexeddependencies
p297
(lp298
(lp299
Vroot
p300
aVROOT-0
p301
aVinvited-3
p302
aa(lp303
Vdet
p304
aVcompany-2
p305
aVA-1
p306
aa(lp307
Vnsubj
p308
aVinvited-3
p309
aVcompany-2
p310
aa(lp311
Vnum
p312
aVpeople-5
p313
aV24-4
p314
aa(lp315
Vdobj
p316
aVinvited-3
p317
aVpeople-5
p318
aa(lp319
Vdet
p320
aVluncheon-8
p321
aVa-7
p322
aa(lp323
Vprep_to
p324
aVinvited-3
p325
aVluncheon-8
p326
aa(lp327
Vnsubj
p328
aVshow-16
p329
aV10-11
p330
aa(lp331
Vprep_of
p332
aV10-11
p333
aVthem-13
p334
aa(lp335
Vaux
p336
aVshow-16
p337
aVdid-14
p338
aa(lp339
Vneg
p340
aVshow-16
p341
aVn't-15
p342
aa(lp343
Vconj_but
p344
aVinvited-3
p345
aVshow-16
p346
aa(lp347
Vprt
p348
aVshow-16
p349
aVup-17
p350
aasa(dp351
Vparsetree
p352
V(ROOT (SBARQ (SBAR (IN If) (S (NP (NP (DT the) (NNS tables)) (NP (PRP they))) (VP (VBD had) (VP (VBN held) (NP (NP (CD 7) (NNS people)) (NP (DT each))))))) (, ,) (WHNP (WHADJP (WRB how) (JJ many)) (NNS tables)) (SQ (VBP do) (NP (PRP they)) (VP (VB need))) (. ?)))
p353
sVtext
p354
VIf the tables they had held 7 people each , how many tables do they need ?
p355
sVdependencies
p356
(lp357
(lp358
Vroot
p359
aVROOT
p360
aVneed
p361
aa(lp362
Vmark
p363
aVheld
p364
aVIf
p365
aa(lp366
Vdet
p367
aVtables
p368
aVthe
p369
aa(lp370
Vnsubj
p371
aVheld
p372
aVtables
p373
aa(lp374
Vdep
p375
aVtables
p376
aVthey
p377
aa(lp378
Vaux
p379
aVheld
p380
aVhad
p381
aa(lp382
Vadvcl
p383
aVneed
p384
aVheld
p385
aa(lp386
Vnum
p387
aVpeople
p388
aV7
p389
aa(lp390
Vdobj
p391
aVheld
p392
aVpeople
p393
aa(lp394
Vdep
p395
aVpeople
p396
aVeach
p397
aa(lp398
Vadvmod
p399
aVmany
p400
aVhow
p401
aa(lp402
Vamod
p403
aVtables
p404
aVmany
p405
aa(lp406
Vdobj
p407
aVneed
p408
aVtables
p409
aa(lp410
Vaux
p411
aVneed
p412
aVdo
p413
aa(lp414
Vnsubj
p415
aVneed
p416
aVthey
p417
aasVwords
p418
(lp419
(lp420
VIf
p421
a(dp422
VNamedEntityTag
p423
g85
sVCharacterOffsetEnd
p424
V79
p425
sVCharacterOffsetBegin
p426
V77
p427
sVPartOfSpeech
p428
VIN
p429
sVLemma
p430
Vif
p431
saa(lp432
Vthe
p433
a(dp434
VNamedEntityTag
p435
g85
sVCharacterOffsetEnd
p436
V83
p437
sVCharacterOffsetBegin
p438
V80
p439
sVPartOfSpeech
p440
VDT
p441
sVLemma
p442
Vthe
p443
saa(lp444
Vtables
p445
a(dp446
VNamedEntityTag
p447
g85
sVCharacterOffsetEnd
p448
V90
p449
sVCharacterOffsetBegin
p450
V84
p451
sVPartOfSpeech
p452
VNNS
p453
sVLemma
p454
Vtable
p455
saa(lp456
Vthey
p457
a(dp458
VNamedEntityTag
p459
g85
sVCharacterOffsetEnd
p460
V95
p461
sVCharacterOffsetBegin
p462
V91
p463
sVPartOfSpeech
p464
VPRP
p465
sVLemma
p466
Vthey
p467
saa(lp468
Vhad
p469
a(dp470
VNamedEntityTag
p471
g85
sVCharacterOffsetEnd
p472
V99
p473
sVCharacterOffsetBegin
p474
V96
p475
sVPartOfSpeech
p476
VVBD
p477
sVLemma
p478
Vhave
p479
saa(lp480
Vheld
p481
a(dp482
VNamedEntityTag
p483
g85
sVCharacterOffsetEnd
p484
V104
p485
sVCharacterOffsetBegin
p486
V100
p487
sVPartOfSpeech
p488
VVBN
p489
sVLemma
p490
Vhold
p491
saa(lp492
g389
a(dp493
VNormalizedNamedEntityTag
p494
V7.0
p495
sVLemma
p496
g389
sVCharacterOffsetEnd
p497
V106
p498
sVPartOfSpeech
p499
VCD
p500
sVCharacterOffsetBegin
p501
V105
p502
sVNamedEntityTag
p503
VNUMBER
p504
saa(lp505
Vpeople
p506
a(dp507
VNamedEntityTag
p508
g85
sVCharacterOffsetEnd
p509
V113
p510
sVCharacterOffsetBegin
p511
V107
p512
sVPartOfSpeech
p513
VNNS
p514
sVLemma
p515
Vpeople
p516
saa(lp517
Veach
p518
a(dp519
VNamedEntityTag
p520
g85
sVCharacterOffsetEnd
p521
V118
p522
sVCharacterOffsetBegin
p523
V114
p524
sVPartOfSpeech
p525
VDT
p526
sVLemma
p527
Veach
p528
saa(lp529
g179
a(dp530
VNamedEntityTag
p531
g85
sVCharacterOffsetEnd
p532
V120
p533
sVCharacterOffsetBegin
p534
V119
p535
sVPartOfSpeech
p536
g179
sVLemma
p537
g179
saa(lp538
Vhow
p539
a(dp540
VNamedEntityTag
p541
g85
sVCharacterOffsetEnd
p542
V124
p543
sVCharacterOffsetBegin
p544
V121
p545
sVPartOfSpeech
p546
VWRB
p547
sVLemma
p548
Vhow
p549
saa(lp550
Vmany
p551
a(dp552
VNamedEntityTag
p553
g85
sVCharacterOffsetEnd
p554
V129
p555
sVCharacterOffsetBegin
p556
V125
p557
sVPartOfSpeech
p558
VJJ
p559
sVLemma
p560
Vmany
p561
saa(lp562
Vtables
p563
a(dp564
VNamedEntityTag
p565
g85
sVCharacterOffsetEnd
p566
V136
p567
sVCharacterOffsetBegin
p568
V130
p569
sVPartOfSpeech
p570
VNNS
p571
sVLemma
p572
Vtable
p573
saa(lp574
Vdo
p575
a(dp576
VNamedEntityTag
p577
g85
sVCharacterOffsetEnd
p578
V139
p579
sVCharacterOffsetBegin
p580
V137
p581
sVPartOfSpeech
p582
VVBP
p583
sVLemma
p584
Vdo
p585
saa(lp586
Vthey
p587
a(dp588
VNamedEntityTag
p589
g85
sVCharacterOffsetEnd
p590
V144
p591
sVCharacterOffsetBegin
p592
V140
p593
sVPartOfSpeech
p594
VPRP
p595
sVLemma
p596
Vthey
p597
saa(lp598
Vneed
p599
a(dp600
VNamedEntityTag
p601
g85
sVCharacterOffsetEnd
p602
V149
p603
sVCharacterOffsetBegin
p604
V145
p605
sVPartOfSpeech
p606
VVB
p607
sVLemma
p608
Vneed
p609
saa(lp610
V?
p611
a(dp612
VNamedEntityTag
p613
g85
sVCharacterOffsetEnd
p614
V151
p615
sVCharacterOffsetBegin
p616
V150
p617
sVPartOfSpeech
p618
g288
sVLemma
p619
g611
saasVindexeddependencies
p620
(lp621
(lp622
Vroot
p623
aVROOT-0
p624
aVneed-16
p625
aa(lp626
Vmark
p627
aVheld-6
p628
aVIf-1
p629
aa(lp630
Vdet
p631
aVtables-3
p632
aVthe-2
p633
aa(lp634
Vnsubj
p635
aVheld-6
p636
aVtables-3
p637
aa(lp638
Vdep
p639
aVtables-3
p640
aVthey-4
p641
aa(lp642
Vaux
p643
aVheld-6
p644
aVhad-5
p645
aa(lp646
Vadvcl
p647
aVneed-16
p648
aVheld-6
p649
aa(lp650
Vnum
p651
aVpeople-8
p652
aV7-7
p653
aa(lp654
Vdobj
p655
aVheld-6
p656
aVpeople-8
p657
aa(lp658
Vdep
p659
aVpeople-8
p660
aVeach-9
p661
aa(lp662
Vadvmod
p663
aVmany-12
p664
aVhow-11
p665
aa(lp666
Vamod
p667
aVtables-13
p668
aVmany-12
p669
aa(lp670
Vdobj
p671
aVneed-16
p672
aVtables-13
p673
aa(lp674
Vaux
p675
aVneed-16
p676
aVdo-14
p677
aa(lp678
Vnsubj
p679
aVneed-16
p680
aVthey-15
p681
aasas.