(dp0
Vcoref
p1
(lp2
(lp3
(lp4
(lp5
Vhe
p6
aI2
aI1
aI1
aI2
aa(lp7
VRoger with the rest
p8
aI1
aI17
aI17
aI21
aaa(lp9
(lp10
Vhe
p11
aI2
aI14
aI14
aI15
aa(lp12
VRoger with the rest
p13
aI1
aI17
aI17
aI21
aaaasVsentences
p14
(lp15
(dp16
Vparsetree
p17
V(ROOT (S (NP (NNP Roger)) (VP (VBZ is) (ADVP (IN at) (NP (DT the) (NN library))) (VP (VBG helping) (S (VP (VB put) (PRT (RP away)) (NP (NNS books)))))) (. .)))
p18
sVtext
p19
VRoger is at the library helping put away books .
p20
sVdependencies
p21
(lp22
(lp23
Vroot
p24
aVROOT
p25
aVhelping
p26
aa(lp27
Vnsubj
p28
aVhelping
p29
aVRoger
p30
aa(lp31
Vaux
p32
aVhelping
p33
aVis
p34
aa(lp35
Vadvmod
p36
aVhelping
p37
aVat
p38
aa(lp39
Vdet
p40
aVlibrary
p41
aVthe
p42
aa(lp43
Vpobj
p44
aVat
p45
aVlibrary
p46
aa(lp47
Vccomp
p48
aVhelping
p49
aVput
p50
aa(lp51
Vprt
p52
aVput
p53
aVaway
p54
aa(lp55
Vdobj
p56
aVput
p57
aVbooks
p58
aasVwords
p59
(lp60
(lp61
VRoger
p62
a(dp63
VNamedEntityTag
p64
VPERSON
p65
sVCharacterOffsetEnd
p66
V6
p67
sVCharacterOffsetBegin
p68
V1
p69
sVPartOfSpeech
p70
VNNP
p71
sVLemma
p72
VRoger
p73
saa(lp74
Vis
p75
a(dp76
VNamedEntityTag
p77
VO
p78
sVCharacterOffsetEnd
p79
V9
p80
sVCharacterOffsetBegin
p81
V7
p82
sVPartOfSpeech
p83
VVBZ
p84
sVLemma
p85
Vbe
p86
saa(lp87
Vat
p88
a(dp89
VNamedEntityTag
p90
g78
sVCharacterOffsetEnd
p91
V12
p92
sVCharacterOffsetBegin
p93
V10
p94
sVPartOfSpeech
p95
VIN
p96
sVLemma
p97
Vat
p98
saa(lp99
Vthe
p100
a(dp101
VNamedEntityTag
p102
g78
sVCharacterOffsetEnd
p103
V16
p104
sVCharacterOffsetBegin
p105
V13
p106
sVPartOfSpeech
p107
VDT
p108
sVLemma
p109
Vthe
p110
saa(lp111
Vlibrary
p112
a(dp113
VNamedEntityTag
p114
g78
sVCharacterOffsetEnd
p115
V24
p116
sVCharacterOffsetBegin
p117
V17
p118
sVPartOfSpeech
p119
VNN
p120
sVLemma
p121
Vlibrary
p122
saa(lp123
Vhelping
p124
a(dp125
VNamedEntityTag
p126
g78
sVCharacterOffsetEnd
p127
V32
p128
sVCharacterOffsetBegin
p129
V25
p130
sVPartOfSpeech
p131
VVBG
p132
sVLemma
p133
Vhelp
p134
saa(lp135
Vput
p136
a(dp137
VNamedEntityTag
p138
g78
sVCharacterOffsetEnd
p139
V36
p140
sVCharacterOffsetBegin
p141
V33
p142
sVPartOfSpeech
p143
VVB
p144
sVLemma
p145
Vput
p146
saa(lp147
Vaway
p148
a(dp149
VNamedEntityTag
p150
g78
sVCharacterOffsetEnd
p151
V41
p152
sVCharacterOffsetBegin
p153
V37
p154
sVPartOfSpeech
p155
VRP
p156
sVLemma
p157
Vaway
p158
saa(lp159
Vbooks
p160
a(dp161
VNamedEntityTag
p162
g78
sVCharacterOffsetEnd
p163
V47
p164
sVCharacterOffsetBegin
p165
V42
p166
sVPartOfSpeech
p167
VNNS
p168
sVLemma
p169
Vbook
p170
saa(lp171
V.
p172
a(dp173
VNamedEntityTag
p174
g78
sVCharacterOffsetEnd
p175
V49
p176
sVCharacterOffsetBegin
p177
V48
p178
sVPartOfSpeech
p179
g172
sVLemma
p180
g172
saasVindexeddependencies
p181
(lp182
(lp183
Vroot
p184
aVROOT-0
p185
aVhelping-6
p186
aa(lp187
Vnsubj
p188
aVhelping-6
p189
aVRoger-1
p190
aa(lp191
Vaux
p192
aVhelping-6
p193
aVis-2
p194
aa(lp195
Vadvmod
p196
aVhelping-6
p197
aVat-3
p198
aa(lp199
Vdet
p200
aVlibrary-5
p201
aVthe-4
p202
aa(lp203
Vpobj
p204
aVat-3
p205
aVlibrary-5
p206
aa(lp207
Vccomp
p208
aVhelping-6
p209
aVput-7
p210
aa(lp211
Vprt
p212
aVput-7
p213
aVaway-8
p214
aa(lp215
Vdobj
p216
aVput-7
p217
aVbooks-9
p218
aasa(dp219
Vparsetree
p220
V(ROOT (S (S (NP (EX There)) (VP (VBP are) (NP (NP (CD 14) (NN book)) (SBAR (S (VP (TO to) (VP (VB put) (PRT (RP away)) (NP (JJ total))))))))) (CC but) (S (NP (DT a) (NN librarian)) (VP (VP (VBZ takes) (NP (NP (CD 2)) (PP (IN of) (NP (PRP them))))) (CC and) (VP (VBZ leaves) (NP (NP (NNP Roger)) (PP (IN with) (NP (DT the) (NN rest))))))) (. .)))
p221
sVtext
p222
VThere are 14 book to put away total but a librarian takes 2 of them and leaves Roger with the rest .
p223
sVdependencies
p224
(lp225
(lp226
Vroot
p227
aVROOT
p228
aVare
p229
aa(lp230
Vexpl
p231
aVare
p232
aVThere
p233
aa(lp234
Vnum
p235
aVbook
p236
aV14
p237
aa(lp238
Vnsubj
p239
aVare
p240
aVbook
p241
aa(lp242
Vaux
p243
aVput
p244
aVto
p245
aa(lp246
Vvmod
p247
aVbook
p248
aVput
p249
aa(lp250
Vprt
p251
aVput
p252
aVaway
p253
aa(lp254
Vdobj
p255
aVput
p256
aVtotal
p257
aa(lp258
Vdet
p259
aVlibrarian
p260
aVa
p261
aa(lp262
Vnsubj
p263
aVtakes
p264
aVlibrarian
p265
aa(lp266
Vconj_but
p267
aVare
p268
aVtakes
p269
aa(lp270
Vdobj
p271
aVtakes
p272
aV2
p273
aa(lp274
Vprep_of
p275
ag273
aVthem
p276
aa(lp277
Vconj_and
p278
aVtakes
p279
aVleaves
p280
aa(lp281
Vdobj
p282
aVleaves
p283
aVRoger
p284
aa(lp285
Vdet
p286
aVrest
p287
aVthe
p288
aa(lp289
Vprep_with
p290
aVRoger
p291
aVrest
p292
aasVwords
p293
(lp294
(lp295
VThere
p296
a(dp297
VNamedEntityTag
p298
g78
sVCharacterOffsetEnd
p299
V55
p300
sVCharacterOffsetBegin
p301
V50
p302
sVPartOfSpeech
p303
VEX
p304
sVLemma
p305
Vthere
p306
saa(lp307
Vare
p308
a(dp309
VNamedEntityTag
p310
g78
sVCharacterOffsetEnd
p311
V59
p312
sVCharacterOffsetBegin
p313
V56
p314
sVPartOfSpeech
p315
VVBP
p316
sVLemma
p317
Vbe
p318
saa(lp319
V14
p320
a(dp321
VNormalizedNamedEntityTag
p322
V14.0
p323
sVLemma
p324
V14
p325
sVCharacterOffsetEnd
p326
V62
p327
sVPartOfSpeech
p328
VCD
p329
sVCharacterOffsetBegin
p330
V60
p331
sVNamedEntityTag
p332
VNUMBER
p333
saa(lp334
Vbook
p335
a(dp336
VNamedEntityTag
p337
g78
sVCharacterOffsetEnd
p338
V67
p339
sVCharacterOffsetBegin
p340
V63
p341
sVPartOfSpeech
p342
VNN
p343
sVLemma
p344
Vbook
p345
saa(lp346
Vto
p347
a(dp348
VNamedEntityTag
p349
g78
sVCharacterOffsetEnd
p350
V70
p351
sVCharacterOffsetBegin
p352
V68
p353
sVPartOfSpeech
p354
VTO
p355
sVLemma
p356
Vto
p357
saa(lp358
Vput
p359
a(dp360
VNamedEntityTag
p361
g78
sVCharacterOffsetEnd
p362
V74
p363
sVCharacterOffsetBegin
p364
V71
p365
sVPartOfSpeech
p366
VVB
p367
sVLemma
p368
Vput
p369
saa(lp370
Vaway
p371
a(dp372
VNamedEntityTag
p373
g78
sVCharacterOffsetEnd
p374
V79
p375
sVCharacterOffsetBegin
p376
V75
p377
sVPartOfSpeech
p378
VRP
p379
sVLemma
p380
Vaway
p381
saa(lp382
Vtotal
p383
a(dp384
VNamedEntityTag
p385
g78
sVCharacterOffsetEnd
p386
V85
p387
sVCharacterOffsetBegin
p388
V80
p389
sVPartOfSpeech
p390
VJJ
p391
sVLemma
p392
Vtotal
p393
saa(lp394
Vbut
p395
a(dp396
VNamedEntityTag
p397
g78
sVCharacterOffsetEnd
p398
V89
p399
sVCharacterOffsetBegin
p400
V86
p401
sVPartOfSpeech
p402
VCC
p403
sVLemma
p404
Vbut
p405
saa(lp406
g261
a(dp407
VNamedEntityTag
p408
g78
sVCharacterOffsetEnd
p409
V91
p410
sVCharacterOffsetBegin
p411
V90
p412
sVPartOfSpeech
p413
VDT
p414
sVLemma
p415
g261
saa(lp416
Vlibrarian
p417
a(dp418
VNamedEntityTag
p419
g78
sVCharacterOffsetEnd
p420
V101
p421
sVCharacterOffsetBegin
p422
V92
p423
sVPartOfSpeech
p424
VNN
p425
sVLemma
p426
Vlibrarian
p427
saa(lp428
Vtakes
p429
a(dp430
VNamedEntityTag
p431
g78
sVCharacterOffsetEnd
p432
V107
p433
sVCharacterOffsetBegin
p434
V102
p435
sVPartOfSpeech
p436
VVBZ
p437
sVLemma
p438
Vtake
p439
saa(lp440
g273
a(dp441
VNormalizedNamedEntityTag
p442
V2.0
p443
sVLemma
p444
g273
sVCharacterOffsetEnd
p445
V109
p446
sVPartOfSpeech
p447
VCD
p448
sVCharacterOffsetBegin
p449
V108
p450
sVNamedEntityTag
p451
VNUMBER
p452
saa(lp453
Vof
p454
a(dp455
VNamedEntityTag
p456
g78
sVCharacterOffsetEnd
p457
V112
p458
sVCharacterOffsetBegin
p459
V110
p460
sVPartOfSpeech
p461
VIN
p462
sVLemma
p463
Vof
p464
saa(lp465
Vthem
p466
a(dp467
VNamedEntityTag
p468
g78
sVCharacterOffsetEnd
p469
V117
p470
sVCharacterOffsetBegin
p471
V113
p472
sVPartOfSpeech
p473
VPRP
p474
sVLemma
p475
Vthey
p476
saa(lp477
Vand
p478
a(dp479
VNamedEntityTag
p480
g78
sVCharacterOffsetEnd
p481
V121
p482
sVCharacterOffsetBegin
p483
V118
p484
sVPartOfSpeech
p485
VCC
p486
sVLemma
p487
Vand
p488
saa(lp489
Vleaves
p490
a(dp491
VNamedEntityTag
p492
g78
sVCharacterOffsetEnd
p493
V128
p494
sVCharacterOffsetBegin
p495
V122
p496
sVPartOfSpeech
p497
VVBZ
p498
sVLemma
p499
Vleave
p500
saa(lp501
VRoger
p502
a(dp503
VNamedEntityTag
p504
VPERSON
p505
sVCharacterOffsetEnd
p506
V134
p507
sVCharacterOffsetBegin
p508
V129
p509
sVPartOfSpeech
p510
VNNP
p511
sVLemma
p512
VRoger
p513
saa(lp514
Vwith
p515
a(dp516
VNamedEntityTag
p517
g78
sVCharacterOffsetEnd
p518
V139
p519
sVCharacterOffsetBegin
p520
V135
p521
sVPartOfSpeech
p522
VIN
p523
sVLemma
p524
Vwith
p525
saa(lp526
Vthe
p527
a(dp528
VNamedEntityTag
p529
g78
sVCharacterOffsetEnd
p530
V143
p531
sVCharacterOffsetBegin
p532
V140
p533
sVPartOfSpeech
p534
VDT
p535
sVLemma
p536
Vthe
p537
saa(lp538
Vrest
p539
a(dp540
VNamedEntityTag
p541
g78
sVCharacterOffsetEnd
p542
V148
p543
sVCharacterOffsetBegin
p544
V144
p545
sVPartOfSpeech
p546
VNN
p547
sVLemma
p548
Vrest
p549
saa(lp550
g172
a(dp551
VNamedEntityTag
p552
g78
sVCharacterOffsetEnd
p553
V150
p554
sVCharacterOffsetBegin
p555
V149
p556
sVPartOfSpeech
p557
g172
sVLemma
p558
g172
saasVindexeddependencies
p559
(lp560
(lp561
Vroot
p562
aVROOT-0
p563
aVare-2
p564
aa(lp565
Vexpl
p566
aVare-2
p567
aVThere-1
p568
aa(lp569
Vnum
p570
aVbook-4
p571
aV14-3
p572
aa(lp573
Vnsubj
p574
aVare-2
p575
aVbook-4
p576
aa(lp577
Vaux
p578
aVput-6
p579
aVto-5
p580
aa(lp581
Vvmod
p582
aVbook-4
p583
aVput-6
p584
aa(lp585
Vprt
p586
aVput-6
p587
aVaway-7
p588
aa(lp589
Vdobj
p590
aVput-6
p591
aVtotal-8
p592
aa(lp593
Vdet
p594
aVlibrarian-11
p595
aVa-10
p596
aa(lp597
Vnsubj
p598
aVtakes-12
p599
aVlibrarian-11
p600
aa(lp601
Vconj_but
p602
aVare-2
p603
aVtakes-12
p604
aa(lp605
Vdobj
p606
aVtakes-12
p607
aV2-13
p608
aa(lp609
Vprep_of
p610
aV2-13
p611
aVthem-15
p612
aa(lp613
Vconj_and
p614
aVtakes-12
p615
aVleaves-17
p616
aa(lp617
Vdobj
p618
aVleaves-17
p619
aVRoger-18
p620
aa(lp621
Vdet
p622
aVrest-21
p623
aVthe-20
p624
aa(lp625
Vprep_with
p626
aVRoger-18
p627
aVrest-21
p628
aasa(dp629
Vparsetree
p630
V(ROOT (SBARQ (SBAR (IN If) (S (NP (PRP he)) (VP (MD can) (VP (VB fit) (NP (CD 3) (NNS books)) (PP (IN on) (NP (DT a) (NN shelf))))))) (, ,) (WHNP (WHADJP (WRB how) (JJ many)) (NNS shelves)) (SQ (MD will) (NP (PRP he)) (VP (VB need))) (. ?)))
p631
sVtext
p632
VIf he can fit 3 books on a shelf , how many shelves will he need ?
p633
sVdependencies
p634
(lp635
(lp636
Vroot
p637
aVROOT
p638
aVneed
p639
aa(lp640
Vmark
p641
aVfit
p642
aVIf
p643
aa(lp644
Vnsubj
p645
aVfit
p646
aVhe
p647
aa(lp648
Vaux
p649
aVfit
p650
aVcan
p651
aa(lp652
Vadvcl
p653
aVneed
p654
aVfit
p655
aa(lp656
Vnum
p657
aVbooks
p658
aV3
p659
aa(lp660
Vdobj
p661
aVfit
p662
aVbooks
p663
aa(lp664
Vdet
p665
aVshelf
p666
ag261
aa(lp667
Vprep_on
p668
aVfit
p669
aVshelf
p670
aa(lp671
Vadvmod
p672
aVmany
p673
aVhow
p674
aa(lp675
Vamod
p676
aVshelves
p677
aVmany
p678
aa(lp679
Vdobj
p680
aVneed
p681
aVshelves
p682
aa(lp683
Vaux
p684
aVneed
p685
aVwill
p686
aa(lp687
Vnsubj
p688
aVneed
p689
aVhe
p690
aasVwords
p691
(lp692
(lp693
VIf
p694
a(dp695
VNamedEntityTag
p696
g78
sVCharacterOffsetEnd
p697
V153
p698
sVCharacterOffsetBegin
p699
V151
p700
sVPartOfSpeech
p701
VIN
p702
sVLemma
p703
Vif
p704
saa(lp705
Vhe
p706
a(dp707
VNamedEntityTag
p708
g78
sVCharacterOffsetEnd
p709
V156
p710
sVCharacterOffsetBegin
p711
V154
p712
sVPartOfSpeech
p713
VPRP
p714
sVLemma
p715
Vhe
p716
saa(lp717
Vcan
p718
a(dp719
VNamedEntityTag
p720
g78
sVCharacterOffsetEnd
p721
V160
p722
sVCharacterOffsetBegin
p723
V157
p724
sVPartOfSpeech
p725
VMD
p726
sVLemma
p727
Vcan
p728
saa(lp729
Vfit
p730
a(dp731
VNamedEntityTag
p732
g78
sVCharacterOffsetEnd
p733
V164
p734
sVCharacterOffsetBegin
p735
V161
p736
sVPartOfSpeech
p737
VVB
p738
sVLemma
p739
Vfit
p740
saa(lp741
g659
a(dp742
VNormalizedNamedEntityTag
p743
V3.0
p744
sVLemma
p745
g659
sVCharacterOffsetEnd
p746
V166
p747
sVPartOfSpeech
p748
VCD
p749
sVCharacterOffsetBegin
p750
V165
p751
sVNamedEntityTag
p752
VNUMBER
p753
saa(lp754
Vbooks
p755
a(dp756
VNamedEntityTag
p757
g78
sVCharacterOffsetEnd
p758
V172
p759
sVCharacterOffsetBegin
p760
V167
p761
sVPartOfSpeech
p762
VNNS
p763
sVLemma
p764
Vbook
p765
saa(lp766
Von
p767
a(dp768
VNamedEntityTag
p769
g78
sVCharacterOffsetEnd
p770
V175
p771
sVCharacterOffsetBegin
p772
V173
p773
sVPartOfSpeech
p774
VIN
p775
sVLemma
p776
Von
p777
saa(lp778
g261
a(dp779
VNamedEntityTag
p780
g78
sVCharacterOffsetEnd
p781
V177
p782
sVCharacterOffsetBegin
p783
V176
p784
sVPartOfSpeech
p785
VDT
p786
sVLemma
p787
g261
saa(lp788
Vshelf
p789
a(dp790
VNamedEntityTag
p791
g78
sVCharacterOffsetEnd
p792
V183
p793
sVCharacterOffsetBegin
p794
V178
p795
sVPartOfSpeech
p796
VNN
p797
sVLemma
p798
Vshelf
p799
saa(lp800
V,
p801
a(dp802
VNamedEntityTag
p803
g78
sVCharacterOffsetEnd
p804
V185
p805
sVCharacterOffsetBegin
p806
V184
p807
sVPartOfSpeech
p808
g801
sVLemma
p809
g801
saa(lp810
Vhow
p811
a(dp812
VNamedEntityTag
p813
g78
sVCharacterOffsetEnd
p814
V189
p815
sVCharacterOffsetBegin
p816
V186
p817
sVPartOfSpeech
p818
VWRB
p819
sVLemma
p820
Vhow
p821
saa(lp822
Vmany
p823
a(dp824
VNamedEntityTag
p825
g78
sVCharacterOffsetEnd
p826
V194
p827
sVCharacterOffsetBegin
p828
V190
p829
sVPartOfSpeech
p830
VJJ
p831
sVLemma
p832
Vmany
p833
saa(lp834
Vshelves
p835
a(dp836
VNamedEntityTag
p837
g78
sVCharacterOffsetEnd
p838
V202
p839
sVCharacterOffsetBegin
p840
V195
p841
sVPartOfSpeech
p842
VNNS
p843
sVLemma
p844
Vshelf
p845
saa(lp846
Vwill
p847
a(dp848
VNamedEntityTag
p849
g78
sVCharacterOffsetEnd
p850
V207
p851
sVCharacterOffsetBegin
p852
V203
p853
sVPartOfSpeech
p854
VMD
p855
sVLemma
p856
Vwill
p857
saa(lp858
Vhe
p859
a(dp860
VNamedEntityTag
p861
g78
sVCharacterOffsetEnd
p862
V210
p863
sVCharacterOffsetBegin
p864
V208
p865
sVPartOfSpeech
p866
VPRP
p867
sVLemma
p868
Vhe
p869
saa(lp870
Vneed
p871
a(dp872
VNamedEntityTag
p873
g78
sVCharacterOffsetEnd
p874
V215
p875
sVCharacterOffsetBegin
p876
V211
p877
sVPartOfSpeech
p878
VVB
p879
sVLemma
p880
Vneed
p881
saa(lp882
V?
p883
a(dp884
VNamedEntityTag
p885
g78
sVCharacterOffsetEnd
p886
V217
p887
sVCharacterOffsetBegin
p888
V216
p889
sVPartOfSpeech
p890
g172
sVLemma
p891
g883
saasVindexeddependencies
p892
(lp893
(lp894
Vroot
p895
aVROOT-0
p896
aVneed-16
p897
aa(lp898
Vmark
p899
aVfit-4
p900
aVIf-1
p901
aa(lp902
Vnsubj
p903
aVfit-4
p904
aVhe-2
p905
aa(lp906
Vaux
p907
aVfit-4
p908
aVcan-3
p909
aa(lp910
Vadvcl
p911
aVneed-16
p912
aVfit-4
p913
aa(lp914
Vnum
p915
aVbooks-6
p916
aV3-5
p917
aa(lp918
Vdobj
p919
aVfit-4
p920
aVbooks-6
p921
aa(lp922
Vdet
p923
aVshelf-9
p924
aVa-8
p925
aa(lp926
Vprep_on
p927
aVfit-4
p928
aVshelf-9
p929
aa(lp930
Vadvmod
p931
aVmany-12
p932
aVhow-11
p933
aa(lp934
Vamod
p935
aVshelves-13
p936
aVmany-12
p937
aa(lp938
Vdobj
p939
aVneed-16
p940
aVshelves-13
p941
aa(lp942
Vaux
p943
aVneed-16
p944
aVwill-14
p945
aa(lp946
Vnsubj
p947
aVneed-16
p948
aVhe-15
p949
aasas.