(dp0
Vcoref
p1
(lp2
(lp3
(lp4
(lp5
Vhe
p6
aI1
aI1
aI1
aI2
aa(lp7
VMike
p8
aI0
aI0
aI0
aI1
aaa(lp9
(lp10
Vhe
p11
aI1
aI16
aI16
aI17
aa(lp12
VMike
p13
aI0
aI0
aI0
aI1
aaa(lp14
(lp15
Vhe
p16
aI1
aI21
aI21
aI22
aa(lp17
VMike
p18
aI0
aI0
aI0
aI1
aaaasVsentences
p19
(lp20
(dp21
Vparsetree
p22
V(ROOT (S (NP (NNP Mike)) (VP (VBD made) (NP (CD 69) (NNS dollars) (VBG mowing) (NNS lawns)) (PP (IN over) (NP (DT the) (NN summer)))) (. .)))
p23
sVtext
p24
VMike made 69 dollars mowing lawns over the summer .
p25
sVdependencies
p26
(lp27
(lp28
Vroot
p29
aVROOT
p30
aVmade
p31
aa(lp32
Vnsubj
p33
aVmade
p34
aVMike
p35
aa(lp36
Vnum
p37
aVlawns
p38
aV69
p39
aa(lp40
Vnn
p41
aVlawns
p42
aVdollars
p43
aa(lp44
Vamod
p45
aVlawns
p46
aVmowing
p47
aa(lp48
Vdobj
p49
aVmade
p50
aVlawns
p51
aa(lp52
Vdet
p53
aVsummer
p54
aVthe
p55
aa(lp56
Vprep_over
p57
aVmade
p58
aVsummer
p59
aasVwords
p60
(lp61
(lp62
VMike
p63
a(dp64
VNamedEntityTag
p65
VPERSON
p66
sVCharacterOffsetEnd
p67
V5
p68
sVCharacterOffsetBegin
p69
V1
p70
sVPartOfSpeech
p71
VNNP
p72
sVLemma
p73
VMike
p74
saa(lp75
Vmade
p76
a(dp77
VNamedEntityTag
p78
VO
p79
sVCharacterOffsetEnd
p80
V10
p81
sVCharacterOffsetBegin
p82
V6
p83
sVPartOfSpeech
p84
VVBD
p85
sVLemma
p86
Vmake
p87
saa(lp88
V69
p89
a(dp90
VNormalizedNamedEntityTag
p91
V$69.0
p92
sVLemma
p93
V69
p94
sVCharacterOffsetEnd
p95
V13
p96
sVPartOfSpeech
p97
VCD
p98
sVCharacterOffsetBegin
p99
V11
p100
sVNamedEntityTag
p101
VMONEY
p102
saa(lp103
Vdollars
p104
a(dp105
VNormalizedNamedEntityTag
p106
V$69.0
p107
sVLemma
p108
Vdollar
p109
sVCharacterOffsetEnd
p110
V21
p111
sVPartOfSpeech
p112
VNNS
p113
sVCharacterOffsetBegin
p114
V14
p115
sVNamedEntityTag
p116
VMONEY
p117
saa(lp118
Vmowing
p119
a(dp120
VNamedEntityTag
p121
g79
sVCharacterOffsetEnd
p122
V28
p123
sVCharacterOffsetBegin
p124
V22
p125
sVPartOfSpeech
p126
VVBG
p127
sVLemma
p128
Vmow
p129
saa(lp130
Vlawns
p131
a(dp132
VNamedEntityTag
p133
g79
sVCharacterOffsetEnd
p134
V34
p135
sVCharacterOffsetBegin
p136
V29
p137
sVPartOfSpeech
p138
VNNS
p139
sVLemma
p140
Vlawn
p141
saa(lp142
Vover
p143
a(dp144
VNamedEntityTag
p145
g79
sVCharacterOffsetEnd
p146
V39
p147
sVCharacterOffsetBegin
p148
V35
p149
sVPartOfSpeech
p150
VIN
p151
sVLemma
p152
Vover
p153
saa(lp154
Vthe
p155
a(dp156
VNamedEntityTag
p157
g79
sVCharacterOffsetEnd
p158
V43
p159
sVCharacterOffsetBegin
p160
V40
p161
sVPartOfSpeech
p162
VDT
p163
sVLemma
p164
Vthe
p165
saa(lp166
Vsummer
p167
a(dp168
VNormalizedNamedEntityTag
p169
VXXXX-SU
p170
sVTimex
p171
V<TIMEX3 tid="t1" type="DATE" value="XXXX-SU">summer</TIMEX3>
p172
sVLemma
p173
Vsummer
p174
sVCharacterOffsetEnd
p175
V50
p176
sVPartOfSpeech
p177
VNN
p178
sVCharacterOffsetBegin
p179
V44
p180
sVNamedEntityTag
p181
VDATE
p182
saa(lp183
V.
p184
a(dp185
VNamedEntityTag
p186
g79
sVCharacterOffsetEnd
p187
V52
p188
sVCharacterOffsetBegin
p189
V51
p190
sVPartOfSpeech
p191
g184
sVLemma
p192
g184
saasVindexeddependencies
p193
(lp194
(lp195
Vroot
p196
aVROOT-0
p197
aVmade-2
p198
aa(lp199
Vnsubj
p200
aVmade-2
p201
aVMike-1
p202
aa(lp203
Vnum
p204
aVlawns-6
p205
aV69-3
p206
aa(lp207
Vnn
p208
aVlawns-6
p209
aVdollars-4
p210
aa(lp211
Vamod
p212
aVlawns-6
p213
aVmowing-5
p214
aa(lp215
Vdobj
p216
aVmade-2
p217
aVlawns-6
p218
aa(lp219
Vdet
p220
aVsummer-9
p221
aVthe-8
p222
aa(lp223
Vprep_over
p224
aVmade-2
p225
aVsummer-9
p226
aasa(dp227
Vparsetree
p228
V(ROOT (SBARQ (SBAR (IN If) (S (NP (PRP he)) (VP (VBD spent) (NP (NP (CD 24) (NNS dollars)) (VP (VBG buying) (NP (JJ new) (NN mower) (NNS blades))))))) (, ,) (WHNP (WHADJP (WRB how) (JJ many)) (NP (NP (CD 5) (NN dollar)) (NP (NNS games)))) (SQ (MD could) (NP (PRP he)) (VP (VB buy) (PP (IN with) (NP (NP (DT the) (NN money)) (SBAR (S (NP (PRP he)) (VP (VBD had) (VP (VBN left))))))))) (. ?)))
p229
sVtext
p230
VIf he spent 24 dollars buying new mower blades , how many 5 dollar games could he buy with the money he had left ?
p231
sVdependencies
p232
(lp233
(lp234
Vroot
p235
aVROOT
p236
aVbuy
p237
aa(lp238
Vmark
p239
aVspent
p240
aVIf
p241
aa(lp242
Vnsubj
p243
aVspent
p244
aVhe
p245
aa(lp246
Vadvcl
p247
aVbuy
p248
aVspent
p249
aa(lp250
Vnum
p251
aVdollars
p252
aV24
p253
aa(lp254
Vdobj
p255
aVspent
p256
aVdollars
p257
aa(lp258
Vvmod
p259
aVdollars
p260
aVbuying
p261
aa(lp262
Vamod
p263
aVblades
p264
aVnew
p265
aa(lp266
Vnn
p267
aVblades
p268
aVmower
p269
aa(lp270
Vdobj
p271
aVbuying
p272
aVblades
p273
aa(lp274
Vadvmod
p275
aVmany
p276
aVhow
p277
aa(lp278
Vamod
p279
aVdollar
p280
aVmany
p281
aa(lp282
Vnum
p283
aVdollar
p284
ag68
aa(lp285
Vdobj
p286
aVbuy
p287
aVdollar
p288
aa(lp289
Vdep
p290
aVdollar
p291
aVgames
p292
aa(lp293
Vaux
p294
aVbuy
p295
aVcould
p296
aa(lp297
Vnsubj
p298
aVbuy
p299
aVhe
p300
aa(lp301
Vdet
p302
aVmoney
p303
aVthe
p304
aa(lp305
Vprep_with
p306
aVbuy
p307
aVmoney
p308
aa(lp309
Vnsubj
p310
aVleft
p311
aVhe
p312
aa(lp313
Vaux
p314
aVleft
p315
aVhad
p316
aa(lp317
Vrcmod
p318
aVmoney
p319
aVleft
p320
aasVwords
p321
(lp322
(lp323
VIf
p324
a(dp325
VNamedEntityTag
p326
g79
sVCharacterOffsetEnd
p327
V55
p328
sVCharacterOffsetBegin
p329
V53
p330
sVPartOfSpeech
p331
VIN
p332
sVLemma
p333
Vif
p334
saa(lp335
Vhe
p336
a(dp337
VNamedEntityTag
p338
g79
sVCharacterOffsetEnd
p339
V58
p340
sVCharacterOffsetBegin
p341
V56
p342
sVPartOfSpeech
p343
VPRP
p344
sVLemma
p345
Vhe
p346
saa(lp347
Vspent
p348
a(dp349
VNamedEntityTag
p350
g79
sVCharacterOffsetEnd
p351
V64
p352
sVCharacterOffsetBegin
p353
V59
p354
sVPartOfSpeech
p355
VVBD
p356
sVLemma
p357
Vspend
p358
saa(lp359
V24
p360
a(dp361
VNormalizedNamedEntityTag
p362
V$24.0
p363
sVLemma
p364
V24
p365
sVCharacterOffsetEnd
p366
V67
p367
sVPartOfSpeech
p368
VCD
p369
sVCharacterOffsetBegin
p370
V65
p371
sVNamedEntityTag
p372
VMONEY
p373
saa(lp374
Vdollars
p375
a(dp376
VNormalizedNamedEntityTag
p377
V$24.0
p378
sVLemma
p379
Vdollar
p380
sVCharacterOffsetEnd
p381
V75
p382
sVPartOfSpeech
p383
VNNS
p384
sVCharacterOffsetBegin
p385
V68
p386
sVNamedEntityTag
p387
VMONEY
p388
saa(lp389
Vbuying
p390
a(dp391
VNamedEntityTag
p392
g79
sVCharacterOffsetEnd
p393
V82
p394
sVCharacterOffsetBegin
p395
V76
p396
sVPartOfSpeech
p397
VVBG
p398
sVLemma
p399
Vbuy
p400
saa(lp401
Vnew
p402
a(dp403
VNamedEntityTag
p404
g79
sVCharacterOffsetEnd
p405
V86
p406
sVCharacterOffsetBegin
p407
V83
p408
sVPartOfSpeech
p409
VJJ
p410
sVLemma
p411
Vnew
p412
saa(lp413
Vmower
p414
a(dp415
VNamedEntityTag
p416
g79
sVCharacterOffsetEnd
p417
V92
p418
sVCharacterOffsetBegin
p419
V87
p420
sVPartOfSpeech
p421
VNN
p422
sVLemma
p423
Vmower
p424
saa(lp425
Vblades
p426
a(dp427
VNamedEntityTag
p428
g79
sVCharacterOffsetEnd
p429
V99
p430
sVCharacterOffsetBegin
p431
V93
p432
sVPartOfSpeech
p433
VNNS
p434
sVLemma
p435
Vblade
p436
saa(lp437
V,
p438
a(dp439
VNamedEntityTag
p440
g79
sVCharacterOffsetEnd
p441
V101
p442
sVCharacterOffsetBegin
p443
V100
p444
sVPartOfSpeech
p445
g438
sVLemma
p446
g438
saa(lp447
Vhow
p448
a(dp449
VNamedEntityTag
p450
g79
sVCharacterOffsetEnd
p451
V105
p452
sVCharacterOffsetBegin
p453
V102
p454
sVPartOfSpeech
p455
VWRB
p456
sVLemma
p457
Vhow
p458
saa(lp459
Vmany
p460
a(dp461
VNamedEntityTag
p462
g79
sVCharacterOffsetEnd
p463
V110
p464
sVCharacterOffsetBegin
p465
V106
p466
sVPartOfSpeech
p467
VJJ
p468
sVLemma
p469
Vmany
p470
saa(lp471
g68
a(dp472
VNormalizedNamedEntityTag
p473
V$5.0
p474
sVLemma
p475
g68
sVCharacterOffsetEnd
p476
V112
p477
sVPartOfSpeech
p478
VCD
p479
sVCharacterOffsetBegin
p480
V111
p481
sVNamedEntityTag
p482
VMONEY
p483
saa(lp484
Vdollar
p485
a(dp486
VNormalizedNamedEntityTag
p487
V$5.0
p488
sVLemma
p489
Vdollar
p490
sVCharacterOffsetEnd
p491
V119
p492
sVPartOfSpeech
p493
VNN
p494
sVCharacterOffsetBegin
p495
V113
p496
sVNamedEntityTag
p497
VMONEY
p498
saa(lp499
Vgames
p500
a(dp501
VNamedEntityTag
p502
g79
sVCharacterOffsetEnd
p503
V125
p504
sVCharacterOffsetBegin
p505
V120
p506
sVPartOfSpeech
p507
VNNS
p508
sVLemma
p509
Vgame
p510
saa(lp511
Vcould
p512
a(dp513
VNamedEntityTag
p514
g79
sVCharacterOffsetEnd
p515
V131
p516
sVCharacterOffsetBegin
p517
V126
p518
sVPartOfSpeech
p519
VMD
p520
sVLemma
p521
Vcould
p522
saa(lp523
Vhe
p524
a(dp525
VNamedEntityTag
p526
g79
sVCharacterOffsetEnd
p527
V134
p528
sVCharacterOffsetBegin
p529
V132
p530
sVPartOfSpeech
p531
VPRP
p532
sVLemma
p533
Vhe
p534
saa(lp535
Vbuy
p536
a(dp537
VNamedEntityTag
p538
g79
sVCharacterOffsetEnd
p539
V138
p540
sVCharacterOffsetBegin
p541
V135
p542
sVPartOfSpeech
p543
VVB
p544
sVLemma
p545
Vbuy
p546
saa(lp547
Vwith
p548
a(dp549
VNamedEntityTag
p550
g79
sVCharacterOffsetEnd
p551
V143
p552
sVCharacterOffsetBegin
p553
V139
p554
sVPartOfSpeech
p555
VIN
p556
sVLemma
p557
Vwith
p558
saa(lp559
Vthe
p560
a(dp561
VNamedEntityTag
p562
g79
sVCharacterOffsetEnd
p563
V147
p564
sVCharacterOffsetBegin
p565
V144
p566
sVPartOfSpeech
p567
VDT
p568
sVLemma
p569
Vthe
p570
saa(lp571
Vmoney
p572
a(dp573
VNamedEntityTag
p574
g79
sVCharacterOffsetEnd
p575
V153
p576
sVCharacterOffsetBegin
p577
V148
p578
sVPartOfSpeech
p579
VNN
p580
sVLemma
p581
Vmoney
p582
saa(lp583
Vhe
p584
a(dp585
VNamedEntityTag
p586
g79
sVCharacterOffsetEnd
p587
V156
p588
sVCharacterOffsetBegin
p589
V154
p590
sVPartOfSpeech
p591
VPRP
p592
sVLemma
p593
Vhe
p594
saa(lp595
Vhad
p596
a(dp597
VNamedEntityTag
p598
g79
sVCharacterOffsetEnd
p599
V160
p600
sVCharacterOffsetBegin
p601
V157
p602
sVPartOfSpeech
p603
VVBD
p604
sVLemma
p605
Vhave
p606
saa(lp607
Vleft
p608
a(dp609
VNamedEntityTag
p610
g79
sVCharacterOffsetEnd
p611
V165
p612
sVCharacterOffsetBegin
p613
V161
p614
sVPartOfSpeech
p615
VVBN
p616
sVLemma
p617
Vleave
p618
saa(lp619
V?
p620
a(dp621
VNamedEntityTag
p622
g79
sVCharacterOffsetEnd
p623
V167
p624
sVCharacterOffsetBegin
p625
V166
p626
sVPartOfSpeech
p627
g184
sVLemma
p628
g620
saasVindexeddependencies
p629
(lp630
(lp631
Vroot
p632
aVROOT-0
p633
aVbuy-18
p634
aa(lp635
Vmark
p636
aVspent-3
p637
aVIf-1
p638
aa(lp639
Vnsubj
p640
aVspent-3
p641
aVhe-2
p642
aa(lp643
Vadvcl
p644
aVbuy-18
p645
aVspent-3
p646
aa(lp647
Vnum
p648
aVdollars-5
p649
aV24-4
p650
aa(lp651
Vdobj
p652
aVspent-3
p653
aVdollars-5
p654
aa(lp655
Vvmod
p656
aVdollars-5
p657
aVbuying-6
p658
aa(lp659
Vamod
p660
aVblades-9
p661
aVnew-7
p662
aa(lp663
Vnn
p664
aVblades-9
p665
aVmower-8
p666
aa(lp667
Vdobj
p668
aVbuying-6
p669
aVblades-9
p670
aa(lp671
Vadvmod
p672
aVmany-12
p673
aVhow-11
p674
aa(lp675
Vamod
p676
aVdollar-14
p677
aVmany-12
p678
aa(lp679
Vnum
p680
aVdollar-14
p681
aV5-13
p682
aa(lp683
Vdobj
p684
aVbuy-18
p685
aVdollar-14
p686
aa(lp687
Vdep
p688
aVdollar-14
p689
aVgames-15
p690
aa(lp691
Vaux
p692
aVbuy-18
p693
aVcould-16
p694
aa(lp695
Vnsubj
p696
aVbuy-18
p697
aVhe-17
p698
aa(lp699
Vdet
p700
aVmoney-21
p701
aVthe-20
p702
aa(lp703
Vprep_with
p704
aVbuy-18
p705
aVmoney-21
p706
aa(lp707
Vnsubj
p708
aVleft-24
p709
aVhe-22
p710
aa(lp711
Vaux
p712
aVleft-24
p713
aVhad-23
p714
aa(lp715
Vrcmod
p716
aVmoney-21
p717
aVleft-24
p718
aasas.