(dp0
Vcoref
p1
(lp2
(lp3
(lp4
(lp5
Vhe
p6
aI1
aI16
aI16
aI17
aa(lp7
Vhe
p8
aI1
aI1
aI1
aI2
aaa(lp9
(lp10
Vhe
p11
aI1
aI21
aI21
aI22
aa(lp12
Vhe
p13
aI1
aI1
aI1
aI2
aaaasVsentences
p14
(lp15
(dp16
Vparsetree
p17
V(ROOT (S (VP (MD Will) (VP (VBD made) (NP (CD 104) (NNS dollars) (VBG mowing) (NNS lawns)) (PP (IN over) (NP (DT the) (NN summer))))) (. .)))
p18
sVtext
p19
VWill made 104 dollars mowing lawns over the summer .
p20
sVdependencies
p21
(lp22
(lp23
Vroot
p24
aVROOT
p25
aVmade
p26
aa(lp27
Vaux
p28
aVmade
p29
aVWill
p30
aa(lp31
Vnum
p32
aVlawns
p33
aV104
p34
aa(lp35
Vnn
p36
aVlawns
p37
aVdollars
p38
aa(lp39
Vamod
p40
aVlawns
p41
aVmowing
p42
aa(lp43
Vdobj
p44
aVmade
p45
aVlawns
p46
aa(lp47
Vdet
p48
aVsummer
p49
aVthe
p50
aa(lp51
Vprep_over
p52
aVmade
p53
aVsummer
p54
aasVwords
p55
(lp56
(lp57
VWill
p58
a(dp59
VNamedEntityTag
p60
VO
p61
sVCharacterOffsetEnd
p62
V5
p63
sVCharacterOffsetBegin
p64
V1
p65
sVPartOfSpeech
p66
VMD
p67
sVLemma
p68
Vwill
p69
saa(lp70
Vmade
p71
a(dp72
VNamedEntityTag
p73
g61
sVCharacterOffsetEnd
p74
V10
p75
sVCharacterOffsetBegin
p76
V6
p77
sVPartOfSpeech
p78
VVBD
p79
sVLemma
p80
Vmake
p81
saa(lp82
V104
p83
a(dp84
VNormalizedNamedEntityTag
p85
V$104.0
p86
sVLemma
p87
V104
p88
sVCharacterOffsetEnd
p89
V14
p90
sVPartOfSpeech
p91
VCD
p92
sVCharacterOffsetBegin
p93
V11
p94
sVNamedEntityTag
p95
VMONEY
p96
saa(lp97
Vdollars
p98
a(dp99
VNormalizedNamedEntityTag
p100
V$104.0
p101
sVLemma
p102
Vdollar
p103
sVCharacterOffsetEnd
p104
V22
p105
sVPartOfSpeech
p106
VNNS
p107
sVCharacterOffsetBegin
p108
V15
p109
sVNamedEntityTag
p110
VMONEY
p111
saa(lp112
Vmowing
p113
a(dp114
VNamedEntityTag
p115
g61
sVCharacterOffsetEnd
p116
V29
p117
sVCharacterOffsetBegin
p118
V23
p119
sVPartOfSpeech
p120
VVBG
p121
sVLemma
p122
Vmow
p123
saa(lp124
Vlawns
p125
a(dp126
VNamedEntityTag
p127
g61
sVCharacterOffsetEnd
p128
V35
p129
sVCharacterOffsetBegin
p130
V30
p131
sVPartOfSpeech
p132
VNNS
p133
sVLemma
p134
Vlawn
p135
saa(lp136
Vover
p137
a(dp138
VNamedEntityTag
p139
g61
sVCharacterOffsetEnd
p140
V40
p141
sVCharacterOffsetBegin
p142
V36
p143
sVPartOfSpeech
p144
VIN
p145
sVLemma
p146
Vover
p147
saa(lp148
Vthe
p149
a(dp150
VNamedEntityTag
p151
g61
sVCharacterOffsetEnd
p152
V44
p153
sVCharacterOffsetBegin
p154
V41
p155
sVPartOfSpeech
p156
VDT
p157
sVLemma
p158
Vthe
p159
saa(lp160
Vsummer
p161
a(dp162
VNormalizedNamedEntityTag
p163
VXXXX-SU
p164
sVTimex
p165
V<TIMEX3 tid="t1" type="DATE" value="XXXX-SU">summer</TIMEX3>
p166
sVLemma
p167
Vsummer
p168
sVCharacterOffsetEnd
p169
V51
p170
sVPartOfSpeech
p171
VNN
p172
sVCharacterOffsetBegin
p173
V45
p174
sVNamedEntityTag
p175
VDATE
p176
saa(lp177
V.
p178
a(dp179
VNamedEntityTag
p180
g61
sVCharacterOffsetEnd
p181
V53
p182
sVCharacterOffsetBegin
p183
V52
p184
sVPartOfSpeech
p185
g178
sVLemma
p186
g178
saasVindexeddependencies
p187
(lp188
(lp189
Vroot
p190
aVROOT-0
p191
aVmade-2
p192
aa(lp193
Vaux
p194
aVmade-2
p195
aVWill-1
p196
aa(lp197
Vnum
p198
aVlawns-6
p199
aV104-3
p200
aa(lp201
Vnn
p202
aVlawns-6
p203
aVdollars-4
p204
aa(lp205
Vamod
p206
aVlawns-6
p207
aVmowing-5
p208
aa(lp209
Vdobj
p210
aVmade-2
p211
aVlawns-6
p212
aa(lp213
Vdet
p214
aVsummer-9
p215
aVthe-8
p216
aa(lp217
Vprep_over
p218
aVmade-2
p219
aVsummer-9
p220
aasa(dp221
Vparsetree
p222
V(ROOT (SBARQ (SBAR (IN If) (S (NP (PRP he)) (VP (VBD spent) (NP (NP (CD 41) (NNS dollars)) (VP (VBG buying) (NP (JJ new) (NN mower) (NNS blades))))))) (, ,) (WHNP (WHADJP (WRB how) (JJ many)) (NP (NP (CD 9) (NN dollar)) (NP (NNS games)))) (SQ (MD could) (NP (PRP he)) (VP (VB buy) (PP (IN with) (NP (NP (DT the) (NN money)) (SBAR (S (NP (PRP he)) (VP (VBD had) (VP (VBN left))))))))) (. ?)))
p223
sVtext
p224
VIf he spent 41 dollars buying new mower blades , how many 9 dollar games could he buy with the money he had left ?
p225
sVdependencies
p226
(lp227
(lp228
Vroot
p229
aVROOT
p230
aVbuy
p231
aa(lp232
Vmark
p233
aVspent
p234
aVIf
p235
aa(lp236
Vnsubj
p237
aVspent
p238
aVhe
p239
aa(lp240
Vadvcl
p241
aVbuy
p242
aVspent
p243
aa(lp244
Vnum
p245
aVdollars
p246
aV41
p247
aa(lp248
Vdobj
p249
aVspent
p250
aVdollars
p251
aa(lp252
Vvmod
p253
aVdollars
p254
aVbuying
p255
aa(lp256
Vamod
p257
aVblades
p258
aVnew
p259
aa(lp260
Vnn
p261
aVblades
p262
aVmower
p263
aa(lp264
Vdobj
p265
aVbuying
p266
aVblades
p267
aa(lp268
Vadvmod
p269
aVmany
p270
aVhow
p271
aa(lp272
Vamod
p273
aVdollar
p274
aVmany
p275
aa(lp276
Vnum
p277
aVdollar
p278
aV9
p279
aa(lp280
Vdobj
p281
aVbuy
p282
aVdollar
p283
aa(lp284
Vdep
p285
aVdollar
p286
aVgames
p287
aa(lp288
Vaux
p289
aVbuy
p290
aVcould
p291
aa(lp292
Vnsubj
p293
aVbuy
p294
aVhe
p295
aa(lp296
Vdet
p297
aVmoney
p298
aVthe
p299
aa(lp300
Vprep_with
p301
aVbuy
p302
aVmoney
p303
aa(lp304
Vnsubj
p305
aVleft
p306
aVhe
p307
aa(lp308
Vaux
p309
aVleft
p310
aVhad
p311
aa(lp312
Vrcmod
p313
aVmoney
p314
aVleft
p315
aasVwords
p316
(lp317
(lp318
VIf
p319
a(dp320
VNamedEntityTag
p321
g61
sVCharacterOffsetEnd
p322
V56
p323
sVCharacterOffsetBegin
p324
V54
p325
sVPartOfSpeech
p326
VIN
p327
sVLemma
p328
Vif
p329
saa(lp330
Vhe
p331
a(dp332
VNamedEntityTag
p333
g61
sVCharacterOffsetEnd
p334
V59
p335
sVCharacterOffsetBegin
p336
V57
p337
sVPartOfSpeech
p338
VPRP
p339
sVLemma
p340
Vhe
p341
saa(lp342
Vspent
p343
a(dp344
VNamedEntityTag
p345
g61
sVCharacterOffsetEnd
p346
V65
p347
sVCharacterOffsetBegin
p348
V60
p349
sVPartOfSpeech
p350
VVBD
p351
sVLemma
p352
Vspend
p353
saa(lp354
V41
p355
a(dp356
VNormalizedNamedEntityTag
p357
V$41.0
p358
sVLemma
p359
V41
p360
sVCharacterOffsetEnd
p361
V68
p362
sVPartOfSpeech
p363
VCD
p364
sVCharacterOffsetBegin
p365
V66
p366
sVNamedEntityTag
p367
VMONEY
p368
saa(lp369
Vdollars
p370
a(dp371
VNormalizedNamedEntityTag
p372
V$41.0
p373
sVLemma
p374
Vdollar
p375
sVCharacterOffsetEnd
p376
V76
p377
sVPartOfSpeech
p378
VNNS
p379
sVCharacterOffsetBegin
p380
V69
p381
sVNamedEntityTag
p382
VMONEY
p383
saa(lp384
Vbuying
p385
a(dp386
VNamedEntityTag
p387
g61
sVCharacterOffsetEnd
p388
V83
p389
sVCharacterOffsetBegin
p390
V77
p391
sVPartOfSpeech
p392
VVBG
p393
sVLemma
p394
Vbuy
p395
saa(lp396
Vnew
p397
a(dp398
VNamedEntityTag
p399
g61
sVCharacterOffsetEnd
p400
V87
p401
sVCharacterOffsetBegin
p402
V84
p403
sVPartOfSpeech
p404
VJJ
p405
sVLemma
p406
Vnew
p407
saa(lp408
Vmower
p409
a(dp410
VNamedEntityTag
p411
g61
sVCharacterOffsetEnd
p412
V93
p413
sVCharacterOffsetBegin
p414
V88
p415
sVPartOfSpeech
p416
VNN
p417
sVLemma
p418
Vmower
p419
saa(lp420
Vblades
p421
a(dp422
VNamedEntityTag
p423
g61
sVCharacterOffsetEnd
p424
V100
p425
sVCharacterOffsetBegin
p426
V94
p427
sVPartOfSpeech
p428
VNNS
p429
sVLemma
p430
Vblade
p431
saa(lp432
V,
p433
a(dp434
VNamedEntityTag
p435
g61
sVCharacterOffsetEnd
p436
V102
p437
sVCharacterOffsetBegin
p438
V101
p439
sVPartOfSpeech
p440
g433
sVLemma
p441
g433
saa(lp442
Vhow
p443
a(dp444
VNamedEntityTag
p445
g61
sVCharacterOffsetEnd
p446
V106
p447
sVCharacterOffsetBegin
p448
V103
p449
sVPartOfSpeech
p450
VWRB
p451
sVLemma
p452
Vhow
p453
saa(lp454
Vmany
p455
a(dp456
VNamedEntityTag
p457
g61
sVCharacterOffsetEnd
p458
V111
p459
sVCharacterOffsetBegin
p460
V107
p461
sVPartOfSpeech
p462
VJJ
p463
sVLemma
p464
Vmany
p465
saa(lp466
g279
a(dp467
VNormalizedNamedEntityTag
p468
V$9.0
p469
sVLemma
p470
g279
sVCharacterOffsetEnd
p471
V113
p472
sVPartOfSpeech
p473
VCD
p474
sVCharacterOffsetBegin
p475
V112
p476
sVNamedEntityTag
p477
VMONEY
p478
saa(lp479
Vdollar
p480
a(dp481
VNormalizedNamedEntityTag
p482
V$9.0
p483
sVLemma
p484
Vdollar
p485
sVCharacterOffsetEnd
p486
V120
p487
sVPartOfSpeech
p488
VNN
p489
sVCharacterOffsetBegin
p490
V114
p491
sVNamedEntityTag
p492
VMONEY
p493
saa(lp494
Vgames
p495
a(dp496
VNamedEntityTag
p497
g61
sVCharacterOffsetEnd
p498
V126
p499
sVCharacterOffsetBegin
p500
V121
p501
sVPartOfSpeech
p502
VNNS
p503
sVLemma
p504
Vgame
p505
saa(lp506
Vcould
p507
a(dp508
VNamedEntityTag
p509
g61
sVCharacterOffsetEnd
p510
V132
p511
sVCharacterOffsetBegin
p512
V127
p513
sVPartOfSpeech
p514
VMD
p515
sVLemma
p516
Vcould
p517
saa(lp518
Vhe
p519
a(dp520
VNamedEntityTag
p521
g61
sVCharacterOffsetEnd
p522
V135
p523
sVCharacterOffsetBegin
p524
V133
p525
sVPartOfSpeech
p526
VPRP
p527
sVLemma
p528
Vhe
p529
saa(lp530
Vbuy
p531
a(dp532
VNamedEntityTag
p533
g61
sVCharacterOffsetEnd
p534
V139
p535
sVCharacterOffsetBegin
p536
V136
p537
sVPartOfSpeech
p538
VVB
p539
sVLemma
p540
Vbuy
p541
saa(lp542
Vwith
p543
a(dp544
VNamedEntityTag
p545
g61
sVCharacterOffsetEnd
p546
V144
p547
sVCharacterOffsetBegin
p548
V140
p549
sVPartOfSpeech
p550
VIN
p551
sVLemma
p552
Vwith
p553
saa(lp554
Vthe
p555
a(dp556
VNamedEntityTag
p557
g61
sVCharacterOffsetEnd
p558
V148
p559
sVCharacterOffsetBegin
p560
V145
p561
sVPartOfSpeech
p562
VDT
p563
sVLemma
p564
Vthe
p565
saa(lp566
Vmoney
p567
a(dp568
VNamedEntityTag
p569
g61
sVCharacterOffsetEnd
p570
V154
p571
sVCharacterOffsetBegin
p572
V149
p573
sVPartOfSpeech
p574
VNN
p575
sVLemma
p576
Vmoney
p577
saa(lp578
Vhe
p579
a(dp580
VNamedEntityTag
p581
g61
sVCharacterOffsetEnd
p582
V157
p583
sVCharacterOffsetBegin
p584
V155
p585
sVPartOfSpeech
p586
VPRP
p587
sVLemma
p588
Vhe
p589
saa(lp590
Vhad
p591
a(dp592
VNamedEntityTag
p593
g61
sVCharacterOffsetEnd
p594
V161
p595
sVCharacterOffsetBegin
p596
V158
p597
sVPartOfSpeech
p598
VVBD
p599
sVLemma
p600
Vhave
p601
saa(lp602
Vleft
p603
a(dp604
VNamedEntityTag
p605
g61
sVCharacterOffsetEnd
p606
V166
p607
sVCharacterOffsetBegin
p608
V162
p609
sVPartOfSpeech
p610
VVBN
p611
sVLemma
p612
Vleave
p613
saa(lp614
V?
p615
a(dp616
VNamedEntityTag
p617
g61
sVCharacterOffsetEnd
p618
V168
p619
sVCharacterOffsetBegin
p620
V167
p621
sVPartOfSpeech
p622
g178
sVLemma
p623
g615
saasVindexeddependencies
p624
(lp625
(lp626
Vroot
p627
aVROOT-0
p628
aVbuy-18
p629
aa(lp630
Vmark
p631
aVspent-3
p632
aVIf-1
p633
aa(lp634
Vnsubj
p635
aVspent-3
p636
aVhe-2
p637
aa(lp638
Vadvcl
p639
aVbuy-18
p640
aVspent-3
p641
aa(lp642
Vnum
p643
aVdollars-5
p644
aV41-4
p645
aa(lp646
Vdobj
p647
aVspent-3
p648
aVdollars-5
p649
aa(lp650
Vvmod
p651
aVdollars-5
p652
aVbuying-6
p653
aa(lp654
Vamod
p655
aVblades-9
p656
aVnew-7
p657
aa(lp658
Vnn
p659
aVblades-9
p660
aVmower-8
p661
aa(lp662
Vdobj
p663
aVbuying-6
p664
aVblades-9
p665
aa(lp666
Vadvmod
p667
aVmany-12
p668
aVhow-11
p669
aa(lp670
Vamod
p671
aVdollar-14
p672
aVmany-12
p673
aa(lp674
Vnum
p675
aVdollar-14
p676
aV9-13
p677
aa(lp678
Vdobj
p679
aVbuy-18
p680
aVdollar-14
p681
aa(lp682
Vdep
p683
aVdollar-14
p684
aVgames-15
p685
aa(lp686
Vaux
p687
aVbuy-18
p688
aVcould-16
p689
aa(lp690
Vnsubj
p691
aVbuy-18
p692
aVhe-17
p693
aa(lp694
Vdet
p695
aVmoney-21
p696
aVthe-20
p697
aa(lp698
Vprep_with
p699
aVbuy-18
p700
aVmoney-21
p701
aa(lp702
Vnsubj
p703
aVleft-24
p704
aVhe-22
p705
aa(lp706
Vaux
p707
aVleft-24
p708
aVhad-23
p709
aa(lp710
Vrcmod
p711
aVmoney-21
p712
aVleft-24
p713
aasas.