(dp0
Vcoref
p1
(lp2
(lp3
(lp4
(lp5
Vhis
p6
aI0
aI3
aI3
aI4
aa(lp7
VLuke
p8
aI0
aI0
aI0
aI1
aaa(lp9
(lp10
VHe
p11
aI1
aI0
aI0
aI1
aa(lp12
VLuke
p13
aI0
aI0
aI0
aI1
aaa(lp14
(lp15
VHe
p16
aI2
aI0
aI0
aI1
aa(lp17
VLuke
p18
aI0
aI0
aI0
aI1
aaa(lp19
(lp20
Vhe
p21
aI3
aI4
aI4
aI5
aa(lp22
VLuke
p23
aI0
aI0
aI0
aI1
aaaasVsentences
p24
(lp25
(dp26
Vparsetree
p27
V(ROOT (S (NP (NNP Luke)) (VP (VBD was) (VP (VBG selling) (NP (PRP$ his) (JJ old) (NNS games)))) (. .)))
p28
sVtext
p29
VLuke was selling his old games .
p30
sVdependencies
p31
(lp32
(lp33
Vroot
p34
aVROOT
p35
aVselling
p36
aa(lp37
Vnsubj
p38
aVselling
p39
aVLuke
p40
aa(lp41
Vaux
p42
aVselling
p43
aVwas
p44
aa(lp45
Vposs
p46
aVgames
p47
aVhis
p48
aa(lp49
Vamod
p50
aVgames
p51
aVold
p52
aa(lp53
Vdobj
p54
aVselling
p55
aVgames
p56
aasVwords
p57
(lp58
(lp59
VLuke
p60
a(dp61
VNamedEntityTag
p62
VPERSON
p63
sVCharacterOffsetEnd
p64
V5
p65
sVCharacterOffsetBegin
p66
V1
p67
sVPartOfSpeech
p68
VNNP
p69
sVLemma
p70
VLuke
p71
saa(lp72
Vwas
p73
a(dp74
VNamedEntityTag
p75
VO
p76
sVCharacterOffsetEnd
p77
V9
p78
sVCharacterOffsetBegin
p79
V6
p80
sVPartOfSpeech
p81
VVBD
p82
sVLemma
p83
Vbe
p84
saa(lp85
Vselling
p86
a(dp87
VNamedEntityTag
p88
g76
sVCharacterOffsetEnd
p89
V17
p90
sVCharacterOffsetBegin
p91
V10
p92
sVPartOfSpeech
p93
VVBG
p94
sVLemma
p95
Vsell
p96
saa(lp97
Vhis
p98
a(dp99
VNamedEntityTag
p100
g76
sVCharacterOffsetEnd
p101
V21
p102
sVCharacterOffsetBegin
p103
V18
p104
sVPartOfSpeech
p105
VPRP$
p106
sVLemma
p107
Vhe
p108
saa(lp109
Vold
p110
a(dp111
VNamedEntityTag
p112
g76
sVCharacterOffsetEnd
p113
V25
p114
sVCharacterOffsetBegin
p115
V22
p116
sVPartOfSpeech
p117
VJJ
p118
sVLemma
p119
Vold
p120
saa(lp121
Vgames
p122
a(dp123
VNamedEntityTag
p124
g76
sVCharacterOffsetEnd
p125
V31
p126
sVCharacterOffsetBegin
p127
V26
p128
sVPartOfSpeech
p129
VNNS
p130
sVLemma
p131
Vgame
p132
saa(lp133
V.
p134
a(dp135
VNamedEntityTag
p136
g76
sVCharacterOffsetEnd
p137
V33
p138
sVCharacterOffsetBegin
p139
V32
p140
sVPartOfSpeech
p141
g134
sVLemma
p142
g134
saasVindexeddependencies
p143
(lp144
(lp145
Vroot
p146
aVROOT-0
p147
aVselling-3
p148
aa(lp149
Vnsubj
p150
aVselling-3
p151
aVLuke-1
p152
aa(lp153
Vaux
p154
aVselling-3
p155
aVwas-2
p156
aa(lp157
Vposs
p158
aVgames-6
p159
aVhis-4
p160
aa(lp161
Vamod
p162
aVgames-6
p163
aVold-5
p164
aa(lp165
Vdobj
p166
aVselling-3
p167
aVgames-6
p168
aasa(dp169
Vparsetree
p170
V(ROOT (S (NP (PRP He)) (VP (VP (VBD started) (PRT (RP out)) (PP (IN with) (NP (CD 57)))) (CC but) (VP (VBD sold) (NP (NP (CD 39)) (PP (IN of) (NP (PRP them)))))) (. .)))
p171
sVtext
p172
VHe started out with 57 but sold 39 of them .
p173
sVdependencies
p174
(lp175
(lp176
Vroot
p177
aVROOT
p178
aVstarted
p179
aa(lp180
Vnsubj
p181
aVstarted
p182
aVHe
p183
aa(lp184
Vprt
p185
aVstarted
p186
aVout
p187
aa(lp188
Vprep_with
p189
aVstarted
p190
aV57
p191
aa(lp192
Vconj_but
p193
aVstarted
p194
aVsold
p195
aa(lp196
Vdobj
p197
aVsold
p198
aV39
p199
aa(lp200
Vprep_of
p201
aV39
p202
aVthem
p203
aasVwords
p204
(lp205
(lp206
VHe
p207
a(dp208
VNamedEntityTag
p209
g76
sVCharacterOffsetEnd
p210
V36
p211
sVCharacterOffsetBegin
p212
V34
p213
sVPartOfSpeech
p214
VPRP
p215
sVLemma
p216
Vhe
p217
saa(lp218
Vstarted
p219
a(dp220
VNamedEntityTag
p221
g76
sVCharacterOffsetEnd
p222
V44
p223
sVCharacterOffsetBegin
p224
V37
p225
sVPartOfSpeech
p226
VVBD
p227
sVLemma
p228
Vstart
p229
saa(lp230
Vout
p231
a(dp232
VNamedEntityTag
p233
g76
sVCharacterOffsetEnd
p234
V48
p235
sVCharacterOffsetBegin
p236
V45
p237
sVPartOfSpeech
p238
VRP
p239
sVLemma
p240
Vout
p241
saa(lp242
Vwith
p243
a(dp244
VNamedEntityTag
p245
g76
sVCharacterOffsetEnd
p246
V53
p247
sVCharacterOffsetBegin
p248
V49
p249
sVPartOfSpeech
p250
VIN
p251
sVLemma
p252
Vwith
p253
saa(lp254
V57
p255
a(dp256
VNormalizedNamedEntityTag
p257
V57.0
p258
sVLemma
p259
V57
p260
sVCharacterOffsetEnd
p261
V56
p262
sVPartOfSpeech
p263
VCD
p264
sVCharacterOffsetBegin
p265
V54
p266
sVNamedEntityTag
p267
VNUMBER
p268
saa(lp269
Vbut
p270
a(dp271
VNamedEntityTag
p272
g76
sVCharacterOffsetEnd
p273
V60
p274
sVCharacterOffsetBegin
p275
V57
p276
sVPartOfSpeech
p277
VCC
p278
sVLemma
p279
Vbut
p280
saa(lp281
Vsold
p282
a(dp283
VNamedEntityTag
p284
g76
sVCharacterOffsetEnd
p285
V65
p286
sVCharacterOffsetBegin
p287
V61
p288
sVPartOfSpeech
p289
VVBD
p290
sVLemma
p291
Vsell
p292
saa(lp293
V39
p294
a(dp295
VNormalizedNamedEntityTag
p296
V39.0
p297
sVLemma
p298
V39
p299
sVCharacterOffsetEnd
p300
V68
p301
sVPartOfSpeech
p302
VCD
p303
sVCharacterOffsetBegin
p304
V66
p305
sVNamedEntityTag
p306
VNUMBER
p307
saa(lp308
Vof
p309
a(dp310
VNamedEntityTag
p311
g76
sVCharacterOffsetEnd
p312
V71
p313
sVCharacterOffsetBegin
p314
V69
p315
sVPartOfSpeech
p316
VIN
p317
sVLemma
p318
Vof
p319
saa(lp320
Vthem
p321
a(dp322
VNamedEntityTag
p323
g76
sVCharacterOffsetEnd
p324
V76
p325
sVCharacterOffsetBegin
p326
V72
p327
sVPartOfSpeech
p328
VPRP
p329
sVLemma
p330
Vthey
p331
saa(lp332
g134
a(dp333
VNamedEntityTag
p334
g76
sVCharacterOffsetEnd
p335
V78
p336
sVCharacterOffsetBegin
p337
V77
p338
sVPartOfSpeech
p339
g134
sVLemma
p340
g134
saasVindexeddependencies
p341
(lp342
(lp343
Vroot
p344
aVROOT-0
p345
aVstarted-2
p346
aa(lp347
Vnsubj
p348
aVstarted-2
p349
aVHe-1
p350
aa(lp351
Vprt
p352
aVstarted-2
p353
aVout-3
p354
aa(lp355
Vprep_with
p356
aVstarted-2
p357
aV57-5
p358
aa(lp359
Vconj_but
p360
aVstarted-2
p361
aVsold-7
p362
aa(lp363
Vdobj
p364
aVsold-7
p365
aV39-8
p366
aa(lp367
Vprep_of
p368
aV39-8
p369
aVthem-10
p370
aasa(dp371
Vparsetree
p372
V(ROOT (S (NP (PRP He)) (VP (VBD packed) (NP (DT the) (NN rest)) (PRT (RP up)) (S (VP (VBG putting) (NP (CD 2) (NNS games)))) (PP (IN into) (NP (DT each) (NN box)))) (. .)))
p373
sVtext
p374
VHe packed the rest up putting 2 games into each box .
p375
sVdependencies
p376
(lp377
(lp378
Vroot
p379
aVROOT
p380
aVpacked
p381
aa(lp382
Vnsubj
p383
aVpacked
p384
aVHe
p385
aa(lp386
Vdet
p387
aVrest
p388
aVthe
p389
aa(lp390
Vdobj
p391
aVpacked
p392
aVrest
p393
aa(lp394
Vprt
p395
aVpacked
p396
aVup
p397
aa(lp398
Vxcomp
p399
aVpacked
p400
aVputting
p401
aa(lp402
Vnum
p403
aVgames
p404
aV2
p405
aa(lp406
Vdobj
p407
aVputting
p408
aVgames
p409
aa(lp410
Vdet
p411
aVbox
p412
aVeach
p413
aa(lp414
Vprep_into
p415
aVpacked
p416
aVbox
p417
aasVwords
p418
(lp419
(lp420
VHe
p421
a(dp422
VNamedEntityTag
p423
g76
sVCharacterOffsetEnd
p424
V81
p425
sVCharacterOffsetBegin
p426
V79
p427
sVPartOfSpeech
p428
VPRP
p429
sVLemma
p430
Vhe
p431
saa(lp432
Vpacked
p433
a(dp434
VNamedEntityTag
p435
g76
sVCharacterOffsetEnd
p436
V88
p437
sVCharacterOffsetBegin
p438
V82
p439
sVPartOfSpeech
p440
VVBD
p441
sVLemma
p442
Vpack
p443
saa(lp444
Vthe
p445
a(dp446
VNamedEntityTag
p447
g76
sVCharacterOffsetEnd
p448
V92
p449
sVCharacterOffsetBegin
p450
V89
p451
sVPartOfSpeech
p452
VDT
p453
sVLemma
p454
Vthe
p455
saa(lp456
Vrest
p457
a(dp458
VNamedEntityTag
p459
g76
sVCharacterOffsetEnd
p460
V97
p461
sVCharacterOffsetBegin
p462
V93
p463
sVPartOfSpeech
p464
VNN
p465
sVLemma
p466
Vrest
p467
saa(lp468
Vup
p469
a(dp470
VNamedEntityTag
p471
g76
sVCharacterOffsetEnd
p472
V100
p473
sVCharacterOffsetBegin
p474
V98
p475
sVPartOfSpeech
p476
VRP
p477
sVLemma
p478
Vup
p479
saa(lp480
Vputting
p481
a(dp482
VNamedEntityTag
p483
g76
sVCharacterOffsetEnd
p484
V108
p485
sVCharacterOffsetBegin
p486
V101
p487
sVPartOfSpeech
p488
VVBG
p489
sVLemma
p490
Vput
p491
saa(lp492
g405
a(dp493
VNormalizedNamedEntityTag
p494
V2.0
p495
sVLemma
p496
g405
sVCharacterOffsetEnd
p497
V110
p498
sVPartOfSpeech
p499
VCD
p500
sVCharacterOffsetBegin
p501
V109
p502
sVNamedEntityTag
p503
VNUMBER
p504
saa(lp505
Vgames
p506
a(dp507
VNamedEntityTag
p508
g76
sVCharacterOffsetEnd
p509
V116
p510
sVCharacterOffsetBegin
p511
V111
p512
sVPartOfSpeech
p513
VNNS
p514
sVLemma
p515
Vgame
p516
saa(lp517
Vinto
p518
a(dp519
VNamedEntityTag
p520
g76
sVCharacterOffsetEnd
p521
V121
p522
sVCharacterOffsetBegin
p523
V117
p524
sVPartOfSpeech
p525
VIN
p526
sVLemma
p527
Vinto
p528
saa(lp529
Veach
p530
a(dp531
VNamedEntityTag
p532
g76
sVCharacterOffsetEnd
p533
V126
p534
sVCharacterOffsetBegin
p535
V122
p536
sVPartOfSpeech
p537
VDT
p538
sVLemma
p539
Veach
p540
saa(lp541
Vbox
p542
a(dp543
VNamedEntityTag
p544
g76
sVCharacterOffsetEnd
p545
V130
p546
sVCharacterOffsetBegin
p547
V127
p548
sVPartOfSpeech
p549
VNN
p550
sVLemma
p551
Vbox
p552
saa(lp553
g134
a(dp554
VNamedEntityTag
p555
g76
sVCharacterOffsetEnd
p556
V132
p557
sVCharacterOffsetBegin
p558
V131
p559
sVPartOfSpeech
p560
g134
sVLemma
p561
g134
saasVindexeddependencies
p562
(lp563
(lp564
Vroot
p565
aVROOT-0
p566
aVpacked-2
p567
aa(lp568
Vnsubj
p569
aVpacked-2
p570
aVHe-1
p571
aa(lp572
Vdet
p573
aVrest-4
p574
aVthe-3
p575
aa(lp576
Vdobj
p577
aVpacked-2
p578
aVrest-4
p579
aa(lp580
Vprt
p581
aVpacked-2
p582
aVup-5
p583
aa(lp584
Vxcomp
p585
aVpacked-2
p586
aVputting-6
p587
aa(lp588
Vnum
p589
aVgames-8
p590
aV2-7
p591
aa(lp592
Vdobj
p593
aVputting-6
p594
aVgames-8
p595
aa(lp596
Vdet
p597
aVbox-11
p598
aVeach-10
p599
aa(lp600
Vprep_into
p601
aVpacked-2
p602
aVbox-11
p603
aasa(dp604
Vparsetree
p605
V(ROOT (SBARQ (WHNP (WHADJP (WRB How) (JJ many)) (NNS boxes)) (SQ (VBD did) (NP (PRP he)) (VP (VB have) (S (VP (TO to) (VP (VB use)))))) (. ?)))
p606
sVtext
p607
VHow many boxes did he have to use ?
p608
sVdependencies
p609
(lp610
(lp611
Vroot
p612
aVROOT
p613
aVhave
p614
aa(lp615
Vadvmod
p616
aVmany
p617
aVHow
p618
aa(lp619
Vamod
p620
aVboxes
p621
aVmany
p622
aa(lp623
Vdep
p624
aVhave
p625
aVboxes
p626
aa(lp627
Vaux
p628
aVhave
p629
aVdid
p630
aa(lp631
Vnsubj
p632
aVhave
p633
aVhe
p634
aa(lp635
Vaux
p636
aVuse
p637
aVto
p638
aa(lp639
Vxcomp
p640
aVhave
p641
aVuse
p642
aasVwords
p643
(lp644
(lp645
VHow
p646
a(dp647
VNamedEntityTag
p648
g76
sVCharacterOffsetEnd
p649
V136
p650
sVCharacterOffsetBegin
p651
V133
p652
sVPartOfSpeech
p653
VWRB
p654
sVLemma
p655
Vhow
p656
saa(lp657
Vmany
p658
a(dp659
VNamedEntityTag
p660
g76
sVCharacterOffsetEnd
p661
V141
p662
sVCharacterOffsetBegin
p663
V137
p664
sVPartOfSpeech
p665
VJJ
p666
sVLemma
p667
Vmany
p668
saa(lp669
Vboxes
p670
a(dp671
VNamedEntityTag
p672
g76
sVCharacterOffsetEnd
p673
V147
p674
sVCharacterOffsetBegin
p675
V142
p676
sVPartOfSpeech
p677
VNNS
p678
sVLemma
p679
Vbox
p680
saa(lp681
Vdid
p682
a(dp683
VNamedEntityTag
p684
g76
sVCharacterOffsetEnd
p685
V151
p686
sVCharacterOffsetBegin
p687
V148
p688
sVPartOfSpeech
p689
VVBD
p690
sVLemma
p691
Vdo
p692
saa(lp693
Vhe
p694
a(dp695
VNamedEntityTag
p696
g76
sVCharacterOffsetEnd
p697
V154
p698
sVCharacterOffsetBegin
p699
V152
p700
sVPartOfSpeech
p701
VPRP
p702
sVLemma
p703
Vhe
p704
saa(lp705
Vhave
p706
a(dp707
VNamedEntityTag
p708
g76
sVCharacterOffsetEnd
p709
V159
p710
sVCharacterOffsetBegin
p711
V155
p712
sVPartOfSpeech
p713
VVB
p714
sVLemma
p715
Vhave
p716
saa(lp717
Vto
p718
a(dp719
VNamedEntityTag
p720
g76
sVCharacterOffsetEnd
p721
V162
p722
sVCharacterOffsetBegin
p723
V160
p724
sVPartOfSpeech
p725
VTO
p726
sVLemma
p727
Vto
p728
saa(lp729
Vuse
p730
a(dp731
VNamedEntityTag
p732
g76
sVCharacterOffsetEnd
p733
V166
p734
sVCharacterOffsetBegin
p735
V163
p736
sVPartOfSpeech
p737
VVB
p738
sVLemma
p739
Vuse
p740
saa(lp741
V?
p742
a(dp743
VNamedEntityTag
p744
g76
sVCharacterOffsetEnd
p745
V168
p746
sVCharacterOffsetBegin
p747
V167
p748
sVPartOfSpeech
p749
g134
sVLemma
p750
g742
saasVindexeddependencies
p751
(lp752
(lp753
Vroot
p754
aVROOT-0
p755
aVhave-6
p756
aa(lp757
Vadvmod
p758
aVmany-2
p759
aVHow-1
p760
aa(lp761
Vamod
p762
aVboxes-3
p763
aVmany-2
p764
aa(lp765
Vdep
p766
aVhave-6
p767
aVboxes-3
p768
aa(lp769
Vaux
p770
aVhave-6
p771
aVdid-4
p772
aa(lp773
Vnsubj
p774
aVhave-6
p775
aVhe-5
p776
aa(lp777
Vaux
p778
aVuse-8
p779
aVto-7
p780
aa(lp781
Vxcomp
p782
aVhave-6
p783
aVuse-8
p784
aasas.