(dp0
Vcoref
p1
(lp2
(lp3
(lp4
(lp5
Vher
p6
aI0
aI5
aI5
aI6
aa(lp7
VKatie
p8
aI0
aI0
aI0
aI1
aaa(lp9
(lp10
VShe
p11
aI1
aI0
aI0
aI1
aa(lp12
VKatie
p13
aI0
aI0
aI0
aI1
aaa(lp14
(lp15
VKatie
p16
aI2
aI4
aI4
aI5
aa(lp17
VKatie
p18
aI0
aI0
aI0
aI1
aaaasVsentences
p19
(lp20
(dp21
Vparsetree
p22
V(ROOT (S (NP (NNP Katie)) (VP (VBD had) (NP (NP (CD 85) (NNS files)) (PP (IN on) (NP (PRP$ her) (NN computer))))) (. .)))
p23
sVtext
p24
VKatie had 85 files on her computer .
p25
sVdependencies
p26
(lp27
(lp28
Vroot
p29
aVROOT
p30
aVhad
p31
aa(lp32
Vnsubj
p33
aVhad
p34
aVKatie
p35
aa(lp36
Vnum
p37
aVfiles
p38
aV85
p39
aa(lp40
Vdobj
p41
aVhad
p42
aVfiles
p43
aa(lp44
Vposs
p45
aVcomputer
p46
aVher
p47
aa(lp48
Vprep_on
p49
aVfiles
p50
aVcomputer
p51
aasVwords
p52
(lp53
(lp54
VKatie
p55
a(dp56
VNamedEntityTag
p57
VPERSON
p58
sVCharacterOffsetEnd
p59
V6
p60
sVCharacterOffsetBegin
p61
V1
p62
sVPartOfSpeech
p63
VNNP
p64
sVLemma
p65
VKatie
p66
saa(lp67
Vhad
p68
a(dp69
VNamedEntityTag
p70
VO
p71
sVCharacterOffsetEnd
p72
V10
p73
sVCharacterOffsetBegin
p74
V7
p75
sVPartOfSpeech
p76
VVBD
p77
sVLemma
p78
Vhave
p79
saa(lp80
V85
p81
a(dp82
VNormalizedNamedEntityTag
p83
V85.0
p84
sVLemma
p85
V85
p86
sVCharacterOffsetEnd
p87
V13
p88
sVPartOfSpeech
p89
VCD
p90
sVCharacterOffsetBegin
p91
V11
p92
sVNamedEntityTag
p93
VNUMBER
p94
saa(lp95
Vfiles
p96
a(dp97
VNamedEntityTag
p98
g71
sVCharacterOffsetEnd
p99
V19
p100
sVCharacterOffsetBegin
p101
V14
p102
sVPartOfSpeech
p103
VNNS
p104
sVLemma
p105
Vfile
p106
saa(lp107
Von
p108
a(dp109
VNamedEntityTag
p110
g71
sVCharacterOffsetEnd
p111
V22
p112
sVCharacterOffsetBegin
p113
V20
p114
sVPartOfSpeech
p115
VIN
p116
sVLemma
p117
Von
p118
saa(lp119
Vher
p120
a(dp121
VNamedEntityTag
p122
g71
sVCharacterOffsetEnd
p123
V26
p124
sVCharacterOffsetBegin
p125
V23
p126
sVPartOfSpeech
p127
VPRP$
p128
sVLemma
p129
Vshe
p130
saa(lp131
Vcomputer
p132
a(dp133
VNamedEntityTag
p134
g71
sVCharacterOffsetEnd
p135
V35
p136
sVCharacterOffsetBegin
p137
V27
p138
sVPartOfSpeech
p139
VNN
p140
sVLemma
p141
Vcomputer
p142
saa(lp143
V.
p144
a(dp145
VNamedEntityTag
p146
g71
sVCharacterOffsetEnd
p147
V37
p148
sVCharacterOffsetBegin
p149
V36
p150
sVPartOfSpeech
p151
g144
sVLemma
p152
g144
saasVindexeddependencies
p153
(lp154
(lp155
Vroot
p156
aVROOT-0
p157
aVhad-2
p158
aa(lp159
Vnsubj
p160
aVhad-2
p161
aVKatie-1
p162
aa(lp163
Vnum
p164
aVfiles-4
p165
aV85-3
p166
aa(lp167
Vdobj
p168
aVhad-2
p169
aVfiles-4
p170
aa(lp171
Vposs
p172
aVcomputer-7
p173
aVher-6
p174
aa(lp175
Vprep_on
p176
aVfiles-4
p177
aVcomputer-7
p178
aasa(dp179
Vparsetree
p180
V(ROOT (S (NP (PRP She)) (VP (VP (VBD deleted) (NP (NP (CD 40)) (PP (IN of) (NP (PRP them))))) (CC and) (VP (VB put) (NP (DT the) (NN rest)) (PP (IN into) (NP (NP (NNS folders)) (PP (IN with) (NP (NP (CD 5) (NNS files)) (PP (IN in) (NP (DT each) (CD one))))))))) (. .)))
p181
sVtext
p182
VShe deleted 40 of them and put the rest into folders with 5 files in each one .
p183
sVdependencies
p184
(lp185
(lp186
Vroot
p187
aVROOT
p188
aVdeleted
p189
aa(lp190
Vnsubj
p191
aVdeleted
p192
aVShe
p193
aa(lp194
Vdobj
p195
aVdeleted
p196
aV40
p197
aa(lp198
Vprep_of
p199
aV40
p200
aVthem
p201
aa(lp202
Vconj_and
p203
aVdeleted
p204
aVput
p205
aa(lp206
Vdet
p207
aVrest
p208
aVthe
p209
aa(lp210
Vdobj
p211
aVput
p212
aVrest
p213
aa(lp214
Vprep_into
p215
aVput
p216
aVfolders
p217
aa(lp218
Vnum
p219
aVfiles
p220
aV5
p221
aa(lp222
Vprep_with
p223
aVfolders
p224
aVfiles
p225
aa(lp226
Vdet
p227
aVone
p228
aVeach
p229
aa(lp230
Vprep_in
p231
aVfiles
p232
aVone
p233
aasVwords
p234
(lp235
(lp236
VShe
p237
a(dp238
VNamedEntityTag
p239
g71
sVCharacterOffsetEnd
p240
V41
p241
sVCharacterOffsetBegin
p242
V38
p243
sVPartOfSpeech
p244
VPRP
p245
sVLemma
p246
Vshe
p247
saa(lp248
Vdeleted
p249
a(dp250
VNamedEntityTag
p251
g71
sVCharacterOffsetEnd
p252
V49
p253
sVCharacterOffsetBegin
p254
V42
p255
sVPartOfSpeech
p256
VVBD
p257
sVLemma
p258
Vdelete
p259
saa(lp260
V40
p261
a(dp262
VNormalizedNamedEntityTag
p263
V40.0
p264
sVLemma
p265
V40
p266
sVCharacterOffsetEnd
p267
V52
p268
sVPartOfSpeech
p269
VCD
p270
sVCharacterOffsetBegin
p271
V50
p272
sVNamedEntityTag
p273
VNUMBER
p274
saa(lp275
Vof
p276
a(dp277
VNamedEntityTag
p278
g71
sVCharacterOffsetEnd
p279
V55
p280
sVCharacterOffsetBegin
p281
V53
p282
sVPartOfSpeech
p283
VIN
p284
sVLemma
p285
Vof
p286
saa(lp287
Vthem
p288
a(dp289
VNamedEntityTag
p290
g71
sVCharacterOffsetEnd
p291
V60
p292
sVCharacterOffsetBegin
p293
V56
p294
sVPartOfSpeech
p295
VPRP
p296
sVLemma
p297
Vthey
p298
saa(lp299
Vand
p300
a(dp301
VNamedEntityTag
p302
g71
sVCharacterOffsetEnd
p303
V64
p304
sVCharacterOffsetBegin
p305
V61
p306
sVPartOfSpeech
p307
VCC
p308
sVLemma
p309
Vand
p310
saa(lp311
Vput
p312
a(dp313
VNamedEntityTag
p314
g71
sVCharacterOffsetEnd
p315
V68
p316
sVCharacterOffsetBegin
p317
V65
p318
sVPartOfSpeech
p319
VVB
p320
sVLemma
p321
Vput
p322
saa(lp323
Vthe
p324
a(dp325
VNamedEntityTag
p326
g71
sVCharacterOffsetEnd
p327
V72
p328
sVCharacterOffsetBegin
p329
V69
p330
sVPartOfSpeech
p331
VDT
p332
sVLemma
p333
Vthe
p334
saa(lp335
Vrest
p336
a(dp337
VNamedEntityTag
p338
g71
sVCharacterOffsetEnd
p339
V77
p340
sVCharacterOffsetBegin
p341
V73
p342
sVPartOfSpeech
p343
VNN
p344
sVLemma
p345
Vrest
p346
saa(lp347
Vinto
p348
a(dp349
VNamedEntityTag
p350
g71
sVCharacterOffsetEnd
p351
V82
p352
sVCharacterOffsetBegin
p353
V78
p354
sVPartOfSpeech
p355
VIN
p356
sVLemma
p357
Vinto
p358
saa(lp359
Vfolders
p360
a(dp361
VNamedEntityTag
p362
g71
sVCharacterOffsetEnd
p363
V90
p364
sVCharacterOffsetBegin
p365
V83
p366
sVPartOfSpeech
p367
VNNS
p368
sVLemma
p369
Vfolder
p370
saa(lp371
Vwith
p372
a(dp373
VNamedEntityTag
p374
g71
sVCharacterOffsetEnd
p375
V95
p376
sVCharacterOffsetBegin
p377
V91
p378
sVPartOfSpeech
p379
VIN
p380
sVLemma
p381
Vwith
p382
saa(lp383
g221
a(dp384
VNormalizedNamedEntityTag
p385
V5.0
p386
sVLemma
p387
g221
sVCharacterOffsetEnd
p388
V97
p389
sVPartOfSpeech
p390
VCD
p391
sVCharacterOffsetBegin
p392
V96
p393
sVNamedEntityTag
p394
VNUMBER
p395
saa(lp396
Vfiles
p397
a(dp398
VNamedEntityTag
p399
g71
sVCharacterOffsetEnd
p400
V103
p401
sVCharacterOffsetBegin
p402
V98
p403
sVPartOfSpeech
p404
VNNS
p405
sVLemma
p406
Vfile
p407
saa(lp408
Vin
p409
a(dp410
VNamedEntityTag
p411
g71
sVCharacterOffsetEnd
p412
V106
p413
sVCharacterOffsetBegin
p414
V104
p415
sVPartOfSpeech
p416
VIN
p417
sVLemma
p418
Vin
p419
saa(lp420
Veach
p421
a(dp422
VNamedEntityTag
p423
g71
sVCharacterOffsetEnd
p424
V111
p425
sVCharacterOffsetBegin
p426
V107
p427
sVPartOfSpeech
p428
VDT
p429
sVLemma
p430
Veach
p431
saa(lp432
Vone
p433
a(dp434
VNormalizedNamedEntityTag
p435
V1.0
p436
sVLemma
p437
Vone
p438
sVCharacterOffsetEnd
p439
V115
p440
sVPartOfSpeech
p441
VCD
p442
sVCharacterOffsetBegin
p443
V112
p444
sVNamedEntityTag
p445
VNUMBER
p446
saa(lp447
g144
a(dp448
VNamedEntityTag
p449
g71
sVCharacterOffsetEnd
p450
V117
p451
sVCharacterOffsetBegin
p452
V116
p453
sVPartOfSpeech
p454
g144
sVLemma
p455
g144
saasVindexeddependencies
p456
(lp457
(lp458
Vroot
p459
aVROOT-0
p460
aVdeleted-2
p461
aa(lp462
Vnsubj
p463
aVdeleted-2
p464
aVShe-1
p465
aa(lp466
Vdobj
p467
aVdeleted-2
p468
aV40-3
p469
aa(lp470
Vprep_of
p471
aV40-3
p472
aVthem-5
p473
aa(lp474
Vconj_and
p475
aVdeleted-2
p476
aVput-7
p477
aa(lp478
Vdet
p479
aVrest-9
p480
aVthe-8
p481
aa(lp482
Vdobj
p483
aVput-7
p484
aVrest-9
p485
aa(lp486
Vprep_into
p487
aVput-7
p488
aVfolders-11
p489
aa(lp490
Vnum
p491
aVfiles-14
p492
aV5-13
p493
aa(lp494
Vprep_with
p495
aVfolders-11
p496
aVfiles-14
p497
aa(lp498
Vdet
p499
aVone-17
p500
aVeach-16
p501
aa(lp502
Vprep_in
p503
aVfiles-14
p504
aVone-17
p505
aasa(dp506
Vparsetree
p507
V(ROOT (SBARQ (WHNP (WHADJP (WRB How) (JJ many)) (NNS folders)) (SQ (VBD did) (NP (NNP Katie)) (VP (VB end) (PRT (RP up)) (PP (IN with)))) (. ?)))
p508
sVtext
p509
VHow many folders did Katie end up with ?
p510
sVdependencies
p511
(lp512
(lp513
Vroot
p514
aVROOT
p515
aVend
p516
aa(lp517
Vadvmod
p518
aVmany
p519
aVHow
p520
aa(lp521
Vamod
p522
aVfolders
p523
aVmany
p524
aa(lp525
Vprep_with
p526
aVend
p527
aVfolders
p528
aa(lp529
Vaux
p530
aVend
p531
aVdid
p532
aa(lp533
Vnsubj
p534
aVend
p535
aVKatie
p536
aa(lp537
Vprt
p538
aVend
p539
aVup
p540
aasVwords
p541
(lp542
(lp543
VHow
p544
a(dp545
VNamedEntityTag
p546
g71
sVCharacterOffsetEnd
p547
V121
p548
sVCharacterOffsetBegin
p549
V118
p550
sVPartOfSpeech
p551
VWRB
p552
sVLemma
p553
Vhow
p554
saa(lp555
Vmany
p556
a(dp557
VNamedEntityTag
p558
g71
sVCharacterOffsetEnd
p559
V126
p560
sVCharacterOffsetBegin
p561
V122
p562
sVPartOfSpeech
p563
VJJ
p564
sVLemma
p565
Vmany
p566
saa(lp567
Vfolders
p568
a(dp569
VNamedEntityTag
p570
g71
sVCharacterOffsetEnd
p571
V134
p572
sVCharacterOffsetBegin
p573
V127
p574
sVPartOfSpeech
p575
VNNS
p576
sVLemma
p577
Vfolder
p578
saa(lp579
Vdid
p580
a(dp581
VNamedEntityTag
p582
g71
sVCharacterOffsetEnd
p583
V138
p584
sVCharacterOffsetBegin
p585
V135
p586
sVPartOfSpeech
p587
VVBD
p588
sVLemma
p589
Vdo
p590
saa(lp591
VKatie
p592
a(dp593
VNamedEntityTag
p594
VPERSON
p595
sVCharacterOffsetEnd
p596
V144
p597
sVCharacterOffsetBegin
p598
V139
p599
sVPartOfSpeech
p600
VNNP
p601
sVLemma
p602
VKatie
p603
saa(lp604
Vend
p605
a(dp606
VNamedEntityTag
p607
g71
sVCharacterOffsetEnd
p608
V148
p609
sVCharacterOffsetBegin
p610
V145
p611
sVPartOfSpeech
p612
VVB
p613
sVLemma
p614
Vend
p615
saa(lp616
Vup
p617
a(dp618
VNamedEntityTag
p619
g71
sVCharacterOffsetEnd
p620
V151
p621
sVCharacterOffsetBegin
p622
V149
p623
sVPartOfSpeech
p624
VRP
p625
sVLemma
p626
Vup
p627
saa(lp628
Vwith
p629
a(dp630
VNamedEntityTag
p631
g71
sVCharacterOffsetEnd
p632
V156
p633
sVCharacterOffsetBegin
p634
V152
p635
sVPartOfSpeech
p636
VIN
p637
sVLemma
p638
Vwith
p639
saa(lp640
V?
p641
a(dp642
VNamedEntityTag
p643
g71
sVCharacterOffsetEnd
p644
V158
p645
sVCharacterOffsetBegin
p646
V157
p647
sVPartOfSpeech
p648
g144
sVLemma
p649
g641
saasVindexeddependencies
p650
(lp651
(lp652
Vroot
p653
aVROOT-0
p654
aVend-6
p655
aa(lp656
Vadvmod
p657
aVmany-2
p658
aVHow-1
p659
aa(lp660
Vamod
p661
aVfolders-3
p662
aVmany-2
p663
aa(lp664
Vprep_with
p665
aVend-6
p666
aVfolders-3
p667
aa(lp668
Vaux
p669
aVend-6
p670
aVdid-4
p671
aa(lp672
Vnsubj
p673
aVend-6
p674
aVKatie-5
p675
aa(lp676
Vprt
p677
aVend-6
p678
aVup-7
p679
aasas.