(dp0
Vcoref
p1
(lp2
(lp3
(lp4
(lp5
Vher
p6
aI1
aI1
aI1
aI2
aa(lp7
VSarah baked 38 cupcakes for her school 's bake sale .
p8
aI0
aI0
aI0
aI11
aaa(lp9
(lp10
Vshe
p11
aI1
aI14
aI14
aI15
aa(lp12
VSarah baked 38 cupcakes for her school 's bake sale .
p13
aI0
aI0
aI0
aI11
aaa(lp14
(lp15
Vshe
p16
aI1
aI17
aI17
aI18
aa(lp17
VSarah baked 38 cupcakes for her school 's bake sale .
p18
aI0
aI0
aI0
aI11
aaaa(lp19
(lp20
(lp21
Vher brother
p22
aI1
aI2
aI1
aI3
aa(lp23
VTodd
p24
aI1
aI4
aI4
aI5
aaaasVsentences
p25
(lp26
(dp27
Vparsetree
p28
V(ROOT (NP (NP (NNP Sarah)) (NP (NP (JJ baked) (CD 38) (NNS cupcakes)) (PP (IN for) (NP (NP (PRP$ her) (NN school) (POS 's)) (JJ bake) (NN sale)))) (. .)))
p29
sVtext
p30
VSarah baked 38 cupcakes for her school's bake sale .
p31
sVdependencies
p32
(lp33
(lp34
Vroot
p35
aVROOT
p36
aVSarah
p37
aa(lp38
Vamod
p39
aVcupcakes
p40
aVbaked
p41
aa(lp42
Vnum
p43
aVcupcakes
p44
aV38
p45
aa(lp46
Vdep
p47
aVSarah
p48
aVcupcakes
p49
aa(lp50
Vposs
p51
aVschool
p52
aVher
p53
aa(lp54
Vposs
p55
aVsale
p56
aVschool
p57
aa(lp58
Vamod
p59
aVsale
p60
aVbake
p61
aa(lp62
Vprep_for
p63
aVcupcakes
p64
aVsale
p65
aasVwords
p66
(lp67
(lp68
VSarah
p69
a(dp70
VNamedEntityTag
p71
VPERSON
p72
sVCharacterOffsetEnd
p73
V6
p74
sVCharacterOffsetBegin
p75
V1
p76
sVPartOfSpeech
p77
VNNP
p78
sVLemma
p79
VSarah
p80
saa(lp81
Vbaked
p82
a(dp83
VNamedEntityTag
p84
VO
p85
sVCharacterOffsetEnd
p86
V12
p87
sVCharacterOffsetBegin
p88
V7
p89
sVPartOfSpeech
p90
VJJ
p91
sVLemma
p92
Vbaked
p93
saa(lp94
V38
p95
a(dp96
VNormalizedNamedEntityTag
p97
V38.0
p98
sVLemma
p99
V38
p100
sVCharacterOffsetEnd
p101
V15
p102
sVPartOfSpeech
p103
VCD
p104
sVCharacterOffsetBegin
p105
V13
p106
sVNamedEntityTag
p107
VNUMBER
p108
saa(lp109
Vcupcakes
p110
a(dp111
VNamedEntityTag
p112
g85
sVCharacterOffsetEnd
p113
V24
p114
sVCharacterOffsetBegin
p115
V16
p116
sVPartOfSpeech
p117
VNNS
p118
sVLemma
p119
Vcupcake
p120
saa(lp121
Vfor
p122
a(dp123
VNamedEntityTag
p124
g85
sVCharacterOffsetEnd
p125
V28
p126
sVCharacterOffsetBegin
p127
V25
p128
sVPartOfSpeech
p129
VIN
p130
sVLemma
p131
Vfor
p132
saa(lp133
Vher
p134
a(dp135
VNamedEntityTag
p136
g85
sVCharacterOffsetEnd
p137
V32
p138
sVCharacterOffsetBegin
p139
V29
p140
sVPartOfSpeech
p141
VPRP$
p142
sVLemma
p143
Vshe
p144
saa(lp145
Vschool
p146
a(dp147
VNamedEntityTag
p148
g85
sVCharacterOffsetEnd
p149
V39
p150
sVCharacterOffsetBegin
p151
V33
p152
sVPartOfSpeech
p153
VNN
p154
sVLemma
p155
Vschool
p156
saa(lp157
V's
p158
a(dp159
VNamedEntityTag
p160
g85
sVCharacterOffsetEnd
p161
V41
p162
sVCharacterOffsetBegin
p163
V39
p164
sVPartOfSpeech
p165
VPOS
p166
sVLemma
p167
V's
p168
saa(lp169
Vbake
p170
a(dp171
VNamedEntityTag
p172
g85
sVCharacterOffsetEnd
p173
V46
p174
sVCharacterOffsetBegin
p175
V42
p176
sVPartOfSpeech
p177
VJJ
p178
sVLemma
p179
Vbake
p180
saa(lp181
Vsale
p182
a(dp183
VNamedEntityTag
p184
g85
sVCharacterOffsetEnd
p185
V51
p186
sVCharacterOffsetBegin
p187
V47
p188
sVPartOfSpeech
p189
VNN
p190
sVLemma
p191
Vsale
p192
saa(lp193
V.
p194
a(dp195
VNamedEntityTag
p196
g85
sVCharacterOffsetEnd
p197
V53
p198
sVCharacterOffsetBegin
p199
V52
p200
sVPartOfSpeech
p201
g194
sVLemma
p202
g194
saasVindexeddependencies
p203
(lp204
(lp205
Vroot
p206
aVROOT-0
p207
aVSarah-1
p208
aa(lp209
Vamod
p210
aVcupcakes-4
p211
aVbaked-2
p212
aa(lp213
Vnum
p214
aVcupcakes-4
p215
aV38-3
p216
aa(lp217
Vdep
p218
aVSarah-1
p219
aVcupcakes-4
p220
aa(lp221
Vposs
p222
aVschool-7
p223
aVher-6
p224
aa(lp225
Vposs
p226
aVsale-10
p227
aVschool-7
p228
aa(lp229
Vamod
p230
aVsale-10
p231
aVbake-9
p232
aa(lp233
Vprep_for
p234
aVcupcakes-4
p235
aVsale-10
p236
aasa(dp237
Vparsetree
p238
V(ROOT (SBAR (IN If) (S (NP (NP (PRP$ her) (NN brother)) (, ,) (NP (NNP Todd)) (, ,)) (VP (VBD ate) (NP (CD 14)) (PP (IN of) (NP (PRP them))) (SBAR (SBARQ (WHNP (WHADJP (WRB how) (JJ many)) (NNS packages)) (SQ (MD could) (NP (PRP she)) (VP (VB make) (SBAR (IN if) (S (NP (PRP she)) (VP (VBD put) (NP (NP (CD 8) (NN cupcake)) (PP (IN in) (NP (DT each) (NN package))))))))) (. ?)))))))
p239
sVtext
p240
VIf her brother , Todd , ate 14 of them how many packages could she make if she put 8 cupcake in each package ?
p241
sVdependencies
p242
(lp243
(lp244
Vroot
p245
aVROOT
p246
aVate
p247
aa(lp248
Vmark
p249
aVate
p250
aVIf
p251
aa(lp252
Vposs
p253
aVbrother
p254
aVher
p255
aa(lp256
Vnsubj
p257
aVate
p258
aVbrother
p259
aa(lp260
Vappos
p261
aVbrother
p262
aVTodd
p263
aa(lp264
Vdobj
p265
aVate
p266
aV14
p267
aa(lp268
Vprep_of
p269
aVate
p270
aVthem
p271
aa(lp272
Vadvmod
p273
aVmany
p274
aVhow
p275
aa(lp276
Vamod
p277
aVpackages
p278
aVmany
p279
aa(lp280
Vdobj
p281
aVmake
p282
aVpackages
p283
aa(lp284
Vaux
p285
aVmake
p286
aVcould
p287
aa(lp288
Vnsubj
p289
aVmake
p290
aVshe
p291
aa(lp292
Vdep
p293
aVate
p294
aVmake
p295
aa(lp296
Vmark
p297
aVput
p298
aVif
p299
aa(lp300
Vnsubj
p301
aVput
p302
aVshe
p303
aa(lp304
Vadvcl
p305
aVmake
p306
aVput
p307
aa(lp308
Vnum
p309
aVcupcake
p310
aV8
p311
aa(lp312
Vdobj
p313
aVput
p314
aVcupcake
p315
aa(lp316
Vdet
p317
aVpackage
p318
aVeach
p319
aa(lp320
Vprep_in
p321
aVcupcake
p322
aVpackage
p323
aasVwords
p324
(lp325
(lp326
VIf
p327
a(dp328
VNamedEntityTag
p329
g85
sVCharacterOffsetEnd
p330
V56
p331
sVCharacterOffsetBegin
p332
V54
p333
sVPartOfSpeech
p334
VIN
p335
sVLemma
p336
Vif
p337
saa(lp338
Vher
p339
a(dp340
VNamedEntityTag
p341
g85
sVCharacterOffsetEnd
p342
V60
p343
sVCharacterOffsetBegin
p344
V57
p345
sVPartOfSpeech
p346
VPRP$
p347
sVLemma
p348
Vshe
p349
saa(lp350
Vbrother
p351
a(dp352
VNamedEntityTag
p353
g85
sVCharacterOffsetEnd
p354
V68
p355
sVCharacterOffsetBegin
p356
V61
p357
sVPartOfSpeech
p358
VNN
p359
sVLemma
p360
Vbrother
p361
saa(lp362
V,
p363
a(dp364
VNamedEntityTag
p365
g85
sVCharacterOffsetEnd
p366
V70
p367
sVCharacterOffsetBegin
p368
V69
p369
sVPartOfSpeech
p370
g363
sVLemma
p371
g363
saa(lp372
VTodd
p373
a(dp374
VNamedEntityTag
p375
VPERSON
p376
sVCharacterOffsetEnd
p377
V75
p378
sVCharacterOffsetBegin
p379
V71
p380
sVPartOfSpeech
p381
VNNP
p382
sVLemma
p383
VTodd
p384
saa(lp385
g363
a(dp386
VNamedEntityTag
p387
g85
sVCharacterOffsetEnd
p388
V77
p389
sVCharacterOffsetBegin
p390
V76
p391
sVPartOfSpeech
p392
g363
sVLemma
p393
g363
saa(lp394
Vate
p395
a(dp396
VNamedEntityTag
p397
g85
sVCharacterOffsetEnd
p398
V81
p399
sVCharacterOffsetBegin
p400
V78
p401
sVPartOfSpeech
p402
VVBD
p403
sVLemma
p404
Veat
p405
saa(lp406
V14
p407
a(dp408
VNormalizedNamedEntityTag
p409
V14.0
p410
sVLemma
p411
V14
p412
sVCharacterOffsetEnd
p413
V84
p414
sVPartOfSpeech
p415
VCD
p416
sVCharacterOffsetBegin
p417
V82
p418
sVNamedEntityTag
p419
VNUMBER
p420
saa(lp421
Vof
p422
a(dp423
VNamedEntityTag
p424
g85
sVCharacterOffsetEnd
p425
V87
p426
sVCharacterOffsetBegin
p427
V85
p428
sVPartOfSpeech
p429
VIN
p430
sVLemma
p431
Vof
p432
saa(lp433
Vthem
p434
a(dp435
VNamedEntityTag
p436
g85
sVCharacterOffsetEnd
p437
V92
p438
sVCharacterOffsetBegin
p439
V88
p440
sVPartOfSpeech
p441
VPRP
p442
sVLemma
p443
Vthey
p444
saa(lp445
Vhow
p446
a(dp447
VNamedEntityTag
p448
g85
sVCharacterOffsetEnd
p449
V96
p450
sVCharacterOffsetBegin
p451
V93
p452
sVPartOfSpeech
p453
VWRB
p454
sVLemma
p455
Vhow
p456
saa(lp457
Vmany
p458
a(dp459
VNamedEntityTag
p460
g85
sVCharacterOffsetEnd
p461
V101
p462
sVCharacterOffsetBegin
p463
V97
p464
sVPartOfSpeech
p465
VJJ
p466
sVLemma
p467
Vmany
p468
saa(lp469
Vpackages
p470
a(dp471
VNamedEntityTag
p472
g85
sVCharacterOffsetEnd
p473
V110
p474
sVCharacterOffsetBegin
p475
V102
p476
sVPartOfSpeech
p477
VNNS
p478
sVLemma
p479
Vpackage
p480
saa(lp481
Vcould
p482
a(dp483
VNamedEntityTag
p484
g85
sVCharacterOffsetEnd
p485
V116
p486
sVCharacterOffsetBegin
p487
V111
p488
sVPartOfSpeech
p489
VMD
p490
sVLemma
p491
Vcould
p492
saa(lp493
Vshe
p494
a(dp495
VNamedEntityTag
p496
g85
sVCharacterOffsetEnd
p497
V120
p498
sVCharacterOffsetBegin
p499
V117
p500
sVPartOfSpeech
p501
VPRP
p502
sVLemma
p503
Vshe
p504
saa(lp505
Vmake
p506
a(dp507
VNamedEntityTag
p508
g85
sVCharacterOffsetEnd
p509
V125
p510
sVCharacterOffsetBegin
p511
V121
p512
sVPartOfSpeech
p513
VVB
p514
sVLemma
p515
Vmake
p516
saa(lp517
Vif
p518
a(dp519
VNamedEntityTag
p520
g85
sVCharacterOffsetEnd
p521
V128
p522
sVCharacterOffsetBegin
p523
V126
p524
sVPartOfSpeech
p525
VIN
p526
sVLemma
p527
Vif
p528
saa(lp529
Vshe
p530
a(dp531
VNamedEntityTag
p532
g85
sVCharacterOffsetEnd
p533
V132
p534
sVCharacterOffsetBegin
p535
V129
p536
sVPartOfSpeech
p537
VPRP
p538
sVLemma
p539
Vshe
p540
saa(lp541
Vput
p542
a(dp543
VNamedEntityTag
p544
g85
sVCharacterOffsetEnd
p545
V136
p546
sVCharacterOffsetBegin
p547
V133
p548
sVPartOfSpeech
p549
VVBD
p550
sVLemma
p551
Vput
p552
saa(lp553
g311
a(dp554
VNormalizedNamedEntityTag
p555
V8.0
p556
sVLemma
p557
g311
sVCharacterOffsetEnd
p558
V138
p559
sVPartOfSpeech
p560
VCD
p561
sVCharacterOffsetBegin
p562
V137
p563
sVNamedEntityTag
p564
VNUMBER
p565
saa(lp566
Vcupcake
p567
a(dp568
VNamedEntityTag
p569
g85
sVCharacterOffsetEnd
p570
V146
p571
sVCharacterOffsetBegin
p572
V139
p573
sVPartOfSpeech
p574
VNN
p575
sVLemma
p576
Vcupcake
p577
saa(lp578
Vin
p579
a(dp580
VNamedEntityTag
p581
g85
sVCharacterOffsetEnd
p582
V149
p583
sVCharacterOffsetBegin
p584
V147
p585
sVPartOfSpeech
p586
VIN
p587
sVLemma
p588
Vin
p589
saa(lp590
Veach
p591
a(dp592
VNamedEntityTag
p593
g85
sVCharacterOffsetEnd
p594
V154
p595
sVCharacterOffsetBegin
p596
V150
p597
sVPartOfSpeech
p598
VDT
p599
sVLemma
p600
Veach
p601
saa(lp602
Vpackage
p603
a(dp604
VNamedEntityTag
p605
g85
sVCharacterOffsetEnd
p606
V162
p607
sVCharacterOffsetBegin
p608
V155
p609
sVPartOfSpeech
p610
VNN
p611
sVLemma
p612
Vpackage
p613
saa(lp614
V?
p615
a(dp616
VNamedEntityTag
p617
g85
sVCharacterOffsetEnd
p618
V164
p619
sVCharacterOffsetBegin
p620
V163
p621
sVPartOfSpeech
p622
g194
sVLemma
p623
g615
saasVindexeddependencies
p624
(lp625
(lp626
Vroot
p627
aVROOT-0
p628
aVate-7
p629
aa(lp630
Vmark
p631
aVate-7
p632
aVIf-1
p633
aa(lp634
Vposs
p635
aVbrother-3
p636
aVher-2
p637
aa(lp638
Vnsubj
p639
aVate-7
p640
aVbrother-3
p641
aa(lp642
Vappos
p643
aVbrother-3
p644
aVTodd-5
p645
aa(lp646
Vdobj
p647
aVate-7
p648
aV14-8
p649
aa(lp650
Vprep_of
p651
aVate-7
p652
aVthem-10
p653
aa(lp654
Vadvmod
p655
aVmany-12
p656
aVhow-11
p657
aa(lp658
Vamod
p659
aVpackages-13
p660
aVmany-12
p661
aa(lp662
Vdobj
p663
aVmake-16
p664
aVpackages-13
p665
aa(lp666
Vaux
p667
aVmake-16
p668
aVcould-14
p669
aa(lp670
Vnsubj
p671
aVmake-16
p672
aVshe-15
p673
aa(lp674
Vdep
p675
aVate-7
p676
aVmake-16
p677
aa(lp678
Vmark
p679
aVput-19
p680
aVif-17
p681
aa(lp682
Vnsubj
p683
aVput-19
p684
aVshe-18
p685
aa(lp686
Vadvcl
p687
aVmake-16
p688
aVput-19
p689
aa(lp690
Vnum
p691
aVcupcake-21
p692
aV8-20
p693
aa(lp694
Vdobj
p695
aVput-19
p696
aVcupcake-21
p697
aa(lp698
Vdet
p699
aVpackage-24
p700
aVeach-23
p701
aa(lp702
Vprep_in
p703
aVcupcake-21
p704
aVpackage-24
p705
aasas.