(dp0
Vcoref
p1
(lp2
(lp3
(lp4
(lp5
VShe
p6
aI1
aI0
aI0
aI1
aa(lp7
VNancy
p8
aI0
aI0
aI0
aI1
aaaasVsentences
p9
(lp10
(dp11
Vparsetree
p12
V(ROOT (S (NP (NNP Nancy)) (VP (VBD uploaded) (NP (CD 41) (NNS pictures)) (PP (TO to) (NP (NNP Facebook)))) (. .)))
p13
sVtext
p14
VNancy uploaded 41 pictures to Facebook .
p15
sVdependencies
p16
(lp17
(lp18
Vroot
p19
aVROOT
p20
aVuploaded
p21
aa(lp22
Vnsubj
p23
aVuploaded
p24
aVNancy
p25
aa(lp26
Vnum
p27
aVpictures
p28
aV41
p29
aa(lp30
Vdobj
p31
aVuploaded
p32
aVpictures
p33
aa(lp34
Vprep_to
p35
aVuploaded
p36
aVFacebook
p37
aasVwords
p38
(lp39
(lp40
VNancy
p41
a(dp42
VNamedEntityTag
p43
VPERSON
p44
sVCharacterOffsetEnd
p45
V6
p46
sVCharacterOffsetBegin
p47
V1
p48
sVPartOfSpeech
p49
VNNP
p50
sVLemma
p51
VNancy
p52
saa(lp53
Vuploaded
p54
a(dp55
VNamedEntityTag
p56
VO
p57
sVCharacterOffsetEnd
p58
V15
p59
sVCharacterOffsetBegin
p60
V7
p61
sVPartOfSpeech
p62
VVBD
p63
sVLemma
p64
Vupload
p65
saa(lp66
V41
p67
a(dp68
VNormalizedNamedEntityTag
p69
V41.0
p70
sVLemma
p71
V41
p72
sVCharacterOffsetEnd
p73
V18
p74
sVPartOfSpeech
p75
VCD
p76
sVCharacterOffsetBegin
p77
V16
p78
sVNamedEntityTag
p79
VNUMBER
p80
saa(lp81
Vpictures
p82
a(dp83
VNamedEntityTag
p84
g57
sVCharacterOffsetEnd
p85
V27
p86
sVCharacterOffsetBegin
p87
V19
p88
sVPartOfSpeech
p89
VNNS
p90
sVLemma
p91
Vpicture
p92
saa(lp93
Vto
p94
a(dp95
VNamedEntityTag
p96
g57
sVCharacterOffsetEnd
p97
V30
p98
sVCharacterOffsetBegin
p99
V28
p100
sVPartOfSpeech
p101
VTO
p102
sVLemma
p103
Vto
p104
saa(lp105
VFacebook
p106
a(dp107
VNamedEntityTag
p108
VORGANIZATION
p109
sVCharacterOffsetEnd
p110
V39
p111
sVCharacterOffsetBegin
p112
V31
p113
sVPartOfSpeech
p114
VNNP
p115
sVLemma
p116
VFacebook
p117
saa(lp118
V.
p119
a(dp120
VNamedEntityTag
p121
g57
sVCharacterOffsetEnd
p122
V41
p123
sVCharacterOffsetBegin
p124
V40
p125
sVPartOfSpeech
p126
g119
sVLemma
p127
g119
saasVindexeddependencies
p128
(lp129
(lp130
Vroot
p131
aVROOT-0
p132
aVuploaded-2
p133
aa(lp134
Vnsubj
p135
aVuploaded-2
p136
aVNancy-1
p137
aa(lp138
Vnum
p139
aVpictures-4
p140
aV41-3
p141
aa(lp142
Vdobj
p143
aVuploaded-2
p144
aVpictures-4
p145
aa(lp146
Vprep_to
p147
aVuploaded-2
p148
aVFacebook-6
p149
aasa(dp150
Vparsetree
p151
V(ROOT (S (NP (PRP She)) (VP (VP (VBD put) (NP (CD 37) (NNS pics)) (PP (IN into) (NP (CD one) (NN album)))) (CC and) (VP (VBD put) (NP (DT the) (NN rest)) (PP (IN into) (NP (CD 2) (JJ different) (NNS albums))))) (. .)))
p152
sVtext
p153
VShe put 37 pics into one album and put the rest into 2 different albums .
p154
sVdependencies
p155
(lp156
(lp157
Vroot
p158
aVROOT
p159
aVput
p160
aa(lp161
Vnsubj
p162
aVput
p163
aVShe
p164
aa(lp165
Vnum
p166
aVpics
p167
aV37
p168
aa(lp169
Vdobj
p170
aVput
p171
aVpics
p172
aa(lp173
Vnum
p174
aValbum
p175
aVone
p176
aa(lp177
Vprep_into
p178
aVput
p179
aValbum
p180
aa(lp181
Vconj_and
p182
aVput
p183
aVput
p184
aa(lp185
Vdet
p186
aVrest
p187
aVthe
p188
aa(lp189
Vdobj
p190
aVput
p191
aVrest
p192
aa(lp193
Vnum
p194
aValbums
p195
aV2
p196
aa(lp197
Vamod
p198
aValbums
p199
aVdifferent
p200
aa(lp201
Vprep_into
p202
aVput
p203
aValbums
p204
aasVwords
p205
(lp206
(lp207
VShe
p208
a(dp209
VNamedEntityTag
p210
g57
sVCharacterOffsetEnd
p211
V45
p212
sVCharacterOffsetBegin
p213
V42
p214
sVPartOfSpeech
p215
VPRP
p216
sVLemma
p217
Vshe
p218
saa(lp219
Vput
p220
a(dp221
VNamedEntityTag
p222
g57
sVCharacterOffsetEnd
p223
V49
p224
sVCharacterOffsetBegin
p225
V46
p226
sVPartOfSpeech
p227
VVBD
p228
sVLemma
p229
Vput
p230
saa(lp231
V37
p232
a(dp233
VNormalizedNamedEntityTag
p234
V37.0
p235
sVLemma
p236
V37
p237
sVCharacterOffsetEnd
p238
V52
p239
sVPartOfSpeech
p240
VCD
p241
sVCharacterOffsetBegin
p242
V50
p243
sVNamedEntityTag
p244
VNUMBER
p245
saa(lp246
Vpics
p247
a(dp248
VNamedEntityTag
p249
g57
sVCharacterOffsetEnd
p250
V57
p251
sVCharacterOffsetBegin
p252
V53
p253
sVPartOfSpeech
p254
VNNS
p255
sVLemma
p256
Vpic
p257
saa(lp258
Vinto
p259
a(dp260
VNamedEntityTag
p261
g57
sVCharacterOffsetEnd
p262
V62
p263
sVCharacterOffsetBegin
p264
V58
p265
sVPartOfSpeech
p266
VIN
p267
sVLemma
p268
Vinto
p269
saa(lp270
Vone
p271
a(dp272
VNormalizedNamedEntityTag
p273
V1.0
p274
sVLemma
p275
Vone
p276
sVCharacterOffsetEnd
p277
V66
p278
sVPartOfSpeech
p279
VCD
p280
sVCharacterOffsetBegin
p281
V63
p282
sVNamedEntityTag
p283
VNUMBER
p284
saa(lp285
Valbum
p286
a(dp287
VNamedEntityTag
p288
g57
sVCharacterOffsetEnd
p289
V72
p290
sVCharacterOffsetBegin
p291
V67
p292
sVPartOfSpeech
p293
VNN
p294
sVLemma
p295
Valbum
p296
saa(lp297
Vand
p298
a(dp299
VNamedEntityTag
p300
g57
sVCharacterOffsetEnd
p301
V76
p302
sVCharacterOffsetBegin
p303
V73
p304
sVPartOfSpeech
p305
VCC
p306
sVLemma
p307
Vand
p308
saa(lp309
Vput
p310
a(dp311
VNamedEntityTag
p312
g57
sVCharacterOffsetEnd
p313
V80
p314
sVCharacterOffsetBegin
p315
V77
p316
sVPartOfSpeech
p317
VVBD
p318
sVLemma
p319
Vput
p320
saa(lp321
Vthe
p322
a(dp323
VNamedEntityTag
p324
g57
sVCharacterOffsetEnd
p325
V84
p326
sVCharacterOffsetBegin
p327
V81
p328
sVPartOfSpeech
p329
VDT
p330
sVLemma
p331
Vthe
p332
saa(lp333
Vrest
p334
a(dp335
VNamedEntityTag
p336
g57
sVCharacterOffsetEnd
p337
V89
p338
sVCharacterOffsetBegin
p339
V85
p340
sVPartOfSpeech
p341
VNN
p342
sVLemma
p343
Vrest
p344
saa(lp345
Vinto
p346
a(dp347
VNamedEntityTag
p348
g57
sVCharacterOffsetEnd
p349
V94
p350
sVCharacterOffsetBegin
p351
V90
p352
sVPartOfSpeech
p353
VIN
p354
sVLemma
p355
Vinto
p356
saa(lp357
g196
a(dp358
VNormalizedNamedEntityTag
p359
V2.0
p360
sVLemma
p361
g196
sVCharacterOffsetEnd
p362
V96
p363
sVPartOfSpeech
p364
VCD
p365
sVCharacterOffsetBegin
p366
V95
p367
sVNamedEntityTag
p368
VNUMBER
p369
saa(lp370
Vdifferent
p371
a(dp372
VNamedEntityTag
p373
g57
sVCharacterOffsetEnd
p374
V106
p375
sVCharacterOffsetBegin
p376
V97
p377
sVPartOfSpeech
p378
VJJ
p379
sVLemma
p380
Vdifferent
p381
saa(lp382
Valbums
p383
a(dp384
VNamedEntityTag
p385
g57
sVCharacterOffsetEnd
p386
V113
p387
sVCharacterOffsetBegin
p388
V107
p389
sVPartOfSpeech
p390
VNNS
p391
sVLemma
p392
Valbum
p393
saa(lp394
g119
a(dp395
VNamedEntityTag
p396
g57
sVCharacterOffsetEnd
p397
V115
p398
sVCharacterOffsetBegin
p399
V114
p400
sVPartOfSpeech
p401
g119
sVLemma
p402
g119
saasVindexeddependencies
p403
(lp404
(lp405
Vroot
p406
aVROOT-0
p407
aVput-2
p408
aa(lp409
Vnsubj
p410
aVput-2
p411
aVShe-1
p412
aa(lp413
Vnum
p414
aVpics-4
p415
aV37-3
p416
aa(lp417
Vdobj
p418
aVput-2
p419
aVpics-4
p420
aa(lp421
Vnum
p422
aValbum-7
p423
aVone-6
p424
aa(lp425
Vprep_into
p426
aVput-2
p427
aValbum-7
p428
aa(lp429
Vconj_and
p430
aVput-2
p431
aVput-9
p432
aa(lp433
Vdet
p434
aVrest-11
p435
aVthe-10
p436
aa(lp437
Vdobj
p438
aVput-9
p439
aVrest-11
p440
aa(lp441
Vnum
p442
aValbums-15
p443
aV2-13
p444
aa(lp445
Vamod
p446
aValbums-15
p447
aVdifferent-14
p448
aa(lp449
Vprep_into
p450
aVput-9
p451
aValbums-15
p452
aasa(dp453
Vparsetree
p454
V(ROOT (SBARQ (WHNP (WHADJP (WRB How) (JJ many)) (NNS pictures)) (SQ (VP (VBD were) (PP (IN in) (NP (DT each) (NN album))))) (. ?)))
p455
sVtext
p456
VHow many pictures were in each album ?
p457
sVdependencies
p458
(lp459
(lp460
Vroot
p461
aVROOT
p462
aVwere
p463
aa(lp464
Vadvmod
p465
aVmany
p466
aVHow
p467
aa(lp468
Vamod
p469
aVpictures
p470
aVmany
p471
aa(lp472
Vnsubj
p473
aVwere
p474
aVpictures
p475
aa(lp476
Vdet
p477
aValbum
p478
aVeach
p479
aa(lp480
Vprep_in
p481
aVwere
p482
aValbum
p483
aasVwords
p484
(lp485
(lp486
VHow
p487
a(dp488
VNamedEntityTag
p489
g57
sVCharacterOffsetEnd
p490
V119
p491
sVCharacterOffsetBegin
p492
V116
p493
sVPartOfSpeech
p494
VWRB
p495
sVLemma
p496
Vhow
p497
saa(lp498
Vmany
p499
a(dp500
VNamedEntityTag
p501
g57
sVCharacterOffsetEnd
p502
V124
p503
sVCharacterOffsetBegin
p504
V120
p505
sVPartOfSpeech
p506
VJJ
p507
sVLemma
p508
Vmany
p509
saa(lp510
Vpictures
p511
a(dp512
VNamedEntityTag
p513
g57
sVCharacterOffsetEnd
p514
V133
p515
sVCharacterOffsetBegin
p516
V125
p517
sVPartOfSpeech
p518
VNNS
p519
sVLemma
p520
Vpicture
p521
saa(lp522
Vwere
p523
a(dp524
VNamedEntityTag
p525
g57
sVCharacterOffsetEnd
p526
V138
p527
sVCharacterOffsetBegin
p528
V134
p529
sVPartOfSpeech
p530
VVBD
p531
sVLemma
p532
Vbe
p533
saa(lp534
Vin
p535
a(dp536
VNamedEntityTag
p537
g57
sVCharacterOffsetEnd
p538
V141
p539
sVCharacterOffsetBegin
p540
V139
p541
sVPartOfSpeech
p542
VIN
p543
sVLemma
p544
Vin
p545
saa(lp546
Veach
p547
a(dp548
VNamedEntityTag
p549
g57
sVCharacterOffsetEnd
p550
V146
p551
sVCharacterOffsetBegin
p552
V142
p553
sVPartOfSpeech
p554
VDT
p555
sVLemma
p556
Veach
p557
saa(lp558
Valbum
p559
a(dp560
VNamedEntityTag
p561
g57
sVCharacterOffsetEnd
p562
V152
p563
sVCharacterOffsetBegin
p564
V147
p565
sVPartOfSpeech
p566
VNN
p567
sVLemma
p568
Valbum
p569
saa(lp570
V?
p571
a(dp572
VNamedEntityTag
p573
g57
sVCharacterOffsetEnd
p574
V154
p575
sVCharacterOffsetBegin
p576
V153
p577
sVPartOfSpeech
p578
g119
sVLemma
p579
g571
saasVindexeddependencies
p580
(lp581
(lp582
Vroot
p583
aVROOT-0
p584
aVwere-4
p585
aa(lp586
Vadvmod
p587
aVmany-2
p588
aVHow-1
p589
aa(lp590
Vamod
p591
aVpictures-3
p592
aVmany-2
p593
aa(lp594
Vnsubj
p595
aVwere-4
p596
aVpictures-3
p597
aa(lp598
Vdet
p599
aValbum-7
p600
aVeach-6
p601
aa(lp602
Vprep_in
p603
aVwere-4
p604
aValbum-7
p605
aasas.