(dp0
Vcoref
p1
(lp2
(lp3
(lp4
(lp5
Vshe
p6
aI1
aI1
aI1
aI2
aa(lp7
VJanet
p8
aI0
aI0
aI0
aI1
aaa(lp9
(lp10
VJanet
p11
aI1
aI15
aI15
aI16
aa(lp12
VJanet
p13
aI0
aI0
aI0
aI1
aaaasVsentences
p14
(lp15
(dp16
Vparsetree
p17
V(ROOT (S (NP (NNP Janet)) (VP (VBD picked) (S (NP (NP (CD 4) (NNS tulips)) (CC and) (NP (CD 11) (NNS roses))) (VP (TO to) (VP (VB make) (NP (NN flower) (NNS bouquets)))))) (. .)))
p18
sVtext
p19
VJanet picked 4 tulips and 11 roses to make flower bouquets .
p20
sVdependencies
p21
(lp22
(lp23
Vroot
p24
aVROOT
p25
aVpicked
p26
aa(lp27
Vnsubj
p28
aVpicked
p29
aVJanet
p30
aa(lp31
Vnum
p32
aVtulips
p33
aV4
p34
aa(lp35
Vdobj
p36
aVpicked
p37
aVtulips
p38
aa(lp39
Vnum
p40
aVroses
p41
aV11
p42
aa(lp43
Vconj_and
p44
aVtulips
p45
aVroses
p46
aa(lp47
Vaux
p48
aVmake
p49
aVto
p50
aa(lp51
Vxcomp
p52
aVpicked
p53
aVmake
p54
aa(lp55
Vnn
p56
aVbouquets
p57
aVflower
p58
aa(lp59
Vdobj
p60
aVmake
p61
aVbouquets
p62
aasVwords
p63
(lp64
(lp65
VJanet
p66
a(dp67
VNamedEntityTag
p68
VPERSON
p69
sVCharacterOffsetEnd
p70
V6
p71
sVCharacterOffsetBegin
p72
V1
p73
sVPartOfSpeech
p74
VNNP
p75
sVLemma
p76
VJanet
p77
saa(lp78
Vpicked
p79
a(dp80
VNamedEntityTag
p81
VO
p82
sVCharacterOffsetEnd
p83
V13
p84
sVCharacterOffsetBegin
p85
V7
p86
sVPartOfSpeech
p87
VVBD
p88
sVLemma
p89
Vpick
p90
saa(lp91
g34
a(dp92
VNormalizedNamedEntityTag
p93
V4.0
p94
sVLemma
p95
g34
sVCharacterOffsetEnd
p96
V15
p97
sVPartOfSpeech
p98
VCD
p99
sVCharacterOffsetBegin
p100
V14
p101
sVNamedEntityTag
p102
VNUMBER
p103
saa(lp104
Vtulips
p105
a(dp106
VNamedEntityTag
p107
g82
sVCharacterOffsetEnd
p108
V22
p109
sVCharacterOffsetBegin
p110
V16
p111
sVPartOfSpeech
p112
VNNS
p113
sVLemma
p114
Vtulip
p115
saa(lp116
Vand
p117
a(dp118
VNamedEntityTag
p119
g82
sVCharacterOffsetEnd
p120
V26
p121
sVCharacterOffsetBegin
p122
V23
p123
sVPartOfSpeech
p124
VCC
p125
sVLemma
p126
Vand
p127
saa(lp128
V11
p129
a(dp130
VNormalizedNamedEntityTag
p131
V11.0
p132
sVLemma
p133
V11
p134
sVCharacterOffsetEnd
p135
V29
p136
sVPartOfSpeech
p137
VCD
p138
sVCharacterOffsetBegin
p139
V27
p140
sVNamedEntityTag
p141
VNUMBER
p142
saa(lp143
Vroses
p144
a(dp145
VNamedEntityTag
p146
g82
sVCharacterOffsetEnd
p147
V35
p148
sVCharacterOffsetBegin
p149
V30
p150
sVPartOfSpeech
p151
VNNS
p152
sVLemma
p153
Vrose
p154
saa(lp155
Vto
p156
a(dp157
VNamedEntityTag
p158
g82
sVCharacterOffsetEnd
p159
V38
p160
sVCharacterOffsetBegin
p161
V36
p162
sVPartOfSpeech
p163
VTO
p164
sVLemma
p165
Vto
p166
saa(lp167
Vmake
p168
a(dp169
VNamedEntityTag
p170
g82
sVCharacterOffsetEnd
p171
V43
p172
sVCharacterOffsetBegin
p173
V39
p174
sVPartOfSpeech
p175
VVB
p176
sVLemma
p177
Vmake
p178
saa(lp179
Vflower
p180
a(dp181
VNamedEntityTag
p182
g82
sVCharacterOffsetEnd
p183
V50
p184
sVCharacterOffsetBegin
p185
V44
p186
sVPartOfSpeech
p187
VNN
p188
sVLemma
p189
Vflower
p190
saa(lp191
Vbouquets
p192
a(dp193
VNamedEntityTag
p194
g82
sVCharacterOffsetEnd
p195
V59
p196
sVCharacterOffsetBegin
p197
V51
p198
sVPartOfSpeech
p199
VNNS
p200
sVLemma
p201
Vbouquet
p202
saa(lp203
V.
p204
a(dp205
VNamedEntityTag
p206
g82
sVCharacterOffsetEnd
p207
V61
p208
sVCharacterOffsetBegin
p209
V60
p210
sVPartOfSpeech
p211
g204
sVLemma
p212
g204
saasVindexeddependencies
p213
(lp214
(lp215
Vroot
p216
aVROOT-0
p217
aVpicked-2
p218
aa(lp219
Vnsubj
p220
aVpicked-2
p221
aVJanet-1
p222
aa(lp223
Vnum
p224
aVtulips-4
p225
aV4-3
p226
aa(lp227
Vdobj
p228
aVpicked-2
p229
aVtulips-4
p230
aa(lp231
Vnum
p232
aVroses-7
p233
aV11-6
p234
aa(lp235
Vconj_and
p236
aVtulips-4
p237
aVroses-7
p238
aa(lp239
Vaux
p240
aVmake-9
p241
aVto-8
p242
aa(lp243
Vxcomp
p244
aVpicked-2
p245
aVmake-9
p246
aa(lp247
Vnn
p248
aVbouquets-11
p249
aVflower-10
p250
aa(lp251
Vdobj
p252
aVmake-9
p253
aVbouquets-11
p254
aasa(dp255
Vparsetree
p256
V(ROOT (SBARQ (SBAR (IN If) (S (NP (PRP she)) (ADVP (RB only)) (VP (VBD used) (NP (NP (CD 11)) (PP (IN of) (NP (DT the) (NNS flowers)))) (ADVP (IN though))))) (, ,) (WHNP (WHADJP (WRB how) (JJ many)) (ADJP (JJ extra)) (NNS flowers)) (SQ (VBD did) (NP (NNP Janet)) (VP (VB pick))) (. ?)))
p257
sVtext
p258
VIf she only used 11 of the flowers though , how many extra flowers did Janet pick ?
p259
sVdependencies
p260
(lp261
(lp262
Vroot
p263
aVROOT
p264
aVpick
p265
aa(lp266
Vmark
p267
aVused
p268
aVIf
p269
aa(lp270
Vnsubj
p271
aVused
p272
aVshe
p273
aa(lp274
Vadvmod
p275
aVused
p276
aVonly
p277
aa(lp278
Vadvcl
p279
aVpick
p280
aVused
p281
aa(lp282
Vdobj
p283
aVused
p284
aV11
p285
aa(lp286
Vdet
p287
aVflowers
p288
aVthe
p289
aa(lp290
Vprep_of
p291
aV11
p292
aVflowers
p293
aa(lp294
Vadvmod
p295
aVused
p296
aVthough
p297
aa(lp298
Vadvmod
p299
aVmany
p300
aVhow
p301
aa(lp302
Vamod
p303
aVflowers
p304
aVmany
p305
aa(lp306
Vamod
p307
aVflowers
p308
aVextra
p309
aa(lp310
Vdobj
p311
aVpick
p312
aVflowers
p313
aa(lp314
Vaux
p315
aVpick
p316
aVdid
p317
aa(lp318
Vnsubj
p319
aVpick
p320
aVJanet
p321
aasVwords
p322
(lp323
(lp324
VIf
p325
a(dp326
VNamedEntityTag
p327
g82
sVCharacterOffsetEnd
p328
V64
p329
sVCharacterOffsetBegin
p330
V62
p331
sVPartOfSpeech
p332
VIN
p333
sVLemma
p334
Vif
p335
saa(lp336
Vshe
p337
a(dp338
VNamedEntityTag
p339
g82
sVCharacterOffsetEnd
p340
V68
p341
sVCharacterOffsetBegin
p342
V65
p343
sVPartOfSpeech
p344
VPRP
p345
sVLemma
p346
Vshe
p347
saa(lp348
Vonly
p349
a(dp350
VNamedEntityTag
p351
g82
sVCharacterOffsetEnd
p352
V73
p353
sVCharacterOffsetBegin
p354
V69
p355
sVPartOfSpeech
p356
VRB
p357
sVLemma
p358
Vonly
p359
saa(lp360
Vused
p361
a(dp362
VNamedEntityTag
p363
g82
sVCharacterOffsetEnd
p364
V78
p365
sVCharacterOffsetBegin
p366
V74
p367
sVPartOfSpeech
p368
VVBD
p369
sVLemma
p370
Vuse
p371
saa(lp372
V11
p373
a(dp374
VNormalizedNamedEntityTag
p375
V11.0
p376
sVLemma
p377
V11
p378
sVCharacterOffsetEnd
p379
V81
p380
sVPartOfSpeech
p381
VCD
p382
sVCharacterOffsetBegin
p383
V79
p384
sVNamedEntityTag
p385
VNUMBER
p386
saa(lp387
Vof
p388
a(dp389
VNamedEntityTag
p390
g82
sVCharacterOffsetEnd
p391
V84
p392
sVCharacterOffsetBegin
p393
V82
p394
sVPartOfSpeech
p395
VIN
p396
sVLemma
p397
Vof
p398
saa(lp399
Vthe
p400
a(dp401
VNamedEntityTag
p402
g82
sVCharacterOffsetEnd
p403
V88
p404
sVCharacterOffsetBegin
p405
V85
p406
sVPartOfSpeech
p407
VDT
p408
sVLemma
p409
Vthe
p410
saa(lp411
Vflowers
p412
a(dp413
VNamedEntityTag
p414
g82
sVCharacterOffsetEnd
p415
V96
p416
sVCharacterOffsetBegin
p417
V89
p418
sVPartOfSpeech
p419
VNNS
p420
sVLemma
p421
Vflower
p422
saa(lp423
Vthough
p424
a(dp425
VNamedEntityTag
p426
g82
sVCharacterOffsetEnd
p427
V103
p428
sVCharacterOffsetBegin
p429
V97
p430
sVPartOfSpeech
p431
VIN
p432
sVLemma
p433
Vthough
p434
saa(lp435
V,
p436
a(dp437
VNamedEntityTag
p438
g82
sVCharacterOffsetEnd
p439
V105
p440
sVCharacterOffsetBegin
p441
V104
p442
sVPartOfSpeech
p443
g436
sVLemma
p444
g436
saa(lp445
Vhow
p446
a(dp447
VNamedEntityTag
p448
g82
sVCharacterOffsetEnd
p449
V109
p450
sVCharacterOffsetBegin
p451
V106
p452
sVPartOfSpeech
p453
VWRB
p454
sVLemma
p455
Vhow
p456
saa(lp457
Vmany
p458
a(dp459
VNamedEntityTag
p460
g82
sVCharacterOffsetEnd
p461
V114
p462
sVCharacterOffsetBegin
p463
V110
p464
sVPartOfSpeech
p465
VJJ
p466
sVLemma
p467
Vmany
p468
saa(lp469
Vextra
p470
a(dp471
VNamedEntityTag
p472
g82
sVCharacterOffsetEnd
p473
V120
p474
sVCharacterOffsetBegin
p475
V115
p476
sVPartOfSpeech
p477
VJJ
p478
sVLemma
p479
Vextra
p480
saa(lp481
Vflowers
p482
a(dp483
VNamedEntityTag
p484
g82
sVCharacterOffsetEnd
p485
V128
p486
sVCharacterOffsetBegin
p487
V121
p488
sVPartOfSpeech
p489
VNNS
p490
sVLemma
p491
Vflower
p492
saa(lp493
Vdid
p494
a(dp495
VNamedEntityTag
p496
g82
sVCharacterOffsetEnd
p497
V132
p498
sVCharacterOffsetBegin
p499
V129
p500
sVPartOfSpeech
p501
VVBD
p502
sVLemma
p503
Vdo
p504
saa(lp505
VJanet
p506
a(dp507
VNamedEntityTag
p508
VPERSON
p509
sVCharacterOffsetEnd
p510
V138
p511
sVCharacterOffsetBegin
p512
V133
p513
sVPartOfSpeech
p514
VNNP
p515
sVLemma
p516
VJanet
p517
saa(lp518
Vpick
p519
a(dp520
VNamedEntityTag
p521
g82
sVCharacterOffsetEnd
p522
V143
p523
sVCharacterOffsetBegin
p524
V139
p525
sVPartOfSpeech
p526
VVB
p527
sVLemma
p528
Vpick
p529
saa(lp530
V?
p531
a(dp532
VNamedEntityTag
p533
g82
sVCharacterOffsetEnd
p534
V145
p535
sVCharacterOffsetBegin
p536
V144
p537
sVPartOfSpeech
p538
g204
sVLemma
p539
g531
saasVindexeddependencies
p540
(lp541
(lp542
Vroot
p543
aVROOT-0
p544
aVpick-17
p545
aa(lp546
Vmark
p547
aVused-4
p548
aVIf-1
p549
aa(lp550
Vnsubj
p551
aVused-4
p552
aVshe-2
p553
aa(lp554
Vadvmod
p555
aVused-4
p556
aVonly-3
p557
aa(lp558
Vadvcl
p559
aVpick-17
p560
aVused-4
p561
aa(lp562
Vdobj
p563
aVused-4
p564
aV11-5
p565
aa(lp566
Vdet
p567
aVflowers-8
p568
aVthe-7
p569
aa(lp570
Vprep_of
p571
aV11-5
p572
aVflowers-8
p573
aa(lp574
Vadvmod
p575
aVused-4
p576
aVthough-9
p577
aa(lp578
Vadvmod
p579
aVmany-12
p580
aVhow-11
p581
aa(lp582
Vamod
p583
aVflowers-14
p584
aVmany-12
p585
aa(lp586
Vamod
p587
aVflowers-14
p588
aVextra-13
p589
aa(lp590
Vdobj
p591
aVpick-17
p592
aVflowers-14
p593
aa(lp594
Vaux
p595
aVpick-17
p596
aVdid-15
p597
aa(lp598
Vnsubj
p599
aVpick-17
p600
aVJanet-16
p601
aasas.