(dp0
Vcoref
p1
(lp2
(lp3
(lp4
(lp5
Vher
p6
aI0
aI10
aI10
aI11
aa(lp7
VVanessa
p8
aI0
aI0
aI0
aI1
aaa(lp9
(lp10
Vshe
p11
aI1
aI1
aI1
aI2
aa(lp12
VVanessa
p13
aI0
aI0
aI0
aI1
aaa(lp14
(lp15
Vher
p16
aI1
aI14
aI14
aI15
aa(lp17
VVanessa
p18
aI0
aI0
aI0
aI1
aaaa(lp19
(lp20
(lp21
Vthe files
p22
aI1
aI6
aI5
aI7
aa(lp23
V13 music files and 30 video files on her flash drive
p24
aI0
aI8
aI2
aI13
aaaa(lp25
(lp26
(lp27
Vher flash drive
p28
aI1
aI16
aI14
aI17
aa(lp29
Vher flash drive
p30
aI0
aI12
aI10
aI13
aaaasVsentences
p31
(lp32
(dp33
Vparsetree
p34
V(ROOT (S (NP (NNP Vanessa)) (VP (VBD had) (NP (NP (CD 13) (NN music) (NNS files) (CC and) (CD 30) (NN video) (NNS files)) (PP (IN on) (NP (PRP$ her) (NN flash) (NN drive))))) (. .)))
p35
sVtext
p36
VVanessa had 13 music files and 30 video files on her flash drive .
p37
sVdependencies
p38
(lp39
(lp40
Vroot
p41
aVROOT
p42
aVhad
p43
aa(lp44
Vnsubj
p45
aVhad
p46
aVVanessa
p47
aa(lp48
Vnum
p49
aVfiles
p50
aV13
p51
aa(lp52
Vnn
p53
aVfiles
p54
aVmusic
p55
aa(lp56
Vdobj
p57
aVhad
p58
aVfiles
p59
aa(lp60
Vnum
p61
aVfiles
p62
aV30
p63
aa(lp64
Vnn
p65
aVfiles
p66
aVvideo
p67
aa(lp68
Vconj_and
p69
aVfiles
p70
aVfiles
p71
aa(lp72
Vposs
p73
aVdrive
p74
aVher
p75
aa(lp76
Vnn
p77
aVdrive
p78
aVflash
p79
aa(lp80
Vprep_on
p81
aVfiles
p82
aVdrive
p83
aasVwords
p84
(lp85
(lp86
VVanessa
p87
a(dp88
VNamedEntityTag
p89
VPERSON
p90
sVCharacterOffsetEnd
p91
V8
p92
sVCharacterOffsetBegin
p93
V1
p94
sVPartOfSpeech
p95
VNNP
p96
sVLemma
p97
VVanessa
p98
saa(lp99
Vhad
p100
a(dp101
VNamedEntityTag
p102
VO
p103
sVCharacterOffsetEnd
p104
V12
p105
sVCharacterOffsetBegin
p106
V9
p107
sVPartOfSpeech
p108
VVBD
p109
sVLemma
p110
Vhave
p111
saa(lp112
V13
p113
a(dp114
VNormalizedNamedEntityTag
p115
V13.0
p116
sVLemma
p117
V13
p118
sVCharacterOffsetEnd
p119
V15
p120
sVPartOfSpeech
p121
VCD
p122
sVCharacterOffsetBegin
p123
V13
p124
sVNamedEntityTag
p125
VNUMBER
p126
saa(lp127
Vmusic
p128
a(dp129
VNamedEntityTag
p130
g103
sVCharacterOffsetEnd
p131
V21
p132
sVCharacterOffsetBegin
p133
V16
p134
sVPartOfSpeech
p135
VNN
p136
sVLemma
p137
Vmusic
p138
saa(lp139
Vfiles
p140
a(dp141
VNamedEntityTag
p142
g103
sVCharacterOffsetEnd
p143
V27
p144
sVCharacterOffsetBegin
p145
V22
p146
sVPartOfSpeech
p147
VNNS
p148
sVLemma
p149
Vfile
p150
saa(lp151
Vand
p152
a(dp153
VNamedEntityTag
p154
g103
sVCharacterOffsetEnd
p155
V31
p156
sVCharacterOffsetBegin
p157
V28
p158
sVPartOfSpeech
p159
VCC
p160
sVLemma
p161
Vand
p162
saa(lp163
V30
p164
a(dp165
VNormalizedNamedEntityTag
p166
V30.0
p167
sVLemma
p168
V30
p169
sVCharacterOffsetEnd
p170
V34
p171
sVPartOfSpeech
p172
VCD
p173
sVCharacterOffsetBegin
p174
V32
p175
sVNamedEntityTag
p176
VNUMBER
p177
saa(lp178
Vvideo
p179
a(dp180
VNamedEntityTag
p181
g103
sVCharacterOffsetEnd
p182
V40
p183
sVCharacterOffsetBegin
p184
V35
p185
sVPartOfSpeech
p186
VNN
p187
sVLemma
p188
Vvideo
p189
saa(lp190
Vfiles
p191
a(dp192
VNamedEntityTag
p193
g103
sVCharacterOffsetEnd
p194
V46
p195
sVCharacterOffsetBegin
p196
V41
p197
sVPartOfSpeech
p198
VNNS
p199
sVLemma
p200
Vfile
p201
saa(lp202
Von
p203
a(dp204
VNamedEntityTag
p205
g103
sVCharacterOffsetEnd
p206
V49
p207
sVCharacterOffsetBegin
p208
V47
p209
sVPartOfSpeech
p210
VIN
p211
sVLemma
p212
Von
p213
saa(lp214
Vher
p215
a(dp216
VNamedEntityTag
p217
g103
sVCharacterOffsetEnd
p218
V53
p219
sVCharacterOffsetBegin
p220
V50
p221
sVPartOfSpeech
p222
VPRP$
p223
sVLemma
p224
Vshe
p225
saa(lp226
Vflash
p227
a(dp228
VNamedEntityTag
p229
g103
sVCharacterOffsetEnd
p230
V59
p231
sVCharacterOffsetBegin
p232
V54
p233
sVPartOfSpeech
p234
VNN
p235
sVLemma
p236
Vflash
p237
saa(lp238
Vdrive
p239
a(dp240
VNamedEntityTag
p241
g103
sVCharacterOffsetEnd
p242
V65
p243
sVCharacterOffsetBegin
p244
V60
p245
sVPartOfSpeech
p246
VNN
p247
sVLemma
p248
Vdrive
p249
saa(lp250
V.
p251
a(dp252
VNamedEntityTag
p253
g103
sVCharacterOffsetEnd
p254
V67
p255
sVCharacterOffsetBegin
p256
V66
p257
sVPartOfSpeech
p258
g251
sVLemma
p259
g251
saasVindexeddependencies
p260
(lp261
(lp262
Vroot
p263
aVROOT-0
p264
aVhad-2
p265
aa(lp266
Vnsubj
p267
aVhad-2
p268
aVVanessa-1
p269
aa(lp270
Vnum
p271
aVfiles-5
p272
aV13-3
p273
aa(lp274
Vnn
p275
aVfiles-5
p276
aVmusic-4
p277
aa(lp278
Vdobj
p279
aVhad-2
p280
aVfiles-5
p281
aa(lp282
Vnum
p283
aVfiles-9
p284
aV30-7
p285
aa(lp286
Vnn
p287
aVfiles-9
p288
aVvideo-8
p289
aa(lp290
Vconj_and
p291
aVfiles-5
p292
aVfiles-9
p293
aa(lp294
Vposs
p295
aVdrive-13
p296
aVher-11
p297
aa(lp298
Vnn
p299
aVdrive-13
p300
aVflash-12
p301
aa(lp302
Vprep_on
p303
aVfiles-5
p304
aVdrive-13
p305
aasa(dp306
Vparsetree
p307
V(ROOT (SBARQ (SBAR (IN If) (S (NP (PRP she)) (VP (VBD deleted) (NP (NP (CD 10)) (PP (IN of) (NP (DT the) (NNS files))))))) (, ,) (WHNP (WHADJP (WRB how) (JJ many)) (NNS files)) (SQ (VP (VBD were) (ADVP (RB still)) (PP (IN on) (NP (PRP$ her) (NN flash) (NN drive))))) (. ?)))
p308
sVtext
p309
VIf she deleted 10 of the files , how many files were still on her flash drive ?
p310
sVdependencies
p311
(lp312
(lp313
Vroot
p314
aVROOT
p315
aVwere
p316
aa(lp317
Vmark
p318
aVdeleted
p319
aVIf
p320
aa(lp321
Vnsubj
p322
aVdeleted
p323
aVshe
p324
aa(lp325
Vadvcl
p326
aVwere
p327
aVdeleted
p328
aa(lp329
Vdobj
p330
aVdeleted
p331
aV10
p332
aa(lp333
Vdet
p334
aVfiles
p335
aVthe
p336
aa(lp337
Vprep_of
p338
aV10
p339
aVfiles
p340
aa(lp341
Vadvmod
p342
aVmany
p343
aVhow
p344
aa(lp345
Vamod
p346
aVfiles
p347
aVmany
p348
aa(lp349
Vnsubj
p350
aVwere
p351
aVfiles
p352
aa(lp353
Vadvmod
p354
aVwere
p355
aVstill
p356
aa(lp357
Vposs
p358
aVdrive
p359
aVher
p360
aa(lp361
Vnn
p362
aVdrive
p363
aVflash
p364
aa(lp365
Vprep_on
p366
aVwere
p367
aVdrive
p368
aasVwords
p369
(lp370
(lp371
VIf
p372
a(dp373
VNamedEntityTag
p374
g103
sVCharacterOffsetEnd
p375
V70
p376
sVCharacterOffsetBegin
p377
V68
p378
sVPartOfSpeech
p379
VIN
p380
sVLemma
p381
Vif
p382
saa(lp383
Vshe
p384
a(dp385
VNamedEntityTag
p386
g103
sVCharacterOffsetEnd
p387
V74
p388
sVCharacterOffsetBegin
p389
V71
p390
sVPartOfSpeech
p391
VPRP
p392
sVLemma
p393
Vshe
p394
saa(lp395
Vdeleted
p396
a(dp397
VNamedEntityTag
p398
g103
sVCharacterOffsetEnd
p399
V82
p400
sVCharacterOffsetBegin
p401
V75
p402
sVPartOfSpeech
p403
VVBD
p404
sVLemma
p405
Vdelete
p406
saa(lp407
V10
p408
a(dp409
VNormalizedNamedEntityTag
p410
V10.0
p411
sVLemma
p412
V10
p413
sVCharacterOffsetEnd
p414
V85
p415
sVPartOfSpeech
p416
VCD
p417
sVCharacterOffsetBegin
p418
V83
p419
sVNamedEntityTag
p420
VNUMBER
p421
saa(lp422
Vof
p423
a(dp424
VNamedEntityTag
p425
g103
sVCharacterOffsetEnd
p426
V88
p427
sVCharacterOffsetBegin
p428
V86
p429
sVPartOfSpeech
p430
VIN
p431
sVLemma
p432
Vof
p433
saa(lp434
Vthe
p435
a(dp436
VNamedEntityTag
p437
g103
sVCharacterOffsetEnd
p438
V92
p439
sVCharacterOffsetBegin
p440
V89
p441
sVPartOfSpeech
p442
VDT
p443
sVLemma
p444
Vthe
p445
saa(lp446
Vfiles
p447
a(dp448
VNamedEntityTag
p449
g103
sVCharacterOffsetEnd
p450
V98
p451
sVCharacterOffsetBegin
p452
V93
p453
sVPartOfSpeech
p454
VNNS
p455
sVLemma
p456
Vfile
p457
saa(lp458
V,
p459
a(dp460
VNamedEntityTag
p461
g103
sVCharacterOffsetEnd
p462
V100
p463
sVCharacterOffsetBegin
p464
V99
p465
sVPartOfSpeech
p466
g459
sVLemma
p467
g459
saa(lp468
Vhow
p469
a(dp470
VNamedEntityTag
p471
g103
sVCharacterOffsetEnd
p472
V104
p473
sVCharacterOffsetBegin
p474
V101
p475
sVPartOfSpeech
p476
VWRB
p477
sVLemma
p478
Vhow
p479
saa(lp480
Vmany
p481
a(dp482
VNamedEntityTag
p483
g103
sVCharacterOffsetEnd
p484
V109
p485
sVCharacterOffsetBegin
p486
V105
p487
sVPartOfSpeech
p488
VJJ
p489
sVLemma
p490
Vmany
p491
saa(lp492
Vfiles
p493
a(dp494
VNamedEntityTag
p495
g103
sVCharacterOffsetEnd
p496
V115
p497
sVCharacterOffsetBegin
p498
V110
p499
sVPartOfSpeech
p500
VNNS
p501
sVLemma
p502
Vfile
p503
saa(lp504
Vwere
p505
a(dp506
VNamedEntityTag
p507
g103
sVCharacterOffsetEnd
p508
V120
p509
sVCharacterOffsetBegin
p510
V116
p511
sVPartOfSpeech
p512
VVBD
p513
sVLemma
p514
Vbe
p515
saa(lp516
Vstill
p517
a(dp518
VNamedEntityTag
p519
g103
sVCharacterOffsetEnd
p520
V126
p521
sVCharacterOffsetBegin
p522
V121
p523
sVPartOfSpeech
p524
VRB
p525
sVLemma
p526
Vstill
p527
saa(lp528
Von
p529
a(dp530
VNamedEntityTag
p531
g103
sVCharacterOffsetEnd
p532
V129
p533
sVCharacterOffsetBegin
p534
V127
p535
sVPartOfSpeech
p536
VIN
p537
sVLemma
p538
Von
p539
saa(lp540
Vher
p541
a(dp542
VNamedEntityTag
p543
g103
sVCharacterOffsetEnd
p544
V133
p545
sVCharacterOffsetBegin
p546
V130
p547
sVPartOfSpeech
p548
VPRP$
p549
sVLemma
p550
Vshe
p551
saa(lp552
Vflash
p553
a(dp554
VNamedEntityTag
p555
g103
sVCharacterOffsetEnd
p556
V139
p557
sVCharacterOffsetBegin
p558
V134
p559
sVPartOfSpeech
p560
VNN
p561
sVLemma
p562
Vflash
p563
saa(lp564
Vdrive
p565
a(dp566
VNamedEntityTag
p567
g103
sVCharacterOffsetEnd
p568
V145
p569
sVCharacterOffsetBegin
p570
V140
p571
sVPartOfSpeech
p572
VNN
p573
sVLemma
p574
Vdrive
p575
saa(lp576
V?
p577
a(dp578
VNamedEntityTag
p579
g103
sVCharacterOffsetEnd
p580
V147
p581
sVCharacterOffsetBegin
p582
V146
p583
sVPartOfSpeech
p584
g251
sVLemma
p585
g577
saasVindexeddependencies
p586
(lp587
(lp588
Vroot
p589
aVROOT-0
p590
aVwere-12
p591
aa(lp592
Vmark
p593
aVdeleted-3
p594
aVIf-1
p595
aa(lp596
Vnsubj
p597
aVdeleted-3
p598
aVshe-2
p599
aa(lp600
Vadvcl
p601
aVwere-12
p602
aVdeleted-3
p603
aa(lp604
Vdobj
p605
aVdeleted-3
p606
aV10-4
p607
aa(lp608
Vdet
p609
aVfiles-7
p610
aVthe-6
p611
aa(lp612
Vprep_of
p613
aV10-4
p614
aVfiles-7
p615
aa(lp616
Vadvmod
p617
aVmany-10
p618
aVhow-9
p619
aa(lp620
Vamod
p621
aVfiles-11
p622
aVmany-10
p623
aa(lp624
Vnsubj
p625
aVwere-12
p626
aVfiles-11
p627
aa(lp628
Vadvmod
p629
aVwere-12
p630
aVstill-13
p631
aa(lp632
Vposs
p633
aVdrive-17
p634
aVher-15
p635
aa(lp636
Vnn
p637
aVdrive-17
p638
aVflash-16
p639
aa(lp640
Vprep_on
p641
aVwere-12
p642
aVdrive-17
p643
aasas.