(dp0
Vcoref
p1
(lp2
(lp3
(lp4
(lp5
Vthem
p6
aI1
aI4
aI4
aI5
aa(lp7
V6 girls
p8
aI0
aI3
aI2
aI4
aaaasVsentences
p9
(lp10
(dp11
Vparsetree
p12
V(ROOT (S (NP (EX There)) (VP (VBD were) (NP (NP (CD 6) (NNS girls)) (CC and) (NP (NP (CD 48) (NNS boys)) (VP (VBG trying) (PRT (RP out)) (PP (IN for) (NP (DT the) (NNS schools) (NN basketball) (NN team))))))) (. .)))
p13
sVtext
p14
VThere were 6 girls and 48 boys trying out for the schools basketball team .
p15
sVdependencies
p16
(lp17
(lp18
Vroot
p19
aVROOT
p20
aVwere
p21
aa(lp22
Vexpl
p23
aVwere
p24
aVThere
p25
aa(lp26
Vnum
p27
aVgirls
p28
aV6
p29
aa(lp30
Vnsubj
p31
aVwere
p32
aVgirls
p33
aa(lp34
Vnum
p35
aVboys
p36
aV48
p37
aa(lp38
Vconj_and
p39
aVgirls
p40
aVboys
p41
aa(lp42
Vvmod
p43
aVboys
p44
aVtrying
p45
aa(lp46
Vprt
p47
aVtrying
p48
aVout
p49
aa(lp50
Vdet
p51
aVteam
p52
aVthe
p53
aa(lp54
Vnn
p55
aVteam
p56
aVschools
p57
aa(lp58
Vnn
p59
aVteam
p60
aVbasketball
p61
aa(lp62
Vprep_for
p63
aVtrying
p64
aVteam
p65
aasVwords
p66
(lp67
(lp68
VThere
p69
a(dp70
VNamedEntityTag
p71
VO
p72
sVCharacterOffsetEnd
p73
g29
sVCharacterOffsetBegin
p74
V1
p75
sVPartOfSpeech
p76
VEX
p77
sVLemma
p78
Vthere
p79
saa(lp80
Vwere
p81
a(dp82
VNamedEntityTag
p83
g72
sVCharacterOffsetEnd
p84
V11
p85
sVCharacterOffsetBegin
p86
V7
p87
sVPartOfSpeech
p88
VVBD
p89
sVLemma
p90
Vbe
p91
saa(lp92
g29
a(dp93
VNormalizedNamedEntityTag
p94
V6.0
p95
sVLemma
p96
g29
sVCharacterOffsetEnd
p97
V13
p98
sVPartOfSpeech
p99
VCD
p100
sVCharacterOffsetBegin
p101
V12
p102
sVNamedEntityTag
p103
VNUMBER
p104
saa(lp105
Vgirls
p106
a(dp107
VNamedEntityTag
p108
g72
sVCharacterOffsetEnd
p109
V19
p110
sVCharacterOffsetBegin
p111
V14
p112
sVPartOfSpeech
p113
VNNS
p114
sVLemma
p115
Vgirl
p116
saa(lp117
Vand
p118
a(dp119
VNamedEntityTag
p120
g72
sVCharacterOffsetEnd
p121
V23
p122
sVCharacterOffsetBegin
p123
V20
p124
sVPartOfSpeech
p125
VCC
p126
sVLemma
p127
Vand
p128
saa(lp129
V48
p130
a(dp131
VNormalizedNamedEntityTag
p132
V48.0
p133
sVLemma
p134
V48
p135
sVCharacterOffsetEnd
p136
V26
p137
sVPartOfSpeech
p138
VCD
p139
sVCharacterOffsetBegin
p140
V24
p141
sVNamedEntityTag
p142
VNUMBER
p143
saa(lp144
Vboys
p145
a(dp146
VNamedEntityTag
p147
g72
sVCharacterOffsetEnd
p148
V31
p149
sVCharacterOffsetBegin
p150
V27
p151
sVPartOfSpeech
p152
VNNS
p153
sVLemma
p154
Vboy
p155
saa(lp156
Vtrying
p157
a(dp158
VNamedEntityTag
p159
g72
sVCharacterOffsetEnd
p160
V38
p161
sVCharacterOffsetBegin
p162
V32
p163
sVPartOfSpeech
p164
VVBG
p165
sVLemma
p166
Vtry
p167
saa(lp168
Vout
p169
a(dp170
VNamedEntityTag
p171
g72
sVCharacterOffsetEnd
p172
V42
p173
sVCharacterOffsetBegin
p174
V39
p175
sVPartOfSpeech
p176
VRP
p177
sVLemma
p178
Vout
p179
saa(lp180
Vfor
p181
a(dp182
VNamedEntityTag
p183
g72
sVCharacterOffsetEnd
p184
V46
p185
sVCharacterOffsetBegin
p186
V43
p187
sVPartOfSpeech
p188
VIN
p189
sVLemma
p190
Vfor
p191
saa(lp192
Vthe
p193
a(dp194
VNamedEntityTag
p195
g72
sVCharacterOffsetEnd
p196
V50
p197
sVCharacterOffsetBegin
p198
V47
p199
sVPartOfSpeech
p200
VDT
p201
sVLemma
p202
Vthe
p203
saa(lp204
Vschools
p205
a(dp206
VNamedEntityTag
p207
g72
sVCharacterOffsetEnd
p208
V58
p209
sVCharacterOffsetBegin
p210
V51
p211
sVPartOfSpeech
p212
VNNS
p213
sVLemma
p214
Vschool
p215
saa(lp216
Vbasketball
p217
a(dp218
VNamedEntityTag
p219
g72
sVCharacterOffsetEnd
p220
V69
p221
sVCharacterOffsetBegin
p222
V59
p223
sVPartOfSpeech
p224
VNN
p225
sVLemma
p226
Vbasketball
p227
saa(lp228
Vteam
p229
a(dp230
VNamedEntityTag
p231
g72
sVCharacterOffsetEnd
p232
V74
p233
sVCharacterOffsetBegin
p234
V70
p235
sVPartOfSpeech
p236
VNN
p237
sVLemma
p238
Vteam
p239
saa(lp240
V.
p241
a(dp242
VNamedEntityTag
p243
g72
sVCharacterOffsetEnd
p244
V76
p245
sVCharacterOffsetBegin
p246
V75
p247
sVPartOfSpeech
p248
g241
sVLemma
p249
g241
saasVindexeddependencies
p250
(lp251
(lp252
Vroot
p253
aVROOT-0
p254
aVwere-2
p255
aa(lp256
Vexpl
p257
aVwere-2
p258
aVThere-1
p259
aa(lp260
Vnum
p261
aVgirls-4
p262
aV6-3
p263
aa(lp264
Vnsubj
p265
aVwere-2
p266
aVgirls-4
p267
aa(lp268
Vnum
p269
aVboys-7
p270
aV48-6
p271
aa(lp272
Vconj_and
p273
aVgirls-4
p274
aVboys-7
p275
aa(lp276
Vvmod
p277
aVboys-7
p278
aVtrying-8
p279
aa(lp280
Vprt
p281
aVtrying-8
p282
aVout-9
p283
aa(lp284
Vdet
p285
aVteam-14
p286
aVthe-11
p287
aa(lp288
Vnn
p289
aVteam-14
p290
aVschools-12
p291
aa(lp292
Vnn
p293
aVteam-14
p294
aVbasketball-13
p295
aa(lp296
Vprep_for
p297
aVtrying-8
p298
aVteam-14
p299
aasa(dp300
Vparsetree
p301
V(ROOT (SBARQ (SBAR (IN If) (S (NP (NP (QP (RB only) (CD 7))) (PP (IN of) (NP (PRP them)))) (VP (VBD got) (VP (VBN called) (ADVP (RB back)))))) (, ,) (WHNP (WHADJP (WRB how) (JJ many)) (NNS students)) (SQ (VP (VBD did) (RB n't) (VP (VB make) (NP (DT the) (NN cut))))) (. ?)))
p302
sVtext
p303
VIf only 7 of them got called back , how many students didn't make the cut ?
p304
sVdependencies
p305
(lp306
(lp307
Vroot
p308
aVROOT
p309
aVmake
p310
aa(lp311
Vmark
p312
aVcalled
p313
aVIf
p314
aa(lp315
Vquantmod
p316
ag87
aVonly
p317
aa(lp318
Vnsubjpass
p319
aVcalled
p320
ag87
aa(lp321
Vprep_of
p322
ag87
aVthem
p323
aa(lp324
Vauxpass
p325
aVcalled
p326
aVgot
p327
aa(lp328
Vadvcl
p329
aVmake
p330
aVcalled
p331
aa(lp332
Vadvmod
p333
aVcalled
p334
aVback
p335
aa(lp336
Vadvmod
p337
aVmany
p338
aVhow
p339
aa(lp340
Vamod
p341
aVstudents
p342
aVmany
p343
aa(lp344
Vnsubj
p345
aVmake
p346
aVstudents
p347
aa(lp348
Vaux
p349
aVmake
p350
aVdid
p351
aa(lp352
Vneg
p353
aVmake
p354
aVn't
p355
aa(lp356
Vdet
p357
aVcut
p358
aVthe
p359
aa(lp360
Vdobj
p361
aVmake
p362
aVcut
p363
aasVwords
p364
(lp365
(lp366
VIf
p367
a(dp368
VNamedEntityTag
p369
g72
sVCharacterOffsetEnd
p370
V79
p371
sVCharacterOffsetBegin
p372
V77
p373
sVPartOfSpeech
p374
VIN
p375
sVLemma
p376
Vif
p377
saa(lp378
Vonly
p379
a(dp380
VNamedEntityTag
p381
g72
sVCharacterOffsetEnd
p382
V84
p383
sVCharacterOffsetBegin
p384
V80
p385
sVPartOfSpeech
p386
VRB
p387
sVLemma
p388
Vonly
p389
saa(lp390
g87
a(dp391
VNormalizedNamedEntityTag
p392
V7.0
p393
sVLemma
p394
g87
sVCharacterOffsetEnd
p395
V86
p396
sVPartOfSpeech
p397
VCD
p398
sVCharacterOffsetBegin
p399
V85
p400
sVNamedEntityTag
p401
VNUMBER
p402
saa(lp403
Vof
p404
a(dp405
VNamedEntityTag
p406
g72
sVCharacterOffsetEnd
p407
V89
p408
sVCharacterOffsetBegin
p409
V87
p410
sVPartOfSpeech
p411
VIN
p412
sVLemma
p413
Vof
p414
saa(lp415
Vthem
p416
a(dp417
VNamedEntityTag
p418
g72
sVCharacterOffsetEnd
p419
V94
p420
sVCharacterOffsetBegin
p421
V90
p422
sVPartOfSpeech
p423
VPRP
p424
sVLemma
p425
Vthey
p426
saa(lp427
Vgot
p428
a(dp429
VNamedEntityTag
p430
g72
sVCharacterOffsetEnd
p431
V98
p432
sVCharacterOffsetBegin
p433
V95
p434
sVPartOfSpeech
p435
VVBD
p436
sVLemma
p437
Vget
p438
saa(lp439
Vcalled
p440
a(dp441
VNamedEntityTag
p442
g72
sVCharacterOffsetEnd
p443
V105
p444
sVCharacterOffsetBegin
p445
V99
p446
sVPartOfSpeech
p447
VVBN
p448
sVLemma
p449
Vcall
p450
saa(lp451
Vback
p452
a(dp453
VNamedEntityTag
p454
g72
sVCharacterOffsetEnd
p455
V110
p456
sVCharacterOffsetBegin
p457
V106
p458
sVPartOfSpeech
p459
VRB
p460
sVLemma
p461
Vback
p462
saa(lp463
V,
p464
a(dp465
VNamedEntityTag
p466
g72
sVCharacterOffsetEnd
p467
V112
p468
sVCharacterOffsetBegin
p469
V111
p470
sVPartOfSpeech
p471
g464
sVLemma
p472
g464
saa(lp473
Vhow
p474
a(dp475
VNamedEntityTag
p476
g72
sVCharacterOffsetEnd
p477
V116
p478
sVCharacterOffsetBegin
p479
V113
p480
sVPartOfSpeech
p481
VWRB
p482
sVLemma
p483
Vhow
p484
saa(lp485
Vmany
p486
a(dp487
VNamedEntityTag
p488
g72
sVCharacterOffsetEnd
p489
V121
p490
sVCharacterOffsetBegin
p491
V117
p492
sVPartOfSpeech
p493
VJJ
p494
sVLemma
p495
Vmany
p496
saa(lp497
Vstudents
p498
a(dp499
VNamedEntityTag
p500
g72
sVCharacterOffsetEnd
p501
V130
p502
sVCharacterOffsetBegin
p503
V122
p504
sVPartOfSpeech
p505
VNNS
p506
sVLemma
p507
Vstudent
p508
saa(lp509
Vdid
p510
a(dp511
VNamedEntityTag
p512
g72
sVCharacterOffsetEnd
p513
V134
p514
sVCharacterOffsetBegin
p515
V131
p516
sVPartOfSpeech
p517
VVBD
p518
sVLemma
p519
Vdo
p520
saa(lp521
Vn't
p522
a(dp523
VNamedEntityTag
p524
g72
sVCharacterOffsetEnd
p525
V137
p526
sVCharacterOffsetBegin
p527
V134
p528
sVPartOfSpeech
p529
VRB
p530
sVLemma
p531
Vnot
p532
saa(lp533
Vmake
p534
a(dp535
VNamedEntityTag
p536
g72
sVCharacterOffsetEnd
p537
V142
p538
sVCharacterOffsetBegin
p539
V138
p540
sVPartOfSpeech
p541
VVB
p542
sVLemma
p543
Vmake
p544
saa(lp545
Vthe
p546
a(dp547
VNamedEntityTag
p548
g72
sVCharacterOffsetEnd
p549
V146
p550
sVCharacterOffsetBegin
p551
V143
p552
sVPartOfSpeech
p553
VDT
p554
sVLemma
p555
Vthe
p556
saa(lp557
Vcut
p558
a(dp559
VNamedEntityTag
p560
g72
sVCharacterOffsetEnd
p561
V150
p562
sVCharacterOffsetBegin
p563
V147
p564
sVPartOfSpeech
p565
VNN
p566
sVLemma
p567
Vcut
p568
saa(lp569
V?
p570
a(dp571
VNamedEntityTag
p572
g72
sVCharacterOffsetEnd
p573
V152
p574
sVCharacterOffsetBegin
p575
V151
p576
sVPartOfSpeech
p577
g241
sVLemma
p578
g570
saasVindexeddependencies
p579
(lp580
(lp581
Vroot
p582
aVROOT-0
p583
aVmake-15
p584
aa(lp585
Vmark
p586
aVcalled-7
p587
aVIf-1
p588
aa(lp589
Vquantmod
p590
aV7-3
p591
aVonly-2
p592
aa(lp593
Vnsubjpass
p594
aVcalled-7
p595
aV7-3
p596
aa(lp597
Vprep_of
p598
aV7-3
p599
aVthem-5
p600
aa(lp601
Vauxpass
p602
aVcalled-7
p603
aVgot-6
p604
aa(lp605
Vadvcl
p606
aVmake-15
p607
aVcalled-7
p608
aa(lp609
Vadvmod
p610
aVcalled-7
p611
aVback-8
p612
aa(lp613
Vadvmod
p614
aVmany-11
p615
aVhow-10
p616
aa(lp617
Vamod
p618
aVstudents-12
p619
aVmany-11
p620
aa(lp621
Vnsubj
p622
aVmake-15
p623
aVstudents-12
p624
aa(lp625
Vaux
p626
aVmake-15
p627
aVdid-13
p628
aa(lp629
Vneg
p630
aVmake-15
p631
aVn't-14
p632
aa(lp633
Vdet
p634
aVcut-17
p635
aVthe-16
p636
aa(lp637
Vdobj
p638
aVmake-15
p639
aVcut-17
p640
aasas.