(dp0
Vcoref
p1
(lp2
(lp3
(lp4
(lp5
Vher
p6
aI0
aI4
aI4
aI5
aa(lp7
VNila
p8
aI0
aI0
aI0
aI1
aaaa(lp9
(lp10
(lp11
Vcupcakes
p12
aI2
aI2
aI2
aI3
aa(lp13
Vcupcakes
p14
aI0
aI2
aI2
aI3
aaaasVsentences
p15
(lp16
(dp17
Vparsetree
p18
V(ROOT (S (NP (NNP Nila)) (VP (VBD bought) (NP (NNS cupcakes)) (PP (IN for) (NP (NP (PRP$ her) (NN sister) (POS 's)) (NN birthday) (NN party)))) (. .)))
p19
sVtext
p20
VNila bought cupcakes for her sister's birthday party .
p21
sVdependencies
p22
(lp23
(lp24
Vroot
p25
aVROOT
p26
aVbought
p27
aa(lp28
Vnsubj
p29
aVbought
p30
aVNila
p31
aa(lp32
Vdobj
p33
aVbought
p34
aVcupcakes
p35
aa(lp36
Vposs
p37
aVsister
p38
aVher
p39
aa(lp40
Vposs
p41
aVparty
p42
aVsister
p43
aa(lp44
Vnn
p45
aVparty
p46
aVbirthday
p47
aa(lp48
Vprep_for
p49
aVbought
p50
aVparty
p51
aasVwords
p52
(lp53
(lp54
VNila
p55
a(dp56
VNamedEntityTag
p57
VPERSON
p58
sVCharacterOffsetEnd
p59
V5
p60
sVCharacterOffsetBegin
p61
V1
p62
sVPartOfSpeech
p63
VNNP
p64
sVLemma
p65
VNila
p66
saa(lp67
Vbought
p68
a(dp69
VNamedEntityTag
p70
VO
p71
sVCharacterOffsetEnd
p72
V12
p73
sVCharacterOffsetBegin
p74
V6
p75
sVPartOfSpeech
p76
VVBD
p77
sVLemma
p78
Vbuy
p79
saa(lp80
Vcupcakes
p81
a(dp82
VNamedEntityTag
p83
g71
sVCharacterOffsetEnd
p84
V21
p85
sVCharacterOffsetBegin
p86
V13
p87
sVPartOfSpeech
p88
VNNS
p89
sVLemma
p90
Vcupcake
p91
saa(lp92
Vfor
p93
a(dp94
VNamedEntityTag
p95
g71
sVCharacterOffsetEnd
p96
V25
p97
sVCharacterOffsetBegin
p98
V22
p99
sVPartOfSpeech
p100
VIN
p101
sVLemma
p102
Vfor
p103
saa(lp104
Vher
p105
a(dp106
VNamedEntityTag
p107
g71
sVCharacterOffsetEnd
p108
V29
p109
sVCharacterOffsetBegin
p110
V26
p111
sVPartOfSpeech
p112
VPRP$
p113
sVLemma
p114
Vshe
p115
saa(lp116
Vsister
p117
a(dp118
VNamedEntityTag
p119
g71
sVCharacterOffsetEnd
p120
V36
p121
sVCharacterOffsetBegin
p122
V30
p123
sVPartOfSpeech
p124
VNN
p125
sVLemma
p126
Vsister
p127
saa(lp128
V's
p129
a(dp130
VNamedEntityTag
p131
g71
sVCharacterOffsetEnd
p132
V38
p133
sVCharacterOffsetBegin
p134
V36
p135
sVPartOfSpeech
p136
VPOS
p137
sVLemma
p138
V's
p139
saa(lp140
Vbirthday
p141
a(dp142
VNamedEntityTag
p143
g71
sVCharacterOffsetEnd
p144
V47
p145
sVCharacterOffsetBegin
p146
V39
p147
sVPartOfSpeech
p148
VNN
p149
sVLemma
p150
Vbirthday
p151
saa(lp152
Vparty
p153
a(dp154
VNamedEntityTag
p155
g71
sVCharacterOffsetEnd
p156
V53
p157
sVCharacterOffsetBegin
p158
V48
p159
sVPartOfSpeech
p160
VNN
p161
sVLemma
p162
Vparty
p163
saa(lp164
V.
p165
a(dp166
VNamedEntityTag
p167
g71
sVCharacterOffsetEnd
p168
V55
p169
sVCharacterOffsetBegin
p170
V54
p171
sVPartOfSpeech
p172
g165
sVLemma
p173
g165
saasVindexeddependencies
p174
(lp175
(lp176
Vroot
p177
aVROOT-0
p178
aVbought-2
p179
aa(lp180
Vnsubj
p181
aVbought-2
p182
aVNila-1
p183
aa(lp184
Vdobj
p185
aVbought-2
p186
aVcupcakes-3
p187
aa(lp188
Vposs
p189
aVsister-6
p190
aVher-5
p191
aa(lp192
Vposs
p193
aVparty-9
p194
aVsister-6
p195
aa(lp196
Vnn
p197
aVparty-9
p198
aVbirthday-8
p199
aa(lp200
Vprep_for
p201
aVbought-2
p202
aVparty-9
p203
aasa(dp204
Vparsetree
p205
V(ROOT (S (NP (NP (CD 0.5) (NNS times)) (PP (IN of) (NP (DT the) (CD 82) (NNS cupcakes)))) (VP (VBD had) (VP (VBZ sprinkles) (PP (IN on) (NP (NN top))))) (. .)))
p206
sVtext
p207
V0.5 times of the 82 cupcakes had sprinkles on top .
p208
sVdependencies
p209
(lp210
(lp211
Vroot
p212
aVROOT
p213
aVsprinkles
p214
aa(lp215
Vnum
p216
aVtimes
p217
aV0.5
p218
aa(lp219
Vnsubj
p220
aVsprinkles
p221
aVtimes
p222
aa(lp223
Vdet
p224
aVcupcakes
p225
aVthe
p226
aa(lp227
Vnum
p228
aVcupcakes
p229
aV82
p230
aa(lp231
Vprep_of
p232
aVtimes
p233
aVcupcakes
p234
aa(lp235
Vaux
p236
aVsprinkles
p237
aVhad
p238
aa(lp239
Vprep_on
p240
aVsprinkles
p241
aVtop
p242
aasVwords
p243
(lp244
(lp245
V0.5
p246
a(dp247
VNormalizedNamedEntityTag
p248
V0.5
p249
sVLemma
p250
V0.5
p251
sVCharacterOffsetEnd
p252
V59
p253
sVPartOfSpeech
p254
VCD
p255
sVCharacterOffsetBegin
p256
V56
p257
sVNamedEntityTag
p258
VNUMBER
p259
saa(lp260
Vtimes
p261
a(dp262
VNamedEntityTag
p263
g71
sVCharacterOffsetEnd
p264
V65
p265
sVCharacterOffsetBegin
p266
V60
p267
sVPartOfSpeech
p268
VNNS
p269
sVLemma
p270
Vtime
p271
saa(lp272
Vof
p273
a(dp274
VNamedEntityTag
p275
g71
sVCharacterOffsetEnd
p276
V68
p277
sVCharacterOffsetBegin
p278
V66
p279
sVPartOfSpeech
p280
VIN
p281
sVLemma
p282
Vof
p283
saa(lp284
Vthe
p285
a(dp286
VNamedEntityTag
p287
g71
sVCharacterOffsetEnd
p288
V72
p289
sVCharacterOffsetBegin
p290
V69
p291
sVPartOfSpeech
p292
VDT
p293
sVLemma
p294
Vthe
p295
saa(lp296
V82
p297
a(dp298
VNormalizedNamedEntityTag
p299
V82.0
p300
sVLemma
p301
V82
p302
sVCharacterOffsetEnd
p303
V75
p304
sVPartOfSpeech
p305
VCD
p306
sVCharacterOffsetBegin
p307
V73
p308
sVNamedEntityTag
p309
VNUMBER
p310
saa(lp311
Vcupcakes
p312
a(dp313
VNamedEntityTag
p314
g71
sVCharacterOffsetEnd
p315
V84
p316
sVCharacterOffsetBegin
p317
V76
p318
sVPartOfSpeech
p319
VNNS
p320
sVLemma
p321
Vcupcake
p322
saa(lp323
Vhad
p324
a(dp325
VNamedEntityTag
p326
g71
sVCharacterOffsetEnd
p327
V88
p328
sVCharacterOffsetBegin
p329
V85
p330
sVPartOfSpeech
p331
VVBD
p332
sVLemma
p333
Vhave
p334
saa(lp335
Vsprinkles
p336
a(dp337
VNamedEntityTag
p338
g71
sVCharacterOffsetEnd
p339
V98
p340
sVCharacterOffsetBegin
p341
V89
p342
sVPartOfSpeech
p343
VVBZ
p344
sVLemma
p345
Vsprinkle
p346
saa(lp347
Von
p348
a(dp349
VNamedEntityTag
p350
g71
sVCharacterOffsetEnd
p351
V101
p352
sVCharacterOffsetBegin
p353
V99
p354
sVPartOfSpeech
p355
VIN
p356
sVLemma
p357
Von
p358
saa(lp359
Vtop
p360
a(dp361
VNamedEntityTag
p362
g71
sVCharacterOffsetEnd
p363
V105
p364
sVCharacterOffsetBegin
p365
V102
p366
sVPartOfSpeech
p367
VNN
p368
sVLemma
p369
Vtop
p370
saa(lp371
g165
a(dp372
VNamedEntityTag
p373
g71
sVCharacterOffsetEnd
p374
V107
p375
sVCharacterOffsetBegin
p376
V106
p377
sVPartOfSpeech
p378
g165
sVLemma
p379
g165
saasVindexeddependencies
p380
(lp381
(lp382
Vroot
p383
aVROOT-0
p384
aVsprinkles-8
p385
aa(lp386
Vnum
p387
aVtimes-2
p388
aV0.5-1
p389
aa(lp390
Vnsubj
p391
aVsprinkles-8
p392
aVtimes-2
p393
aa(lp394
Vdet
p395
aVcupcakes-6
p396
aVthe-4
p397
aa(lp398
Vnum
p399
aVcupcakes-6
p400
aV82-5
p401
aa(lp402
Vprep_of
p403
aVtimes-2
p404
aVcupcakes-6
p405
aa(lp406
Vaux
p407
aVsprinkles-8
p408
aVhad-7
p409
aa(lp410
Vprep_on
p411
aVsprinkles-8
p412
aVtop-10
p413
aasa(dp414
Vparsetree
p415
V(ROOT (SBAR (WHADJP (WRB How) (JJ many)) (S (NP (NNS cupcakes)) (VP (VBD had) (VP (VBZ sprinkles)))) (. ?)))
p416
sVtext
p417
VHow many cupcakes had sprinkles ?
p418
sVdependencies
p419
(lp420
(lp421
Vroot
p422
aVROOT
p423
aVsprinkles
p424
aa(lp425
Vadvmod
p426
aVmany
p427
aVHow
p428
aa(lp429
Vdep
p430
aVsprinkles
p431
aVmany
p432
aa(lp433
Vnsubj
p434
aVsprinkles
p435
aVcupcakes
p436
aa(lp437
Vaux
p438
aVsprinkles
p439
aVhad
p440
aasVwords
p441
(lp442
(lp443
VHow
p444
a(dp445
VNamedEntityTag
p446
g71
sVCharacterOffsetEnd
p447
V111
p448
sVCharacterOffsetBegin
p449
V108
p450
sVPartOfSpeech
p451
VWRB
p452
sVLemma
p453
Vhow
p454
saa(lp455
Vmany
p456
a(dp457
VNamedEntityTag
p458
g71
sVCharacterOffsetEnd
p459
V116
p460
sVCharacterOffsetBegin
p461
V112
p462
sVPartOfSpeech
p463
VJJ
p464
sVLemma
p465
Vmany
p466
saa(lp467
Vcupcakes
p468
a(dp469
VNamedEntityTag
p470
g71
sVCharacterOffsetEnd
p471
V125
p472
sVCharacterOffsetBegin
p473
V117
p474
sVPartOfSpeech
p475
VNNS
p476
sVLemma
p477
Vcupcake
p478
saa(lp479
Vhad
p480
a(dp481
VNamedEntityTag
p482
g71
sVCharacterOffsetEnd
p483
V129
p484
sVCharacterOffsetBegin
p485
V126
p486
sVPartOfSpeech
p487
VVBD
p488
sVLemma
p489
Vhave
p490
saa(lp491
Vsprinkles
p492
a(dp493
VNamedEntityTag
p494
g71
sVCharacterOffsetEnd
p495
V139
p496
sVCharacterOffsetBegin
p497
V130
p498
sVPartOfSpeech
p499
VVBZ
p500
sVLemma
p501
Vsprinkle
p502
saa(lp503
V?
p504
a(dp505
VNamedEntityTag
p506
g71
sVCharacterOffsetEnd
p507
V141
p508
sVCharacterOffsetBegin
p509
V140
p510
sVPartOfSpeech
p511
g165
sVLemma
p512
g504
saasVindexeddependencies
p513
(lp514
(lp515
Vroot
p516
aVROOT-0
p517
aVsprinkles-5
p518
aa(lp519
Vadvmod
p520
aVmany-2
p521
aVHow-1
p522
aa(lp523
Vdep
p524
aVsprinkles-5
p525
aVmany-2
p526
aa(lp527
Vnsubj
p528
aVsprinkles-5
p529
aVcupcakes-3
p530
aa(lp531
Vaux
p532
aVsprinkles-5
p533
aVhad-4
p534
aasas.