(dp0
Vcoref
p1
(lp2
(lp3
(lp4
(lp5
VShe
p6
aI1
aI0
aI0
aI1
aa(lp7
VAmy
p8
aI0
aI5
aI5
aI6
aaa(lp9
(lp10
Vshe
p11
aI2
aI3
aI3
aI4
aa(lp12
VAmy
p13
aI0
aI5
aI5
aI6
aaa(lp14
(lp15
Vshe
p16
aI3
aI4
aI4
aI5
aa(lp17
VAmy
p18
aI0
aI5
aI5
aI6
aaaasVsentences
p19
(lp20
(dp21
Vparsetree
p22
V(ROOT (S (PP (IN For) (NP (DT the) (NN school) (S (VP (VB bake) (NP (NN sale)))))) (NP (NNP Amy)) (VP (VBD made) (NP (NNS pastries))) (. .)))
p23
sVtext
p24
VFor the school bake sale Amy made pastries .
p25
sVdependencies
p26
(lp27
(lp28
Vroot
p29
aVROOT
p30
aVmade
p31
aa(lp32
Vdet
p33
aVschool
p34
aVthe
p35
aa(lp36
Vprep_for
p37
aVmade
p38
aVschool
p39
aa(lp40
Vdep
p41
aVschool
p42
aVbake
p43
aa(lp44
Vdobj
p45
aVbake
p46
aVsale
p47
aa(lp48
Vnsubj
p49
aVmade
p50
aVAmy
p51
aa(lp52
Vdobj
p53
aVmade
p54
aVpastries
p55
aasVwords
p56
(lp57
(lp58
VFor
p59
a(dp60
VNamedEntityTag
p61
VO
p62
sVCharacterOffsetEnd
p63
V4
p64
sVCharacterOffsetBegin
p65
V1
p66
sVPartOfSpeech
p67
VIN
p68
sVLemma
p69
Vfor
p70
saa(lp71
Vthe
p72
a(dp73
VNamedEntityTag
p74
g62
sVCharacterOffsetEnd
p75
V8
p76
sVCharacterOffsetBegin
p77
V5
p78
sVPartOfSpeech
p79
VDT
p80
sVLemma
p81
Vthe
p82
saa(lp83
Vschool
p84
a(dp85
VNamedEntityTag
p86
g62
sVCharacterOffsetEnd
p87
V15
p88
sVCharacterOffsetBegin
p89
V9
p90
sVPartOfSpeech
p91
VNN
p92
sVLemma
p93
Vschool
p94
saa(lp95
Vbake
p96
a(dp97
VNamedEntityTag
p98
g62
sVCharacterOffsetEnd
p99
V20
p100
sVCharacterOffsetBegin
p101
V16
p102
sVPartOfSpeech
p103
VVB
p104
sVLemma
p105
Vbake
p106
saa(lp107
Vsale
p108
a(dp109
VNamedEntityTag
p110
g62
sVCharacterOffsetEnd
p111
V25
p112
sVCharacterOffsetBegin
p113
V21
p114
sVPartOfSpeech
p115
VNN
p116
sVLemma
p117
Vsale
p118
saa(lp119
VAmy
p120
a(dp121
VNamedEntityTag
p122
VPERSON
p123
sVCharacterOffsetEnd
p124
V29
p125
sVCharacterOffsetBegin
p126
V26
p127
sVPartOfSpeech
p128
VNNP
p129
sVLemma
p130
VAmy
p131
saa(lp132
Vmade
p133
a(dp134
VNamedEntityTag
p135
g62
sVCharacterOffsetEnd
p136
V34
p137
sVCharacterOffsetBegin
p138
V30
p139
sVPartOfSpeech
p140
VVBD
p141
sVLemma
p142
Vmake
p143
saa(lp144
Vpastries
p145
a(dp146
VNamedEntityTag
p147
g62
sVCharacterOffsetEnd
p148
V43
p149
sVCharacterOffsetBegin
p150
V35
p151
sVPartOfSpeech
p152
VNNS
p153
sVLemma
p154
Vpastry
p155
saa(lp156
V.
p157
a(dp158
VNamedEntityTag
p159
g62
sVCharacterOffsetEnd
p160
V45
p161
sVCharacterOffsetBegin
p162
V44
p163
sVPartOfSpeech
p164
g157
sVLemma
p165
g157
saasVindexeddependencies
p166
(lp167
(lp168
Vroot
p169
aVROOT-0
p170
aVmade-7
p171
aa(lp172
Vdet
p173
aVschool-3
p174
aVthe-2
p175
aa(lp176
Vprep_for
p177
aVmade-7
p178
aVschool-3
p179
aa(lp180
Vdep
p181
aVschool-3
p182
aVbake-4
p183
aa(lp184
Vdobj
p185
aVbake-4
p186
aVsale-5
p187
aa(lp188
Vnsubj
p189
aVmade-7
p190
aVAmy-6
p191
aa(lp192
Vdobj
p193
aVmade-7
p194
aVpastries-8
p195
aasa(dp196
Vparsetree
p197
V(ROOT (S (NP (PRP She)) (VP (JJ baked) (NP (NP (CD 15) (NNS cupcakes)) (CC and) (NP (CD 48) (NNS cookies)))) (. .)))
p198
sVtext
p199
VShe baked 15 cupcakes and 48 cookies .
p200
sVdependencies
p201
(lp202
(lp203
Vroot
p204
aVROOT
p205
aVbaked
p206
aa(lp207
Vnsubj
p208
aVbaked
p209
aVShe
p210
aa(lp211
Vnum
p212
aVcupcakes
p213
aV15
p214
aa(lp215
Vdobj
p216
aVbaked
p217
aVcupcakes
p218
aa(lp219
Vnum
p220
aVcookies
p221
aV48
p222
aa(lp223
Vconj_and
p224
aVcupcakes
p225
aVcookies
p226
aasVwords
p227
(lp228
(lp229
VShe
p230
a(dp231
VNamedEntityTag
p232
g62
sVCharacterOffsetEnd
p233
V49
p234
sVCharacterOffsetBegin
p235
V46
p236
sVPartOfSpeech
p237
VPRP
p238
sVLemma
p239
Vshe
p240
saa(lp241
Vbaked
p242
a(dp243
VNamedEntityTag
p244
g62
sVCharacterOffsetEnd
p245
V55
p246
sVCharacterOffsetBegin
p247
V50
p248
sVPartOfSpeech
p249
VJJ
p250
sVLemma
p251
Vbaked
p252
saa(lp253
V15
p254
a(dp255
VNormalizedNamedEntityTag
p256
V15.0
p257
sVLemma
p258
V15
p259
sVCharacterOffsetEnd
p260
V58
p261
sVPartOfSpeech
p262
VCD
p263
sVCharacterOffsetBegin
p264
V56
p265
sVNamedEntityTag
p266
VNUMBER
p267
saa(lp268
Vcupcakes
p269
a(dp270
VNamedEntityTag
p271
g62
sVCharacterOffsetEnd
p272
V67
p273
sVCharacterOffsetBegin
p274
V59
p275
sVPartOfSpeech
p276
VNNS
p277
sVLemma
p278
Vcupcake
p279
saa(lp280
Vand
p281
a(dp282
VNamedEntityTag
p283
g62
sVCharacterOffsetEnd
p284
V71
p285
sVCharacterOffsetBegin
p286
V68
p287
sVPartOfSpeech
p288
VCC
p289
sVLemma
p290
Vand
p291
saa(lp292
V48
p293
a(dp294
VNormalizedNamedEntityTag
p295
V48.0
p296
sVLemma
p297
V48
p298
sVCharacterOffsetEnd
p299
V74
p300
sVPartOfSpeech
p301
VCD
p302
sVCharacterOffsetBegin
p303
V72
p304
sVNamedEntityTag
p305
VNUMBER
p306
saa(lp307
Vcookies
p308
a(dp309
VNamedEntityTag
p310
g62
sVCharacterOffsetEnd
p311
V82
p312
sVCharacterOffsetBegin
p313
V75
p314
sVPartOfSpeech
p315
VNNS
p316
sVLemma
p317
Vcookie
p318
saa(lp319
g157
a(dp320
VNamedEntityTag
p321
g62
sVCharacterOffsetEnd
p322
V84
p323
sVCharacterOffsetBegin
p324
V83
p325
sVPartOfSpeech
p326
g157
sVLemma
p327
g157
saasVindexeddependencies
p328
(lp329
(lp330
Vroot
p331
aVROOT-0
p332
aVbaked-2
p333
aa(lp334
Vnsubj
p335
aVbaked-2
p336
aVShe-1
p337
aa(lp338
Vnum
p339
aVcupcakes-4
p340
aV15-3
p341
aa(lp342
Vdobj
p343
aVbaked-2
p344
aVcupcakes-4
p345
aa(lp346
Vnum
p347
aVcookies-7
p348
aV48-6
p349
aa(lp350
Vconj_and
p351
aVcupcakes-4
p352
aVcookies-7
p353
aasa(dp354
Vparsetree
p355
V(ROOT (S (PP (IN After) (NP (DT the) (NN sale))) (NP (PRP she)) (VP (VBD had) (NP (CD 12)) (S (VP (TO to) (VP (VB take) (PRT (RP back)) (NP (NN home)))))) (. .)))
p356
sVtext
p357
VAfter the sale she had 12 to take back home .
p358
sVdependencies
p359
(lp360
(lp361
Vroot
p362
aVROOT
p363
aVhad
p364
aa(lp365
Vdet
p366
aVsale
p367
aVthe
p368
aa(lp369
Vprep_after
p370
aVhad
p371
aVsale
p372
aa(lp373
Vnsubj
p374
aVhad
p375
aVshe
p376
aa(lp377
Vdobj
p378
aVhad
p379
aV12
p380
aa(lp381
Vaux
p382
aVtake
p383
aVto
p384
aa(lp385
Vvmod
p386
aVhad
p387
aVtake
p388
aa(lp389
Vprt
p390
aVtake
p391
aVback
p392
aa(lp393
Vdobj
p394
aVtake
p395
aVhome
p396
aasVwords
p397
(lp398
(lp399
VAfter
p400
a(dp401
VNamedEntityTag
p402
g62
sVCharacterOffsetEnd
p403
V90
p404
sVCharacterOffsetBegin
p405
V85
p406
sVPartOfSpeech
p407
VIN
p408
sVLemma
p409
Vafter
p410
saa(lp411
Vthe
p412
a(dp413
VNamedEntityTag
p414
g62
sVCharacterOffsetEnd
p415
V94
p416
sVCharacterOffsetBegin
p417
V91
p418
sVPartOfSpeech
p419
VDT
p420
sVLemma
p421
Vthe
p422
saa(lp423
Vsale
p424
a(dp425
VNamedEntityTag
p426
g62
sVCharacterOffsetEnd
p427
V99
p428
sVCharacterOffsetBegin
p429
V95
p430
sVPartOfSpeech
p431
VNN
p432
sVLemma
p433
Vsale
p434
saa(lp435
Vshe
p436
a(dp437
VNamedEntityTag
p438
g62
sVCharacterOffsetEnd
p439
V103
p440
sVCharacterOffsetBegin
p441
V100
p442
sVPartOfSpeech
p443
VPRP
p444
sVLemma
p445
Vshe
p446
saa(lp447
Vhad
p448
a(dp449
VNamedEntityTag
p450
g62
sVCharacterOffsetEnd
p451
V107
p452
sVCharacterOffsetBegin
p453
V104
p454
sVPartOfSpeech
p455
VVBD
p456
sVLemma
p457
Vhave
p458
saa(lp459
V12
p460
a(dp461
VNormalizedNamedEntityTag
p462
V12.0
p463
sVLemma
p464
V12
p465
sVCharacterOffsetEnd
p466
V110
p467
sVPartOfSpeech
p468
VCD
p469
sVCharacterOffsetBegin
p470
V108
p471
sVNamedEntityTag
p472
VNUMBER
p473
saa(lp474
Vto
p475
a(dp476
VNamedEntityTag
p477
g62
sVCharacterOffsetEnd
p478
V113
p479
sVCharacterOffsetBegin
p480
V111
p481
sVPartOfSpeech
p482
VTO
p483
sVLemma
p484
Vto
p485
saa(lp486
Vtake
p487
a(dp488
VNamedEntityTag
p489
g62
sVCharacterOffsetEnd
p490
V118
p491
sVCharacterOffsetBegin
p492
V114
p493
sVPartOfSpeech
p494
VVB
p495
sVLemma
p496
Vtake
p497
saa(lp498
Vback
p499
a(dp500
VNamedEntityTag
p501
g62
sVCharacterOffsetEnd
p502
V123
p503
sVCharacterOffsetBegin
p504
V119
p505
sVPartOfSpeech
p506
VRP
p507
sVLemma
p508
Vback
p509
saa(lp510
Vhome
p511
a(dp512
VNamedEntityTag
p513
g62
sVCharacterOffsetEnd
p514
V128
p515
sVCharacterOffsetBegin
p516
V124
p517
sVPartOfSpeech
p518
VNN
p519
sVLemma
p520
Vhome
p521
saa(lp522
g157
a(dp523
VNamedEntityTag
p524
g62
sVCharacterOffsetEnd
p525
V130
p526
sVCharacterOffsetBegin
p527
V129
p528
sVPartOfSpeech
p529
g157
sVLemma
p530
g157
saasVindexeddependencies
p531
(lp532
(lp533
Vroot
p534
aVROOT-0
p535
aVhad-5
p536
aa(lp537
Vdet
p538
aVsale-3
p539
aVthe-2
p540
aa(lp541
Vprep_after
p542
aVhad-5
p543
aVsale-3
p544
aa(lp545
Vnsubj
p546
aVhad-5
p547
aVshe-4
p548
aa(lp549
Vdobj
p550
aVhad-5
p551
aV12-6
p552
aa(lp553
Vaux
p554
aVtake-8
p555
aVto-7
p556
aa(lp557
Vvmod
p558
aVhad-5
p559
aVtake-8
p560
aa(lp561
Vprt
p562
aVtake-8
p563
aVback-9
p564
aa(lp565
Vdobj
p566
aVtake-8
p567
aVhome-10
p568
aasa(dp569
Vparsetree
p570
V(ROOT (SBARQ (WHADVP (WRB How) (NP (JJ many) (NNS pastries))) (SQ (VBD did) (NP (PRP she)) (VP (VB sell))) (. ?)))
p571
sVtext
p572
VHow many pastries did she sell ?
p573
sVdependencies
p574
(lp575
(lp576
Vroot
p577
aVROOT
p578
aVsell
p579
aa(lp580
Vadvmod
p581
aVsell
p582
aVHow
p583
aa(lp584
Vamod
p585
aVpastries
p586
aVmany
p587
aa(lp588
Vdep
p589
aVHow
p590
aVpastries
p591
aa(lp592
Vaux
p593
aVsell
p594
aVdid
p595
aa(lp596
Vnsubj
p597
aVsell
p598
aVshe
p599
aasVwords
p600
(lp601
(lp602
VHow
p603
a(dp604
VNamedEntityTag
p605
g62
sVCharacterOffsetEnd
p606
V134
p607
sVCharacterOffsetBegin
p608
V131
p609
sVPartOfSpeech
p610
VWRB
p611
sVLemma
p612
Vhow
p613
saa(lp614
Vmany
p615
a(dp616
VNamedEntityTag
p617
g62
sVCharacterOffsetEnd
p618
V139
p619
sVCharacterOffsetBegin
p620
V135
p621
sVPartOfSpeech
p622
VJJ
p623
sVLemma
p624
Vmany
p625
saa(lp626
Vpastries
p627
a(dp628
VNamedEntityTag
p629
g62
sVCharacterOffsetEnd
p630
V148
p631
sVCharacterOffsetBegin
p632
V140
p633
sVPartOfSpeech
p634
VNNS
p635
sVLemma
p636
Vpastry
p637
saa(lp638
Vdid
p639
a(dp640
VNamedEntityTag
p641
g62
sVCharacterOffsetEnd
p642
V152
p643
sVCharacterOffsetBegin
p644
V149
p645
sVPartOfSpeech
p646
VVBD
p647
sVLemma
p648
Vdo
p649
saa(lp650
Vshe
p651
a(dp652
VNamedEntityTag
p653
g62
sVCharacterOffsetEnd
p654
V156
p655
sVCharacterOffsetBegin
p656
V153
p657
sVPartOfSpeech
p658
VPRP
p659
sVLemma
p660
Vshe
p661
saa(lp662
Vsell
p663
a(dp664
VNamedEntityTag
p665
g62
sVCharacterOffsetEnd
p666
V161
p667
sVCharacterOffsetBegin
p668
V157
p669
sVPartOfSpeech
p670
VVB
p671
sVLemma
p672
Vsell
p673
saa(lp674
V?
p675
a(dp676
VNamedEntityTag
p677
g62
sVCharacterOffsetEnd
p678
V163
p679
sVCharacterOffsetBegin
p680
V162
p681
sVPartOfSpeech
p682
g157
sVLemma
p683
g675
saasVindexeddependencies
p684
(lp685
(lp686
Vroot
p687
aVROOT-0
p688
aVsell-6
p689
aa(lp690
Vadvmod
p691
aVsell-6
p692
aVHow-1
p693
aa(lp694
Vamod
p695
aVpastries-3
p696
aVmany-2
p697
aa(lp698
Vdep
p699
aVHow-1
p700
aVpastries-3
p701
aa(lp702
Vaux
p703
aVsell-6
p704
aVdid-4
p705
aa(lp706
Vnsubj
p707
aVsell-6
p708
aVshe-5
p709
aasas.