(dp0
Vcoref
p1
(lp2
(lp3
(lp4
(lp5
Vshe
p6
aI1
aI1
aI1
aI2
aa(lp7
VHaley
p8
aI0
aI4
aI4
aI5
aaa(lp9
(lp10
Vher
p11
aI1
aI13
aI13
aI14
aa(lp12
VHaley
p13
aI0
aI4
aI4
aI5
aaa(lp14
(lp15
Vshe
p16
aI1
aI16
aI16
aI17
aa(lp17
VHaley
p18
aI0
aI4
aI4
aI5
aaaa(lp19
(lp20
(lp21
Vthe pictures
p22
aI1
aI7
aI6
aI8
aa(lp23
V50 pictures
p24
aI0
aI7
aI6
aI8
aaaasVsentences
p25
(lp26
(dp27
Vparsetree
p28
V(ROOT (S (SBAR (IN While) (FRAG (PP (IN on) (NP (NN vacation))))) (, ,) (NP (NNP Haley)) (VP (VBD took) (NP (CD 50) (NNS pictures)) (PP (IN at) (NP (NP (DT the) (NN zoo)) (CC and) (NP (CD 8)))) (PP (IN at) (NP (DT the) (NN museum)))) (. .)))
p29
sVtext
p30
VWhile on vacation , Haley took 50 pictures at the zoo and 8 at the museum .
p31
sVdependencies
p32
(lp33
(lp34
Vroot
p35
aVROOT
p36
aVtook
p37
aa(lp38
Vmark
p39
aVon
p40
aVWhile
p41
aa(lp42
Vadvcl
p43
aVtook
p44
aVon
p45
aa(lp46
Vpobj
p47
aVon
p48
aVvacation
p49
aa(lp50
Vnsubj
p51
aVtook
p52
aVHaley
p53
aa(lp54
Vnum
p55
aVpictures
p56
aV50
p57
aa(lp58
Vdobj
p59
aVtook
p60
aVpictures
p61
aa(lp62
Vdet
p63
aVzoo
p64
aVthe
p65
aa(lp66
Vprep_at
p67
aVtook
p68
aVzoo
p69
aa(lp70
Vconj_and
p71
aVzoo
p72
aV8
p73
aa(lp74
Vdet
p75
aVmuseum
p76
aVthe
p77
aa(lp78
Vprep_at
p79
aVtook
p80
aVmuseum
p81
aasVwords
p82
(lp83
(lp84
VWhile
p85
a(dp86
VNamedEntityTag
p87
VO
p88
sVCharacterOffsetEnd
p89
V6
p90
sVCharacterOffsetBegin
p91
V1
p92
sVPartOfSpeech
p93
VIN
p94
sVLemma
p95
Vwhile
p96
saa(lp97
Von
p98
a(dp99
VNamedEntityTag
p100
g88
sVCharacterOffsetEnd
p101
V9
p102
sVCharacterOffsetBegin
p103
V7
p104
sVPartOfSpeech
p105
VIN
p106
sVLemma
p107
Von
p108
saa(lp109
Vvacation
p110
a(dp111
VNamedEntityTag
p112
g88
sVCharacterOffsetEnd
p113
V18
p114
sVCharacterOffsetBegin
p115
V10
p116
sVPartOfSpeech
p117
VNN
p118
sVLemma
p119
Vvacation
p120
saa(lp121
V,
p122
a(dp123
VNamedEntityTag
p124
g88
sVCharacterOffsetEnd
p125
V20
p126
sVCharacterOffsetBegin
p127
V19
p128
sVPartOfSpeech
p129
g122
sVLemma
p130
g122
saa(lp131
VHaley
p132
a(dp133
VNamedEntityTag
p134
VPERSON
p135
sVCharacterOffsetEnd
p136
V26
p137
sVCharacterOffsetBegin
p138
V21
p139
sVPartOfSpeech
p140
VNNP
p141
sVLemma
p142
VHaley
p143
saa(lp144
Vtook
p145
a(dp146
VNamedEntityTag
p147
g88
sVCharacterOffsetEnd
p148
V31
p149
sVCharacterOffsetBegin
p150
V27
p151
sVPartOfSpeech
p152
VVBD
p153
sVLemma
p154
Vtake
p155
saa(lp156
V50
p157
a(dp158
VNormalizedNamedEntityTag
p159
V50.0
p160
sVLemma
p161
V50
p162
sVCharacterOffsetEnd
p163
V34
p164
sVPartOfSpeech
p165
VCD
p166
sVCharacterOffsetBegin
p167
V32
p168
sVNamedEntityTag
p169
VNUMBER
p170
saa(lp171
Vpictures
p172
a(dp173
VNamedEntityTag
p174
g88
sVCharacterOffsetEnd
p175
V43
p176
sVCharacterOffsetBegin
p177
V35
p178
sVPartOfSpeech
p179
VNNS
p180
sVLemma
p181
Vpicture
p182
saa(lp183
Vat
p184
a(dp185
VNamedEntityTag
p186
g88
sVCharacterOffsetEnd
p187
V46
p188
sVCharacterOffsetBegin
p189
V44
p190
sVPartOfSpeech
p191
VIN
p192
sVLemma
p193
Vat
p194
saa(lp195
Vthe
p196
a(dp197
VNamedEntityTag
p198
g88
sVCharacterOffsetEnd
p199
V50
p200
sVCharacterOffsetBegin
p201
V47
p202
sVPartOfSpeech
p203
VDT
p204
sVLemma
p205
Vthe
p206
saa(lp207
Vzoo
p208
a(dp209
VNamedEntityTag
p210
g88
sVCharacterOffsetEnd
p211
V54
p212
sVCharacterOffsetBegin
p213
V51
p214
sVPartOfSpeech
p215
VNN
p216
sVLemma
p217
Vzoo
p218
saa(lp219
Vand
p220
a(dp221
VNamedEntityTag
p222
g88
sVCharacterOffsetEnd
p223
V58
p224
sVCharacterOffsetBegin
p225
V55
p226
sVPartOfSpeech
p227
VCC
p228
sVLemma
p229
Vand
p230
saa(lp231
g73
a(dp232
VNormalizedNamedEntityTag
p233
V8.0
p234
sVLemma
p235
g73
sVCharacterOffsetEnd
p236
V60
p237
sVPartOfSpeech
p238
VCD
p239
sVCharacterOffsetBegin
p240
V59
p241
sVNamedEntityTag
p242
VNUMBER
p243
saa(lp244
Vat
p245
a(dp246
VNamedEntityTag
p247
g88
sVCharacterOffsetEnd
p248
V63
p249
sVCharacterOffsetBegin
p250
V61
p251
sVPartOfSpeech
p252
VIN
p253
sVLemma
p254
Vat
p255
saa(lp256
Vthe
p257
a(dp258
VNamedEntityTag
p259
g88
sVCharacterOffsetEnd
p260
V67
p261
sVCharacterOffsetBegin
p262
V64
p263
sVPartOfSpeech
p264
VDT
p265
sVLemma
p266
Vthe
p267
saa(lp268
Vmuseum
p269
a(dp270
VNamedEntityTag
p271
g88
sVCharacterOffsetEnd
p272
V74
p273
sVCharacterOffsetBegin
p274
V68
p275
sVPartOfSpeech
p276
VNN
p277
sVLemma
p278
Vmuseum
p279
saa(lp280
V.
p281
a(dp282
VNamedEntityTag
p283
g88
sVCharacterOffsetEnd
p284
V76
p285
sVCharacterOffsetBegin
p286
V75
p287
sVPartOfSpeech
p288
g281
sVLemma
p289
g281
saasVindexeddependencies
p290
(lp291
(lp292
Vroot
p293
aVROOT-0
p294
aVtook-6
p295
aa(lp296
Vmark
p297
aVon-2
p298
aVWhile-1
p299
aa(lp300
Vadvcl
p301
aVtook-6
p302
aVon-2
p303
aa(lp304
Vpobj
p305
aVon-2
p306
aVvacation-3
p307
aa(lp308
Vnsubj
p309
aVtook-6
p310
aVHaley-5
p311
aa(lp312
Vnum
p313
aVpictures-8
p314
aV50-7
p315
aa(lp316
Vdobj
p317
aVtook-6
p318
aVpictures-8
p319
aa(lp320
Vdet
p321
aVzoo-11
p322
aVthe-10
p323
aa(lp324
Vprep_at
p325
aVtook-6
p326
aVzoo-11
p327
aa(lp328
Vconj_and
p329
aVzoo-11
p330
aV8-13
p331
aa(lp332
Vdet
p333
aVmuseum-16
p334
aVthe-15
p335
aa(lp336
Vprep_at
p337
aVtook-6
p338
aVmuseum-16
p339
aasa(dp340
Vparsetree
p341
V(ROOT (SBARQ (SBAR (IN If) (S (NP (PRP she)) (ADVP (RB later)) (VP (VBD deleted) (NP (NP (CD 38)) (PP (IN of) (NP (DT the) (NNS pictures))))))) (, ,) (WHNP (WHNP (WHADJP (WRB how) (JJ many)) (NNS pictures)) (PP (IN from) (NP (PRP$ her) (NN vacation)))) (SQ (VBD did) (NP (PRP she)) (ADVP (RB still)) (VP (VB have))) (. ?)))
p342
sVtext
p343
VIf she later deleted 38 of the pictures , how many pictures from her vacation did she still have ?
p344
sVdependencies
p345
(lp346
(lp347
Vroot
p348
aVROOT
p349
aVhave
p350
aa(lp351
Vmark
p352
aVdeleted
p353
aVIf
p354
aa(lp355
Vnsubj
p356
aVdeleted
p357
aVshe
p358
aa(lp359
Vadvmod
p360
aVdeleted
p361
aVlater
p362
aa(lp363
Vadvcl
p364
aVhave
p365
aVdeleted
p366
aa(lp367
Vdobj
p368
aVdeleted
p369
aV38
p370
aa(lp371
Vdet
p372
aVpictures
p373
aVthe
p374
aa(lp375
Vprep_of
p376
aV38
p377
aVpictures
p378
aa(lp379
Vadvmod
p380
aVmany
p381
aVhow
p382
aa(lp383
Vamod
p384
aVpictures
p385
aVmany
p386
aa(lp387
Vdobj
p388
aVhave
p389
aVpictures
p390
aa(lp391
Vposs
p392
aVvacation
p393
aVher
p394
aa(lp395
Vprep_from
p396
aVpictures
p397
aVvacation
p398
aa(lp399
Vaux
p400
aVhave
p401
aVdid
p402
aa(lp403
Vnsubj
p404
aVhave
p405
aVshe
p406
aa(lp407
Vadvmod
p408
aVhave
p409
aVstill
p410
aasVwords
p411
(lp412
(lp413
VIf
p414
a(dp415
VNamedEntityTag
p416
g88
sVCharacterOffsetEnd
p417
V79
p418
sVCharacterOffsetBegin
p419
V77
p420
sVPartOfSpeech
p421
VIN
p422
sVLemma
p423
Vif
p424
saa(lp425
Vshe
p426
a(dp427
VNamedEntityTag
p428
g88
sVCharacterOffsetEnd
p429
V83
p430
sVCharacterOffsetBegin
p431
V80
p432
sVPartOfSpeech
p433
VPRP
p434
sVLemma
p435
Vshe
p436
saa(lp437
Vlater
p438
a(dp439
VNamedEntityTag
p440
g88
sVCharacterOffsetEnd
p441
V89
p442
sVCharacterOffsetBegin
p443
V84
p444
sVPartOfSpeech
p445
VRB
p446
sVLemma
p447
Vlater
p448
saa(lp449
Vdeleted
p450
a(dp451
VNamedEntityTag
p452
g88
sVCharacterOffsetEnd
p453
V97
p454
sVCharacterOffsetBegin
p455
V90
p456
sVPartOfSpeech
p457
VVBD
p458
sVLemma
p459
Vdelete
p460
saa(lp461
V38
p462
a(dp463
VNormalizedNamedEntityTag
p464
V38.0
p465
sVLemma
p466
V38
p467
sVCharacterOffsetEnd
p468
V100
p469
sVPartOfSpeech
p470
VCD
p471
sVCharacterOffsetBegin
p472
V98
p473
sVNamedEntityTag
p474
VNUMBER
p475
saa(lp476
Vof
p477
a(dp478
VNamedEntityTag
p479
g88
sVCharacterOffsetEnd
p480
V103
p481
sVCharacterOffsetBegin
p482
V101
p483
sVPartOfSpeech
p484
VIN
p485
sVLemma
p486
Vof
p487
saa(lp488
Vthe
p489
a(dp490
VNamedEntityTag
p491
g88
sVCharacterOffsetEnd
p492
V107
p493
sVCharacterOffsetBegin
p494
V104
p495
sVPartOfSpeech
p496
VDT
p497
sVLemma
p498
Vthe
p499
saa(lp500
Vpictures
p501
a(dp502
VNamedEntityTag
p503
g88
sVCharacterOffsetEnd
p504
V116
p505
sVCharacterOffsetBegin
p506
V108
p507
sVPartOfSpeech
p508
VNNS
p509
sVLemma
p510
Vpicture
p511
saa(lp512
g122
a(dp513
VNamedEntityTag
p514
g88
sVCharacterOffsetEnd
p515
V118
p516
sVCharacterOffsetBegin
p517
V117
p518
sVPartOfSpeech
p519
g122
sVLemma
p520
g122
saa(lp521
Vhow
p522
a(dp523
VNamedEntityTag
p524
g88
sVCharacterOffsetEnd
p525
V122
p526
sVCharacterOffsetBegin
p527
V119
p528
sVPartOfSpeech
p529
VWRB
p530
sVLemma
p531
Vhow
p532
saa(lp533
Vmany
p534
a(dp535
VNamedEntityTag
p536
g88
sVCharacterOffsetEnd
p537
V127
p538
sVCharacterOffsetBegin
p539
V123
p540
sVPartOfSpeech
p541
VJJ
p542
sVLemma
p543
Vmany
p544
saa(lp545
Vpictures
p546
a(dp547
VNamedEntityTag
p548
g88
sVCharacterOffsetEnd
p549
V136
p550
sVCharacterOffsetBegin
p551
V128
p552
sVPartOfSpeech
p553
VNNS
p554
sVLemma
p555
Vpicture
p556
saa(lp557
Vfrom
p558
a(dp559
VNamedEntityTag
p560
g88
sVCharacterOffsetEnd
p561
V141
p562
sVCharacterOffsetBegin
p563
V137
p564
sVPartOfSpeech
p565
VIN
p566
sVLemma
p567
Vfrom
p568
saa(lp569
Vher
p570
a(dp571
VNamedEntityTag
p572
g88
sVCharacterOffsetEnd
p573
V145
p574
sVCharacterOffsetBegin
p575
V142
p576
sVPartOfSpeech
p577
VPRP$
p578
sVLemma
p579
Vshe
p580
saa(lp581
Vvacation
p582
a(dp583
VNamedEntityTag
p584
g88
sVCharacterOffsetEnd
p585
V154
p586
sVCharacterOffsetBegin
p587
V146
p588
sVPartOfSpeech
p589
VNN
p590
sVLemma
p591
Vvacation
p592
saa(lp593
Vdid
p594
a(dp595
VNamedEntityTag
p596
g88
sVCharacterOffsetEnd
p597
V158
p598
sVCharacterOffsetBegin
p599
V155
p600
sVPartOfSpeech
p601
VVBD
p602
sVLemma
p603
Vdo
p604
saa(lp605
Vshe
p606
a(dp607
VNamedEntityTag
p608
g88
sVCharacterOffsetEnd
p609
V162
p610
sVCharacterOffsetBegin
p611
V159
p612
sVPartOfSpeech
p613
VPRP
p614
sVLemma
p615
Vshe
p616
saa(lp617
Vstill
p618
a(dp619
VNamedEntityTag
p620
g88
sVCharacterOffsetEnd
p621
V168
p622
sVCharacterOffsetBegin
p623
V163
p624
sVPartOfSpeech
p625
VRB
p626
sVLemma
p627
Vstill
p628
saa(lp629
Vhave
p630
a(dp631
VNamedEntityTag
p632
g88
sVCharacterOffsetEnd
p633
V173
p634
sVCharacterOffsetBegin
p635
V169
p636
sVPartOfSpeech
p637
VVB
p638
sVLemma
p639
Vhave
p640
saa(lp641
V?
p642
a(dp643
VNamedEntityTag
p644
g88
sVCharacterOffsetEnd
p645
V175
p646
sVCharacterOffsetBegin
p647
V174
p648
sVPartOfSpeech
p649
g281
sVLemma
p650
g642
saasVindexeddependencies
p651
(lp652
(lp653
Vroot
p654
aVROOT-0
p655
aVhave-19
p656
aa(lp657
Vmark
p658
aVdeleted-4
p659
aVIf-1
p660
aa(lp661
Vnsubj
p662
aVdeleted-4
p663
aVshe-2
p664
aa(lp665
Vadvmod
p666
aVdeleted-4
p667
aVlater-3
p668
aa(lp669
Vadvcl
p670
aVhave-19
p671
aVdeleted-4
p672
aa(lp673
Vdobj
p674
aVdeleted-4
p675
aV38-5
p676
aa(lp677
Vdet
p678
aVpictures-8
p679
aVthe-7
p680
aa(lp681
Vprep_of
p682
aV38-5
p683
aVpictures-8
p684
aa(lp685
Vadvmod
p686
aVmany-11
p687
aVhow-10
p688
aa(lp689
Vamod
p690
aVpictures-12
p691
aVmany-11
p692
aa(lp693
Vdobj
p694
aVhave-19
p695
aVpictures-12
p696
aa(lp697
Vposs
p698
aVvacation-15
p699
aVher-14
p700
aa(lp701
Vprep_from
p702
aVpictures-12
p703
aVvacation-15
p704
aa(lp705
Vaux
p706
aVhave-19
p707
aVdid-16
p708
aa(lp709
Vnsubj
p710
aVhave-19
p711
aVshe-17
p712
aa(lp713
Vadvmod
p714
aVhave-19
p715
aVstill-18
p716
aasas.