(dp0
Vcoref
p1
(lp2
(lp3
(lp4
(lp5
VRita
p6
aI0
aI0
aI0
aI1
aa(lp7
VRita 's
p8
aI1
aI7
aI7
aI9
aaa(lp9
(lp10
VRita 's
p11
aI2
aI7
aI7
aI9
aa(lp12
VRita 's
p13
aI1
aI7
aI7
aI9
aaaa(lp14
(lp15
(lp16
Vbeads
p17
aI2
aI3
aI3
aI4
aa(lp18
Vthe 35 beads on Rita 's necklace
p19
aI1
aI5
aI3
aI10
aaaa(lp20
(lp21
(lp22
VRita 's necklace
p23
aI2
aI9
aI7
aI10
aa(lp24
VRita 's necklace
p25
aI1
aI9
aI7
aI10
aaaasVsentences
p26
(lp27
(dp28
Vparsetree
p29
V(ROOT (S (NP (NNP Rita)) (VP (VBZ has) (NP (DT a) (JJ new) (JJ beaded) (NN necklace))) (. .)))
p30
sVtext
p31
VRita has a new beaded necklace .
p32
sVdependencies
p33
(lp34
(lp35
Vroot
p36
aVROOT
p37
aVhas
p38
aa(lp39
Vnsubj
p40
aVhas
p41
aVRita
p42
aa(lp43
Vdet
p44
aVnecklace
p45
aVa
p46
aa(lp47
Vamod
p48
aVnecklace
p49
aVnew
p50
aa(lp51
Vamod
p52
aVnecklace
p53
aVbeaded
p54
aa(lp55
Vdobj
p56
aVhas
p57
aVnecklace
p58
aasVwords
p59
(lp60
(lp61
VRita
p62
a(dp63
VNamedEntityTag
p64
VPERSON
p65
sVCharacterOffsetEnd
p66
V5
p67
sVCharacterOffsetBegin
p68
V1
p69
sVPartOfSpeech
p70
VNNP
p71
sVLemma
p72
VRita
p73
saa(lp74
Vhas
p75
a(dp76
VNamedEntityTag
p77
VO
p78
sVCharacterOffsetEnd
p79
V9
p80
sVCharacterOffsetBegin
p81
V6
p82
sVPartOfSpeech
p83
VVBZ
p84
sVLemma
p85
Vhave
p86
saa(lp87
g46
a(dp88
VNamedEntityTag
p89
g78
sVCharacterOffsetEnd
p90
V11
p91
sVCharacterOffsetBegin
p92
V10
p93
sVPartOfSpeech
p94
VDT
p95
sVLemma
p96
g46
saa(lp97
Vnew
p98
a(dp99
VNamedEntityTag
p100
g78
sVCharacterOffsetEnd
p101
V15
p102
sVCharacterOffsetBegin
p103
V12
p104
sVPartOfSpeech
p105
VJJ
p106
sVLemma
p107
Vnew
p108
saa(lp109
Vbeaded
p110
a(dp111
VNamedEntityTag
p112
g78
sVCharacterOffsetEnd
p113
V22
p114
sVCharacterOffsetBegin
p115
V16
p116
sVPartOfSpeech
p117
VJJ
p118
sVLemma
p119
Vbeaded
p120
saa(lp121
Vnecklace
p122
a(dp123
VNamedEntityTag
p124
g78
sVCharacterOffsetEnd
p125
V31
p126
sVCharacterOffsetBegin
p127
V23
p128
sVPartOfSpeech
p129
VNN
p130
sVLemma
p131
Vnecklace
p132
saa(lp133
V.
p134
a(dp135
VNamedEntityTag
p136
g78
sVCharacterOffsetEnd
p137
V33
p138
sVCharacterOffsetBegin
p139
V32
p140
sVPartOfSpeech
p141
g134
sVLemma
p142
g134
saasVindexeddependencies
p143
(lp144
(lp145
Vroot
p146
aVROOT-0
p147
aVhas-2
p148
aa(lp149
Vnsubj
p150
aVhas-2
p151
aVRita-1
p152
aa(lp153
Vdet
p154
aVnecklace-6
p155
aVa-3
p156
aa(lp157
Vamod
p158
aVnecklace-6
p159
aVnew-4
p160
aa(lp161
Vamod
p162
aVnecklace-6
p163
aVbeaded-5
p164
aa(lp165
Vdobj
p166
aVhas-2
p167
aVnecklace-6
p168
aasa(dp169
Vparsetree
p170
V(ROOT (S (NP (NP (CD 0.2) (NNS times)) (PP (IN of) (NP (NP (DT the) (CD 35) (NNS beads)) (PP (IN on) (NP (NP (NNP Rita) (POS 's)) (NN necklace)))))) (VP (VBP are) (ADJP (JJ blue))) (. .)))
p171
sVtext
p172
V0.2 times of the 35 beads on Rita's necklace are blue .
p173
sVdependencies
p174
(lp175
(lp176
Vroot
p177
aVROOT
p178
aVblue
p179
aa(lp180
Vnum
p181
aVtimes
p182
aV0.2
p183
aa(lp184
Vnsubj
p185
aVblue
p186
aVtimes
p187
aa(lp188
Vdet
p189
aVbeads
p190
aVthe
p191
aa(lp192
Vnum
p193
aVbeads
p194
aV35
p195
aa(lp196
Vprep_of
p197
aVtimes
p198
aVbeads
p199
aa(lp200
Vposs
p201
aVnecklace
p202
aVRita
p203
aa(lp204
Vprep_on
p205
aVbeads
p206
aVnecklace
p207
aa(lp208
Vcop
p209
aVblue
p210
aVare
p211
aasVwords
p212
(lp213
(lp214
V0.2
p215
a(dp216
VNormalizedNamedEntityTag
p217
V0.2
p218
sVLemma
p219
V0.2
p220
sVCharacterOffsetEnd
p221
V37
p222
sVPartOfSpeech
p223
VCD
p224
sVCharacterOffsetBegin
p225
V34
p226
sVNamedEntityTag
p227
VNUMBER
p228
saa(lp229
Vtimes
p230
a(dp231
VNamedEntityTag
p232
g78
sVCharacterOffsetEnd
p233
V43
p234
sVCharacterOffsetBegin
p235
V38
p236
sVPartOfSpeech
p237
VNNS
p238
sVLemma
p239
Vtime
p240
saa(lp241
Vof
p242
a(dp243
VNamedEntityTag
p244
g78
sVCharacterOffsetEnd
p245
V46
p246
sVCharacterOffsetBegin
p247
V44
p248
sVPartOfSpeech
p249
VIN
p250
sVLemma
p251
Vof
p252
saa(lp253
Vthe
p254
a(dp255
VNamedEntityTag
p256
g78
sVCharacterOffsetEnd
p257
V50
p258
sVCharacterOffsetBegin
p259
V47
p260
sVPartOfSpeech
p261
VDT
p262
sVLemma
p263
Vthe
p264
saa(lp265
V35
p266
a(dp267
VNormalizedNamedEntityTag
p268
V35.0
p269
sVLemma
p270
V35
p271
sVCharacterOffsetEnd
p272
V53
p273
sVPartOfSpeech
p274
VCD
p275
sVCharacterOffsetBegin
p276
V51
p277
sVNamedEntityTag
p278
VNUMBER
p279
saa(lp280
Vbeads
p281
a(dp282
VNamedEntityTag
p283
g78
sVCharacterOffsetEnd
p284
V59
p285
sVCharacterOffsetBegin
p286
V54
p287
sVPartOfSpeech
p288
VNNS
p289
sVLemma
p290
Vbead
p291
saa(lp292
Von
p293
a(dp294
VNamedEntityTag
p295
g78
sVCharacterOffsetEnd
p296
V62
p297
sVCharacterOffsetBegin
p298
V60
p299
sVPartOfSpeech
p300
VIN
p301
sVLemma
p302
Von
p303
saa(lp304
VRita
p305
a(dp306
VNamedEntityTag
p307
VPERSON
p308
sVCharacterOffsetEnd
p309
V67
p310
sVCharacterOffsetBegin
p311
V63
p312
sVPartOfSpeech
p313
VNNP
p314
sVLemma
p315
VRita
p316
saa(lp317
V's
p318
a(dp319
VNamedEntityTag
p320
g78
sVCharacterOffsetEnd
p321
V69
p322
sVCharacterOffsetBegin
p323
V67
p324
sVPartOfSpeech
p325
VPOS
p326
sVLemma
p327
V's
p328
saa(lp329
Vnecklace
p330
a(dp331
VNamedEntityTag
p332
g78
sVCharacterOffsetEnd
p333
V78
p334
sVCharacterOffsetBegin
p335
V70
p336
sVPartOfSpeech
p337
VNN
p338
sVLemma
p339
Vnecklace
p340
saa(lp341
Vare
p342
a(dp343
VNamedEntityTag
p344
g78
sVCharacterOffsetEnd
p345
V82
p346
sVCharacterOffsetBegin
p347
V79
p348
sVPartOfSpeech
p349
VVBP
p350
sVLemma
p351
Vbe
p352
saa(lp353
Vblue
p354
a(dp355
VNamedEntityTag
p356
g78
sVCharacterOffsetEnd
p357
V87
p358
sVCharacterOffsetBegin
p359
V83
p360
sVPartOfSpeech
p361
VJJ
p362
sVLemma
p363
Vblue
p364
saa(lp365
g134
a(dp366
VNamedEntityTag
p367
g78
sVCharacterOffsetEnd
p368
V89
p369
sVCharacterOffsetBegin
p370
V88
p371
sVPartOfSpeech
p372
g134
sVLemma
p373
g134
saasVindexeddependencies
p374
(lp375
(lp376
Vroot
p377
aVROOT-0
p378
aVblue-12
p379
aa(lp380
Vnum
p381
aVtimes-2
p382
aV0.2-1
p383
aa(lp384
Vnsubj
p385
aVblue-12
p386
aVtimes-2
p387
aa(lp388
Vdet
p389
aVbeads-6
p390
aVthe-4
p391
aa(lp392
Vnum
p393
aVbeads-6
p394
aV35-5
p395
aa(lp396
Vprep_of
p397
aVtimes-2
p398
aVbeads-6
p399
aa(lp400
Vposs
p401
aVnecklace-10
p402
aVRita-8
p403
aa(lp404
Vprep_on
p405
aVbeads-6
p406
aVnecklace-10
p407
aa(lp408
Vcop
p409
aVblue-12
p410
aVare-11
p411
aasa(dp412
Vparsetree
p413
V(ROOT (SBARQ (WHNP (WHADJP (WRB How) (JJ many)) (NP (NP (JJ blue)) (NP (NNS beads)))) (SQ (VBP are) (NP (EX there)) (PP (IN on) (NP (NP (NNP Rita) (POS 's)) (NN necklace)))) (. ?)))
p414
sVtext
p415
VHow many blue beads are there on Rita's necklace ?
p416
sVdependencies
p417
(lp418
(lp419
Vroot
p420
aVROOT
p421
aVare
p422
aa(lp423
Vadvmod
p424
aVmany
p425
aVHow
p426
aa(lp427
Vamod
p428
aVblue
p429
aVmany
p430
aa(lp431
Vnsubj
p432
aVare
p433
aVblue
p434
aa(lp435
Vdep
p436
aVblue
p437
aVbeads
p438
aa(lp439
Vexpl
p440
aVare
p441
aVthere
p442
aa(lp443
Vposs
p444
aVnecklace
p445
aVRita
p446
aa(lp447
Vprep_on
p448
aVare
p449
aVnecklace
p450
aasVwords
p451
(lp452
(lp453
VHow
p454
a(dp455
VNamedEntityTag
p456
g78
sVCharacterOffsetEnd
p457
V93
p458
sVCharacterOffsetBegin
p459
V90
p460
sVPartOfSpeech
p461
VWRB
p462
sVLemma
p463
Vhow
p464
saa(lp465
Vmany
p466
a(dp467
VNamedEntityTag
p468
g78
sVCharacterOffsetEnd
p469
V98
p470
sVCharacterOffsetBegin
p471
V94
p472
sVPartOfSpeech
p473
VJJ
p474
sVLemma
p475
Vmany
p476
saa(lp477
Vblue
p478
a(dp479
VNamedEntityTag
p480
g78
sVCharacterOffsetEnd
p481
V103
p482
sVCharacterOffsetBegin
p483
V99
p484
sVPartOfSpeech
p485
VJJ
p486
sVLemma
p487
Vblue
p488
saa(lp489
Vbeads
p490
a(dp491
VNamedEntityTag
p492
g78
sVCharacterOffsetEnd
p493
V109
p494
sVCharacterOffsetBegin
p495
V104
p496
sVPartOfSpeech
p497
VNNS
p498
sVLemma
p499
Vbead
p500
saa(lp501
Vare
p502
a(dp503
VNamedEntityTag
p504
g78
sVCharacterOffsetEnd
p505
V113
p506
sVCharacterOffsetBegin
p507
V110
p508
sVPartOfSpeech
p509
VVBP
p510
sVLemma
p511
Vbe
p512
saa(lp513
Vthere
p514
a(dp515
VNamedEntityTag
p516
g78
sVCharacterOffsetEnd
p517
V119
p518
sVCharacterOffsetBegin
p519
V114
p520
sVPartOfSpeech
p521
VEX
p522
sVLemma
p523
Vthere
p524
saa(lp525
Von
p526
a(dp527
VNamedEntityTag
p528
g78
sVCharacterOffsetEnd
p529
V122
p530
sVCharacterOffsetBegin
p531
V120
p532
sVPartOfSpeech
p533
VIN
p534
sVLemma
p535
Von
p536
saa(lp537
VRita
p538
a(dp539
VNamedEntityTag
p540
VPERSON
p541
sVCharacterOffsetEnd
p542
V127
p543
sVCharacterOffsetBegin
p544
V123
p545
sVPartOfSpeech
p546
VNNP
p547
sVLemma
p548
VRita
p549
saa(lp550
V's
p551
a(dp552
VNamedEntityTag
p553
g78
sVCharacterOffsetEnd
p554
V129
p555
sVCharacterOffsetBegin
p556
V127
p557
sVPartOfSpeech
p558
VPOS
p559
sVLemma
p560
V's
p561
saa(lp562
Vnecklace
p563
a(dp564
VNamedEntityTag
p565
g78
sVCharacterOffsetEnd
p566
V138
p567
sVCharacterOffsetBegin
p568
V130
p569
sVPartOfSpeech
p570
VNN
p571
sVLemma
p572
Vnecklace
p573
saa(lp574
V?
p575
a(dp576
VNamedEntityTag
p577
g78
sVCharacterOffsetEnd
p578
V140
p579
sVCharacterOffsetBegin
p580
V139
p581
sVPartOfSpeech
p582
g134
sVLemma
p583
g575
saasVindexeddependencies
p584
(lp585
(lp586
Vroot
p587
aVROOT-0
p588
aVare-5
p589
aa(lp590
Vadvmod
p591
aVmany-2
p592
aVHow-1
p593
aa(lp594
Vamod
p595
aVblue-3
p596
aVmany-2
p597
aa(lp598
Vnsubj
p599
aVare-5
p600
aVblue-3
p601
aa(lp602
Vdep
p603
aVblue-3
p604
aVbeads-4
p605
aa(lp606
Vexpl
p607
aVare-5
p608
aVthere-6
p609
aa(lp610
Vposs
p611
aVnecklace-10
p612
aVRita-8
p613
aa(lp614
Vprep_on
p615
aVare-5
p616
aVnecklace-10
p617
aasas.