(dp0
Vcoref
p1
(lp2
(lp3
(lp4
(lp5
Vgroups
p6
aI1
aI12
aI12
aI13
aa(lp7
Vgroups
p8
aI0
aI14
aI14
aI15
aaaasVsentences
p9
(lp10
(dp11
Vparsetree
p12
V(ROOT (S (NP (NP (NNP Matt) (POS 's)) (NN class)) (VP (VBD voted) (PP (IN on) (NP (NP (IN whether)) (CC or) (S (RB not) (VP (TO to) (VP (VB do) (NP (NN science) (JJ fair) (NNS projects)) (PP (IN in) (NP (NNS groups))))))))) (. .)))
p13
sVtext
p14
VMatt's class voted on whether or not to do science fair projects in groups .
p15
sVdependencies
p16
(lp17
(lp18
Vroot
p19
aVROOT
p20
aVvoted
p21
aa(lp22
Vposs
p23
aVclass
p24
aVMatt
p25
aa(lp26
Vnsubj
p27
aVvoted
p28
aVclass
p29
aa(lp30
Vprep
p31
aVvoted
p32
aVon
p33
aa(lp34
Vpobj
p35
aVon
p36
aVwhether
p37
aa(lp38
Vneg
p39
aVdo
p40
aVnot
p41
aa(lp42
Vaux
p43
aVdo
p44
aVto
p45
aa(lp46
Vconj_or
p47
aVwhether
p48
aVdo
p49
aa(lp50
Vnn
p51
aVprojects
p52
aVscience
p53
aa(lp54
Vamod
p55
aVprojects
p56
aVfair
p57
aa(lp58
Vdobj
p59
aVdo
p60
aVprojects
p61
aa(lp62
Vprep_in
p63
aVdo
p64
aVgroups
p65
aasVwords
p66
(lp67
(lp68
VMatt
p69
a(dp70
VNamedEntityTag
p71
VPERSON
p72
sVCharacterOffsetEnd
p73
V5
p74
sVCharacterOffsetBegin
p75
V1
p76
sVPartOfSpeech
p77
VNNP
p78
sVLemma
p79
VMatt
p80
saa(lp81
V's
p82
a(dp83
VNamedEntityTag
p84
VO
p85
sVCharacterOffsetEnd
p86
V7
p87
sVCharacterOffsetBegin
p88
g74
sVPartOfSpeech
p89
VPOS
p90
sVLemma
p91
V's
p92
saa(lp93
Vclass
p94
a(dp95
VNamedEntityTag
p96
g85
sVCharacterOffsetEnd
p97
V13
p98
sVCharacterOffsetBegin
p99
V8
p100
sVPartOfSpeech
p101
VNN
p102
sVLemma
p103
Vclass
p104
saa(lp105
Vvoted
p106
a(dp107
VNamedEntityTag
p108
g85
sVCharacterOffsetEnd
p109
V19
p110
sVCharacterOffsetBegin
p111
V14
p112
sVPartOfSpeech
p113
VVBD
p114
sVLemma
p115
Vvote
p116
saa(lp117
Von
p118
a(dp119
VNamedEntityTag
p120
g85
sVCharacterOffsetEnd
p121
V22
p122
sVCharacterOffsetBegin
p123
V20
p124
sVPartOfSpeech
p125
VIN
p126
sVLemma
p127
Von
p128
saa(lp129
Vwhether
p130
a(dp131
VNamedEntityTag
p132
g85
sVCharacterOffsetEnd
p133
V30
p134
sVCharacterOffsetBegin
p135
V23
p136
sVPartOfSpeech
p137
VIN
p138
sVLemma
p139
Vwhether
p140
saa(lp141
Vor
p142
a(dp143
VNamedEntityTag
p144
g85
sVCharacterOffsetEnd
p145
V33
p146
sVCharacterOffsetBegin
p147
V31
p148
sVPartOfSpeech
p149
VCC
p150
sVLemma
p151
Vor
p152
saa(lp153
Vnot
p154
a(dp155
VNamedEntityTag
p156
g85
sVCharacterOffsetEnd
p157
V37
p158
sVCharacterOffsetBegin
p159
V34
p160
sVPartOfSpeech
p161
VRB
p162
sVLemma
p163
Vnot
p164
saa(lp165
Vto
p166
a(dp167
VNamedEntityTag
p168
g85
sVCharacterOffsetEnd
p169
V40
p170
sVCharacterOffsetBegin
p171
V38
p172
sVPartOfSpeech
p173
VTO
p174
sVLemma
p175
Vto
p176
saa(lp177
Vdo
p178
a(dp179
VNamedEntityTag
p180
g85
sVCharacterOffsetEnd
p181
V43
p182
sVCharacterOffsetBegin
p183
V41
p184
sVPartOfSpeech
p185
VVB
p186
sVLemma
p187
Vdo
p188
saa(lp189
Vscience
p190
a(dp191
VNamedEntityTag
p192
g85
sVCharacterOffsetEnd
p193
V51
p194
sVCharacterOffsetBegin
p195
V44
p196
sVPartOfSpeech
p197
VNN
p198
sVLemma
p199
Vscience
p200
saa(lp201
Vfair
p202
a(dp203
VNamedEntityTag
p204
g85
sVCharacterOffsetEnd
p205
V56
p206
sVCharacterOffsetBegin
p207
V52
p208
sVPartOfSpeech
p209
VJJ
p210
sVLemma
p211
Vfair
p212
saa(lp213
Vprojects
p214
a(dp215
VNamedEntityTag
p216
g85
sVCharacterOffsetEnd
p217
V65
p218
sVCharacterOffsetBegin
p219
V57
p220
sVPartOfSpeech
p221
VNNS
p222
sVLemma
p223
Vproject
p224
saa(lp225
Vin
p226
a(dp227
VNamedEntityTag
p228
g85
sVCharacterOffsetEnd
p229
V68
p230
sVCharacterOffsetBegin
p231
V66
p232
sVPartOfSpeech
p233
VIN
p234
sVLemma
p235
Vin
p236
saa(lp237
Vgroups
p238
a(dp239
VNamedEntityTag
p240
g85
sVCharacterOffsetEnd
p241
V75
p242
sVCharacterOffsetBegin
p243
V69
p244
sVPartOfSpeech
p245
VNNS
p246
sVLemma
p247
Vgroup
p248
saa(lp249
V.
p250
a(dp251
VNamedEntityTag
p252
g85
sVCharacterOffsetEnd
p253
V77
p254
sVCharacterOffsetBegin
p255
V76
p256
sVPartOfSpeech
p257
g250
sVLemma
p258
g250
saasVindexeddependencies
p259
(lp260
(lp261
Vroot
p262
aVROOT-0
p263
aVvoted-4
p264
aa(lp265
Vposs
p266
aVclass-3
p267
aVMatt-1
p268
aa(lp269
Vnsubj
p270
aVvoted-4
p271
aVclass-3
p272
aa(lp273
Vprep
p274
aVvoted-4
p275
aVon-5
p276
aa(lp277
Vpobj
p278
aVon-5
p279
aVwhether-6
p280
aa(lp281
Vneg
p282
aVdo-10
p283
aVnot-8
p284
aa(lp285
Vaux
p286
aVdo-10
p287
aVto-9
p288
aa(lp289
Vconj_or
p290
aVwhether-6
p291
aVdo-10
p292
aa(lp293
Vnn
p294
aVprojects-13
p295
aVscience-11
p296
aa(lp297
Vamod
p298
aVprojects-13
p299
aVfair-12
p300
aa(lp301
Vdobj
p302
aVdo-10
p303
aVprojects-13
p304
aa(lp305
Vprep_in
p306
aVdo-10
p307
aVgroups-15
p308
aasa(dp309
Vparsetree
p310
V(ROOT (S (NP (NP (CD 0.9) (NNS times)) (PP (IN of) (NP (DT the) (CD 40) (NNS votes)))) (VP (VBD were) (PP (IN in) (NP (NP (NN favor)) (PP (IN of) (S (VP (VBG working) (PP (IN in) (NP (NNS groups))))))))) (. .)))
p311
sVtext
p312
V0.9 times of the 40 votes were in favor of working in groups .
p313
sVdependencies
p314
(lp315
(lp316
Vroot
p317
aVROOT
p318
aVwere
p319
aa(lp320
Vnum
p321
aVtimes
p322
aV0.9
p323
aa(lp324
Vnsubj
p325
aVwere
p326
aVtimes
p327
aa(lp328
Vdet
p329
aVvotes
p330
aVthe
p331
aa(lp332
Vnum
p333
aVvotes
p334
aV40
p335
aa(lp336
Vprep_of
p337
aVtimes
p338
aVvotes
p339
aa(lp340
Vprep_in
p341
aVwere
p342
aVfavor
p343
aa(lp344
Vprepc_of
p345
aVfavor
p346
aVworking
p347
aa(lp348
Vprep_in
p349
aVworking
p350
aVgroups
p351
aasVwords
p352
(lp353
(lp354
V0.9
p355
a(dp356
VNormalizedNamedEntityTag
p357
V0.9
p358
sVLemma
p359
V0.9
p360
sVCharacterOffsetEnd
p361
V81
p362
sVPartOfSpeech
p363
VCD
p364
sVCharacterOffsetBegin
p365
V78
p366
sVNamedEntityTag
p367
VNUMBER
p368
saa(lp369
Vtimes
p370
a(dp371
VNamedEntityTag
p372
g85
sVCharacterOffsetEnd
p373
V87
p374
sVCharacterOffsetBegin
p375
V82
p376
sVPartOfSpeech
p377
VNNS
p378
sVLemma
p379
Vtime
p380
saa(lp381
Vof
p382
a(dp383
VNamedEntityTag
p384
g85
sVCharacterOffsetEnd
p385
V90
p386
sVCharacterOffsetBegin
p387
V88
p388
sVPartOfSpeech
p389
VIN
p390
sVLemma
p391
Vof
p392
saa(lp393
Vthe
p394
a(dp395
VNamedEntityTag
p396
g85
sVCharacterOffsetEnd
p397
V94
p398
sVCharacterOffsetBegin
p399
V91
p400
sVPartOfSpeech
p401
VDT
p402
sVLemma
p403
Vthe
p404
saa(lp405
V40
p406
a(dp407
VNormalizedNamedEntityTag
p408
V40.0
p409
sVLemma
p410
V40
p411
sVCharacterOffsetEnd
p412
V97
p413
sVPartOfSpeech
p414
VCD
p415
sVCharacterOffsetBegin
p416
V95
p417
sVNamedEntityTag
p418
VNUMBER
p419
saa(lp420
Vvotes
p421
a(dp422
VNamedEntityTag
p423
g85
sVCharacterOffsetEnd
p424
V103
p425
sVCharacterOffsetBegin
p426
V98
p427
sVPartOfSpeech
p428
VNNS
p429
sVLemma
p430
Vvote
p431
saa(lp432
Vwere
p433
a(dp434
VNamedEntityTag
p435
g85
sVCharacterOffsetEnd
p436
V108
p437
sVCharacterOffsetBegin
p438
V104
p439
sVPartOfSpeech
p440
VVBD
p441
sVLemma
p442
Vbe
p443
saa(lp444
Vin
p445
a(dp446
VNamedEntityTag
p447
g85
sVCharacterOffsetEnd
p448
V111
p449
sVCharacterOffsetBegin
p450
V109
p451
sVPartOfSpeech
p452
VIN
p453
sVLemma
p454
Vin
p455
saa(lp456
Vfavor
p457
a(dp458
VNamedEntityTag
p459
g85
sVCharacterOffsetEnd
p460
V117
p461
sVCharacterOffsetBegin
p462
V112
p463
sVPartOfSpeech
p464
VNN
p465
sVLemma
p466
Vfavor
p467
saa(lp468
Vof
p469
a(dp470
VNamedEntityTag
p471
g85
sVCharacterOffsetEnd
p472
V120
p473
sVCharacterOffsetBegin
p474
V118
p475
sVPartOfSpeech
p476
VIN
p477
sVLemma
p478
Vof
p479
saa(lp480
Vworking
p481
a(dp482
VNamedEntityTag
p483
g85
sVCharacterOffsetEnd
p484
V128
p485
sVCharacterOffsetBegin
p486
V121
p487
sVPartOfSpeech
p488
VVBG
p489
sVLemma
p490
Vwork
p491
saa(lp492
Vin
p493
a(dp494
VNamedEntityTag
p495
g85
sVCharacterOffsetEnd
p496
V131
p497
sVCharacterOffsetBegin
p498
V129
p499
sVPartOfSpeech
p500
VIN
p501
sVLemma
p502
Vin
p503
saa(lp504
Vgroups
p505
a(dp506
VNamedEntityTag
p507
g85
sVCharacterOffsetEnd
p508
V138
p509
sVCharacterOffsetBegin
p510
V132
p511
sVPartOfSpeech
p512
VNNS
p513
sVLemma
p514
Vgroup
p515
saa(lp516
g250
a(dp517
VNamedEntityTag
p518
g85
sVCharacterOffsetEnd
p519
V140
p520
sVCharacterOffsetBegin
p521
V139
p522
sVPartOfSpeech
p523
g250
sVLemma
p524
g250
saasVindexeddependencies
p525
(lp526
(lp527
Vroot
p528
aVROOT-0
p529
aVwere-7
p530
aa(lp531
Vnum
p532
aVtimes-2
p533
aV0.9-1
p534
aa(lp535
Vnsubj
p536
aVwere-7
p537
aVtimes-2
p538
aa(lp539
Vdet
p540
aVvotes-6
p541
aVthe-4
p542
aa(lp543
Vnum
p544
aVvotes-6
p545
aV40-5
p546
aa(lp547
Vprep_of
p548
aVtimes-2
p549
aVvotes-6
p550
aa(lp551
Vprep_in
p552
aVwere-7
p553
aVfavor-9
p554
aa(lp555
Vprepc_of
p556
aVfavor-9
p557
aVworking-11
p558
aa(lp559
Vprep_in
p560
aVworking-11
p561
aVgroups-13
p562
aasa(dp563
Vparsetree
p564
V(ROOT (SBARQ (WHNP (WHADJP (WRB How) (JJ many)) (NNS votes)) (SQ (VP (VBD were) (PP (IN in) (NP (NN favor))))) (. ?)))
p565
sVtext
p566
VHow many votes were in favor ?
p567
sVdependencies
p568
(lp569
(lp570
Vroot
p571
aVROOT
p572
aVwere
p573
aa(lp574
Vadvmod
p575
aVmany
p576
aVHow
p577
aa(lp578
Vamod
p579
aVvotes
p580
aVmany
p581
aa(lp582
Vnsubj
p583
aVwere
p584
aVvotes
p585
aa(lp586
Vprep_in
p587
aVwere
p588
aVfavor
p589
aasVwords
p590
(lp591
(lp592
VHow
p593
a(dp594
VNamedEntityTag
p595
g85
sVCharacterOffsetEnd
p596
V144
p597
sVCharacterOffsetBegin
p598
V141
p599
sVPartOfSpeech
p600
VWRB
p601
sVLemma
p602
Vhow
p603
saa(lp604
Vmany
p605
a(dp606
VNamedEntityTag
p607
g85
sVCharacterOffsetEnd
p608
V149
p609
sVCharacterOffsetBegin
p610
V145
p611
sVPartOfSpeech
p612
VJJ
p613
sVLemma
p614
Vmany
p615
saa(lp616
Vvotes
p617
a(dp618
VNamedEntityTag
p619
g85
sVCharacterOffsetEnd
p620
V155
p621
sVCharacterOffsetBegin
p622
V150
p623
sVPartOfSpeech
p624
VNNS
p625
sVLemma
p626
Vvote
p627
saa(lp628
Vwere
p629
a(dp630
VNamedEntityTag
p631
g85
sVCharacterOffsetEnd
p632
V160
p633
sVCharacterOffsetBegin
p634
V156
p635
sVPartOfSpeech
p636
VVBD
p637
sVLemma
p638
Vbe
p639
saa(lp640
Vin
p641
a(dp642
VNamedEntityTag
p643
g85
sVCharacterOffsetEnd
p644
V163
p645
sVCharacterOffsetBegin
p646
V161
p647
sVPartOfSpeech
p648
VIN
p649
sVLemma
p650
Vin
p651
saa(lp652
Vfavor
p653
a(dp654
VNamedEntityTag
p655
g85
sVCharacterOffsetEnd
p656
V169
p657
sVCharacterOffsetBegin
p658
V164
p659
sVPartOfSpeech
p660
VNN
p661
sVLemma
p662
Vfavor
p663
saa(lp664
V?
p665
a(dp666
VNamedEntityTag
p667
g85
sVCharacterOffsetEnd
p668
V171
p669
sVCharacterOffsetBegin
p670
V170
p671
sVPartOfSpeech
p672
g250
sVLemma
p673
g665
saasVindexeddependencies
p674
(lp675
(lp676
Vroot
p677
aVROOT-0
p678
aVwere-4
p679
aa(lp680
Vadvmod
p681
aVmany-2
p682
aVHow-1
p683
aa(lp684
Vamod
p685
aVvotes-3
p686
aVmany-2
p687
aa(lp688
Vnsubj
p689
aVwere-4
p690
aVvotes-3
p691
aa(lp692
Vprep_in
p693
aVwere-4
p694
aVfavor-6
p695
aasas.