(dp0
Vcoref
p1
(lp2
(lp3
(lp4
(lp5
VJeanette
p6
aI2
aI5
aI5
aI6
aa(lp7
VJeanette
p8
aI0
aI9
aI9
aI10
aaaa(lp9
(lp10
(lp11
VThe tray
p12
aI1
aI1
aI0
aI2
aa(lp13
Va tray of carrot sticks and apple slices
p14
aI0
aI13
aI12
aI20
aaaa(lp15
(lp16
(lp17
Vcarrot sticks
p18
aI1
aI15
aI14
aI16
aa(lp19
V0.25 times
p20
aI1
aI12
aI11
aI13
aaaasVsentences
p21
(lp22
(dp23
Vparsetree
p24
V(ROOT (S (PP (IN In) (NP (NP (NNS hopes)) (PP (IN of) (VP (JJ encouraging) (NP (JJR healthier) (NNS snacks)) (PP (IN at) (NP (NN school))))))) (, ,) (NP (NNP Jeanette)) (VP (VBD brought) (PRT (RP in)) (NP (NP (DT a) (NN tray)) (PP (IN of) (NP (NN carrot) (NNS sticks) (CC and) (NN apple) (NNS slices)))) (S (VP (TO to) (VP (VB share))))) (. .)))
p25
sVtext
p26
VIn hopes of encouraging healthier snacks at school , Jeanette brought in a tray of carrot sticks and apple slices to share .
p27
sVdependencies
p28
(lp29
(lp30
Vroot
p31
aVROOT
p32
aVbrought
p33
aa(lp34
Vprep_in
p35
aVbrought
p36
aVhopes
p37
aa(lp38
Vprep
p39
aVhopes
p40
aVof
p41
aa(lp42
Vdep
p43
aVof
p44
aVencouraging
p45
aa(lp46
Vamod
p47
aVsnacks
p48
aVhealthier
p49
aa(lp50
Vdobj
p51
aVencouraging
p52
aVsnacks
p53
aa(lp54
Vprep_at
p55
aVencouraging
p56
aVschool
p57
aa(lp58
Vnsubj
p59
aVbrought
p60
aVJeanette
p61
aa(lp62
Vprt
p63
aVbrought
p64
aVin
p65
aa(lp66
Vdet
p67
aVtray
p68
aVa
p69
aa(lp70
Vdobj
p71
aVbrought
p72
aVtray
p73
aa(lp74
Vnn
p75
aVsticks
p76
aVcarrot
p77
aa(lp78
Vprep_of
p79
aVtray
p80
aVsticks
p81
aa(lp82
Vnn
p83
aVslices
p84
aVapple
p85
aa(lp86
Vconj_and
p87
aVsticks
p88
aVslices
p89
aa(lp90
Vaux
p91
aVshare
p92
aVto
p93
aa(lp94
Vvmod
p95
aVbrought
p96
aVshare
p97
aasVwords
p98
(lp99
(lp100
VIn
p101
a(dp102
VNamedEntityTag
p103
VO
p104
sVCharacterOffsetEnd
p105
V3
p106
sVCharacterOffsetBegin
p107
V1
p108
sVPartOfSpeech
p109
VIN
p110
sVLemma
p111
Vin
p112
saa(lp113
Vhopes
p114
a(dp115
VNamedEntityTag
p116
g104
sVCharacterOffsetEnd
p117
V9
p118
sVCharacterOffsetBegin
p119
V4
p120
sVPartOfSpeech
p121
VNNS
p122
sVLemma
p123
Vhope
p124
saa(lp125
Vof
p126
a(dp127
VNamedEntityTag
p128
g104
sVCharacterOffsetEnd
p129
V12
p130
sVCharacterOffsetBegin
p131
V10
p132
sVPartOfSpeech
p133
VIN
p134
sVLemma
p135
Vof
p136
saa(lp137
Vencouraging
p138
a(dp139
VNamedEntityTag
p140
g104
sVCharacterOffsetEnd
p141
V24
p142
sVCharacterOffsetBegin
p143
V13
p144
sVPartOfSpeech
p145
VJJ
p146
sVLemma
p147
Vencouraging
p148
saa(lp149
Vhealthier
p150
a(dp151
VNamedEntityTag
p152
g104
sVCharacterOffsetEnd
p153
V34
p154
sVCharacterOffsetBegin
p155
V25
p156
sVPartOfSpeech
p157
VJJR
p158
sVLemma
p159
Vhealthier
p160
saa(lp161
Vsnacks
p162
a(dp163
VNamedEntityTag
p164
g104
sVCharacterOffsetEnd
p165
V41
p166
sVCharacterOffsetBegin
p167
V35
p168
sVPartOfSpeech
p169
VNNS
p170
sVLemma
p171
Vsnack
p172
saa(lp173
Vat
p174
a(dp175
VNamedEntityTag
p176
g104
sVCharacterOffsetEnd
p177
V44
p178
sVCharacterOffsetBegin
p179
V42
p180
sVPartOfSpeech
p181
VIN
p182
sVLemma
p183
Vat
p184
saa(lp185
Vschool
p186
a(dp187
VNamedEntityTag
p188
g104
sVCharacterOffsetEnd
p189
V51
p190
sVCharacterOffsetBegin
p191
V45
p192
sVPartOfSpeech
p193
VNN
p194
sVLemma
p195
Vschool
p196
saa(lp197
V,
p198
a(dp199
VNamedEntityTag
p200
g104
sVCharacterOffsetEnd
p201
V53
p202
sVCharacterOffsetBegin
p203
V52
p204
sVPartOfSpeech
p205
g198
sVLemma
p206
g198
saa(lp207
VJeanette
p208
a(dp209
VNamedEntityTag
p210
VPERSON
p211
sVCharacterOffsetEnd
p212
V62
p213
sVCharacterOffsetBegin
p214
V54
p215
sVPartOfSpeech
p216
VNNP
p217
sVLemma
p218
VJeanette
p219
saa(lp220
Vbrought
p221
a(dp222
VNamedEntityTag
p223
g104
sVCharacterOffsetEnd
p224
V70
p225
sVCharacterOffsetBegin
p226
V63
p227
sVPartOfSpeech
p228
VVBD
p229
sVLemma
p230
Vbring
p231
saa(lp232
Vin
p233
a(dp234
VNamedEntityTag
p235
g104
sVCharacterOffsetEnd
p236
V73
p237
sVCharacterOffsetBegin
p238
V71
p239
sVPartOfSpeech
p240
VRP
p241
sVLemma
p242
Vin
p243
saa(lp244
g69
a(dp245
VNamedEntityTag
p246
g104
sVCharacterOffsetEnd
p247
V75
p248
sVCharacterOffsetBegin
p249
V74
p250
sVPartOfSpeech
p251
VDT
p252
sVLemma
p253
g69
saa(lp254
Vtray
p255
a(dp256
VNamedEntityTag
p257
g104
sVCharacterOffsetEnd
p258
V80
p259
sVCharacterOffsetBegin
p260
V76
p261
sVPartOfSpeech
p262
VNN
p263
sVLemma
p264
Vtray
p265
saa(lp266
Vof
p267
a(dp268
VNamedEntityTag
p269
g104
sVCharacterOffsetEnd
p270
V83
p271
sVCharacterOffsetBegin
p272
V81
p273
sVPartOfSpeech
p274
VIN
p275
sVLemma
p276
Vof
p277
saa(lp278
Vcarrot
p279
a(dp280
VNamedEntityTag
p281
g104
sVCharacterOffsetEnd
p282
V90
p283
sVCharacterOffsetBegin
p284
V84
p285
sVPartOfSpeech
p286
VNN
p287
sVLemma
p288
Vcarrot
p289
saa(lp290
Vsticks
p291
a(dp292
VNamedEntityTag
p293
g104
sVCharacterOffsetEnd
p294
V97
p295
sVCharacterOffsetBegin
p296
V91
p297
sVPartOfSpeech
p298
VNNS
p299
sVLemma
p300
Vstick
p301
saa(lp302
Vand
p303
a(dp304
VNamedEntityTag
p305
g104
sVCharacterOffsetEnd
p306
V101
p307
sVCharacterOffsetBegin
p308
V98
p309
sVPartOfSpeech
p310
VCC
p311
sVLemma
p312
Vand
p313
saa(lp314
Vapple
p315
a(dp316
VNamedEntityTag
p317
g104
sVCharacterOffsetEnd
p318
V107
p319
sVCharacterOffsetBegin
p320
V102
p321
sVPartOfSpeech
p322
VNN
p323
sVLemma
p324
Vapple
p325
saa(lp326
Vslices
p327
a(dp328
VNamedEntityTag
p329
g104
sVCharacterOffsetEnd
p330
V114
p331
sVCharacterOffsetBegin
p332
V108
p333
sVPartOfSpeech
p334
VNNS
p335
sVLemma
p336
Vslice
p337
saa(lp338
Vto
p339
a(dp340
VNamedEntityTag
p341
g104
sVCharacterOffsetEnd
p342
V117
p343
sVCharacterOffsetBegin
p344
V115
p345
sVPartOfSpeech
p346
VTO
p347
sVLemma
p348
Vto
p349
saa(lp350
Vshare
p351
a(dp352
VNamedEntityTag
p353
g104
sVCharacterOffsetEnd
p354
V123
p355
sVCharacterOffsetBegin
p356
V118
p357
sVPartOfSpeech
p358
VVB
p359
sVLemma
p360
Vshare
p361
saa(lp362
V.
p363
a(dp364
VNamedEntityTag
p365
g104
sVCharacterOffsetEnd
p366
V125
p367
sVCharacterOffsetBegin
p368
V124
p369
sVPartOfSpeech
p370
g363
sVLemma
p371
g363
saasVindexeddependencies
p372
(lp373
(lp374
Vroot
p375
aVROOT-0
p376
aVbrought-11
p377
aa(lp378
Vprep_in
p379
aVbrought-11
p380
aVhopes-2
p381
aa(lp382
Vprep
p383
aVhopes-2
p384
aVof-3
p385
aa(lp386
Vdep
p387
aVof-3
p388
aVencouraging-4
p389
aa(lp390
Vamod
p391
aVsnacks-6
p392
aVhealthier-5
p393
aa(lp394
Vdobj
p395
aVencouraging-4
p396
aVsnacks-6
p397
aa(lp398
Vprep_at
p399
aVencouraging-4
p400
aVschool-8
p401
aa(lp402
Vnsubj
p403
aVbrought-11
p404
aVJeanette-10
p405
aa(lp406
Vprt
p407
aVbrought-11
p408
aVin-12
p409
aa(lp410
Vdet
p411
aVtray-14
p412
aVa-13
p413
aa(lp414
Vdobj
p415
aVbrought-11
p416
aVtray-14
p417
aa(lp418
Vnn
p419
aVsticks-17
p420
aVcarrot-16
p421
aa(lp422
Vprep_of
p423
aVtray-14
p424
aVsticks-17
p425
aa(lp426
Vnn
p427
aVslices-20
p428
aVapple-19
p429
aa(lp430
Vconj_and
p431
aVsticks-17
p432
aVslices-20
p433
aa(lp434
Vaux
p435
aVshare-22
p436
aVto-21
p437
aa(lp438
Vvmod
p439
aVbrought-11
p440
aVshare-22
p441
aasa(dp442
Vparsetree
p443
V(ROOT (S (NP (DT The) (NN tray)) (VP (VBD had) (NP (NP (DT a) (NN total)) (PP (IN of) (NP (NP (CD 100) (NNS snacks)) (, ,) (SBAR (WHPP (IN of) (WHNP (WDT which))) (S (NP (CD 0.25) (NNS times)) (VP (VBD were) (NP (NN carrot) (NNS sticks))))))))) (. .)))
p444
sVtext
p445
VThe tray had a total of 100 snacks , of which 0.25 times were carrot sticks .
p446
sVdependencies
p447
(lp448
(lp449
Vroot
p450
aVROOT
p451
aVhad
p452
aa(lp453
Vdet
p454
aVtray
p455
aVThe
p456
aa(lp457
Vnsubj
p458
aVhad
p459
aVtray
p460
aa(lp461
Vdet
p462
aVtotal
p463
ag69
aa(lp464
Vdobj
p465
aVhad
p466
aVtotal
p467
aa(lp468
Vnum
p469
aVsnacks
p470
aV100
p471
aa(lp472
Vprep_of
p473
aVtotal
p474
aVsnacks
p475
aa(lp476
Vprep_of
p477
aVsticks
p478
aVwhich
p479
aa(lp480
Vnum
p481
aVtimes
p482
aV0.25
p483
aa(lp484
Vnsubj
p485
aVsticks
p486
aVtimes
p487
aa(lp488
Vcop
p489
aVsticks
p490
aVwere
p491
aa(lp492
Vnn
p493
aVsticks
p494
aVcarrot
p495
aa(lp496
Vrcmod
p497
aVsnacks
p498
aVsticks
p499
aasVwords
p500
(lp501
(lp502
VThe
p503
a(dp504
VNamedEntityTag
p505
g104
sVCharacterOffsetEnd
p506
V129
p507
sVCharacterOffsetBegin
p508
V126
p509
sVPartOfSpeech
p510
VDT
p511
sVLemma
p512
Vthe
p513
saa(lp514
Vtray
p515
a(dp516
VNamedEntityTag
p517
g104
sVCharacterOffsetEnd
p518
V134
p519
sVCharacterOffsetBegin
p520
V130
p521
sVPartOfSpeech
p522
VNN
p523
sVLemma
p524
Vtray
p525
saa(lp526
Vhad
p527
a(dp528
VNamedEntityTag
p529
g104
sVCharacterOffsetEnd
p530
V138
p531
sVCharacterOffsetBegin
p532
V135
p533
sVPartOfSpeech
p534
VVBD
p535
sVLemma
p536
Vhave
p537
saa(lp538
g69
a(dp539
VNamedEntityTag
p540
g104
sVCharacterOffsetEnd
p541
V140
p542
sVCharacterOffsetBegin
p543
V139
p544
sVPartOfSpeech
p545
VDT
p546
sVLemma
p547
g69
saa(lp548
Vtotal
p549
a(dp550
VNamedEntityTag
p551
g104
sVCharacterOffsetEnd
p552
V146
p553
sVCharacterOffsetBegin
p554
V141
p555
sVPartOfSpeech
p556
VNN
p557
sVLemma
p558
Vtotal
p559
saa(lp560
Vof
p561
a(dp562
VNamedEntityTag
p563
g104
sVCharacterOffsetEnd
p564
V149
p565
sVCharacterOffsetBegin
p566
V147
p567
sVPartOfSpeech
p568
VIN
p569
sVLemma
p570
Vof
p571
saa(lp572
V100
p573
a(dp574
VNormalizedNamedEntityTag
p575
V100.0
p576
sVLemma
p577
V100
p578
sVCharacterOffsetEnd
p579
V153
p580
sVPartOfSpeech
p581
VCD
p582
sVCharacterOffsetBegin
p583
V150
p584
sVNamedEntityTag
p585
VNUMBER
p586
saa(lp587
Vsnacks
p588
a(dp589
VNamedEntityTag
p590
g104
sVCharacterOffsetEnd
p591
V160
p592
sVCharacterOffsetBegin
p593
V154
p594
sVPartOfSpeech
p595
VNNS
p596
sVLemma
p597
Vsnack
p598
saa(lp599
g198
a(dp600
VNamedEntityTag
p601
g104
sVCharacterOffsetEnd
p602
V162
p603
sVCharacterOffsetBegin
p604
V161
p605
sVPartOfSpeech
p606
g198
sVLemma
p607
g198
saa(lp608
Vof
p609
a(dp610
VNamedEntityTag
p611
g104
sVCharacterOffsetEnd
p612
V165
p613
sVCharacterOffsetBegin
p614
V163
p615
sVPartOfSpeech
p616
VIN
p617
sVLemma
p618
Vof
p619
saa(lp620
Vwhich
p621
a(dp622
VNamedEntityTag
p623
g104
sVCharacterOffsetEnd
p624
V171
p625
sVCharacterOffsetBegin
p626
V166
p627
sVPartOfSpeech
p628
VWDT
p629
sVLemma
p630
Vwhich
p631
saa(lp632
V0.25
p633
a(dp634
VNormalizedNamedEntityTag
p635
V0.25
p636
sVLemma
p637
V0.25
p638
sVCharacterOffsetEnd
p639
V176
p640
sVPartOfSpeech
p641
VCD
p642
sVCharacterOffsetBegin
p643
V172
p644
sVNamedEntityTag
p645
VNUMBER
p646
saa(lp647
Vtimes
p648
a(dp649
VNamedEntityTag
p650
g104
sVCharacterOffsetEnd
p651
V182
p652
sVCharacterOffsetBegin
p653
V177
p654
sVPartOfSpeech
p655
VNNS
p656
sVLemma
p657
Vtime
p658
saa(lp659
Vwere
p660
a(dp661
VNamedEntityTag
p662
g104
sVCharacterOffsetEnd
p663
V187
p664
sVCharacterOffsetBegin
p665
V183
p666
sVPartOfSpeech
p667
VVBD
p668
sVLemma
p669
Vbe
p670
saa(lp671
Vcarrot
p672
a(dp673
VNamedEntityTag
p674
g104
sVCharacterOffsetEnd
p675
V194
p676
sVCharacterOffsetBegin
p677
V188
p678
sVPartOfSpeech
p679
VNN
p680
sVLemma
p681
Vcarrot
p682
saa(lp683
Vsticks
p684
a(dp685
VNamedEntityTag
p686
g104
sVCharacterOffsetEnd
p687
V201
p688
sVCharacterOffsetBegin
p689
V195
p690
sVPartOfSpeech
p691
VNNS
p692
sVLemma
p693
Vstick
p694
saa(lp695
g363
a(dp696
VNamedEntityTag
p697
g104
sVCharacterOffsetEnd
p698
V203
p699
sVCharacterOffsetBegin
p700
V202
p701
sVPartOfSpeech
p702
g363
sVLemma
p703
g363
saasVindexeddependencies
p704
(lp705
(lp706
Vroot
p707
aVROOT-0
p708
aVhad-3
p709
aa(lp710
Vdet
p711
aVtray-2
p712
aVThe-1
p713
aa(lp714
Vnsubj
p715
aVhad-3
p716
aVtray-2
p717
aa(lp718
Vdet
p719
aVtotal-5
p720
aVa-4
p721
aa(lp722
Vdobj
p723
aVhad-3
p724
aVtotal-5
p725
aa(lp726
Vnum
p727
aVsnacks-8
p728
aV100-7
p729
aa(lp730
Vprep_of
p731
aVtotal-5
p732
aVsnacks-8
p733
aa(lp734
Vprep_of
p735
aVsticks-16
p736
aVwhich-11
p737
aa(lp738
Vnum
p739
aVtimes-13
p740
aV0.25-12
p741
aa(lp742
Vnsubj
p743
aVsticks-16
p744
aVtimes-13
p745
aa(lp746
Vcop
p747
aVsticks-16
p748
aVwere-14
p749
aa(lp750
Vnn
p751
aVsticks-16
p752
aVcarrot-15
p753
aa(lp754
Vrcmod
p755
aVsnacks-8
p756
aVsticks-16
p757
aasa(dp758
Vparsetree
p759
V(ROOT (SBARQ (WHNP (WHADJP (WRB How) (JJ many)) (NN carrot)) (SQ (VP (VBZ sticks) (SBAR (SINV (VBD did) (NP (NNP Jeanette)) (VP (VB bring)))))) (. ?)))
p760
sVtext
p761
VHow many carrot sticks did Jeanette bring ?
p762
sVdependencies
p763
(lp764
(lp765
Vroot
p766
aVROOT
p767
aVsticks
p768
aa(lp769
Vadvmod
p770
aVmany
p771
aVHow
p772
aa(lp773
Vamod
p774
aVcarrot
p775
aVmany
p776
aa(lp777
Vnsubj
p778
aVsticks
p779
aVcarrot
p780
aa(lp781
Vaux
p782
aVbring
p783
aVdid
p784
aa(lp785
Vnsubj
p786
aVbring
p787
aVJeanette
p788
aa(lp789
Vadvcl
p790
aVsticks
p791
aVbring
p792
aasVwords
p793
(lp794
(lp795
VHow
p796
a(dp797
VNamedEntityTag
p798
g104
sVCharacterOffsetEnd
p799
V207
p800
sVCharacterOffsetBegin
p801
V204
p802
sVPartOfSpeech
p803
VWRB
p804
sVLemma
p805
Vhow
p806
saa(lp807
Vmany
p808
a(dp809
VNamedEntityTag
p810
g104
sVCharacterOffsetEnd
p811
V212
p812
sVCharacterOffsetBegin
p813
V208
p814
sVPartOfSpeech
p815
VJJ
p816
sVLemma
p817
Vmany
p818
saa(lp819
Vcarrot
p820
a(dp821
VNamedEntityTag
p822
g104
sVCharacterOffsetEnd
p823
V219
p824
sVCharacterOffsetBegin
p825
V213
p826
sVPartOfSpeech
p827
VNN
p828
sVLemma
p829
Vcarrot
p830
saa(lp831
Vsticks
p832
a(dp833
VNamedEntityTag
p834
g104
sVCharacterOffsetEnd
p835
V226
p836
sVCharacterOffsetBegin
p837
V220
p838
sVPartOfSpeech
p839
VVBZ
p840
sVLemma
p841
Vstick
p842
saa(lp843
Vdid
p844
a(dp845
VNamedEntityTag
p846
g104
sVCharacterOffsetEnd
p847
V230
p848
sVCharacterOffsetBegin
p849
V227
p850
sVPartOfSpeech
p851
VVBD
p852
sVLemma
p853
Vdo
p854
saa(lp855
VJeanette
p856
a(dp857
VNamedEntityTag
p858
VPERSON
p859
sVCharacterOffsetEnd
p860
V239
p861
sVCharacterOffsetBegin
p862
V231
p863
sVPartOfSpeech
p864
VNNP
p865
sVLemma
p866
VJeanette
p867
saa(lp868
Vbring
p869
a(dp870
VNamedEntityTag
p871
g104
sVCharacterOffsetEnd
p872
V245
p873
sVCharacterOffsetBegin
p874
V240
p875
sVPartOfSpeech
p876
VVB
p877
sVLemma
p878
Vbring
p879
saa(lp880
V?
p881
a(dp882
VNamedEntityTag
p883
g104
sVCharacterOffsetEnd
p884
V247
p885
sVCharacterOffsetBegin
p886
V246
p887
sVPartOfSpeech
p888
g363
sVLemma
p889
g881
saasVindexeddependencies
p890
(lp891
(lp892
Vroot
p893
aVROOT-0
p894
aVsticks-4
p895
aa(lp896
Vadvmod
p897
aVmany-2
p898
aVHow-1
p899
aa(lp900
Vamod
p901
aVcarrot-3
p902
aVmany-2
p903
aa(lp904
Vnsubj
p905
aVsticks-4
p906
aVcarrot-3
p907
aa(lp908
Vaux
p909
aVbring-7
p910
aVdid-5
p911
aa(lp912
Vnsubj
p913
aVbring-7
p914
aVJeanette-6
p915
aa(lp916
Vadvcl
p917
aVsticks-4
p918
aVbring-7
p919
aasas.