(dp0
Vcoref
p1
(lp2
(lp3
(lp4
(lp5
Vits
p6
aI0
aI6
aI6
aI7
aa(lp7
VA company
p8
aI0
aI1
aI0
aI2
aaaa(lp9
(lp10
(lp11
Vthe new product
p12
aI1
aI11
aI9
aI12
aa(lp13
Vits new product
p14
aI0
aI8
aI6
aI9
aaa(lp15
(lp16
Vthe new product
p17
aI2
aI6
aI4
aI7
aa(lp18
Vits new product
p19
aI0
aI8
aI6
aI9
aaaasVsentences
p20
(lp21
(dp22
Vparsetree
p23
V(ROOT (S (NP (DT A) (NN company)) (VP (VBD took) (NP (DT a) (NN survey)) (PP (IN about) (NP (PRP$ its) (JJ new) (NN product)))) (. .)))
p24
sVtext
p25
VA company took a survey about its new product .
p26
sVdependencies
p27
(lp28
(lp29
Vroot
p30
aVROOT
p31
aVtook
p32
aa(lp33
Vdet
p34
aVcompany
p35
aVA
p36
aa(lp37
Vnsubj
p38
aVtook
p39
aVcompany
p40
aa(lp41
Vdet
p42
aVsurvey
p43
aVa
p44
aa(lp45
Vdobj
p46
aVtook
p47
aVsurvey
p48
aa(lp49
Vposs
p50
aVproduct
p51
aVits
p52
aa(lp53
Vamod
p54
aVproduct
p55
aVnew
p56
aa(lp57
Vprep_about
p58
aVtook
p59
aVproduct
p60
aasVwords
p61
(lp62
(lp63
g36
a(dp64
VNamedEntityTag
p65
VO
p66
sVCharacterOffsetEnd
p67
V2
p68
sVCharacterOffsetBegin
p69
V1
p70
sVPartOfSpeech
p71
VDT
p72
sVLemma
p73
g44
saa(lp74
Vcompany
p75
a(dp76
VNamedEntityTag
p77
g66
sVCharacterOffsetEnd
p78
V10
p79
sVCharacterOffsetBegin
p80
V3
p81
sVPartOfSpeech
p82
VNN
p83
sVLemma
p84
Vcompany
p85
saa(lp86
Vtook
p87
a(dp88
VNamedEntityTag
p89
g66
sVCharacterOffsetEnd
p90
V15
p91
sVCharacterOffsetBegin
p92
V11
p93
sVPartOfSpeech
p94
VVBD
p95
sVLemma
p96
Vtake
p97
saa(lp98
g44
a(dp99
VNamedEntityTag
p100
g66
sVCharacterOffsetEnd
p101
V17
p102
sVCharacterOffsetBegin
p103
V16
p104
sVPartOfSpeech
p105
VDT
p106
sVLemma
p107
g44
saa(lp108
Vsurvey
p109
a(dp110
VNamedEntityTag
p111
g66
sVCharacterOffsetEnd
p112
V24
p113
sVCharacterOffsetBegin
p114
V18
p115
sVPartOfSpeech
p116
VNN
p117
sVLemma
p118
Vsurvey
p119
saa(lp120
Vabout
p121
a(dp122
VNamedEntityTag
p123
g66
sVCharacterOffsetEnd
p124
V30
p125
sVCharacterOffsetBegin
p126
V25
p127
sVPartOfSpeech
p128
VIN
p129
sVLemma
p130
Vabout
p131
saa(lp132
Vits
p133
a(dp134
VNamedEntityTag
p135
g66
sVCharacterOffsetEnd
p136
V34
p137
sVCharacterOffsetBegin
p138
V31
p139
sVPartOfSpeech
p140
VPRP$
p141
sVLemma
p142
Vits
p143
saa(lp144
Vnew
p145
a(dp146
VNamedEntityTag
p147
g66
sVCharacterOffsetEnd
p148
V38
p149
sVCharacterOffsetBegin
p150
V35
p151
sVPartOfSpeech
p152
VJJ
p153
sVLemma
p154
Vnew
p155
saa(lp156
Vproduct
p157
a(dp158
VNamedEntityTag
p159
g66
sVCharacterOffsetEnd
p160
V46
p161
sVCharacterOffsetBegin
p162
V39
p163
sVPartOfSpeech
p164
VNN
p165
sVLemma
p166
Vproduct
p167
saa(lp168
V.
p169
a(dp170
VNamedEntityTag
p171
g66
sVCharacterOffsetEnd
p172
V48
p173
sVCharacterOffsetBegin
p174
V47
p175
sVPartOfSpeech
p176
g169
sVLemma
p177
g169
saasVindexeddependencies
p178
(lp179
(lp180
Vroot
p181
aVROOT-0
p182
aVtook-3
p183
aa(lp184
Vdet
p185
aVcompany-2
p186
aVA-1
p187
aa(lp188
Vnsubj
p189
aVtook-3
p190
aVcompany-2
p191
aa(lp192
Vdet
p193
aVsurvey-5
p194
aVa-4
p195
aa(lp196
Vdobj
p197
aVtook-3
p198
aVsurvey-5
p199
aa(lp200
Vposs
p201
aVproduct-9
p202
aVits-7
p203
aa(lp204
Vamod
p205
aVproduct-9
p206
aVnew-8
p207
aa(lp208
Vprep_about
p209
aVtook-3
p210
aVproduct-9
p211
aasa(dp212
Vparsetree
p213
V(ROOT (S (PP (IN Of) (NP (NP (DT the) (CD 100) (NNS people)) (VP (VBN surveyed)))) (, ,) (NP (CD 0.7) (NNS times)) (VP (VBD liked) (NP (DT the) (JJ new) (NN product))) (. .)))
p214
sVtext
p215
VOf the 100 people surveyed , 0.7 times liked the new product .
p216
sVdependencies
p217
(lp218
(lp219
Vroot
p220
aVROOT
p221
aVliked
p222
aa(lp223
Vdet
p224
aVpeople
p225
aVthe
p226
aa(lp227
Vnum
p228
aVpeople
p229
aV100
p230
aa(lp231
Vprep_of
p232
aVliked
p233
aVpeople
p234
aa(lp235
Vvmod
p236
aVpeople
p237
aVsurveyed
p238
aa(lp239
Vnum
p240
aVtimes
p241
aV0.7
p242
aa(lp243
Vnsubj
p244
aVliked
p245
aVtimes
p246
aa(lp247
Vdet
p248
aVproduct
p249
aVthe
p250
aa(lp251
Vamod
p252
aVproduct
p253
aVnew
p254
aa(lp255
Vdobj
p256
aVliked
p257
aVproduct
p258
aasVwords
p259
(lp260
(lp261
VOf
p262
a(dp263
VNamedEntityTag
p264
g66
sVCharacterOffsetEnd
p265
V51
p266
sVCharacterOffsetBegin
p267
V49
p268
sVPartOfSpeech
p269
VIN
p270
sVLemma
p271
Vof
p272
saa(lp273
Vthe
p274
a(dp275
VNamedEntityTag
p276
g66
sVCharacterOffsetEnd
p277
V55
p278
sVCharacterOffsetBegin
p279
V52
p280
sVPartOfSpeech
p281
VDT
p282
sVLemma
p283
Vthe
p284
saa(lp285
V100
p286
a(dp287
VNormalizedNamedEntityTag
p288
V100.0
p289
sVLemma
p290
V100
p291
sVCharacterOffsetEnd
p292
V59
p293
sVPartOfSpeech
p294
VCD
p295
sVCharacterOffsetBegin
p296
V56
p297
sVNamedEntityTag
p298
VNUMBER
p299
saa(lp300
Vpeople
p301
a(dp302
VNamedEntityTag
p303
g66
sVCharacterOffsetEnd
p304
V66
p305
sVCharacterOffsetBegin
p306
V60
p307
sVPartOfSpeech
p308
VNNS
p309
sVLemma
p310
Vpeople
p311
saa(lp312
Vsurveyed
p313
a(dp314
VNamedEntityTag
p315
g66
sVCharacterOffsetEnd
p316
V75
p317
sVCharacterOffsetBegin
p318
V67
p319
sVPartOfSpeech
p320
VVBN
p321
sVLemma
p322
Vsurvey
p323
saa(lp324
V,
p325
a(dp326
VNamedEntityTag
p327
g66
sVCharacterOffsetEnd
p328
V77
p329
sVCharacterOffsetBegin
p330
V76
p331
sVPartOfSpeech
p332
g325
sVLemma
p333
g325
saa(lp334
V0.7
p335
a(dp336
VNormalizedNamedEntityTag
p337
V0.7
p338
sVLemma
p339
V0.7
p340
sVCharacterOffsetEnd
p341
V81
p342
sVPartOfSpeech
p343
VCD
p344
sVCharacterOffsetBegin
p345
V78
p346
sVNamedEntityTag
p347
VNUMBER
p348
saa(lp349
Vtimes
p350
a(dp351
VNamedEntityTag
p352
g66
sVCharacterOffsetEnd
p353
V87
p354
sVCharacterOffsetBegin
p355
V82
p356
sVPartOfSpeech
p357
VNNS
p358
sVLemma
p359
Vtime
p360
saa(lp361
Vliked
p362
a(dp363
VNamedEntityTag
p364
g66
sVCharacterOffsetEnd
p365
V93
p366
sVCharacterOffsetBegin
p367
V88
p368
sVPartOfSpeech
p369
VVBD
p370
sVLemma
p371
Vlike
p372
saa(lp373
Vthe
p374
a(dp375
VNamedEntityTag
p376
g66
sVCharacterOffsetEnd
p377
V97
p378
sVCharacterOffsetBegin
p379
V94
p380
sVPartOfSpeech
p381
VDT
p382
sVLemma
p383
Vthe
p384
saa(lp385
Vnew
p386
a(dp387
VNamedEntityTag
p388
g66
sVCharacterOffsetEnd
p389
V101
p390
sVCharacterOffsetBegin
p391
V98
p392
sVPartOfSpeech
p393
VJJ
p394
sVLemma
p395
Vnew
p396
saa(lp397
Vproduct
p398
a(dp399
VNamedEntityTag
p400
g66
sVCharacterOffsetEnd
p401
V109
p402
sVCharacterOffsetBegin
p403
V102
p404
sVPartOfSpeech
p405
VNN
p406
sVLemma
p407
Vproduct
p408
saa(lp409
g169
a(dp410
VNamedEntityTag
p411
g66
sVCharacterOffsetEnd
p412
V111
p413
sVCharacterOffsetBegin
p414
V110
p415
sVPartOfSpeech
p416
g169
sVLemma
p417
g169
saasVindexeddependencies
p418
(lp419
(lp420
Vroot
p421
aVROOT-0
p422
aVliked-9
p423
aa(lp424
Vdet
p425
aVpeople-4
p426
aVthe-2
p427
aa(lp428
Vnum
p429
aVpeople-4
p430
aV100-3
p431
aa(lp432
Vprep_of
p433
aVliked-9
p434
aVpeople-4
p435
aa(lp436
Vvmod
p437
aVpeople-4
p438
aVsurveyed-5
p439
aa(lp440
Vnum
p441
aVtimes-8
p442
aV0.7-7
p443
aa(lp444
Vnsubj
p445
aVliked-9
p446
aVtimes-8
p447
aa(lp448
Vdet
p449
aVproduct-12
p450
aVthe-10
p451
aa(lp452
Vamod
p453
aVproduct-12
p454
aVnew-11
p455
aa(lp456
Vdobj
p457
aVliked-9
p458
aVproduct-12
p459
aasa(dp460
Vparsetree
p461
V(ROOT (SBARQ (WHNP (WHADJP (WRB How) (JJ many)) (NNS people)) (SQ (VP (VBD liked) (NP (DT the) (JJ new) (NN product)))) (. ?)))
p462
sVtext
p463
VHow many people liked the new product ?
p464
sVdependencies
p465
(lp466
(lp467
Vroot
p468
aVROOT
p469
aVliked
p470
aa(lp471
Vadvmod
p472
aVmany
p473
aVHow
p474
aa(lp475
Vamod
p476
aVpeople
p477
aVmany
p478
aa(lp479
Vnsubj
p480
aVliked
p481
aVpeople
p482
aa(lp483
Vdet
p484
aVproduct
p485
aVthe
p486
aa(lp487
Vamod
p488
aVproduct
p489
aVnew
p490
aa(lp491
Vdobj
p492
aVliked
p493
aVproduct
p494
aasVwords
p495
(lp496
(lp497
VHow
p498
a(dp499
VNamedEntityTag
p500
g66
sVCharacterOffsetEnd
p501
V115
p502
sVCharacterOffsetBegin
p503
V112
p504
sVPartOfSpeech
p505
VWRB
p506
sVLemma
p507
Vhow
p508
saa(lp509
Vmany
p510
a(dp511
VNamedEntityTag
p512
g66
sVCharacterOffsetEnd
p513
V120
p514
sVCharacterOffsetBegin
p515
V116
p516
sVPartOfSpeech
p517
VJJ
p518
sVLemma
p519
Vmany
p520
saa(lp521
Vpeople
p522
a(dp523
VNamedEntityTag
p524
g66
sVCharacterOffsetEnd
p525
V127
p526
sVCharacterOffsetBegin
p527
V121
p528
sVPartOfSpeech
p529
VNNS
p530
sVLemma
p531
Vpeople
p532
saa(lp533
Vliked
p534
a(dp535
VNamedEntityTag
p536
g66
sVCharacterOffsetEnd
p537
V133
p538
sVCharacterOffsetBegin
p539
V128
p540
sVPartOfSpeech
p541
VVBD
p542
sVLemma
p543
Vlike
p544
saa(lp545
Vthe
p546
a(dp547
VNamedEntityTag
p548
g66
sVCharacterOffsetEnd
p549
V137
p550
sVCharacterOffsetBegin
p551
V134
p552
sVPartOfSpeech
p553
VDT
p554
sVLemma
p555
Vthe
p556
saa(lp557
Vnew
p558
a(dp559
VNamedEntityTag
p560
g66
sVCharacterOffsetEnd
p561
V141
p562
sVCharacterOffsetBegin
p563
V138
p564
sVPartOfSpeech
p565
VJJ
p566
sVLemma
p567
Vnew
p568
saa(lp569
Vproduct
p570
a(dp571
VNamedEntityTag
p572
g66
sVCharacterOffsetEnd
p573
V149
p574
sVCharacterOffsetBegin
p575
V142
p576
sVPartOfSpeech
p577
VNN
p578
sVLemma
p579
Vproduct
p580
saa(lp581
V?
p582
a(dp583
VNamedEntityTag
p584
g66
sVCharacterOffsetEnd
p585
V151
p586
sVCharacterOffsetBegin
p587
V150
p588
sVPartOfSpeech
p589
g169
sVLemma
p590
g582
saasVindexeddependencies
p591
(lp592
(lp593
Vroot
p594
aVROOT-0
p595
aVliked-4
p596
aa(lp597
Vadvmod
p598
aVmany-2
p599
aVHow-1
p600
aa(lp601
Vamod
p602
aVpeople-3
p603
aVmany-2
p604
aa(lp605
Vnsubj
p606
aVliked-4
p607
aVpeople-3
p608
aa(lp609
Vdet
p610
aVproduct-7
p611
aVthe-5
p612
aa(lp613
Vamod
p614
aVproduct-7
p615
aVnew-6
p616
aa(lp617
Vdobj
p618
aVliked-4
p619
aVproduct-7
p620
aasas.