(dp0
Vcoref
p1
(lp2
(lp3
(lp4
(lp5
Vhe
p6
aI1
aI4
aI4
aI5
aa(lp7
VA waiter at ` The Greasy Spoon ' restaurant
p8
aI0
aI1
aI0
aI9
aaa(lp9
(lp10
Vhim
p11
aI2
aI8
aI8
aI9
aa(lp12
VA waiter at ` The Greasy Spoon ' restaurant
p13
aI0
aI1
aI0
aI9
aaaa(lp14
(lp15
(lp16
Vthe customers
p17
aI2
aI4
aI3
aI5
aa(lp18
Vanother 20 customers
p19
aI1
aI8
aI6
aI9
aaaa(lp20
(lp21
(lp22
Va tip
p23
aI2
aI18
aI17
aI19
aa(lp24
Va tip
p25
aI2
aI10
aI9
aI11
aaaasVsentences
p26
(lp27
(dp28
Vparsetree
p29
V(ROOT (S (NP (NP (DT A) (NN waiter)) (PP (IN at) (`` `) (NP (NP (DT The) (NNP Greasy) (NNP Spoon) (POS ')) (NN restaurant)))) (VP (VBD had) (NP (CD 29) (NNS customers)) (S (VP (TO to) (VP (VB wait) (PP (IN on)))))) (. .)))
p30
sVtext
p31
VA waiter at 'The Greasy Spoon' restaurant had 29 customers to wait on .
p32
sVdependencies
p33
(lp34
(lp35
Vroot
p36
aVROOT
p37
aVhad
p38
aa(lp39
Vdet
p40
aVwaiter
p41
aVA
p42
aa(lp43
Vnsubj
p44
aVhad
p45
aVwaiter
p46
aa(lp47
Vdet
p48
aVSpoon
p49
aVThe
p50
aa(lp51
Vnn
p52
aVSpoon
p53
aVGreasy
p54
aa(lp55
Vposs
p56
aVrestaurant
p57
aVSpoon
p58
aa(lp59
Vprep_at
p60
aVwaiter
p61
aVrestaurant
p62
aa(lp63
Vnum
p64
aVcustomers
p65
aV29
p66
aa(lp67
Vdobj
p68
aVhad
p69
aVcustomers
p70
aa(lp71
Vaux
p72
aVwait
p73
aVto
p74
aa(lp75
Vvmod
p76
aVhad
p77
aVwait
p78
aa(lp79
Vprep
p80
aVwait
p81
aVon
p82
aasVwords
p83
(lp84
(lp85
g42
a(dp86
VNamedEntityTag
p87
VO
p88
sVCharacterOffsetEnd
p89
V2
p90
sVCharacterOffsetBegin
p91
V1
p92
sVPartOfSpeech
p93
VDT
p94
sVLemma
p95
Va
p96
saa(lp97
Vwaiter
p98
a(dp99
VNamedEntityTag
p100
g88
sVCharacterOffsetEnd
p101
V9
p102
sVCharacterOffsetBegin
p103
V3
p104
sVPartOfSpeech
p105
VNN
p106
sVLemma
p107
Vwaiter
p108
saa(lp109
Vat
p110
a(dp111
VNamedEntityTag
p112
g88
sVCharacterOffsetEnd
p113
V12
p114
sVCharacterOffsetBegin
p115
V10
p116
sVPartOfSpeech
p117
VIN
p118
sVLemma
p119
Vat
p120
saa(lp121
V`
p122
a(dp123
VNamedEntityTag
p124
g88
sVCharacterOffsetEnd
p125
V14
p126
sVCharacterOffsetBegin
p127
V13
p128
sVPartOfSpeech
p129
V``
p130
sVLemma
p131
g122
saa(lp132
VThe
p133
a(dp134
VNamedEntityTag
p135
g88
sVCharacterOffsetEnd
p136
V17
p137
sVCharacterOffsetBegin
p138
V14
p139
sVPartOfSpeech
p140
VDT
p141
sVLemma
p142
Vthe
p143
saa(lp144
VGreasy
p145
a(dp146
VNamedEntityTag
p147
VMISC
p148
sVCharacterOffsetEnd
p149
V24
p150
sVCharacterOffsetBegin
p151
V18
p152
sVPartOfSpeech
p153
VNNP
p154
sVLemma
p155
VGreasy
p156
saa(lp157
VSpoon
p158
a(dp159
VNamedEntityTag
p160
VMISC
p161
sVCharacterOffsetEnd
p162
V30
p163
sVCharacterOffsetBegin
p164
V25
p165
sVPartOfSpeech
p166
VNNP
p167
sVLemma
p168
VSpoon
p169
saa(lp170
V'
p171
a(dp172
VNamedEntityTag
p173
g88
sVCharacterOffsetEnd
p174
V31
p175
sVCharacterOffsetBegin
p176
V30
p177
sVPartOfSpeech
p178
VPOS
p179
sVLemma
p180
g171
saa(lp181
Vrestaurant
p182
a(dp183
VNamedEntityTag
p184
g88
sVCharacterOffsetEnd
p185
V42
p186
sVCharacterOffsetBegin
p187
V32
p188
sVPartOfSpeech
p189
VNN
p190
sVLemma
p191
Vrestaurant
p192
saa(lp193
Vhad
p194
a(dp195
VNamedEntityTag
p196
g88
sVCharacterOffsetEnd
p197
V46
p198
sVCharacterOffsetBegin
p199
V43
p200
sVPartOfSpeech
p201
VVBD
p202
sVLemma
p203
Vhave
p204
saa(lp205
V29
p206
a(dp207
VNormalizedNamedEntityTag
p208
V29.0
p209
sVLemma
p210
V29
p211
sVCharacterOffsetEnd
p212
V49
p213
sVPartOfSpeech
p214
VCD
p215
sVCharacterOffsetBegin
p216
V47
p217
sVNamedEntityTag
p218
VNUMBER
p219
saa(lp220
Vcustomers
p221
a(dp222
VNamedEntityTag
p223
g88
sVCharacterOffsetEnd
p224
V59
p225
sVCharacterOffsetBegin
p226
V50
p227
sVPartOfSpeech
p228
VNNS
p229
sVLemma
p230
Vcustomer
p231
saa(lp232
Vto
p233
a(dp234
VNamedEntityTag
p235
g88
sVCharacterOffsetEnd
p236
V62
p237
sVCharacterOffsetBegin
p238
V60
p239
sVPartOfSpeech
p240
VTO
p241
sVLemma
p242
Vto
p243
saa(lp244
Vwait
p245
a(dp246
VNamedEntityTag
p247
g88
sVCharacterOffsetEnd
p248
V67
p249
sVCharacterOffsetBegin
p250
V63
p251
sVPartOfSpeech
p252
VVB
p253
sVLemma
p254
Vwait
p255
saa(lp256
Von
p257
a(dp258
VNamedEntityTag
p259
g88
sVCharacterOffsetEnd
p260
V70
p261
sVCharacterOffsetBegin
p262
V68
p263
sVPartOfSpeech
p264
VIN
p265
sVLemma
p266
Von
p267
saa(lp268
V.
p269
a(dp270
VNamedEntityTag
p271
g88
sVCharacterOffsetEnd
p272
V72
p273
sVCharacterOffsetBegin
p274
V71
p275
sVPartOfSpeech
p276
g269
sVLemma
p277
g269
saasVindexeddependencies
p278
(lp279
(lp280
Vroot
p281
aVROOT-0
p282
aVhad-10
p283
aa(lp284
Vdet
p285
aVwaiter-2
p286
aVA-1
p287
aa(lp288
Vnsubj
p289
aVhad-10
p290
aVwaiter-2
p291
aa(lp292
Vdet
p293
aVSpoon-7
p294
aVThe-5
p295
aa(lp296
Vnn
p297
aVSpoon-7
p298
aVGreasy-6
p299
aa(lp300
Vposs
p301
aVrestaurant-9
p302
aVSpoon-7
p303
aa(lp304
Vprep_at
p305
aVwaiter-2
p306
aVrestaurant-9
p307
aa(lp308
Vnum
p309
aVcustomers-12
p310
aV29-11
p311
aa(lp312
Vdobj
p313
aVhad-10
p314
aVcustomers-12
p315
aa(lp316
Vaux
p317
aVwait-14
p318
aVto-13
p319
aa(lp320
Vvmod
p321
aVhad-10
p322
aVwait-14
p323
aa(lp324
Vprep
p325
aVwait-14
p326
aVon-15
p327
aasa(dp328
Vparsetree
p329
V(ROOT (S (PP (IN During) (NP (DT the) (NN lunch) (NN rush))) (NP (PRP he)) (VP (VBD added) (NP (QP (DT another) (CD 20)) (NNS customers))) (. .)))
p330
sVtext
p331
VDuring the lunch rush he added another 20 customers .
p332
sVdependencies
p333
(lp334
(lp335
Vroot
p336
aVROOT
p337
aVadded
p338
aa(lp339
Vdet
p340
aVrush
p341
aVthe
p342
aa(lp343
Vnn
p344
aVrush
p345
aVlunch
p346
aa(lp347
Vprep_during
p348
aVadded
p349
aVrush
p350
aa(lp351
Vnsubj
p352
aVadded
p353
aVhe
p354
aa(lp355
Vquantmod
p356
aV20
p357
aVanother
p358
aa(lp359
Vnum
p360
aVcustomers
p361
aV20
p362
aa(lp363
Vdobj
p364
aVadded
p365
aVcustomers
p366
aasVwords
p367
(lp368
(lp369
VDuring
p370
a(dp371
VNamedEntityTag
p372
g88
sVCharacterOffsetEnd
p373
V79
p374
sVCharacterOffsetBegin
p375
V73
p376
sVPartOfSpeech
p377
VIN
p378
sVLemma
p379
Vduring
p380
saa(lp381
Vthe
p382
a(dp383
VNamedEntityTag
p384
g88
sVCharacterOffsetEnd
p385
V83
p386
sVCharacterOffsetBegin
p387
V80
p388
sVPartOfSpeech
p389
VDT
p390
sVLemma
p391
Vthe
p392
saa(lp393
Vlunch
p394
a(dp395
VNamedEntityTag
p396
g88
sVCharacterOffsetEnd
p397
V89
p398
sVCharacterOffsetBegin
p399
V84
p400
sVPartOfSpeech
p401
VNN
p402
sVLemma
p403
Vlunch
p404
saa(lp405
Vrush
p406
a(dp407
VNamedEntityTag
p408
g88
sVCharacterOffsetEnd
p409
V94
p410
sVCharacterOffsetBegin
p411
V90
p412
sVPartOfSpeech
p413
VNN
p414
sVLemma
p415
Vrush
p416
saa(lp417
Vhe
p418
a(dp419
VNamedEntityTag
p420
g88
sVCharacterOffsetEnd
p421
V97
p422
sVCharacterOffsetBegin
p423
V95
p424
sVPartOfSpeech
p425
VPRP
p426
sVLemma
p427
Vhe
p428
saa(lp429
Vadded
p430
a(dp431
VNamedEntityTag
p432
g88
sVCharacterOffsetEnd
p433
V103
p434
sVCharacterOffsetBegin
p435
V98
p436
sVPartOfSpeech
p437
VVBD
p438
sVLemma
p439
Vadd
p440
saa(lp441
Vanother
p442
a(dp443
VNamedEntityTag
p444
g88
sVCharacterOffsetEnd
p445
V111
p446
sVCharacterOffsetBegin
p447
V104
p448
sVPartOfSpeech
p449
VDT
p450
sVLemma
p451
Vanother
p452
saa(lp453
V20
p454
a(dp455
VNormalizedNamedEntityTag
p456
V20.0
p457
sVLemma
p458
V20
p459
sVCharacterOffsetEnd
p460
V114
p461
sVPartOfSpeech
p462
VCD
p463
sVCharacterOffsetBegin
p464
V112
p465
sVNamedEntityTag
p466
VNUMBER
p467
saa(lp468
Vcustomers
p469
a(dp470
VNamedEntityTag
p471
g88
sVCharacterOffsetEnd
p472
V124
p473
sVCharacterOffsetBegin
p474
V115
p475
sVPartOfSpeech
p476
VNNS
p477
sVLemma
p478
Vcustomer
p479
saa(lp480
g269
a(dp481
VNamedEntityTag
p482
g88
sVCharacterOffsetEnd
p483
V126
p484
sVCharacterOffsetBegin
p485
V125
p486
sVPartOfSpeech
p487
g269
sVLemma
p488
g269
saasVindexeddependencies
p489
(lp490
(lp491
Vroot
p492
aVROOT-0
p493
aVadded-6
p494
aa(lp495
Vdet
p496
aVrush-4
p497
aVthe-2
p498
aa(lp499
Vnn
p500
aVrush-4
p501
aVlunch-3
p502
aa(lp503
Vprep_during
p504
aVadded-6
p505
aVrush-4
p506
aa(lp507
Vnsubj
p508
aVadded-6
p509
aVhe-5
p510
aa(lp511
Vquantmod
p512
aV20-8
p513
aVanother-7
p514
aa(lp515
Vnum
p516
aVcustomers-9
p517
aV20-8
p518
aa(lp519
Vdobj
p520
aVadded-6
p521
aVcustomers-9
p522
aasa(dp523
Vparsetree
p524
V(ROOT (SBARQ (SBAR (IN If) (S (NP (NP (CD 34)) (PP (IN of) (NP (DT the) (NNS customers)))) (VP (VBD did) (RB n't) (VP (VB leave) (NP (PRP him)) (NP (DT a) (NN tip)))))) (, ,) (WHNP (WHADJP (WRB how) (JJ many)) (NNS customers)) (SQ (VP (VBD did) (VP (VB leave) (NP (DT a) (NN tip))))) (. ?)))
p525
sVtext
p526
VIf 34 of the customers didn't leave him a tip , how many customers did leave a tip ?
p527
sVdependencies
p528
(lp529
(lp530
Vroot
p531
aVROOT
p532
aVleave
p533
aa(lp534
Vmark
p535
aVleave
p536
aVIf
p537
aa(lp538
Vnsubj
p539
aVleave
p540
aV34
p541
aa(lp542
Vdet
p543
aVcustomers
p544
aVthe
p545
aa(lp546
Vprep_of
p547
aV34
p548
aVcustomers
p549
aa(lp550
Vaux
p551
aVleave
p552
aVdid
p553
aa(lp554
Vneg
p555
aVleave
p556
aVn't
p557
aa(lp558
Vadvcl
p559
aVleave
p560
aVleave
p561
aa(lp562
Viobj
p563
aVleave
p564
aVhim
p565
aa(lp566
Vdet
p567
aVtip
p568
ag96
aa(lp569
Vdobj
p570
aVleave
p571
aVtip
p572
aa(lp573
Vadvmod
p574
aVmany
p575
aVhow
p576
aa(lp577
Vamod
p578
aVcustomers
p579
aVmany
p580
aa(lp581
Vnsubj
p582
aVleave
p583
aVcustomers
p584
aa(lp585
Vaux
p586
aVleave
p587
aVdid
p588
aa(lp589
Vdet
p590
aVtip
p591
ag96
aa(lp592
Vdobj
p593
aVleave
p594
aVtip
p595
aasVwords
p596
(lp597
(lp598
VIf
p599
a(dp600
VNamedEntityTag
p601
g88
sVCharacterOffsetEnd
p602
V129
p603
sVCharacterOffsetBegin
p604
V127
p605
sVPartOfSpeech
p606
VIN
p607
sVLemma
p608
Vif
p609
saa(lp610
V34
p611
a(dp612
VNormalizedNamedEntityTag
p613
V34.0
p614
sVLemma
p615
V34
p616
sVCharacterOffsetEnd
p617
V132
p618
sVPartOfSpeech
p619
VCD
p620
sVCharacterOffsetBegin
p621
V130
p622
sVNamedEntityTag
p623
VNUMBER
p624
saa(lp625
Vof
p626
a(dp627
VNamedEntityTag
p628
g88
sVCharacterOffsetEnd
p629
V135
p630
sVCharacterOffsetBegin
p631
V133
p632
sVPartOfSpeech
p633
VIN
p634
sVLemma
p635
Vof
p636
saa(lp637
Vthe
p638
a(dp639
VNamedEntityTag
p640
g88
sVCharacterOffsetEnd
p641
V139
p642
sVCharacterOffsetBegin
p643
V136
p644
sVPartOfSpeech
p645
VDT
p646
sVLemma
p647
Vthe
p648
saa(lp649
Vcustomers
p650
a(dp651
VNamedEntityTag
p652
g88
sVCharacterOffsetEnd
p653
V149
p654
sVCharacterOffsetBegin
p655
V140
p656
sVPartOfSpeech
p657
VNNS
p658
sVLemma
p659
Vcustomer
p660
saa(lp661
Vdid
p662
a(dp663
VNamedEntityTag
p664
g88
sVCharacterOffsetEnd
p665
V153
p666
sVCharacterOffsetBegin
p667
V150
p668
sVPartOfSpeech
p669
VVBD
p670
sVLemma
p671
Vdo
p672
saa(lp673
Vn't
p674
a(dp675
VNamedEntityTag
p676
g88
sVCharacterOffsetEnd
p677
V156
p678
sVCharacterOffsetBegin
p679
V153
p680
sVPartOfSpeech
p681
VRB
p682
sVLemma
p683
Vnot
p684
saa(lp685
Vleave
p686
a(dp687
VNamedEntityTag
p688
g88
sVCharacterOffsetEnd
p689
V162
p690
sVCharacterOffsetBegin
p691
V157
p692
sVPartOfSpeech
p693
VVB
p694
sVLemma
p695
Vleave
p696
saa(lp697
Vhim
p698
a(dp699
VNamedEntityTag
p700
g88
sVCharacterOffsetEnd
p701
V166
p702
sVCharacterOffsetBegin
p703
V163
p704
sVPartOfSpeech
p705
VPRP
p706
sVLemma
p707
Vhe
p708
saa(lp709
g96
a(dp710
VNamedEntityTag
p711
g88
sVCharacterOffsetEnd
p712
V168
p713
sVCharacterOffsetBegin
p714
V167
p715
sVPartOfSpeech
p716
VDT
p717
sVLemma
p718
g96
saa(lp719
Vtip
p720
a(dp721
VNamedEntityTag
p722
g88
sVCharacterOffsetEnd
p723
V172
p724
sVCharacterOffsetBegin
p725
V169
p726
sVPartOfSpeech
p727
VNN
p728
sVLemma
p729
Vtip
p730
saa(lp731
V,
p732
a(dp733
VNamedEntityTag
p734
g88
sVCharacterOffsetEnd
p735
V174
p736
sVCharacterOffsetBegin
p737
V173
p738
sVPartOfSpeech
p739
g732
sVLemma
p740
g732
saa(lp741
Vhow
p742
a(dp743
VNamedEntityTag
p744
g88
sVCharacterOffsetEnd
p745
V178
p746
sVCharacterOffsetBegin
p747
V175
p748
sVPartOfSpeech
p749
VWRB
p750
sVLemma
p751
Vhow
p752
saa(lp753
Vmany
p754
a(dp755
VNamedEntityTag
p756
g88
sVCharacterOffsetEnd
p757
V183
p758
sVCharacterOffsetBegin
p759
V179
p760
sVPartOfSpeech
p761
VJJ
p762
sVLemma
p763
Vmany
p764
saa(lp765
Vcustomers
p766
a(dp767
VNamedEntityTag
p768
g88
sVCharacterOffsetEnd
p769
V193
p770
sVCharacterOffsetBegin
p771
V184
p772
sVPartOfSpeech
p773
VNNS
p774
sVLemma
p775
Vcustomer
p776
saa(lp777
Vdid
p778
a(dp779
VNamedEntityTag
p780
g88
sVCharacterOffsetEnd
p781
V197
p782
sVCharacterOffsetBegin
p783
V194
p784
sVPartOfSpeech
p785
VVBD
p786
sVLemma
p787
Vdo
p788
saa(lp789
Vleave
p790
a(dp791
VNamedEntityTag
p792
g88
sVCharacterOffsetEnd
p793
V203
p794
sVCharacterOffsetBegin
p795
V198
p796
sVPartOfSpeech
p797
VVB
p798
sVLemma
p799
Vleave
p800
saa(lp801
g96
a(dp802
VNamedEntityTag
p803
g88
sVCharacterOffsetEnd
p804
V205
p805
sVCharacterOffsetBegin
p806
V204
p807
sVPartOfSpeech
p808
VDT
p809
sVLemma
p810
g96
saa(lp811
Vtip
p812
a(dp813
VNamedEntityTag
p814
g88
sVCharacterOffsetEnd
p815
V209
p816
sVCharacterOffsetBegin
p817
V206
p818
sVPartOfSpeech
p819
VNN
p820
sVLemma
p821
Vtip
p822
saa(lp823
V?
p824
a(dp825
VNamedEntityTag
p826
g88
sVCharacterOffsetEnd
p827
V211
p828
sVCharacterOffsetBegin
p829
V210
p830
sVPartOfSpeech
p831
g269
sVLemma
p832
g824
saasVindexeddependencies
p833
(lp834
(lp835
Vroot
p836
aVROOT-0
p837
aVleave-17
p838
aa(lp839
Vmark
p840
aVleave-8
p841
aVIf-1
p842
aa(lp843
Vnsubj
p844
aVleave-8
p845
aV34-2
p846
aa(lp847
Vdet
p848
aVcustomers-5
p849
aVthe-4
p850
aa(lp851
Vprep_of
p852
aV34-2
p853
aVcustomers-5
p854
aa(lp855
Vaux
p856
aVleave-8
p857
aVdid-6
p858
aa(lp859
Vneg
p860
aVleave-8
p861
aVn't-7
p862
aa(lp863
Vadvcl
p864
aVleave-17
p865
aVleave-8
p866
aa(lp867
Viobj
p868
aVleave-8
p869
aVhim-9
p870
aa(lp871
Vdet
p872
aVtip-11
p873
aVa-10
p874
aa(lp875
Vdobj
p876
aVleave-8
p877
aVtip-11
p878
aa(lp879
Vadvmod
p880
aVmany-14
p881
aVhow-13
p882
aa(lp883
Vamod
p884
aVcustomers-15
p885
aVmany-14
p886
aa(lp887
Vnsubj
p888
aVleave-17
p889
aVcustomers-15
p890
aa(lp891
Vaux
p892
aVleave-17
p893
aVdid-16
p894
aa(lp895
Vdet
p896
aVtip-19
p897
aVa-18
p898
aa(lp899
Vdobj
p900
aVleave-17
p901
aVtip-19
p902
aasas.