(dp0
Vcoref
p1
(lp2
(lp3
(lp4
(lp5
VShe
p6
aI1
aI0
aI0
aI1
aa(lp7
VTrisha
p8
aI0
aI0
aI0
aI1
aaa(lp9
(lp10
VTrisha
p11
aI2
aI5
aI5
aI6
aa(lp12
VTrisha
p13
aI0
aI0
aI0
aI1
aaaa(lp14
(lp15
(lp16
Vbeads
p17
aI2
aI3
aI3
aI4
aa(lp18
Vbeads
p19
aI0
aI5
aI5
aI6
aaaasVsentences
p20
(lp21
(dp22
Vparsetree
p23
V(ROOT (S (NP (NNP Trisha)) (VP (VBD ordered) (NP (NP (DT a) (NN set)) (PP (IN of) (NP (NNS beads))))) (. .)))
p24
sVtext
p25
VTrisha ordered a set of beads .
p26
sVdependencies
p27
(lp28
(lp29
Vroot
p30
aVROOT
p31
aVordered
p32
aa(lp33
Vnsubj
p34
aVordered
p35
aVTrisha
p36
aa(lp37
Vdet
p38
aVset
p39
aVa
p40
aa(lp41
Vdobj
p42
aVordered
p43
aVset
p44
aa(lp45
Vprep_of
p46
aVset
p47
aVbeads
p48
aasVwords
p49
(lp50
(lp51
VTrisha
p52
a(dp53
VNamedEntityTag
p54
VPERSON
p55
sVCharacterOffsetEnd
p56
V7
p57
sVCharacterOffsetBegin
p58
V1
p59
sVPartOfSpeech
p60
VNNP
p61
sVLemma
p62
VTrisha
p63
saa(lp64
Vordered
p65
a(dp66
VNamedEntityTag
p67
VO
p68
sVCharacterOffsetEnd
p69
V15
p70
sVCharacterOffsetBegin
p71
V8
p72
sVPartOfSpeech
p73
VVBD
p74
sVLemma
p75
Vorder
p76
saa(lp77
g40
a(dp78
VNamedEntityTag
p79
g68
sVCharacterOffsetEnd
p80
V17
p81
sVCharacterOffsetBegin
p82
V16
p83
sVPartOfSpeech
p84
VDT
p85
sVLemma
p86
g40
saa(lp87
Vset
p88
a(dp89
VNamedEntityTag
p90
g68
sVCharacterOffsetEnd
p91
V21
p92
sVCharacterOffsetBegin
p93
V18
p94
sVPartOfSpeech
p95
VNN
p96
sVLemma
p97
Vset
p98
saa(lp99
Vof
p100
a(dp101
VNamedEntityTag
p102
g68
sVCharacterOffsetEnd
p103
V24
p104
sVCharacterOffsetBegin
p105
V22
p106
sVPartOfSpeech
p107
VIN
p108
sVLemma
p109
Vof
p110
saa(lp111
Vbeads
p112
a(dp113
VNamedEntityTag
p114
g68
sVCharacterOffsetEnd
p115
V30
p116
sVCharacterOffsetBegin
p117
V25
p118
sVPartOfSpeech
p119
VNNS
p120
sVLemma
p121
Vbead
p122
saa(lp123
V.
p124
a(dp125
VNamedEntityTag
p126
g68
sVCharacterOffsetEnd
p127
V32
p128
sVCharacterOffsetBegin
p129
V31
p130
sVPartOfSpeech
p131
g124
sVLemma
p132
g124
saasVindexeddependencies
p133
(lp134
(lp135
Vroot
p136
aVROOT-0
p137
aVordered-2
p138
aa(lp139
Vnsubj
p140
aVordered-2
p141
aVTrisha-1
p142
aa(lp143
Vdet
p144
aVset-4
p145
aVa-3
p146
aa(lp147
Vdobj
p148
aVordered-2
p149
aVset-4
p150
aa(lp151
Vprep_of
p152
aVset-4
p153
aVbeads-6
p154
aasa(dp155
Vparsetree
p156
V(ROOT (S (S (NP (PRP She)) (VP (VBD received) (NP (CD 90) (NNS beads)))) (, ,) (CC and) (S (NP (NP (CD 0.2) (NNS times)) (PP (IN of) (NP (PRP them)))) (VP (VBD were) (ADJP (JJ purple)))) (. .)))
p157
sVtext
p158
VShe received 90 beads , and 0.2 times of them were purple .
p159
sVdependencies
p160
(lp161
(lp162
Vroot
p163
aVROOT
p164
aVreceived
p165
aa(lp166
Vnsubj
p167
aVreceived
p168
aVShe
p169
aa(lp170
Vnum
p171
aVbeads
p172
aV90
p173
aa(lp174
Vdobj
p175
aVreceived
p176
aVbeads
p177
aa(lp178
Vnum
p179
aVtimes
p180
aV0.2
p181
aa(lp182
Vnsubj
p183
aVpurple
p184
aVtimes
p185
aa(lp186
Vprep_of
p187
aVtimes
p188
aVthem
p189
aa(lp190
Vcop
p191
aVpurple
p192
aVwere
p193
aa(lp194
Vconj_and
p195
aVreceived
p196
aVpurple
p197
aasVwords
p198
(lp199
(lp200
VShe
p201
a(dp202
VNamedEntityTag
p203
g68
sVCharacterOffsetEnd
p204
V36
p205
sVCharacterOffsetBegin
p206
V33
p207
sVPartOfSpeech
p208
VPRP
p209
sVLemma
p210
Vshe
p211
saa(lp212
Vreceived
p213
a(dp214
VNamedEntityTag
p215
g68
sVCharacterOffsetEnd
p216
V45
p217
sVCharacterOffsetBegin
p218
V37
p219
sVPartOfSpeech
p220
VVBD
p221
sVLemma
p222
Vreceive
p223
saa(lp224
V90
p225
a(dp226
VNormalizedNamedEntityTag
p227
V90.0
p228
sVLemma
p229
V90
p230
sVCharacterOffsetEnd
p231
V48
p232
sVPartOfSpeech
p233
VCD
p234
sVCharacterOffsetBegin
p235
V46
p236
sVNamedEntityTag
p237
VNUMBER
p238
saa(lp239
Vbeads
p240
a(dp241
VNamedEntityTag
p242
g68
sVCharacterOffsetEnd
p243
V54
p244
sVCharacterOffsetBegin
p245
V49
p246
sVPartOfSpeech
p247
VNNS
p248
sVLemma
p249
Vbead
p250
saa(lp251
V,
p252
a(dp253
VNamedEntityTag
p254
g68
sVCharacterOffsetEnd
p255
V56
p256
sVCharacterOffsetBegin
p257
V55
p258
sVPartOfSpeech
p259
g252
sVLemma
p260
g252
saa(lp261
Vand
p262
a(dp263
VNamedEntityTag
p264
g68
sVCharacterOffsetEnd
p265
V60
p266
sVCharacterOffsetBegin
p267
V57
p268
sVPartOfSpeech
p269
VCC
p270
sVLemma
p271
Vand
p272
saa(lp273
V0.2
p274
a(dp275
VNormalizedNamedEntityTag
p276
V0.2
p277
sVLemma
p278
V0.2
p279
sVCharacterOffsetEnd
p280
V64
p281
sVPartOfSpeech
p282
VCD
p283
sVCharacterOffsetBegin
p284
V61
p285
sVNamedEntityTag
p286
VNUMBER
p287
saa(lp288
Vtimes
p289
a(dp290
VNamedEntityTag
p291
g68
sVCharacterOffsetEnd
p292
V70
p293
sVCharacterOffsetBegin
p294
V65
p295
sVPartOfSpeech
p296
VNNS
p297
sVLemma
p298
Vtime
p299
saa(lp300
Vof
p301
a(dp302
VNamedEntityTag
p303
g68
sVCharacterOffsetEnd
p304
V73
p305
sVCharacterOffsetBegin
p306
V71
p307
sVPartOfSpeech
p308
VIN
p309
sVLemma
p310
Vof
p311
saa(lp312
Vthem
p313
a(dp314
VNamedEntityTag
p315
g68
sVCharacterOffsetEnd
p316
V78
p317
sVCharacterOffsetBegin
p318
V74
p319
sVPartOfSpeech
p320
VPRP
p321
sVLemma
p322
Vthey
p323
saa(lp324
Vwere
p325
a(dp326
VNamedEntityTag
p327
g68
sVCharacterOffsetEnd
p328
V83
p329
sVCharacterOffsetBegin
p330
V79
p331
sVPartOfSpeech
p332
VVBD
p333
sVLemma
p334
Vbe
p335
saa(lp336
Vpurple
p337
a(dp338
VNamedEntityTag
p339
g68
sVCharacterOffsetEnd
p340
V90
p341
sVCharacterOffsetBegin
p342
V84
p343
sVPartOfSpeech
p344
VJJ
p345
sVLemma
p346
Vpurple
p347
saa(lp348
g124
a(dp349
VNamedEntityTag
p350
g68
sVCharacterOffsetEnd
p351
V92
p352
sVCharacterOffsetBegin
p353
V91
p354
sVPartOfSpeech
p355
g124
sVLemma
p356
g124
saasVindexeddependencies
p357
(lp358
(lp359
Vroot
p360
aVROOT-0
p361
aVreceived-2
p362
aa(lp363
Vnsubj
p364
aVreceived-2
p365
aVShe-1
p366
aa(lp367
Vnum
p368
aVbeads-4
p369
aV90-3
p370
aa(lp371
Vdobj
p372
aVreceived-2
p373
aVbeads-4
p374
aa(lp375
Vnum
p376
aVtimes-8
p377
aV0.2-7
p378
aa(lp379
Vnsubj
p380
aVpurple-12
p381
aVtimes-8
p382
aa(lp383
Vprep_of
p384
aVtimes-8
p385
aVthem-10
p386
aa(lp387
Vcop
p388
aVpurple-12
p389
aVwere-11
p390
aa(lp391
Vconj_and
p392
aVreceived-2
p393
aVpurple-12
p394
aasa(dp395
Vparsetree
p396
V(ROOT (SBARQ (WHNP (WHADJP (WRB How) (JJ many)) (NP (NP (JJ purple)) (NP (NNS beads)))) (SQ (VBD did) (NP (NNP Trisha)) (VP (VB receive))) (. ?)))
p397
sVtext
p398
VHow many purple beads did Trisha receive ?
p399
sVdependencies
p400
(lp401
(lp402
Vroot
p403
aVROOT
p404
aVreceive
p405
aa(lp406
Vadvmod
p407
aVmany
p408
aVHow
p409
aa(lp410
Vamod
p411
aVpurple
p412
aVmany
p413
aa(lp414
Vdobj
p415
aVreceive
p416
aVpurple
p417
aa(lp418
Vdep
p419
aVpurple
p420
aVbeads
p421
aa(lp422
Vaux
p423
aVreceive
p424
aVdid
p425
aa(lp426
Vnsubj
p427
aVreceive
p428
aVTrisha
p429
aasVwords
p430
(lp431
(lp432
VHow
p433
a(dp434
VNamedEntityTag
p435
g68
sVCharacterOffsetEnd
p436
V96
p437
sVCharacterOffsetBegin
p438
V93
p439
sVPartOfSpeech
p440
VWRB
p441
sVLemma
p442
Vhow
p443
saa(lp444
Vmany
p445
a(dp446
VNamedEntityTag
p447
g68
sVCharacterOffsetEnd
p448
V101
p449
sVCharacterOffsetBegin
p450
V97
p451
sVPartOfSpeech
p452
VJJ
p453
sVLemma
p454
Vmany
p455
saa(lp456
Vpurple
p457
a(dp458
VNamedEntityTag
p459
g68
sVCharacterOffsetEnd
p460
V108
p461
sVCharacterOffsetBegin
p462
V102
p463
sVPartOfSpeech
p464
VJJ
p465
sVLemma
p466
Vpurple
p467
saa(lp468
Vbeads
p469
a(dp470
VNamedEntityTag
p471
g68
sVCharacterOffsetEnd
p472
V114
p473
sVCharacterOffsetBegin
p474
V109
p475
sVPartOfSpeech
p476
VNNS
p477
sVLemma
p478
Vbead
p479
saa(lp480
Vdid
p481
a(dp482
VNamedEntityTag
p483
g68
sVCharacterOffsetEnd
p484
V118
p485
sVCharacterOffsetBegin
p486
V115
p487
sVPartOfSpeech
p488
VVBD
p489
sVLemma
p490
Vdo
p491
saa(lp492
VTrisha
p493
a(dp494
VNamedEntityTag
p495
VPERSON
p496
sVCharacterOffsetEnd
p497
V125
p498
sVCharacterOffsetBegin
p499
V119
p500
sVPartOfSpeech
p501
VNNP
p502
sVLemma
p503
VTrisha
p504
saa(lp505
Vreceive
p506
a(dp507
VNamedEntityTag
p508
g68
sVCharacterOffsetEnd
p509
V133
p510
sVCharacterOffsetBegin
p511
V126
p512
sVPartOfSpeech
p513
VVB
p514
sVLemma
p515
Vreceive
p516
saa(lp517
V?
p518
a(dp519
VNamedEntityTag
p520
g68
sVCharacterOffsetEnd
p521
V135
p522
sVCharacterOffsetBegin
p523
V134
p524
sVPartOfSpeech
p525
g124
sVLemma
p526
g518
saasVindexeddependencies
p527
(lp528
(lp529
Vroot
p530
aVROOT-0
p531
aVreceive-7
p532
aa(lp533
Vadvmod
p534
aVmany-2
p535
aVHow-1
p536
aa(lp537
Vamod
p538
aVpurple-3
p539
aVmany-2
p540
aa(lp541
Vdobj
p542
aVreceive-7
p543
aVpurple-3
p544
aa(lp545
Vdep
p546
aVpurple-3
p547
aVbeads-4
p548
aa(lp549
Vaux
p550
aVreceive-7
p551
aVdid-5
p552
aa(lp553
Vnsubj
p554
aVreceive-7
p555
aVTrisha-6
p556
aasas.