(dp0
Vcoref
p1
(lp2
(lp3
(lp4
(lp5
Vthe virus
p6
aI1
aI9
aI8
aI10
aa(lp7
Va virus
p8
aI0
aI15
aI14
aI16
aaa(lp9
(lp10
Vthe virus
p11
aI2
aI7
aI6
aI8
aa(lp12
Va virus
p13
aI0
aI15
aI14
aI16
aaaasVsentences
p14
(lp15
(dp16
Vparsetree
p17
V(ROOT (S (NP (DT An) (NN arborist)) (VP (VBN examined) (NP (NP (NNS trees)) (PP (IN in) (NP (DT an) (NN orchard) (S (VP (TO to) (VP (VB see) (SBAR (IN if) (S (NP (PRP they)) (VP (VBD were) (VP (VBN infected) (PP (IN with) (NP (DT a) (NN virus)))))))))))))) (. .)))
p18
sVtext
p19
VAn arborist examined trees in an orchard to see if they were infected with a virus .
p20
sVdependencies
p21
(lp22
(lp23
Vroot
p24
aVROOT
p25
aVexamined
p26
aa(lp27
Vdet
p28
aVarborist
p29
aVAn
p30
aa(lp31
Vnsubj
p32
aVexamined
p33
aVarborist
p34
aa(lp35
Vdobj
p36
aVexamined
p37
aVtrees
p38
aa(lp39
Vdet
p40
aVorchard
p41
aVan
p42
aa(lp43
Vprep_in
p44
aVtrees
p45
aVorchard
p46
aa(lp47
Vaux
p48
aVsee
p49
aVto
p50
aa(lp51
Vvmod
p52
aVorchard
p53
aVsee
p54
aa(lp55
Vmark
p56
aVinfected
p57
aVif
p58
aa(lp59
Vnsubjpass
p60
aVinfected
p61
aVthey
p62
aa(lp63
Vauxpass
p64
aVinfected
p65
aVwere
p66
aa(lp67
Vadvcl
p68
aVsee
p69
aVinfected
p70
aa(lp71
Vdet
p72
aVvirus
p73
aVa
p74
aa(lp75
Vprep_with
p76
aVinfected
p77
aVvirus
p78
aasVwords
p79
(lp80
(lp81
VAn
p82
a(dp83
VNamedEntityTag
p84
VO
p85
sVCharacterOffsetEnd
p86
V3
p87
sVCharacterOffsetBegin
p88
V1
p89
sVPartOfSpeech
p90
VDT
p91
sVLemma
p92
g74
saa(lp93
Varborist
p94
a(dp95
VNamedEntityTag
p96
g85
sVCharacterOffsetEnd
p97
V12
p98
sVCharacterOffsetBegin
p99
V4
p100
sVPartOfSpeech
p101
VNN
p102
sVLemma
p103
Varborist
p104
saa(lp105
Vexamined
p106
a(dp107
VNamedEntityTag
p108
g85
sVCharacterOffsetEnd
p109
V21
p110
sVCharacterOffsetBegin
p111
V13
p112
sVPartOfSpeech
p113
VVBN
p114
sVLemma
p115
Vexamine
p116
saa(lp117
Vtrees
p118
a(dp119
VNamedEntityTag
p120
g85
sVCharacterOffsetEnd
p121
V27
p122
sVCharacterOffsetBegin
p123
V22
p124
sVPartOfSpeech
p125
VNNS
p126
sVLemma
p127
Vtree
p128
saa(lp129
Vin
p130
a(dp131
VNamedEntityTag
p132
g85
sVCharacterOffsetEnd
p133
V30
p134
sVCharacterOffsetBegin
p135
V28
p136
sVPartOfSpeech
p137
VIN
p138
sVLemma
p139
Vin
p140
saa(lp141
Van
p142
a(dp143
VNamedEntityTag
p144
g85
sVCharacterOffsetEnd
p145
V33
p146
sVCharacterOffsetBegin
p147
V31
p148
sVPartOfSpeech
p149
VDT
p150
sVLemma
p151
g74
saa(lp152
Vorchard
p153
a(dp154
VNamedEntityTag
p155
g85
sVCharacterOffsetEnd
p156
V41
p157
sVCharacterOffsetBegin
p158
V34
p159
sVPartOfSpeech
p160
VNN
p161
sVLemma
p162
Vorchard
p163
saa(lp164
Vto
p165
a(dp166
VNamedEntityTag
p167
g85
sVCharacterOffsetEnd
p168
V44
p169
sVCharacterOffsetBegin
p170
V42
p171
sVPartOfSpeech
p172
VTO
p173
sVLemma
p174
Vto
p175
saa(lp176
Vsee
p177
a(dp178
VNamedEntityTag
p179
g85
sVCharacterOffsetEnd
p180
V48
p181
sVCharacterOffsetBegin
p182
V45
p183
sVPartOfSpeech
p184
VVB
p185
sVLemma
p186
Vsee
p187
saa(lp188
Vif
p189
a(dp190
VNamedEntityTag
p191
g85
sVCharacterOffsetEnd
p192
V51
p193
sVCharacterOffsetBegin
p194
V49
p195
sVPartOfSpeech
p196
VIN
p197
sVLemma
p198
Vif
p199
saa(lp200
Vthey
p201
a(dp202
VNamedEntityTag
p203
g85
sVCharacterOffsetEnd
p204
V56
p205
sVCharacterOffsetBegin
p206
V52
p207
sVPartOfSpeech
p208
VPRP
p209
sVLemma
p210
Vthey
p211
saa(lp212
Vwere
p213
a(dp214
VNamedEntityTag
p215
g85
sVCharacterOffsetEnd
p216
V61
p217
sVCharacterOffsetBegin
p218
V57
p219
sVPartOfSpeech
p220
VVBD
p221
sVLemma
p222
Vbe
p223
saa(lp224
Vinfected
p225
a(dp226
VNamedEntityTag
p227
g85
sVCharacterOffsetEnd
p228
V70
p229
sVCharacterOffsetBegin
p230
V62
p231
sVPartOfSpeech
p232
VVBN
p233
sVLemma
p234
Vinfect
p235
saa(lp236
Vwith
p237
a(dp238
VNamedEntityTag
p239
g85
sVCharacterOffsetEnd
p240
V75
p241
sVCharacterOffsetBegin
p242
V71
p243
sVPartOfSpeech
p244
VIN
p245
sVLemma
p246
Vwith
p247
saa(lp248
g74
a(dp249
VNamedEntityTag
p250
g85
sVCharacterOffsetEnd
p251
V77
p252
sVCharacterOffsetBegin
p253
V76
p254
sVPartOfSpeech
p255
VDT
p256
sVLemma
p257
g74
saa(lp258
Vvirus
p259
a(dp260
VNamedEntityTag
p261
g85
sVCharacterOffsetEnd
p262
V83
p263
sVCharacterOffsetBegin
p264
V78
p265
sVPartOfSpeech
p266
VNN
p267
sVLemma
p268
Vvirus
p269
saa(lp270
V.
p271
a(dp272
VNamedEntityTag
p273
g85
sVCharacterOffsetEnd
p274
V85
p275
sVCharacterOffsetBegin
p276
V84
p277
sVPartOfSpeech
p278
g271
sVLemma
p279
g271
saasVindexeddependencies
p280
(lp281
(lp282
Vroot
p283
aVROOT-0
p284
aVexamined-3
p285
aa(lp286
Vdet
p287
aVarborist-2
p288
aVAn-1
p289
aa(lp290
Vnsubj
p291
aVexamined-3
p292
aVarborist-2
p293
aa(lp294
Vdobj
p295
aVexamined-3
p296
aVtrees-4
p297
aa(lp298
Vdet
p299
aVorchard-7
p300
aVan-6
p301
aa(lp302
Vprep_in
p303
aVtrees-4
p304
aVorchard-7
p305
aa(lp306
Vaux
p307
aVsee-9
p308
aVto-8
p309
aa(lp310
Vvmod
p311
aVorchard-7
p312
aVsee-9
p313
aa(lp314
Vmark
p315
aVinfected-13
p316
aVif-10
p317
aa(lp318
Vnsubjpass
p319
aVinfected-13
p320
aVthey-11
p321
aa(lp322
Vauxpass
p323
aVinfected-13
p324
aVwere-12
p325
aa(lp326
Vadvcl
p327
aVsee-9
p328
aVinfected-13
p329
aa(lp330
Vdet
p331
aVvirus-16
p332
aVa-15
p333
aa(lp334
Vprep_with
p335
aVinfected-13
p336
aVvirus-16
p337
aasa(dp338
Vparsetree
p339
V(ROOT (S (PP (IN Out) (PP (IN of) (NP (CD 70) (NNS trees)))) (, ,) (NP (CD 0.1) (NNS times)) (VP (VBD had) (NP (DT the) (NN virus))) (. .)))
p340
sVtext
p341
VOut of 70 trees , 0.1 times had the virus .
p342
sVdependencies
p343
(lp344
(lp345
Vroot
p346
aVROOT
p347
aVhad
p348
aa(lp349
Vprepc_out_of
p350
aVhad
p351
aVof
p352
aa(lp353
Vnum
p354
aVtrees
p355
aV70
p356
aa(lp357
Vpobj
p358
aVhad
p359
aVtrees
p360
aa(lp361
Vnum
p362
aVtimes
p363
aV0.1
p364
aa(lp365
Vnsubj
p366
aVhad
p367
aVtimes
p368
aa(lp369
Vdet
p370
aVvirus
p371
aVthe
p372
aa(lp373
Vdobj
p374
aVhad
p375
aVvirus
p376
aasVwords
p377
(lp378
(lp379
VOut
p380
a(dp381
VNamedEntityTag
p382
g85
sVCharacterOffsetEnd
p383
V89
p384
sVCharacterOffsetBegin
p385
V86
p386
sVPartOfSpeech
p387
VIN
p388
sVLemma
p389
Vout
p390
saa(lp391
Vof
p392
a(dp393
VNamedEntityTag
p394
g85
sVCharacterOffsetEnd
p395
V92
p396
sVCharacterOffsetBegin
p397
V90
p398
sVPartOfSpeech
p399
VIN
p400
sVLemma
p401
Vof
p402
saa(lp403
V70
p404
a(dp405
VNormalizedNamedEntityTag
p406
V70.0
p407
sVLemma
p408
V70
p409
sVCharacterOffsetEnd
p410
V95
p411
sVPartOfSpeech
p412
VCD
p413
sVCharacterOffsetBegin
p414
V93
p415
sVNamedEntityTag
p416
VNUMBER
p417
saa(lp418
Vtrees
p419
a(dp420
VNamedEntityTag
p421
g85
sVCharacterOffsetEnd
p422
V101
p423
sVCharacterOffsetBegin
p424
V96
p425
sVPartOfSpeech
p426
VNNS
p427
sVLemma
p428
Vtree
p429
saa(lp430
V,
p431
a(dp432
VNamedEntityTag
p433
g85
sVCharacterOffsetEnd
p434
V103
p435
sVCharacterOffsetBegin
p436
V102
p437
sVPartOfSpeech
p438
g431
sVLemma
p439
g431
saa(lp440
V0.1
p441
a(dp442
VNormalizedNamedEntityTag
p443
V0.1
p444
sVLemma
p445
V0.1
p446
sVCharacterOffsetEnd
p447
V107
p448
sVPartOfSpeech
p449
VCD
p450
sVCharacterOffsetBegin
p451
V104
p452
sVNamedEntityTag
p453
VNUMBER
p454
saa(lp455
Vtimes
p456
a(dp457
VNamedEntityTag
p458
g85
sVCharacterOffsetEnd
p459
V113
p460
sVCharacterOffsetBegin
p461
V108
p462
sVPartOfSpeech
p463
VNNS
p464
sVLemma
p465
Vtime
p466
saa(lp467
Vhad
p468
a(dp469
VNamedEntityTag
p470
g85
sVCharacterOffsetEnd
p471
V117
p472
sVCharacterOffsetBegin
p473
V114
p474
sVPartOfSpeech
p475
VVBD
p476
sVLemma
p477
Vhave
p478
saa(lp479
Vthe
p480
a(dp481
VNamedEntityTag
p482
g85
sVCharacterOffsetEnd
p483
V121
p484
sVCharacterOffsetBegin
p485
V118
p486
sVPartOfSpeech
p487
VDT
p488
sVLemma
p489
Vthe
p490
saa(lp491
Vvirus
p492
a(dp493
VNamedEntityTag
p494
g85
sVCharacterOffsetEnd
p495
V127
p496
sVCharacterOffsetBegin
p497
V122
p498
sVPartOfSpeech
p499
VNN
p500
sVLemma
p501
Vvirus
p502
saa(lp503
g271
a(dp504
VNamedEntityTag
p505
g85
sVCharacterOffsetEnd
p506
V129
p507
sVCharacterOffsetBegin
p508
V128
p509
sVPartOfSpeech
p510
g271
sVLemma
p511
g271
saasVindexeddependencies
p512
(lp513
(lp514
Vroot
p515
aVROOT-0
p516
aVhad-8
p517
aa(lp518
Vprepc_out_of
p519
aVhad-8
p520
aVof-2
p521
aa(lp522
Vnum
p523
aVtrees-4
p524
aV70-3
p525
aa(lp526
Vpobj
p527
aVhad-8
p528
aVtrees-4
p529
aa(lp530
Vnum
p531
aVtimes-7
p532
aV0.1-6
p533
aa(lp534
Vnsubj
p535
aVhad-8
p536
aVtimes-7
p537
aa(lp538
Vdet
p539
aVvirus-10
p540
aVthe-9
p541
aa(lp542
Vdobj
p543
aVhad-8
p544
aVvirus-10
p545
aasa(dp546
Vparsetree
p547
V(ROOT (SBARQ (WHNP (WHADJP (WRB How) (JJ many)) (NNS trees)) (SQ (VBD were) (VP (VBN infected) (PP (IN with) (NP (DT the) (NN virus))))) (. ?)))
p548
sVtext
p549
VHow many trees were infected with the virus ?
p550
sVdependencies
p551
(lp552
(lp553
Vroot
p554
aVROOT
p555
aVinfected
p556
aa(lp557
Vadvmod
p558
aVmany
p559
aVHow
p560
aa(lp561
Vamod
p562
aVtrees
p563
aVmany
p564
aa(lp565
Vnsubjpass
p566
aVinfected
p567
aVtrees
p568
aa(lp569
Vauxpass
p570
aVinfected
p571
aVwere
p572
aa(lp573
Vdet
p574
aVvirus
p575
aVthe
p576
aa(lp577
Vprep_with
p578
aVinfected
p579
aVvirus
p580
aasVwords
p581
(lp582
(lp583
VHow
p584
a(dp585
VNamedEntityTag
p586
g85
sVCharacterOffsetEnd
p587
V133
p588
sVCharacterOffsetBegin
p589
V130
p590
sVPartOfSpeech
p591
VWRB
p592
sVLemma
p593
Vhow
p594
saa(lp595
Vmany
p596
a(dp597
VNamedEntityTag
p598
g85
sVCharacterOffsetEnd
p599
V138
p600
sVCharacterOffsetBegin
p601
V134
p602
sVPartOfSpeech
p603
VJJ
p604
sVLemma
p605
Vmany
p606
saa(lp607
Vtrees
p608
a(dp609
VNamedEntityTag
p610
g85
sVCharacterOffsetEnd
p611
V144
p612
sVCharacterOffsetBegin
p613
V139
p614
sVPartOfSpeech
p615
VNNS
p616
sVLemma
p617
Vtree
p618
saa(lp619
Vwere
p620
a(dp621
VNamedEntityTag
p622
g85
sVCharacterOffsetEnd
p623
V149
p624
sVCharacterOffsetBegin
p625
V145
p626
sVPartOfSpeech
p627
VVBD
p628
sVLemma
p629
Vbe
p630
saa(lp631
Vinfected
p632
a(dp633
VNamedEntityTag
p634
g85
sVCharacterOffsetEnd
p635
V158
p636
sVCharacterOffsetBegin
p637
V150
p638
sVPartOfSpeech
p639
VVBN
p640
sVLemma
p641
Vinfect
p642
saa(lp643
Vwith
p644
a(dp645
VNamedEntityTag
p646
g85
sVCharacterOffsetEnd
p647
V163
p648
sVCharacterOffsetBegin
p649
V159
p650
sVPartOfSpeech
p651
VIN
p652
sVLemma
p653
Vwith
p654
saa(lp655
Vthe
p656
a(dp657
VNamedEntityTag
p658
g85
sVCharacterOffsetEnd
p659
V167
p660
sVCharacterOffsetBegin
p661
V164
p662
sVPartOfSpeech
p663
VDT
p664
sVLemma
p665
Vthe
p666
saa(lp667
Vvirus
p668
a(dp669
VNamedEntityTag
p670
g85
sVCharacterOffsetEnd
p671
V173
p672
sVCharacterOffsetBegin
p673
V168
p674
sVPartOfSpeech
p675
VNN
p676
sVLemma
p677
Vvirus
p678
saa(lp679
V?
p680
a(dp681
VNamedEntityTag
p682
g85
sVCharacterOffsetEnd
p683
V175
p684
sVCharacterOffsetBegin
p685
V174
p686
sVPartOfSpeech
p687
g271
sVLemma
p688
g680
saasVindexeddependencies
p689
(lp690
(lp691
Vroot
p692
aVROOT-0
p693
aVinfected-5
p694
aa(lp695
Vadvmod
p696
aVmany-2
p697
aVHow-1
p698
aa(lp699
Vamod
p700
aVtrees-3
p701
aVmany-2
p702
aa(lp703
Vnsubjpass
p704
aVinfected-5
p705
aVtrees-3
p706
aa(lp707
Vauxpass
p708
aVinfected-5
p709
aVwere-4
p710
aa(lp711
Vdet
p712
aVvirus-8
p713
aVthe-7
p714
aa(lp715
Vprep_with
p716
aVinfected-5
p717
aVvirus-8
p718
aasas.