(dp0
Vcoref
p1
(lp2
(lp3
(lp4
(lp5
Vhe
p6
aI1
aI1
aI1
aI2
aa(lp7
VTom
p8
aI0
aI0
aI0
aI1
aaa(lp9
(lp10
Vhe
p11
aI1
aI17
aI17
aI18
aa(lp12
VTom
p13
aI0
aI0
aI0
aI1
aaaasVsentences
p14
(lp15
(dp16
Vparsetree
p17
V(ROOT (S (NP (NNP Tom)) (VP (VBD had) (S (VP (TO to) (VP (VB wash) (NP (CD 10) (JJ short) (NN sleeve) (NNS shirts) (CC and) (CD 25) (JJ long) (NN sleeve) (NNS shirts)) (PP (IN before) (NP (NN school))))))) (. .)))
p18
sVtext
p19
VTom had to wash 10 short sleeve shirts and 25 long sleeve shirts before school .
p20
sVdependencies
p21
(lp22
(lp23
Vroot
p24
aVROOT
p25
aVhad
p26
aa(lp27
Vnsubj
p28
aVhad
p29
aVTom
p30
aa(lp31
Vaux
p32
aVwash
p33
aVto
p34
aa(lp35
Vxcomp
p36
aVhad
p37
aVwash
p38
aa(lp39
Vnum
p40
aVshirts
p41
aV10
p42
aa(lp43
Vamod
p44
aVshirts
p45
aVshort
p46
aa(lp47
Vnn
p48
aVshirts
p49
aVsleeve
p50
aa(lp51
Vdobj
p52
aVwash
p53
aVshirts
p54
aa(lp55
Vnum
p56
aVshirts
p57
aV25
p58
aa(lp59
Vamod
p60
aVshirts
p61
aVlong
p62
aa(lp63
Vnn
p64
aVshirts
p65
aVsleeve
p66
aa(lp67
Vconj_and
p68
aVshirts
p69
aVshirts
p70
aa(lp71
Vprep_before
p72
aVwash
p73
aVschool
p74
aasVwords
p75
(lp76
(lp77
VTom
p78
a(dp79
VNamedEntityTag
p80
VPERSON
p81
sVCharacterOffsetEnd
p82
V4
p83
sVCharacterOffsetBegin
p84
V1
p85
sVPartOfSpeech
p86
VNNP
p87
sVLemma
p88
VTom
p89
saa(lp90
Vhad
p91
a(dp92
VNamedEntityTag
p93
VO
p94
sVCharacterOffsetEnd
p95
V8
p96
sVCharacterOffsetBegin
p97
V5
p98
sVPartOfSpeech
p99
VVBD
p100
sVLemma
p101
Vhave
p102
saa(lp103
Vto
p104
a(dp105
VNamedEntityTag
p106
g94
sVCharacterOffsetEnd
p107
V11
p108
sVCharacterOffsetBegin
p109
V9
p110
sVPartOfSpeech
p111
VTO
p112
sVLemma
p113
Vto
p114
saa(lp115
Vwash
p116
a(dp117
VNamedEntityTag
p118
g94
sVCharacterOffsetEnd
p119
V16
p120
sVCharacterOffsetBegin
p121
V12
p122
sVPartOfSpeech
p123
VVB
p124
sVLemma
p125
Vwash
p126
saa(lp127
V10
p128
a(dp129
VNormalizedNamedEntityTag
p130
V10.0
p131
sVLemma
p132
V10
p133
sVCharacterOffsetEnd
p134
V19
p135
sVPartOfSpeech
p136
VCD
p137
sVCharacterOffsetBegin
p138
V17
p139
sVNamedEntityTag
p140
VNUMBER
p141
saa(lp142
Vshort
p143
a(dp144
VNamedEntityTag
p145
g94
sVCharacterOffsetEnd
p146
V25
p147
sVCharacterOffsetBegin
p148
V20
p149
sVPartOfSpeech
p150
VJJ
p151
sVLemma
p152
Vshort
p153
saa(lp154
Vsleeve
p155
a(dp156
VNamedEntityTag
p157
g94
sVCharacterOffsetEnd
p158
V32
p159
sVCharacterOffsetBegin
p160
V26
p161
sVPartOfSpeech
p162
VNN
p163
sVLemma
p164
Vsleeve
p165
saa(lp166
Vshirts
p167
a(dp168
VNamedEntityTag
p169
g94
sVCharacterOffsetEnd
p170
V39
p171
sVCharacterOffsetBegin
p172
V33
p173
sVPartOfSpeech
p174
VNNS
p175
sVLemma
p176
Vshirt
p177
saa(lp178
Vand
p179
a(dp180
VNamedEntityTag
p181
g94
sVCharacterOffsetEnd
p182
V43
p183
sVCharacterOffsetBegin
p184
V40
p185
sVPartOfSpeech
p186
VCC
p187
sVLemma
p188
Vand
p189
saa(lp190
V25
p191
a(dp192
VNormalizedNamedEntityTag
p193
V25.0
p194
sVLemma
p195
V25
p196
sVCharacterOffsetEnd
p197
V46
p198
sVPartOfSpeech
p199
VCD
p200
sVCharacterOffsetBegin
p201
V44
p202
sVNamedEntityTag
p203
VNUMBER
p204
saa(lp205
Vlong
p206
a(dp207
VNamedEntityTag
p208
g94
sVCharacterOffsetEnd
p209
V51
p210
sVCharacterOffsetBegin
p211
V47
p212
sVPartOfSpeech
p213
VJJ
p214
sVLemma
p215
Vlong
p216
saa(lp217
Vsleeve
p218
a(dp219
VNamedEntityTag
p220
g94
sVCharacterOffsetEnd
p221
V58
p222
sVCharacterOffsetBegin
p223
V52
p224
sVPartOfSpeech
p225
VNN
p226
sVLemma
p227
Vsleeve
p228
saa(lp229
Vshirts
p230
a(dp231
VNamedEntityTag
p232
g94
sVCharacterOffsetEnd
p233
V65
p234
sVCharacterOffsetBegin
p235
V59
p236
sVPartOfSpeech
p237
VNNS
p238
sVLemma
p239
Vshirt
p240
saa(lp241
Vbefore
p242
a(dp243
VNamedEntityTag
p244
g94
sVCharacterOffsetEnd
p245
V72
p246
sVCharacterOffsetBegin
p247
V66
p248
sVPartOfSpeech
p249
VIN
p250
sVLemma
p251
Vbefore
p252
saa(lp253
Vschool
p254
a(dp255
VNamedEntityTag
p256
g94
sVCharacterOffsetEnd
p257
V79
p258
sVCharacterOffsetBegin
p259
V73
p260
sVPartOfSpeech
p261
VNN
p262
sVLemma
p263
Vschool
p264
saa(lp265
V.
p266
a(dp267
VNamedEntityTag
p268
g94
sVCharacterOffsetEnd
p269
V81
p270
sVCharacterOffsetBegin
p271
V80
p272
sVPartOfSpeech
p273
g266
sVLemma
p274
g266
saasVindexeddependencies
p275
(lp276
(lp277
Vroot
p278
aVROOT-0
p279
aVhad-2
p280
aa(lp281
Vnsubj
p282
aVhad-2
p283
aVTom-1
p284
aa(lp285
Vaux
p286
aVwash-4
p287
aVto-3
p288
aa(lp289
Vxcomp
p290
aVhad-2
p291
aVwash-4
p292
aa(lp293
Vnum
p294
aVshirts-8
p295
aV10-5
p296
aa(lp297
Vamod
p298
aVshirts-8
p299
aVshort-6
p300
aa(lp301
Vnn
p302
aVshirts-8
p303
aVsleeve-7
p304
aa(lp305
Vdobj
p306
aVwash-4
p307
aVshirts-8
p308
aa(lp309
Vnum
p310
aVshirts-13
p311
aV25-10
p312
aa(lp313
Vamod
p314
aVshirts-13
p315
aVlong-11
p316
aa(lp317
Vnn
p318
aVshirts-13
p319
aVsleeve-12
p320
aa(lp321
Vconj_and
p322
aVshirts-8
p323
aVshirts-13
p324
aa(lp325
Vprep_before
p326
aVwash-4
p327
aVschool-15
p328
aasa(dp329
Vparsetree
p330
V(ROOT (SBARQ (SBAR (IN If) (S (NP (PRP he)) (VP (VBD had) (ADVP (RB only)) (VP (VBN washed) (NP (NP (CD 5)) (PP (IN of) (NP (PRP them)))) (PP (IN by) (NP (NP (DT the) (NN time) (NN school)) (VP (VBD started)))))))) (, ,) (WHNP (WRB how) (JJ many)) (SQ (VBD did) (NP (PRP he)) (VP (RB not) (VB wash))) (. ?)))
p331
sVtext
p332
VIf he had only washed 5 of them by the time school started , how many did he not wash ?
p333
sVdependencies
p334
(lp335
(lp336
Vroot
p337
aVROOT
p338
aVwash
p339
aa(lp340
Vmark
p341
aVwashed
p342
aVIf
p343
aa(lp344
Vnsubj
p345
aVwashed
p346
aVhe
p347
aa(lp348
Vaux
p349
aVwashed
p350
aVhad
p351
aa(lp352
Vadvmod
p353
aVwashed
p354
aVonly
p355
aa(lp356
Vadvcl
p357
aVwash
p358
aVwashed
p359
aa(lp360
Vdobj
p361
aVwashed
p362
ag98
aa(lp363
Vprep_of
p364
ag98
aVthem
p365
aa(lp366
Vdet
p367
aVschool
p368
aVthe
p369
aa(lp370
Vnn
p371
aVschool
p372
aVtime
p373
aa(lp374
Vprep_by
p375
aVwashed
p376
aVschool
p377
aa(lp378
Vvmod
p379
aVschool
p380
aVstarted
p381
aa(lp382
Vadvmod
p383
aVmany
p384
aVhow
p385
aa(lp386
Vdep
p387
aVwash
p388
aVmany
p389
aa(lp390
Vaux
p391
aVwash
p392
aVdid
p393
aa(lp394
Vnsubj
p395
aVwash
p396
aVhe
p397
aa(lp398
Vneg
p399
aVwash
p400
aVnot
p401
aasVwords
p402
(lp403
(lp404
VIf
p405
a(dp406
VNamedEntityTag
p407
g94
sVCharacterOffsetEnd
p408
V84
p409
sVCharacterOffsetBegin
p410
V82
p411
sVPartOfSpeech
p412
VIN
p413
sVLemma
p414
Vif
p415
saa(lp416
Vhe
p417
a(dp418
VNamedEntityTag
p419
g94
sVCharacterOffsetEnd
p420
V87
p421
sVCharacterOffsetBegin
p422
V85
p423
sVPartOfSpeech
p424
VPRP
p425
sVLemma
p426
Vhe
p427
saa(lp428
Vhad
p429
a(dp430
VNamedEntityTag
p431
g94
sVCharacterOffsetEnd
p432
V91
p433
sVCharacterOffsetBegin
p434
V88
p435
sVPartOfSpeech
p436
VVBD
p437
sVLemma
p438
Vhave
p439
saa(lp440
Vonly
p441
a(dp442
VNamedEntityTag
p443
g94
sVCharacterOffsetEnd
p444
V96
p445
sVCharacterOffsetBegin
p446
V92
p447
sVPartOfSpeech
p448
VRB
p449
sVLemma
p450
Vonly
p451
saa(lp452
Vwashed
p453
a(dp454
VNamedEntityTag
p455
g94
sVCharacterOffsetEnd
p456
V103
p457
sVCharacterOffsetBegin
p458
V97
p459
sVPartOfSpeech
p460
VVBN
p461
sVLemma
p462
Vwash
p463
saa(lp464
g98
a(dp465
VNormalizedNamedEntityTag
p466
V5.0
p467
sVLemma
p468
g98
sVCharacterOffsetEnd
p469
V105
p470
sVPartOfSpeech
p471
VCD
p472
sVCharacterOffsetBegin
p473
V104
p474
sVNamedEntityTag
p475
VNUMBER
p476
saa(lp477
Vof
p478
a(dp479
VNamedEntityTag
p480
g94
sVCharacterOffsetEnd
p481
V108
p482
sVCharacterOffsetBegin
p483
V106
p484
sVPartOfSpeech
p485
VIN
p486
sVLemma
p487
Vof
p488
saa(lp489
Vthem
p490
a(dp491
VNamedEntityTag
p492
g94
sVCharacterOffsetEnd
p493
V113
p494
sVCharacterOffsetBegin
p495
V109
p496
sVPartOfSpeech
p497
VPRP
p498
sVLemma
p499
Vthey
p500
saa(lp501
Vby
p502
a(dp503
VNamedEntityTag
p504
g94
sVCharacterOffsetEnd
p505
V116
p506
sVCharacterOffsetBegin
p507
V114
p508
sVPartOfSpeech
p509
VIN
p510
sVLemma
p511
Vby
p512
saa(lp513
Vthe
p514
a(dp515
VNamedEntityTag
p516
g94
sVCharacterOffsetEnd
p517
V120
p518
sVCharacterOffsetBegin
p519
V117
p520
sVPartOfSpeech
p521
VDT
p522
sVLemma
p523
Vthe
p524
saa(lp525
Vtime
p526
a(dp527
VNamedEntityTag
p528
g94
sVCharacterOffsetEnd
p529
V125
p530
sVCharacterOffsetBegin
p531
V121
p532
sVPartOfSpeech
p533
VNN
p534
sVLemma
p535
Vtime
p536
saa(lp537
Vschool
p538
a(dp539
VNamedEntityTag
p540
g94
sVCharacterOffsetEnd
p541
V132
p542
sVCharacterOffsetBegin
p543
V126
p544
sVPartOfSpeech
p545
VNN
p546
sVLemma
p547
Vschool
p548
saa(lp549
Vstarted
p550
a(dp551
VNamedEntityTag
p552
g94
sVCharacterOffsetEnd
p553
V140
p554
sVCharacterOffsetBegin
p555
V133
p556
sVPartOfSpeech
p557
VVBD
p558
sVLemma
p559
Vstart
p560
saa(lp561
V,
p562
a(dp563
VNamedEntityTag
p564
g94
sVCharacterOffsetEnd
p565
V142
p566
sVCharacterOffsetBegin
p567
V141
p568
sVPartOfSpeech
p569
g562
sVLemma
p570
g562
saa(lp571
Vhow
p572
a(dp573
VNamedEntityTag
p574
g94
sVCharacterOffsetEnd
p575
V146
p576
sVCharacterOffsetBegin
p577
V143
p578
sVPartOfSpeech
p579
VWRB
p580
sVLemma
p581
Vhow
p582
saa(lp583
Vmany
p584
a(dp585
VNamedEntityTag
p586
g94
sVCharacterOffsetEnd
p587
V151
p588
sVCharacterOffsetBegin
p589
V147
p590
sVPartOfSpeech
p591
VJJ
p592
sVLemma
p593
Vmany
p594
saa(lp595
Vdid
p596
a(dp597
VNamedEntityTag
p598
g94
sVCharacterOffsetEnd
p599
V155
p600
sVCharacterOffsetBegin
p601
V152
p602
sVPartOfSpeech
p603
VVBD
p604
sVLemma
p605
Vdo
p606
saa(lp607
Vhe
p608
a(dp609
VNamedEntityTag
p610
g94
sVCharacterOffsetEnd
p611
V158
p612
sVCharacterOffsetBegin
p613
V156
p614
sVPartOfSpeech
p615
VPRP
p616
sVLemma
p617
Vhe
p618
saa(lp619
Vnot
p620
a(dp621
VNamedEntityTag
p622
g94
sVCharacterOffsetEnd
p623
V162
p624
sVCharacterOffsetBegin
p625
V159
p626
sVPartOfSpeech
p627
VRB
p628
sVLemma
p629
Vnot
p630
saa(lp631
Vwash
p632
a(dp633
VNamedEntityTag
p634
g94
sVCharacterOffsetEnd
p635
V167
p636
sVCharacterOffsetBegin
p637
V163
p638
sVPartOfSpeech
p639
VVB
p640
sVLemma
p641
Vwash
p642
saa(lp643
V?
p644
a(dp645
VNamedEntityTag
p646
g94
sVCharacterOffsetEnd
p647
V169
p648
sVCharacterOffsetBegin
p649
V168
p650
sVPartOfSpeech
p651
g266
sVLemma
p652
g644
saasVindexeddependencies
p653
(lp654
(lp655
Vroot
p656
aVROOT-0
p657
aVwash-20
p658
aa(lp659
Vmark
p660
aVwashed-5
p661
aVIf-1
p662
aa(lp663
Vnsubj
p664
aVwashed-5
p665
aVhe-2
p666
aa(lp667
Vaux
p668
aVwashed-5
p669
aVhad-3
p670
aa(lp671
Vadvmod
p672
aVwashed-5
p673
aVonly-4
p674
aa(lp675
Vadvcl
p676
aVwash-20
p677
aVwashed-5
p678
aa(lp679
Vdobj
p680
aVwashed-5
p681
aV5-6
p682
aa(lp683
Vprep_of
p684
aV5-6
p685
aVthem-8
p686
aa(lp687
Vdet
p688
aVschool-12
p689
aVthe-10
p690
aa(lp691
Vnn
p692
aVschool-12
p693
aVtime-11
p694
aa(lp695
Vprep_by
p696
aVwashed-5
p697
aVschool-12
p698
aa(lp699
Vvmod
p700
aVschool-12
p701
aVstarted-13
p702
aa(lp703
Vadvmod
p704
aVmany-16
p705
aVhow-15
p706
aa(lp707
Vdep
p708
aVwash-20
p709
aVmany-16
p710
aa(lp711
Vaux
p712
aVwash-20
p713
aVdid-17
p714
aa(lp715
Vnsubj
p716
aVwash-20
p717
aVhe-18
p718
aa(lp719
Vneg
p720
aVwash-20
p721
aVnot-19
p722
aasas.