(dp0
Vcoref
p1
(lp2
(lp3
(lp4
(lp5
VGwen
p6
aI2
aI5
aI5
aI6
aa(lp7
VGwen
p8
aI0
aI5
aI5
aI6
aaaa(lp9
(lp10
(lp11
VThe bag
p12
aI1
aI1
aI0
aI2
aa(lp13
Va bag of mixed buttons
p14
aI0
aI8
aI7
aI12
aaaasVsentences
p15
(lp16
(dp17
Vparsetree
p18
V(ROOT (S (PP (IN At) (NP (DT the) (JJ sewing) (NN store))) (, ,) (NP (NNP Gwen)) (VP (VBD bought) (NP (NP (DT a) (NN bag)) (PP (IN of) (NP (JJ mixed) (NNS buttons))))) (. .)))
p19
sVtext
p20
VAt the sewing store , Gwen bought a bag of mixed buttons .
p21
sVdependencies
p22
(lp23
(lp24
Vroot
p25
aVROOT
p26
aVbought
p27
aa(lp28
Vdet
p29
aVstore
p30
aVthe
p31
aa(lp32
Vamod
p33
aVstore
p34
aVsewing
p35
aa(lp36
Vprep_at
p37
aVbought
p38
aVstore
p39
aa(lp40
Vnsubj
p41
aVbought
p42
aVGwen
p43
aa(lp44
Vdet
p45
aVbag
p46
aVa
p47
aa(lp48
Vdobj
p49
aVbought
p50
aVbag
p51
aa(lp52
Vamod
p53
aVbuttons
p54
aVmixed
p55
aa(lp56
Vprep_of
p57
aVbag
p58
aVbuttons
p59
aasVwords
p60
(lp61
(lp62
VAt
p63
a(dp64
VNamedEntityTag
p65
VO
p66
sVCharacterOffsetEnd
p67
V3
p68
sVCharacterOffsetBegin
p69
V1
p70
sVPartOfSpeech
p71
VIN
p72
sVLemma
p73
Vat
p74
saa(lp75
Vthe
p76
a(dp77
VNamedEntityTag
p78
g66
sVCharacterOffsetEnd
p79
V7
p80
sVCharacterOffsetBegin
p81
V4
p82
sVPartOfSpeech
p83
VDT
p84
sVLemma
p85
Vthe
p86
saa(lp87
Vsewing
p88
a(dp89
VNamedEntityTag
p90
g66
sVCharacterOffsetEnd
p91
V14
p92
sVCharacterOffsetBegin
p93
V8
p94
sVPartOfSpeech
p95
VJJ
p96
sVLemma
p97
Vsewing
p98
saa(lp99
Vstore
p100
a(dp101
VNamedEntityTag
p102
g66
sVCharacterOffsetEnd
p103
V20
p104
sVCharacterOffsetBegin
p105
V15
p106
sVPartOfSpeech
p107
VNN
p108
sVLemma
p109
Vstore
p110
saa(lp111
V,
p112
a(dp113
VNamedEntityTag
p114
g66
sVCharacterOffsetEnd
p115
V22
p116
sVCharacterOffsetBegin
p117
V21
p118
sVPartOfSpeech
p119
g112
sVLemma
p120
g112
saa(lp121
VGwen
p122
a(dp123
VNamedEntityTag
p124
VPERSON
p125
sVCharacterOffsetEnd
p126
V27
p127
sVCharacterOffsetBegin
p128
V23
p129
sVPartOfSpeech
p130
VNNP
p131
sVLemma
p132
VGwen
p133
saa(lp134
Vbought
p135
a(dp136
VNamedEntityTag
p137
g66
sVCharacterOffsetEnd
p138
V34
p139
sVCharacterOffsetBegin
p140
V28
p141
sVPartOfSpeech
p142
VVBD
p143
sVLemma
p144
Vbuy
p145
saa(lp146
g47
a(dp147
VNamedEntityTag
p148
g66
sVCharacterOffsetEnd
p149
V36
p150
sVCharacterOffsetBegin
p151
V35
p152
sVPartOfSpeech
p153
VDT
p154
sVLemma
p155
g47
saa(lp156
Vbag
p157
a(dp158
VNamedEntityTag
p159
g66
sVCharacterOffsetEnd
p160
V40
p161
sVCharacterOffsetBegin
p162
V37
p163
sVPartOfSpeech
p164
VNN
p165
sVLemma
p166
Vbag
p167
saa(lp168
Vof
p169
a(dp170
VNamedEntityTag
p171
g66
sVCharacterOffsetEnd
p172
V43
p173
sVCharacterOffsetBegin
p174
V41
p175
sVPartOfSpeech
p176
VIN
p177
sVLemma
p178
Vof
p179
saa(lp180
Vmixed
p181
a(dp182
VNamedEntityTag
p183
g66
sVCharacterOffsetEnd
p184
V49
p185
sVCharacterOffsetBegin
p186
V44
p187
sVPartOfSpeech
p188
VJJ
p189
sVLemma
p190
Vmixed
p191
saa(lp192
Vbuttons
p193
a(dp194
VNamedEntityTag
p195
g66
sVCharacterOffsetEnd
p196
V57
p197
sVCharacterOffsetBegin
p198
V50
p199
sVPartOfSpeech
p200
VNNS
p201
sVLemma
p202
Vbutton
p203
saa(lp204
V.
p205
a(dp206
VNamedEntityTag
p207
g66
sVCharacterOffsetEnd
p208
V59
p209
sVCharacterOffsetBegin
p210
V58
p211
sVPartOfSpeech
p212
g205
sVLemma
p213
g205
saasVindexeddependencies
p214
(lp215
(lp216
Vroot
p217
aVROOT-0
p218
aVbought-7
p219
aa(lp220
Vdet
p221
aVstore-4
p222
aVthe-2
p223
aa(lp224
Vamod
p225
aVstore-4
p226
aVsewing-3
p227
aa(lp228
Vprep_at
p229
aVbought-7
p230
aVstore-4
p231
aa(lp232
Vnsubj
p233
aVbought-7
p234
aVGwen-6
p235
aa(lp236
Vdet
p237
aVbag-9
p238
aVa-8
p239
aa(lp240
Vdobj
p241
aVbought-7
p242
aVbag-9
p243
aa(lp244
Vamod
p245
aVbuttons-12
p246
aVmixed-11
p247
aa(lp248
Vprep_of
p249
aVbag-9
p250
aVbuttons-12
p251
aasa(dp252
Vparsetree
p253
V(ROOT (S (NP (DT The) (NN bag)) (VP (VBD included) (NP (NP (CD 35) (NNS buttons)) (, ,) (SBAR (WHPP (IN of) (WHNP (WDT which))) (S (NP (CD 0.6) (NNS times)) (VP (VBD were) (ADJP (JJ large))))))) (. .)))
p254
sVtext
p255
VThe bag included 35 buttons , of which 0.6 times were large .
p256
sVdependencies
p257
(lp258
(lp259
Vroot
p260
aVROOT
p261
aVincluded
p262
aa(lp263
Vdet
p264
aVbag
p265
aVThe
p266
aa(lp267
Vnsubj
p268
aVincluded
p269
aVbag
p270
aa(lp271
Vnum
p272
aVbuttons
p273
aV35
p274
aa(lp275
Vdobj
p276
aVincluded
p277
aVbuttons
p278
aa(lp279
Vprep_of
p280
aVlarge
p281
aVwhich
p282
aa(lp283
Vnum
p284
aVtimes
p285
aV0.6
p286
aa(lp287
Vnsubj
p288
aVlarge
p289
aVtimes
p290
aa(lp291
Vcop
p292
aVlarge
p293
aVwere
p294
aa(lp295
Vrcmod
p296
aVbuttons
p297
aVlarge
p298
aasVwords
p299
(lp300
(lp301
VThe
p302
a(dp303
VNamedEntityTag
p304
g66
sVCharacterOffsetEnd
p305
V63
p306
sVCharacterOffsetBegin
p307
V60
p308
sVPartOfSpeech
p309
VDT
p310
sVLemma
p311
Vthe
p312
saa(lp313
Vbag
p314
a(dp315
VNamedEntityTag
p316
g66
sVCharacterOffsetEnd
p317
V67
p318
sVCharacterOffsetBegin
p319
V64
p320
sVPartOfSpeech
p321
VNN
p322
sVLemma
p323
Vbag
p324
saa(lp325
Vincluded
p326
a(dp327
VNamedEntityTag
p328
g66
sVCharacterOffsetEnd
p329
V76
p330
sVCharacterOffsetBegin
p331
V68
p332
sVPartOfSpeech
p333
VVBD
p334
sVLemma
p335
Vinclude
p336
saa(lp337
V35
p338
a(dp339
VNormalizedNamedEntityTag
p340
V35.0
p341
sVLemma
p342
V35
p343
sVCharacterOffsetEnd
p344
V79
p345
sVPartOfSpeech
p346
VCD
p347
sVCharacterOffsetBegin
p348
V77
p349
sVNamedEntityTag
p350
VNUMBER
p351
saa(lp352
Vbuttons
p353
a(dp354
VNamedEntityTag
p355
g66
sVCharacterOffsetEnd
p356
V87
p357
sVCharacterOffsetBegin
p358
V80
p359
sVPartOfSpeech
p360
VNNS
p361
sVLemma
p362
Vbutton
p363
saa(lp364
g112
a(dp365
VNamedEntityTag
p366
g66
sVCharacterOffsetEnd
p367
V89
p368
sVCharacterOffsetBegin
p369
V88
p370
sVPartOfSpeech
p371
g112
sVLemma
p372
g112
saa(lp373
Vof
p374
a(dp375
VNamedEntityTag
p376
g66
sVCharacterOffsetEnd
p377
V92
p378
sVCharacterOffsetBegin
p379
V90
p380
sVPartOfSpeech
p381
VIN
p382
sVLemma
p383
Vof
p384
saa(lp385
Vwhich
p386
a(dp387
VNamedEntityTag
p388
g66
sVCharacterOffsetEnd
p389
V98
p390
sVCharacterOffsetBegin
p391
V93
p392
sVPartOfSpeech
p393
VWDT
p394
sVLemma
p395
Vwhich
p396
saa(lp397
V0.6
p398
a(dp399
VNormalizedNamedEntityTag
p400
V0.6
p401
sVLemma
p402
V0.6
p403
sVCharacterOffsetEnd
p404
V102
p405
sVPartOfSpeech
p406
VCD
p407
sVCharacterOffsetBegin
p408
V99
p409
sVNamedEntityTag
p410
VNUMBER
p411
saa(lp412
Vtimes
p413
a(dp414
VNamedEntityTag
p415
g66
sVCharacterOffsetEnd
p416
V108
p417
sVCharacterOffsetBegin
p418
V103
p419
sVPartOfSpeech
p420
VNNS
p421
sVLemma
p422
Vtime
p423
saa(lp424
Vwere
p425
a(dp426
VNamedEntityTag
p427
g66
sVCharacterOffsetEnd
p428
V113
p429
sVCharacterOffsetBegin
p430
V109
p431
sVPartOfSpeech
p432
VVBD
p433
sVLemma
p434
Vbe
p435
saa(lp436
Vlarge
p437
a(dp438
VNamedEntityTag
p439
g66
sVCharacterOffsetEnd
p440
V119
p441
sVCharacterOffsetBegin
p442
V114
p443
sVPartOfSpeech
p444
VJJ
p445
sVLemma
p446
Vlarge
p447
saa(lp448
g205
a(dp449
VNamedEntityTag
p450
g66
sVCharacterOffsetEnd
p451
V121
p452
sVCharacterOffsetBegin
p453
V120
p454
sVPartOfSpeech
p455
g205
sVLemma
p456
g205
saasVindexeddependencies
p457
(lp458
(lp459
Vroot
p460
aVROOT-0
p461
aVincluded-3
p462
aa(lp463
Vdet
p464
aVbag-2
p465
aVThe-1
p466
aa(lp467
Vnsubj
p468
aVincluded-3
p469
aVbag-2
p470
aa(lp471
Vnum
p472
aVbuttons-5
p473
aV35-4
p474
aa(lp475
Vdobj
p476
aVincluded-3
p477
aVbuttons-5
p478
aa(lp479
Vprep_of
p480
aVlarge-12
p481
aVwhich-8
p482
aa(lp483
Vnum
p484
aVtimes-10
p485
aV0.6-9
p486
aa(lp487
Vnsubj
p488
aVlarge-12
p489
aVtimes-10
p490
aa(lp491
Vcop
p492
aVlarge-12
p493
aVwere-11
p494
aa(lp495
Vrcmod
p496
aVbuttons-5
p497
aVlarge-12
p498
aasa(dp499
Vparsetree
p500
V(ROOT (SBARQ (WHNP (WHADJP (WRB How) (JJ many)) (JJ large) (NNS buttons)) (SQ (VBD did) (NP (NNP Gwen)) (VP (VB get))) (. ?)))
p501
sVtext
p502
VHow many large buttons did Gwen get ?
p503
sVdependencies
p504
(lp505
(lp506
Vroot
p507
aVROOT
p508
aVget
p509
aa(lp510
Vadvmod
p511
aVmany
p512
aVHow
p513
aa(lp514
Vamod
p515
aVbuttons
p516
aVmany
p517
aa(lp518
Vamod
p519
aVbuttons
p520
aVlarge
p521
aa(lp522
Vdobj
p523
aVget
p524
aVbuttons
p525
aa(lp526
Vaux
p527
aVget
p528
aVdid
p529
aa(lp530
Vnsubj
p531
aVget
p532
aVGwen
p533
aasVwords
p534
(lp535
(lp536
VHow
p537
a(dp538
VNamedEntityTag
p539
g66
sVCharacterOffsetEnd
p540
V125
p541
sVCharacterOffsetBegin
p542
V122
p543
sVPartOfSpeech
p544
VWRB
p545
sVLemma
p546
Vhow
p547
saa(lp548
Vmany
p549
a(dp550
VNamedEntityTag
p551
g66
sVCharacterOffsetEnd
p552
V130
p553
sVCharacterOffsetBegin
p554
V126
p555
sVPartOfSpeech
p556
VJJ
p557
sVLemma
p558
Vmany
p559
saa(lp560
Vlarge
p561
a(dp562
VNamedEntityTag
p563
g66
sVCharacterOffsetEnd
p564
V136
p565
sVCharacterOffsetBegin
p566
V131
p567
sVPartOfSpeech
p568
VJJ
p569
sVLemma
p570
Vlarge
p571
saa(lp572
Vbuttons
p573
a(dp574
VNamedEntityTag
p575
g66
sVCharacterOffsetEnd
p576
V144
p577
sVCharacterOffsetBegin
p578
V137
p579
sVPartOfSpeech
p580
VNNS
p581
sVLemma
p582
Vbutton
p583
saa(lp584
Vdid
p585
a(dp586
VNamedEntityTag
p587
g66
sVCharacterOffsetEnd
p588
V148
p589
sVCharacterOffsetBegin
p590
V145
p591
sVPartOfSpeech
p592
VVBD
p593
sVLemma
p594
Vdo
p595
saa(lp596
VGwen
p597
a(dp598
VNamedEntityTag
p599
VPERSON
p600
sVCharacterOffsetEnd
p601
V153
p602
sVCharacterOffsetBegin
p603
V149
p604
sVPartOfSpeech
p605
VNNP
p606
sVLemma
p607
VGwen
p608
saa(lp609
Vget
p610
a(dp611
VNamedEntityTag
p612
g66
sVCharacterOffsetEnd
p613
V157
p614
sVCharacterOffsetBegin
p615
V154
p616
sVPartOfSpeech
p617
VVB
p618
sVLemma
p619
Vget
p620
saa(lp621
V?
p622
a(dp623
VNamedEntityTag
p624
g66
sVCharacterOffsetEnd
p625
V159
p626
sVCharacterOffsetBegin
p627
V158
p628
sVPartOfSpeech
p629
g205
sVLemma
p630
g622
saasVindexeddependencies
p631
(lp632
(lp633
Vroot
p634
aVROOT-0
p635
aVget-7
p636
aa(lp637
Vadvmod
p638
aVmany-2
p639
aVHow-1
p640
aa(lp641
Vamod
p642
aVbuttons-4
p643
aVmany-2
p644
aa(lp645
Vamod
p646
aVbuttons-4
p647
aVlarge-3
p648
aa(lp649
Vdobj
p650
aVget-7
p651
aVbuttons-4
p652
aa(lp653
Vaux
p654
aVget-7
p655
aVdid-5
p656
aa(lp657
Vnsubj
p658
aVget-7
p659
aVGwen-6
p660
aasas.