(dp0
Vcoref
p1
(lp2
(lp3
(lp4
(lp5
Vthe supermarket
p6
aI2
aI8
aI7
aI9
aa(lp7
VThe supermarket
p8
aI0
aI1
aI0
aI2
aaaasVsentences
p9
(lp10
(dp11
Vparsetree
p12
V(ROOT (S (NP (DT The) (NN supermarket)) (VP (VBZ has) (NP (CD 24) (NNS aisles))) (. .)))
p13
sVtext
p14
VThe supermarket has 24 aisles .
p15
sVdependencies
p16
(lp17
(lp18
Vroot
p19
aVROOT
p20
aVhas
p21
aa(lp22
Vdet
p23
aVsupermarket
p24
aVThe
p25
aa(lp26
Vnsubj
p27
aVhas
p28
aVsupermarket
p29
aa(lp30
Vnum
p31
aVaisles
p32
aV24
p33
aa(lp34
Vdobj
p35
aVhas
p36
aVaisles
p37
aasVwords
p38
(lp39
(lp40
VThe
p41
a(dp42
VNamedEntityTag
p43
VO
p44
sVCharacterOffsetEnd
p45
V4
p46
sVCharacterOffsetBegin
p47
V1
p48
sVPartOfSpeech
p49
VDT
p50
sVLemma
p51
Vthe
p52
saa(lp53
Vsupermarket
p54
a(dp55
VNamedEntityTag
p56
g44
sVCharacterOffsetEnd
p57
V16
p58
sVCharacterOffsetBegin
p59
V5
p60
sVPartOfSpeech
p61
VNN
p62
sVLemma
p63
Vsupermarket
p64
saa(lp65
Vhas
p66
a(dp67
VNamedEntityTag
p68
g44
sVCharacterOffsetEnd
p69
V20
p70
sVCharacterOffsetBegin
p71
V17
p72
sVPartOfSpeech
p73
VVBZ
p74
sVLemma
p75
Vhave
p76
saa(lp77
V24
p78
a(dp79
VNormalizedNamedEntityTag
p80
V24.0
p81
sVLemma
p82
V24
p83
sVCharacterOffsetEnd
p84
V23
p85
sVPartOfSpeech
p86
VCD
p87
sVCharacterOffsetBegin
p88
V21
p89
sVNamedEntityTag
p90
VNUMBER
p91
saa(lp92
Vaisles
p93
a(dp94
VNamedEntityTag
p95
g44
sVCharacterOffsetEnd
p96
V30
p97
sVCharacterOffsetBegin
p98
V24
p99
sVPartOfSpeech
p100
VNNS
p101
sVLemma
p102
Vaisle
p103
saa(lp104
V.
p105
a(dp106
VNamedEntityTag
p107
g44
sVCharacterOffsetEnd
p108
V32
p109
sVCharacterOffsetBegin
p110
V31
p111
sVPartOfSpeech
p112
g105
sVLemma
p113
g105
saasVindexeddependencies
p114
(lp115
(lp116
Vroot
p117
aVROOT-0
p118
aVhas-3
p119
aa(lp120
Vdet
p121
aVsupermarket-2
p122
aVThe-1
p123
aa(lp124
Vnsubj
p125
aVhas-3
p126
aVsupermarket-2
p127
aa(lp128
Vnum
p129
aVaisles-5
p130
aV24-4
p131
aa(lp132
Vdobj
p133
aVhas-3
p134
aVaisles-5
p135
aasa(dp136
Vparsetree
p137
V(ROOT (S (NP (CD 0.25) (NNS times)) (VP (VBP are) (ADJP (JJ empty)) (, ,) (PP (IN without) (NP (DT any) (NNS shoppers)))) (. .)))
p138
sVtext
p139
V0.25 times are empty , without any shoppers .
p140
sVdependencies
p141
(lp142
(lp143
Vroot
p144
aVROOT
p145
aVempty
p146
aa(lp147
Vnum
p148
aVtimes
p149
aV0.25
p150
aa(lp151
Vnsubj
p152
aVempty
p153
aVtimes
p154
aa(lp155
Vcop
p156
aVempty
p157
aVare
p158
aa(lp159
Vdet
p160
aVshoppers
p161
aVany
p162
aa(lp163
Vprep_without
p164
aVempty
p165
aVshoppers
p166
aasVwords
p167
(lp168
(lp169
V0.25
p170
a(dp171
VNormalizedNamedEntityTag
p172
V0.25
p173
sVLemma
p174
V0.25
p175
sVCharacterOffsetEnd
p176
V37
p177
sVPartOfSpeech
p178
VCD
p179
sVCharacterOffsetBegin
p180
V33
p181
sVNamedEntityTag
p182
VNUMBER
p183
saa(lp184
Vtimes
p185
a(dp186
VNamedEntityTag
p187
g44
sVCharacterOffsetEnd
p188
V43
p189
sVCharacterOffsetBegin
p190
V38
p191
sVPartOfSpeech
p192
VNNS
p193
sVLemma
p194
Vtime
p195
saa(lp196
Vare
p197
a(dp198
VNamedEntityTag
p199
g44
sVCharacterOffsetEnd
p200
V47
p201
sVCharacterOffsetBegin
p202
V44
p203
sVPartOfSpeech
p204
VVBP
p205
sVLemma
p206
Vbe
p207
saa(lp208
Vempty
p209
a(dp210
VNamedEntityTag
p211
g44
sVCharacterOffsetEnd
p212
V53
p213
sVCharacterOffsetBegin
p214
V48
p215
sVPartOfSpeech
p216
VJJ
p217
sVLemma
p218
Vempty
p219
saa(lp220
V,
p221
a(dp222
VNamedEntityTag
p223
g44
sVCharacterOffsetEnd
p224
V55
p225
sVCharacterOffsetBegin
p226
V54
p227
sVPartOfSpeech
p228
g221
sVLemma
p229
g221
saa(lp230
Vwithout
p231
a(dp232
VNamedEntityTag
p233
g44
sVCharacterOffsetEnd
p234
V63
p235
sVCharacterOffsetBegin
p236
V56
p237
sVPartOfSpeech
p238
VIN
p239
sVLemma
p240
Vwithout
p241
saa(lp242
Vany
p243
a(dp244
VNamedEntityTag
p245
g44
sVCharacterOffsetEnd
p246
V67
p247
sVCharacterOffsetBegin
p248
V64
p249
sVPartOfSpeech
p250
VDT
p251
sVLemma
p252
Vany
p253
saa(lp254
Vshoppers
p255
a(dp256
VNamedEntityTag
p257
g44
sVCharacterOffsetEnd
p258
V76
p259
sVCharacterOffsetBegin
p260
V68
p261
sVPartOfSpeech
p262
VNNS
p263
sVLemma
p264
Vshopper
p265
saa(lp266
g105
a(dp267
VNamedEntityTag
p268
g44
sVCharacterOffsetEnd
p269
V78
p270
sVCharacterOffsetBegin
p271
V77
p272
sVPartOfSpeech
p273
g105
sVLemma
p274
g105
saasVindexeddependencies
p275
(lp276
(lp277
Vroot
p278
aVROOT-0
p279
aVempty-4
p280
aa(lp281
Vnum
p282
aVtimes-2
p283
aV0.25-1
p284
aa(lp285
Vnsubj
p286
aVempty-4
p287
aVtimes-2
p288
aa(lp289
Vcop
p290
aVempty-4
p291
aVare-3
p292
aa(lp293
Vdet
p294
aVshoppers-8
p295
aVany-7
p296
aa(lp297
Vprep_without
p298
aVempty-4
p299
aVshoppers-8
p300
aasa(dp301
Vparsetree
p302
V(ROOT (SBARQ (WHNP (WHADJP (WRB How) (JJ many)) (ADJP (JJ empty)) (NNS aisles)) (SQ (VBP are) (NP (EX there)) (PP (IN in) (NP (DT the) (NN supermarket)))) (. ?)))
p303
sVtext
p304
VHow many empty aisles are there in the supermarket ?
p305
sVdependencies
p306
(lp307
(lp308
Vroot
p309
aVROOT
p310
aVare
p311
aa(lp312
Vadvmod
p313
aVmany
p314
aVHow
p315
aa(lp316
Vamod
p317
aVaisles
p318
aVmany
p319
aa(lp320
Vamod
p321
aVaisles
p322
aVempty
p323
aa(lp324
Vnsubj
p325
aVare
p326
aVaisles
p327
aa(lp328
Vexpl
p329
aVare
p330
aVthere
p331
aa(lp332
Vdet
p333
aVsupermarket
p334
aVthe
p335
aa(lp336
Vprep_in
p337
aVare
p338
aVsupermarket
p339
aasVwords
p340
(lp341
(lp342
VHow
p343
a(dp344
VNamedEntityTag
p345
g44
sVCharacterOffsetEnd
p346
V82
p347
sVCharacterOffsetBegin
p348
V79
p349
sVPartOfSpeech
p350
VWRB
p351
sVLemma
p352
Vhow
p353
saa(lp354
Vmany
p355
a(dp356
VNamedEntityTag
p357
g44
sVCharacterOffsetEnd
p358
V87
p359
sVCharacterOffsetBegin
p360
V83
p361
sVPartOfSpeech
p362
VJJ
p363
sVLemma
p364
Vmany
p365
saa(lp366
Vempty
p367
a(dp368
VNamedEntityTag
p369
g44
sVCharacterOffsetEnd
p370
V93
p371
sVCharacterOffsetBegin
p372
V88
p373
sVPartOfSpeech
p374
VJJ
p375
sVLemma
p376
Vempty
p377
saa(lp378
Vaisles
p379
a(dp380
VNamedEntityTag
p381
g44
sVCharacterOffsetEnd
p382
V100
p383
sVCharacterOffsetBegin
p384
V94
p385
sVPartOfSpeech
p386
VNNS
p387
sVLemma
p388
Vaisle
p389
saa(lp390
Vare
p391
a(dp392
VNamedEntityTag
p393
g44
sVCharacterOffsetEnd
p394
V104
p395
sVCharacterOffsetBegin
p396
V101
p397
sVPartOfSpeech
p398
VVBP
p399
sVLemma
p400
Vbe
p401
saa(lp402
Vthere
p403
a(dp404
VNamedEntityTag
p405
g44
sVCharacterOffsetEnd
p406
V110
p407
sVCharacterOffsetBegin
p408
V105
p409
sVPartOfSpeech
p410
VEX
p411
sVLemma
p412
Vthere
p413
saa(lp414
Vin
p415
a(dp416
VNamedEntityTag
p417
g44
sVCharacterOffsetEnd
p418
V113
p419
sVCharacterOffsetBegin
p420
V111
p421
sVPartOfSpeech
p422
VIN
p423
sVLemma
p424
Vin
p425
saa(lp426
Vthe
p427
a(dp428
VNamedEntityTag
p429
g44
sVCharacterOffsetEnd
p430
V117
p431
sVCharacterOffsetBegin
p432
V114
p433
sVPartOfSpeech
p434
VDT
p435
sVLemma
p436
Vthe
p437
saa(lp438
Vsupermarket
p439
a(dp440
VNamedEntityTag
p441
g44
sVCharacterOffsetEnd
p442
V129
p443
sVCharacterOffsetBegin
p444
V118
p445
sVPartOfSpeech
p446
VNN
p447
sVLemma
p448
Vsupermarket
p449
saa(lp450
V?
p451
a(dp452
VNamedEntityTag
p453
g44
sVCharacterOffsetEnd
p454
V131
p455
sVCharacterOffsetBegin
p456
V130
p457
sVPartOfSpeech
p458
g105
sVLemma
p459
g451
saasVindexeddependencies
p460
(lp461
(lp462
Vroot
p463
aVROOT-0
p464
aVare-5
p465
aa(lp466
Vadvmod
p467
aVmany-2
p468
aVHow-1
p469
aa(lp470
Vamod
p471
aVaisles-4
p472
aVmany-2
p473
aa(lp474
Vamod
p475
aVaisles-4
p476
aVempty-3
p477
aa(lp478
Vnsubj
p479
aVare-5
p480
aVaisles-4
p481
aa(lp482
Vexpl
p483
aVare-5
p484
aVthere-6
p485
aa(lp486
Vdet
p487
aVsupermarket-9
p488
aVthe-8
p489
aa(lp490
Vprep_in
p491
aVare-5
p492
aVsupermarket-9
p493
aasas.