(dp0
Vcoref
p1
(lp2
(lp3
(lp4
(lp5
Vmugs
p6
aI1
aI4
aI4
aI5
aa(lp7
Vthe 60 coffee mugs at Jennifer 's Pancake House
p8
aI0
aI6
aI3
aI12
aaaa(lp9
(lp10
(lp11
Vthe pancake house
p12
aI1
aI10
aI8
aI11
aa(lp13
VJennifer 's Pancake House
p14
aI0
aI11
aI8
aI12
aaaasVsentences
p15
(lp16
(dp17
Vparsetree
p18
V(ROOT (S (NP (NP (CD 0.3) (NNS times)) (PP (IN of) (NP (NP (DT the) (CD 60) (NN coffee) (NNS mugs)) (PP (IN at) (NP (NP (NNP Jennifer) (POS 's)) (NNP Pancake) (NNP House)))))) (VP (VBP are) (ADJP (JJ dirty))) (. .)))
p19
sVtext
p20
V0.3 times of the 60 coffee mugs at Jennifer's Pancake House are dirty .
p21
sVdependencies
p22
(lp23
(lp24
Vroot
p25
aVROOT
p26
aVdirty
p27
aa(lp28
Vnum
p29
aVtimes
p30
aV0.3
p31
aa(lp32
Vnsubj
p33
aVdirty
p34
aVtimes
p35
aa(lp36
Vdet
p37
aVmugs
p38
aVthe
p39
aa(lp40
Vnum
p41
aVmugs
p42
aV60
p43
aa(lp44
Vnn
p45
aVmugs
p46
aVcoffee
p47
aa(lp48
Vprep_of
p49
aVtimes
p50
aVmugs
p51
aa(lp52
Vposs
p53
aVHouse
p54
aVJennifer
p55
aa(lp56
Vnn
p57
aVHouse
p58
aVPancake
p59
aa(lp60
Vprep_at
p61
aVmugs
p62
aVHouse
p63
aa(lp64
Vcop
p65
aVdirty
p66
aVare
p67
aasVwords
p68
(lp69
(lp70
V0.3
p71
a(dp72
VNormalizedNamedEntityTag
p73
V0.3
p74
sVLemma
p75
V0.3
p76
sVCharacterOffsetEnd
p77
V4
p78
sVPartOfSpeech
p79
VCD
p80
sVCharacterOffsetBegin
p81
V1
p82
sVNamedEntityTag
p83
VNUMBER
p84
saa(lp85
Vtimes
p86
a(dp87
VNamedEntityTag
p88
VO
p89
sVCharacterOffsetEnd
p90
V10
p91
sVCharacterOffsetBegin
p92
V5
p93
sVPartOfSpeech
p94
VNNS
p95
sVLemma
p96
Vtime
p97
saa(lp98
Vof
p99
a(dp100
VNamedEntityTag
p101
g89
sVCharacterOffsetEnd
p102
V13
p103
sVCharacterOffsetBegin
p104
V11
p105
sVPartOfSpeech
p106
VIN
p107
sVLemma
p108
Vof
p109
saa(lp110
Vthe
p111
a(dp112
VNamedEntityTag
p113
g89
sVCharacterOffsetEnd
p114
V17
p115
sVCharacterOffsetBegin
p116
V14
p117
sVPartOfSpeech
p118
VDT
p119
sVLemma
p120
Vthe
p121
saa(lp122
V60
p123
a(dp124
VNormalizedNamedEntityTag
p125
V60.0
p126
sVLemma
p127
V60
p128
sVCharacterOffsetEnd
p129
V20
p130
sVPartOfSpeech
p131
VCD
p132
sVCharacterOffsetBegin
p133
V18
p134
sVNamedEntityTag
p135
VNUMBER
p136
saa(lp137
Vcoffee
p138
a(dp139
VNamedEntityTag
p140
g89
sVCharacterOffsetEnd
p141
V27
p142
sVCharacterOffsetBegin
p143
V21
p144
sVPartOfSpeech
p145
VNN
p146
sVLemma
p147
Vcoffee
p148
saa(lp149
Vmugs
p150
a(dp151
VNamedEntityTag
p152
g89
sVCharacterOffsetEnd
p153
V32
p154
sVCharacterOffsetBegin
p155
V28
p156
sVPartOfSpeech
p157
VNNS
p158
sVLemma
p159
Vmug
p160
saa(lp161
Vat
p162
a(dp163
VNamedEntityTag
p164
g89
sVCharacterOffsetEnd
p165
V35
p166
sVCharacterOffsetBegin
p167
V33
p168
sVPartOfSpeech
p169
VIN
p170
sVLemma
p171
Vat
p172
saa(lp173
VJennifer
p174
a(dp175
VNamedEntityTag
p176
VPERSON
p177
sVCharacterOffsetEnd
p178
V44
p179
sVCharacterOffsetBegin
p180
V36
p181
sVPartOfSpeech
p182
VNNP
p183
sVLemma
p184
VJennifer
p185
saa(lp186
V's
p187
a(dp188
VNamedEntityTag
p189
g89
sVCharacterOffsetEnd
p190
V46
p191
sVCharacterOffsetBegin
p192
V44
p193
sVPartOfSpeech
p194
VPOS
p195
sVLemma
p196
V's
p197
saa(lp198
VPancake
p199
a(dp200
VNamedEntityTag
p201
VORGANIZATION
p202
sVCharacterOffsetEnd
p203
V54
p204
sVCharacterOffsetBegin
p205
V47
p206
sVPartOfSpeech
p207
VNNP
p208
sVLemma
p209
VPancake
p210
saa(lp211
VHouse
p212
a(dp213
VNamedEntityTag
p214
VORGANIZATION
p215
sVCharacterOffsetEnd
p216
V60
p217
sVCharacterOffsetBegin
p218
V55
p219
sVPartOfSpeech
p220
VNNP
p221
sVLemma
p222
VHouse
p223
saa(lp224
Vare
p225
a(dp226
VNamedEntityTag
p227
g89
sVCharacterOffsetEnd
p228
V64
p229
sVCharacterOffsetBegin
p230
V61
p231
sVPartOfSpeech
p232
VVBP
p233
sVLemma
p234
Vbe
p235
saa(lp236
Vdirty
p237
a(dp238
VNamedEntityTag
p239
g89
sVCharacterOffsetEnd
p240
V70
p241
sVCharacterOffsetBegin
p242
V65
p243
sVPartOfSpeech
p244
VJJ
p245
sVLemma
p246
Vdirty
p247
saa(lp248
V.
p249
a(dp250
VNamedEntityTag
p251
g89
sVCharacterOffsetEnd
p252
V72
p253
sVCharacterOffsetBegin
p254
V71
p255
sVPartOfSpeech
p256
g249
sVLemma
p257
g249
saasVindexeddependencies
p258
(lp259
(lp260
Vroot
p261
aVROOT-0
p262
aVdirty-14
p263
aa(lp264
Vnum
p265
aVtimes-2
p266
aV0.3-1
p267
aa(lp268
Vnsubj
p269
aVdirty-14
p270
aVtimes-2
p271
aa(lp272
Vdet
p273
aVmugs-7
p274
aVthe-4
p275
aa(lp276
Vnum
p277
aVmugs-7
p278
aV60-5
p279
aa(lp280
Vnn
p281
aVmugs-7
p282
aVcoffee-6
p283
aa(lp284
Vprep_of
p285
aVtimes-2
p286
aVmugs-7
p287
aa(lp288
Vposs
p289
aVHouse-12
p290
aVJennifer-9
p291
aa(lp292
Vnn
p293
aVHouse-12
p294
aVPancake-11
p295
aa(lp296
Vprep_at
p297
aVmugs-7
p298
aVHouse-12
p299
aa(lp300
Vcop
p301
aVdirty-14
p302
aVare-13
p303
aasa(dp304
Vparsetree
p305
V(ROOT (SBARQ (WHNP (WHADJP (WRB How) (JJ many)) (NP (NP (JJ dirty) (NN coffee)) (NP (NNS mugs)))) (SQ (VBP are) (NP (EX there)) (PP (IN at) (NP (DT the) (NN pancake) (NN house)))) (. ?)))
p306
sVtext
p307
VHow many dirty coffee mugs are there at the pancake house ?
p308
sVdependencies
p309
(lp310
(lp311
Vroot
p312
aVROOT
p313
aVare
p314
aa(lp315
Vadvmod
p316
aVmany
p317
aVHow
p318
aa(lp319
Vamod
p320
aVcoffee
p321
aVmany
p322
aa(lp323
Vamod
p324
aVcoffee
p325
aVdirty
p326
aa(lp327
Vnsubj
p328
aVare
p329
aVcoffee
p330
aa(lp331
Vdep
p332
aVcoffee
p333
aVmugs
p334
aa(lp335
Vexpl
p336
aVare
p337
aVthere
p338
aa(lp339
Vdet
p340
aVhouse
p341
aVthe
p342
aa(lp343
Vnn
p344
aVhouse
p345
aVpancake
p346
aa(lp347
Vprep_at
p348
aVare
p349
aVhouse
p350
aasVwords
p351
(lp352
(lp353
VHow
p354
a(dp355
VNamedEntityTag
p356
g89
sVCharacterOffsetEnd
p357
V76
p358
sVCharacterOffsetBegin
p359
V73
p360
sVPartOfSpeech
p361
VWRB
p362
sVLemma
p363
Vhow
p364
saa(lp365
Vmany
p366
a(dp367
VNamedEntityTag
p368
g89
sVCharacterOffsetEnd
p369
V81
p370
sVCharacterOffsetBegin
p371
V77
p372
sVPartOfSpeech
p373
VJJ
p374
sVLemma
p375
Vmany
p376
saa(lp377
Vdirty
p378
a(dp379
VNamedEntityTag
p380
g89
sVCharacterOffsetEnd
p381
V87
p382
sVCharacterOffsetBegin
p383
V82
p384
sVPartOfSpeech
p385
VJJ
p386
sVLemma
p387
Vdirty
p388
saa(lp389
Vcoffee
p390
a(dp391
VNamedEntityTag
p392
g89
sVCharacterOffsetEnd
p393
V94
p394
sVCharacterOffsetBegin
p395
V88
p396
sVPartOfSpeech
p397
VNN
p398
sVLemma
p399
Vcoffee
p400
saa(lp401
Vmugs
p402
a(dp403
VNamedEntityTag
p404
g89
sVCharacterOffsetEnd
p405
V99
p406
sVCharacterOffsetBegin
p407
V95
p408
sVPartOfSpeech
p409
VNNS
p410
sVLemma
p411
Vmug
p412
saa(lp413
Vare
p414
a(dp415
VNamedEntityTag
p416
g89
sVCharacterOffsetEnd
p417
V103
p418
sVCharacterOffsetBegin
p419
V100
p420
sVPartOfSpeech
p421
VVBP
p422
sVLemma
p423
Vbe
p424
saa(lp425
Vthere
p426
a(dp427
VNamedEntityTag
p428
g89
sVCharacterOffsetEnd
p429
V109
p430
sVCharacterOffsetBegin
p431
V104
p432
sVPartOfSpeech
p433
VEX
p434
sVLemma
p435
Vthere
p436
saa(lp437
Vat
p438
a(dp439
VNamedEntityTag
p440
g89
sVCharacterOffsetEnd
p441
V112
p442
sVCharacterOffsetBegin
p443
V110
p444
sVPartOfSpeech
p445
VIN
p446
sVLemma
p447
Vat
p448
saa(lp449
Vthe
p450
a(dp451
VNamedEntityTag
p452
g89
sVCharacterOffsetEnd
p453
V116
p454
sVCharacterOffsetBegin
p455
V113
p456
sVPartOfSpeech
p457
VDT
p458
sVLemma
p459
Vthe
p460
saa(lp461
Vpancake
p462
a(dp463
VNamedEntityTag
p464
g89
sVCharacterOffsetEnd
p465
V124
p466
sVCharacterOffsetBegin
p467
V117
p468
sVPartOfSpeech
p469
VNN
p470
sVLemma
p471
Vpancake
p472
saa(lp473
Vhouse
p474
a(dp475
VNamedEntityTag
p476
g89
sVCharacterOffsetEnd
p477
V130
p478
sVCharacterOffsetBegin
p479
V125
p480
sVPartOfSpeech
p481
VNN
p482
sVLemma
p483
Vhouse
p484
saa(lp485
V?
p486
a(dp487
VNamedEntityTag
p488
g89
sVCharacterOffsetEnd
p489
V132
p490
sVCharacterOffsetBegin
p491
V131
p492
sVPartOfSpeech
p493
g249
sVLemma
p494
g486
saasVindexeddependencies
p495
(lp496
(lp497
Vroot
p498
aVROOT-0
p499
aVare-6
p500
aa(lp501
Vadvmod
p502
aVmany-2
p503
aVHow-1
p504
aa(lp505
Vamod
p506
aVcoffee-4
p507
aVmany-2
p508
aa(lp509
Vamod
p510
aVcoffee-4
p511
aVdirty-3
p512
aa(lp513
Vnsubj
p514
aVare-6
p515
aVcoffee-4
p516
aa(lp517
Vdep
p518
aVcoffee-4
p519
aVmugs-5
p520
aa(lp521
Vexpl
p522
aVare-6
p523
aVthere-7
p524
aa(lp525
Vdet
p526
aVhouse-11
p527
aVthe-9
p528
aa(lp529
Vnn
p530
aVhouse-11
p531
aVpancake-10
p532
aa(lp533
Vprep_at
p534
aVare-6
p535
aVhouse-11
p536
aasas.