(dp0
Vcoref
p1
(lp2
(lp3
(lp4
(lp5
VBen
p6
aI2
aI4
aI4
aI5
aa(lp7
VBen
p8
aI1
aI0
aI0
aI1
aaaasVsentences
p9
(lp10
(dp11
Vparsetree
p12
V(ROOT (S (NP-TMP (NN Yesterday)) (, ,) (NP (EX there)) (VP (VBD were) (NP (NP (CD 10) (NNS problems)) (VP (VBN assigned) (PP (IN for) (NP (NN math) (NN homework)))))) (. .)))
p13
sVtext
p14
VYesterday , there were 10 problems assigned for math homework .
p15
sVdependencies
p16
(lp17
(lp18
Vroot
p19
aVROOT
p20
aVwere
p21
aa(lp22
Vtmod
p23
aVwere
p24
aVYesterday
p25
aa(lp26
Vexpl
p27
aVwere
p28
aVthere
p29
aa(lp30
Vnum
p31
aVproblems
p32
aV10
p33
aa(lp34
Vnsubj
p35
aVwere
p36
aVproblems
p37
aa(lp38
Vvmod
p39
aVproblems
p40
aVassigned
p41
aa(lp42
Vnn
p43
aVhomework
p44
aVmath
p45
aa(lp46
Vprep_for
p47
aVassigned
p48
aVhomework
p49
aasVwords
p50
(lp51
(lp52
VYesterday
p53
a(dp54
VNormalizedNamedEntityTag
p55
VOFFSET
p56
sVTimex
p57
V<TIMEX3 alt_value="OFFSET P-1D" anchorTimeID="t0" temporalFunction="true" tid="t1" type="DATE" valueFromFunction="tf0">Yesterday</TIMEX3>
p58
sVLemma
p59
Vyesterday
p60
sVCharacterOffsetEnd
p61
V10
p62
sVPartOfSpeech
p63
VNN
p64
sVCharacterOffsetBegin
p65
V1
p66
sVNamedEntityTag
p67
VDATE
p68
saa(lp69
V,
p70
a(dp71
VNamedEntityTag
p72
VO
p73
sVCharacterOffsetEnd
p74
V12
p75
sVCharacterOffsetBegin
p76
V11
p77
sVPartOfSpeech
p78
g70
sVLemma
p79
g70
saa(lp80
Vthere
p81
a(dp82
VNamedEntityTag
p83
g73
sVCharacterOffsetEnd
p84
V18
p85
sVCharacterOffsetBegin
p86
V13
p87
sVPartOfSpeech
p88
VEX
p89
sVLemma
p90
Vthere
p91
saa(lp92
Vwere
p93
a(dp94
VNamedEntityTag
p95
g73
sVCharacterOffsetEnd
p96
V23
p97
sVCharacterOffsetBegin
p98
V19
p99
sVPartOfSpeech
p100
VVBD
p101
sVLemma
p102
Vbe
p103
saa(lp104
V10
p105
a(dp106
VNormalizedNamedEntityTag
p107
V10.0
p108
sVLemma
p109
V10
p110
sVCharacterOffsetEnd
p111
V26
p112
sVPartOfSpeech
p113
VCD
p114
sVCharacterOffsetBegin
p115
V24
p116
sVNamedEntityTag
p117
VNUMBER
p118
saa(lp119
Vproblems
p120
a(dp121
VNamedEntityTag
p122
g73
sVCharacterOffsetEnd
p123
V35
p124
sVCharacterOffsetBegin
p125
V27
p126
sVPartOfSpeech
p127
VNNS
p128
sVLemma
p129
Vproblem
p130
saa(lp131
Vassigned
p132
a(dp133
VNamedEntityTag
p134
g73
sVCharacterOffsetEnd
p135
V44
p136
sVCharacterOffsetBegin
p137
V36
p138
sVPartOfSpeech
p139
VVBN
p140
sVLemma
p141
Vassign
p142
saa(lp143
Vfor
p144
a(dp145
VNamedEntityTag
p146
g73
sVCharacterOffsetEnd
p147
V48
p148
sVCharacterOffsetBegin
p149
V45
p150
sVPartOfSpeech
p151
VIN
p152
sVLemma
p153
Vfor
p154
saa(lp155
Vmath
p156
a(dp157
VNamedEntityTag
p158
g73
sVCharacterOffsetEnd
p159
V53
p160
sVCharacterOffsetBegin
p161
V49
p162
sVPartOfSpeech
p163
VNN
p164
sVLemma
p165
Vmath
p166
saa(lp167
Vhomework
p168
a(dp169
VNamedEntityTag
p170
g73
sVCharacterOffsetEnd
p171
V62
p172
sVCharacterOffsetBegin
p173
V54
p174
sVPartOfSpeech
p175
VNN
p176
sVLemma
p177
Vhomework
p178
saa(lp179
V.
p180
a(dp181
VNamedEntityTag
p182
g73
sVCharacterOffsetEnd
p183
V64
p184
sVCharacterOffsetBegin
p185
V63
p186
sVPartOfSpeech
p187
g180
sVLemma
p188
g180
saasVindexeddependencies
p189
(lp190
(lp191
Vroot
p192
aVROOT-0
p193
aVwere-4
p194
aa(lp195
Vtmod
p196
aVwere-4
p197
aVYesterday-1
p198
aa(lp199
Vexpl
p200
aVwere-4
p201
aVthere-3
p202
aa(lp203
Vnum
p204
aVproblems-6
p205
aV10-5
p206
aa(lp207
Vnsubj
p208
aVwere-4
p209
aVproblems-6
p210
aa(lp211
Vvmod
p212
aVproblems-6
p213
aVassigned-7
p214
aa(lp215
Vnn
p216
aVhomework-10
p217
aVmath-9
p218
aa(lp219
Vprep_for
p220
aVassigned-7
p221
aVhomework-10
p222
aasa(dp223
Vparsetree
p224
V(ROOT (S (NP (NNP Ben)) (VP (VBD did) (NP (NP (CD 0.9) (NNS times)) (PP (IN of) (NP (PRP them)))) (ADVP (RB correctly))) (. .)))
p225
sVtext
p226
VBen did 0.9 times of them correctly .
p227
sVdependencies
p228
(lp229
(lp230
Vroot
p231
aVROOT
p232
aVdid
p233
aa(lp234
Vnsubj
p235
aVdid
p236
aVBen
p237
aa(lp238
Vnum
p239
aVtimes
p240
aV0.9
p241
aa(lp242
Vdobj
p243
aVdid
p244
aVtimes
p245
aa(lp246
Vprep_of
p247
aVtimes
p248
aVthem
p249
aa(lp250
Vadvmod
p251
aVdid
p252
aVcorrectly
p253
aasVwords
p254
(lp255
(lp256
VBen
p257
a(dp258
VNamedEntityTag
p259
VPERSON
p260
sVCharacterOffsetEnd
p261
V68
p262
sVCharacterOffsetBegin
p263
V65
p264
sVPartOfSpeech
p265
VNNP
p266
sVLemma
p267
VBen
p268
saa(lp269
Vdid
p270
a(dp271
VNamedEntityTag
p272
g73
sVCharacterOffsetEnd
p273
V72
p274
sVCharacterOffsetBegin
p275
V69
p276
sVPartOfSpeech
p277
VVBD
p278
sVLemma
p279
Vdo
p280
saa(lp281
V0.9
p282
a(dp283
VNormalizedNamedEntityTag
p284
V0.9
p285
sVLemma
p286
V0.9
p287
sVCharacterOffsetEnd
p288
V76
p289
sVPartOfSpeech
p290
VCD
p291
sVCharacterOffsetBegin
p292
V73
p293
sVNamedEntityTag
p294
VNUMBER
p295
saa(lp296
Vtimes
p297
a(dp298
VNamedEntityTag
p299
g73
sVCharacterOffsetEnd
p300
V82
p301
sVCharacterOffsetBegin
p302
V77
p303
sVPartOfSpeech
p304
VNNS
p305
sVLemma
p306
Vtime
p307
saa(lp308
Vof
p309
a(dp310
VNamedEntityTag
p311
g73
sVCharacterOffsetEnd
p312
V85
p313
sVCharacterOffsetBegin
p314
V83
p315
sVPartOfSpeech
p316
VIN
p317
sVLemma
p318
Vof
p319
saa(lp320
Vthem
p321
a(dp322
VNamedEntityTag
p323
g73
sVCharacterOffsetEnd
p324
V90
p325
sVCharacterOffsetBegin
p326
V86
p327
sVPartOfSpeech
p328
VPRP
p329
sVLemma
p330
Vthey
p331
saa(lp332
Vcorrectly
p333
a(dp334
VNamedEntityTag
p335
g73
sVCharacterOffsetEnd
p336
V100
p337
sVCharacterOffsetBegin
p338
V91
p339
sVPartOfSpeech
p340
VRB
p341
sVLemma
p342
Vcorrectly
p343
saa(lp344
g180
a(dp345
VNamedEntityTag
p346
g73
sVCharacterOffsetEnd
p347
V102
p348
sVCharacterOffsetBegin
p349
V101
p350
sVPartOfSpeech
p351
g180
sVLemma
p352
g180
saasVindexeddependencies
p353
(lp354
(lp355
Vroot
p356
aVROOT-0
p357
aVdid-2
p358
aa(lp359
Vnsubj
p360
aVdid-2
p361
aVBen-1
p362
aa(lp363
Vnum
p364
aVtimes-4
p365
aV0.9-3
p366
aa(lp367
Vdobj
p368
aVdid-2
p369
aVtimes-4
p370
aa(lp371
Vprep_of
p372
aVtimes-4
p373
aVthem-6
p374
aa(lp375
Vadvmod
p376
aVdid-2
p377
aVcorrectly-7
p378
aasa(dp379
Vparsetree
p380
V(ROOT (SBARQ (WHADVP (WRB How) (NP (JJ many) (NNS problems))) (SQ (VBD did) (NP (NNP Ben)) (VP (VB get) (ADVP (RB right)))) (. ?)))
p381
sVtext
p382
VHow many problems did Ben get right ?
p383
sVdependencies
p384
(lp385
(lp386
Vroot
p387
aVROOT
p388
aVget
p389
aa(lp390
Vadvmod
p391
aVget
p392
aVHow
p393
aa(lp394
Vamod
p395
aVproblems
p396
aVmany
p397
aa(lp398
Vdep
p399
aVHow
p400
aVproblems
p401
aa(lp402
Vaux
p403
aVget
p404
aVdid
p405
aa(lp406
Vnsubj
p407
aVget
p408
aVBen
p409
aa(lp410
Vadvmod
p411
aVget
p412
aVright
p413
aasVwords
p414
(lp415
(lp416
VHow
p417
a(dp418
VNamedEntityTag
p419
g73
sVCharacterOffsetEnd
p420
V106
p421
sVCharacterOffsetBegin
p422
V103
p423
sVPartOfSpeech
p424
VWRB
p425
sVLemma
p426
Vhow
p427
saa(lp428
Vmany
p429
a(dp430
VNamedEntityTag
p431
g73
sVCharacterOffsetEnd
p432
V111
p433
sVCharacterOffsetBegin
p434
V107
p435
sVPartOfSpeech
p436
VJJ
p437
sVLemma
p438
Vmany
p439
saa(lp440
Vproblems
p441
a(dp442
VNamedEntityTag
p443
g73
sVCharacterOffsetEnd
p444
V120
p445
sVCharacterOffsetBegin
p446
V112
p447
sVPartOfSpeech
p448
VNNS
p449
sVLemma
p450
Vproblem
p451
saa(lp452
Vdid
p453
a(dp454
VNamedEntityTag
p455
g73
sVCharacterOffsetEnd
p456
V124
p457
sVCharacterOffsetBegin
p458
V121
p459
sVPartOfSpeech
p460
VVBD
p461
sVLemma
p462
Vdo
p463
saa(lp464
VBen
p465
a(dp466
VNamedEntityTag
p467
VPERSON
p468
sVCharacterOffsetEnd
p469
V128
p470
sVCharacterOffsetBegin
p471
V125
p472
sVPartOfSpeech
p473
VNNP
p474
sVLemma
p475
VBen
p476
saa(lp477
Vget
p478
a(dp479
VNamedEntityTag
p480
g73
sVCharacterOffsetEnd
p481
V132
p482
sVCharacterOffsetBegin
p483
V129
p484
sVPartOfSpeech
p485
VVB
p486
sVLemma
p487
Vget
p488
saa(lp489
Vright
p490
a(dp491
VNamedEntityTag
p492
g73
sVCharacterOffsetEnd
p493
V138
p494
sVCharacterOffsetBegin
p495
V133
p496
sVPartOfSpeech
p497
VRB
p498
sVLemma
p499
Vright
p500
saa(lp501
V?
p502
a(dp503
VNamedEntityTag
p504
g73
sVCharacterOffsetEnd
p505
V140
p506
sVCharacterOffsetBegin
p507
V139
p508
sVPartOfSpeech
p509
g180
sVLemma
p510
g502
saasVindexeddependencies
p511
(lp512
(lp513
Vroot
p514
aVROOT-0
p515
aVget-6
p516
aa(lp517
Vadvmod
p518
aVget-6
p519
aVHow-1
p520
aa(lp521
Vamod
p522
aVproblems-3
p523
aVmany-2
p524
aa(lp525
Vdep
p526
aVHow-1
p527
aVproblems-3
p528
aa(lp529
Vaux
p530
aVget-6
p531
aVdid-4
p532
aa(lp533
Vnsubj
p534
aVget-6
p535
aVBen-5
p536
aa(lp537
Vadvmod
p538
aVget-6
p539
aVright-7
p540
aasas.