(dp0
Vcoref
p1
(lp2
(lp3
(lp4
(lp5
Vthey
p6
aI1
aI3
aI3
aI4
aa(lp7
V15 siamese cats
p8
aI0
aI6
aI4
aI7
aaa(lp9
(lp10
Vthey
p11
aI2
aI4
aI4
aI5
aa(lp12
V15 siamese cats
p13
aI0
aI6
aI4
aI7
aaaasVsentences
p14
(lp15
(dp16
Vparsetree
p17
V(ROOT (S (NP (DT A) (JJ pet) (NN store)) (VP (VBD had) (NP (NP (CD 15) (NN siamese) (NNS cats)) (CC and) (NP (CD 49) (NN house) (NNS cats)))) (. .)))
p18
sVtext
p19
VA pet store had 15 siamese cats and 49 house cats .
p20
sVdependencies
p21
(lp22
(lp23
Vroot
p24
aVROOT
p25
aVhad
p26
aa(lp27
Vdet
p28
aVstore
p29
aVA
p30
aa(lp31
Vamod
p32
aVstore
p33
aVpet
p34
aa(lp35
Vnsubj
p36
aVhad
p37
aVstore
p38
aa(lp39
Vnum
p40
aVcats
p41
aV15
p42
aa(lp43
Vnn
p44
aVcats
p45
aVsiamese
p46
aa(lp47
Vdobj
p48
aVhad
p49
aVcats
p50
aa(lp51
Vnum
p52
aVcats
p53
aV49
p54
aa(lp55
Vnn
p56
aVcats
p57
aVhouse
p58
aa(lp59
Vconj_and
p60
aVcats
p61
aVcats
p62
aasVwords
p63
(lp64
(lp65
g30
a(dp66
VNamedEntityTag
p67
VO
p68
sVCharacterOffsetEnd
p69
V2
p70
sVCharacterOffsetBegin
p71
V1
p72
sVPartOfSpeech
p73
VDT
p74
sVLemma
p75
Va
p76
saa(lp77
Vpet
p78
a(dp79
VNamedEntityTag
p80
g68
sVCharacterOffsetEnd
p81
V6
p82
sVCharacterOffsetBegin
p83
V3
p84
sVPartOfSpeech
p85
VJJ
p86
sVLemma
p87
Vpet
p88
saa(lp89
Vstore
p90
a(dp91
VNamedEntityTag
p92
g68
sVCharacterOffsetEnd
p93
V12
p94
sVCharacterOffsetBegin
p95
V7
p96
sVPartOfSpeech
p97
VNN
p98
sVLemma
p99
Vstore
p100
saa(lp101
Vhad
p102
a(dp103
VNamedEntityTag
p104
g68
sVCharacterOffsetEnd
p105
V16
p106
sVCharacterOffsetBegin
p107
V13
p108
sVPartOfSpeech
p109
VVBD
p110
sVLemma
p111
Vhave
p112
saa(lp113
V15
p114
a(dp115
VNormalizedNamedEntityTag
p116
V15.0
p117
sVLemma
p118
V15
p119
sVCharacterOffsetEnd
p120
V19
p121
sVPartOfSpeech
p122
VCD
p123
sVCharacterOffsetBegin
p124
V17
p125
sVNamedEntityTag
p126
VNUMBER
p127
saa(lp128
Vsiamese
p129
a(dp130
VNamedEntityTag
p131
g68
sVCharacterOffsetEnd
p132
V27
p133
sVCharacterOffsetBegin
p134
V20
p135
sVPartOfSpeech
p136
VNN
p137
sVLemma
p138
Vsiamese
p139
saa(lp140
Vcats
p141
a(dp142
VNamedEntityTag
p143
g68
sVCharacterOffsetEnd
p144
V32
p145
sVCharacterOffsetBegin
p146
V28
p147
sVPartOfSpeech
p148
VNNS
p149
sVLemma
p150
Vcat
p151
saa(lp152
Vand
p153
a(dp154
VNamedEntityTag
p155
g68
sVCharacterOffsetEnd
p156
V36
p157
sVCharacterOffsetBegin
p158
V33
p159
sVPartOfSpeech
p160
VCC
p161
sVLemma
p162
Vand
p163
saa(lp164
V49
p165
a(dp166
VNormalizedNamedEntityTag
p167
V49.0
p168
sVLemma
p169
V49
p170
sVCharacterOffsetEnd
p171
V39
p172
sVPartOfSpeech
p173
VCD
p174
sVCharacterOffsetBegin
p175
V37
p176
sVNamedEntityTag
p177
VNUMBER
p178
saa(lp179
Vhouse
p180
a(dp181
VNamedEntityTag
p182
g68
sVCharacterOffsetEnd
p183
V45
p184
sVCharacterOffsetBegin
p185
V40
p186
sVPartOfSpeech
p187
VNN
p188
sVLemma
p189
Vhouse
p190
saa(lp191
Vcats
p192
a(dp193
VNamedEntityTag
p194
g68
sVCharacterOffsetEnd
p195
V50
p196
sVCharacterOffsetBegin
p197
V46
p198
sVPartOfSpeech
p199
VNNS
p200
sVLemma
p201
Vcat
p202
saa(lp203
V.
p204
a(dp205
VNamedEntityTag
p206
g68
sVCharacterOffsetEnd
p207
V52
p208
sVCharacterOffsetBegin
p209
V51
p210
sVPartOfSpeech
p211
g204
sVLemma
p212
g204
saasVindexeddependencies
p213
(lp214
(lp215
Vroot
p216
aVROOT-0
p217
aVhad-4
p218
aa(lp219
Vdet
p220
aVstore-3
p221
aVA-1
p222
aa(lp223
Vamod
p224
aVstore-3
p225
aVpet-2
p226
aa(lp227
Vnsubj
p228
aVhad-4
p229
aVstore-3
p230
aa(lp231
Vnum
p232
aVcats-7
p233
aV15-5
p234
aa(lp235
Vnn
p236
aVcats-7
p237
aVsiamese-6
p238
aa(lp239
Vdobj
p240
aVhad-4
p241
aVcats-7
p242
aa(lp243
Vnum
p244
aVcats-11
p245
aV49-9
p246
aa(lp247
Vnn
p248
aVcats-11
p249
aVhouse-10
p250
aa(lp251
Vconj_and
p252
aVcats-7
p253
aVcats-11
p254
aasa(dp255
Vparsetree
p256
V(ROOT (S (PP (IN During) (NP (DT a) (NN sale))) (NP (PRP they)) (VP (VBD sold) (NP (CD 19) (NNS cats))) (. .)))
p257
sVtext
p258
VDuring a sale they sold 19 cats .
p259
sVdependencies
p260
(lp261
(lp262
Vroot
p263
aVROOT
p264
aVsold
p265
aa(lp266
Vdet
p267
aVsale
p268
ag76
aa(lp269
Vprep_during
p270
aVsold
p271
aVsale
p272
aa(lp273
Vnsubj
p274
aVsold
p275
aVthey
p276
aa(lp277
Vnum
p278
aVcats
p279
aV19
p280
aa(lp281
Vdobj
p282
aVsold
p283
aVcats
p284
aasVwords
p285
(lp286
(lp287
VDuring
p288
a(dp289
VNamedEntityTag
p290
g68
sVCharacterOffsetEnd
p291
V59
p292
sVCharacterOffsetBegin
p293
V53
p294
sVPartOfSpeech
p295
VIN
p296
sVLemma
p297
Vduring
p298
saa(lp299
g76
a(dp300
VNamedEntityTag
p301
g68
sVCharacterOffsetEnd
p302
V61
p303
sVCharacterOffsetBegin
p304
V60
p305
sVPartOfSpeech
p306
VDT
p307
sVLemma
p308
g76
saa(lp309
Vsale
p310
a(dp311
VNamedEntityTag
p312
g68
sVCharacterOffsetEnd
p313
V66
p314
sVCharacterOffsetBegin
p315
V62
p316
sVPartOfSpeech
p317
VNN
p318
sVLemma
p319
Vsale
p320
saa(lp321
Vthey
p322
a(dp323
VNamedEntityTag
p324
g68
sVCharacterOffsetEnd
p325
V71
p326
sVCharacterOffsetBegin
p327
V67
p328
sVPartOfSpeech
p329
VPRP
p330
sVLemma
p331
Vthey
p332
saa(lp333
Vsold
p334
a(dp335
VNamedEntityTag
p336
g68
sVCharacterOffsetEnd
p337
V76
p338
sVCharacterOffsetBegin
p339
V72
p340
sVPartOfSpeech
p341
VVBD
p342
sVLemma
p343
Vsell
p344
saa(lp345
V19
p346
a(dp347
VNormalizedNamedEntityTag
p348
V19.0
p349
sVLemma
p350
V19
p351
sVCharacterOffsetEnd
p352
V79
p353
sVPartOfSpeech
p354
VCD
p355
sVCharacterOffsetBegin
p356
V77
p357
sVNamedEntityTag
p358
VNUMBER
p359
saa(lp360
Vcats
p361
a(dp362
VNamedEntityTag
p363
g68
sVCharacterOffsetEnd
p364
V84
p365
sVCharacterOffsetBegin
p366
V80
p367
sVPartOfSpeech
p368
VNNS
p369
sVLemma
p370
Vcat
p371
saa(lp372
g204
a(dp373
VNamedEntityTag
p374
g68
sVCharacterOffsetEnd
p375
V86
p376
sVCharacterOffsetBegin
p377
V85
p378
sVPartOfSpeech
p379
g204
sVLemma
p380
g204
saasVindexeddependencies
p381
(lp382
(lp383
Vroot
p384
aVROOT-0
p385
aVsold-5
p386
aa(lp387
Vdet
p388
aVsale-3
p389
aVa-2
p390
aa(lp391
Vprep_during
p392
aVsold-5
p393
aVsale-3
p394
aa(lp395
Vnsubj
p396
aVsold-5
p397
aVthey-4
p398
aa(lp399
Vnum
p400
aVcats-7
p401
aV19-6
p402
aa(lp403
Vdobj
p404
aVsold-5
p405
aVcats-7
p406
aasa(dp407
Vparsetree
p408
V(ROOT (SBARQ (WHNP (WHADJP (WRB How) (JJ many)) (NNS cats)) (SQ (VBP do) (NP (PRP they)) (VP (VBP have) (VP (VBN left)))) (. ?)))
p409
sVtext
p410
VHow many cats do they have left ?
p411
sVdependencies
p412
(lp413
(lp414
Vroot
p415
aVROOT
p416
aVleft
p417
aa(lp418
Vadvmod
p419
aVmany
p420
aVHow
p421
aa(lp422
Vamod
p423
aVcats
p424
aVmany
p425
aa(lp426
Vdobj
p427
aVleft
p428
aVcats
p429
aa(lp430
Vaux
p431
aVleft
p432
aVdo
p433
aa(lp434
Vnsubj
p435
aVleft
p436
aVthey
p437
aa(lp438
Vaux
p439
aVleft
p440
aVhave
p441
aasVwords
p442
(lp443
(lp444
VHow
p445
a(dp446
VNamedEntityTag
p447
g68
sVCharacterOffsetEnd
p448
V90
p449
sVCharacterOffsetBegin
p450
V87
p451
sVPartOfSpeech
p452
VWRB
p453
sVLemma
p454
Vhow
p455
saa(lp456
Vmany
p457
a(dp458
VNamedEntityTag
p459
g68
sVCharacterOffsetEnd
p460
V95
p461
sVCharacterOffsetBegin
p462
V91
p463
sVPartOfSpeech
p464
VJJ
p465
sVLemma
p466
Vmany
p467
saa(lp468
Vcats
p469
a(dp470
VNamedEntityTag
p471
g68
sVCharacterOffsetEnd
p472
V100
p473
sVCharacterOffsetBegin
p474
V96
p475
sVPartOfSpeech
p476
VNNS
p477
sVLemma
p478
Vcat
p479
saa(lp480
Vdo
p481
a(dp482
VNamedEntityTag
p483
g68
sVCharacterOffsetEnd
p484
V103
p485
sVCharacterOffsetBegin
p486
V101
p487
sVPartOfSpeech
p488
VVBP
p489
sVLemma
p490
Vdo
p491
saa(lp492
Vthey
p493
a(dp494
VNamedEntityTag
p495
g68
sVCharacterOffsetEnd
p496
V108
p497
sVCharacterOffsetBegin
p498
V104
p499
sVPartOfSpeech
p500
VPRP
p501
sVLemma
p502
Vthey
p503
saa(lp504
Vhave
p505
a(dp506
VNamedEntityTag
p507
g68
sVCharacterOffsetEnd
p508
V113
p509
sVCharacterOffsetBegin
p510
V109
p511
sVPartOfSpeech
p512
VVBP
p513
sVLemma
p514
Vhave
p515
saa(lp516
Vleft
p517
a(dp518
VNamedEntityTag
p519
g68
sVCharacterOffsetEnd
p520
V118
p521
sVCharacterOffsetBegin
p522
V114
p523
sVPartOfSpeech
p524
VVBN
p525
sVLemma
p526
Vleave
p527
saa(lp528
V?
p529
a(dp530
VNamedEntityTag
p531
g68
sVCharacterOffsetEnd
p532
V120
p533
sVCharacterOffsetBegin
p534
V119
p535
sVPartOfSpeech
p536
g204
sVLemma
p537
g529
saasVindexeddependencies
p538
(lp539
(lp540
Vroot
p541
aVROOT-0
p542
aVleft-7
p543
aa(lp544
Vadvmod
p545
aVmany-2
p546
aVHow-1
p547
aa(lp548
Vamod
p549
aVcats-3
p550
aVmany-2
p551
aa(lp552
Vdobj
p553
aVleft-7
p554
aVcats-3
p555
aa(lp556
Vaux
p557
aVleft-7
p558
aVdo-4
p559
aa(lp560
Vnsubj
p561
aVleft-7
p562
aVthey-5
p563
aa(lp564
Vaux
p565
aVleft-7
p566
aVhave-6
p567
aasas.