(dp0
Vcoref
p1
(lp2
(lp3
(lp4
(lp5
Vthem
p6
aI1
aI4
aI4
aI5
aa(lp7
V9 girls
p8
aI0
aI3
aI2
aI4
aaaasVsentences
p9
(lp10
(dp11
Vparsetree
p12
V(ROOT (S (NP (EX There)) (VP (VBD were) (NP (NP (CD 9) (NNS girls)) (CC and) (NP (NP (CD 14) (NNS boys)) (VP (VBG trying) (PRT (RP out)) (PP (IN for) (NP (DT the) (NNS schools) (NN basketball) (NN team))))))) (. .)))
p13
sVtext
p14
VThere were 9 girls and 14 boys trying out for the schools basketball team .
p15
sVdependencies
p16
(lp17
(lp18
Vroot
p19
aVROOT
p20
aVwere
p21
aa(lp22
Vexpl
p23
aVwere
p24
aVThere
p25
aa(lp26
Vnum
p27
aVgirls
p28
aV9
p29
aa(lp30
Vnsubj
p31
aVwere
p32
aVgirls
p33
aa(lp34
Vnum
p35
aVboys
p36
aV14
p37
aa(lp38
Vconj_and
p39
aVgirls
p40
aVboys
p41
aa(lp42
Vvmod
p43
aVboys
p44
aVtrying
p45
aa(lp46
Vprt
p47
aVtrying
p48
aVout
p49
aa(lp50
Vdet
p51
aVteam
p52
aVthe
p53
aa(lp54
Vnn
p55
aVteam
p56
aVschools
p57
aa(lp58
Vnn
p59
aVteam
p60
aVbasketball
p61
aa(lp62
Vprep_for
p63
aVtrying
p64
aVteam
p65
aasVwords
p66
(lp67
(lp68
VThere
p69
a(dp70
VNamedEntityTag
p71
VO
p72
sVCharacterOffsetEnd
p73
V6
p74
sVCharacterOffsetBegin
p75
V1
p76
sVPartOfSpeech
p77
VEX
p78
sVLemma
p79
Vthere
p80
saa(lp81
Vwere
p82
a(dp83
VNamedEntityTag
p84
g72
sVCharacterOffsetEnd
p85
V11
p86
sVCharacterOffsetBegin
p87
V7
p88
sVPartOfSpeech
p89
VVBD
p90
sVLemma
p91
Vbe
p92
saa(lp93
g29
a(dp94
VNormalizedNamedEntityTag
p95
V9.0
p96
sVLemma
p97
g29
sVCharacterOffsetEnd
p98
V13
p99
sVPartOfSpeech
p100
VCD
p101
sVCharacterOffsetBegin
p102
V12
p103
sVNamedEntityTag
p104
VNUMBER
p105
saa(lp106
Vgirls
p107
a(dp108
VNamedEntityTag
p109
g72
sVCharacterOffsetEnd
p110
V19
p111
sVCharacterOffsetBegin
p112
V14
p113
sVPartOfSpeech
p114
VNNS
p115
sVLemma
p116
Vgirl
p117
saa(lp118
Vand
p119
a(dp120
VNamedEntityTag
p121
g72
sVCharacterOffsetEnd
p122
V23
p123
sVCharacterOffsetBegin
p124
V20
p125
sVPartOfSpeech
p126
VCC
p127
sVLemma
p128
Vand
p129
saa(lp130
V14
p131
a(dp132
VNormalizedNamedEntityTag
p133
V14.0
p134
sVLemma
p135
V14
p136
sVCharacterOffsetEnd
p137
V26
p138
sVPartOfSpeech
p139
VCD
p140
sVCharacterOffsetBegin
p141
V24
p142
sVNamedEntityTag
p143
VNUMBER
p144
saa(lp145
Vboys
p146
a(dp147
VNamedEntityTag
p148
g72
sVCharacterOffsetEnd
p149
V31
p150
sVCharacterOffsetBegin
p151
V27
p152
sVPartOfSpeech
p153
VNNS
p154
sVLemma
p155
Vboy
p156
saa(lp157
Vtrying
p158
a(dp159
VNamedEntityTag
p160
g72
sVCharacterOffsetEnd
p161
V38
p162
sVCharacterOffsetBegin
p163
V32
p164
sVPartOfSpeech
p165
VVBG
p166
sVLemma
p167
Vtry
p168
saa(lp169
Vout
p170
a(dp171
VNamedEntityTag
p172
g72
sVCharacterOffsetEnd
p173
V42
p174
sVCharacterOffsetBegin
p175
V39
p176
sVPartOfSpeech
p177
VRP
p178
sVLemma
p179
Vout
p180
saa(lp181
Vfor
p182
a(dp183
VNamedEntityTag
p184
g72
sVCharacterOffsetEnd
p185
V46
p186
sVCharacterOffsetBegin
p187
V43
p188
sVPartOfSpeech
p189
VIN
p190
sVLemma
p191
Vfor
p192
saa(lp193
Vthe
p194
a(dp195
VNamedEntityTag
p196
g72
sVCharacterOffsetEnd
p197
V50
p198
sVCharacterOffsetBegin
p199
V47
p200
sVPartOfSpeech
p201
VDT
p202
sVLemma
p203
Vthe
p204
saa(lp205
Vschools
p206
a(dp207
VNamedEntityTag
p208
g72
sVCharacterOffsetEnd
p209
V58
p210
sVCharacterOffsetBegin
p211
V51
p212
sVPartOfSpeech
p213
VNNS
p214
sVLemma
p215
Vschool
p216
saa(lp217
Vbasketball
p218
a(dp219
VNamedEntityTag
p220
g72
sVCharacterOffsetEnd
p221
V69
p222
sVCharacterOffsetBegin
p223
V59
p224
sVPartOfSpeech
p225
VNN
p226
sVLemma
p227
Vbasketball
p228
saa(lp229
Vteam
p230
a(dp231
VNamedEntityTag
p232
g72
sVCharacterOffsetEnd
p233
V74
p234
sVCharacterOffsetBegin
p235
V70
p236
sVPartOfSpeech
p237
VNN
p238
sVLemma
p239
Vteam
p240
saa(lp241
V.
p242
a(dp243
VNamedEntityTag
p244
g72
sVCharacterOffsetEnd
p245
V76
p246
sVCharacterOffsetBegin
p247
V75
p248
sVPartOfSpeech
p249
g242
sVLemma
p250
g242
saasVindexeddependencies
p251
(lp252
(lp253
Vroot
p254
aVROOT-0
p255
aVwere-2
p256
aa(lp257
Vexpl
p258
aVwere-2
p259
aVThere-1
p260
aa(lp261
Vnum
p262
aVgirls-4
p263
aV9-3
p264
aa(lp265
Vnsubj
p266
aVwere-2
p267
aVgirls-4
p268
aa(lp269
Vnum
p270
aVboys-7
p271
aV14-6
p272
aa(lp273
Vconj_and
p274
aVgirls-4
p275
aVboys-7
p276
aa(lp277
Vvmod
p278
aVboys-7
p279
aVtrying-8
p280
aa(lp281
Vprt
p282
aVtrying-8
p283
aVout-9
p284
aa(lp285
Vdet
p286
aVteam-14
p287
aVthe-11
p288
aa(lp289
Vnn
p290
aVteam-14
p291
aVschools-12
p292
aa(lp293
Vnn
p294
aVteam-14
p295
aVbasketball-13
p296
aa(lp297
Vprep_for
p298
aVtrying-8
p299
aVteam-14
p300
aasa(dp301
Vparsetree
p302
V(ROOT (SBARQ (SBAR (IN If) (S (NP (NP (QP (RB only) (CD 2))) (PP (IN of) (NP (PRP them)))) (VP (VBD got) (VP (VBN called) (ADVP (RB back)))))) (, ,) (WHNP (WHADJP (WRB how) (JJ many)) (NNS students)) (SQ (VP (VBD did) (RB n't) (VP (VB make) (NP (DT the) (NN cut))))) (. ?)))
p303
sVtext
p304
VIf only 2 of them got called back , how many students didn't make the cut ?
p305
sVdependencies
p306
(lp307
(lp308
Vroot
p309
aVROOT
p310
aVmake
p311
aa(lp312
Vmark
p313
aVcalled
p314
aVIf
p315
aa(lp316
Vquantmod
p317
aV2
p318
aVonly
p319
aa(lp320
Vnsubjpass
p321
aVcalled
p322
ag318
aa(lp323
Vprep_of
p324
ag318
aVthem
p325
aa(lp326
Vauxpass
p327
aVcalled
p328
aVgot
p329
aa(lp330
Vadvcl
p331
aVmake
p332
aVcalled
p333
aa(lp334
Vadvmod
p335
aVcalled
p336
aVback
p337
aa(lp338
Vadvmod
p339
aVmany
p340
aVhow
p341
aa(lp342
Vamod
p343
aVstudents
p344
aVmany
p345
aa(lp346
Vnsubj
p347
aVmake
p348
aVstudents
p349
aa(lp350
Vaux
p351
aVmake
p352
aVdid
p353
aa(lp354
Vneg
p355
aVmake
p356
aVn't
p357
aa(lp358
Vdet
p359
aVcut
p360
aVthe
p361
aa(lp362
Vdobj
p363
aVmake
p364
aVcut
p365
aasVwords
p366
(lp367
(lp368
VIf
p369
a(dp370
VNamedEntityTag
p371
g72
sVCharacterOffsetEnd
p372
V79
p373
sVCharacterOffsetBegin
p374
V77
p375
sVPartOfSpeech
p376
VIN
p377
sVLemma
p378
Vif
p379
saa(lp380
Vonly
p381
a(dp382
VNamedEntityTag
p383
g72
sVCharacterOffsetEnd
p384
V84
p385
sVCharacterOffsetBegin
p386
V80
p387
sVPartOfSpeech
p388
VRB
p389
sVLemma
p390
Vonly
p391
saa(lp392
g318
a(dp393
VNormalizedNamedEntityTag
p394
V2.0
p395
sVLemma
p396
g318
sVCharacterOffsetEnd
p397
V86
p398
sVPartOfSpeech
p399
VCD
p400
sVCharacterOffsetBegin
p401
V85
p402
sVNamedEntityTag
p403
VNUMBER
p404
saa(lp405
Vof
p406
a(dp407
VNamedEntityTag
p408
g72
sVCharacterOffsetEnd
p409
V89
p410
sVCharacterOffsetBegin
p411
V87
p412
sVPartOfSpeech
p413
VIN
p414
sVLemma
p415
Vof
p416
saa(lp417
Vthem
p418
a(dp419
VNamedEntityTag
p420
g72
sVCharacterOffsetEnd
p421
V94
p422
sVCharacterOffsetBegin
p423
V90
p424
sVPartOfSpeech
p425
VPRP
p426
sVLemma
p427
Vthey
p428
saa(lp429
Vgot
p430
a(dp431
VNamedEntityTag
p432
g72
sVCharacterOffsetEnd
p433
V98
p434
sVCharacterOffsetBegin
p435
V95
p436
sVPartOfSpeech
p437
VVBD
p438
sVLemma
p439
Vget
p440
saa(lp441
Vcalled
p442
a(dp443
VNamedEntityTag
p444
g72
sVCharacterOffsetEnd
p445
V105
p446
sVCharacterOffsetBegin
p447
V99
p448
sVPartOfSpeech
p449
VVBN
p450
sVLemma
p451
Vcall
p452
saa(lp453
Vback
p454
a(dp455
VNamedEntityTag
p456
g72
sVCharacterOffsetEnd
p457
V110
p458
sVCharacterOffsetBegin
p459
V106
p460
sVPartOfSpeech
p461
VRB
p462
sVLemma
p463
Vback
p464
saa(lp465
V,
p466
a(dp467
VNamedEntityTag
p468
g72
sVCharacterOffsetEnd
p469
V112
p470
sVCharacterOffsetBegin
p471
V111
p472
sVPartOfSpeech
p473
g466
sVLemma
p474
g466
saa(lp475
Vhow
p476
a(dp477
VNamedEntityTag
p478
g72
sVCharacterOffsetEnd
p479
V116
p480
sVCharacterOffsetBegin
p481
V113
p482
sVPartOfSpeech
p483
VWRB
p484
sVLemma
p485
Vhow
p486
saa(lp487
Vmany
p488
a(dp489
VNamedEntityTag
p490
g72
sVCharacterOffsetEnd
p491
V121
p492
sVCharacterOffsetBegin
p493
V117
p494
sVPartOfSpeech
p495
VJJ
p496
sVLemma
p497
Vmany
p498
saa(lp499
Vstudents
p500
a(dp501
VNamedEntityTag
p502
g72
sVCharacterOffsetEnd
p503
V130
p504
sVCharacterOffsetBegin
p505
V122
p506
sVPartOfSpeech
p507
VNNS
p508
sVLemma
p509
Vstudent
p510
saa(lp511
Vdid
p512
a(dp513
VNamedEntityTag
p514
g72
sVCharacterOffsetEnd
p515
V134
p516
sVCharacterOffsetBegin
p517
V131
p518
sVPartOfSpeech
p519
VVBD
p520
sVLemma
p521
Vdo
p522
saa(lp523
Vn't
p524
a(dp525
VNamedEntityTag
p526
g72
sVCharacterOffsetEnd
p527
V137
p528
sVCharacterOffsetBegin
p529
V134
p530
sVPartOfSpeech
p531
VRB
p532
sVLemma
p533
Vnot
p534
saa(lp535
Vmake
p536
a(dp537
VNamedEntityTag
p538
g72
sVCharacterOffsetEnd
p539
V142
p540
sVCharacterOffsetBegin
p541
V138
p542
sVPartOfSpeech
p543
VVB
p544
sVLemma
p545
Vmake
p546
saa(lp547
Vthe
p548
a(dp549
VNamedEntityTag
p550
g72
sVCharacterOffsetEnd
p551
V146
p552
sVCharacterOffsetBegin
p553
V143
p554
sVPartOfSpeech
p555
VDT
p556
sVLemma
p557
Vthe
p558
saa(lp559
Vcut
p560
a(dp561
VNamedEntityTag
p562
g72
sVCharacterOffsetEnd
p563
V150
p564
sVCharacterOffsetBegin
p565
V147
p566
sVPartOfSpeech
p567
VNN
p568
sVLemma
p569
Vcut
p570
saa(lp571
V?
p572
a(dp573
VNamedEntityTag
p574
g72
sVCharacterOffsetEnd
p575
V152
p576
sVCharacterOffsetBegin
p577
V151
p578
sVPartOfSpeech
p579
g242
sVLemma
p580
g572
saasVindexeddependencies
p581
(lp582
(lp583
Vroot
p584
aVROOT-0
p585
aVmake-15
p586
aa(lp587
Vmark
p588
aVcalled-7
p589
aVIf-1
p590
aa(lp591
Vquantmod
p592
aV2-3
p593
aVonly-2
p594
aa(lp595
Vnsubjpass
p596
aVcalled-7
p597
aV2-3
p598
aa(lp599
Vprep_of
p600
aV2-3
p601
aVthem-5
p602
aa(lp603
Vauxpass
p604
aVcalled-7
p605
aVgot-6
p606
aa(lp607
Vadvcl
p608
aVmake-15
p609
aVcalled-7
p610
aa(lp611
Vadvmod
p612
aVcalled-7
p613
aVback-8
p614
aa(lp615
Vadvmod
p616
aVmany-11
p617
aVhow-10
p618
aa(lp619
Vamod
p620
aVstudents-12
p621
aVmany-11
p622
aa(lp623
Vnsubj
p624
aVmake-15
p625
aVstudents-12
p626
aa(lp627
Vaux
p628
aVmake-15
p629
aVdid-13
p630
aa(lp631
Vneg
p632
aVmake-15
p633
aVn't-14
p634
aa(lp635
Vdet
p636
aVcut-17
p637
aVthe-16
p638
aa(lp639
Vdobj
p640
aVmake-15
p641
aVcut-17
p642
aasas.