(dp0
Vcoref
p1
(lp2
(lp3
(lp4
(lp5
VKarlene
p6
aI2
aI5
aI5
aI6
aa(lp7
VKarlene
p8
aI0
aI8
aI8
aI9
aaaa(lp9
(lp10
(lp11
VThe tray
p12
aI1
aI1
aI0
aI2
aa(lp13
Va tray of caramel brownies and walnut brownies
p14
aI0
aI12
aI11
aI19
aaaa(lp15
(lp16
(lp17
Vbrownies
p18
aI2
aI3
aI3
aI4
aa(lp19
Vcaramel brownies and walnut brownies
p20
aI0
aI18
aI14
aI19
aaaasVsentences
p21
(lp22
(dp23
Vparsetree
p24
V(ROOT (S (S (VP (TO To) (VP (VB celebrate) (NP (NP (DT the) (JJ first) (NN day)) (PP (IN of) (NP (NN school))))))) (, ,) (NP (NNP Karlene)) (VP (VBD brought) (PRT (RP in)) (NP (NP (DT a) (NN tray)) (PP (IN of) (NP (NN caramel) (NNS brownies) (CC and) (NN walnut) (NNS brownies))))) (. .)))
p25
sVtext
p26
VTo celebrate the first day of school , Karlene brought in a tray of caramel brownies and walnut brownies .
p27
sVdependencies
p28
(lp29
(lp30
Vroot
p31
aVROOT
p32
aVbrought
p33
aa(lp34
Vaux
p35
aVcelebrate
p36
aVTo
p37
aa(lp38
Vadvcl
p39
aVbrought
p40
aVcelebrate
p41
aa(lp42
Vdet
p43
aVday
p44
aVthe
p45
aa(lp46
Vamod
p47
aVday
p48
aVfirst
p49
aa(lp50
Vdobj
p51
aVcelebrate
p52
aVday
p53
aa(lp54
Vprep_of
p55
aVday
p56
aVschool
p57
aa(lp58
Vnsubj
p59
aVbrought
p60
aVKarlene
p61
aa(lp62
Vprt
p63
aVbrought
p64
aVin
p65
aa(lp66
Vdet
p67
aVtray
p68
aVa
p69
aa(lp70
Vdobj
p71
aVbrought
p72
aVtray
p73
aa(lp74
Vnn
p75
aVbrownies
p76
aVcaramel
p77
aa(lp78
Vprep_of
p79
aVtray
p80
aVbrownies
p81
aa(lp82
Vnn
p83
aVbrownies
p84
aVwalnut
p85
aa(lp86
Vconj_and
p87
aVbrownies
p88
aVbrownies
p89
aasVwords
p90
(lp91
(lp92
VTo
p93
a(dp94
VNamedEntityTag
p95
VO
p96
sVCharacterOffsetEnd
p97
V3
p98
sVCharacterOffsetBegin
p99
V1
p100
sVPartOfSpeech
p101
VTO
p102
sVLemma
p103
Vto
p104
saa(lp105
Vcelebrate
p106
a(dp107
VNamedEntityTag
p108
g96
sVCharacterOffsetEnd
p109
V13
p110
sVCharacterOffsetBegin
p111
V4
p112
sVPartOfSpeech
p113
VVB
p114
sVLemma
p115
Vcelebrate
p116
saa(lp117
Vthe
p118
a(dp119
VNormalizedNamedEntityTag
p120
VPXD
p121
sVTimex
p122
V<TIMEX3 tid="t1" type="DURATION" value="PXD">the first day</TIMEX3>
p123
sVLemma
p124
Vthe
p125
sVCharacterOffsetEnd
p126
V17
p127
sVPartOfSpeech
p128
VDT
p129
sVCharacterOffsetBegin
p130
V14
p131
sVNamedEntityTag
p132
VDURATION
p133
saa(lp134
Vfirst
p135
a(dp136
VNormalizedNamedEntityTag
p137
VPXD
p138
sVTimex
p139
V<TIMEX3 tid="t1" type="DURATION" value="PXD">the first day</TIMEX3>
p140
sVLemma
p141
Vfirst
p142
sVCharacterOffsetEnd
p143
V23
p144
sVPartOfSpeech
p145
VJJ
p146
sVCharacterOffsetBegin
p147
V18
p148
sVNamedEntityTag
p149
VDURATION
p150
saa(lp151
Vday
p152
a(dp153
VNormalizedNamedEntityTag
p154
VPXD
p155
sVTimex
p156
V<TIMEX3 tid="t1" type="DURATION" value="PXD">the first day</TIMEX3>
p157
sVLemma
p158
Vday
p159
sVCharacterOffsetEnd
p160
V27
p161
sVPartOfSpeech
p162
VNN
p163
sVCharacterOffsetBegin
p164
V24
p165
sVNamedEntityTag
p166
VDURATION
p167
saa(lp168
Vof
p169
a(dp170
VNamedEntityTag
p171
g96
sVCharacterOffsetEnd
p172
V30
p173
sVCharacterOffsetBegin
p174
V28
p175
sVPartOfSpeech
p176
VIN
p177
sVLemma
p178
Vof
p179
saa(lp180
Vschool
p181
a(dp182
VNamedEntityTag
p183
g96
sVCharacterOffsetEnd
p184
V37
p185
sVCharacterOffsetBegin
p186
V31
p187
sVPartOfSpeech
p188
VNN
p189
sVLemma
p190
Vschool
p191
saa(lp192
V,
p193
a(dp194
VNamedEntityTag
p195
g96
sVCharacterOffsetEnd
p196
V39
p197
sVCharacterOffsetBegin
p198
V38
p199
sVPartOfSpeech
p200
g193
sVLemma
p201
g193
saa(lp202
VKarlene
p203
a(dp204
VNamedEntityTag
p205
VPERSON
p206
sVCharacterOffsetEnd
p207
V47
p208
sVCharacterOffsetBegin
p209
V40
p210
sVPartOfSpeech
p211
VNNP
p212
sVLemma
p213
VKarlene
p214
saa(lp215
Vbrought
p216
a(dp217
VNamedEntityTag
p218
g96
sVCharacterOffsetEnd
p219
V55
p220
sVCharacterOffsetBegin
p221
V48
p222
sVPartOfSpeech
p223
VVBD
p224
sVLemma
p225
Vbring
p226
saa(lp227
Vin
p228
a(dp229
VNamedEntityTag
p230
g96
sVCharacterOffsetEnd
p231
V58
p232
sVCharacterOffsetBegin
p233
V56
p234
sVPartOfSpeech
p235
VRP
p236
sVLemma
p237
Vin
p238
saa(lp239
g69
a(dp240
VNamedEntityTag
p241
g96
sVCharacterOffsetEnd
p242
V60
p243
sVCharacterOffsetBegin
p244
V59
p245
sVPartOfSpeech
p246
VDT
p247
sVLemma
p248
g69
saa(lp249
Vtray
p250
a(dp251
VNamedEntityTag
p252
g96
sVCharacterOffsetEnd
p253
V65
p254
sVCharacterOffsetBegin
p255
V61
p256
sVPartOfSpeech
p257
VNN
p258
sVLemma
p259
Vtray
p260
saa(lp261
Vof
p262
a(dp263
VNamedEntityTag
p264
g96
sVCharacterOffsetEnd
p265
V68
p266
sVCharacterOffsetBegin
p267
V66
p268
sVPartOfSpeech
p269
VIN
p270
sVLemma
p271
Vof
p272
saa(lp273
Vcaramel
p274
a(dp275
VNamedEntityTag
p276
g96
sVCharacterOffsetEnd
p277
V76
p278
sVCharacterOffsetBegin
p279
V69
p280
sVPartOfSpeech
p281
VNN
p282
sVLemma
p283
Vcaramel
p284
saa(lp285
Vbrownies
p286
a(dp287
VNamedEntityTag
p288
g96
sVCharacterOffsetEnd
p289
V85
p290
sVCharacterOffsetBegin
p291
V77
p292
sVPartOfSpeech
p293
VNNS
p294
sVLemma
p295
Vbrownie
p296
saa(lp297
Vand
p298
a(dp299
VNamedEntityTag
p300
g96
sVCharacterOffsetEnd
p301
V89
p302
sVCharacterOffsetBegin
p303
V86
p304
sVPartOfSpeech
p305
VCC
p306
sVLemma
p307
Vand
p308
saa(lp309
Vwalnut
p310
a(dp311
VNamedEntityTag
p312
g96
sVCharacterOffsetEnd
p313
V96
p314
sVCharacterOffsetBegin
p315
V90
p316
sVPartOfSpeech
p317
VNN
p318
sVLemma
p319
Vwalnut
p320
saa(lp321
Vbrownies
p322
a(dp323
VNamedEntityTag
p324
g96
sVCharacterOffsetEnd
p325
V105
p326
sVCharacterOffsetBegin
p327
V97
p328
sVPartOfSpeech
p329
VNNS
p330
sVLemma
p331
Vbrownie
p332
saa(lp333
V.
p334
a(dp335
VNamedEntityTag
p336
g96
sVCharacterOffsetEnd
p337
V107
p338
sVCharacterOffsetBegin
p339
V106
p340
sVPartOfSpeech
p341
g334
sVLemma
p342
g334
saasVindexeddependencies
p343
(lp344
(lp345
Vroot
p346
aVROOT-0
p347
aVbrought-10
p348
aa(lp349
Vaux
p350
aVcelebrate-2
p351
aVTo-1
p352
aa(lp353
Vadvcl
p354
aVbrought-10
p355
aVcelebrate-2
p356
aa(lp357
Vdet
p358
aVday-5
p359
aVthe-3
p360
aa(lp361
Vamod
p362
aVday-5
p363
aVfirst-4
p364
aa(lp365
Vdobj
p366
aVcelebrate-2
p367
aVday-5
p368
aa(lp369
Vprep_of
p370
aVday-5
p371
aVschool-7
p372
aa(lp373
Vnsubj
p374
aVbrought-10
p375
aVKarlene-9
p376
aa(lp377
Vprt
p378
aVbrought-10
p379
aVin-11
p380
aa(lp381
Vdet
p382
aVtray-13
p383
aVa-12
p384
aa(lp385
Vdobj
p386
aVbrought-10
p387
aVtray-13
p388
aa(lp389
Vnn
p390
aVbrownies-16
p391
aVcaramel-15
p392
aa(lp393
Vprep_of
p394
aVtray-13
p395
aVbrownies-16
p396
aa(lp397
Vnn
p398
aVbrownies-19
p399
aVwalnut-18
p400
aa(lp401
Vconj_and
p402
aVbrownies-16
p403
aVbrownies-19
p404
aasa(dp405
Vparsetree
p406
V(ROOT (S (NP (DT The) (NN tray)) (VP (VBD had) (NP (NP (DT a) (NN total)) (PP (IN of) (NP (NP (CD 85) (NNS brownies)) (, ,) (SBAR (WHPP (IN of) (WHNP (WDT which))) (S (NP (CD 0.2) (NNS times)) (VP (VBD were) (NP (NN caramel))))))))) (. .)))
p407
sVtext
p408
VThe tray had a total of 85 brownies , of which 0.2 times were caramel .
p409
sVdependencies
p410
(lp411
(lp412
Vroot
p413
aVROOT
p414
aVhad
p415
aa(lp416
Vdet
p417
aVtray
p418
aVThe
p419
aa(lp420
Vnsubj
p421
aVhad
p422
aVtray
p423
aa(lp424
Vdet
p425
aVtotal
p426
ag69
aa(lp427
Vdobj
p428
aVhad
p429
aVtotal
p430
aa(lp431
Vnum
p432
aVbrownies
p433
aV85
p434
aa(lp435
Vprep_of
p436
aVtotal
p437
aVbrownies
p438
aa(lp439
Vprep_of
p440
aVcaramel
p441
aVwhich
p442
aa(lp443
Vnum
p444
aVtimes
p445
aV0.2
p446
aa(lp447
Vnsubj
p448
aVcaramel
p449
aVtimes
p450
aa(lp451
Vcop
p452
aVcaramel
p453
aVwere
p454
aa(lp455
Vrcmod
p456
aVbrownies
p457
aVcaramel
p458
aasVwords
p459
(lp460
(lp461
VThe
p462
a(dp463
VNamedEntityTag
p464
g96
sVCharacterOffsetEnd
p465
V111
p466
sVCharacterOffsetBegin
p467
V108
p468
sVPartOfSpeech
p469
VDT
p470
sVLemma
p471
Vthe
p472
saa(lp473
Vtray
p474
a(dp475
VNamedEntityTag
p476
g96
sVCharacterOffsetEnd
p477
V116
p478
sVCharacterOffsetBegin
p479
V112
p480
sVPartOfSpeech
p481
VNN
p482
sVLemma
p483
Vtray
p484
saa(lp485
Vhad
p486
a(dp487
VNamedEntityTag
p488
g96
sVCharacterOffsetEnd
p489
V120
p490
sVCharacterOffsetBegin
p491
V117
p492
sVPartOfSpeech
p493
VVBD
p494
sVLemma
p495
Vhave
p496
saa(lp497
g69
a(dp498
VNamedEntityTag
p499
g96
sVCharacterOffsetEnd
p500
V122
p501
sVCharacterOffsetBegin
p502
V121
p503
sVPartOfSpeech
p504
VDT
p505
sVLemma
p506
g69
saa(lp507
Vtotal
p508
a(dp509
VNamedEntityTag
p510
g96
sVCharacterOffsetEnd
p511
V128
p512
sVCharacterOffsetBegin
p513
V123
p514
sVPartOfSpeech
p515
VNN
p516
sVLemma
p517
Vtotal
p518
saa(lp519
Vof
p520
a(dp521
VNamedEntityTag
p522
g96
sVCharacterOffsetEnd
p523
V131
p524
sVCharacterOffsetBegin
p525
V129
p526
sVPartOfSpeech
p527
VIN
p528
sVLemma
p529
Vof
p530
saa(lp531
V85
p532
a(dp533
VNormalizedNamedEntityTag
p534
V85.0
p535
sVLemma
p536
V85
p537
sVCharacterOffsetEnd
p538
V134
p539
sVPartOfSpeech
p540
VCD
p541
sVCharacterOffsetBegin
p542
V132
p543
sVNamedEntityTag
p544
VNUMBER
p545
saa(lp546
Vbrownies
p547
a(dp548
VNamedEntityTag
p549
g96
sVCharacterOffsetEnd
p550
V143
p551
sVCharacterOffsetBegin
p552
V135
p553
sVPartOfSpeech
p554
VNNS
p555
sVLemma
p556
Vbrownie
p557
saa(lp558
g193
a(dp559
VNamedEntityTag
p560
g96
sVCharacterOffsetEnd
p561
V145
p562
sVCharacterOffsetBegin
p563
V144
p564
sVPartOfSpeech
p565
g193
sVLemma
p566
g193
saa(lp567
Vof
p568
a(dp569
VNamedEntityTag
p570
g96
sVCharacterOffsetEnd
p571
V148
p572
sVCharacterOffsetBegin
p573
V146
p574
sVPartOfSpeech
p575
VIN
p576
sVLemma
p577
Vof
p578
saa(lp579
Vwhich
p580
a(dp581
VNamedEntityTag
p582
g96
sVCharacterOffsetEnd
p583
V154
p584
sVCharacterOffsetBegin
p585
V149
p586
sVPartOfSpeech
p587
VWDT
p588
sVLemma
p589
Vwhich
p590
saa(lp591
V0.2
p592
a(dp593
VNormalizedNamedEntityTag
p594
V0.2
p595
sVLemma
p596
V0.2
p597
sVCharacterOffsetEnd
p598
V158
p599
sVPartOfSpeech
p600
VCD
p601
sVCharacterOffsetBegin
p602
V155
p603
sVNamedEntityTag
p604
VNUMBER
p605
saa(lp606
Vtimes
p607
a(dp608
VNamedEntityTag
p609
g96
sVCharacterOffsetEnd
p610
V164
p611
sVCharacterOffsetBegin
p612
V159
p613
sVPartOfSpeech
p614
VNNS
p615
sVLemma
p616
Vtime
p617
saa(lp618
Vwere
p619
a(dp620
VNamedEntityTag
p621
g96
sVCharacterOffsetEnd
p622
V169
p623
sVCharacterOffsetBegin
p624
V165
p625
sVPartOfSpeech
p626
VVBD
p627
sVLemma
p628
Vbe
p629
saa(lp630
Vcaramel
p631
a(dp632
VNamedEntityTag
p633
g96
sVCharacterOffsetEnd
p634
V177
p635
sVCharacterOffsetBegin
p636
V170
p637
sVPartOfSpeech
p638
VNN
p639
sVLemma
p640
Vcaramel
p641
saa(lp642
g334
a(dp643
VNamedEntityTag
p644
g96
sVCharacterOffsetEnd
p645
V179
p646
sVCharacterOffsetBegin
p647
V178
p648
sVPartOfSpeech
p649
g334
sVLemma
p650
g334
saasVindexeddependencies
p651
(lp652
(lp653
Vroot
p654
aVROOT-0
p655
aVhad-3
p656
aa(lp657
Vdet
p658
aVtray-2
p659
aVThe-1
p660
aa(lp661
Vnsubj
p662
aVhad-3
p663
aVtray-2
p664
aa(lp665
Vdet
p666
aVtotal-5
p667
aVa-4
p668
aa(lp669
Vdobj
p670
aVhad-3
p671
aVtotal-5
p672
aa(lp673
Vnum
p674
aVbrownies-8
p675
aV85-7
p676
aa(lp677
Vprep_of
p678
aVtotal-5
p679
aVbrownies-8
p680
aa(lp681
Vprep_of
p682
aVcaramel-15
p683
aVwhich-11
p684
aa(lp685
Vnum
p686
aVtimes-13
p687
aV0.2-12
p688
aa(lp689
Vnsubj
p690
aVcaramel-15
p691
aVtimes-13
p692
aa(lp693
Vcop
p694
aVcaramel-15
p695
aVwere-14
p696
aa(lp697
Vrcmod
p698
aVbrownies-8
p699
aVcaramel-15
p700
aasa(dp701
Vparsetree
p702
V(ROOT (SBARQ (WHNP (WHADJP (WRB How) (JJ many)) (NP (NP (NN caramel)) (NP (NNS brownies)))) (SQ (VBD did) (NP (NNP Karlene)) (VP (VB bring))) (. ?)))
p703
sVtext
p704
VHow many caramel brownies did Karlene bring ?
p705
sVdependencies
p706
(lp707
(lp708
Vroot
p709
aVROOT
p710
aVbring
p711
aa(lp712
Vadvmod
p713
aVmany
p714
aVHow
p715
aa(lp716
Vamod
p717
aVcaramel
p718
aVmany
p719
aa(lp720
Vdobj
p721
aVbring
p722
aVcaramel
p723
aa(lp724
Vdep
p725
aVcaramel
p726
aVbrownies
p727
aa(lp728
Vaux
p729
aVbring
p730
aVdid
p731
aa(lp732
Vnsubj
p733
aVbring
p734
aVKarlene
p735
aasVwords
p736
(lp737
(lp738
VHow
p739
a(dp740
VNamedEntityTag
p741
g96
sVCharacterOffsetEnd
p742
V183
p743
sVCharacterOffsetBegin
p744
V180
p745
sVPartOfSpeech
p746
VWRB
p747
sVLemma
p748
Vhow
p749
saa(lp750
Vmany
p751
a(dp752
VNamedEntityTag
p753
g96
sVCharacterOffsetEnd
p754
V188
p755
sVCharacterOffsetBegin
p756
V184
p757
sVPartOfSpeech
p758
VJJ
p759
sVLemma
p760
Vmany
p761
saa(lp762
Vcaramel
p763
a(dp764
VNamedEntityTag
p765
g96
sVCharacterOffsetEnd
p766
V196
p767
sVCharacterOffsetBegin
p768
V189
p769
sVPartOfSpeech
p770
VNN
p771
sVLemma
p772
Vcaramel
p773
saa(lp774
Vbrownies
p775
a(dp776
VNamedEntityTag
p777
g96
sVCharacterOffsetEnd
p778
V205
p779
sVCharacterOffsetBegin
p780
V197
p781
sVPartOfSpeech
p782
VNNS
p783
sVLemma
p784
Vbrownie
p785
saa(lp786
Vdid
p787
a(dp788
VNamedEntityTag
p789
g96
sVCharacterOffsetEnd
p790
V209
p791
sVCharacterOffsetBegin
p792
V206
p793
sVPartOfSpeech
p794
VVBD
p795
sVLemma
p796
Vdo
p797
saa(lp798
VKarlene
p799
a(dp800
VNamedEntityTag
p801
VPERSON
p802
sVCharacterOffsetEnd
p803
V217
p804
sVCharacterOffsetBegin
p805
V210
p806
sVPartOfSpeech
p807
VNNP
p808
sVLemma
p809
VKarlene
p810
saa(lp811
Vbring
p812
a(dp813
VNamedEntityTag
p814
g96
sVCharacterOffsetEnd
p815
V223
p816
sVCharacterOffsetBegin
p817
V218
p818
sVPartOfSpeech
p819
VVB
p820
sVLemma
p821
Vbring
p822
saa(lp823
V?
p824
a(dp825
VNamedEntityTag
p826
g96
sVCharacterOffsetEnd
p827
V225
p828
sVCharacterOffsetBegin
p829
V224
p830
sVPartOfSpeech
p831
g334
sVLemma
p832
g824
saasVindexeddependencies
p833
(lp834
(lp835
Vroot
p836
aVROOT-0
p837
aVbring-7
p838
aa(lp839
Vadvmod
p840
aVmany-2
p841
aVHow-1
p842
aa(lp843
Vamod
p844
aVcaramel-3
p845
aVmany-2
p846
aa(lp847
Vdobj
p848
aVbring-7
p849
aVcaramel-3
p850
aa(lp851
Vdep
p852
aVcaramel-3
p853
aVbrownies-4
p854
aa(lp855
Vaux
p856
aVbring-7
p857
aVdid-5
p858
aa(lp859
Vnsubj
p860
aVbring-7
p861
aVKarlene-6
p862
aasas.