(dp0
Vcoref
p1
(lp2
(lp3
(lp4
(lp5
Vshe
p6
aI1
aI1
aI1
aI2
aa(lp7
VMaria
p8
aI0
aI3
aI3
aI4
aaa(lp9
(lp10
Vher
p11
aI1
aI3
aI3
aI4
aa(lp12
VMaria
p13
aI0
aI3
aI3
aI4
aaa(lp14
(lp15
VMaria
p16
aI1
aI13
aI13
aI14
aa(lp17
VMaria
p18
aI0
aI3
aI3
aI4
aaaasVsentences
p19
(lp20
(dp21
Vparsetree
p22
V(ROOT (S (SBAR (IN While) (FRAG (NP (NN shopping)))) (, ,) (NP (NNP Maria)) (VP (VBD bought) (NP (NP (CD 40) (JJ green) (NNS towels)) (CC and) (NP (CD 44) (JJ white) (NNS towels)))) (. .)))
p23
sVtext
p24
VWhile shopping , Maria bought 40 green towels and 44 white towels .
p25
sVdependencies
p26
(lp27
(lp28
Vroot
p29
aVROOT
p30
aVbought
p31
aa(lp32
Vmark
p33
aVshopping
p34
aVWhile
p35
aa(lp36
Vadvcl
p37
aVbought
p38
aVshopping
p39
aa(lp40
Vnsubj
p41
aVbought
p42
aVMaria
p43
aa(lp44
Vnum
p45
aVtowels
p46
aV40
p47
aa(lp48
Vamod
p49
aVtowels
p50
aVgreen
p51
aa(lp52
Vdobj
p53
aVbought
p54
aVtowels
p55
aa(lp56
Vnum
p57
aVtowels
p58
aV44
p59
aa(lp60
Vamod
p61
aVtowels
p62
aVwhite
p63
aa(lp64
Vconj_and
p65
aVtowels
p66
aVtowels
p67
aasVwords
p68
(lp69
(lp70
VWhile
p71
a(dp72
VNamedEntityTag
p73
VO
p74
sVCharacterOffsetEnd
p75
V6
p76
sVCharacterOffsetBegin
p77
V1
p78
sVPartOfSpeech
p79
VIN
p80
sVLemma
p81
Vwhile
p82
saa(lp83
Vshopping
p84
a(dp85
VNamedEntityTag
p86
g74
sVCharacterOffsetEnd
p87
V15
p88
sVCharacterOffsetBegin
p89
V7
p90
sVPartOfSpeech
p91
VNN
p92
sVLemma
p93
Vshopping
p94
saa(lp95
V,
p96
a(dp97
VNamedEntityTag
p98
g74
sVCharacterOffsetEnd
p99
V17
p100
sVCharacterOffsetBegin
p101
V16
p102
sVPartOfSpeech
p103
g96
sVLemma
p104
g96
saa(lp105
VMaria
p106
a(dp107
VNamedEntityTag
p108
VPERSON
p109
sVCharacterOffsetEnd
p110
V23
p111
sVCharacterOffsetBegin
p112
V18
p113
sVPartOfSpeech
p114
VNNP
p115
sVLemma
p116
VMaria
p117
saa(lp118
Vbought
p119
a(dp120
VNamedEntityTag
p121
g74
sVCharacterOffsetEnd
p122
V30
p123
sVCharacterOffsetBegin
p124
V24
p125
sVPartOfSpeech
p126
VVBD
p127
sVLemma
p128
Vbuy
p129
saa(lp130
V40
p131
a(dp132
VNormalizedNamedEntityTag
p133
V40.0
p134
sVLemma
p135
V40
p136
sVCharacterOffsetEnd
p137
V33
p138
sVPartOfSpeech
p139
VCD
p140
sVCharacterOffsetBegin
p141
V31
p142
sVNamedEntityTag
p143
VNUMBER
p144
saa(lp145
Vgreen
p146
a(dp147
VNamedEntityTag
p148
g74
sVCharacterOffsetEnd
p149
V39
p150
sVCharacterOffsetBegin
p151
V34
p152
sVPartOfSpeech
p153
VJJ
p154
sVLemma
p155
Vgreen
p156
saa(lp157
Vtowels
p158
a(dp159
VNamedEntityTag
p160
g74
sVCharacterOffsetEnd
p161
V46
p162
sVCharacterOffsetBegin
p163
V40
p164
sVPartOfSpeech
p165
VNNS
p166
sVLemma
p167
Vtowel
p168
saa(lp169
Vand
p170
a(dp171
VNamedEntityTag
p172
g74
sVCharacterOffsetEnd
p173
V50
p174
sVCharacterOffsetBegin
p175
V47
p176
sVPartOfSpeech
p177
VCC
p178
sVLemma
p179
Vand
p180
saa(lp181
V44
p182
a(dp183
VNormalizedNamedEntityTag
p184
V44.0
p185
sVLemma
p186
V44
p187
sVCharacterOffsetEnd
p188
V53
p189
sVPartOfSpeech
p190
VCD
p191
sVCharacterOffsetBegin
p192
V51
p193
sVNamedEntityTag
p194
VNUMBER
p195
saa(lp196
Vwhite
p197
a(dp198
VNamedEntityTag
p199
g74
sVCharacterOffsetEnd
p200
V59
p201
sVCharacterOffsetBegin
p202
V54
p203
sVPartOfSpeech
p204
VJJ
p205
sVLemma
p206
Vwhite
p207
saa(lp208
Vtowels
p209
a(dp210
VNamedEntityTag
p211
g74
sVCharacterOffsetEnd
p212
V66
p213
sVCharacterOffsetBegin
p214
V60
p215
sVPartOfSpeech
p216
VNNS
p217
sVLemma
p218
Vtowel
p219
saa(lp220
V.
p221
a(dp222
VNamedEntityTag
p223
g74
sVCharacterOffsetEnd
p224
V68
p225
sVCharacterOffsetBegin
p226
V67
p227
sVPartOfSpeech
p228
g221
sVLemma
p229
g221
saasVindexeddependencies
p230
(lp231
(lp232
Vroot
p233
aVROOT-0
p234
aVbought-5
p235
aa(lp236
Vmark
p237
aVshopping-2
p238
aVWhile-1
p239
aa(lp240
Vadvcl
p241
aVbought-5
p242
aVshopping-2
p243
aa(lp244
Vnsubj
p245
aVbought-5
p246
aVMaria-4
p247
aa(lp248
Vnum
p249
aVtowels-8
p250
aV40-6
p251
aa(lp252
Vamod
p253
aVtowels-8
p254
aVgreen-7
p255
aa(lp256
Vdobj
p257
aVbought-5
p258
aVtowels-8
p259
aa(lp260
Vnum
p261
aVtowels-12
p262
aV44-10
p263
aa(lp264
Vamod
p265
aVtowels-12
p266
aVwhite-11
p267
aa(lp268
Vconj_and
p269
aVtowels-8
p270
aVtowels-12
p271
aasa(dp272
Vparsetree
p273
V(ROOT (SBARQ (SBAR (IN If) (S (NP (PRP she)) (VP (VBD gave) (NP (PRP$ her) (NN mother)) (NP (NP (CD 65)) (PP (IN of) (NP (PRP them))))))) (, ,) (WHNP (WHADJP (WRB how) (JJ many)) (NNS towels)) (SQ (VBD did) (NP (NNP Maria)) (VP (VB end) (PRT (RP up)) (PP (IN with)))) (. ?)))
p274
sVtext
p275
VIf she gave her mother 65 of them , how many towels did Maria end up with ?
p276
sVdependencies
p277
(lp278
(lp279
Vroot
p280
aVROOT
p281
aVend
p282
aa(lp283
Vmark
p284
aVgave
p285
aVIf
p286
aa(lp287
Vnsubj
p288
aVgave
p289
aVshe
p290
aa(lp291
Vadvcl
p292
aVend
p293
aVgave
p294
aa(lp295
Vposs
p296
aVmother
p297
aVher
p298
aa(lp299
Vdep
p300
aVgave
p301
aVmother
p302
aa(lp303
Vdobj
p304
aVgave
p305
aV65
p306
aa(lp307
Vprep_of
p308
aV65
p309
aVthem
p310
aa(lp311
Vadvmod
p312
aVmany
p313
aVhow
p314
aa(lp315
Vamod
p316
aVtowels
p317
aVmany
p318
aa(lp319
Vdep
p320
aVend
p321
aVtowels
p322
aa(lp323
Vaux
p324
aVend
p325
aVdid
p326
aa(lp327
Vnsubj
p328
aVend
p329
aVMaria
p330
aa(lp331
Vprt
p332
aVend
p333
aVup
p334
aa(lp335
Vprep
p336
aVend
p337
aVwith
p338
aasVwords
p339
(lp340
(lp341
VIf
p342
a(dp343
VNamedEntityTag
p344
g74
sVCharacterOffsetEnd
p345
V71
p346
sVCharacterOffsetBegin
p347
V69
p348
sVPartOfSpeech
p349
VIN
p350
sVLemma
p351
Vif
p352
saa(lp353
Vshe
p354
a(dp355
VNamedEntityTag
p356
g74
sVCharacterOffsetEnd
p357
V75
p358
sVCharacterOffsetBegin
p359
V72
p360
sVPartOfSpeech
p361
VPRP
p362
sVLemma
p363
Vshe
p364
saa(lp365
Vgave
p366
a(dp367
VNamedEntityTag
p368
g74
sVCharacterOffsetEnd
p369
V80
p370
sVCharacterOffsetBegin
p371
V76
p372
sVPartOfSpeech
p373
VVBD
p374
sVLemma
p375
Vgive
p376
saa(lp377
Vher
p378
a(dp379
VNamedEntityTag
p380
g74
sVCharacterOffsetEnd
p381
V84
p382
sVCharacterOffsetBegin
p383
V81
p384
sVPartOfSpeech
p385
VPRP$
p386
sVLemma
p387
Vshe
p388
saa(lp389
Vmother
p390
a(dp391
VNamedEntityTag
p392
g74
sVCharacterOffsetEnd
p393
V91
p394
sVCharacterOffsetBegin
p395
V85
p396
sVPartOfSpeech
p397
VNN
p398
sVLemma
p399
Vmother
p400
saa(lp401
V65
p402
a(dp403
VNormalizedNamedEntityTag
p404
V65.0
p405
sVLemma
p406
V65
p407
sVCharacterOffsetEnd
p408
V94
p409
sVPartOfSpeech
p410
VCD
p411
sVCharacterOffsetBegin
p412
V92
p413
sVNamedEntityTag
p414
VNUMBER
p415
saa(lp416
Vof
p417
a(dp418
VNamedEntityTag
p419
g74
sVCharacterOffsetEnd
p420
V97
p421
sVCharacterOffsetBegin
p422
V95
p423
sVPartOfSpeech
p424
VIN
p425
sVLemma
p426
Vof
p427
saa(lp428
Vthem
p429
a(dp430
VNamedEntityTag
p431
g74
sVCharacterOffsetEnd
p432
V102
p433
sVCharacterOffsetBegin
p434
V98
p435
sVPartOfSpeech
p436
VPRP
p437
sVLemma
p438
Vthey
p439
saa(lp440
g96
a(dp441
VNamedEntityTag
p442
g74
sVCharacterOffsetEnd
p443
V104
p444
sVCharacterOffsetBegin
p445
V103
p446
sVPartOfSpeech
p447
g96
sVLemma
p448
g96
saa(lp449
Vhow
p450
a(dp451
VNamedEntityTag
p452
g74
sVCharacterOffsetEnd
p453
V108
p454
sVCharacterOffsetBegin
p455
V105
p456
sVPartOfSpeech
p457
VWRB
p458
sVLemma
p459
Vhow
p460
saa(lp461
Vmany
p462
a(dp463
VNamedEntityTag
p464
g74
sVCharacterOffsetEnd
p465
V113
p466
sVCharacterOffsetBegin
p467
V109
p468
sVPartOfSpeech
p469
VJJ
p470
sVLemma
p471
Vmany
p472
saa(lp473
Vtowels
p474
a(dp475
VNamedEntityTag
p476
g74
sVCharacterOffsetEnd
p477
V120
p478
sVCharacterOffsetBegin
p479
V114
p480
sVPartOfSpeech
p481
VNNS
p482
sVLemma
p483
Vtowel
p484
saa(lp485
Vdid
p486
a(dp487
VNamedEntityTag
p488
g74
sVCharacterOffsetEnd
p489
V124
p490
sVCharacterOffsetBegin
p491
V121
p492
sVPartOfSpeech
p493
VVBD
p494
sVLemma
p495
Vdo
p496
saa(lp497
VMaria
p498
a(dp499
VNamedEntityTag
p500
VPERSON
p501
sVCharacterOffsetEnd
p502
V130
p503
sVCharacterOffsetBegin
p504
V125
p505
sVPartOfSpeech
p506
VNNP
p507
sVLemma
p508
VMaria
p509
saa(lp510
Vend
p511
a(dp512
VNamedEntityTag
p513
g74
sVCharacterOffsetEnd
p514
V134
p515
sVCharacterOffsetBegin
p516
V131
p517
sVPartOfSpeech
p518
VVB
p519
sVLemma
p520
Vend
p521
saa(lp522
Vup
p523
a(dp524
VNamedEntityTag
p525
g74
sVCharacterOffsetEnd
p526
V137
p527
sVCharacterOffsetBegin
p528
V135
p529
sVPartOfSpeech
p530
VRP
p531
sVLemma
p532
Vup
p533
saa(lp534
Vwith
p535
a(dp536
VNamedEntityTag
p537
g74
sVCharacterOffsetEnd
p538
V142
p539
sVCharacterOffsetBegin
p540
V138
p541
sVPartOfSpeech
p542
VIN
p543
sVLemma
p544
Vwith
p545
saa(lp546
V?
p547
a(dp548
VNamedEntityTag
p549
g74
sVCharacterOffsetEnd
p550
V144
p551
sVCharacterOffsetBegin
p552
V143
p553
sVPartOfSpeech
p554
g221
sVLemma
p555
g547
saasVindexeddependencies
p556
(lp557
(lp558
Vroot
p559
aVROOT-0
p560
aVend-15
p561
aa(lp562
Vmark
p563
aVgave-3
p564
aVIf-1
p565
aa(lp566
Vnsubj
p567
aVgave-3
p568
aVshe-2
p569
aa(lp570
Vadvcl
p571
aVend-15
p572
aVgave-3
p573
aa(lp574
Vposs
p575
aVmother-5
p576
aVher-4
p577
aa(lp578
Vdep
p579
aVgave-3
p580
aVmother-5
p581
aa(lp582
Vdobj
p583
aVgave-3
p584
aV65-6
p585
aa(lp586
Vprep_of
p587
aV65-6
p588
aVthem-8
p589
aa(lp590
Vadvmod
p591
aVmany-11
p592
aVhow-10
p593
aa(lp594
Vamod
p595
aVtowels-12
p596
aVmany-11
p597
aa(lp598
Vdep
p599
aVend-15
p600
aVtowels-12
p601
aa(lp602
Vaux
p603
aVend-15
p604
aVdid-13
p605
aa(lp606
Vnsubj
p607
aVend-15
p608
aVMaria-14
p609
aa(lp610
Vprt
p611
aVend-15
p612
aVup-16
p613
aa(lp614
Vprep
p615
aVend-15
p616
aVwith-17
p617
aasas.