(dp0
Vcoref
p1
(lp2
(lp3
(lp4
(lp5
VChristopher
p6
aI1
aI14
aI14
aI15
aa(lp7
VChristopher
p8
aI0
aI0
aI0
aI1
aaaa(lp9
(lp10
(lp11
Vthe watch
p12
aI1
aI6
aI5
aI7
aa(lp13
Va new watch
p14
aI0
aI4
aI2
aI5
aaaasVsentences
p15
(lp16
(dp17
Vparsetree
p18
V(ROOT (S (NP (NNP Christopher)) (VP (VBD bought) (NP (DT a) (JJ new) (NN watch)) (PP (IN at) (NP (DT the) (NN store))) (SBAR (WHADVP (WRB when)) (S (NP (PRP they)) (VP (VBD were) (VP (VBG having) (NP (DT a) (ADVP (NP (CD 0.2) (NNS times)) (IN off)) (NN sale))))))) (. .)))
p19
sVtext
p20
VChristopher bought a new watch at the store when they were having a 0.2 times off sale .
p21
sVdependencies
p22
(lp23
(lp24
Vroot
p25
aVROOT
p26
aVbought
p27
aa(lp28
Vnsubj
p29
aVbought
p30
aVChristopher
p31
aa(lp32
Vdet
p33
aVwatch
p34
aVa
p35
aa(lp36
Vamod
p37
aVwatch
p38
aVnew
p39
aa(lp40
Vdobj
p41
aVbought
p42
aVwatch
p43
aa(lp44
Vdet
p45
aVstore
p46
aVthe
p47
aa(lp48
Vprep_at
p49
aVbought
p50
aVstore
p51
aa(lp52
Vadvmod
p53
aVhaving
p54
aVwhen
p55
aa(lp56
Vnsubj
p57
aVhaving
p58
aVthey
p59
aa(lp60
Vaux
p61
aVhaving
p62
aVwere
p63
aa(lp64
Vadvcl
p65
aVbought
p66
aVhaving
p67
aa(lp68
Vdet
p69
aVsale
p70
ag35
aa(lp71
Vnum
p72
aVtimes
p73
aV0.2
p74
aa(lp75
Vnpadvmod
p76
aVoff
p77
aVtimes
p78
aa(lp79
Vadvmod
p80
aVsale
p81
aVoff
p82
aa(lp83
Vdobj
p84
aVhaving
p85
aVsale
p86
aasVwords
p87
(lp88
(lp89
VChristopher
p90
a(dp91
VNamedEntityTag
p92
VPERSON
p93
sVCharacterOffsetEnd
p94
V12
p95
sVCharacterOffsetBegin
p96
V1
p97
sVPartOfSpeech
p98
VNNP
p99
sVLemma
p100
VChristopher
p101
saa(lp102
Vbought
p103
a(dp104
VNamedEntityTag
p105
VO
p106
sVCharacterOffsetEnd
p107
V19
p108
sVCharacterOffsetBegin
p109
V13
p110
sVPartOfSpeech
p111
VVBD
p112
sVLemma
p113
Vbuy
p114
saa(lp115
g35
a(dp116
VNamedEntityTag
p117
g106
sVCharacterOffsetEnd
p118
V21
p119
sVCharacterOffsetBegin
p120
V20
p121
sVPartOfSpeech
p122
VDT
p123
sVLemma
p124
g35
saa(lp125
Vnew
p126
a(dp127
VNamedEntityTag
p128
g106
sVCharacterOffsetEnd
p129
V25
p130
sVCharacterOffsetBegin
p131
V22
p132
sVPartOfSpeech
p133
VJJ
p134
sVLemma
p135
Vnew
p136
saa(lp137
Vwatch
p138
a(dp139
VNamedEntityTag
p140
g106
sVCharacterOffsetEnd
p141
V31
p142
sVCharacterOffsetBegin
p143
V26
p144
sVPartOfSpeech
p145
VNN
p146
sVLemma
p147
Vwatch
p148
saa(lp149
Vat
p150
a(dp151
VNamedEntityTag
p152
g106
sVCharacterOffsetEnd
p153
V34
p154
sVCharacterOffsetBegin
p155
V32
p156
sVPartOfSpeech
p157
VIN
p158
sVLemma
p159
Vat
p160
saa(lp161
Vthe
p162
a(dp163
VNamedEntityTag
p164
g106
sVCharacterOffsetEnd
p165
V38
p166
sVCharacterOffsetBegin
p167
V35
p168
sVPartOfSpeech
p169
VDT
p170
sVLemma
p171
Vthe
p172
saa(lp173
Vstore
p174
a(dp175
VNamedEntityTag
p176
g106
sVCharacterOffsetEnd
p177
V44
p178
sVCharacterOffsetBegin
p179
V39
p180
sVPartOfSpeech
p181
VNN
p182
sVLemma
p183
Vstore
p184
saa(lp185
Vwhen
p186
a(dp187
VNamedEntityTag
p188
g106
sVCharacterOffsetEnd
p189
V49
p190
sVCharacterOffsetBegin
p191
V45
p192
sVPartOfSpeech
p193
VWRB
p194
sVLemma
p195
Vwhen
p196
saa(lp197
Vthey
p198
a(dp199
VNamedEntityTag
p200
g106
sVCharacterOffsetEnd
p201
V54
p202
sVCharacterOffsetBegin
p203
V50
p204
sVPartOfSpeech
p205
VPRP
p206
sVLemma
p207
Vthey
p208
saa(lp209
Vwere
p210
a(dp211
VNamedEntityTag
p212
g106
sVCharacterOffsetEnd
p213
V59
p214
sVCharacterOffsetBegin
p215
V55
p216
sVPartOfSpeech
p217
VVBD
p218
sVLemma
p219
Vbe
p220
saa(lp221
Vhaving
p222
a(dp223
VNamedEntityTag
p224
g106
sVCharacterOffsetEnd
p225
V66
p226
sVCharacterOffsetBegin
p227
V60
p228
sVPartOfSpeech
p229
VVBG
p230
sVLemma
p231
Vhave
p232
saa(lp233
g35
a(dp234
VNamedEntityTag
p235
g106
sVCharacterOffsetEnd
p236
V68
p237
sVCharacterOffsetBegin
p238
V67
p239
sVPartOfSpeech
p240
VDT
p241
sVLemma
p242
g35
saa(lp243
V0.2
p244
a(dp245
VNormalizedNamedEntityTag
p246
V0.2
p247
sVLemma
p248
V0.2
p249
sVCharacterOffsetEnd
p250
V72
p251
sVPartOfSpeech
p252
VCD
p253
sVCharacterOffsetBegin
p254
V69
p255
sVNamedEntityTag
p256
VNUMBER
p257
saa(lp258
Vtimes
p259
a(dp260
VNamedEntityTag
p261
g106
sVCharacterOffsetEnd
p262
V78
p263
sVCharacterOffsetBegin
p264
V73
p265
sVPartOfSpeech
p266
VNNS
p267
sVLemma
p268
Vtime
p269
saa(lp270
Voff
p271
a(dp272
VNamedEntityTag
p273
g106
sVCharacterOffsetEnd
p274
V82
p275
sVCharacterOffsetBegin
p276
V79
p277
sVPartOfSpeech
p278
VIN
p279
sVLemma
p280
Voff
p281
saa(lp282
Vsale
p283
a(dp284
VNamedEntityTag
p285
g106
sVCharacterOffsetEnd
p286
V87
p287
sVCharacterOffsetBegin
p288
V83
p289
sVPartOfSpeech
p290
VNN
p291
sVLemma
p292
Vsale
p293
saa(lp294
V.
p295
a(dp296
VNamedEntityTag
p297
g106
sVCharacterOffsetEnd
p298
V89
p299
sVCharacterOffsetBegin
p300
V88
p301
sVPartOfSpeech
p302
g295
sVLemma
p303
g295
saasVindexeddependencies
p304
(lp305
(lp306
Vroot
p307
aVROOT-0
p308
aVbought-2
p309
aa(lp310
Vnsubj
p311
aVbought-2
p312
aVChristopher-1
p313
aa(lp314
Vdet
p315
aVwatch-5
p316
aVa-3
p317
aa(lp318
Vamod
p319
aVwatch-5
p320
aVnew-4
p321
aa(lp322
Vdobj
p323
aVbought-2
p324
aVwatch-5
p325
aa(lp326
Vdet
p327
aVstore-8
p328
aVthe-7
p329
aa(lp330
Vprep_at
p331
aVbought-2
p332
aVstore-8
p333
aa(lp334
Vadvmod
p335
aVhaving-12
p336
aVwhen-9
p337
aa(lp338
Vnsubj
p339
aVhaving-12
p340
aVthey-10
p341
aa(lp342
Vaux
p343
aVhaving-12
p344
aVwere-11
p345
aa(lp346
Vadvcl
p347
aVbought-2
p348
aVhaving-12
p349
aa(lp350
Vdet
p351
aVsale-17
p352
aVa-13
p353
aa(lp354
Vnum
p355
aVtimes-15
p356
aV0.2-14
p357
aa(lp358
Vnpadvmod
p359
aVoff-16
p360
aVtimes-15
p361
aa(lp362
Vadvmod
p363
aVsale-17
p364
aVoff-16
p365
aa(lp366
Vdobj
p367
aVhaving-12
p368
aVsale-17
p369
aasa(dp370
Vparsetree
p371
V(ROOT (SBARQ (SBAR (IN If) (S (NP (NP (DT the) (JJ regular) (NN price)) (PP (IN of) (NP (DT the) (NN watch)))) (VP (VBD was) (NP ($ $) (CD 48))))) (, ,) (WHNP (WRB how) (JJ much)) (SQ (VBD did) (NP (NNP Christopher)) (VP (VB pay) (PP (IN with) (NP (DT the) (NN discount))))) (. ?)))
p372
sVtext
p373
VIf the regular price of the watch was $48 , how much did Christopher pay with the discount ?
p374
sVdependencies
p375
(lp376
(lp377
Vroot
p378
aVROOT
p379
aVpay
p380
aa(lp381
Vmark
p382
aV$
p383
aVIf
p384
aa(lp385
Vdet
p386
aVprice
p387
aVthe
p388
aa(lp389
Vamod
p390
aVprice
p391
aVregular
p392
aa(lp393
Vnsubj
p394
ag383
aVprice
p395
aa(lp396
Vdet
p397
aVwatch
p398
aVthe
p399
aa(lp400
Vprep_of
p401
aVprice
p402
aVwatch
p403
aa(lp404
Vcop
p405
ag383
aVwas
p406
aa(lp407
Vadvcl
p408
aVpay
p409
ag383
aa(lp410
Vnum
p411
ag383
aV48
p412
aa(lp413
Vadvmod
p414
aVmuch
p415
aVhow
p416
aa(lp417
Vdep
p418
aVpay
p419
aVmuch
p420
aa(lp421
Vaux
p422
aVpay
p423
aVdid
p424
aa(lp425
Vnsubj
p426
aVpay
p427
aVChristopher
p428
aa(lp429
Vdet
p430
aVdiscount
p431
aVthe
p432
aa(lp433
Vprep_with
p434
aVpay
p435
aVdiscount
p436
aasVwords
p437
(lp438
(lp439
VIf
p440
a(dp441
VNamedEntityTag
p442
g106
sVCharacterOffsetEnd
p443
V92
p444
sVCharacterOffsetBegin
p445
V90
p446
sVPartOfSpeech
p447
VIN
p448
sVLemma
p449
Vif
p450
saa(lp451
Vthe
p452
a(dp453
VNamedEntityTag
p454
g106
sVCharacterOffsetEnd
p455
V96
p456
sVCharacterOffsetBegin
p457
V93
p458
sVPartOfSpeech
p459
VDT
p460
sVLemma
p461
Vthe
p462
saa(lp463
Vregular
p464
a(dp465
VNamedEntityTag
p466
g106
sVCharacterOffsetEnd
p467
V104
p468
sVCharacterOffsetBegin
p469
V97
p470
sVPartOfSpeech
p471
VJJ
p472
sVLemma
p473
Vregular
p474
saa(lp475
Vprice
p476
a(dp477
VNamedEntityTag
p478
g106
sVCharacterOffsetEnd
p479
V110
p480
sVCharacterOffsetBegin
p481
V105
p482
sVPartOfSpeech
p483
VNN
p484
sVLemma
p485
Vprice
p486
saa(lp487
Vof
p488
a(dp489
VNamedEntityTag
p490
g106
sVCharacterOffsetEnd
p491
V113
p492
sVCharacterOffsetBegin
p493
V111
p494
sVPartOfSpeech
p495
VIN
p496
sVLemma
p497
Vof
p498
saa(lp499
Vthe
p500
a(dp501
VNamedEntityTag
p502
g106
sVCharacterOffsetEnd
p503
V117
p504
sVCharacterOffsetBegin
p505
V114
p506
sVPartOfSpeech
p507
VDT
p508
sVLemma
p509
Vthe
p510
saa(lp511
Vwatch
p512
a(dp513
VNamedEntityTag
p514
g106
sVCharacterOffsetEnd
p515
V123
p516
sVCharacterOffsetBegin
p517
V118
p518
sVPartOfSpeech
p519
VNN
p520
sVLemma
p521
Vwatch
p522
saa(lp523
Vwas
p524
a(dp525
VNamedEntityTag
p526
g106
sVCharacterOffsetEnd
p527
V127
p528
sVCharacterOffsetBegin
p529
V124
p530
sVPartOfSpeech
p531
VVBD
p532
sVLemma
p533
Vbe
p534
saa(lp535
g383
a(dp536
VNormalizedNamedEntityTag
p537
V$48.0
p538
sVLemma
p539
g383
sVCharacterOffsetEnd
p540
V129
p541
sVPartOfSpeech
p542
g383
sVCharacterOffsetBegin
p543
V128
p544
sVNamedEntityTag
p545
VMONEY
p546
saa(lp547
V48
p548
a(dp549
VNormalizedNamedEntityTag
p550
V$48.0
p551
sVLemma
p552
V48
p553
sVCharacterOffsetEnd
p554
V131
p555
sVPartOfSpeech
p556
VCD
p557
sVCharacterOffsetBegin
p558
V129
p559
sVNamedEntityTag
p560
VMONEY
p561
saa(lp562
V,
p563
a(dp564
VNamedEntityTag
p565
g106
sVCharacterOffsetEnd
p566
V133
p567
sVCharacterOffsetBegin
p568
V132
p569
sVPartOfSpeech
p570
g563
sVLemma
p571
g563
saa(lp572
Vhow
p573
a(dp574
VNamedEntityTag
p575
g106
sVCharacterOffsetEnd
p576
V137
p577
sVCharacterOffsetBegin
p578
V134
p579
sVPartOfSpeech
p580
VWRB
p581
sVLemma
p582
Vhow
p583
saa(lp584
Vmuch
p585
a(dp586
VNamedEntityTag
p587
g106
sVCharacterOffsetEnd
p588
V142
p589
sVCharacterOffsetBegin
p590
V138
p591
sVPartOfSpeech
p592
VJJ
p593
sVLemma
p594
Vmuch
p595
saa(lp596
Vdid
p597
a(dp598
VNamedEntityTag
p599
g106
sVCharacterOffsetEnd
p600
V146
p601
sVCharacterOffsetBegin
p602
V143
p603
sVPartOfSpeech
p604
VVBD
p605
sVLemma
p606
Vdo
p607
saa(lp608
VChristopher
p609
a(dp610
VNamedEntityTag
p611
VPERSON
p612
sVCharacterOffsetEnd
p613
V158
p614
sVCharacterOffsetBegin
p615
V147
p616
sVPartOfSpeech
p617
VNNP
p618
sVLemma
p619
VChristopher
p620
saa(lp621
Vpay
p622
a(dp623
VNamedEntityTag
p624
g106
sVCharacterOffsetEnd
p625
V162
p626
sVCharacterOffsetBegin
p627
V159
p628
sVPartOfSpeech
p629
VVB
p630
sVLemma
p631
Vpay
p632
saa(lp633
Vwith
p634
a(dp635
VNamedEntityTag
p636
g106
sVCharacterOffsetEnd
p637
V167
p638
sVCharacterOffsetBegin
p639
V163
p640
sVPartOfSpeech
p641
VIN
p642
sVLemma
p643
Vwith
p644
saa(lp645
Vthe
p646
a(dp647
VNamedEntityTag
p648
g106
sVCharacterOffsetEnd
p649
V171
p650
sVCharacterOffsetBegin
p651
V168
p652
sVPartOfSpeech
p653
VDT
p654
sVLemma
p655
Vthe
p656
saa(lp657
Vdiscount
p658
a(dp659
VNamedEntityTag
p660
g106
sVCharacterOffsetEnd
p661
V180
p662
sVCharacterOffsetBegin
p663
V172
p664
sVPartOfSpeech
p665
VNN
p666
sVLemma
p667
Vdiscount
p668
saa(lp669
V?
p670
a(dp671
VNamedEntityTag
p672
g106
sVCharacterOffsetEnd
p673
V182
p674
sVCharacterOffsetBegin
p675
V181
p676
sVPartOfSpeech
p677
g295
sVLemma
p678
g670
saasVindexeddependencies
p679
(lp680
(lp681
Vroot
p682
aVROOT-0
p683
aVpay-16
p684
aa(lp685
Vmark
p686
aV$-9
p687
aVIf-1
p688
aa(lp689
Vdet
p690
aVprice-4
p691
aVthe-2
p692
aa(lp693
Vamod
p694
aVprice-4
p695
aVregular-3
p696
aa(lp697
Vnsubj
p698
aV$-9
p699
aVprice-4
p700
aa(lp701
Vdet
p702
aVwatch-7
p703
aVthe-6
p704
aa(lp705
Vprep_of
p706
aVprice-4
p707
aVwatch-7
p708
aa(lp709
Vcop
p710
aV$-9
p711
aVwas-8
p712
aa(lp713
Vadvcl
p714
aVpay-16
p715
aV$-9
p716
aa(lp717
Vnum
p718
aV$-9
p719
aV48-10
p720
aa(lp721
Vadvmod
p722
aVmuch-13
p723
aVhow-12
p724
aa(lp725
Vdep
p726
aVpay-16
p727
aVmuch-13
p728
aa(lp729
Vaux
p730
aVpay-16
p731
aVdid-14
p732
aa(lp733
Vnsubj
p734
aVpay-16
p735
aVChristopher-15
p736
aa(lp737
Vdet
p738
aVdiscount-19
p739
aVthe-18
p740
aa(lp741
Vprep_with
p742
aVpay-16
p743
aVdiscount-19
p744
aasas.