(dp0
Vcoref
p1
(lp2
(lp3
(lp4
(lp5
Vhe
p6
aI1
aI1
aI1
aI2
aa(lp7
VNed
p8
aI0
aI0
aI0
aI1
aaa(lp9
(lp10
Vhe
p11
aI1
aI17
aI17
aI18
aa(lp12
VNed
p13
aI0
aI0
aI0
aI1
aaaasVsentences
p14
(lp15
(dp16
Vparsetree
p17
V(ROOT (S (NP (NNP Ned)) (VP (VBD had) (S (VP (TO to) (VP (VB wash) (NP (CD 9) (JJ short) (NN sleeve) (NNS shirts) (CC and) (CD 21) (JJ long) (NN sleeve) (NNS shirts)) (PP (IN before) (NP (NN school))))))) (. .)))
p18
sVtext
p19
VNed had to wash 9 short sleeve shirts and 21 long sleeve shirts before school .
p20
sVdependencies
p21
(lp22
(lp23
Vroot
p24
aVROOT
p25
aVhad
p26
aa(lp27
Vnsubj
p28
aVhad
p29
aVNed
p30
aa(lp31
Vaux
p32
aVwash
p33
aVto
p34
aa(lp35
Vxcomp
p36
aVhad
p37
aVwash
p38
aa(lp39
Vnum
p40
aVshirts
p41
aV9
p42
aa(lp43
Vamod
p44
aVshirts
p45
aVshort
p46
aa(lp47
Vnn
p48
aVshirts
p49
aVsleeve
p50
aa(lp51
Vdobj
p52
aVwash
p53
aVshirts
p54
aa(lp55
Vnum
p56
aVshirts
p57
aV21
p58
aa(lp59
Vamod
p60
aVshirts
p61
aVlong
p62
aa(lp63
Vnn
p64
aVshirts
p65
aVsleeve
p66
aa(lp67
Vconj_and
p68
aVshirts
p69
aVshirts
p70
aa(lp71
Vprep_before
p72
aVwash
p73
aVschool
p74
aasVwords
p75
(lp76
(lp77
VNed
p78
a(dp79
VNamedEntityTag
p80
VPERSON
p81
sVCharacterOffsetEnd
p82
V4
p83
sVCharacterOffsetBegin
p84
V1
p85
sVPartOfSpeech
p86
VNNP
p87
sVLemma
p88
VNed
p89
saa(lp90
Vhad
p91
a(dp92
VNamedEntityTag
p93
VO
p94
sVCharacterOffsetEnd
p95
V8
p96
sVCharacterOffsetBegin
p97
V5
p98
sVPartOfSpeech
p99
VVBD
p100
sVLemma
p101
Vhave
p102
saa(lp103
Vto
p104
a(dp105
VNamedEntityTag
p106
g94
sVCharacterOffsetEnd
p107
V11
p108
sVCharacterOffsetBegin
p109
g42
sVPartOfSpeech
p110
VTO
p111
sVLemma
p112
Vto
p113
saa(lp114
Vwash
p115
a(dp116
VNamedEntityTag
p117
g94
sVCharacterOffsetEnd
p118
V16
p119
sVCharacterOffsetBegin
p120
V12
p121
sVPartOfSpeech
p122
VVB
p123
sVLemma
p124
Vwash
p125
saa(lp126
g42
a(dp127
VNormalizedNamedEntityTag
p128
V9.0
p129
sVLemma
p130
g42
sVCharacterOffsetEnd
p131
V18
p132
sVPartOfSpeech
p133
VCD
p134
sVCharacterOffsetBegin
p135
V17
p136
sVNamedEntityTag
p137
VNUMBER
p138
saa(lp139
Vshort
p140
a(dp141
VNamedEntityTag
p142
g94
sVCharacterOffsetEnd
p143
V24
p144
sVCharacterOffsetBegin
p145
V19
p146
sVPartOfSpeech
p147
VJJ
p148
sVLemma
p149
Vshort
p150
saa(lp151
Vsleeve
p152
a(dp153
VNamedEntityTag
p154
g94
sVCharacterOffsetEnd
p155
V31
p156
sVCharacterOffsetBegin
p157
V25
p158
sVPartOfSpeech
p159
VNN
p160
sVLemma
p161
Vsleeve
p162
saa(lp163
Vshirts
p164
a(dp165
VNamedEntityTag
p166
g94
sVCharacterOffsetEnd
p167
V38
p168
sVCharacterOffsetBegin
p169
V32
p170
sVPartOfSpeech
p171
VNNS
p172
sVLemma
p173
Vshirt
p174
saa(lp175
Vand
p176
a(dp177
VNamedEntityTag
p178
g94
sVCharacterOffsetEnd
p179
V42
p180
sVCharacterOffsetBegin
p181
V39
p182
sVPartOfSpeech
p183
VCC
p184
sVLemma
p185
Vand
p186
saa(lp187
V21
p188
a(dp189
VNormalizedNamedEntityTag
p190
V21.0
p191
sVLemma
p192
V21
p193
sVCharacterOffsetEnd
p194
V45
p195
sVPartOfSpeech
p196
VCD
p197
sVCharacterOffsetBegin
p198
V43
p199
sVNamedEntityTag
p200
VNUMBER
p201
saa(lp202
Vlong
p203
a(dp204
VNamedEntityTag
p205
g94
sVCharacterOffsetEnd
p206
V50
p207
sVCharacterOffsetBegin
p208
V46
p209
sVPartOfSpeech
p210
VJJ
p211
sVLemma
p212
Vlong
p213
saa(lp214
Vsleeve
p215
a(dp216
VNamedEntityTag
p217
g94
sVCharacterOffsetEnd
p218
V57
p219
sVCharacterOffsetBegin
p220
V51
p221
sVPartOfSpeech
p222
VNN
p223
sVLemma
p224
Vsleeve
p225
saa(lp226
Vshirts
p227
a(dp228
VNamedEntityTag
p229
g94
sVCharacterOffsetEnd
p230
V64
p231
sVCharacterOffsetBegin
p232
V58
p233
sVPartOfSpeech
p234
VNNS
p235
sVLemma
p236
Vshirt
p237
saa(lp238
Vbefore
p239
a(dp240
VNamedEntityTag
p241
g94
sVCharacterOffsetEnd
p242
V71
p243
sVCharacterOffsetBegin
p244
V65
p245
sVPartOfSpeech
p246
VIN
p247
sVLemma
p248
Vbefore
p249
saa(lp250
Vschool
p251
a(dp252
VNamedEntityTag
p253
g94
sVCharacterOffsetEnd
p254
V78
p255
sVCharacterOffsetBegin
p256
V72
p257
sVPartOfSpeech
p258
VNN
p259
sVLemma
p260
Vschool
p261
saa(lp262
V.
p263
a(dp264
VNamedEntityTag
p265
g94
sVCharacterOffsetEnd
p266
V80
p267
sVCharacterOffsetBegin
p268
V79
p269
sVPartOfSpeech
p270
g263
sVLemma
p271
g263
saasVindexeddependencies
p272
(lp273
(lp274
Vroot
p275
aVROOT-0
p276
aVhad-2
p277
aa(lp278
Vnsubj
p279
aVhad-2
p280
aVNed-1
p281
aa(lp282
Vaux
p283
aVwash-4
p284
aVto-3
p285
aa(lp286
Vxcomp
p287
aVhad-2
p288
aVwash-4
p289
aa(lp290
Vnum
p291
aVshirts-8
p292
aV9-5
p293
aa(lp294
Vamod
p295
aVshirts-8
p296
aVshort-6
p297
aa(lp298
Vnn
p299
aVshirts-8
p300
aVsleeve-7
p301
aa(lp302
Vdobj
p303
aVwash-4
p304
aVshirts-8
p305
aa(lp306
Vnum
p307
aVshirts-13
p308
aV21-10
p309
aa(lp310
Vamod
p311
aVshirts-13
p312
aVlong-11
p313
aa(lp314
Vnn
p315
aVshirts-13
p316
aVsleeve-12
p317
aa(lp318
Vconj_and
p319
aVshirts-8
p320
aVshirts-13
p321
aa(lp322
Vprep_before
p323
aVwash-4
p324
aVschool-15
p325
aasa(dp326
Vparsetree
p327
V(ROOT (SBARQ (SBAR (IN If) (S (NP (PRP he)) (VP (VBD had) (ADVP (RB only)) (VP (VBN washed) (NP (NP (CD 29)) (PP (IN of) (NP (PRP them)))) (PP (IN by) (NP (NP (DT the) (NN time) (NN school)) (VP (VBD started)))))))) (, ,) (WHNP (WRB how) (JJ many)) (SQ (VBD did) (NP (PRP he)) (VP (RB not) (VB wash))) (. ?)))
p328
sVtext
p329
VIf he had only washed 29 of them by the time school started , how many did he not wash ?
p330
sVdependencies
p331
(lp332
(lp333
Vroot
p334
aVROOT
p335
aVwash
p336
aa(lp337
Vmark
p338
aVwashed
p339
aVIf
p340
aa(lp341
Vnsubj
p342
aVwashed
p343
aVhe
p344
aa(lp345
Vaux
p346
aVwashed
p347
aVhad
p348
aa(lp349
Vadvmod
p350
aVwashed
p351
aVonly
p352
aa(lp353
Vadvcl
p354
aVwash
p355
aVwashed
p356
aa(lp357
Vdobj
p358
aVwashed
p359
aV29
p360
aa(lp361
Vprep_of
p362
aV29
p363
aVthem
p364
aa(lp365
Vdet
p366
aVschool
p367
aVthe
p368
aa(lp369
Vnn
p370
aVschool
p371
aVtime
p372
aa(lp373
Vprep_by
p374
aVwashed
p375
aVschool
p376
aa(lp377
Vvmod
p378
aVschool
p379
aVstarted
p380
aa(lp381
Vadvmod
p382
aVmany
p383
aVhow
p384
aa(lp385
Vdep
p386
aVwash
p387
aVmany
p388
aa(lp389
Vaux
p390
aVwash
p391
aVdid
p392
aa(lp393
Vnsubj
p394
aVwash
p395
aVhe
p396
aa(lp397
Vneg
p398
aVwash
p399
aVnot
p400
aasVwords
p401
(lp402
(lp403
VIf
p404
a(dp405
VNamedEntityTag
p406
g94
sVCharacterOffsetEnd
p407
V83
p408
sVCharacterOffsetBegin
p409
V81
p410
sVPartOfSpeech
p411
VIN
p412
sVLemma
p413
Vif
p414
saa(lp415
Vhe
p416
a(dp417
VNamedEntityTag
p418
g94
sVCharacterOffsetEnd
p419
V86
p420
sVCharacterOffsetBegin
p421
V84
p422
sVPartOfSpeech
p423
VPRP
p424
sVLemma
p425
Vhe
p426
saa(lp427
Vhad
p428
a(dp429
VNamedEntityTag
p430
g94
sVCharacterOffsetEnd
p431
V90
p432
sVCharacterOffsetBegin
p433
V87
p434
sVPartOfSpeech
p435
VVBD
p436
sVLemma
p437
Vhave
p438
saa(lp439
Vonly
p440
a(dp441
VNamedEntityTag
p442
g94
sVCharacterOffsetEnd
p443
V95
p444
sVCharacterOffsetBegin
p445
V91
p446
sVPartOfSpeech
p447
VRB
p448
sVLemma
p449
Vonly
p450
saa(lp451
Vwashed
p452
a(dp453
VNamedEntityTag
p454
g94
sVCharacterOffsetEnd
p455
V102
p456
sVCharacterOffsetBegin
p457
V96
p458
sVPartOfSpeech
p459
VVBN
p460
sVLemma
p461
Vwash
p462
saa(lp463
V29
p464
a(dp465
VNormalizedNamedEntityTag
p466
V29.0
p467
sVLemma
p468
V29
p469
sVCharacterOffsetEnd
p470
V105
p471
sVPartOfSpeech
p472
VCD
p473
sVCharacterOffsetBegin
p474
V103
p475
sVNamedEntityTag
p476
VNUMBER
p477
saa(lp478
Vof
p479
a(dp480
VNamedEntityTag
p481
g94
sVCharacterOffsetEnd
p482
V108
p483
sVCharacterOffsetBegin
p484
V106
p485
sVPartOfSpeech
p486
VIN
p487
sVLemma
p488
Vof
p489
saa(lp490
Vthem
p491
a(dp492
VNamedEntityTag
p493
g94
sVCharacterOffsetEnd
p494
V113
p495
sVCharacterOffsetBegin
p496
V109
p497
sVPartOfSpeech
p498
VPRP
p499
sVLemma
p500
Vthey
p501
saa(lp502
Vby
p503
a(dp504
VNamedEntityTag
p505
g94
sVCharacterOffsetEnd
p506
V116
p507
sVCharacterOffsetBegin
p508
V114
p509
sVPartOfSpeech
p510
VIN
p511
sVLemma
p512
Vby
p513
saa(lp514
Vthe
p515
a(dp516
VNamedEntityTag
p517
g94
sVCharacterOffsetEnd
p518
V120
p519
sVCharacterOffsetBegin
p520
V117
p521
sVPartOfSpeech
p522
VDT
p523
sVLemma
p524
Vthe
p525
saa(lp526
Vtime
p527
a(dp528
VNamedEntityTag
p529
g94
sVCharacterOffsetEnd
p530
V125
p531
sVCharacterOffsetBegin
p532
V121
p533
sVPartOfSpeech
p534
VNN
p535
sVLemma
p536
Vtime
p537
saa(lp538
Vschool
p539
a(dp540
VNamedEntityTag
p541
g94
sVCharacterOffsetEnd
p542
V132
p543
sVCharacterOffsetBegin
p544
V126
p545
sVPartOfSpeech
p546
VNN
p547
sVLemma
p548
Vschool
p549
saa(lp550
Vstarted
p551
a(dp552
VNamedEntityTag
p553
g94
sVCharacterOffsetEnd
p554
V140
p555
sVCharacterOffsetBegin
p556
V133
p557
sVPartOfSpeech
p558
VVBD
p559
sVLemma
p560
Vstart
p561
saa(lp562
V,
p563
a(dp564
VNamedEntityTag
p565
g94
sVCharacterOffsetEnd
p566
V142
p567
sVCharacterOffsetBegin
p568
V141
p569
sVPartOfSpeech
p570
g563
sVLemma
p571
g563
saa(lp572
Vhow
p573
a(dp574
VNamedEntityTag
p575
g94
sVCharacterOffsetEnd
p576
V146
p577
sVCharacterOffsetBegin
p578
V143
p579
sVPartOfSpeech
p580
VWRB
p581
sVLemma
p582
Vhow
p583
saa(lp584
Vmany
p585
a(dp586
VNamedEntityTag
p587
g94
sVCharacterOffsetEnd
p588
V151
p589
sVCharacterOffsetBegin
p590
V147
p591
sVPartOfSpeech
p592
VJJ
p593
sVLemma
p594
Vmany
p595
saa(lp596
Vdid
p597
a(dp598
VNamedEntityTag
p599
g94
sVCharacterOffsetEnd
p600
V155
p601
sVCharacterOffsetBegin
p602
V152
p603
sVPartOfSpeech
p604
VVBD
p605
sVLemma
p606
Vdo
p607
saa(lp608
Vhe
p609
a(dp610
VNamedEntityTag
p611
g94
sVCharacterOffsetEnd
p612
V158
p613
sVCharacterOffsetBegin
p614
V156
p615
sVPartOfSpeech
p616
VPRP
p617
sVLemma
p618
Vhe
p619
saa(lp620
Vnot
p621
a(dp622
VNamedEntityTag
p623
g94
sVCharacterOffsetEnd
p624
V162
p625
sVCharacterOffsetBegin
p626
V159
p627
sVPartOfSpeech
p628
VRB
p629
sVLemma
p630
Vnot
p631
saa(lp632
Vwash
p633
a(dp634
VNamedEntityTag
p635
g94
sVCharacterOffsetEnd
p636
V167
p637
sVCharacterOffsetBegin
p638
V163
p639
sVPartOfSpeech
p640
VVB
p641
sVLemma
p642
Vwash
p643
saa(lp644
V?
p645
a(dp646
VNamedEntityTag
p647
g94
sVCharacterOffsetEnd
p648
V169
p649
sVCharacterOffsetBegin
p650
V168
p651
sVPartOfSpeech
p652
g263
sVLemma
p653
g645
saasVindexeddependencies
p654
(lp655
(lp656
Vroot
p657
aVROOT-0
p658
aVwash-20
p659
aa(lp660
Vmark
p661
aVwashed-5
p662
aVIf-1
p663
aa(lp664
Vnsubj
p665
aVwashed-5
p666
aVhe-2
p667
aa(lp668
Vaux
p669
aVwashed-5
p670
aVhad-3
p671
aa(lp672
Vadvmod
p673
aVwashed-5
p674
aVonly-4
p675
aa(lp676
Vadvcl
p677
aVwash-20
p678
aVwashed-5
p679
aa(lp680
Vdobj
p681
aVwashed-5
p682
aV29-6
p683
aa(lp684
Vprep_of
p685
aV29-6
p686
aVthem-8
p687
aa(lp688
Vdet
p689
aVschool-12
p690
aVthe-10
p691
aa(lp692
Vnn
p693
aVschool-12
p694
aVtime-11
p695
aa(lp696
Vprep_by
p697
aVwashed-5
p698
aVschool-12
p699
aa(lp700
Vvmod
p701
aVschool-12
p702
aVstarted-13
p703
aa(lp704
Vadvmod
p705
aVmany-16
p706
aVhow-15
p707
aa(lp708
Vdep
p709
aVwash-20
p710
aVmany-16
p711
aa(lp712
Vaux
p713
aVwash-20
p714
aVdid-17
p715
aa(lp716
Vnsubj
p717
aVwash-20
p718
aVhe-18
p719
aa(lp720
Vneg
p721
aVwash-20
p722
aVnot-19
p723
aasas.