(dp0
Vcoref
p1
(lp2
(lp3
(lp4
(lp5
Vhe
p6
aI1
aI4
aI4
aI5
aa(lp7
VA waiter at ` The Greasy Spoon ' restaurant
p8
aI0
aI1
aI0
aI9
aaa(lp9
(lp10
Vhim
p11
aI2
aI8
aI8
aI9
aa(lp12
VA waiter at ` The Greasy Spoon ' restaurant
p13
aI0
aI1
aI0
aI9
aaaa(lp14
(lp15
(lp16
Vthe customers
p17
aI2
aI4
aI3
aI5
aa(lp18
Vanother 27 customers
p19
aI1
aI8
aI6
aI9
aaaa(lp20
(lp21
(lp22
Va tip
p23
aI2
aI18
aI17
aI19
aa(lp24
Va tip
p25
aI2
aI10
aI9
aI11
aaaasVsentences
p26
(lp27
(dp28
Vparsetree
p29
V(ROOT (S (NP (NP (DT A) (NN waiter)) (PP (IN at) (`` `) (NP (NP (DT The) (NNP Greasy) (NNP Spoon) (POS ')) (NN restaurant)))) (VP (VBD had) (NP (CD 26) (NNS customers)) (S (VP (TO to) (VP (VB wait) (PP (IN on)))))) (. .)))
p30
sVtext
p31
VA waiter at 'The Greasy Spoon' restaurant had 26 customers to wait on .
p32
sVdependencies
p33
(lp34
(lp35
Vroot
p36
aVROOT
p37
aVhad
p38
aa(lp39
Vdet
p40
aVwaiter
p41
aVA
p42
aa(lp43
Vnsubj
p44
aVhad
p45
aVwaiter
p46
aa(lp47
Vdet
p48
aVSpoon
p49
aVThe
p50
aa(lp51
Vnn
p52
aVSpoon
p53
aVGreasy
p54
aa(lp55
Vposs
p56
aVrestaurant
p57
aVSpoon
p58
aa(lp59
Vprep_at
p60
aVwaiter
p61
aVrestaurant
p62
aa(lp63
Vnum
p64
aVcustomers
p65
aV26
p66
aa(lp67
Vdobj
p68
aVhad
p69
aVcustomers
p70
aa(lp71
Vaux
p72
aVwait
p73
aVto
p74
aa(lp75
Vvmod
p76
aVhad
p77
aVwait
p78
aa(lp79
Vprep
p80
aVwait
p81
aVon
p82
aasVwords
p83
(lp84
(lp85
g42
a(dp86
VNamedEntityTag
p87
VO
p88
sVCharacterOffsetEnd
p89
V2
p90
sVCharacterOffsetBegin
p91
V1
p92
sVPartOfSpeech
p93
VDT
p94
sVLemma
p95
Va
p96
saa(lp97
Vwaiter
p98
a(dp99
VNamedEntityTag
p100
g88
sVCharacterOffsetEnd
p101
V9
p102
sVCharacterOffsetBegin
p103
V3
p104
sVPartOfSpeech
p105
VNN
p106
sVLemma
p107
Vwaiter
p108
saa(lp109
Vat
p110
a(dp111
VNamedEntityTag
p112
g88
sVCharacterOffsetEnd
p113
V12
p114
sVCharacterOffsetBegin
p115
V10
p116
sVPartOfSpeech
p117
VIN
p118
sVLemma
p119
Vat
p120
saa(lp121
V`
p122
a(dp123
VNamedEntityTag
p124
g88
sVCharacterOffsetEnd
p125
V14
p126
sVCharacterOffsetBegin
p127
V13
p128
sVPartOfSpeech
p129
V``
p130
sVLemma
p131
g122
saa(lp132
VThe
p133
a(dp134
VNamedEntityTag
p135
g88
sVCharacterOffsetEnd
p136
V17
p137
sVCharacterOffsetBegin
p138
V14
p139
sVPartOfSpeech
p140
VDT
p141
sVLemma
p142
Vthe
p143
saa(lp144
VGreasy
p145
a(dp146
VNamedEntityTag
p147
g88
sVCharacterOffsetEnd
p148
V24
p149
sVCharacterOffsetBegin
p150
V18
p151
sVPartOfSpeech
p152
VNNP
p153
sVLemma
p154
VGreasy
p155
saa(lp156
VSpoon
p157
a(dp158
VNamedEntityTag
p159
g88
sVCharacterOffsetEnd
p160
V30
p161
sVCharacterOffsetBegin
p162
V25
p163
sVPartOfSpeech
p164
VNNP
p165
sVLemma
p166
VSpoon
p167
saa(lp168
V'
p169
a(dp170
VNamedEntityTag
p171
g88
sVCharacterOffsetEnd
p172
V31
p173
sVCharacterOffsetBegin
p174
V30
p175
sVPartOfSpeech
p176
VPOS
p177
sVLemma
p178
g169
saa(lp179
Vrestaurant
p180
a(dp181
VNamedEntityTag
p182
g88
sVCharacterOffsetEnd
p183
V42
p184
sVCharacterOffsetBegin
p185
V32
p186
sVPartOfSpeech
p187
VNN
p188
sVLemma
p189
Vrestaurant
p190
saa(lp191
Vhad
p192
a(dp193
VNamedEntityTag
p194
g88
sVCharacterOffsetEnd
p195
V46
p196
sVCharacterOffsetBegin
p197
V43
p198
sVPartOfSpeech
p199
VVBD
p200
sVLemma
p201
Vhave
p202
saa(lp203
V26
p204
a(dp205
VNormalizedNamedEntityTag
p206
V26.0
p207
sVLemma
p208
V26
p209
sVCharacterOffsetEnd
p210
V49
p211
sVPartOfSpeech
p212
VCD
p213
sVCharacterOffsetBegin
p214
V47
p215
sVNamedEntityTag
p216
VNUMBER
p217
saa(lp218
Vcustomers
p219
a(dp220
VNamedEntityTag
p221
g88
sVCharacterOffsetEnd
p222
V59
p223
sVCharacterOffsetBegin
p224
V50
p225
sVPartOfSpeech
p226
VNNS
p227
sVLemma
p228
Vcustomer
p229
saa(lp230
Vto
p231
a(dp232
VNamedEntityTag
p233
g88
sVCharacterOffsetEnd
p234
V62
p235
sVCharacterOffsetBegin
p236
V60
p237
sVPartOfSpeech
p238
VTO
p239
sVLemma
p240
Vto
p241
saa(lp242
Vwait
p243
a(dp244
VNamedEntityTag
p245
g88
sVCharacterOffsetEnd
p246
V67
p247
sVCharacterOffsetBegin
p248
V63
p249
sVPartOfSpeech
p250
VVB
p251
sVLemma
p252
Vwait
p253
saa(lp254
Von
p255
a(dp256
VNamedEntityTag
p257
g88
sVCharacterOffsetEnd
p258
V70
p259
sVCharacterOffsetBegin
p260
V68
p261
sVPartOfSpeech
p262
VIN
p263
sVLemma
p264
Von
p265
saa(lp266
V.
p267
a(dp268
VNamedEntityTag
p269
g88
sVCharacterOffsetEnd
p270
V72
p271
sVCharacterOffsetBegin
p272
V71
p273
sVPartOfSpeech
p274
g267
sVLemma
p275
g267
saasVindexeddependencies
p276
(lp277
(lp278
Vroot
p279
aVROOT-0
p280
aVhad-10
p281
aa(lp282
Vdet
p283
aVwaiter-2
p284
aVA-1
p285
aa(lp286
Vnsubj
p287
aVhad-10
p288
aVwaiter-2
p289
aa(lp290
Vdet
p291
aVSpoon-7
p292
aVThe-5
p293
aa(lp294
Vnn
p295
aVSpoon-7
p296
aVGreasy-6
p297
aa(lp298
Vposs
p299
aVrestaurant-9
p300
aVSpoon-7
p301
aa(lp302
Vprep_at
p303
aVwaiter-2
p304
aVrestaurant-9
p305
aa(lp306
Vnum
p307
aVcustomers-12
p308
aV26-11
p309
aa(lp310
Vdobj
p311
aVhad-10
p312
aVcustomers-12
p313
aa(lp314
Vaux
p315
aVwait-14
p316
aVto-13
p317
aa(lp318
Vvmod
p319
aVhad-10
p320
aVwait-14
p321
aa(lp322
Vprep
p323
aVwait-14
p324
aVon-15
p325
aasa(dp326
Vparsetree
p327
V(ROOT (S (PP (IN During) (NP (DT the) (NN lunch) (NN rush))) (NP (PRP he)) (VP (VBD added) (NP (DT another) (CD 27) (NNS customers))) (. .)))
p328
sVtext
p329
VDuring the lunch rush he added another 27 customers .
p330
sVdependencies
p331
(lp332
(lp333
Vroot
p334
aVROOT
p335
aVadded
p336
aa(lp337
Vdet
p338
aVrush
p339
aVthe
p340
aa(lp341
Vnn
p342
aVrush
p343
aVlunch
p344
aa(lp345
Vprep_during
p346
aVadded
p347
aVrush
p348
aa(lp349
Vnsubj
p350
aVadded
p351
aVhe
p352
aa(lp353
Vdet
p354
aVcustomers
p355
aVanother
p356
aa(lp357
Vnum
p358
aVcustomers
p359
aV27
p360
aa(lp361
Vdobj
p362
aVadded
p363
aVcustomers
p364
aasVwords
p365
(lp366
(lp367
VDuring
p368
a(dp369
VNamedEntityTag
p370
g88
sVCharacterOffsetEnd
p371
V79
p372
sVCharacterOffsetBegin
p373
V73
p374
sVPartOfSpeech
p375
VIN
p376
sVLemma
p377
Vduring
p378
saa(lp379
Vthe
p380
a(dp381
VNamedEntityTag
p382
g88
sVCharacterOffsetEnd
p383
V83
p384
sVCharacterOffsetBegin
p385
V80
p386
sVPartOfSpeech
p387
VDT
p388
sVLemma
p389
Vthe
p390
saa(lp391
Vlunch
p392
a(dp393
VNamedEntityTag
p394
g88
sVCharacterOffsetEnd
p395
V89
p396
sVCharacterOffsetBegin
p397
V84
p398
sVPartOfSpeech
p399
VNN
p400
sVLemma
p401
Vlunch
p402
saa(lp403
Vrush
p404
a(dp405
VNamedEntityTag
p406
g88
sVCharacterOffsetEnd
p407
V94
p408
sVCharacterOffsetBegin
p409
V90
p410
sVPartOfSpeech
p411
VNN
p412
sVLemma
p413
Vrush
p414
saa(lp415
Vhe
p416
a(dp417
VNamedEntityTag
p418
g88
sVCharacterOffsetEnd
p419
V97
p420
sVCharacterOffsetBegin
p421
V95
p422
sVPartOfSpeech
p423
VPRP
p424
sVLemma
p425
Vhe
p426
saa(lp427
Vadded
p428
a(dp429
VNamedEntityTag
p430
g88
sVCharacterOffsetEnd
p431
V103
p432
sVCharacterOffsetBegin
p433
V98
p434
sVPartOfSpeech
p435
VVBD
p436
sVLemma
p437
Vadd
p438
saa(lp439
Vanother
p440
a(dp441
VNamedEntityTag
p442
g88
sVCharacterOffsetEnd
p443
V111
p444
sVCharacterOffsetBegin
p445
V104
p446
sVPartOfSpeech
p447
VDT
p448
sVLemma
p449
Vanother
p450
saa(lp451
V27
p452
a(dp453
VNormalizedNamedEntityTag
p454
V27.0
p455
sVLemma
p456
V27
p457
sVCharacterOffsetEnd
p458
V114
p459
sVPartOfSpeech
p460
VCD
p461
sVCharacterOffsetBegin
p462
V112
p463
sVNamedEntityTag
p464
VNUMBER
p465
saa(lp466
Vcustomers
p467
a(dp468
VNamedEntityTag
p469
g88
sVCharacterOffsetEnd
p470
V124
p471
sVCharacterOffsetBegin
p472
V115
p473
sVPartOfSpeech
p474
VNNS
p475
sVLemma
p476
Vcustomer
p477
saa(lp478
g267
a(dp479
VNamedEntityTag
p480
g88
sVCharacterOffsetEnd
p481
V126
p482
sVCharacterOffsetBegin
p483
V125
p484
sVPartOfSpeech
p485
g267
sVLemma
p486
g267
saasVindexeddependencies
p487
(lp488
(lp489
Vroot
p490
aVROOT-0
p491
aVadded-6
p492
aa(lp493
Vdet
p494
aVrush-4
p495
aVthe-2
p496
aa(lp497
Vnn
p498
aVrush-4
p499
aVlunch-3
p500
aa(lp501
Vprep_during
p502
aVadded-6
p503
aVrush-4
p504
aa(lp505
Vnsubj
p506
aVadded-6
p507
aVhe-5
p508
aa(lp509
Vdet
p510
aVcustomers-9
p511
aVanother-7
p512
aa(lp513
Vnum
p514
aVcustomers-9
p515
aV27-8
p516
aa(lp517
Vdobj
p518
aVadded-6
p519
aVcustomers-9
p520
aasa(dp521
Vparsetree
p522
V(ROOT (SBARQ (SBAR (IN If) (S (NP (NP (CD 27)) (PP (IN of) (NP (DT the) (NNS customers)))) (VP (VBD did) (RB n't) (VP (VB leave) (NP (PRP him)) (NP (DT a) (NN tip)))))) (, ,) (WHNP (WHADJP (WRB how) (JJ many)) (NNS customers)) (SQ (VP (VBD did) (VP (VB leave) (NP (DT a) (NN tip))))) (. ?)))
p523
sVtext
p524
VIf 27 of the customers didn't leave him a tip , how many customers did leave a tip ?
p525
sVdependencies
p526
(lp527
(lp528
Vroot
p529
aVROOT
p530
aVleave
p531
aa(lp532
Vmark
p533
aVleave
p534
aVIf
p535
aa(lp536
Vnsubj
p537
aVleave
p538
aV27
p539
aa(lp540
Vdet
p541
aVcustomers
p542
aVthe
p543
aa(lp544
Vprep_of
p545
aV27
p546
aVcustomers
p547
aa(lp548
Vaux
p549
aVleave
p550
aVdid
p551
aa(lp552
Vneg
p553
aVleave
p554
aVn't
p555
aa(lp556
Vadvcl
p557
aVleave
p558
aVleave
p559
aa(lp560
Viobj
p561
aVleave
p562
aVhim
p563
aa(lp564
Vdet
p565
aVtip
p566
ag96
aa(lp567
Vdobj
p568
aVleave
p569
aVtip
p570
aa(lp571
Vadvmod
p572
aVmany
p573
aVhow
p574
aa(lp575
Vamod
p576
aVcustomers
p577
aVmany
p578
aa(lp579
Vnsubj
p580
aVleave
p581
aVcustomers
p582
aa(lp583
Vaux
p584
aVleave
p585
aVdid
p586
aa(lp587
Vdet
p588
aVtip
p589
ag96
aa(lp590
Vdobj
p591
aVleave
p592
aVtip
p593
aasVwords
p594
(lp595
(lp596
VIf
p597
a(dp598
VNamedEntityTag
p599
g88
sVCharacterOffsetEnd
p600
V129
p601
sVCharacterOffsetBegin
p602
V127
p603
sVPartOfSpeech
p604
VIN
p605
sVLemma
p606
Vif
p607
saa(lp608
V27
p609
a(dp610
VNormalizedNamedEntityTag
p611
V27.0
p612
sVLemma
p613
V27
p614
sVCharacterOffsetEnd
p615
V132
p616
sVPartOfSpeech
p617
VCD
p618
sVCharacterOffsetBegin
p619
V130
p620
sVNamedEntityTag
p621
VNUMBER
p622
saa(lp623
Vof
p624
a(dp625
VNamedEntityTag
p626
g88
sVCharacterOffsetEnd
p627
V135
p628
sVCharacterOffsetBegin
p629
V133
p630
sVPartOfSpeech
p631
VIN
p632
sVLemma
p633
Vof
p634
saa(lp635
Vthe
p636
a(dp637
VNamedEntityTag
p638
g88
sVCharacterOffsetEnd
p639
V139
p640
sVCharacterOffsetBegin
p641
V136
p642
sVPartOfSpeech
p643
VDT
p644
sVLemma
p645
Vthe
p646
saa(lp647
Vcustomers
p648
a(dp649
VNamedEntityTag
p650
g88
sVCharacterOffsetEnd
p651
V149
p652
sVCharacterOffsetBegin
p653
V140
p654
sVPartOfSpeech
p655
VNNS
p656
sVLemma
p657
Vcustomer
p658
saa(lp659
Vdid
p660
a(dp661
VNamedEntityTag
p662
g88
sVCharacterOffsetEnd
p663
V153
p664
sVCharacterOffsetBegin
p665
V150
p666
sVPartOfSpeech
p667
VVBD
p668
sVLemma
p669
Vdo
p670
saa(lp671
Vn't
p672
a(dp673
VNamedEntityTag
p674
g88
sVCharacterOffsetEnd
p675
V156
p676
sVCharacterOffsetBegin
p677
V153
p678
sVPartOfSpeech
p679
VRB
p680
sVLemma
p681
Vnot
p682
saa(lp683
Vleave
p684
a(dp685
VNamedEntityTag
p686
g88
sVCharacterOffsetEnd
p687
V162
p688
sVCharacterOffsetBegin
p689
V157
p690
sVPartOfSpeech
p691
VVB
p692
sVLemma
p693
Vleave
p694
saa(lp695
Vhim
p696
a(dp697
VNamedEntityTag
p698
g88
sVCharacterOffsetEnd
p699
V166
p700
sVCharacterOffsetBegin
p701
V163
p702
sVPartOfSpeech
p703
VPRP
p704
sVLemma
p705
Vhe
p706
saa(lp707
g96
a(dp708
VNamedEntityTag
p709
g88
sVCharacterOffsetEnd
p710
V168
p711
sVCharacterOffsetBegin
p712
V167
p713
sVPartOfSpeech
p714
VDT
p715
sVLemma
p716
g96
saa(lp717
Vtip
p718
a(dp719
VNamedEntityTag
p720
g88
sVCharacterOffsetEnd
p721
V172
p722
sVCharacterOffsetBegin
p723
V169
p724
sVPartOfSpeech
p725
VNN
p726
sVLemma
p727
Vtip
p728
saa(lp729
V,
p730
a(dp731
VNamedEntityTag
p732
g88
sVCharacterOffsetEnd
p733
V174
p734
sVCharacterOffsetBegin
p735
V173
p736
sVPartOfSpeech
p737
g730
sVLemma
p738
g730
saa(lp739
Vhow
p740
a(dp741
VNamedEntityTag
p742
g88
sVCharacterOffsetEnd
p743
V178
p744
sVCharacterOffsetBegin
p745
V175
p746
sVPartOfSpeech
p747
VWRB
p748
sVLemma
p749
Vhow
p750
saa(lp751
Vmany
p752
a(dp753
VNamedEntityTag
p754
g88
sVCharacterOffsetEnd
p755
V183
p756
sVCharacterOffsetBegin
p757
V179
p758
sVPartOfSpeech
p759
VJJ
p760
sVLemma
p761
Vmany
p762
saa(lp763
Vcustomers
p764
a(dp765
VNamedEntityTag
p766
g88
sVCharacterOffsetEnd
p767
V193
p768
sVCharacterOffsetBegin
p769
V184
p770
sVPartOfSpeech
p771
VNNS
p772
sVLemma
p773
Vcustomer
p774
saa(lp775
Vdid
p776
a(dp777
VNamedEntityTag
p778
g88
sVCharacterOffsetEnd
p779
V197
p780
sVCharacterOffsetBegin
p781
V194
p782
sVPartOfSpeech
p783
VVBD
p784
sVLemma
p785
Vdo
p786
saa(lp787
Vleave
p788
a(dp789
VNamedEntityTag
p790
g88
sVCharacterOffsetEnd
p791
V203
p792
sVCharacterOffsetBegin
p793
V198
p794
sVPartOfSpeech
p795
VVB
p796
sVLemma
p797
Vleave
p798
saa(lp799
g96
a(dp800
VNamedEntityTag
p801
g88
sVCharacterOffsetEnd
p802
V205
p803
sVCharacterOffsetBegin
p804
V204
p805
sVPartOfSpeech
p806
VDT
p807
sVLemma
p808
g96
saa(lp809
Vtip
p810
a(dp811
VNamedEntityTag
p812
g88
sVCharacterOffsetEnd
p813
V209
p814
sVCharacterOffsetBegin
p815
V206
p816
sVPartOfSpeech
p817
VNN
p818
sVLemma
p819
Vtip
p820
saa(lp821
V?
p822
a(dp823
VNamedEntityTag
p824
g88
sVCharacterOffsetEnd
p825
V211
p826
sVCharacterOffsetBegin
p827
V210
p828
sVPartOfSpeech
p829
g267
sVLemma
p830
g822
saasVindexeddependencies
p831
(lp832
(lp833
Vroot
p834
aVROOT-0
p835
aVleave-17
p836
aa(lp837
Vmark
p838
aVleave-8
p839
aVIf-1
p840
aa(lp841
Vnsubj
p842
aVleave-8
p843
aV27-2
p844
aa(lp845
Vdet
p846
aVcustomers-5
p847
aVthe-4
p848
aa(lp849
Vprep_of
p850
aV27-2
p851
aVcustomers-5
p852
aa(lp853
Vaux
p854
aVleave-8
p855
aVdid-6
p856
aa(lp857
Vneg
p858
aVleave-8
p859
aVn't-7
p860
aa(lp861
Vadvcl
p862
aVleave-17
p863
aVleave-8
p864
aa(lp865
Viobj
p866
aVleave-8
p867
aVhim-9
p868
aa(lp869
Vdet
p870
aVtip-11
p871
aVa-10
p872
aa(lp873
Vdobj
p874
aVleave-8
p875
aVtip-11
p876
aa(lp877
Vadvmod
p878
aVmany-14
p879
aVhow-13
p880
aa(lp881
Vamod
p882
aVcustomers-15
p883
aVmany-14
p884
aa(lp885
Vnsubj
p886
aVleave-17
p887
aVcustomers-15
p888
aa(lp889
Vaux
p890
aVleave-17
p891
aVdid-16
p892
aa(lp893
Vdet
p894
aVtip-19
p895
aVa-18
p896
aa(lp897
Vdobj
p898
aVleave-17
p899
aVtip-19
p900
aasas.