(dp0
Vcoref
p1
(lp2
(lp3
(lp4
(lp5
Vshe
p6
aI2
aI3
aI3
aI4
aa(lp7
VRachel
p8
aI0
aI0
aI0
aI1
aaa(lp9
(lp10
Vshe
p11
aI3
aI4
aI4
aI5
aa(lp12
VRachel
p13
aI0
aI0
aI0
aI1
aaaa(lp14
(lp15
(lp16
Vthe pictures
p17
aI2
aI10
aI9
aI11
aa(lp18
V24 pictures
p19
aI1
aI3
aI2
aI4
aaaasVsentences
p20
(lp21
(dp22
Vparsetree
p23
V(ROOT (S (NP (NNP Rachel)) (VP (VBD bought) (NP (CD two) (VBG coloring) (NNS books))) (. .)))
p24
sVtext
p25
VRachel bought two coloring books .
p26
sVdependencies
p27
(lp28
(lp29
Vroot
p30
aVROOT
p31
aVbought
p32
aa(lp33
Vnsubj
p34
aVbought
p35
aVRachel
p36
aa(lp37
Vnum
p38
aVbooks
p39
aVtwo
p40
aa(lp41
Vamod
p42
aVbooks
p43
aVcoloring
p44
aa(lp45
Vdobj
p46
aVbought
p47
aVbooks
p48
aasVwords
p49
(lp50
(lp51
VRachel
p52
a(dp53
VNamedEntityTag
p54
VPERSON
p55
sVCharacterOffsetEnd
p56
V7
p57
sVCharacterOffsetBegin
p58
V1
p59
sVPartOfSpeech
p60
VNNP
p61
sVLemma
p62
VRachel
p63
saa(lp64
Vbought
p65
a(dp66
VNamedEntityTag
p67
VO
p68
sVCharacterOffsetEnd
p69
V14
p70
sVCharacterOffsetBegin
p71
V8
p72
sVPartOfSpeech
p73
VVBD
p74
sVLemma
p75
Vbuy
p76
saa(lp77
Vtwo
p78
a(dp79
VNormalizedNamedEntityTag
p80
V2.0
p81
sVLemma
p82
Vtwo
p83
sVCharacterOffsetEnd
p84
V18
p85
sVPartOfSpeech
p86
VCD
p87
sVCharacterOffsetBegin
p88
V15
p89
sVNamedEntityTag
p90
VNUMBER
p91
saa(lp92
Vcoloring
p93
a(dp94
VNamedEntityTag
p95
g68
sVCharacterOffsetEnd
p96
V27
p97
sVCharacterOffsetBegin
p98
V19
p99
sVPartOfSpeech
p100
VVBG
p101
sVLemma
p102
Vcolor
p103
saa(lp104
Vbooks
p105
a(dp106
VNamedEntityTag
p107
g68
sVCharacterOffsetEnd
p108
V33
p109
sVCharacterOffsetBegin
p110
V28
p111
sVPartOfSpeech
p112
VNNS
p113
sVLemma
p114
Vbook
p115
saa(lp116
V.
p117
a(dp118
VNamedEntityTag
p119
g68
sVCharacterOffsetEnd
p120
V35
p121
sVCharacterOffsetBegin
p122
V34
p123
sVPartOfSpeech
p124
g117
sVLemma
p125
g117
saasVindexeddependencies
p126
(lp127
(lp128
Vroot
p129
aVROOT-0
p130
aVbought-2
p131
aa(lp132
Vnsubj
p133
aVbought-2
p134
aVRachel-1
p135
aa(lp136
Vnum
p137
aVbooks-5
p138
aVtwo-3
p139
aa(lp140
Vamod
p141
aVbooks-5
p142
aVcoloring-4
p143
aa(lp144
Vdobj
p145
aVbought-2
p146
aVbooks-5
p147
aasa(dp148
Vparsetree
p149
V(ROOT (S (S (NP (CD One)) (VP (VBD had) (NP (CD 24) (NNS pictures)))) (CC and) (S (NP (DT the) (JJ other)) (VP (VBD had) (NP (CD 39)))) (. .)))
p150
sVtext
p151
VOne had 24 pictures and the other had 39 .
p152
sVdependencies
p153
(lp154
(lp155
Vroot
p156
aVROOT
p157
aVhad
p158
aa(lp159
Vnsubj
p160
aVhad
p161
aVOne
p162
aa(lp163
Vnum
p164
aVpictures
p165
aV24
p166
aa(lp167
Vdobj
p168
aVhad
p169
aVpictures
p170
aa(lp171
Vdet
p172
aVother
p173
aVthe
p174
aa(lp175
Vnsubj
p176
aVhad
p177
aVother
p178
aa(lp179
Vconj_and
p180
aVhad
p181
aVhad
p182
aa(lp183
Vdobj
p184
aVhad
p185
aV39
p186
aasVwords
p187
(lp188
(lp189
VOne
p190
a(dp191
VNormalizedNamedEntityTag
p192
V1.0
p193
sVLemma
p194
Vone
p195
sVCharacterOffsetEnd
p196
V39
p197
sVPartOfSpeech
p198
VCD
p199
sVCharacterOffsetBegin
p200
V36
p201
sVNamedEntityTag
p202
VNUMBER
p203
saa(lp204
Vhad
p205
a(dp206
VNamedEntityTag
p207
g68
sVCharacterOffsetEnd
p208
V43
p209
sVCharacterOffsetBegin
p210
V40
p211
sVPartOfSpeech
p212
VVBD
p213
sVLemma
p214
Vhave
p215
saa(lp216
V24
p217
a(dp218
VNormalizedNamedEntityTag
p219
V24.0
p220
sVLemma
p221
V24
p222
sVCharacterOffsetEnd
p223
V46
p224
sVPartOfSpeech
p225
VCD
p226
sVCharacterOffsetBegin
p227
V44
p228
sVNamedEntityTag
p229
VNUMBER
p230
saa(lp231
Vpictures
p232
a(dp233
VNamedEntityTag
p234
g68
sVCharacterOffsetEnd
p235
V55
p236
sVCharacterOffsetBegin
p237
V47
p238
sVPartOfSpeech
p239
VNNS
p240
sVLemma
p241
Vpicture
p242
saa(lp243
Vand
p244
a(dp245
VNamedEntityTag
p246
g68
sVCharacterOffsetEnd
p247
V59
p248
sVCharacterOffsetBegin
p249
V56
p250
sVPartOfSpeech
p251
VCC
p252
sVLemma
p253
Vand
p254
saa(lp255
Vthe
p256
a(dp257
VNamedEntityTag
p258
g68
sVCharacterOffsetEnd
p259
V63
p260
sVCharacterOffsetBegin
p261
V60
p262
sVPartOfSpeech
p263
VDT
p264
sVLemma
p265
Vthe
p266
saa(lp267
Vother
p268
a(dp269
VNamedEntityTag
p270
g68
sVCharacterOffsetEnd
p271
V69
p272
sVCharacterOffsetBegin
p273
V64
p274
sVPartOfSpeech
p275
VJJ
p276
sVLemma
p277
Vother
p278
saa(lp279
Vhad
p280
a(dp281
VNamedEntityTag
p282
g68
sVCharacterOffsetEnd
p283
V73
p284
sVCharacterOffsetBegin
p285
V70
p286
sVPartOfSpeech
p287
VVBD
p288
sVLemma
p289
Vhave
p290
saa(lp291
V39
p292
a(dp293
VNormalizedNamedEntityTag
p294
V39.0
p295
sVLemma
p296
V39
p297
sVCharacterOffsetEnd
p298
V76
p299
sVPartOfSpeech
p300
VCD
p301
sVCharacterOffsetBegin
p302
V74
p303
sVNamedEntityTag
p304
VNUMBER
p305
saa(lp306
g117
a(dp307
VNamedEntityTag
p308
g68
sVCharacterOffsetEnd
p309
V78
p310
sVCharacterOffsetBegin
p311
V77
p312
sVPartOfSpeech
p313
g117
sVLemma
p314
g117
saasVindexeddependencies
p315
(lp316
(lp317
Vroot
p318
aVROOT-0
p319
aVhad-2
p320
aa(lp321
Vnsubj
p322
aVhad-2
p323
aVOne-1
p324
aa(lp325
Vnum
p326
aVpictures-4
p327
aV24-3
p328
aa(lp329
Vdobj
p330
aVhad-2
p331
aVpictures-4
p332
aa(lp333
Vdet
p334
aVother-7
p335
aVthe-6
p336
aa(lp337
Vnsubj
p338
aVhad-8
p339
aVother-7
p340
aa(lp341
Vconj_and
p342
aVhad-2
p343
aVhad-8
p344
aa(lp345
Vdobj
p346
aVhad-8
p347
aV39-9
p348
aasa(dp349
Vparsetree
p350
V(ROOT (S (PP (IN After) (NP (CD one) (NN week))) (NP (PRP she)) (VP (VBD had) (ADVP (RB already)) (VP (VBN colored) (NP (NP (CD 4)) (PP (IN of) (NP (DT the) (NNS pictures)))))) (. .)))
p351
sVtext
p352
VAfter one week she had already colored 4 of the pictures .
p353
sVdependencies
p354
(lp355
(lp356
Vroot
p357
aVROOT
p358
aVcolored
p359
aa(lp360
Vnum
p361
aVweek
p362
aVone
p363
aa(lp364
Vprep_after
p365
aVcolored
p366
aVweek
p367
aa(lp368
Vnsubj
p369
aVcolored
p370
aVshe
p371
aa(lp372
Vaux
p373
aVcolored
p374
aVhad
p375
aa(lp376
Vadvmod
p377
aVcolored
p378
aValready
p379
aa(lp380
Vdobj
p381
aVcolored
p382
aV4
p383
aa(lp384
Vdet
p385
aVpictures
p386
aVthe
p387
aa(lp388
Vprep_of
p389
ag383
aVpictures
p390
aasVwords
p391
(lp392
(lp393
VAfter
p394
a(dp395
VNamedEntityTag
p396
g68
sVCharacterOffsetEnd
p397
V84
p398
sVCharacterOffsetBegin
p399
V79
p400
sVPartOfSpeech
p401
VIN
p402
sVLemma
p403
Vafter
p404
saa(lp405
Vone
p406
a(dp407
VNormalizedNamedEntityTag
p408
VP1W
p409
sVTimex
p410
V<TIMEX3 tid="t1" type="DURATION" value="P1W">one week</TIMEX3>
p411
sVLemma
p412
Vone
p413
sVCharacterOffsetEnd
p414
V88
p415
sVPartOfSpeech
p416
VCD
p417
sVCharacterOffsetBegin
p418
V85
p419
sVNamedEntityTag
p420
VDURATION
p421
saa(lp422
Vweek
p423
a(dp424
VNormalizedNamedEntityTag
p425
VP1W
p426
sVTimex
p427
V<TIMEX3 tid="t1" type="DURATION" value="P1W">one week</TIMEX3>
p428
sVLemma
p429
Vweek
p430
sVCharacterOffsetEnd
p431
V93
p432
sVPartOfSpeech
p433
VNN
p434
sVCharacterOffsetBegin
p435
V89
p436
sVNamedEntityTag
p437
VDURATION
p438
saa(lp439
Vshe
p440
a(dp441
VNamedEntityTag
p442
g68
sVCharacterOffsetEnd
p443
V97
p444
sVCharacterOffsetBegin
p445
V94
p446
sVPartOfSpeech
p447
VPRP
p448
sVLemma
p449
Vshe
p450
saa(lp451
Vhad
p452
a(dp453
VNamedEntityTag
p454
g68
sVCharacterOffsetEnd
p455
V101
p456
sVCharacterOffsetBegin
p457
V98
p458
sVPartOfSpeech
p459
VVBD
p460
sVLemma
p461
Vhave
p462
saa(lp463
Valready
p464
a(dp465
VNamedEntityTag
p466
g68
sVCharacterOffsetEnd
p467
V109
p468
sVCharacterOffsetBegin
p469
V102
p470
sVPartOfSpeech
p471
VRB
p472
sVLemma
p473
Valready
p474
saa(lp475
Vcolored
p476
a(dp477
VNamedEntityTag
p478
g68
sVCharacterOffsetEnd
p479
V117
p480
sVCharacterOffsetBegin
p481
V110
p482
sVPartOfSpeech
p483
VVBN
p484
sVLemma
p485
Vcolor
p486
saa(lp487
g383
a(dp488
VNormalizedNamedEntityTag
p489
V4.0
p490
sVLemma
p491
g383
sVCharacterOffsetEnd
p492
V119
p493
sVPartOfSpeech
p494
VCD
p495
sVCharacterOffsetBegin
p496
V118
p497
sVNamedEntityTag
p498
VNUMBER
p499
saa(lp500
Vof
p501
a(dp502
VNamedEntityTag
p503
g68
sVCharacterOffsetEnd
p504
V122
p505
sVCharacterOffsetBegin
p506
V120
p507
sVPartOfSpeech
p508
VIN
p509
sVLemma
p510
Vof
p511
saa(lp512
Vthe
p513
a(dp514
VNamedEntityTag
p515
g68
sVCharacterOffsetEnd
p516
V126
p517
sVCharacterOffsetBegin
p518
V123
p519
sVPartOfSpeech
p520
VDT
p521
sVLemma
p522
Vthe
p523
saa(lp524
Vpictures
p525
a(dp526
VNamedEntityTag
p527
g68
sVCharacterOffsetEnd
p528
V135
p529
sVCharacterOffsetBegin
p530
V127
p531
sVPartOfSpeech
p532
VNNS
p533
sVLemma
p534
Vpicture
p535
saa(lp536
g117
a(dp537
VNamedEntityTag
p538
g68
sVCharacterOffsetEnd
p539
V137
p540
sVCharacterOffsetBegin
p541
V136
p542
sVPartOfSpeech
p543
g117
sVLemma
p544
g117
saasVindexeddependencies
p545
(lp546
(lp547
Vroot
p548
aVROOT-0
p549
aVcolored-7
p550
aa(lp551
Vnum
p552
aVweek-3
p553
aVone-2
p554
aa(lp555
Vprep_after
p556
aVcolored-7
p557
aVweek-3
p558
aa(lp559
Vnsubj
p560
aVcolored-7
p561
aVshe-4
p562
aa(lp563
Vaux
p564
aVcolored-7
p565
aVhad-5
p566
aa(lp567
Vadvmod
p568
aVcolored-7
p569
aValready-6
p570
aa(lp571
Vdobj
p572
aVcolored-7
p573
aV4-8
p574
aa(lp575
Vdet
p576
aVpictures-11
p577
aVthe-10
p578
aa(lp579
Vprep_of
p580
aV4-8
p581
aVpictures-11
p582
aasa(dp583
Vparsetree
p584
V(ROOT (SBARQ (WHNP (WHADJP (WRB How) (JJ many)) (NNS pictures)) (SQ (VP (VBZ does) (SBAR (S (NP (PRP she)) (ADVP (RB still)) (VP (VBP have) (S (VP (TO to) (VP (VB color))))))))) (. ?)))
p585
sVtext
p586
VHow many pictures does she still have to color ?
p587
sVdependencies
p588
(lp589
(lp590
Vroot
p591
aVROOT
p592
aVdoes
p593
aa(lp594
Vadvmod
p595
aVmany
p596
aVHow
p597
aa(lp598
Vamod
p599
aVpictures
p600
aVmany
p601
aa(lp602
Vnsubj
p603
aVdoes
p604
aVpictures
p605
aa(lp606
Vnsubj
p607
aVhave
p608
aVshe
p609
aa(lp610
Vadvmod
p611
aVhave
p612
aVstill
p613
aa(lp614
Vccomp
p615
aVdoes
p616
aVhave
p617
aa(lp618
Vaux
p619
aVcolor
p620
aVto
p621
aa(lp622
Vxcomp
p623
aVhave
p624
aVcolor
p625
aasVwords
p626
(lp627
(lp628
VHow
p629
a(dp630
VNamedEntityTag
p631
g68
sVCharacterOffsetEnd
p632
V141
p633
sVCharacterOffsetBegin
p634
V138
p635
sVPartOfSpeech
p636
VWRB
p637
sVLemma
p638
Vhow
p639
saa(lp640
Vmany
p641
a(dp642
VNamedEntityTag
p643
g68
sVCharacterOffsetEnd
p644
V146
p645
sVCharacterOffsetBegin
p646
V142
p647
sVPartOfSpeech
p648
VJJ
p649
sVLemma
p650
Vmany
p651
saa(lp652
Vpictures
p653
a(dp654
VNamedEntityTag
p655
g68
sVCharacterOffsetEnd
p656
V155
p657
sVCharacterOffsetBegin
p658
V147
p659
sVPartOfSpeech
p660
VNNS
p661
sVLemma
p662
Vpicture
p663
saa(lp664
Vdoes
p665
a(dp666
VNamedEntityTag
p667
g68
sVCharacterOffsetEnd
p668
V160
p669
sVCharacterOffsetBegin
p670
V156
p671
sVPartOfSpeech
p672
VVBZ
p673
sVLemma
p674
Vdo
p675
saa(lp676
Vshe
p677
a(dp678
VNamedEntityTag
p679
g68
sVCharacterOffsetEnd
p680
V164
p681
sVCharacterOffsetBegin
p682
V161
p683
sVPartOfSpeech
p684
VPRP
p685
sVLemma
p686
Vshe
p687
saa(lp688
Vstill
p689
a(dp690
VNamedEntityTag
p691
g68
sVCharacterOffsetEnd
p692
V170
p693
sVCharacterOffsetBegin
p694
V165
p695
sVPartOfSpeech
p696
VRB
p697
sVLemma
p698
Vstill
p699
saa(lp700
Vhave
p701
a(dp702
VNamedEntityTag
p703
g68
sVCharacterOffsetEnd
p704
V175
p705
sVCharacterOffsetBegin
p706
V171
p707
sVPartOfSpeech
p708
VVBP
p709
sVLemma
p710
Vhave
p711
saa(lp712
Vto
p713
a(dp714
VNamedEntityTag
p715
g68
sVCharacterOffsetEnd
p716
V178
p717
sVCharacterOffsetBegin
p718
V176
p719
sVPartOfSpeech
p720
VTO
p721
sVLemma
p722
Vto
p723
saa(lp724
Vcolor
p725
a(dp726
VNamedEntityTag
p727
g68
sVCharacterOffsetEnd
p728
V184
p729
sVCharacterOffsetBegin
p730
V179
p731
sVPartOfSpeech
p732
VVB
p733
sVLemma
p734
Vcolor
p735
saa(lp736
V?
p737
a(dp738
VNamedEntityTag
p739
g68
sVCharacterOffsetEnd
p740
V186
p741
sVCharacterOffsetBegin
p742
V185
p743
sVPartOfSpeech
p744
g117
sVLemma
p745
g737
saasVindexeddependencies
p746
(lp747
(lp748
Vroot
p749
aVROOT-0
p750
aVdoes-4
p751
aa(lp752
Vadvmod
p753
aVmany-2
p754
aVHow-1
p755
aa(lp756
Vamod
p757
aVpictures-3
p758
aVmany-2
p759
aa(lp760
Vnsubj
p761
aVdoes-4
p762
aVpictures-3
p763
aa(lp764
Vnsubj
p765
aVhave-7
p766
aVshe-5
p767
aa(lp768
Vadvmod
p769
aVhave-7
p770
aVstill-6
p771
aa(lp772
Vccomp
p773
aVdoes-4
p774
aVhave-7
p775
aa(lp776
Vaux
p777
aVcolor-9
p778
aVto-8
p779
aa(lp780
Vxcomp
p781
aVhave-7
p782
aVcolor-9
p783
aasas.