(dp0
Vcoref
p1
(lp2
(lp3
(lp4
(lp5
Vhis
p6
aI0
aI5
aI5
aI6
aa(lp7
VNed
p8
aI0
aI0
aI0
aI1
aaa(lp9
(lp10
VHe
p11
aI1
aI0
aI0
aI1
aa(lp12
VNed
p13
aI0
aI0
aI0
aI1
aaa(lp14
(lp15
Vhe
p16
aI2
aI14
aI14
aI15
aa(lp17
VNed
p18
aI0
aI0
aI0
aI1
aaaa(lp19
(lp20
(lp21
Vthe games
p22
aI2
aI4
aI3
aI5
aa(lp23
V50 games
p24
aI1
aI3
aI2
aI4
aaaasVsentences
p25
(lp26
(dp27
Vparsetree
p28
V(ROOT (S (NP (NNP Ned)) (VP (VBD was) (VP (VBG trying) (S (VP (TO to) (VP (VB expand) (NP (PRP$ his) (NN game) (NN collection))))))) (. .)))
p29
sVtext
p30
VNed was trying to expand his game collection .
p31
sVdependencies
p32
(lp33
(lp34
Vroot
p35
aVROOT
p36
aVtrying
p37
aa(lp38
Vnsubj
p39
aVtrying
p40
aVNed
p41
aa(lp42
Vaux
p43
aVtrying
p44
aVwas
p45
aa(lp46
Vaux
p47
aVexpand
p48
aVto
p49
aa(lp50
Vxcomp
p51
aVtrying
p52
aVexpand
p53
aa(lp54
Vposs
p55
aVcollection
p56
aVhis
p57
aa(lp58
Vnn
p59
aVcollection
p60
aVgame
p61
aa(lp62
Vdobj
p63
aVexpand
p64
aVcollection
p65
aasVwords
p66
(lp67
(lp68
VNed
p69
a(dp70
VNamedEntityTag
p71
VPERSON
p72
sVCharacterOffsetEnd
p73
V4
p74
sVCharacterOffsetBegin
p75
V1
p76
sVPartOfSpeech
p77
VNNP
p78
sVLemma
p79
VNed
p80
saa(lp81
Vwas
p82
a(dp83
VNamedEntityTag
p84
VO
p85
sVCharacterOffsetEnd
p86
V8
p87
sVCharacterOffsetBegin
p88
V5
p89
sVPartOfSpeech
p90
VVBD
p91
sVLemma
p92
Vbe
p93
saa(lp94
Vtrying
p95
a(dp96
VNamedEntityTag
p97
g85
sVCharacterOffsetEnd
p98
V15
p99
sVCharacterOffsetBegin
p100
V9
p101
sVPartOfSpeech
p102
VVBG
p103
sVLemma
p104
Vtry
p105
saa(lp106
Vto
p107
a(dp108
VNamedEntityTag
p109
g85
sVCharacterOffsetEnd
p110
V18
p111
sVCharacterOffsetBegin
p112
V16
p113
sVPartOfSpeech
p114
VTO
p115
sVLemma
p116
Vto
p117
saa(lp118
Vexpand
p119
a(dp120
VNamedEntityTag
p121
g85
sVCharacterOffsetEnd
p122
V25
p123
sVCharacterOffsetBegin
p124
V19
p125
sVPartOfSpeech
p126
VVB
p127
sVLemma
p128
Vexpand
p129
saa(lp130
Vhis
p131
a(dp132
VNamedEntityTag
p133
g85
sVCharacterOffsetEnd
p134
V29
p135
sVCharacterOffsetBegin
p136
V26
p137
sVPartOfSpeech
p138
VPRP$
p139
sVLemma
p140
Vhe
p141
saa(lp142
Vgame
p143
a(dp144
VNamedEntityTag
p145
g85
sVCharacterOffsetEnd
p146
V34
p147
sVCharacterOffsetBegin
p148
V30
p149
sVPartOfSpeech
p150
VNN
p151
sVLemma
p152
Vgame
p153
saa(lp154
Vcollection
p155
a(dp156
VNamedEntityTag
p157
g85
sVCharacterOffsetEnd
p158
V45
p159
sVCharacterOffsetBegin
p160
V35
p161
sVPartOfSpeech
p162
VNN
p163
sVLemma
p164
Vcollection
p165
saa(lp166
V.
p167
a(dp168
VNamedEntityTag
p169
g85
sVCharacterOffsetEnd
p170
V47
p171
sVCharacterOffsetBegin
p172
V46
p173
sVPartOfSpeech
p174
g167
sVLemma
p175
g167
saasVindexeddependencies
p176
(lp177
(lp178
Vroot
p179
aVROOT-0
p180
aVtrying-3
p181
aa(lp182
Vnsubj
p183
aVtrying-3
p184
aVNed-1
p185
aa(lp186
Vaux
p187
aVtrying-3
p188
aVwas-2
p189
aa(lp190
Vaux
p191
aVexpand-5
p192
aVto-4
p193
aa(lp194
Vxcomp
p195
aVtrying-3
p196
aVexpand-5
p197
aa(lp198
Vposs
p199
aVcollection-8
p200
aVhis-6
p201
aa(lp202
Vnn
p203
aVcollection-8
p204
aVgame-7
p205
aa(lp206
Vdobj
p207
aVexpand-5
p208
aVcollection-8
p209
aasa(dp210
Vparsetree
p211
V(ROOT (S (NP (PRP He)) (VP (VP (VBD bought) (NP (CD 50) (NNS games)) (PP (IN from) (NP (DT a) (NN friend)))) (CC and) (VP (VBD bought) (ADVP (NP (CD 27)) (JJR more)) (PP (IN at) (NP (DT a) (NN garage) (NN sale))))) (. .)))
p212
sVtext
p213
VHe bought 50 games from a friend and bought 27 more at a garage sale .
p214
sVdependencies
p215
(lp216
(lp217
Vroot
p218
aVROOT
p219
aVbought
p220
aa(lp221
Vnsubj
p222
aVbought
p223
aVHe
p224
aa(lp225
Vnum
p226
aVgames
p227
aV50
p228
aa(lp229
Vdobj
p230
aVbought
p231
aVgames
p232
aa(lp233
Vdet
p234
aVfriend
p235
aVa
p236
aa(lp237
Vprep_from
p238
aVbought
p239
aVfriend
p240
aa(lp241
Vconj_and
p242
aVbought
p243
aVbought
p244
aa(lp245
Vnpadvmod
p246
aVmore
p247
aV27
p248
aa(lp249
Vadvmod
p250
aVbought
p251
aVmore
p252
aa(lp253
Vdet
p254
aVsale
p255
ag236
aa(lp256
Vnn
p257
aVsale
p258
aVgarage
p259
aa(lp260
Vprep_at
p261
aVbought
p262
aVsale
p263
aasVwords
p264
(lp265
(lp266
VHe
p267
a(dp268
VNamedEntityTag
p269
g85
sVCharacterOffsetEnd
p270
V50
p271
sVCharacterOffsetBegin
p272
V48
p273
sVPartOfSpeech
p274
VPRP
p275
sVLemma
p276
Vhe
p277
saa(lp278
Vbought
p279
a(dp280
VNamedEntityTag
p281
g85
sVCharacterOffsetEnd
p282
V57
p283
sVCharacterOffsetBegin
p284
V51
p285
sVPartOfSpeech
p286
VVBD
p287
sVLemma
p288
Vbuy
p289
saa(lp290
V50
p291
a(dp292
VNormalizedNamedEntityTag
p293
V50.0
p294
sVLemma
p295
V50
p296
sVCharacterOffsetEnd
p297
V60
p298
sVPartOfSpeech
p299
VCD
p300
sVCharacterOffsetBegin
p301
V58
p302
sVNamedEntityTag
p303
VNUMBER
p304
saa(lp305
Vgames
p306
a(dp307
VNamedEntityTag
p308
g85
sVCharacterOffsetEnd
p309
V66
p310
sVCharacterOffsetBegin
p311
V61
p312
sVPartOfSpeech
p313
VNNS
p314
sVLemma
p315
Vgame
p316
saa(lp317
Vfrom
p318
a(dp319
VNamedEntityTag
p320
g85
sVCharacterOffsetEnd
p321
V71
p322
sVCharacterOffsetBegin
p323
V67
p324
sVPartOfSpeech
p325
VIN
p326
sVLemma
p327
Vfrom
p328
saa(lp329
g236
a(dp330
VNamedEntityTag
p331
g85
sVCharacterOffsetEnd
p332
V73
p333
sVCharacterOffsetBegin
p334
V72
p335
sVPartOfSpeech
p336
VDT
p337
sVLemma
p338
g236
saa(lp339
Vfriend
p340
a(dp341
VNamedEntityTag
p342
g85
sVCharacterOffsetEnd
p343
V80
p344
sVCharacterOffsetBegin
p345
V74
p346
sVPartOfSpeech
p347
VNN
p348
sVLemma
p349
Vfriend
p350
saa(lp351
Vand
p352
a(dp353
VNamedEntityTag
p354
g85
sVCharacterOffsetEnd
p355
V84
p356
sVCharacterOffsetBegin
p357
V81
p358
sVPartOfSpeech
p359
VCC
p360
sVLemma
p361
Vand
p362
saa(lp363
Vbought
p364
a(dp365
VNamedEntityTag
p366
g85
sVCharacterOffsetEnd
p367
V91
p368
sVCharacterOffsetBegin
p369
V85
p370
sVPartOfSpeech
p371
VVBD
p372
sVLemma
p373
Vbuy
p374
saa(lp375
V27
p376
a(dp377
VNormalizedNamedEntityTag
p378
V27.0
p379
sVLemma
p380
V27
p381
sVCharacterOffsetEnd
p382
V94
p383
sVPartOfSpeech
p384
VCD
p385
sVCharacterOffsetBegin
p386
V92
p387
sVNamedEntityTag
p388
VNUMBER
p389
saa(lp390
Vmore
p391
a(dp392
VNamedEntityTag
p393
g85
sVCharacterOffsetEnd
p394
V99
p395
sVCharacterOffsetBegin
p396
V95
p397
sVPartOfSpeech
p398
VJJR
p399
sVLemma
p400
Vmore
p401
saa(lp402
Vat
p403
a(dp404
VNamedEntityTag
p405
g85
sVCharacterOffsetEnd
p406
V102
p407
sVCharacterOffsetBegin
p408
V100
p409
sVPartOfSpeech
p410
VIN
p411
sVLemma
p412
Vat
p413
saa(lp414
g236
a(dp415
VNamedEntityTag
p416
g85
sVCharacterOffsetEnd
p417
V104
p418
sVCharacterOffsetBegin
p419
V103
p420
sVPartOfSpeech
p421
VDT
p422
sVLemma
p423
g236
saa(lp424
Vgarage
p425
a(dp426
VNamedEntityTag
p427
g85
sVCharacterOffsetEnd
p428
V111
p429
sVCharacterOffsetBegin
p430
V105
p431
sVPartOfSpeech
p432
VNN
p433
sVLemma
p434
Vgarage
p435
saa(lp436
Vsale
p437
a(dp438
VNamedEntityTag
p439
g85
sVCharacterOffsetEnd
p440
V116
p441
sVCharacterOffsetBegin
p442
V112
p443
sVPartOfSpeech
p444
VNN
p445
sVLemma
p446
Vsale
p447
saa(lp448
g167
a(dp449
VNamedEntityTag
p450
g85
sVCharacterOffsetEnd
p451
V118
p452
sVCharacterOffsetBegin
p453
V117
p454
sVPartOfSpeech
p455
g167
sVLemma
p456
g167
saasVindexeddependencies
p457
(lp458
(lp459
Vroot
p460
aVROOT-0
p461
aVbought-2
p462
aa(lp463
Vnsubj
p464
aVbought-2
p465
aVHe-1
p466
aa(lp467
Vnum
p468
aVgames-4
p469
aV50-3
p470
aa(lp471
Vdobj
p472
aVbought-2
p473
aVgames-4
p474
aa(lp475
Vdet
p476
aVfriend-7
p477
aVa-6
p478
aa(lp479
Vprep_from
p480
aVbought-2
p481
aVfriend-7
p482
aa(lp483
Vconj_and
p484
aVbought-2
p485
aVbought-9
p486
aa(lp487
Vnpadvmod
p488
aVmore-11
p489
aV27-10
p490
aa(lp491
Vadvmod
p492
aVbought-9
p493
aVmore-11
p494
aa(lp495
Vdet
p496
aVsale-15
p497
aVa-13
p498
aa(lp499
Vnn
p500
aVsale-15
p501
aVgarage-14
p502
aa(lp503
Vprep_at
p504
aVbought-9
p505
aVsale-15
p506
aasa(dp507
Vparsetree
p508
V(ROOT (SBARQ (SBAR (IN If) (S (NP (NP (CD 74)) (PP (IN of) (NP (DT the) (NNS games)))) (VP (VBD did) (RB n't) (VP (VB work))))) (, ,) (WHNP (WHADJP (WRB how) (JJ many)) (JJ good) (NNS games)) (SQ (VBD did) (NP (PRP he)) (VP (VB end) (PRT (RP up)) (PP (IN with)))) (. ?)))
p509
sVtext
p510
VIf 74 of the games didn't work , how many good games did he end up with ?
p511
sVdependencies
p512
(lp513
(lp514
Vroot
p515
aVROOT
p516
aVend
p517
aa(lp518
Vmark
p519
aVwork
p520
aVIf
p521
aa(lp522
Vnsubj
p523
aVwork
p524
aV74
p525
aa(lp526
Vdet
p527
aVgames
p528
aVthe
p529
aa(lp530
Vprep_of
p531
aV74
p532
aVgames
p533
aa(lp534
Vaux
p535
aVwork
p536
aVdid
p537
aa(lp538
Vneg
p539
aVwork
p540
aVn't
p541
aa(lp542
Vadvcl
p543
aVend
p544
aVwork
p545
aa(lp546
Vadvmod
p547
aVmany
p548
aVhow
p549
aa(lp550
Vamod
p551
aVgames
p552
aVmany
p553
aa(lp554
Vamod
p555
aVgames
p556
aVgood
p557
aa(lp558
Vdep
p559
aVend
p560
aVgames
p561
aa(lp562
Vaux
p563
aVend
p564
aVdid
p565
aa(lp566
Vnsubj
p567
aVend
p568
aVhe
p569
aa(lp570
Vprt
p571
aVend
p572
aVup
p573
aa(lp574
Vprep
p575
aVend
p576
aVwith
p577
aasVwords
p578
(lp579
(lp580
VIf
p581
a(dp582
VNamedEntityTag
p583
g85
sVCharacterOffsetEnd
p584
V121
p585
sVCharacterOffsetBegin
p586
V119
p587
sVPartOfSpeech
p588
VIN
p589
sVLemma
p590
Vif
p591
saa(lp592
V74
p593
a(dp594
VNormalizedNamedEntityTag
p595
V74.0
p596
sVLemma
p597
V74
p598
sVCharacterOffsetEnd
p599
V124
p600
sVPartOfSpeech
p601
VCD
p602
sVCharacterOffsetBegin
p603
V122
p604
sVNamedEntityTag
p605
VNUMBER
p606
saa(lp607
Vof
p608
a(dp609
VNamedEntityTag
p610
g85
sVCharacterOffsetEnd
p611
V127
p612
sVCharacterOffsetBegin
p613
V125
p614
sVPartOfSpeech
p615
VIN
p616
sVLemma
p617
Vof
p618
saa(lp619
Vthe
p620
a(dp621
VNamedEntityTag
p622
g85
sVCharacterOffsetEnd
p623
V131
p624
sVCharacterOffsetBegin
p625
V128
p626
sVPartOfSpeech
p627
VDT
p628
sVLemma
p629
Vthe
p630
saa(lp631
Vgames
p632
a(dp633
VNamedEntityTag
p634
g85
sVCharacterOffsetEnd
p635
V137
p636
sVCharacterOffsetBegin
p637
V132
p638
sVPartOfSpeech
p639
VNNS
p640
sVLemma
p641
Vgame
p642
saa(lp643
Vdid
p644
a(dp645
VNamedEntityTag
p646
g85
sVCharacterOffsetEnd
p647
V141
p648
sVCharacterOffsetBegin
p649
V138
p650
sVPartOfSpeech
p651
VVBD
p652
sVLemma
p653
Vdo
p654
saa(lp655
Vn't
p656
a(dp657
VNamedEntityTag
p658
g85
sVCharacterOffsetEnd
p659
V144
p660
sVCharacterOffsetBegin
p661
V141
p662
sVPartOfSpeech
p663
VRB
p664
sVLemma
p665
Vnot
p666
saa(lp667
Vwork
p668
a(dp669
VNamedEntityTag
p670
g85
sVCharacterOffsetEnd
p671
V149
p672
sVCharacterOffsetBegin
p673
V145
p674
sVPartOfSpeech
p675
VVB
p676
sVLemma
p677
Vwork
p678
saa(lp679
V,
p680
a(dp681
VNamedEntityTag
p682
g85
sVCharacterOffsetEnd
p683
V151
p684
sVCharacterOffsetBegin
p685
V150
p686
sVPartOfSpeech
p687
g680
sVLemma
p688
g680
saa(lp689
Vhow
p690
a(dp691
VNamedEntityTag
p692
g85
sVCharacterOffsetEnd
p693
V155
p694
sVCharacterOffsetBegin
p695
V152
p696
sVPartOfSpeech
p697
VWRB
p698
sVLemma
p699
Vhow
p700
saa(lp701
Vmany
p702
a(dp703
VNamedEntityTag
p704
g85
sVCharacterOffsetEnd
p705
V160
p706
sVCharacterOffsetBegin
p707
V156
p708
sVPartOfSpeech
p709
VJJ
p710
sVLemma
p711
Vmany
p712
saa(lp713
Vgood
p714
a(dp715
VNamedEntityTag
p716
g85
sVCharacterOffsetEnd
p717
V165
p718
sVCharacterOffsetBegin
p719
V161
p720
sVPartOfSpeech
p721
VJJ
p722
sVLemma
p723
Vgood
p724
saa(lp725
Vgames
p726
a(dp727
VNamedEntityTag
p728
g85
sVCharacterOffsetEnd
p729
V171
p730
sVCharacterOffsetBegin
p731
V166
p732
sVPartOfSpeech
p733
VNNS
p734
sVLemma
p735
Vgame
p736
saa(lp737
Vdid
p738
a(dp739
VNamedEntityTag
p740
g85
sVCharacterOffsetEnd
p741
V175
p742
sVCharacterOffsetBegin
p743
V172
p744
sVPartOfSpeech
p745
VVBD
p746
sVLemma
p747
Vdo
p748
saa(lp749
Vhe
p750
a(dp751
VNamedEntityTag
p752
g85
sVCharacterOffsetEnd
p753
V178
p754
sVCharacterOffsetBegin
p755
V176
p756
sVPartOfSpeech
p757
VPRP
p758
sVLemma
p759
Vhe
p760
saa(lp761
Vend
p762
a(dp763
VNamedEntityTag
p764
g85
sVCharacterOffsetEnd
p765
V182
p766
sVCharacterOffsetBegin
p767
V179
p768
sVPartOfSpeech
p769
VVB
p770
sVLemma
p771
Vend
p772
saa(lp773
Vup
p774
a(dp775
VNamedEntityTag
p776
g85
sVCharacterOffsetEnd
p777
V185
p778
sVCharacterOffsetBegin
p779
V183
p780
sVPartOfSpeech
p781
VRP
p782
sVLemma
p783
Vup
p784
saa(lp785
Vwith
p786
a(dp787
VNamedEntityTag
p788
g85
sVCharacterOffsetEnd
p789
V190
p790
sVCharacterOffsetBegin
p791
V186
p792
sVPartOfSpeech
p793
VIN
p794
sVLemma
p795
Vwith
p796
saa(lp797
V?
p798
a(dp799
VNamedEntityTag
p800
g85
sVCharacterOffsetEnd
p801
V192
p802
sVCharacterOffsetBegin
p803
V191
p804
sVPartOfSpeech
p805
g167
sVLemma
p806
g798
saasVindexeddependencies
p807
(lp808
(lp809
Vroot
p810
aVROOT-0
p811
aVend-16
p812
aa(lp813
Vmark
p814
aVwork-8
p815
aVIf-1
p816
aa(lp817
Vnsubj
p818
aVwork-8
p819
aV74-2
p820
aa(lp821
Vdet
p822
aVgames-5
p823
aVthe-4
p824
aa(lp825
Vprep_of
p826
aV74-2
p827
aVgames-5
p828
aa(lp829
Vaux
p830
aVwork-8
p831
aVdid-6
p832
aa(lp833
Vneg
p834
aVwork-8
p835
aVn't-7
p836
aa(lp837
Vadvcl
p838
aVend-16
p839
aVwork-8
p840
aa(lp841
Vadvmod
p842
aVmany-11
p843
aVhow-10
p844
aa(lp845
Vamod
p846
aVgames-13
p847
aVmany-11
p848
aa(lp849
Vamod
p850
aVgames-13
p851
aVgood-12
p852
aa(lp853
Vdep
p854
aVend-16
p855
aVgames-13
p856
aa(lp857
Vaux
p858
aVend-16
p859
aVdid-14
p860
aa(lp861
Vnsubj
p862
aVend-16
p863
aVhe-15
p864
aa(lp865
Vprt
p866
aVend-16
p867
aVup-17
p868
aa(lp869
Vprep
p870
aVend-16
p871
aVwith-18
p872
aasas.