(dp0
Vcoref
p1
(lp2
(lp3
(lp4
(lp5
Vthe cafe
p6
aI1
aI4
aI3
aI5
aa(lp7
VShane 's Cafe
p8
aI0
aI2
aI0
aI3
aaa(lp9
(lp10
Vthe cafe
p11
aI2
aI6
aI5
aI7
aa(lp12
VShane 's Cafe
p13
aI0
aI2
aI0
aI3
aaaa(lp14
(lp15
(lp16
Vespressos
p17
aI2
aI3
aI3
aI4
aa(lp18
V20 espressos in all
p19
aI1
aI7
aI6
aI10
aaaasVsentences
p20
(lp21
(dp22
Vparsetree
p23
V(ROOT (S (NP (NP (NNP Shane) (POS 's)) (NNP Cafe)) (VP (VBZ offers) (NP (NP (NP (CD two) (NNS kinds)) (PP (IN of) (NP (NN espresso)))) (: :) (NP (NP (JJ single-shot)) (CC and) (NP (NN double-shot))))) (. .)))
p24
sVtext
p25
VShane's Cafe offers two kinds of espresso: single-shot and double-shot .
p26
sVdependencies
p27
(lp28
(lp29
Vroot
p30
aVROOT
p31
aVoffers
p32
aa(lp33
Vposs
p34
aVCafe
p35
aVShane
p36
aa(lp37
Vnsubj
p38
aVoffers
p39
aVCafe
p40
aa(lp41
Vnum
p42
aVkinds
p43
aVtwo
p44
aa(lp45
Vdobj
p46
aVoffers
p47
aVkinds
p48
aa(lp49
Vprep_of
p50
aVkinds
p51
aVespresso
p52
aa(lp53
Vdep
p54
aVkinds
p55
aVsingle-shot
p56
aa(lp57
Vconj_and
p58
aVsingle-shot
p59
aVdouble-shot
p60
aasVwords
p61
(lp62
(lp63
VShane
p64
a(dp65
VNamedEntityTag
p66
VPERSON
p67
sVCharacterOffsetEnd
p68
V6
p69
sVCharacterOffsetBegin
p70
V1
p71
sVPartOfSpeech
p72
VNNP
p73
sVLemma
p74
VShane
p75
saa(lp76
V's
p77
a(dp78
VNamedEntityTag
p79
VO
p80
sVCharacterOffsetEnd
p81
V8
p82
sVCharacterOffsetBegin
p83
g69
sVPartOfSpeech
p84
VPOS
p85
sVLemma
p86
V's
p87
saa(lp88
VCafe
p89
a(dp90
VNamedEntityTag
p91
g80
sVCharacterOffsetEnd
p92
V13
p93
sVCharacterOffsetBegin
p94
V9
p95
sVPartOfSpeech
p96
VNNP
p97
sVLemma
p98
VCafe
p99
saa(lp100
Voffers
p101
a(dp102
VNamedEntityTag
p103
g80
sVCharacterOffsetEnd
p104
V20
p105
sVCharacterOffsetBegin
p106
V14
p107
sVPartOfSpeech
p108
VVBZ
p109
sVLemma
p110
Voffer
p111
saa(lp112
Vtwo
p113
a(dp114
VNormalizedNamedEntityTag
p115
V2.0
p116
sVLemma
p117
Vtwo
p118
sVCharacterOffsetEnd
p119
V24
p120
sVPartOfSpeech
p121
VCD
p122
sVCharacterOffsetBegin
p123
V21
p124
sVNamedEntityTag
p125
VNUMBER
p126
saa(lp127
Vkinds
p128
a(dp129
VNamedEntityTag
p130
g80
sVCharacterOffsetEnd
p131
V30
p132
sVCharacterOffsetBegin
p133
V25
p134
sVPartOfSpeech
p135
VNNS
p136
sVLemma
p137
Vkind
p138
saa(lp139
Vof
p140
a(dp141
VNamedEntityTag
p142
g80
sVCharacterOffsetEnd
p143
V33
p144
sVCharacterOffsetBegin
p145
V31
p146
sVPartOfSpeech
p147
VIN
p148
sVLemma
p149
Vof
p150
saa(lp151
Vespresso
p152
a(dp153
VNamedEntityTag
p154
g80
sVCharacterOffsetEnd
p155
V42
p156
sVCharacterOffsetBegin
p157
V34
p158
sVPartOfSpeech
p159
VNN
p160
sVLemma
p161
Vespresso
p162
saa(lp163
V:
p164
a(dp165
VNamedEntityTag
p166
g80
sVCharacterOffsetEnd
p167
V43
p168
sVCharacterOffsetBegin
p169
V42
p170
sVPartOfSpeech
p171
g164
sVLemma
p172
g164
saa(lp173
Vsingle-shot
p174
a(dp175
VNamedEntityTag
p176
g80
sVCharacterOffsetEnd
p177
V55
p178
sVCharacterOffsetBegin
p179
V44
p180
sVPartOfSpeech
p181
VJJ
p182
sVLemma
p183
Vsingle-shot
p184
saa(lp185
Vand
p186
a(dp187
VNamedEntityTag
p188
g80
sVCharacterOffsetEnd
p189
V59
p190
sVCharacterOffsetBegin
p191
V56
p192
sVPartOfSpeech
p193
VCC
p194
sVLemma
p195
Vand
p196
saa(lp197
Vdouble-shot
p198
a(dp199
VNamedEntityTag
p200
g80
sVCharacterOffsetEnd
p201
V71
p202
sVCharacterOffsetBegin
p203
V60
p204
sVPartOfSpeech
p205
VNN
p206
sVLemma
p207
Vdouble-shot
p208
saa(lp209
V.
p210
a(dp211
VNamedEntityTag
p212
g80
sVCharacterOffsetEnd
p213
V73
p214
sVCharacterOffsetBegin
p215
V72
p216
sVPartOfSpeech
p217
g210
sVLemma
p218
g210
saasVindexeddependencies
p219
(lp220
(lp221
Vroot
p222
aVROOT-0
p223
aVoffers-4
p224
aa(lp225
Vposs
p226
aVCafe-3
p227
aVShane-1
p228
aa(lp229
Vnsubj
p230
aVoffers-4
p231
aVCafe-3
p232
aa(lp233
Vnum
p234
aVkinds-6
p235
aVtwo-5
p236
aa(lp237
Vdobj
p238
aVoffers-4
p239
aVkinds-6
p240
aa(lp241
Vprep_of
p242
aVkinds-6
p243
aVespresso-8
p244
aa(lp245
Vdep
p246
aVkinds-6
p247
aVsingle-shot-10
p248
aa(lp249
Vconj_and
p250
aVsingle-shot-10
p251
aVdouble-shot-12
p252
aasa(dp253
Vparsetree
p254
V(ROOT (S (NP-TMP (NN Yesterday) (NN afternoon)) (, ,) (NP (DT the) (NN cafe)) (VP (VBD sold) (NP (NP (CD 20) (NNS espressos)) (PP (IN in) (NP (DT all)))) (, ,) (PP (NP (CD 0.6) (NNS times)) (IN of) (SBAR (WHNP (WDT which)) (S (VP (VBD were) (ADJP (JJ single-shot))))))) (. .)))
p255
sVtext
p256
VYesterday afternoon , the cafe sold 20 espressos in all , 0.6 times of which were single-shot .
p257
sVdependencies
p258
(lp259
(lp260
Vroot
p261
aVROOT
p262
aVsold
p263
aa(lp264
Vnn
p265
aVafternoon
p266
aVYesterday
p267
aa(lp268
Vtmod
p269
aVsold
p270
aVafternoon
p271
aa(lp272
Vdet
p273
aVcafe
p274
aVthe
p275
aa(lp276
Vnsubj
p277
aVsold
p278
aVcafe
p279
aa(lp280
Vnum
p281
aVespressos
p282
aV20
p283
aa(lp284
Vdobj
p285
aVsold
p286
aVespressos
p287
aa(lp288
Vprep_in
p289
aVespressos
p290
aVall
p291
aa(lp292
Vnum
p293
aVtimes
p294
aV0.6
p295
aa(lp296
Vnpadvmod
p297
aVsold
p298
aVtimes
p299
aa(lp300
Vnsubj
p301
aVsingle-shot
p302
aVwhich
p303
aa(lp304
Vcop
p305
aVsingle-shot
p306
aVwere
p307
aa(lp308
Vprepc_of
p309
aVsold
p310
aVsingle-shot
p311
aasVwords
p312
(lp313
(lp314
VYesterday
p315
a(dp316
VNormalizedNamedEntityTag
p317
VOFFSET
p318
sVTimex
p319
V<TIMEX3 alt_value="OFFSET P-1D INTERSECT AF" anchorTimeID="t2" temporalFunction="true" tid="t1" type="DATE" valueFromFunction="tf0">Yesterday afternoon</TIMEX3>
p320
sVLemma
p321
Vyesterday
p322
sVCharacterOffsetEnd
p323
V83
p324
sVPartOfSpeech
p325
VNN
p326
sVCharacterOffsetBegin
p327
V74
p328
sVNamedEntityTag
p329
VDATE
p330
saa(lp331
Vafternoon
p332
a(dp333
VNormalizedNamedEntityTag
p334
VOFFSET
p335
sVTimex
p336
V<TIMEX3 alt_value="OFFSET P-1D INTERSECT AF" anchorTimeID="t2" temporalFunction="true" tid="t1" type="DATE" valueFromFunction="tf0">Yesterday afternoon</TIMEX3>
p337
sVLemma
p338
Vafternoon
p339
sVCharacterOffsetEnd
p340
V93
p341
sVPartOfSpeech
p342
VNN
p343
sVCharacterOffsetBegin
p344
V84
p345
sVNamedEntityTag
p346
VDATE
p347
saa(lp348
V,
p349
a(dp350
VNamedEntityTag
p351
g80
sVCharacterOffsetEnd
p352
V95
p353
sVCharacterOffsetBegin
p354
V94
p355
sVPartOfSpeech
p356
g349
sVLemma
p357
g349
saa(lp358
Vthe
p359
a(dp360
VNamedEntityTag
p361
g80
sVCharacterOffsetEnd
p362
V99
p363
sVCharacterOffsetBegin
p364
V96
p365
sVPartOfSpeech
p366
VDT
p367
sVLemma
p368
Vthe
p369
saa(lp370
Vcafe
p371
a(dp372
VNamedEntityTag
p373
g80
sVCharacterOffsetEnd
p374
V104
p375
sVCharacterOffsetBegin
p376
V100
p377
sVPartOfSpeech
p378
VNN
p379
sVLemma
p380
Vcafe
p381
saa(lp382
Vsold
p383
a(dp384
VNamedEntityTag
p385
g80
sVCharacterOffsetEnd
p386
V109
p387
sVCharacterOffsetBegin
p388
V105
p389
sVPartOfSpeech
p390
VVBD
p391
sVLemma
p392
Vsell
p393
saa(lp394
V20
p395
a(dp396
VNormalizedNamedEntityTag
p397
V20.0
p398
sVLemma
p399
V20
p400
sVCharacterOffsetEnd
p401
V112
p402
sVPartOfSpeech
p403
VCD
p404
sVCharacterOffsetBegin
p405
V110
p406
sVNamedEntityTag
p407
VNUMBER
p408
saa(lp409
Vespressos
p410
a(dp411
VNamedEntityTag
p412
g80
sVCharacterOffsetEnd
p413
V122
p414
sVCharacterOffsetBegin
p415
V113
p416
sVPartOfSpeech
p417
VNNS
p418
sVLemma
p419
Vespresso
p420
saa(lp421
Vin
p422
a(dp423
VNamedEntityTag
p424
g80
sVCharacterOffsetEnd
p425
V125
p426
sVCharacterOffsetBegin
p427
V123
p428
sVPartOfSpeech
p429
VIN
p430
sVLemma
p431
Vin
p432
saa(lp433
Vall
p434
a(dp435
VNamedEntityTag
p436
g80
sVCharacterOffsetEnd
p437
V129
p438
sVCharacterOffsetBegin
p439
V126
p440
sVPartOfSpeech
p441
VDT
p442
sVLemma
p443
Vall
p444
saa(lp445
g349
a(dp446
VNamedEntityTag
p447
g80
sVCharacterOffsetEnd
p448
V131
p449
sVCharacterOffsetBegin
p450
V130
p451
sVPartOfSpeech
p452
g349
sVLemma
p453
g349
saa(lp454
V0.6
p455
a(dp456
VNormalizedNamedEntityTag
p457
V0.6
p458
sVLemma
p459
V0.6
p460
sVCharacterOffsetEnd
p461
V135
p462
sVPartOfSpeech
p463
VCD
p464
sVCharacterOffsetBegin
p465
V132
p466
sVNamedEntityTag
p467
VNUMBER
p468
saa(lp469
Vtimes
p470
a(dp471
VNamedEntityTag
p472
g80
sVCharacterOffsetEnd
p473
V141
p474
sVCharacterOffsetBegin
p475
V136
p476
sVPartOfSpeech
p477
VNNS
p478
sVLemma
p479
Vtime
p480
saa(lp481
Vof
p482
a(dp483
VNamedEntityTag
p484
g80
sVCharacterOffsetEnd
p485
V144
p486
sVCharacterOffsetBegin
p487
V142
p488
sVPartOfSpeech
p489
VIN
p490
sVLemma
p491
Vof
p492
saa(lp493
Vwhich
p494
a(dp495
VNamedEntityTag
p496
g80
sVCharacterOffsetEnd
p497
V150
p498
sVCharacterOffsetBegin
p499
V145
p500
sVPartOfSpeech
p501
VWDT
p502
sVLemma
p503
Vwhich
p504
saa(lp505
Vwere
p506
a(dp507
VNamedEntityTag
p508
g80
sVCharacterOffsetEnd
p509
V155
p510
sVCharacterOffsetBegin
p511
V151
p512
sVPartOfSpeech
p513
VVBD
p514
sVLemma
p515
Vbe
p516
saa(lp517
Vsingle-shot
p518
a(dp519
VNamedEntityTag
p520
g80
sVCharacterOffsetEnd
p521
V167
p522
sVCharacterOffsetBegin
p523
V156
p524
sVPartOfSpeech
p525
VJJ
p526
sVLemma
p527
Vsingle-shot
p528
saa(lp529
g210
a(dp530
VNamedEntityTag
p531
g80
sVCharacterOffsetEnd
p532
V169
p533
sVCharacterOffsetBegin
p534
V168
p535
sVPartOfSpeech
p536
g210
sVLemma
p537
g210
saasVindexeddependencies
p538
(lp539
(lp540
Vroot
p541
aVROOT-0
p542
aVsold-6
p543
aa(lp544
Vnn
p545
aVafternoon-2
p546
aVYesterday-1
p547
aa(lp548
Vtmod
p549
aVsold-6
p550
aVafternoon-2
p551
aa(lp552
Vdet
p553
aVcafe-5
p554
aVthe-4
p555
aa(lp556
Vnsubj
p557
aVsold-6
p558
aVcafe-5
p559
aa(lp560
Vnum
p561
aVespressos-8
p562
aV20-7
p563
aa(lp564
Vdobj
p565
aVsold-6
p566
aVespressos-8
p567
aa(lp568
Vprep_in
p569
aVespressos-8
p570
aVall-10
p571
aa(lp572
Vnum
p573
aVtimes-13
p574
aV0.6-12
p575
aa(lp576
Vnpadvmod
p577
aVsold-6
p578
aVtimes-13
p579
aa(lp580
Vnsubj
p581
aVsingle-shot-17
p582
aVwhich-15
p583
aa(lp584
Vcop
p585
aVsingle-shot-17
p586
aVwere-16
p587
aa(lp588
Vprepc_of
p589
aVsold-6
p590
aVsingle-shot-17
p591
aasa(dp592
Vparsetree
p593
V(ROOT (SBARQ (WHNP (WHADJP (WRB How) (JJ many)) (NP (NP (JJ single-shot)) (NP (NNS espressos)))) (SQ (VBD did) (NP (DT the) (NN cafe)) (VP (VB sell))) (. ?)))
p594
sVtext
p595
VHow many single-shot espressos did the cafe sell ?
p596
sVdependencies
p597
(lp598
(lp599
Vroot
p600
aVROOT
p601
aVsell
p602
aa(lp603
Vadvmod
p604
aVmany
p605
aVHow
p606
aa(lp607
Vamod
p608
aVsingle-shot
p609
aVmany
p610
aa(lp611
Vdobj
p612
aVsell
p613
aVsingle-shot
p614
aa(lp615
Vdep
p616
aVsingle-shot
p617
aVespressos
p618
aa(lp619
Vaux
p620
aVsell
p621
aVdid
p622
aa(lp623
Vdet
p624
aVcafe
p625
aVthe
p626
aa(lp627
Vnsubj
p628
aVsell
p629
aVcafe
p630
aasVwords
p631
(lp632
(lp633
VHow
p634
a(dp635
VNamedEntityTag
p636
g80
sVCharacterOffsetEnd
p637
V173
p638
sVCharacterOffsetBegin
p639
V170
p640
sVPartOfSpeech
p641
VWRB
p642
sVLemma
p643
Vhow
p644
saa(lp645
Vmany
p646
a(dp647
VNamedEntityTag
p648
g80
sVCharacterOffsetEnd
p649
V178
p650
sVCharacterOffsetBegin
p651
V174
p652
sVPartOfSpeech
p653
VJJ
p654
sVLemma
p655
Vmany
p656
saa(lp657
Vsingle-shot
p658
a(dp659
VNamedEntityTag
p660
g80
sVCharacterOffsetEnd
p661
V190
p662
sVCharacterOffsetBegin
p663
V179
p664
sVPartOfSpeech
p665
VJJ
p666
sVLemma
p667
Vsingle-shot
p668
saa(lp669
Vespressos
p670
a(dp671
VNamedEntityTag
p672
g80
sVCharacterOffsetEnd
p673
V200
p674
sVCharacterOffsetBegin
p675
V191
p676
sVPartOfSpeech
p677
VNNS
p678
sVLemma
p679
Vespresso
p680
saa(lp681
Vdid
p682
a(dp683
VNamedEntityTag
p684
g80
sVCharacterOffsetEnd
p685
V204
p686
sVCharacterOffsetBegin
p687
V201
p688
sVPartOfSpeech
p689
VVBD
p690
sVLemma
p691
Vdo
p692
saa(lp693
Vthe
p694
a(dp695
VNamedEntityTag
p696
g80
sVCharacterOffsetEnd
p697
V208
p698
sVCharacterOffsetBegin
p699
V205
p700
sVPartOfSpeech
p701
VDT
p702
sVLemma
p703
Vthe
p704
saa(lp705
Vcafe
p706
a(dp707
VNamedEntityTag
p708
g80
sVCharacterOffsetEnd
p709
V213
p710
sVCharacterOffsetBegin
p711
V209
p712
sVPartOfSpeech
p713
VNN
p714
sVLemma
p715
Vcafe
p716
saa(lp717
Vsell
p718
a(dp719
VNamedEntityTag
p720
g80
sVCharacterOffsetEnd
p721
V218
p722
sVCharacterOffsetBegin
p723
V214
p724
sVPartOfSpeech
p725
VVB
p726
sVLemma
p727
Vsell
p728
saa(lp729
V?
p730
a(dp731
VNamedEntityTag
p732
g80
sVCharacterOffsetEnd
p733
V220
p734
sVCharacterOffsetBegin
p735
V219
p736
sVPartOfSpeech
p737
g210
sVLemma
p738
g730
saasVindexeddependencies
p739
(lp740
(lp741
Vroot
p742
aVROOT-0
p743
aVsell-8
p744
aa(lp745
Vadvmod
p746
aVmany-2
p747
aVHow-1
p748
aa(lp749
Vamod
p750
aVsingle-shot-3
p751
aVmany-2
p752
aa(lp753
Vdobj
p754
aVsell-8
p755
aVsingle-shot-3
p756
aa(lp757
Vdep
p758
aVsingle-shot-3
p759
aVespressos-4
p760
aa(lp761
Vaux
p762
aVsell-8
p763
aVdid-5
p764
aa(lp765
Vdet
p766
aVcafe-7
p767
aVthe-6
p768
aa(lp769
Vnsubj
p770
aVsell-8
p771
aVcafe-7
p772
aasas.