(dp0
Vcoref
p1
(lp2
(lp3
(lp4
(lp5
Vthe cafeteria
p6
aI1
aI14
aI13
aI15
aa(lp7
VThe school cafeteria
p8
aI0
aI2
aI0
aI3
aaaasVsentences
p9
(lp10
(dp11
Vparsetree
p12
V(ROOT (S (NP (DT The) (NN school) (NN cafeteria)) (VP (VBD ordered) (NP (NP (CD 25) (JJ red) (NNS apples)) (CC and) (NP (CD 17) (JJ green) (NNS apples))) (PP (IN for) (NP (NNS students) (NNS lunches)))) (. .)))
p13
sVtext
p14
VThe school cafeteria ordered 25 red apples and 17 green apples for students lunches .
p15
sVdependencies
p16
(lp17
(lp18
Vroot
p19
aVROOT
p20
aVordered
p21
aa(lp22
Vdet
p23
aVcafeteria
p24
aVThe
p25
aa(lp26
Vnn
p27
aVcafeteria
p28
aVschool
p29
aa(lp30
Vnsubj
p31
aVordered
p32
aVcafeteria
p33
aa(lp34
Vnum
p35
aVapples
p36
aV25
p37
aa(lp38
Vamod
p39
aVapples
p40
aVred
p41
aa(lp42
Vdobj
p43
aVordered
p44
aVapples
p45
aa(lp46
Vnum
p47
aVapples
p48
aV17
p49
aa(lp50
Vamod
p51
aVapples
p52
aVgreen
p53
aa(lp54
Vconj_and
p55
aVapples
p56
aVapples
p57
aa(lp58
Vnn
p59
aVlunches
p60
aVstudents
p61
aa(lp62
Vprep_for
p63
aVordered
p64
aVlunches
p65
aasVwords
p66
(lp67
(lp68
VThe
p69
a(dp70
VNamedEntityTag
p71
VO
p72
sVCharacterOffsetEnd
p73
V4
p74
sVCharacterOffsetBegin
p75
V1
p76
sVPartOfSpeech
p77
VDT
p78
sVLemma
p79
Vthe
p80
saa(lp81
Vschool
p82
a(dp83
VNamedEntityTag
p84
g72
sVCharacterOffsetEnd
p85
V11
p86
sVCharacterOffsetBegin
p87
V5
p88
sVPartOfSpeech
p89
VNN
p90
sVLemma
p91
Vschool
p92
saa(lp93
Vcafeteria
p94
a(dp95
VNamedEntityTag
p96
g72
sVCharacterOffsetEnd
p97
V21
p98
sVCharacterOffsetBegin
p99
V12
p100
sVPartOfSpeech
p101
VNN
p102
sVLemma
p103
Vcafeteria
p104
saa(lp105
Vordered
p106
a(dp107
VNamedEntityTag
p108
g72
sVCharacterOffsetEnd
p109
V29
p110
sVCharacterOffsetBegin
p111
V22
p112
sVPartOfSpeech
p113
VVBD
p114
sVLemma
p115
Vorder
p116
saa(lp117
V25
p118
a(dp119
VNormalizedNamedEntityTag
p120
V25.0
p121
sVLemma
p122
V25
p123
sVCharacterOffsetEnd
p124
V32
p125
sVPartOfSpeech
p126
VCD
p127
sVCharacterOffsetBegin
p128
V30
p129
sVNamedEntityTag
p130
VNUMBER
p131
saa(lp132
Vred
p133
a(dp134
VNamedEntityTag
p135
g72
sVCharacterOffsetEnd
p136
V36
p137
sVCharacterOffsetBegin
p138
V33
p139
sVPartOfSpeech
p140
VJJ
p141
sVLemma
p142
Vred
p143
saa(lp144
Vapples
p145
a(dp146
VNamedEntityTag
p147
g72
sVCharacterOffsetEnd
p148
V43
p149
sVCharacterOffsetBegin
p150
V37
p151
sVPartOfSpeech
p152
VNNS
p153
sVLemma
p154
Vapple
p155
saa(lp156
Vand
p157
a(dp158
VNamedEntityTag
p159
g72
sVCharacterOffsetEnd
p160
V47
p161
sVCharacterOffsetBegin
p162
V44
p163
sVPartOfSpeech
p164
VCC
p165
sVLemma
p166
Vand
p167
saa(lp168
V17
p169
a(dp170
VNormalizedNamedEntityTag
p171
V17.0
p172
sVLemma
p173
V17
p174
sVCharacterOffsetEnd
p175
V50
p176
sVPartOfSpeech
p177
VCD
p178
sVCharacterOffsetBegin
p179
V48
p180
sVNamedEntityTag
p181
VNUMBER
p182
saa(lp183
Vgreen
p184
a(dp185
VNamedEntityTag
p186
g72
sVCharacterOffsetEnd
p187
V56
p188
sVCharacterOffsetBegin
p189
V51
p190
sVPartOfSpeech
p191
VJJ
p192
sVLemma
p193
Vgreen
p194
saa(lp195
Vapples
p196
a(dp197
VNamedEntityTag
p198
g72
sVCharacterOffsetEnd
p199
V63
p200
sVCharacterOffsetBegin
p201
V57
p202
sVPartOfSpeech
p203
VNNS
p204
sVLemma
p205
Vapple
p206
saa(lp207
Vfor
p208
a(dp209
VNamedEntityTag
p210
g72
sVCharacterOffsetEnd
p211
V67
p212
sVCharacterOffsetBegin
p213
V64
p214
sVPartOfSpeech
p215
VIN
p216
sVLemma
p217
Vfor
p218
saa(lp219
Vstudents
p220
a(dp221
VNamedEntityTag
p222
g72
sVCharacterOffsetEnd
p223
V76
p224
sVCharacterOffsetBegin
p225
V68
p226
sVPartOfSpeech
p227
VNNS
p228
sVLemma
p229
Vstudent
p230
saa(lp231
Vlunches
p232
a(dp233
VNamedEntityTag
p234
g72
sVCharacterOffsetEnd
p235
V84
p236
sVCharacterOffsetBegin
p237
V77
p238
sVPartOfSpeech
p239
VNNS
p240
sVLemma
p241
Vlunch
p242
saa(lp243
V.
p244
a(dp245
VNamedEntityTag
p246
g72
sVCharacterOffsetEnd
p247
V86
p248
sVCharacterOffsetBegin
p249
V85
p250
sVPartOfSpeech
p251
g244
sVLemma
p252
g244
saasVindexeddependencies
p253
(lp254
(lp255
Vroot
p256
aVROOT-0
p257
aVordered-4
p258
aa(lp259
Vdet
p260
aVcafeteria-3
p261
aVThe-1
p262
aa(lp263
Vnn
p264
aVcafeteria-3
p265
aVschool-2
p266
aa(lp267
Vnsubj
p268
aVordered-4
p269
aVcafeteria-3
p270
aa(lp271
Vnum
p272
aVapples-7
p273
aV25-5
p274
aa(lp275
Vamod
p276
aVapples-7
p277
aVred-6
p278
aa(lp279
Vdobj
p280
aVordered-4
p281
aVapples-7
p282
aa(lp283
Vnum
p284
aVapples-11
p285
aV17-9
p286
aa(lp287
Vamod
p288
aVapples-11
p289
aVgreen-10
p290
aa(lp291
Vconj_and
p292
aVapples-7
p293
aVapples-11
p294
aa(lp295
Vnn
p296
aVlunches-14
p297
aVstudents-13
p298
aa(lp299
Vprep_for
p300
aVordered-4
p301
aVlunches-14
p302
aasa(dp303
Vparsetree
p304
V(ROOT (SINV (CC But) (, ,) (ADVP (IN if) (NP (RB only) (CD 10) (NNS students))) (VP (VBD wanted)) (NP (NP (NN fruit)) (, ,) (SBAR (WHADJP (WRB how) (JJ many)) (S (NP (JJ extra)) (VP (VBD did) (S (NP (DT the) (NN cafeteria)) (VP (VB end) (PRT (RP up)) (PP (IN with)))))))) (. ?)))
p305
sVtext
p306
VBut , if only 10 students wanted fruit , how many extra did the cafeteria end up with ?
p307
sVdependencies
p308
(lp309
(lp310
Vroot
p311
aVROOT
p312
aVwanted
p313
aa(lp314
Vcc
p315
aVwanted
p316
aVBut
p317
aa(lp318
Vadvmod
p319
aVwanted
p320
aVif
p321
aa(lp322
Vadvmod
p323
aVstudents
p324
aVonly
p325
aa(lp326
Vnum
p327
aVstudents
p328
aV10
p329
aa(lp330
Vpobj
p331
aVif
p332
aVstudents
p333
aa(lp334
Vnsubj
p335
aVwanted
p336
aVfruit
p337
aa(lp338
Vadvmod
p339
aVmany
p340
aVhow
p341
aa(lp342
Vdep
p343
aVdid
p344
aVmany
p345
aa(lp346
Vnsubj
p347
aVdid
p348
aVextra
p349
aa(lp350
Vrcmod
p351
aVfruit
p352
aVdid
p353
aa(lp354
Vdet
p355
aVcafeteria
p356
aVthe
p357
aa(lp358
Vnsubj
p359
aVend
p360
aVcafeteria
p361
aa(lp362
Vccomp
p363
aVdid
p364
aVend
p365
aa(lp366
Vprt
p367
aVend
p368
aVup
p369
aa(lp370
Vprep
p371
aVend
p372
aVwith
p373
aasVwords
p374
(lp375
(lp376
VBut
p377
a(dp378
VNamedEntityTag
p379
g72
sVCharacterOffsetEnd
p380
V90
p381
sVCharacterOffsetBegin
p382
V87
p383
sVPartOfSpeech
p384
VCC
p385
sVLemma
p386
Vbut
p387
saa(lp388
V,
p389
a(dp390
VNamedEntityTag
p391
g72
sVCharacterOffsetEnd
p392
V92
p393
sVCharacterOffsetBegin
p394
V91
p395
sVPartOfSpeech
p396
g389
sVLemma
p397
g389
saa(lp398
Vif
p399
a(dp400
VNamedEntityTag
p401
g72
sVCharacterOffsetEnd
p402
V95
p403
sVCharacterOffsetBegin
p404
V93
p405
sVPartOfSpeech
p406
VIN
p407
sVLemma
p408
Vif
p409
saa(lp410
Vonly
p411
a(dp412
VNamedEntityTag
p413
g72
sVCharacterOffsetEnd
p414
V100
p415
sVCharacterOffsetBegin
p416
V96
p417
sVPartOfSpeech
p418
VRB
p419
sVLemma
p420
Vonly
p421
saa(lp422
V10
p423
a(dp424
VNormalizedNamedEntityTag
p425
V10.0
p426
sVLemma
p427
V10
p428
sVCharacterOffsetEnd
p429
V103
p430
sVPartOfSpeech
p431
VCD
p432
sVCharacterOffsetBegin
p433
V101
p434
sVNamedEntityTag
p435
VNUMBER
p436
saa(lp437
Vstudents
p438
a(dp439
VNamedEntityTag
p440
g72
sVCharacterOffsetEnd
p441
V112
p442
sVCharacterOffsetBegin
p443
V104
p444
sVPartOfSpeech
p445
VNNS
p446
sVLemma
p447
Vstudent
p448
saa(lp449
Vwanted
p450
a(dp451
VNamedEntityTag
p452
g72
sVCharacterOffsetEnd
p453
V119
p454
sVCharacterOffsetBegin
p455
V113
p456
sVPartOfSpeech
p457
VVBD
p458
sVLemma
p459
Vwant
p460
saa(lp461
Vfruit
p462
a(dp463
VNamedEntityTag
p464
g72
sVCharacterOffsetEnd
p465
V125
p466
sVCharacterOffsetBegin
p467
V120
p468
sVPartOfSpeech
p469
VNN
p470
sVLemma
p471
Vfruit
p472
saa(lp473
g389
a(dp474
VNamedEntityTag
p475
g72
sVCharacterOffsetEnd
p476
V127
p477
sVCharacterOffsetBegin
p478
V126
p479
sVPartOfSpeech
p480
g389
sVLemma
p481
g389
saa(lp482
Vhow
p483
a(dp484
VNamedEntityTag
p485
g72
sVCharacterOffsetEnd
p486
V131
p487
sVCharacterOffsetBegin
p488
V128
p489
sVPartOfSpeech
p490
VWRB
p491
sVLemma
p492
Vhow
p493
saa(lp494
Vmany
p495
a(dp496
VNamedEntityTag
p497
g72
sVCharacterOffsetEnd
p498
V136
p499
sVCharacterOffsetBegin
p500
V132
p501
sVPartOfSpeech
p502
VJJ
p503
sVLemma
p504
Vmany
p505
saa(lp506
Vextra
p507
a(dp508
VNamedEntityTag
p509
g72
sVCharacterOffsetEnd
p510
V142
p511
sVCharacterOffsetBegin
p512
V137
p513
sVPartOfSpeech
p514
VJJ
p515
sVLemma
p516
Vextra
p517
saa(lp518
Vdid
p519
a(dp520
VNamedEntityTag
p521
g72
sVCharacterOffsetEnd
p522
V146
p523
sVCharacterOffsetBegin
p524
V143
p525
sVPartOfSpeech
p526
VVBD
p527
sVLemma
p528
Vdo
p529
saa(lp530
Vthe
p531
a(dp532
VNamedEntityTag
p533
g72
sVCharacterOffsetEnd
p534
V150
p535
sVCharacterOffsetBegin
p536
V147
p537
sVPartOfSpeech
p538
VDT
p539
sVLemma
p540
Vthe
p541
saa(lp542
Vcafeteria
p543
a(dp544
VNamedEntityTag
p545
g72
sVCharacterOffsetEnd
p546
V160
p547
sVCharacterOffsetBegin
p548
V151
p549
sVPartOfSpeech
p550
VNN
p551
sVLemma
p552
Vcafeteria
p553
saa(lp554
Vend
p555
a(dp556
VNamedEntityTag
p557
g72
sVCharacterOffsetEnd
p558
V164
p559
sVCharacterOffsetBegin
p560
V161
p561
sVPartOfSpeech
p562
VVB
p563
sVLemma
p564
Vend
p565
saa(lp566
Vup
p567
a(dp568
VNamedEntityTag
p569
g72
sVCharacterOffsetEnd
p570
V167
p571
sVCharacterOffsetBegin
p572
V165
p573
sVPartOfSpeech
p574
VRP
p575
sVLemma
p576
Vup
p577
saa(lp578
Vwith
p579
a(dp580
VNamedEntityTag
p581
g72
sVCharacterOffsetEnd
p582
V172
p583
sVCharacterOffsetBegin
p584
V168
p585
sVPartOfSpeech
p586
VIN
p587
sVLemma
p588
Vwith
p589
saa(lp590
V?
p591
a(dp592
VNamedEntityTag
p593
g72
sVCharacterOffsetEnd
p594
V174
p595
sVCharacterOffsetBegin
p596
V173
p597
sVPartOfSpeech
p598
g244
sVLemma
p599
g591
saasVindexeddependencies
p600
(lp601
(lp602
Vroot
p603
aVROOT-0
p604
aVwanted-7
p605
aa(lp606
Vcc
p607
aVwanted-7
p608
aVBut-1
p609
aa(lp610
Vadvmod
p611
aVwanted-7
p612
aVif-3
p613
aa(lp614
Vadvmod
p615
aVstudents-6
p616
aVonly-4
p617
aa(lp618
Vnum
p619
aVstudents-6
p620
aV10-5
p621
aa(lp622
Vpobj
p623
aVif-3
p624
aVstudents-6
p625
aa(lp626
Vnsubj
p627
aVwanted-7
p628
aVfruit-8
p629
aa(lp630
Vadvmod
p631
aVmany-11
p632
aVhow-10
p633
aa(lp634
Vdep
p635
aVdid-13
p636
aVmany-11
p637
aa(lp638
Vnsubj
p639
aVdid-13
p640
aVextra-12
p641
aa(lp642
Vrcmod
p643
aVfruit-8
p644
aVdid-13
p645
aa(lp646
Vdet
p647
aVcafeteria-15
p648
aVthe-14
p649
aa(lp650
Vnsubj
p651
aVend-16
p652
aVcafeteria-15
p653
aa(lp654
Vccomp
p655
aVdid-13
p656
aVend-16
p657
aa(lp658
Vprt
p659
aVend-16
p660
aVup-17
p661
aa(lp662
Vprep
p663
aVend-16
p664
aVwith-18
p665
aasas.