(dp0
Vcoref
p1
(lp2
(lp3
(lp4
(lp5
Vthe cafeteria
p6
aI2
aI6
aI5
aI7
aa(lp7
VThe cafeteria
p8
aI1
aI1
aI0
aI2
aaaasVsentences
p9
(lp10
(dp11
Vparsetree
p12
V(ROOT (S (NP-TMP (JJ Last) (NNP Wednesday)) (, ,) (NP (NNS students)) (VP (MD could) (VP (VB choose) (NP (NN ham) (CC or) (NN turkey) (NNS sandwiches)) (PP (IN for) (NP (NN lunch))))) (. .)))
p13
sVtext
p14
VLast Wednesday , students could choose ham or turkey sandwiches for lunch .
p15
sVdependencies
p16
(lp17
(lp18
Vroot
p19
aVROOT
p20
aVchoose
p21
aa(lp22
Vamod
p23
aVWednesday
p24
aVLast
p25
aa(lp26
Vtmod
p27
aVchoose
p28
aVWednesday
p29
aa(lp30
Vnsubj
p31
aVchoose
p32
aVstudents
p33
aa(lp34
Vaux
p35
aVchoose
p36
aVcould
p37
aa(lp38
Vnn
p39
aVsandwiches
p40
aVham
p41
aa(lp42
Vconj_or
p43
aVham
p44
aVturkey
p45
aa(lp46
Vdobj
p47
aVchoose
p48
aVsandwiches
p49
aa(lp50
Vprep_for
p51
aVchoose
p52
aVlunch
p53
aasVwords
p54
(lp55
(lp56
VLast
p57
a(dp58
VNormalizedNamedEntityTag
p59
VXXXX-WXX-3
p60
sVTimex
p61
V<TIMEX3 alt_value="XXXX-WXX-3 OFFSET P-1W" anchorTimeID="t2" temporalFunction="true" tid="t1" type="DATE" valueFromFunction="tf0">Last Wednesday</TIMEX3>
p62
sVLemma
p63
Vlast
p64
sVCharacterOffsetEnd
p65
V5
p66
sVPartOfSpeech
p67
VJJ
p68
sVCharacterOffsetBegin
p69
V1
p70
sVNamedEntityTag
p71
VDATE
p72
saa(lp73
VWednesday
p74
a(dp75
VNormalizedNamedEntityTag
p76
VXXXX-WXX-3
p77
sVTimex
p78
V<TIMEX3 alt_value="XXXX-WXX-3 OFFSET P-1W" anchorTimeID="t2" temporalFunction="true" tid="t1" type="DATE" valueFromFunction="tf0">Last Wednesday</TIMEX3>
p79
sVLemma
p80
VWednesday
p81
sVCharacterOffsetEnd
p82
V15
p83
sVPartOfSpeech
p84
VNNP
p85
sVCharacterOffsetBegin
p86
V6
p87
sVNamedEntityTag
p88
VDATE
p89
saa(lp90
V,
p91
a(dp92
VNamedEntityTag
p93
VO
p94
sVCharacterOffsetEnd
p95
V17
p96
sVCharacterOffsetBegin
p97
V16
p98
sVPartOfSpeech
p99
g91
sVLemma
p100
g91
saa(lp101
Vstudents
p102
a(dp103
VNamedEntityTag
p104
g94
sVCharacterOffsetEnd
p105
V26
p106
sVCharacterOffsetBegin
p107
V18
p108
sVPartOfSpeech
p109
VNNS
p110
sVLemma
p111
Vstudent
p112
saa(lp113
Vcould
p114
a(dp115
VNamedEntityTag
p116
g94
sVCharacterOffsetEnd
p117
V32
p118
sVCharacterOffsetBegin
p119
V27
p120
sVPartOfSpeech
p121
VMD
p122
sVLemma
p123
Vcould
p124
saa(lp125
Vchoose
p126
a(dp127
VNamedEntityTag
p128
g94
sVCharacterOffsetEnd
p129
V39
p130
sVCharacterOffsetBegin
p131
V33
p132
sVPartOfSpeech
p133
VVB
p134
sVLemma
p135
Vchoose
p136
saa(lp137
Vham
p138
a(dp139
VNamedEntityTag
p140
g94
sVCharacterOffsetEnd
p141
V43
p142
sVCharacterOffsetBegin
p143
V40
p144
sVPartOfSpeech
p145
VNN
p146
sVLemma
p147
Vham
p148
saa(lp149
Vor
p150
a(dp151
VNamedEntityTag
p152
g94
sVCharacterOffsetEnd
p153
V46
p154
sVCharacterOffsetBegin
p155
V44
p156
sVPartOfSpeech
p157
VCC
p158
sVLemma
p159
Vor
p160
saa(lp161
Vturkey
p162
a(dp163
VNamedEntityTag
p164
g94
sVCharacterOffsetEnd
p165
V53
p166
sVCharacterOffsetBegin
p167
V47
p168
sVPartOfSpeech
p169
VNN
p170
sVLemma
p171
Vturkey
p172
saa(lp173
Vsandwiches
p174
a(dp175
VNamedEntityTag
p176
g94
sVCharacterOffsetEnd
p177
V64
p178
sVCharacterOffsetBegin
p179
V54
p180
sVPartOfSpeech
p181
VNNS
p182
sVLemma
p183
Vsandwich
p184
saa(lp185
Vfor
p186
a(dp187
VNamedEntityTag
p188
g94
sVCharacterOffsetEnd
p189
V68
p190
sVCharacterOffsetBegin
p191
V65
p192
sVPartOfSpeech
p193
VIN
p194
sVLemma
p195
Vfor
p196
saa(lp197
Vlunch
p198
a(dp199
VNamedEntityTag
p200
g94
sVCharacterOffsetEnd
p201
V74
p202
sVCharacterOffsetBegin
p203
V69
p204
sVPartOfSpeech
p205
VNN
p206
sVLemma
p207
Vlunch
p208
saa(lp209
V.
p210
a(dp211
VNamedEntityTag
p212
g94
sVCharacterOffsetEnd
p213
V76
p214
sVCharacterOffsetBegin
p215
V75
p216
sVPartOfSpeech
p217
g210
sVLemma
p218
g210
saasVindexeddependencies
p219
(lp220
(lp221
Vroot
p222
aVROOT-0
p223
aVchoose-6
p224
aa(lp225
Vamod
p226
aVWednesday-2
p227
aVLast-1
p228
aa(lp229
Vtmod
p230
aVchoose-6
p231
aVWednesday-2
p232
aa(lp233
Vnsubj
p234
aVchoose-6
p235
aVstudents-4
p236
aa(lp237
Vaux
p238
aVchoose-6
p239
aVcould-5
p240
aa(lp241
Vnn
p242
aVsandwiches-10
p243
aVham-7
p244
aa(lp245
Vconj_or
p246
aVham-7
p247
aVturkey-9
p248
aa(lp249
Vdobj
p250
aVchoose-6
p251
aVsandwiches-10
p252
aa(lp253
Vprep_for
p254
aVchoose-6
p255
aVlunch-12
p256
aasa(dp257
Vparsetree
p258
V(ROOT (S (NP (DT The) (NN cafeteria)) (VP (VBN made) (NP (NP (CD 80) (NNS sandwiches)) (PP (IN in) (NP (NP (DT all)) (, ,) (SBAR (WHNP (WHNP (QP (CD 0.9) (NNS times))) (WHPP (IN of) (WHNP (WDT which)))) (S (VP (VBD were) (NP (NN turkey))))))))) (. .)))
p259
sVtext
p260
VThe cafeteria made 80 sandwiches in all , 0.9 times of which were turkey .
p261
sVdependencies
p262
(lp263
(lp264
Vroot
p265
aVROOT
p266
aVmade
p267
aa(lp268
Vdet
p269
aVcafeteria
p270
aVThe
p271
aa(lp272
Vnsubj
p273
aVmade
p274
aVcafeteria
p275
aa(lp276
Vnum
p277
aVsandwiches
p278
aV80
p279
aa(lp280
Vdobj
p281
aVmade
p282
aVsandwiches
p283
aa(lp284
Vprep_in
p285
aVsandwiches
p286
aVall
p287
aa(lp288
Vnumber
p289
aVtimes
p290
aV0.9
p291
aa(lp292
Vnsubj
p293
aVturkey
p294
aVtimes
p295
aa(lp296
Vprep_of
p297
aVtimes
p298
aVwhich
p299
aa(lp300
Vcop
p301
aVturkey
p302
aVwere
p303
aa(lp304
Vrcmod
p305
aVall
p306
aVturkey
p307
aasVwords
p308
(lp309
(lp310
VThe
p311
a(dp312
VNamedEntityTag
p313
g94
sVCharacterOffsetEnd
p314
V80
p315
sVCharacterOffsetBegin
p316
V77
p317
sVPartOfSpeech
p318
VDT
p319
sVLemma
p320
Vthe
p321
saa(lp322
Vcafeteria
p323
a(dp324
VNamedEntityTag
p325
g94
sVCharacterOffsetEnd
p326
V90
p327
sVCharacterOffsetBegin
p328
V81
p329
sVPartOfSpeech
p330
VNN
p331
sVLemma
p332
Vcafeteria
p333
saa(lp334
Vmade
p335
a(dp336
VNamedEntityTag
p337
g94
sVCharacterOffsetEnd
p338
V95
p339
sVCharacterOffsetBegin
p340
V91
p341
sVPartOfSpeech
p342
VVBN
p343
sVLemma
p344
Vmake
p345
saa(lp346
V80
p347
a(dp348
VNormalizedNamedEntityTag
p349
V80.0
p350
sVLemma
p351
V80
p352
sVCharacterOffsetEnd
p353
V98
p354
sVPartOfSpeech
p355
VCD
p356
sVCharacterOffsetBegin
p357
V96
p358
sVNamedEntityTag
p359
VNUMBER
p360
saa(lp361
Vsandwiches
p362
a(dp363
VNamedEntityTag
p364
g94
sVCharacterOffsetEnd
p365
V109
p366
sVCharacterOffsetBegin
p367
V99
p368
sVPartOfSpeech
p369
VNNS
p370
sVLemma
p371
Vsandwich
p372
saa(lp373
Vin
p374
a(dp375
VNamedEntityTag
p376
g94
sVCharacterOffsetEnd
p377
V112
p378
sVCharacterOffsetBegin
p379
V110
p380
sVPartOfSpeech
p381
VIN
p382
sVLemma
p383
Vin
p384
saa(lp385
Vall
p386
a(dp387
VNamedEntityTag
p388
g94
sVCharacterOffsetEnd
p389
V116
p390
sVCharacterOffsetBegin
p391
V113
p392
sVPartOfSpeech
p393
VDT
p394
sVLemma
p395
Vall
p396
saa(lp397
g91
a(dp398
VNamedEntityTag
p399
g94
sVCharacterOffsetEnd
p400
V118
p401
sVCharacterOffsetBegin
p402
V117
p403
sVPartOfSpeech
p404
g91
sVLemma
p405
g91
saa(lp406
V0.9
p407
a(dp408
VNormalizedNamedEntityTag
p409
V0.9
p410
sVLemma
p411
V0.9
p412
sVCharacterOffsetEnd
p413
V122
p414
sVPartOfSpeech
p415
VCD
p416
sVCharacterOffsetBegin
p417
V119
p418
sVNamedEntityTag
p419
VNUMBER
p420
saa(lp421
Vtimes
p422
a(dp423
VNamedEntityTag
p424
g94
sVCharacterOffsetEnd
p425
V128
p426
sVCharacterOffsetBegin
p427
V123
p428
sVPartOfSpeech
p429
VNNS
p430
sVLemma
p431
Vtime
p432
saa(lp433
Vof
p434
a(dp435
VNamedEntityTag
p436
g94
sVCharacterOffsetEnd
p437
V131
p438
sVCharacterOffsetBegin
p439
V129
p440
sVPartOfSpeech
p441
VIN
p442
sVLemma
p443
Vof
p444
saa(lp445
Vwhich
p446
a(dp447
VNamedEntityTag
p448
g94
sVCharacterOffsetEnd
p449
V137
p450
sVCharacterOffsetBegin
p451
V132
p452
sVPartOfSpeech
p453
VWDT
p454
sVLemma
p455
Vwhich
p456
saa(lp457
Vwere
p458
a(dp459
VNamedEntityTag
p460
g94
sVCharacterOffsetEnd
p461
V142
p462
sVCharacterOffsetBegin
p463
V138
p464
sVPartOfSpeech
p465
VVBD
p466
sVLemma
p467
Vbe
p468
saa(lp469
Vturkey
p470
a(dp471
VNamedEntityTag
p472
g94
sVCharacterOffsetEnd
p473
V149
p474
sVCharacterOffsetBegin
p475
V143
p476
sVPartOfSpeech
p477
VNN
p478
sVLemma
p479
Vturkey
p480
saa(lp481
g210
a(dp482
VNamedEntityTag
p483
g94
sVCharacterOffsetEnd
p484
V151
p485
sVCharacterOffsetBegin
p486
V150
p487
sVPartOfSpeech
p488
g210
sVLemma
p489
g210
saasVindexeddependencies
p490
(lp491
(lp492
Vroot
p493
aVROOT-0
p494
aVmade-3
p495
aa(lp496
Vdet
p497
aVcafeteria-2
p498
aVThe-1
p499
aa(lp500
Vnsubj
p501
aVmade-3
p502
aVcafeteria-2
p503
aa(lp504
Vnum
p505
aVsandwiches-5
p506
aV80-4
p507
aa(lp508
Vdobj
p509
aVmade-3
p510
aVsandwiches-5
p511
aa(lp512
Vprep_in
p513
aVsandwiches-5
p514
aVall-7
p515
aa(lp516
Vnumber
p517
aVtimes-10
p518
aV0.9-9
p519
aa(lp520
Vnsubj
p521
aVturkey-14
p522
aVtimes-10
p523
aa(lp524
Vprep_of
p525
aVtimes-10
p526
aVwhich-12
p527
aa(lp528
Vcop
p529
aVturkey-14
p530
aVwere-13
p531
aa(lp532
Vrcmod
p533
aVall-7
p534
aVturkey-14
p535
aasa(dp536
Vparsetree
p537
V(ROOT (SBARQ (WHNP (WHADJP (WRB How) (JJ many)) (NN turkey) (NNS sandwiches)) (SQ (VBD did) (NP (DT the) (NN cafeteria)) (VP (VB make))) (. ?)))
p538
sVtext
p539
VHow many turkey sandwiches did the cafeteria make ?
p540
sVdependencies
p541
(lp542
(lp543
Vroot
p544
aVROOT
p545
aVmake
p546
aa(lp547
Vadvmod
p548
aVmany
p549
aVHow
p550
aa(lp551
Vamod
p552
aVsandwiches
p553
aVmany
p554
aa(lp555
Vnn
p556
aVsandwiches
p557
aVturkey
p558
aa(lp559
Vdobj
p560
aVmake
p561
aVsandwiches
p562
aa(lp563
Vaux
p564
aVmake
p565
aVdid
p566
aa(lp567
Vdet
p568
aVcafeteria
p569
aVthe
p570
aa(lp571
Vnsubj
p572
aVmake
p573
aVcafeteria
p574
aasVwords
p575
(lp576
(lp577
VHow
p578
a(dp579
VNamedEntityTag
p580
g94
sVCharacterOffsetEnd
p581
V155
p582
sVCharacterOffsetBegin
p583
V152
p584
sVPartOfSpeech
p585
VWRB
p586
sVLemma
p587
Vhow
p588
saa(lp589
Vmany
p590
a(dp591
VNamedEntityTag
p592
g94
sVCharacterOffsetEnd
p593
V160
p594
sVCharacterOffsetBegin
p595
V156
p596
sVPartOfSpeech
p597
VJJ
p598
sVLemma
p599
Vmany
p600
saa(lp601
Vturkey
p602
a(dp603
VNamedEntityTag
p604
g94
sVCharacterOffsetEnd
p605
V167
p606
sVCharacterOffsetBegin
p607
V161
p608
sVPartOfSpeech
p609
VNN
p610
sVLemma
p611
Vturkey
p612
saa(lp613
Vsandwiches
p614
a(dp615
VNamedEntityTag
p616
g94
sVCharacterOffsetEnd
p617
V178
p618
sVCharacterOffsetBegin
p619
V168
p620
sVPartOfSpeech
p621
VNNS
p622
sVLemma
p623
Vsandwich
p624
saa(lp625
Vdid
p626
a(dp627
VNamedEntityTag
p628
g94
sVCharacterOffsetEnd
p629
V182
p630
sVCharacterOffsetBegin
p631
V179
p632
sVPartOfSpeech
p633
VVBD
p634
sVLemma
p635
Vdo
p636
saa(lp637
Vthe
p638
a(dp639
VNamedEntityTag
p640
g94
sVCharacterOffsetEnd
p641
V186
p642
sVCharacterOffsetBegin
p643
V183
p644
sVPartOfSpeech
p645
VDT
p646
sVLemma
p647
Vthe
p648
saa(lp649
Vcafeteria
p650
a(dp651
VNamedEntityTag
p652
g94
sVCharacterOffsetEnd
p653
V196
p654
sVCharacterOffsetBegin
p655
V187
p656
sVPartOfSpeech
p657
VNN
p658
sVLemma
p659
Vcafeteria
p660
saa(lp661
Vmake
p662
a(dp663
VNamedEntityTag
p664
g94
sVCharacterOffsetEnd
p665
V201
p666
sVCharacterOffsetBegin
p667
V197
p668
sVPartOfSpeech
p669
VVB
p670
sVLemma
p671
Vmake
p672
saa(lp673
V?
p674
a(dp675
VNamedEntityTag
p676
g94
sVCharacterOffsetEnd
p677
V203
p678
sVCharacterOffsetBegin
p679
V202
p680
sVPartOfSpeech
p681
g210
sVLemma
p682
g674
saasVindexeddependencies
p683
(lp684
(lp685
Vroot
p686
aVROOT-0
p687
aVmake-8
p688
aa(lp689
Vadvmod
p690
aVmany-2
p691
aVHow-1
p692
aa(lp693
Vamod
p694
aVsandwiches-4
p695
aVmany-2
p696
aa(lp697
Vnn
p698
aVsandwiches-4
p699
aVturkey-3
p700
aa(lp701
Vdobj
p702
aVmake-8
p703
aVsandwiches-4
p704
aa(lp705
Vaux
p706
aVmake-8
p707
aVdid-5
p708
aa(lp709
Vdet
p710
aVcafeteria-7
p711
aVthe-6
p712
aa(lp713
Vnsubj
p714
aVmake-8
p715
aVcafeteria-7
p716
aasas.