(dp0
Vcoref
p1
(lp2
(lp3
(lp4
(lp5
Vhe
p6
aI1
aI1
aI1
aI2
aa(lp7
VJerry
p8
aI0
aI4
aI4
aI5
aaa(lp9
(lp10
Vhis
p11
aI1
aI5
aI5
aI6
aa(lp12
VJerry
p13
aI0
aI4
aI4
aI5
aaa(lp14
(lp15
VJerry
p16
aI1
aI15
aI15
aI16
aa(lp17
VJerry
p18
aI0
aI4
aI4
aI5
aaaa(lp19
(lp20
(lp21
Vhis tickets
p22
aI1
aI6
aI5
aI7
aa(lp23
V29 tickets playing ` whack a mole '
p24
aI0
aI7
aI6
aI14
aaaasVsentences
p25
(lp26
(dp27
Vparsetree
p28
V(ROOT (S (PP (IN At) (NP (DT the) (NN arcade))) (, ,) (NP (NNP Jerry)) (VP (VBD won) (NP (NP (NP (CD 29) (NNS tickets)) (VP (VBG playing) (S (VP (`` `) (VB whack) (NP (DT a) (NN mole)) ('' '))))) (CC and) (NP (NP (CD 17) (NNS tickets)) (VP (VBG playing) (`` `) (NP (NN skee) (NN ball)) ('' '))))) (. .)))
p29
sVtext
p30
VAt the arcade , Jerry won 29 tickets playing 'whack a mole' and 17 tickets playing 'skee ball' .
p31
sVdependencies
p32
(lp33
(lp34
Vroot
p35
aVROOT
p36
aVwon
p37
aa(lp38
Vdet
p39
aVarcade
p40
aVthe
p41
aa(lp42
Vprep_at
p43
aVwon
p44
aVarcade
p45
aa(lp46
Vnsubj
p47
aVwon
p48
aVJerry
p49
aa(lp50
Vnum
p51
aVtickets
p52
aV29
p53
aa(lp54
Vdobj
p55
aVwon
p56
aVtickets
p57
aa(lp58
Vvmod
p59
aVtickets
p60
aVplaying
p61
aa(lp62
Vccomp
p63
aVplaying
p64
aVwhack
p65
aa(lp66
Vdet
p67
aVmole
p68
aVa
p69
aa(lp70
Vdobj
p71
aVwhack
p72
aVmole
p73
aa(lp74
Vnum
p75
aVtickets
p76
aV17
p77
aa(lp78
Vconj_and
p79
aVtickets
p80
aVtickets
p81
aa(lp82
Vvmod
p83
aVtickets
p84
aVplaying
p85
aa(lp86
Vnn
p87
aVball
p88
aVskee
p89
aa(lp90
Vdobj
p91
aVplaying
p92
aVball
p93
aasVwords
p94
(lp95
(lp96
VAt
p97
a(dp98
VNamedEntityTag
p99
VO
p100
sVCharacterOffsetEnd
p101
V3
p102
sVCharacterOffsetBegin
p103
V1
p104
sVPartOfSpeech
p105
VIN
p106
sVLemma
p107
Vat
p108
saa(lp109
Vthe
p110
a(dp111
VNamedEntityTag
p112
g100
sVCharacterOffsetEnd
p113
V7
p114
sVCharacterOffsetBegin
p115
V4
p116
sVPartOfSpeech
p117
VDT
p118
sVLemma
p119
Vthe
p120
saa(lp121
Varcade
p122
a(dp123
VNamedEntityTag
p124
g100
sVCharacterOffsetEnd
p125
V14
p126
sVCharacterOffsetBegin
p127
V8
p128
sVPartOfSpeech
p129
VNN
p130
sVLemma
p131
Varcade
p132
saa(lp133
V,
p134
a(dp135
VNamedEntityTag
p136
g100
sVCharacterOffsetEnd
p137
V16
p138
sVCharacterOffsetBegin
p139
V15
p140
sVPartOfSpeech
p141
g134
sVLemma
p142
g134
saa(lp143
VJerry
p144
a(dp145
VNamedEntityTag
p146
VPERSON
p147
sVCharacterOffsetEnd
p148
V22
p149
sVCharacterOffsetBegin
p150
V17
p151
sVPartOfSpeech
p152
VNNP
p153
sVLemma
p154
VJerry
p155
saa(lp156
Vwon
p157
a(dp158
VNamedEntityTag
p159
g100
sVCharacterOffsetEnd
p160
V26
p161
sVCharacterOffsetBegin
p162
V23
p163
sVPartOfSpeech
p164
VVBD
p165
sVLemma
p166
Vwin
p167
saa(lp168
V29
p169
a(dp170
VNormalizedNamedEntityTag
p171
V29.0
p172
sVLemma
p173
V29
p174
sVCharacterOffsetEnd
p175
V29
p176
sVPartOfSpeech
p177
VCD
p178
sVCharacterOffsetBegin
p179
V27
p180
sVNamedEntityTag
p181
VNUMBER
p182
saa(lp183
Vtickets
p184
a(dp185
VNamedEntityTag
p186
g100
sVCharacterOffsetEnd
p187
V37
p188
sVCharacterOffsetBegin
p189
V30
p190
sVPartOfSpeech
p191
VNNS
p192
sVLemma
p193
Vticket
p194
saa(lp195
Vplaying
p196
a(dp197
VNamedEntityTag
p198
g100
sVCharacterOffsetEnd
p199
V45
p200
sVCharacterOffsetBegin
p201
V38
p202
sVPartOfSpeech
p203
VVBG
p204
sVLemma
p205
Vplay
p206
saa(lp207
V`
p208
a(dp209
VNamedEntityTag
p210
g100
sVCharacterOffsetEnd
p211
V47
p212
sVCharacterOffsetBegin
p213
V46
p214
sVPartOfSpeech
p215
V``
p216
sVLemma
p217
g208
saa(lp218
Vwhack
p219
a(dp220
VNamedEntityTag
p221
g100
sVCharacterOffsetEnd
p222
V52
p223
sVCharacterOffsetBegin
p224
V47
p225
sVPartOfSpeech
p226
VVB
p227
sVLemma
p228
Vwhack
p229
saa(lp230
g69
a(dp231
VNamedEntityTag
p232
g100
sVCharacterOffsetEnd
p233
V54
p234
sVCharacterOffsetBegin
p235
V53
p236
sVPartOfSpeech
p237
VDT
p238
sVLemma
p239
g69
saa(lp240
Vmole
p241
a(dp242
VNamedEntityTag
p243
g100
sVCharacterOffsetEnd
p244
V59
p245
sVCharacterOffsetBegin
p246
V55
p247
sVPartOfSpeech
p248
VNN
p249
sVLemma
p250
Vmole
p251
saa(lp252
V'
p253
a(dp254
VNamedEntityTag
p255
g100
sVCharacterOffsetEnd
p256
V60
p257
sVCharacterOffsetBegin
p258
V59
p259
sVPartOfSpeech
p260
V''
p261
sVLemma
p262
g253
saa(lp263
Vand
p264
a(dp265
VNamedEntityTag
p266
g100
sVCharacterOffsetEnd
p267
V64
p268
sVCharacterOffsetBegin
p269
V61
p270
sVPartOfSpeech
p271
VCC
p272
sVLemma
p273
Vand
p274
saa(lp275
V17
p276
a(dp277
VNormalizedNamedEntityTag
p278
V17.0
p279
sVLemma
p280
V17
p281
sVCharacterOffsetEnd
p282
V67
p283
sVPartOfSpeech
p284
VCD
p285
sVCharacterOffsetBegin
p286
V65
p287
sVNamedEntityTag
p288
VNUMBER
p289
saa(lp290
Vtickets
p291
a(dp292
VNamedEntityTag
p293
g100
sVCharacterOffsetEnd
p294
V75
p295
sVCharacterOffsetBegin
p296
V68
p297
sVPartOfSpeech
p298
VNNS
p299
sVLemma
p300
Vticket
p301
saa(lp302
Vplaying
p303
a(dp304
VNamedEntityTag
p305
g100
sVCharacterOffsetEnd
p306
V83
p307
sVCharacterOffsetBegin
p308
V76
p309
sVPartOfSpeech
p310
VVBG
p311
sVLemma
p312
Vplay
p313
saa(lp314
g208
a(dp315
VNamedEntityTag
p316
g100
sVCharacterOffsetEnd
p317
V85
p318
sVCharacterOffsetBegin
p319
V84
p320
sVPartOfSpeech
p321
V``
p322
sVLemma
p323
g208
saa(lp324
Vskee
p325
a(dp326
VNamedEntityTag
p327
g100
sVCharacterOffsetEnd
p328
V89
p329
sVCharacterOffsetBegin
p330
V85
p331
sVPartOfSpeech
p332
VNN
p333
sVLemma
p334
Vskee
p335
saa(lp336
Vball
p337
a(dp338
VNamedEntityTag
p339
g100
sVCharacterOffsetEnd
p340
V94
p341
sVCharacterOffsetBegin
p342
V90
p343
sVPartOfSpeech
p344
VNN
p345
sVLemma
p346
Vball
p347
saa(lp348
g253
a(dp349
VNamedEntityTag
p350
g100
sVCharacterOffsetEnd
p351
V95
p352
sVCharacterOffsetBegin
p353
V94
p354
sVPartOfSpeech
p355
V''
p356
sVLemma
p357
g253
saa(lp358
V.
p359
a(dp360
VNamedEntityTag
p361
g100
sVCharacterOffsetEnd
p362
V97
p363
sVCharacterOffsetBegin
p364
V96
p365
sVPartOfSpeech
p366
g359
sVLemma
p367
g359
saasVindexeddependencies
p368
(lp369
(lp370
Vroot
p371
aVROOT-0
p372
aVwon-6
p373
aa(lp374
Vdet
p375
aVarcade-3
p376
aVthe-2
p377
aa(lp378
Vprep_at
p379
aVwon-6
p380
aVarcade-3
p381
aa(lp382
Vnsubj
p383
aVwon-6
p384
aVJerry-5
p385
aa(lp386
Vnum
p387
aVtickets-8
p388
aV29-7
p389
aa(lp390
Vdobj
p391
aVwon-6
p392
aVtickets-8
p393
aa(lp394
Vvmod
p395
aVtickets-8
p396
aVplaying-9
p397
aa(lp398
Vccomp
p399
aVplaying-9
p400
aVwhack-11
p401
aa(lp402
Vdet
p403
aVmole-13
p404
aVa-12
p405
aa(lp406
Vdobj
p407
aVwhack-11
p408
aVmole-13
p409
aa(lp410
Vnum
p411
aVtickets-17
p412
aV17-16
p413
aa(lp414
Vconj_and
p415
aVtickets-8
p416
aVtickets-17
p417
aa(lp418
Vvmod
p419
aVtickets-17
p420
aVplaying-18
p421
aa(lp422
Vnn
p423
aVball-21
p424
aVskee-20
p425
aa(lp426
Vdobj
p427
aVplaying-18
p428
aVball-21
p429
aasa(dp430
Vparsetree
p431
V(ROOT (SBARQ (SBAR (IN If) (S (NP (PRP he)) (VP (VBD spent) (NP (NP (CD 12)) (PP (IN of) (NP (PRP$ his) (NNS tickets)))) (PP (IN on) (NP (DT a) (NN hat)))))) (, ,) (WHNP (WHADJP (WRB how) (JJ many)) (NNS tickets)) (SQ (VBZ does) (NP (NNP Jerry)) (VP (VB have) (VP (VBN left)))) (. ?)))
p432
sVtext
p433
VIf he spent 12 of his tickets on a hat , how many tickets does Jerry have left ?
p434
sVdependencies
p435
(lp436
(lp437
Vroot
p438
aVROOT
p439
aVleft
p440
aa(lp441
Vmark
p442
aVspent
p443
aVIf
p444
aa(lp445
Vnsubj
p446
aVspent
p447
aVhe
p448
aa(lp449
Vadvcl
p450
aVleft
p451
aVspent
p452
aa(lp453
Vdobj
p454
aVspent
p455
aV12
p456
aa(lp457
Vposs
p458
aVtickets
p459
aVhis
p460
aa(lp461
Vprep_of
p462
aV12
p463
aVtickets
p464
aa(lp465
Vdet
p466
aVhat
p467
ag69
aa(lp468
Vprep_on
p469
aVspent
p470
aVhat
p471
aa(lp472
Vadvmod
p473
aVmany
p474
aVhow
p475
aa(lp476
Vamod
p477
aVtickets
p478
aVmany
p479
aa(lp480
Vdobj
p481
aVleft
p482
aVtickets
p483
aa(lp484
Vaux
p485
aVleft
p486
aVdoes
p487
aa(lp488
Vnsubj
p489
aVleft
p490
aVJerry
p491
aa(lp492
Vaux
p493
aVleft
p494
aVhave
p495
aasVwords
p496
(lp497
(lp498
VIf
p499
a(dp500
VNamedEntityTag
p501
g100
sVCharacterOffsetEnd
p502
V100
p503
sVCharacterOffsetBegin
p504
V98
p505
sVPartOfSpeech
p506
VIN
p507
sVLemma
p508
Vif
p509
saa(lp510
Vhe
p511
a(dp512
VNamedEntityTag
p513
g100
sVCharacterOffsetEnd
p514
V103
p515
sVCharacterOffsetBegin
p516
V101
p517
sVPartOfSpeech
p518
VPRP
p519
sVLemma
p520
Vhe
p521
saa(lp522
Vspent
p523
a(dp524
VNamedEntityTag
p525
g100
sVCharacterOffsetEnd
p526
V109
p527
sVCharacterOffsetBegin
p528
V104
p529
sVPartOfSpeech
p530
VVBD
p531
sVLemma
p532
Vspend
p533
saa(lp534
V12
p535
a(dp536
VNormalizedNamedEntityTag
p537
V12.0
p538
sVLemma
p539
V12
p540
sVCharacterOffsetEnd
p541
V112
p542
sVPartOfSpeech
p543
VCD
p544
sVCharacterOffsetBegin
p545
V110
p546
sVNamedEntityTag
p547
VNUMBER
p548
saa(lp549
Vof
p550
a(dp551
VNamedEntityTag
p552
g100
sVCharacterOffsetEnd
p553
V115
p554
sVCharacterOffsetBegin
p555
V113
p556
sVPartOfSpeech
p557
VIN
p558
sVLemma
p559
Vof
p560
saa(lp561
Vhis
p562
a(dp563
VNamedEntityTag
p564
g100
sVCharacterOffsetEnd
p565
V119
p566
sVCharacterOffsetBegin
p567
V116
p568
sVPartOfSpeech
p569
VPRP$
p570
sVLemma
p571
Vhe
p572
saa(lp573
Vtickets
p574
a(dp575
VNamedEntityTag
p576
g100
sVCharacterOffsetEnd
p577
V127
p578
sVCharacterOffsetBegin
p579
V120
p580
sVPartOfSpeech
p581
VNNS
p582
sVLemma
p583
Vticket
p584
saa(lp585
Von
p586
a(dp587
VNamedEntityTag
p588
g100
sVCharacterOffsetEnd
p589
V130
p590
sVCharacterOffsetBegin
p591
V128
p592
sVPartOfSpeech
p593
VIN
p594
sVLemma
p595
Von
p596
saa(lp597
g69
a(dp598
VNamedEntityTag
p599
g100
sVCharacterOffsetEnd
p600
V132
p601
sVCharacterOffsetBegin
p602
V131
p603
sVPartOfSpeech
p604
VDT
p605
sVLemma
p606
g69
saa(lp607
Vhat
p608
a(dp609
VNamedEntityTag
p610
g100
sVCharacterOffsetEnd
p611
V136
p612
sVCharacterOffsetBegin
p613
V133
p614
sVPartOfSpeech
p615
VNN
p616
sVLemma
p617
Vhat
p618
saa(lp619
g134
a(dp620
VNamedEntityTag
p621
g100
sVCharacterOffsetEnd
p622
V138
p623
sVCharacterOffsetBegin
p624
V137
p625
sVPartOfSpeech
p626
g134
sVLemma
p627
g134
saa(lp628
Vhow
p629
a(dp630
VNamedEntityTag
p631
g100
sVCharacterOffsetEnd
p632
V142
p633
sVCharacterOffsetBegin
p634
V139
p635
sVPartOfSpeech
p636
VWRB
p637
sVLemma
p638
Vhow
p639
saa(lp640
Vmany
p641
a(dp642
VNamedEntityTag
p643
g100
sVCharacterOffsetEnd
p644
V147
p645
sVCharacterOffsetBegin
p646
V143
p647
sVPartOfSpeech
p648
VJJ
p649
sVLemma
p650
Vmany
p651
saa(lp652
Vtickets
p653
a(dp654
VNamedEntityTag
p655
g100
sVCharacterOffsetEnd
p656
V155
p657
sVCharacterOffsetBegin
p658
V148
p659
sVPartOfSpeech
p660
VNNS
p661
sVLemma
p662
Vticket
p663
saa(lp664
Vdoes
p665
a(dp666
VNamedEntityTag
p667
g100
sVCharacterOffsetEnd
p668
V160
p669
sVCharacterOffsetBegin
p670
V156
p671
sVPartOfSpeech
p672
VVBZ
p673
sVLemma
p674
Vdo
p675
saa(lp676
VJerry
p677
a(dp678
VNamedEntityTag
p679
VPERSON
p680
sVCharacterOffsetEnd
p681
V166
p682
sVCharacterOffsetBegin
p683
V161
p684
sVPartOfSpeech
p685
VNNP
p686
sVLemma
p687
VJerry
p688
saa(lp689
Vhave
p690
a(dp691
VNamedEntityTag
p692
g100
sVCharacterOffsetEnd
p693
V171
p694
sVCharacterOffsetBegin
p695
V167
p696
sVPartOfSpeech
p697
VVB
p698
sVLemma
p699
Vhave
p700
saa(lp701
Vleft
p702
a(dp703
VNamedEntityTag
p704
g100
sVCharacterOffsetEnd
p705
V176
p706
sVCharacterOffsetBegin
p707
V172
p708
sVPartOfSpeech
p709
VVBN
p710
sVLemma
p711
Vleave
p712
saa(lp713
V?
p714
a(dp715
VNamedEntityTag
p716
g100
sVCharacterOffsetEnd
p717
V178
p718
sVCharacterOffsetBegin
p719
V177
p720
sVPartOfSpeech
p721
g359
sVLemma
p722
g714
saasVindexeddependencies
p723
(lp724
(lp725
Vroot
p726
aVROOT-0
p727
aVleft-18
p728
aa(lp729
Vmark
p730
aVspent-3
p731
aVIf-1
p732
aa(lp733
Vnsubj
p734
aVspent-3
p735
aVhe-2
p736
aa(lp737
Vadvcl
p738
aVleft-18
p739
aVspent-3
p740
aa(lp741
Vdobj
p742
aVspent-3
p743
aV12-4
p744
aa(lp745
Vposs
p746
aVtickets-7
p747
aVhis-6
p748
aa(lp749
Vprep_of
p750
aV12-4
p751
aVtickets-7
p752
aa(lp753
Vdet
p754
aVhat-10
p755
aVa-9
p756
aa(lp757
Vprep_on
p758
aVspent-3
p759
aVhat-10
p760
aa(lp761
Vadvmod
p762
aVmany-13
p763
aVhow-12
p764
aa(lp765
Vamod
p766
aVtickets-14
p767
aVmany-13
p768
aa(lp769
Vdobj
p770
aVleft-18
p771
aVtickets-14
p772
aa(lp773
Vaux
p774
aVleft-18
p775
aVdoes-15
p776
aa(lp777
Vnsubj
p778
aVleft-18
p779
aVJerry-16
p780
aa(lp781
Vaux
p782
aVleft-18
p783
aVhave-17
p784
aasas.