(dp0
Vcoref
p1
(lp2
(lp3
(lp4
(lp5
Vdiscount tickets
p6
aI0
aI12
aI11
aI13
aa(lp7
V0.25 times of the tickets sold at an amusement park
p8
aI0
aI1
aI0
aI10
aaa(lp9
(lp10
Vdiscount tickets
p11
aI1
aI11
aI11
aI13
aa(lp12
V0.25 times of the tickets sold at an amusement park
p13
aI0
aI1
aI0
aI10
aaaa(lp14
(lp15
(lp16
Vthe park
p17
aI1
aI2
aI1
aI3
aa(lp18
Van amusement park
p19
aI0
aI9
aI7
aI10
aaa(lp20
(lp21
Vit
p22
aI1
aI14
aI14
aI15
aa(lp23
Van amusement park
p24
aI0
aI9
aI7
aI10
aaaa(lp25
(lp26
(lp27
Vtickets
p28
aI1
aI12
aI12
aI13
aa(lp29
V36 tickets
p30
aI1
aI5
aI4
aI6
aaaasVsentences
p31
(lp32
(dp33
Vparsetree
p34
V(ROOT (S (NP (NP (CD 0.25) (NNS times)) (PP (IN of) (NP (NP (DT the) (NNS tickets)) (VP (VBN sold) (PP (IN at) (NP (DT an) (NN amusement) (NN park))))))) (VP (VBD were) (NP (JJ discount) (NNS tickets))) (. .)))
p35
sVtext
p36
V0.25 times of the tickets sold at an amusement park were discount tickets .
p37
sVdependencies
p38
(lp39
(lp40
Vroot
p41
aVROOT
p42
aVtickets
p43
aa(lp44
Vnum
p45
aVtimes
p46
aV0.25
p47
aa(lp48
Vnsubj
p49
aVtickets
p50
aVtimes
p51
aa(lp52
Vdet
p53
aVtickets
p54
aVthe
p55
aa(lp56
Vprep_of
p57
aVtimes
p58
aVtickets
p59
aa(lp60
Vvmod
p61
aVtickets
p62
aVsold
p63
aa(lp64
Vdet
p65
aVpark
p66
aVan
p67
aa(lp68
Vnn
p69
aVpark
p70
aVamusement
p71
aa(lp72
Vprep_at
p73
aVsold
p74
aVpark
p75
aa(lp76
Vcop
p77
aVtickets
p78
aVwere
p79
aa(lp80
Vamod
p81
aVtickets
p82
aVdiscount
p83
aasVwords
p84
(lp85
(lp86
V0.25
p87
a(dp88
VNormalizedNamedEntityTag
p89
V0.25
p90
sVLemma
p91
V0.25
p92
sVCharacterOffsetEnd
p93
V5
p94
sVPartOfSpeech
p95
VCD
p96
sVCharacterOffsetBegin
p97
V1
p98
sVNamedEntityTag
p99
VNUMBER
p100
saa(lp101
Vtimes
p102
a(dp103
VNamedEntityTag
p104
VO
p105
sVCharacterOffsetEnd
p106
V11
p107
sVCharacterOffsetBegin
p108
V6
p109
sVPartOfSpeech
p110
VNNS
p111
sVLemma
p112
Vtime
p113
saa(lp114
Vof
p115
a(dp116
VNamedEntityTag
p117
g105
sVCharacterOffsetEnd
p118
V14
p119
sVCharacterOffsetBegin
p120
V12
p121
sVPartOfSpeech
p122
VIN
p123
sVLemma
p124
Vof
p125
saa(lp126
Vthe
p127
a(dp128
VNamedEntityTag
p129
g105
sVCharacterOffsetEnd
p130
V18
p131
sVCharacterOffsetBegin
p132
V15
p133
sVPartOfSpeech
p134
VDT
p135
sVLemma
p136
Vthe
p137
saa(lp138
Vtickets
p139
a(dp140
VNamedEntityTag
p141
g105
sVCharacterOffsetEnd
p142
V26
p143
sVCharacterOffsetBegin
p144
V19
p145
sVPartOfSpeech
p146
VNNS
p147
sVLemma
p148
Vticket
p149
saa(lp150
Vsold
p151
a(dp152
VNamedEntityTag
p153
g105
sVCharacterOffsetEnd
p154
V31
p155
sVCharacterOffsetBegin
p156
V27
p157
sVPartOfSpeech
p158
VVBN
p159
sVLemma
p160
Vsell
p161
saa(lp162
Vat
p163
a(dp164
VNamedEntityTag
p165
g105
sVCharacterOffsetEnd
p166
V34
p167
sVCharacterOffsetBegin
p168
V32
p169
sVPartOfSpeech
p170
VIN
p171
sVLemma
p172
Vat
p173
saa(lp174
Van
p175
a(dp176
VNamedEntityTag
p177
g105
sVCharacterOffsetEnd
p178
V37
p179
sVCharacterOffsetBegin
p180
V35
p181
sVPartOfSpeech
p182
VDT
p183
sVLemma
p184
Va
p185
saa(lp186
Vamusement
p187
a(dp188
VNamedEntityTag
p189
g105
sVCharacterOffsetEnd
p190
V47
p191
sVCharacterOffsetBegin
p192
V38
p193
sVPartOfSpeech
p194
VNN
p195
sVLemma
p196
Vamusement
p197
saa(lp198
Vpark
p199
a(dp200
VNamedEntityTag
p201
g105
sVCharacterOffsetEnd
p202
V52
p203
sVCharacterOffsetBegin
p204
V48
p205
sVPartOfSpeech
p206
VNN
p207
sVLemma
p208
Vpark
p209
saa(lp210
Vwere
p211
a(dp212
VNamedEntityTag
p213
g105
sVCharacterOffsetEnd
p214
V57
p215
sVCharacterOffsetBegin
p216
V53
p217
sVPartOfSpeech
p218
VVBD
p219
sVLemma
p220
Vbe
p221
saa(lp222
Vdiscount
p223
a(dp224
VNamedEntityTag
p225
g105
sVCharacterOffsetEnd
p226
V66
p227
sVCharacterOffsetBegin
p228
V58
p229
sVPartOfSpeech
p230
VJJ
p231
sVLemma
p232
Vdiscount
p233
saa(lp234
Vtickets
p235
a(dp236
VNamedEntityTag
p237
g105
sVCharacterOffsetEnd
p238
V74
p239
sVCharacterOffsetBegin
p240
V67
p241
sVPartOfSpeech
p242
VNNS
p243
sVLemma
p244
Vticket
p245
saa(lp246
V.
p247
a(dp248
VNamedEntityTag
p249
g105
sVCharacterOffsetEnd
p250
V76
p251
sVCharacterOffsetBegin
p252
V75
p253
sVPartOfSpeech
p254
g247
sVLemma
p255
g247
saasVindexeddependencies
p256
(lp257
(lp258
Vroot
p259
aVROOT-0
p260
aVtickets-13
p261
aa(lp262
Vnum
p263
aVtimes-2
p264
aV0.25-1
p265
aa(lp266
Vnsubj
p267
aVtickets-13
p268
aVtimes-2
p269
aa(lp270
Vdet
p271
aVtickets-5
p272
aVthe-4
p273
aa(lp274
Vprep_of
p275
aVtimes-2
p276
aVtickets-5
p277
aa(lp278
Vvmod
p279
aVtickets-5
p280
aVsold-6
p281
aa(lp282
Vdet
p283
aVpark-10
p284
aVan-8
p285
aa(lp286
Vnn
p287
aVpark-10
p288
aVamusement-9
p289
aa(lp290
Vprep_at
p291
aVsold-6
p292
aVpark-10
p293
aa(lp294
Vcop
p295
aVtickets-13
p296
aVwere-11
p297
aa(lp298
Vamod
p299
aVtickets-13
p300
aVdiscount-12
p301
aasa(dp302
Vparsetree
p303
V(ROOT (SBARQ (SBAR (IN If) (S (NP (DT the) (NN park)) (VP (VBD sold) (NP (CD 36) (NNS tickets)) (PP (IN in) (NP (DT all)))))) (, ,) (WHNP (WHADJP (WRB how) (JJ many)) (NP (NP (NN discount)) (NP (NNS tickets)))) (SQ (VBD did) (NP (PRP it)) (VP (VB sell))) (. ?)))
p304
sVtext
p305
VIf the park sold 36 tickets in all , how many discount tickets did it sell ?
p306
sVdependencies
p307
(lp308
(lp309
Vroot
p310
aVROOT
p311
aVsell
p312
aa(lp313
Vmark
p314
aVsold
p315
aVIf
p316
aa(lp317
Vdet
p318
aVpark
p319
aVthe
p320
aa(lp321
Vnsubj
p322
aVsold
p323
aVpark
p324
aa(lp325
Vadvcl
p326
aVsell
p327
aVsold
p328
aa(lp329
Vnum
p330
aVtickets
p331
aV36
p332
aa(lp333
Vdobj
p334
aVsold
p335
aVtickets
p336
aa(lp337
Vprep_in
p338
aVsold
p339
aVall
p340
aa(lp341
Vadvmod
p342
aVmany
p343
aVhow
p344
aa(lp345
Vamod
p346
aVdiscount
p347
aVmany
p348
aa(lp349
Vdobj
p350
aVsell
p351
aVdiscount
p352
aa(lp353
Vdep
p354
aVdiscount
p355
aVtickets
p356
aa(lp357
Vaux
p358
aVsell
p359
aVdid
p360
aa(lp361
Vnsubj
p362
aVsell
p363
aVit
p364
aasVwords
p365
(lp366
(lp367
VIf
p368
a(dp369
VNamedEntityTag
p370
g105
sVCharacterOffsetEnd
p371
V79
p372
sVCharacterOffsetBegin
p373
V77
p374
sVPartOfSpeech
p375
VIN
p376
sVLemma
p377
Vif
p378
saa(lp379
Vthe
p380
a(dp381
VNamedEntityTag
p382
g105
sVCharacterOffsetEnd
p383
V83
p384
sVCharacterOffsetBegin
p385
V80
p386
sVPartOfSpeech
p387
VDT
p388
sVLemma
p389
Vthe
p390
saa(lp391
Vpark
p392
a(dp393
VNamedEntityTag
p394
g105
sVCharacterOffsetEnd
p395
V88
p396
sVCharacterOffsetBegin
p397
V84
p398
sVPartOfSpeech
p399
VNN
p400
sVLemma
p401
Vpark
p402
saa(lp403
Vsold
p404
a(dp405
VNamedEntityTag
p406
g105
sVCharacterOffsetEnd
p407
V93
p408
sVCharacterOffsetBegin
p409
V89
p410
sVPartOfSpeech
p411
VVBD
p412
sVLemma
p413
Vsell
p414
saa(lp415
V36
p416
a(dp417
VNormalizedNamedEntityTag
p418
V36.0
p419
sVLemma
p420
V36
p421
sVCharacterOffsetEnd
p422
V96
p423
sVPartOfSpeech
p424
VCD
p425
sVCharacterOffsetBegin
p426
V94
p427
sVNamedEntityTag
p428
VNUMBER
p429
saa(lp430
Vtickets
p431
a(dp432
VNamedEntityTag
p433
g105
sVCharacterOffsetEnd
p434
V104
p435
sVCharacterOffsetBegin
p436
V97
p437
sVPartOfSpeech
p438
VNNS
p439
sVLemma
p440
Vticket
p441
saa(lp442
Vin
p443
a(dp444
VNamedEntityTag
p445
g105
sVCharacterOffsetEnd
p446
V107
p447
sVCharacterOffsetBegin
p448
V105
p449
sVPartOfSpeech
p450
VIN
p451
sVLemma
p452
Vin
p453
saa(lp454
Vall
p455
a(dp456
VNamedEntityTag
p457
g105
sVCharacterOffsetEnd
p458
V111
p459
sVCharacterOffsetBegin
p460
V108
p461
sVPartOfSpeech
p462
VDT
p463
sVLemma
p464
Vall
p465
saa(lp466
V,
p467
a(dp468
VNamedEntityTag
p469
g105
sVCharacterOffsetEnd
p470
V113
p471
sVCharacterOffsetBegin
p472
V112
p473
sVPartOfSpeech
p474
g467
sVLemma
p475
g467
saa(lp476
Vhow
p477
a(dp478
VNamedEntityTag
p479
g105
sVCharacterOffsetEnd
p480
V117
p481
sVCharacterOffsetBegin
p482
V114
p483
sVPartOfSpeech
p484
VWRB
p485
sVLemma
p486
Vhow
p487
saa(lp488
Vmany
p489
a(dp490
VNamedEntityTag
p491
g105
sVCharacterOffsetEnd
p492
V122
p493
sVCharacterOffsetBegin
p494
V118
p495
sVPartOfSpeech
p496
VJJ
p497
sVLemma
p498
Vmany
p499
saa(lp500
Vdiscount
p501
a(dp502
VNamedEntityTag
p503
g105
sVCharacterOffsetEnd
p504
V131
p505
sVCharacterOffsetBegin
p506
V123
p507
sVPartOfSpeech
p508
VNN
p509
sVLemma
p510
Vdiscount
p511
saa(lp512
Vtickets
p513
a(dp514
VNamedEntityTag
p515
g105
sVCharacterOffsetEnd
p516
V139
p517
sVCharacterOffsetBegin
p518
V132
p519
sVPartOfSpeech
p520
VNNS
p521
sVLemma
p522
Vticket
p523
saa(lp524
Vdid
p525
a(dp526
VNamedEntityTag
p527
g105
sVCharacterOffsetEnd
p528
V143
p529
sVCharacterOffsetBegin
p530
V140
p531
sVPartOfSpeech
p532
VVBD
p533
sVLemma
p534
Vdo
p535
saa(lp536
Vit
p537
a(dp538
VNamedEntityTag
p539
g105
sVCharacterOffsetEnd
p540
V146
p541
sVCharacterOffsetBegin
p542
V144
p543
sVPartOfSpeech
p544
VPRP
p545
sVLemma
p546
Vit
p547
saa(lp548
Vsell
p549
a(dp550
VNamedEntityTag
p551
g105
sVCharacterOffsetEnd
p552
V151
p553
sVCharacterOffsetBegin
p554
V147
p555
sVPartOfSpeech
p556
VVB
p557
sVLemma
p558
Vsell
p559
saa(lp560
V?
p561
a(dp562
VNamedEntityTag
p563
g105
sVCharacterOffsetEnd
p564
V153
p565
sVCharacterOffsetBegin
p566
V152
p567
sVPartOfSpeech
p568
g247
sVLemma
p569
g561
saasVindexeddependencies
p570
(lp571
(lp572
Vroot
p573
aVROOT-0
p574
aVsell-16
p575
aa(lp576
Vmark
p577
aVsold-4
p578
aVIf-1
p579
aa(lp580
Vdet
p581
aVpark-3
p582
aVthe-2
p583
aa(lp584
Vnsubj
p585
aVsold-4
p586
aVpark-3
p587
aa(lp588
Vadvcl
p589
aVsell-16
p590
aVsold-4
p591
aa(lp592
Vnum
p593
aVtickets-6
p594
aV36-5
p595
aa(lp596
Vdobj
p597
aVsold-4
p598
aVtickets-6
p599
aa(lp600
Vprep_in
p601
aVsold-4
p602
aVall-8
p603
aa(lp604
Vadvmod
p605
aVmany-11
p606
aVhow-10
p607
aa(lp608
Vamod
p609
aVdiscount-12
p610
aVmany-11
p611
aa(lp612
Vdobj
p613
aVsell-16
p614
aVdiscount-12
p615
aa(lp616
Vdep
p617
aVdiscount-12
p618
aVtickets-13
p619
aa(lp620
Vaux
p621
aVsell-16
p622
aVdid-14
p623
aa(lp624
Vnsubj
p625
aVsell-16
p626
aVit-15
p627
aasas.